ARM GAS  C:\Users\DEVELO~1\AppData\Local\Temp\cc4WljaS.s 			page 1


   1              		.cpu cortex-m7
   2              		.arch armv7e-m
   3              		.fpu softvfp
   4              		.eabi_attribute 20, 1
   5              		.eabi_attribute 21, 1
   6              		.eabi_attribute 23, 3
   7              		.eabi_attribute 24, 1
   8              		.eabi_attribute 25, 1
   9              		.eabi_attribute 26, 1
  10              		.eabi_attribute 30, 6
  11              		.eabi_attribute 34, 1
  12              		.eabi_attribute 18, 4
  13              		.file	"stm32h7xx_hal_gpio.c"
  14              		.text
  15              	.Ltext0:
  16              		.cfi_sections	.debug_frame
  17              		.section	.text.HAL_GPIO_Init,"ax",%progbits
  18              		.align	1
  19              		.global	HAL_GPIO_Init
  20              		.syntax unified
  21              		.thumb
  22              		.thumb_func
  23              		.type	HAL_GPIO_Init, %function
  24              	HAL_GPIO_Init:
  25              	.LFB141:
  26              		.file 1 "drivers/stm32h7xx-hal-driver/Src/stm32h7xx_hal_gpio.c"
  27              		.loc 1 166 1
  28              		.cfi_startproc
  29              		@ args = 0, pretend = 0, frame = 32
  30              		@ frame_needed = 1, uses_anonymous_args = 0
  31              		@ link register save eliminated.
  32 0000 80B4     		push	{r7}
  33              		.cfi_def_cfa_offset 4
  34              		.cfi_offset 7, -4
  35 0002 89B0     		sub	sp, sp, #36
  36              		.cfi_def_cfa_offset 40
  37 0004 00AF     		add	r7, sp, #0
  38              		.cfi_def_cfa_register 7
  39 0006 7860     		str	r0, [r7, #4]
  40 0008 3960     		str	r1, [r7]
  41              		.loc 1 167 12
  42 000a 0023     		movs	r3, #0
  43 000c FB61     		str	r3, [r7, #28]
  44              		.loc 1 175 19
  45 000e 8E4B     		ldr	r3, .L34
  46 0010 7B61     		str	r3, [r7, #20]
  47              		.loc 1 184 9
  48 0012 9EE1     		b	.L2
  49              	.L33:
  50              		.loc 1 187 27
  51 0014 3B68     		ldr	r3, [r7]
  52 0016 1A68     		ldr	r2, [r3]
  53              		.loc 1 187 41
  54 0018 0121     		movs	r1, #1
  55 001a FB69     		ldr	r3, [r7, #28]
  56 001c 01FA03F3 		lsl	r3, r1, r3
  57              		.loc 1 187 15
ARM GAS  C:\Users\DEVELO~1\AppData\Local\Temp\cc4WljaS.s 			page 2


  58 0020 1340     		ands	r3, r3, r2
  59 0022 3B61     		str	r3, [r7, #16]
  60              		.loc 1 189 8
  61 0024 3B69     		ldr	r3, [r7, #16]
  62 0026 002B     		cmp	r3, #0
  63 0028 00F09081 		beq	.L3
  64              		.loc 1 193 22
  65 002c 3B68     		ldr	r3, [r7]
  66 002e 5B68     		ldr	r3, [r3, #4]
  67              		.loc 1 193 29
  68 0030 03F00303 		and	r3, r3, #3
  69              		.loc 1 193 10
  70 0034 012B     		cmp	r3, #1
  71 0036 05D0     		beq	.L4
  72              		.loc 1 193 72 discriminator 1
  73 0038 3B68     		ldr	r3, [r7]
  74 003a 5B68     		ldr	r3, [r3, #4]
  75              		.loc 1 193 79 discriminator 1
  76 003c 03F00303 		and	r3, r3, #3
  77              		.loc 1 193 58 discriminator 1
  78 0040 022B     		cmp	r3, #2
  79 0042 30D1     		bne	.L5
  80              	.L4:
  81              		.loc 1 199 14
  82 0044 7B68     		ldr	r3, [r7, #4]
  83 0046 9B68     		ldr	r3, [r3, #8]
  84 0048 BB61     		str	r3, [r7, #24]
  85              		.loc 1 200 53
  86 004a FB69     		ldr	r3, [r7, #28]
  87 004c 5B00     		lsls	r3, r3, #1
  88              		.loc 1 200 40
  89 004e 0322     		movs	r2, #3
  90 0050 02FA03F3 		lsl	r3, r2, r3
  91              		.loc 1 200 17
  92 0054 DB43     		mvns	r3, r3
  93              		.loc 1 200 14
  94 0056 BA69     		ldr	r2, [r7, #24]
  95 0058 1340     		ands	r3, r3, r2
  96 005a BB61     		str	r3, [r7, #24]
  97              		.loc 1 201 27
  98 005c 3B68     		ldr	r3, [r7]
  99 005e DA68     		ldr	r2, [r3, #12]
 100              		.loc 1 201 48
 101 0060 FB69     		ldr	r3, [r7, #28]
 102 0062 5B00     		lsls	r3, r3, #1
 103              		.loc 1 201 35
 104 0064 02FA03F3 		lsl	r3, r2, r3
 105              		.loc 1 201 14
 106 0068 BA69     		ldr	r2, [r7, #24]
 107 006a 1343     		orrs	r3, r3, r2
 108 006c BB61     		str	r3, [r7, #24]
 109              		.loc 1 202 24
 110 006e 7B68     		ldr	r3, [r7, #4]
 111 0070 BA69     		ldr	r2, [r7, #24]
 112 0072 9A60     		str	r2, [r3, #8]
 113              		.loc 1 205 14
 114 0074 7B68     		ldr	r3, [r7, #4]
ARM GAS  C:\Users\DEVELO~1\AppData\Local\Temp\cc4WljaS.s 			page 3


 115 0076 5B68     		ldr	r3, [r3, #4]
 116 0078 BB61     		str	r3, [r7, #24]
 117              		.loc 1 206 35
 118 007a 0122     		movs	r2, #1
 119 007c FB69     		ldr	r3, [r7, #28]
 120 007e 02FA03F3 		lsl	r3, r2, r3
 121              		.loc 1 206 17
 122 0082 DB43     		mvns	r3, r3
 123              		.loc 1 206 14
 124 0084 BA69     		ldr	r2, [r7, #24]
 125 0086 1340     		ands	r3, r3, r2
 126 0088 BB61     		str	r3, [r7, #24]
 127              		.loc 1 207 29
 128 008a 3B68     		ldr	r3, [r7]
 129 008c 5B68     		ldr	r3, [r3, #4]
 130              		.loc 1 207 51
 131 008e 1B09     		lsrs	r3, r3, #4
 132 0090 03F00102 		and	r2, r3, #1
 133              		.loc 1 207 71
 134 0094 FB69     		ldr	r3, [r7, #28]
 135 0096 02FA03F3 		lsl	r3, r2, r3
 136              		.loc 1 207 14
 137 009a BA69     		ldr	r2, [r7, #24]
 138 009c 1343     		orrs	r3, r3, r2
 139 009e BB61     		str	r3, [r7, #24]
 140              		.loc 1 208 23
 141 00a0 7B68     		ldr	r3, [r7, #4]
 142 00a2 BA69     		ldr	r2, [r7, #24]
 143 00a4 5A60     		str	r2, [r3, #4]
 144              	.L5:
 145              		.loc 1 211 22
 146 00a6 3B68     		ldr	r3, [r7]
 147 00a8 5B68     		ldr	r3, [r3, #4]
 148              		.loc 1 211 29
 149 00aa 03F00303 		and	r3, r3, #3
 150              		.loc 1 211 10
 151 00ae 032B     		cmp	r3, #3
 152 00b0 09D1     		bne	.L6
 153              		.loc 1 212 23 discriminator 1
 154 00b2 3B68     		ldr	r3, [r7]
 155 00b4 5B68     		ldr	r3, [r3, #4]
 156              		.loc 1 212 30 discriminator 1
 157 00b6 03F00303 		and	r3, r3, #3
 158              		.loc 1 211 58 discriminator 1
 159 00ba 032B     		cmp	r3, #3
 160 00bc 1BD1     		bne	.L7
 161              		.loc 1 212 72
 162 00be 3B68     		ldr	r3, [r7]
 163 00c0 9B68     		ldr	r3, [r3, #8]
 164              		.loc 1 212 59
 165 00c2 012B     		cmp	r3, #1
 166 00c4 17D0     		beq	.L7
 167              	.L6:
 168              		.loc 1 218 12
 169 00c6 7B68     		ldr	r3, [r7, #4]
 170 00c8 DB68     		ldr	r3, [r3, #12]
 171 00ca BB61     		str	r3, [r7, #24]
ARM GAS  C:\Users\DEVELO~1\AppData\Local\Temp\cc4WljaS.s 			page 4


 172              		.loc 1 219 47
 173 00cc FB69     		ldr	r3, [r7, #28]
 174 00ce 5B00     		lsls	r3, r3, #1
 175              		.loc 1 219 34
 176 00d0 0322     		movs	r2, #3
 177 00d2 02FA03F3 		lsl	r3, r2, r3
 178              		.loc 1 219 15
 179 00d6 DB43     		mvns	r3, r3
 180              		.loc 1 219 12
 181 00d8 BA69     		ldr	r2, [r7, #24]
 182 00da 1340     		ands	r3, r3, r2
 183 00dc BB61     		str	r3, [r7, #24]
 184              		.loc 1 220 26
 185 00de 3B68     		ldr	r3, [r7]
 186 00e0 9A68     		ldr	r2, [r3, #8]
 187              		.loc 1 220 47
 188 00e2 FB69     		ldr	r3, [r7, #28]
 189 00e4 5B00     		lsls	r3, r3, #1
 190              		.loc 1 220 34
 191 00e6 02FA03F3 		lsl	r3, r2, r3
 192              		.loc 1 220 12
 193 00ea BA69     		ldr	r2, [r7, #24]
 194 00ec 1343     		orrs	r3, r3, r2
 195 00ee BB61     		str	r3, [r7, #24]
 196              		.loc 1 221 20
 197 00f0 7B68     		ldr	r3, [r7, #4]
 198 00f2 BA69     		ldr	r2, [r7, #24]
 199 00f4 DA60     		str	r2, [r3, #12]
 200              	.L7:
 201              		.loc 1 225 21
 202 00f6 3B68     		ldr	r3, [r7]
 203 00f8 5B68     		ldr	r3, [r3, #4]
 204              		.loc 1 225 28
 205 00fa 03F00303 		and	r3, r3, #3
 206              		.loc 1 225 10
 207 00fe 022B     		cmp	r3, #2
 208 0100 23D1     		bne	.L8
 209              		.loc 1 232 36
 210 0102 FB69     		ldr	r3, [r7, #28]
 211 0104 DA08     		lsrs	r2, r3, #3
 212              		.loc 1 232 14
 213 0106 7B68     		ldr	r3, [r7, #4]
 214 0108 0832     		adds	r2, r2, #8
 215 010a 53F82230 		ldr	r3, [r3, r2, lsl #2]
 216 010e BB61     		str	r3, [r7, #24]
 217              		.loc 1 233 38
 218 0110 FB69     		ldr	r3, [r7, #28]
 219 0112 03F00703 		and	r3, r3, #7
 220              		.loc 1 233 47
 221 0116 9B00     		lsls	r3, r3, #2
 222              		.loc 1 233 24
 223 0118 0F22     		movs	r2, #15
 224 011a 02FA03F3 		lsl	r3, r2, r3
 225              		.loc 1 233 17
 226 011e DB43     		mvns	r3, r3
 227              		.loc 1 233 14
 228 0120 BA69     		ldr	r2, [r7, #24]
ARM GAS  C:\Users\DEVELO~1\AppData\Local\Temp\cc4WljaS.s 			page 5


 229 0122 1340     		ands	r3, r3, r2
 230 0124 BB61     		str	r3, [r7, #24]
 231              		.loc 1 234 28
 232 0126 3B68     		ldr	r3, [r7]
 233 0128 1A69     		ldr	r2, [r3, #16]
 234              		.loc 1 234 55
 235 012a FB69     		ldr	r3, [r7, #28]
 236 012c 03F00703 		and	r3, r3, #7
 237              		.loc 1 234 64
 238 0130 9B00     		lsls	r3, r3, #2
 239              		.loc 1 234 41
 240 0132 02FA03F3 		lsl	r3, r2, r3
 241              		.loc 1 234 14
 242 0136 BA69     		ldr	r2, [r7, #24]
 243 0138 1343     		orrs	r3, r3, r2
 244 013a BB61     		str	r3, [r7, #24]
 245              		.loc 1 235 29
 246 013c FB69     		ldr	r3, [r7, #28]
 247 013e DA08     		lsrs	r2, r3, #3
 248              		.loc 1 235 36
 249 0140 7B68     		ldr	r3, [r7, #4]
 250 0142 0832     		adds	r2, r2, #8
 251 0144 B969     		ldr	r1, [r7, #24]
 252 0146 43F82210 		str	r1, [r3, r2, lsl #2]
 253              	.L8:
 254              		.loc 1 239 12
 255 014a 7B68     		ldr	r3, [r7, #4]
 256 014c 1B68     		ldr	r3, [r3]
 257 014e BB61     		str	r3, [r7, #24]
 258              		.loc 1 240 47
 259 0150 FB69     		ldr	r3, [r7, #28]
 260 0152 5B00     		lsls	r3, r3, #1
 261              		.loc 1 240 34
 262 0154 0322     		movs	r2, #3
 263 0156 02FA03F3 		lsl	r3, r2, r3
 264              		.loc 1 240 15
 265 015a DB43     		mvns	r3, r3
 266              		.loc 1 240 12
 267 015c BA69     		ldr	r2, [r7, #24]
 268 015e 1340     		ands	r3, r3, r2
 269 0160 BB61     		str	r3, [r7, #24]
 270              		.loc 1 241 26
 271 0162 3B68     		ldr	r3, [r7]
 272 0164 5B68     		ldr	r3, [r3, #4]
 273              		.loc 1 241 33
 274 0166 03F00302 		and	r2, r3, #3
 275              		.loc 1 241 59
 276 016a FB69     		ldr	r3, [r7, #28]
 277 016c 5B00     		lsls	r3, r3, #1
 278              		.loc 1 241 46
 279 016e 02FA03F3 		lsl	r3, r2, r3
 280              		.loc 1 241 12
 281 0172 BA69     		ldr	r2, [r7, #24]
 282 0174 1343     		orrs	r3, r3, r2
 283 0176 BB61     		str	r3, [r7, #24]
 284              		.loc 1 242 20
 285 0178 7B68     		ldr	r3, [r7, #4]
ARM GAS  C:\Users\DEVELO~1\AppData\Local\Temp\cc4WljaS.s 			page 6


 286 017a BA69     		ldr	r2, [r7, #24]
 287 017c 1A60     		str	r2, [r3]
 288              		.loc 1 246 21
 289 017e 3B68     		ldr	r3, [r7]
 290 0180 5B68     		ldr	r3, [r3, #4]
 291              		.loc 1 246 28
 292 0182 03F44033 		and	r3, r3, #196608
 293              		.loc 1 246 10
 294 0186 002B     		cmp	r3, #0
 295 0188 00F0E080 		beq	.L3
 296              	.LBB2:
 297              		.loc 1 249 9
 298 018c 2F4B     		ldr	r3, .L34+4
 299 018e D3F8F430 		ldr	r3, [r3, #244]
 300 0192 2E4A     		ldr	r2, .L34+4
 301 0194 43F00203 		orr	r3, r3, #2
 302 0198 C2F8F430 		str	r3, [r2, #244]
 303 019c 2B4B     		ldr	r3, .L34+4
 304 019e D3F8F430 		ldr	r3, [r3, #244]
 305 01a2 03F00203 		and	r3, r3, #2
 306 01a6 FB60     		str	r3, [r7, #12]
 307 01a8 FB68     		ldr	r3, [r7, #12]
 308              	.LBE2:
 309              		.loc 1 251 22
 310 01aa 294A     		ldr	r2, .L34+8
 311              		.loc 1 251 40
 312 01ac FB69     		ldr	r3, [r7, #28]
 313 01ae 9B08     		lsrs	r3, r3, #2
 314              		.loc 1 251 14
 315 01b0 0233     		adds	r3, r3, #2
 316 01b2 52F82330 		ldr	r3, [r2, r3, lsl #2]
 317 01b6 BB61     		str	r3, [r7, #24]
 318              		.loc 1 252 45
 319 01b8 FB69     		ldr	r3, [r7, #28]
 320 01ba 03F00303 		and	r3, r3, #3
 321              		.loc 1 252 33
 322 01be 9B00     		lsls	r3, r3, #2
 323              		.loc 1 252 26
 324 01c0 0F22     		movs	r2, #15
 325 01c2 02FA03F3 		lsl	r3, r2, r3
 326              		.loc 1 252 17
 327 01c6 DB43     		mvns	r3, r3
 328              		.loc 1 252 14
 329 01c8 BA69     		ldr	r2, [r7, #24]
 330 01ca 1340     		ands	r3, r3, r2
 331 01cc BB61     		str	r3, [r7, #24]
 332              		.loc 1 253 18
 333 01ce 7B68     		ldr	r3, [r7, #4]
 334 01d0 204A     		ldr	r2, .L34+12
 335 01d2 9342     		cmp	r3, r2
 336 01d4 52D0     		beq	.L9
 337              		.loc 1 253 18 is_stmt 0 discriminator 1
 338 01d6 7B68     		ldr	r3, [r7, #4]
 339 01d8 1F4A     		ldr	r2, .L34+16
 340 01da 9342     		cmp	r3, r2
 341 01dc 31D0     		beq	.L10
 342              		.loc 1 253 18 discriminator 3
ARM GAS  C:\Users\DEVELO~1\AppData\Local\Temp\cc4WljaS.s 			page 7


 343 01de 7B68     		ldr	r3, [r7, #4]
 344 01e0 1E4A     		ldr	r2, .L34+20
 345 01e2 9342     		cmp	r3, r2
 346 01e4 2BD0     		beq	.L11
 347              		.loc 1 253 18 discriminator 5
 348 01e6 7B68     		ldr	r3, [r7, #4]
 349 01e8 1D4A     		ldr	r2, .L34+24
 350 01ea 9342     		cmp	r3, r2
 351 01ec 25D0     		beq	.L12
 352              		.loc 1 253 18 discriminator 7
 353 01ee 7B68     		ldr	r3, [r7, #4]
 354 01f0 1C4A     		ldr	r2, .L34+28
 355 01f2 9342     		cmp	r3, r2
 356 01f4 1FD0     		beq	.L13
 357              		.loc 1 253 18 discriminator 9
 358 01f6 7B68     		ldr	r3, [r7, #4]
 359 01f8 1B4A     		ldr	r2, .L34+32
 360 01fa 9342     		cmp	r3, r2
 361 01fc 19D0     		beq	.L14
 362              		.loc 1 253 18 discriminator 11
 363 01fe 7B68     		ldr	r3, [r7, #4]
 364 0200 1A4A     		ldr	r2, .L34+36
 365 0202 9342     		cmp	r3, r2
 366 0204 13D0     		beq	.L15
 367              		.loc 1 253 18 discriminator 13
 368 0206 7B68     		ldr	r3, [r7, #4]
 369 0208 194A     		ldr	r2, .L34+40
 370 020a 9342     		cmp	r3, r2
 371 020c 0DD0     		beq	.L16
 372              		.loc 1 253 18 discriminator 15
 373 020e 7B68     		ldr	r3, [r7, #4]
 374 0210 184A     		ldr	r2, .L34+44
 375 0212 9342     		cmp	r3, r2
 376 0214 07D0     		beq	.L17
 377              		.loc 1 253 18 discriminator 17
 378 0216 7B68     		ldr	r3, [r7, #4]
 379 0218 174A     		ldr	r2, .L34+48
 380 021a 9342     		cmp	r3, r2
 381 021c 01D1     		bne	.L18
 382              		.loc 1 253 18 discriminator 19
 383 021e 0923     		movs	r3, #9
 384 0220 2DE0     		b	.L28
 385              	.L18:
 386              		.loc 1 253 18 discriminator 20
 387 0222 0A23     		movs	r3, #10
 388 0224 2BE0     		b	.L28
 389              	.L17:
 390              		.loc 1 253 18 discriminator 18
 391 0226 0823     		movs	r3, #8
 392 0228 29E0     		b	.L28
 393              	.L16:
 394              		.loc 1 253 18 discriminator 16
 395 022a 0723     		movs	r3, #7
 396 022c 27E0     		b	.L28
 397              	.L15:
 398              		.loc 1 253 18 discriminator 14
 399 022e 0623     		movs	r3, #6
ARM GAS  C:\Users\DEVELO~1\AppData\Local\Temp\cc4WljaS.s 			page 8


 400 0230 25E0     		b	.L28
 401              	.L14:
 402              		.loc 1 253 18 discriminator 12
 403 0232 0523     		movs	r3, #5
 404 0234 23E0     		b	.L28
 405              	.L13:
 406              		.loc 1 253 18 discriminator 10
 407 0236 0423     		movs	r3, #4
 408 0238 21E0     		b	.L28
 409              	.L12:
 410              		.loc 1 253 18 discriminator 8
 411 023a 0323     		movs	r3, #3
 412 023c 1FE0     		b	.L28
 413              	.L11:
 414              		.loc 1 253 18 discriminator 6
 415 023e 0223     		movs	r3, #2
 416 0240 1DE0     		b	.L28
 417              	.L10:
 418              		.loc 1 253 18 discriminator 4
 419 0242 0123     		movs	r3, #1
 420 0244 1BE0     		b	.L28
 421              	.L35:
 422 0246 00BF     		.align	2
 423              	.L34:
 424 0248 80000058 		.word	1476395136
 425 024c 00440258 		.word	1476543488
 426 0250 00040058 		.word	1476396032
 427 0254 00000258 		.word	1476526080
 428 0258 00040258 		.word	1476527104
 429 025c 00080258 		.word	1476528128
 430 0260 000C0258 		.word	1476529152
 431 0264 00100258 		.word	1476530176
 432 0268 00140258 		.word	1476531200
 433 026c 00180258 		.word	1476532224
 434 0270 001C0258 		.word	1476533248
 435 0274 00200258 		.word	1476534272
 436 0278 00240258 		.word	1476535296
 437              	.L9:
 438              		.loc 1 253 18 discriminator 2
 439 027c 0023     		movs	r3, #0
 440              	.L28:
 441              		.loc 1 253 59 is_stmt 1 discriminator 40
 442 027e FA69     		ldr	r2, [r7, #28]
 443 0280 02F00302 		and	r2, r2, #3
 444              		.loc 1 253 47 discriminator 40
 445 0284 9200     		lsls	r2, r2, #2
 446              		.loc 1 253 40 discriminator 40
 447 0286 9340     		lsls	r3, r3, r2
 448              		.loc 1 253 14 discriminator 40
 449 0288 BA69     		ldr	r2, [r7, #24]
 450 028a 1343     		orrs	r3, r3, r2
 451 028c BB61     		str	r3, [r7, #24]
 452              		.loc 1 254 15 discriminator 40
 453 028e 3849     		ldr	r1, .L36
 454              		.loc 1 254 33 discriminator 40
 455 0290 FB69     		ldr	r3, [r7, #28]
 456 0292 9B08     		lsrs	r3, r3, #2
ARM GAS  C:\Users\DEVELO~1\AppData\Local\Temp\cc4WljaS.s 			page 9


 457              		.loc 1 254 40 discriminator 40
 458 0294 0233     		adds	r3, r3, #2
 459 0296 BA69     		ldr	r2, [r7, #24]
 460 0298 41F82320 		str	r2, [r1, r3, lsl #2]
 461              		.loc 1 257 20 discriminator 40
 462 029c 4FF0B043 		mov	r3, #1476395008
 463              		.loc 1 257 14 discriminator 40
 464 02a0 1B68     		ldr	r3, [r3]
 465 02a2 BB61     		str	r3, [r7, #24]
 466              		.loc 1 258 17 discriminator 40
 467 02a4 3B69     		ldr	r3, [r7, #16]
 468 02a6 DB43     		mvns	r3, r3
 469              		.loc 1 258 14 discriminator 40
 470 02a8 BA69     		ldr	r2, [r7, #24]
 471 02aa 1340     		ands	r3, r3, r2
 472 02ac BB61     		str	r3, [r7, #24]
 473              		.loc 1 259 23 discriminator 40
 474 02ae 3B68     		ldr	r3, [r7]
 475 02b0 5B68     		ldr	r3, [r3, #4]
 476              		.loc 1 259 30 discriminator 40
 477 02b2 03F48013 		and	r3, r3, #1048576
 478              		.loc 1 259 12 discriminator 40
 479 02b6 002B     		cmp	r3, #0
 480 02b8 03D0     		beq	.L29
 481              		.loc 1 261 16
 482 02ba BA69     		ldr	r2, [r7, #24]
 483 02bc 3B69     		ldr	r3, [r7, #16]
 484 02be 1343     		orrs	r3, r3, r2
 485 02c0 BB61     		str	r3, [r7, #24]
 486              	.L29:
 487              		.loc 1 263 13
 488 02c2 4FF0B042 		mov	r2, #1476395008
 489              		.loc 1 263 21
 490 02c6 BB69     		ldr	r3, [r7, #24]
 491 02c8 1360     		str	r3, [r2]
 492              		.loc 1 265 20
 493 02ca 4FF0B043 		mov	r3, #1476395008
 494              		.loc 1 265 14
 495 02ce 5B68     		ldr	r3, [r3, #4]
 496 02d0 BB61     		str	r3, [r7, #24]
 497              		.loc 1 266 17
 498 02d2 3B69     		ldr	r3, [r7, #16]
 499 02d4 DB43     		mvns	r3, r3
 500              		.loc 1 266 14
 501 02d6 BA69     		ldr	r2, [r7, #24]
 502 02d8 1340     		ands	r3, r3, r2
 503 02da BB61     		str	r3, [r7, #24]
 504              		.loc 1 267 23
 505 02dc 3B68     		ldr	r3, [r7]
 506 02de 5B68     		ldr	r3, [r3, #4]
 507              		.loc 1 267 30
 508 02e0 03F40013 		and	r3, r3, #2097152
 509              		.loc 1 267 12
 510 02e4 002B     		cmp	r3, #0
 511 02e6 03D0     		beq	.L30
 512              		.loc 1 269 16
 513 02e8 BA69     		ldr	r2, [r7, #24]
ARM GAS  C:\Users\DEVELO~1\AppData\Local\Temp\cc4WljaS.s 			page 10


 514 02ea 3B69     		ldr	r3, [r7, #16]
 515 02ec 1343     		orrs	r3, r3, r2
 516 02ee BB61     		str	r3, [r7, #24]
 517              	.L30:
 518              		.loc 1 271 13
 519 02f0 4FF0B042 		mov	r2, #1476395008
 520              		.loc 1 271 21
 521 02f4 BB69     		ldr	r3, [r7, #24]
 522 02f6 5360     		str	r3, [r2, #4]
 523              		.loc 1 273 14
 524 02f8 7B69     		ldr	r3, [r7, #20]
 525 02fa 5B68     		ldr	r3, [r3, #4]
 526 02fc BB61     		str	r3, [r7, #24]
 527              		.loc 1 274 17
 528 02fe 3B69     		ldr	r3, [r7, #16]
 529 0300 DB43     		mvns	r3, r3
 530              		.loc 1 274 14
 531 0302 BA69     		ldr	r2, [r7, #24]
 532 0304 1340     		ands	r3, r3, r2
 533 0306 BB61     		str	r3, [r7, #24]
 534              		.loc 1 275 23
 535 0308 3B68     		ldr	r3, [r7]
 536 030a 5B68     		ldr	r3, [r3, #4]
 537              		.loc 1 275 30
 538 030c 03F40033 		and	r3, r3, #131072
 539              		.loc 1 275 12
 540 0310 002B     		cmp	r3, #0
 541 0312 03D0     		beq	.L31
 542              		.loc 1 277 16
 543 0314 BA69     		ldr	r2, [r7, #24]
 544 0316 3B69     		ldr	r3, [r7, #16]
 545 0318 1343     		orrs	r3, r3, r2
 546 031a BB61     		str	r3, [r7, #24]
 547              	.L31:
 548              		.loc 1 279 31
 549 031c 7B69     		ldr	r3, [r7, #20]
 550 031e BA69     		ldr	r2, [r7, #24]
 551 0320 5A60     		str	r2, [r3, #4]
 552              		.loc 1 282 14
 553 0322 7B69     		ldr	r3, [r7, #20]
 554 0324 1B68     		ldr	r3, [r3]
 555 0326 BB61     		str	r3, [r7, #24]
 556              		.loc 1 283 17
 557 0328 3B69     		ldr	r3, [r7, #16]
 558 032a DB43     		mvns	r3, r3
 559              		.loc 1 283 14
 560 032c BA69     		ldr	r2, [r7, #24]
 561 032e 1340     		ands	r3, r3, r2
 562 0330 BB61     		str	r3, [r7, #24]
 563              		.loc 1 284 23
 564 0332 3B68     		ldr	r3, [r7]
 565 0334 5B68     		ldr	r3, [r3, #4]
 566              		.loc 1 284 30
 567 0336 03F48033 		and	r3, r3, #65536
 568              		.loc 1 284 12
 569 033a 002B     		cmp	r3, #0
 570 033c 03D0     		beq	.L32
ARM GAS  C:\Users\DEVELO~1\AppData\Local\Temp\cc4WljaS.s 			page 11


 571              		.loc 1 286 16
 572 033e BA69     		ldr	r2, [r7, #24]
 573 0340 3B69     		ldr	r3, [r7, #16]
 574 0342 1343     		orrs	r3, r3, r2
 575 0344 BB61     		str	r3, [r7, #24]
 576              	.L32:
 577              		.loc 1 288 31
 578 0346 7B69     		ldr	r3, [r7, #20]
 579 0348 BA69     		ldr	r2, [r7, #24]
 580 034a 1A60     		str	r2, [r3]
 581              	.L3:
 582              		.loc 1 292 13
 583 034c FB69     		ldr	r3, [r7, #28]
 584 034e 0133     		adds	r3, r3, #1
 585 0350 FB61     		str	r3, [r7, #28]
 586              	.L2:
 587              		.loc 1 184 21
 588 0352 3B68     		ldr	r3, [r7]
 589 0354 1A68     		ldr	r2, [r3]
 590              		.loc 1 184 28
 591 0356 FB69     		ldr	r3, [r7, #28]
 592 0358 22FA03F3 		lsr	r3, r2, r3
 593              		.loc 1 184 41
 594 035c 002B     		cmp	r3, #0
 595 035e 7FF459AE 		bne	.L33
 596              		.loc 1 294 1
 597 0362 00BF     		nop
 598 0364 00BF     		nop
 599 0366 2437     		adds	r7, r7, #36
 600              		.cfi_def_cfa_offset 4
 601 0368 BD46     		mov	sp, r7
 602              		.cfi_def_cfa_register 13
 603              		@ sp needed
 604 036a 80BC     		pop	{r7}
 605              		.cfi_restore 7
 606              		.cfi_def_cfa_offset 0
 607 036c 7047     		bx	lr
 608              	.L37:
 609 036e 00BF     		.align	2
 610              	.L36:
 611 0370 00040058 		.word	1476396032
 612              		.cfi_endproc
 613              	.LFE141:
 614              		.size	HAL_GPIO_Init, .-HAL_GPIO_Init
 615              		.section	.text.HAL_GPIO_DeInit,"ax",%progbits
 616              		.align	1
 617              		.global	HAL_GPIO_DeInit
 618              		.syntax unified
 619              		.thumb
 620              		.thumb_func
 621              		.type	HAL_GPIO_DeInit, %function
 622              	HAL_GPIO_DeInit:
 623              	.LFB142:
 624              		.loc 1 304 1
 625              		.cfi_startproc
 626              		@ args = 0, pretend = 0, frame = 24
 627              		@ frame_needed = 1, uses_anonymous_args = 0
ARM GAS  C:\Users\DEVELO~1\AppData\Local\Temp\cc4WljaS.s 			page 12


 628              		@ link register save eliminated.
 629 0000 80B4     		push	{r7}
 630              		.cfi_def_cfa_offset 4
 631              		.cfi_offset 7, -4
 632 0002 87B0     		sub	sp, sp, #28
 633              		.cfi_def_cfa_offset 32
 634 0004 00AF     		add	r7, sp, #0
 635              		.cfi_def_cfa_register 7
 636 0006 7860     		str	r0, [r7, #4]
 637 0008 3960     		str	r1, [r7]
 638              		.loc 1 305 12
 639 000a 0023     		movs	r3, #0
 640 000c 7B61     		str	r3, [r7, #20]
 641              		.loc 1 313 19
 642 000e 754B     		ldr	r3, .L63
 643 0010 3B61     		str	r3, [r7, #16]
 644              		.loc 1 321 9
 645 0012 D9E0     		b	.L39
 646              	.L62:
 647              		.loc 1 324 33
 648 0014 0122     		movs	r2, #1
 649 0016 7B69     		ldr	r3, [r7, #20]
 650 0018 02FA03F3 		lsl	r3, r2, r3
 651              		.loc 1 324 15
 652 001c 3A68     		ldr	r2, [r7]
 653 001e 1340     		ands	r3, r3, r2
 654 0020 FB60     		str	r3, [r7, #12]
 655              		.loc 1 326 8
 656 0022 FB68     		ldr	r3, [r7, #12]
 657 0024 002B     		cmp	r3, #0
 658 0026 00F0CC80 		beq	.L40
 659              		.loc 1 330 19
 660 002a 6F4A     		ldr	r2, .L63+4
 661              		.loc 1 330 37
 662 002c 7B69     		ldr	r3, [r7, #20]
 663 002e 9B08     		lsrs	r3, r3, #2
 664              		.loc 1 330 11
 665 0030 0233     		adds	r3, r3, #2
 666 0032 52F82330 		ldr	r3, [r2, r3, lsl #2]
 667 0036 BB60     		str	r3, [r7, #8]
 668              		.loc 1 331 41
 669 0038 7B69     		ldr	r3, [r7, #20]
 670 003a 03F00303 		and	r3, r3, #3
 671              		.loc 1 331 29
 672 003e 9B00     		lsls	r3, r3, #2
 673              		.loc 1 331 22
 674 0040 0F22     		movs	r2, #15
 675 0042 02FA03F3 		lsl	r3, r2, r3
 676              		.loc 1 331 11
 677 0046 BA68     		ldr	r2, [r7, #8]
 678 0048 1340     		ands	r3, r3, r2
 679 004a BB60     		str	r3, [r7, #8]
 680              		.loc 1 332 19
 681 004c 7B68     		ldr	r3, [r7, #4]
 682 004e 674A     		ldr	r2, .L63+8
 683 0050 9342     		cmp	r3, r2
 684 0052 37D0     		beq	.L41
ARM GAS  C:\Users\DEVELO~1\AppData\Local\Temp\cc4WljaS.s 			page 13


 685              		.loc 1 332 19 is_stmt 0 discriminator 1
 686 0054 7B68     		ldr	r3, [r7, #4]
 687 0056 664A     		ldr	r2, .L63+12
 688 0058 9342     		cmp	r3, r2
 689 005a 31D0     		beq	.L42
 690              		.loc 1 332 19 discriminator 3
 691 005c 7B68     		ldr	r3, [r7, #4]
 692 005e 654A     		ldr	r2, .L63+16
 693 0060 9342     		cmp	r3, r2
 694 0062 2BD0     		beq	.L43
 695              		.loc 1 332 19 discriminator 5
 696 0064 7B68     		ldr	r3, [r7, #4]
 697 0066 644A     		ldr	r2, .L63+20
 698 0068 9342     		cmp	r3, r2
 699 006a 25D0     		beq	.L44
 700              		.loc 1 332 19 discriminator 7
 701 006c 7B68     		ldr	r3, [r7, #4]
 702 006e 634A     		ldr	r2, .L63+24
 703 0070 9342     		cmp	r3, r2
 704 0072 1FD0     		beq	.L45
 705              		.loc 1 332 19 discriminator 9
 706 0074 7B68     		ldr	r3, [r7, #4]
 707 0076 624A     		ldr	r2, .L63+28
 708 0078 9342     		cmp	r3, r2
 709 007a 19D0     		beq	.L46
 710              		.loc 1 332 19 discriminator 11
 711 007c 7B68     		ldr	r3, [r7, #4]
 712 007e 614A     		ldr	r2, .L63+32
 713 0080 9342     		cmp	r3, r2
 714 0082 13D0     		beq	.L47
 715              		.loc 1 332 19 discriminator 13
 716 0084 7B68     		ldr	r3, [r7, #4]
 717 0086 604A     		ldr	r2, .L63+36
 718 0088 9342     		cmp	r3, r2
 719 008a 0DD0     		beq	.L48
 720              		.loc 1 332 19 discriminator 15
 721 008c 7B68     		ldr	r3, [r7, #4]
 722 008e 5F4A     		ldr	r2, .L63+40
 723 0090 9342     		cmp	r3, r2
 724 0092 07D0     		beq	.L49
 725              		.loc 1 332 19 discriminator 17
 726 0094 7B68     		ldr	r3, [r7, #4]
 727 0096 5E4A     		ldr	r2, .L63+44
 728 0098 9342     		cmp	r3, r2
 729 009a 01D1     		bne	.L50
 730              		.loc 1 332 19 discriminator 19
 731 009c 0923     		movs	r3, #9
 732 009e 12E0     		b	.L60
 733              	.L50:
 734              		.loc 1 332 19 discriminator 20
 735 00a0 0A23     		movs	r3, #10
 736 00a2 10E0     		b	.L60
 737              	.L49:
 738              		.loc 1 332 19 discriminator 18
 739 00a4 0823     		movs	r3, #8
 740 00a6 0EE0     		b	.L60
 741              	.L48:
ARM GAS  C:\Users\DEVELO~1\AppData\Local\Temp\cc4WljaS.s 			page 14


 742              		.loc 1 332 19 discriminator 16
 743 00a8 0723     		movs	r3, #7
 744 00aa 0CE0     		b	.L60
 745              	.L47:
 746              		.loc 1 332 19 discriminator 14
 747 00ac 0623     		movs	r3, #6
 748 00ae 0AE0     		b	.L60
 749              	.L46:
 750              		.loc 1 332 19 discriminator 12
 751 00b0 0523     		movs	r3, #5
 752 00b2 08E0     		b	.L60
 753              	.L45:
 754              		.loc 1 332 19 discriminator 10
 755 00b4 0423     		movs	r3, #4
 756 00b6 06E0     		b	.L60
 757              	.L44:
 758              		.loc 1 332 19 discriminator 8
 759 00b8 0323     		movs	r3, #3
 760 00ba 04E0     		b	.L60
 761              	.L43:
 762              		.loc 1 332 19 discriminator 6
 763 00bc 0223     		movs	r3, #2
 764 00be 02E0     		b	.L60
 765              	.L42:
 766              		.loc 1 332 19 discriminator 4
 767 00c0 0123     		movs	r3, #1
 768 00c2 00E0     		b	.L60
 769              	.L41:
 770              		.loc 1 332 19 discriminator 2
 771 00c4 0023     		movs	r3, #0
 772              	.L60:
 773              		.loc 1 332 60 is_stmt 1 discriminator 40
 774 00c6 7A69     		ldr	r2, [r7, #20]
 775 00c8 02F00302 		and	r2, r2, #3
 776              		.loc 1 332 48 discriminator 40
 777 00cc 9200     		lsls	r2, r2, #2
 778              		.loc 1 332 41 discriminator 40
 779 00ce 9340     		lsls	r3, r3, r2
 780              		.loc 1 332 10 discriminator 40
 781 00d0 BA68     		ldr	r2, [r7, #8]
 782 00d2 9A42     		cmp	r2, r3
 783 00d4 36D1     		bne	.L61
 784              		.loc 1 335 31
 785 00d6 3B69     		ldr	r3, [r7, #16]
 786 00d8 1A68     		ldr	r2, [r3]
 787              		.loc 1 335 34
 788 00da FB68     		ldr	r3, [r7, #12]
 789 00dc DB43     		mvns	r3, r3
 790              		.loc 1 335 31
 791 00de 1A40     		ands	r2, r2, r3
 792 00e0 3B69     		ldr	r3, [r7, #16]
 793 00e2 1A60     		str	r2, [r3]
 794              		.loc 1 336 31
 795 00e4 3B69     		ldr	r3, [r7, #16]
 796 00e6 5A68     		ldr	r2, [r3, #4]
 797              		.loc 1 336 34
 798 00e8 FB68     		ldr	r3, [r7, #12]
ARM GAS  C:\Users\DEVELO~1\AppData\Local\Temp\cc4WljaS.s 			page 15


 799 00ea DB43     		mvns	r3, r3
 800              		.loc 1 336 31
 801 00ec 1A40     		ands	r2, r2, r3
 802 00ee 3B69     		ldr	r3, [r7, #16]
 803 00f0 5A60     		str	r2, [r3, #4]
 804              		.loc 1 339 21
 805 00f2 4FF0B043 		mov	r3, #1476395008
 806 00f6 5A68     		ldr	r2, [r3, #4]
 807              		.loc 1 339 24
 808 00f8 FB68     		ldr	r3, [r7, #12]
 809 00fa DB43     		mvns	r3, r3
 810              		.loc 1 339 21
 811 00fc 4FF0B041 		mov	r1, #1476395008
 812 0100 1340     		ands	r3, r3, r2
 813 0102 4B60     		str	r3, [r1, #4]
 814              		.loc 1 340 21
 815 0104 4FF0B043 		mov	r3, #1476395008
 816 0108 1A68     		ldr	r2, [r3]
 817              		.loc 1 340 24
 818 010a FB68     		ldr	r3, [r7, #12]
 819 010c DB43     		mvns	r3, r3
 820              		.loc 1 340 21
 821 010e 4FF0B041 		mov	r1, #1476395008
 822 0112 1340     		ands	r3, r3, r2
 823 0114 0B60     		str	r3, [r1]
 824              		.loc 1 342 41
 825 0116 7B69     		ldr	r3, [r7, #20]
 826 0118 03F00303 		and	r3, r3, #3
 827              		.loc 1 342 29
 828 011c 9B00     		lsls	r3, r3, #2
 829              		.loc 1 342 13
 830 011e 0F22     		movs	r2, #15
 831 0120 02FA03F3 		lsl	r3, r2, r3
 832 0124 BB60     		str	r3, [r7, #8]
 833              		.loc 1 343 40
 834 0126 304A     		ldr	r2, .L63+4
 835 0128 7B69     		ldr	r3, [r7, #20]
 836 012a 9B08     		lsrs	r3, r3, #2
 837 012c 0233     		adds	r3, r3, #2
 838 012e 52F82310 		ldr	r1, [r2, r3, lsl #2]
 839              		.loc 1 343 43
 840 0132 BB68     		ldr	r3, [r7, #8]
 841 0134 DA43     		mvns	r2, r3
 842              		.loc 1 343 40
 843 0136 2C48     		ldr	r0, .L63+4
 844 0138 7B69     		ldr	r3, [r7, #20]
 845 013a 9B08     		lsrs	r3, r3, #2
 846 013c 0A40     		ands	r2, r2, r1
 847 013e 0233     		adds	r3, r3, #2
 848 0140 40F82320 		str	r2, [r0, r3, lsl #2]
 849              	.L61:
 850              		.loc 1 348 20
 851 0144 7B68     		ldr	r3, [r7, #4]
 852 0146 1A68     		ldr	r2, [r3]
 853              		.loc 1 348 54
 854 0148 7B69     		ldr	r3, [r7, #20]
 855 014a 5B00     		lsls	r3, r3, #1
ARM GAS  C:\Users\DEVELO~1\AppData\Local\Temp\cc4WljaS.s 			page 16


 856              		.loc 1 348 41
 857 014c 0321     		movs	r1, #3
 858 014e 01FA03F3 		lsl	r3, r1, r3
 859              		.loc 1 348 20
 860 0152 1A43     		orrs	r2, r2, r3
 861 0154 7B68     		ldr	r3, [r7, #4]
 862 0156 1A60     		str	r2, [r3]
 863              		.loc 1 351 34
 864 0158 7B69     		ldr	r3, [r7, #20]
 865 015a DA08     		lsrs	r2, r3, #3
 866 015c 7B68     		ldr	r3, [r7, #4]
 867 015e 0832     		adds	r2, r2, #8
 868 0160 53F82210 		ldr	r1, [r3, r2, lsl #2]
 869              		.loc 1 351 58
 870 0164 7B69     		ldr	r3, [r7, #20]
 871 0166 03F00703 		and	r3, r3, #7
 872              		.loc 1 351 67
 873 016a 9B00     		lsls	r3, r3, #2
 874              		.loc 1 351 44
 875 016c 0F22     		movs	r2, #15
 876 016e 02FA03F3 		lsl	r3, r2, r3
 877              		.loc 1 351 37
 878 0172 DB43     		mvns	r3, r3
 879              		.loc 1 351 34
 880 0174 7A69     		ldr	r2, [r7, #20]
 881 0176 D208     		lsrs	r2, r2, #3
 882 0178 1940     		ands	r1, r1, r3
 883 017a 7B68     		ldr	r3, [r7, #4]
 884 017c 0832     		adds	r2, r2, #8
 885 017e 43F82210 		str	r1, [r3, r2, lsl #2]
 886              		.loc 1 354 20
 887 0182 7B68     		ldr	r3, [r7, #4]
 888 0184 DA68     		ldr	r2, [r3, #12]
 889              		.loc 1 354 55
 890 0186 7B69     		ldr	r3, [r7, #20]
 891 0188 5B00     		lsls	r3, r3, #1
 892              		.loc 1 354 42
 893 018a 0321     		movs	r1, #3
 894 018c 01FA03F3 		lsl	r3, r1, r3
 895              		.loc 1 354 23
 896 0190 DB43     		mvns	r3, r3
 897              		.loc 1 354 20
 898 0192 1A40     		ands	r2, r2, r3
 899 0194 7B68     		ldr	r3, [r7, #4]
 900 0196 DA60     		str	r2, [r3, #12]
 901              		.loc 1 357 22
 902 0198 7B68     		ldr	r3, [r7, #4]
 903 019a 5A68     		ldr	r2, [r3, #4]
 904              		.loc 1 357 43
 905 019c 0121     		movs	r1, #1
 906 019e 7B69     		ldr	r3, [r7, #20]
 907 01a0 01FA03F3 		lsl	r3, r1, r3
 908              		.loc 1 357 25
 909 01a4 DB43     		mvns	r3, r3
 910              		.loc 1 357 22
 911 01a6 1A40     		ands	r2, r2, r3
 912 01a8 7B68     		ldr	r3, [r7, #4]
ARM GAS  C:\Users\DEVELO~1\AppData\Local\Temp\cc4WljaS.s 			page 17


 913 01aa 5A60     		str	r2, [r3, #4]
 914              		.loc 1 360 22
 915 01ac 7B68     		ldr	r3, [r7, #4]
 916 01ae 9A68     		ldr	r2, [r3, #8]
 917              		.loc 1 360 61
 918 01b0 7B69     		ldr	r3, [r7, #20]
 919 01b2 5B00     		lsls	r3, r3, #1
 920              		.loc 1 360 48
 921 01b4 0321     		movs	r1, #3
 922 01b6 01FA03F3 		lsl	r3, r1, r3
 923              		.loc 1 360 25
 924 01ba DB43     		mvns	r3, r3
 925              		.loc 1 360 22
 926 01bc 1A40     		ands	r2, r2, r3
 927 01be 7B68     		ldr	r3, [r7, #4]
 928 01c0 9A60     		str	r2, [r3, #8]
 929              	.L40:
 930              		.loc 1 363 13
 931 01c2 7B69     		ldr	r3, [r7, #20]
 932 01c4 0133     		adds	r3, r3, #1
 933 01c6 7B61     		str	r3, [r7, #20]
 934              	.L39:
 935              		.loc 1 321 20
 936 01c8 3A68     		ldr	r2, [r7]
 937 01ca 7B69     		ldr	r3, [r7, #20]
 938 01cc 22FA03F3 		lsr	r3, r2, r3
 939              		.loc 1 321 33
 940 01d0 002B     		cmp	r3, #0
 941 01d2 7FF41FAF 		bne	.L62
 942              		.loc 1 365 1
 943 01d6 00BF     		nop
 944 01d8 00BF     		nop
 945 01da 1C37     		adds	r7, r7, #28
 946              		.cfi_def_cfa_offset 4
 947 01dc BD46     		mov	sp, r7
 948              		.cfi_def_cfa_register 13
 949              		@ sp needed
 950 01de 80BC     		pop	{r7}
 951              		.cfi_restore 7
 952              		.cfi_def_cfa_offset 0
 953 01e0 7047     		bx	lr
 954              	.L64:
 955 01e2 00BF     		.align	2
 956              	.L63:
 957 01e4 80000058 		.word	1476395136
 958 01e8 00040058 		.word	1476396032
 959 01ec 00000258 		.word	1476526080
 960 01f0 00040258 		.word	1476527104
 961 01f4 00080258 		.word	1476528128
 962 01f8 000C0258 		.word	1476529152
 963 01fc 00100258 		.word	1476530176
 964 0200 00140258 		.word	1476531200
 965 0204 00180258 		.word	1476532224
 966 0208 001C0258 		.word	1476533248
 967 020c 00200258 		.word	1476534272
 968 0210 00240258 		.word	1476535296
 969              		.cfi_endproc
ARM GAS  C:\Users\DEVELO~1\AppData\Local\Temp\cc4WljaS.s 			page 18


 970              	.LFE142:
 971              		.size	HAL_GPIO_DeInit, .-HAL_GPIO_DeInit
 972              		.section	.text.HAL_GPIO_ReadPin,"ax",%progbits
 973              		.align	1
 974              		.global	HAL_GPIO_ReadPin
 975              		.syntax unified
 976              		.thumb
 977              		.thumb_func
 978              		.type	HAL_GPIO_ReadPin, %function
 979              	HAL_GPIO_ReadPin:
 980              	.LFB143:
 981              		.loc 1 391 1
 982              		.cfi_startproc
 983              		@ args = 0, pretend = 0, frame = 16
 984              		@ frame_needed = 1, uses_anonymous_args = 0
 985              		@ link register save eliminated.
 986 0000 80B4     		push	{r7}
 987              		.cfi_def_cfa_offset 4
 988              		.cfi_offset 7, -4
 989 0002 85B0     		sub	sp, sp, #20
 990              		.cfi_def_cfa_offset 24
 991 0004 00AF     		add	r7, sp, #0
 992              		.cfi_def_cfa_register 7
 993 0006 7860     		str	r0, [r7, #4]
 994 0008 0B46     		mov	r3, r1
 995 000a 7B80     		strh	r3, [r7, #2]	@ movhi
 996              		.loc 1 397 13
 997 000c 7B68     		ldr	r3, [r7, #4]
 998 000e 1A69     		ldr	r2, [r3, #16]
 999              		.loc 1 397 19
 1000 0010 7B88     		ldrh	r3, [r7, #2]
 1001 0012 1340     		ands	r3, r3, r2
 1002              		.loc 1 397 6
 1003 0014 002B     		cmp	r3, #0
 1004 0016 02D0     		beq	.L66
 1005              		.loc 1 399 15
 1006 0018 0123     		movs	r3, #1
 1007 001a FB73     		strb	r3, [r7, #15]
 1008 001c 01E0     		b	.L67
 1009              	.L66:
 1010              		.loc 1 403 15
 1011 001e 0023     		movs	r3, #0
 1012 0020 FB73     		strb	r3, [r7, #15]
 1013              	.L67:
 1014              		.loc 1 405 10
 1015 0022 FB7B     		ldrb	r3, [r7, #15]	@ zero_extendqisi2
 1016              		.loc 1 406 1
 1017 0024 1846     		mov	r0, r3
 1018 0026 1437     		adds	r7, r7, #20
 1019              		.cfi_def_cfa_offset 4
 1020 0028 BD46     		mov	sp, r7
 1021              		.cfi_def_cfa_register 13
 1022              		@ sp needed
 1023 002a 80BC     		pop	{r7}
 1024              		.cfi_restore 7
 1025              		.cfi_def_cfa_offset 0
 1026 002c 7047     		bx	lr
ARM GAS  C:\Users\DEVELO~1\AppData\Local\Temp\cc4WljaS.s 			page 19


 1027              		.cfi_endproc
 1028              	.LFE143:
 1029              		.size	HAL_GPIO_ReadPin, .-HAL_GPIO_ReadPin
 1030              		.section	.text.HAL_GPIO_WritePin,"ax",%progbits
 1031              		.align	1
 1032              		.global	HAL_GPIO_WritePin
 1033              		.syntax unified
 1034              		.thumb
 1035              		.thumb_func
 1036              		.type	HAL_GPIO_WritePin, %function
 1037              	HAL_GPIO_WritePin:
 1038              	.LFB144:
 1039              		.loc 1 425 1
 1040              		.cfi_startproc
 1041              		@ args = 0, pretend = 0, frame = 8
 1042              		@ frame_needed = 1, uses_anonymous_args = 0
 1043              		@ link register save eliminated.
 1044 0000 80B4     		push	{r7}
 1045              		.cfi_def_cfa_offset 4
 1046              		.cfi_offset 7, -4
 1047 0002 83B0     		sub	sp, sp, #12
 1048              		.cfi_def_cfa_offset 16
 1049 0004 00AF     		add	r7, sp, #0
 1050              		.cfi_def_cfa_register 7
 1051 0006 7860     		str	r0, [r7, #4]
 1052 0008 0B46     		mov	r3, r1
 1053 000a 7B80     		strh	r3, [r7, #2]	@ movhi
 1054 000c 1346     		mov	r3, r2
 1055 000e 7B70     		strb	r3, [r7, #1]
 1056              		.loc 1 430 6
 1057 0010 7B78     		ldrb	r3, [r7, #1]	@ zero_extendqisi2
 1058 0012 002B     		cmp	r3, #0
 1059 0014 03D0     		beq	.L70
 1060              		.loc 1 432 17
 1061 0016 7A88     		ldrh	r2, [r7, #2]
 1062 0018 7B68     		ldr	r3, [r7, #4]
 1063 001a 9A61     		str	r2, [r3, #24]
 1064              		.loc 1 438 1
 1065 001c 03E0     		b	.L72
 1066              	.L70:
 1067              		.loc 1 436 19
 1068 001e 7B88     		ldrh	r3, [r7, #2]
 1069              		.loc 1 436 38
 1070 0020 1A04     		lsls	r2, r3, #16
 1071              		.loc 1 436 17
 1072 0022 7B68     		ldr	r3, [r7, #4]
 1073 0024 9A61     		str	r2, [r3, #24]
 1074              	.L72:
 1075              		.loc 1 438 1
 1076 0026 00BF     		nop
 1077 0028 0C37     		adds	r7, r7, #12
 1078              		.cfi_def_cfa_offset 4
 1079 002a BD46     		mov	sp, r7
 1080              		.cfi_def_cfa_register 13
 1081              		@ sp needed
 1082 002c 80BC     		pop	{r7}
 1083              		.cfi_restore 7
ARM GAS  C:\Users\DEVELO~1\AppData\Local\Temp\cc4WljaS.s 			page 20


 1084              		.cfi_def_cfa_offset 0
 1085 002e 7047     		bx	lr
 1086              		.cfi_endproc
 1087              	.LFE144:
 1088              		.size	HAL_GPIO_WritePin, .-HAL_GPIO_WritePin
 1089              		.section	.text.HAL_GPIO_TogglePin,"ax",%progbits
 1090              		.align	1
 1091              		.global	HAL_GPIO_TogglePin
 1092              		.syntax unified
 1093              		.thumb
 1094              		.thumb_func
 1095              		.type	HAL_GPIO_TogglePin, %function
 1096              	HAL_GPIO_TogglePin:
 1097              	.LFB145:
 1098              		.loc 1 447 1
 1099              		.cfi_startproc
 1100              		@ args = 0, pretend = 0, frame = 16
 1101              		@ frame_needed = 1, uses_anonymous_args = 0
 1102              		@ link register save eliminated.
 1103 0000 80B4     		push	{r7}
 1104              		.cfi_def_cfa_offset 4
 1105              		.cfi_offset 7, -4
 1106 0002 85B0     		sub	sp, sp, #20
 1107              		.cfi_def_cfa_offset 24
 1108 0004 00AF     		add	r7, sp, #0
 1109              		.cfi_def_cfa_register 7
 1110 0006 7860     		str	r0, [r7, #4]
 1111 0008 0B46     		mov	r3, r1
 1112 000a 7B80     		strh	r3, [r7, #2]	@ movhi
 1113              		.loc 1 454 7
 1114 000c 7B68     		ldr	r3, [r7, #4]
 1115 000e 5B69     		ldr	r3, [r3, #20]
 1116 0010 FB60     		str	r3, [r7, #12]
 1117              		.loc 1 457 23
 1118 0012 7A88     		ldrh	r2, [r7, #2]
 1119 0014 FB68     		ldr	r3, [r7, #12]
 1120 0016 1340     		ands	r3, r3, r2
 1121              		.loc 1 457 35
 1122 0018 1A04     		lsls	r2, r3, #16
 1123              		.loc 1 457 54
 1124 001a FB68     		ldr	r3, [r7, #12]
 1125 001c D943     		mvns	r1, r3
 1126              		.loc 1 457 59
 1127 001e 7B88     		ldrh	r3, [r7, #2]
 1128 0020 0B40     		ands	r3, r3, r1
 1129              		.loc 1 457 51
 1130 0022 1A43     		orrs	r2, r2, r3
 1131              		.loc 1 457 15
 1132 0024 7B68     		ldr	r3, [r7, #4]
 1133 0026 9A61     		str	r2, [r3, #24]
 1134              		.loc 1 458 1
 1135 0028 00BF     		nop
 1136 002a 1437     		adds	r7, r7, #20
 1137              		.cfi_def_cfa_offset 4
 1138 002c BD46     		mov	sp, r7
 1139              		.cfi_def_cfa_register 13
 1140              		@ sp needed
ARM GAS  C:\Users\DEVELO~1\AppData\Local\Temp\cc4WljaS.s 			page 21


 1141 002e 80BC     		pop	{r7}
 1142              		.cfi_restore 7
 1143              		.cfi_def_cfa_offset 0
 1144 0030 7047     		bx	lr
 1145              		.cfi_endproc
 1146              	.LFE145:
 1147              		.size	HAL_GPIO_TogglePin, .-HAL_GPIO_TogglePin
 1148              		.section	.text.HAL_GPIO_LockPin,"ax",%progbits
 1149              		.align	1
 1150              		.global	HAL_GPIO_LockPin
 1151              		.syntax unified
 1152              		.thumb
 1153              		.thumb_func
 1154              		.type	HAL_GPIO_LockPin, %function
 1155              	HAL_GPIO_LockPin:
 1156              	.LFB146:
 1157              		.loc 1 472 1
 1158              		.cfi_startproc
 1159              		@ args = 0, pretend = 0, frame = 16
 1160              		@ frame_needed = 1, uses_anonymous_args = 0
 1161              		@ link register save eliminated.
 1162 0000 80B4     		push	{r7}
 1163              		.cfi_def_cfa_offset 4
 1164              		.cfi_offset 7, -4
 1165 0002 85B0     		sub	sp, sp, #20
 1166              		.cfi_def_cfa_offset 24
 1167 0004 00AF     		add	r7, sp, #0
 1168              		.cfi_def_cfa_register 7
 1169 0006 7860     		str	r0, [r7, #4]
 1170 0008 0B46     		mov	r3, r1
 1171 000a 7B80     		strh	r3, [r7, #2]	@ movhi
 1172              		.loc 1 473 17
 1173 000c 4FF48033 		mov	r3, #65536
 1174 0010 FB60     		str	r3, [r7, #12]
 1175              		.loc 1 480 7
 1176 0012 7A88     		ldrh	r2, [r7, #2]
 1177 0014 FB68     		ldr	r3, [r7, #12]
 1178 0016 1343     		orrs	r3, r3, r2
 1179 0018 FB60     		str	r3, [r7, #12]
 1180              		.loc 1 482 15
 1181 001a FA68     		ldr	r2, [r7, #12]
 1182 001c 7B68     		ldr	r3, [r7, #4]
 1183 001e DA61     		str	r2, [r3, #28]
 1184              		.loc 1 484 15
 1185 0020 7A88     		ldrh	r2, [r7, #2]
 1186 0022 7B68     		ldr	r3, [r7, #4]
 1187 0024 DA61     		str	r2, [r3, #28]
 1188              		.loc 1 486 15
 1189 0026 FA68     		ldr	r2, [r7, #12]
 1190 0028 7B68     		ldr	r3, [r7, #4]
 1191 002a DA61     		str	r2, [r3, #28]
 1192              		.loc 1 488 14
 1193 002c 7B68     		ldr	r3, [r7, #4]
 1194 002e DB69     		ldr	r3, [r3, #28]
 1195              		.loc 1 488 7
 1196 0030 FB60     		str	r3, [r7, #12]
 1197              		.loc 1 491 13
ARM GAS  C:\Users\DEVELO~1\AppData\Local\Temp\cc4WljaS.s 			page 22


 1198 0032 7B68     		ldr	r3, [r7, #4]
 1199 0034 DB69     		ldr	r3, [r3, #28]
 1200              		.loc 1 491 20
 1201 0036 03F48033 		and	r3, r3, #65536
 1202              		.loc 1 491 6
 1203 003a 002B     		cmp	r3, #0
 1204 003c 01D0     		beq	.L75
 1205              		.loc 1 493 12
 1206 003e 0023     		movs	r3, #0
 1207 0040 00E0     		b	.L76
 1208              	.L75:
 1209              		.loc 1 497 12
 1210 0042 0123     		movs	r3, #1
 1211              	.L76:
 1212              		.loc 1 499 1
 1213 0044 1846     		mov	r0, r3
 1214 0046 1437     		adds	r7, r7, #20
 1215              		.cfi_def_cfa_offset 4
 1216 0048 BD46     		mov	sp, r7
 1217              		.cfi_def_cfa_register 13
 1218              		@ sp needed
 1219 004a 80BC     		pop	{r7}
 1220              		.cfi_restore 7
 1221              		.cfi_def_cfa_offset 0
 1222 004c 7047     		bx	lr
 1223              		.cfi_endproc
 1224              	.LFE146:
 1225              		.size	HAL_GPIO_LockPin, .-HAL_GPIO_LockPin
 1226              		.section	.text.HAL_GPIO_EXTI_IRQHandler,"ax",%progbits
 1227              		.align	1
 1228              		.global	HAL_GPIO_EXTI_IRQHandler
 1229              		.syntax unified
 1230              		.thumb
 1231              		.thumb_func
 1232              		.type	HAL_GPIO_EXTI_IRQHandler, %function
 1233              	HAL_GPIO_EXTI_IRQHandler:
 1234              	.LFB147:
 1235              		.loc 1 507 1
 1236              		.cfi_startproc
 1237              		@ args = 0, pretend = 0, frame = 8
 1238              		@ frame_needed = 1, uses_anonymous_args = 0
 1239 0000 80B5     		push	{r7, lr}
 1240              		.cfi_def_cfa_offset 8
 1241              		.cfi_offset 7, -8
 1242              		.cfi_offset 14, -4
 1243 0002 82B0     		sub	sp, sp, #8
 1244              		.cfi_def_cfa_offset 16
 1245 0004 00AF     		add	r7, sp, #0
 1246              		.cfi_def_cfa_register 7
 1247 0006 0346     		mov	r3, r0
 1248 0008 FB80     		strh	r3, [r7, #6]	@ movhi
 1249              		.loc 1 516 7
 1250 000a 4FF0B043 		mov	r3, #1476395008
 1251 000e D3F88820 		ldr	r2, [r3, #136]
 1252 0012 FB88     		ldrh	r3, [r7, #6]
 1253 0014 1340     		ands	r3, r3, r2
 1254              		.loc 1 516 6
ARM GAS  C:\Users\DEVELO~1\AppData\Local\Temp\cc4WljaS.s 			page 23


 1255 0016 002B     		cmp	r3, #0
 1256 0018 08D0     		beq	.L79
 1257              		.loc 1 518 5
 1258 001a 4FF0B042 		mov	r2, #1476395008
 1259 001e FB88     		ldrh	r3, [r7, #6]
 1260 0020 C2F88830 		str	r3, [r2, #136]
 1261              		.loc 1 519 5
 1262 0024 FB88     		ldrh	r3, [r7, #6]
 1263 0026 1846     		mov	r0, r3
 1264 0028 FFF7FEFF 		bl	HAL_GPIO_EXTI_Callback
 1265              	.L79:
 1266              		.loc 1 522 1
 1267 002c 00BF     		nop
 1268 002e 0837     		adds	r7, r7, #8
 1269              		.cfi_def_cfa_offset 8
 1270 0030 BD46     		mov	sp, r7
 1271              		.cfi_def_cfa_register 13
 1272              		@ sp needed
 1273 0032 80BD     		pop	{r7, pc}
 1274              		.cfi_endproc
 1275              	.LFE147:
 1276              		.size	HAL_GPIO_EXTI_IRQHandler, .-HAL_GPIO_EXTI_IRQHandler
 1277              		.section	.text.HAL_GPIO_EXTI_Callback,"ax",%progbits
 1278              		.align	1
 1279              		.weak	HAL_GPIO_EXTI_Callback
 1280              		.syntax unified
 1281              		.thumb
 1282              		.thumb_func
 1283              		.type	HAL_GPIO_EXTI_Callback, %function
 1284              	HAL_GPIO_EXTI_Callback:
 1285              	.LFB148:
 1286              		.loc 1 530 1
 1287              		.cfi_startproc
 1288              		@ args = 0, pretend = 0, frame = 8
 1289              		@ frame_needed = 1, uses_anonymous_args = 0
 1290              		@ link register save eliminated.
 1291 0000 80B4     		push	{r7}
 1292              		.cfi_def_cfa_offset 4
 1293              		.cfi_offset 7, -4
 1294 0002 83B0     		sub	sp, sp, #12
 1295              		.cfi_def_cfa_offset 16
 1296 0004 00AF     		add	r7, sp, #0
 1297              		.cfi_def_cfa_register 7
 1298 0006 0346     		mov	r3, r0
 1299 0008 FB80     		strh	r3, [r7, #6]	@ movhi
 1300              		.loc 1 537 1
 1301 000a 00BF     		nop
 1302 000c 0C37     		adds	r7, r7, #12
 1303              		.cfi_def_cfa_offset 4
 1304 000e BD46     		mov	sp, r7
 1305              		.cfi_def_cfa_register 13
 1306              		@ sp needed
 1307 0010 80BC     		pop	{r7}
 1308              		.cfi_restore 7
 1309              		.cfi_def_cfa_offset 0
 1310 0012 7047     		bx	lr
 1311              		.cfi_endproc
ARM GAS  C:\Users\DEVELO~1\AppData\Local\Temp\cc4WljaS.s 			page 24


 1312              	.LFE148:
 1313              		.size	HAL_GPIO_EXTI_Callback, .-HAL_GPIO_EXTI_Callback
 1314              		.text
 1315              	.Letext0:
 1316              		.file 2 "c:\\chibistudio\\tools\\gnu tools arm embedded\\11.3 2022.08\\arm-none-eabi\\include\\mac
 1317              		.file 3 "c:\\chibistudio\\tools\\gnu tools arm embedded\\11.3 2022.08\\arm-none-eabi\\include\\sys
 1318              		.file 4 "../../../os/common/ext/ST/STM32H7xx/stm32h743xx.h"
 1319              		.file 5 "drivers/stm32h7xx-hal-driver/Inc/stm32h7xx_hal_def.h"
 1320              		.file 6 "drivers/stm32h7xx-hal-driver/Inc/stm32h7xx_hal_gpio.h"
 1321              		.section	.debug_info,"",%progbits
 1322              	.Ldebug_info0:
 1323 0000 520C0000 		.4byte	0xc52
 1324 0004 0500     		.2byte	0x5
 1325 0006 01       		.byte	0x1
 1326 0007 04       		.byte	0x4
 1327 0008 00000000 		.4byte	.Ldebug_abbrev0
 1328 000c 19       		.uleb128 0x19
 1329 000d 91020000 		.4byte	.LASF159
 1330 0011 1D       		.byte	0x1d
 1331 0012 69030000 		.4byte	.LASF160
 1332 0016 B9040000 		.4byte	.LASF161
 1333 001a 0C000000 		.4byte	.LLRL0
 1334 001e 00000000 		.4byte	0
 1335 0022 00000000 		.4byte	.Ldebug_line0
 1336 0026 03       		.uleb128 0x3
 1337 0027 02       		.byte	0x2
 1338 0028 05       		.byte	0x5
 1339 0029 AF040000 		.4byte	.LASF0
 1340 002d 03       		.uleb128 0x3
 1341 002e 01       		.byte	0x1
 1342 002f 06       		.byte	0x6
 1343 0030 F4000000 		.4byte	.LASF1
 1344 0034 03       		.uleb128 0x3
 1345 0035 01       		.byte	0x1
 1346 0036 08       		.byte	0x8
 1347 0037 99040000 		.4byte	.LASF2
 1348 003b 09       		.uleb128 0x9
 1349 003c B0050000 		.4byte	.LASF5
 1350 0040 02       		.byte	0x2
 1351 0041 39       		.byte	0x39
 1352 0042 19       		.byte	0x19
 1353 0043 47000000 		.4byte	0x47
 1354 0047 03       		.uleb128 0x3
 1355 0048 02       		.byte	0x2
 1356 0049 07       		.byte	0x7
 1357 004a 5D020000 		.4byte	.LASF3
 1358 004e 03       		.uleb128 0x3
 1359 004f 04       		.byte	0x4
 1360 0050 05       		.byte	0x5
 1361 0051 46000000 		.4byte	.LASF4
 1362 0055 09       		.uleb128 0x9
 1363 0056 B1010000 		.4byte	.LASF6
 1364 005a 02       		.byte	0x2
 1365 005b 4F       		.byte	0x4f
 1366 005c 19       		.byte	0x19
 1367 005d 61000000 		.4byte	0x61
 1368 0061 03       		.uleb128 0x3
ARM GAS  C:\Users\DEVELO~1\AppData\Local\Temp\cc4WljaS.s 			page 25


 1369 0062 04       		.byte	0x4
 1370 0063 07       		.byte	0x7
 1371 0064 2B020000 		.4byte	.LASF7
 1372 0068 03       		.uleb128 0x3
 1373 0069 08       		.byte	0x8
 1374 006a 05       		.byte	0x5
 1375 006b 53010000 		.4byte	.LASF8
 1376 006f 03       		.uleb128 0x3
 1377 0070 08       		.byte	0x8
 1378 0071 07       		.byte	0x7
 1379 0072 6E000000 		.4byte	.LASF9
 1380 0076 1A       		.uleb128 0x1a
 1381 0077 04       		.byte	0x4
 1382 0078 05       		.byte	0x5
 1383 0079 696E7400 		.ascii	"int\000"
 1384 007d 03       		.uleb128 0x3
 1385 007e 04       		.byte	0x4
 1386 007f 07       		.byte	0x7
 1387 0080 15020000 		.4byte	.LASF10
 1388 0084 09       		.uleb128 0x9
 1389 0085 61010000 		.4byte	.LASF11
 1390 0089 03       		.byte	0x3
 1391 008a 24       		.byte	0x24
 1392 008b 14       		.byte	0x14
 1393 008c 3B000000 		.4byte	0x3b
 1394 0090 09       		.uleb128 0x9
 1395 0091 6E050000 		.4byte	.LASF12
 1396 0095 03       		.byte	0x3
 1397 0096 30       		.byte	0x30
 1398 0097 14       		.byte	0x14
 1399 0098 55000000 		.4byte	0x55
 1400 009c 11       		.uleb128 0x11
 1401 009d 90000000 		.4byte	0x90
 1402 00a1 07       		.uleb128 0x7
 1403 00a2 90000000 		.4byte	0x90
 1404 00a6 B1000000 		.4byte	0xb1
 1405 00aa 08       		.uleb128 0x8
 1406 00ab 7D000000 		.4byte	0x7d
 1407 00af 01       		.byte	0x1
 1408 00b0 00       		.byte	0
 1409 00b1 07       		.uleb128 0x7
 1410 00b2 90000000 		.4byte	0x90
 1411 00b6 C1000000 		.4byte	0xc1
 1412 00ba 08       		.uleb128 0x8
 1413 00bb 7D000000 		.4byte	0x7d
 1414 00bf 03       		.byte	0x3
 1415 00c0 00       		.byte	0
 1416 00c1 07       		.uleb128 0x7
 1417 00c2 9C000000 		.4byte	0x9c
 1418 00c6 D1000000 		.4byte	0xd1
 1419 00ca 08       		.uleb128 0x8
 1420 00cb 7D000000 		.4byte	0x7d
 1421 00cf 03       		.byte	0x3
 1422 00d0 00       		.byte	0
 1423 00d1 11       		.uleb128 0x11
 1424 00d2 C1000000 		.4byte	0xc1
 1425 00d6 07       		.uleb128 0x7
ARM GAS  C:\Users\DEVELO~1\AppData\Local\Temp\cc4WljaS.s 			page 26


 1426 00d7 9C000000 		.4byte	0x9c
 1427 00db E6000000 		.4byte	0xe6
 1428 00df 08       		.uleb128 0x8
 1429 00e0 7D000000 		.4byte	0x7d
 1430 00e4 01       		.byte	0x1
 1431 00e5 00       		.byte	0
 1432 00e6 11       		.uleb128 0x11
 1433 00e7 D6000000 		.4byte	0xd6
 1434 00eb 07       		.uleb128 0x7
 1435 00ec 90000000 		.4byte	0x90
 1436 00f0 FB000000 		.4byte	0xfb
 1437 00f4 08       		.uleb128 0x8
 1438 00f5 7D000000 		.4byte	0x7d
 1439 00f9 09       		.byte	0x9
 1440 00fa 00       		.byte	0
 1441 00fb 07       		.uleb128 0x7
 1442 00fc 90000000 		.4byte	0x90
 1443 0100 0B010000 		.4byte	0x10b
 1444 0104 08       		.uleb128 0x8
 1445 0105 7D000000 		.4byte	0x7d
 1446 0109 08       		.byte	0x8
 1447 010a 00       		.byte	0
 1448 010b 12       		.uleb128 0x12
 1449 010c AC       		.byte	0xac
 1450 010d 5203     		.2byte	0x352
 1451 010f B4020000 		.4byte	0x2b4
 1452 0113 01       		.uleb128 0x1
 1453 0114 37030000 		.4byte	.LASF13
 1454 0118 5403     		.2byte	0x354
 1455 011a 0F       		.byte	0xf
 1456 011b 9C000000 		.4byte	0x9c
 1457 011f 00       		.byte	0
 1458 0120 01       		.uleb128 0x1
 1459 0121 35000000 		.4byte	.LASF14
 1460 0125 5503     		.2byte	0x355
 1461 0127 0F       		.byte	0xf
 1462 0128 9C000000 		.4byte	0x9c
 1463 012c 04       		.byte	0x4
 1464 012d 01       		.uleb128 0x1
 1465 012e B9000000 		.4byte	.LASF15
 1466 0132 5603     		.2byte	0x356
 1467 0134 0F       		.byte	0xf
 1468 0135 9C000000 		.4byte	0x9c
 1469 0139 08       		.byte	0x8
 1470 013a 01       		.uleb128 0x1
 1471 013b 9A000000 		.4byte	.LASF16
 1472 013f 5703     		.2byte	0x357
 1473 0141 0F       		.byte	0xf
 1474 0142 9C000000 		.4byte	0x9c
 1475 0146 0C       		.byte	0xc
 1476 0147 01       		.uleb128 0x1
 1477 0148 89050000 		.4byte	.LASF17
 1478 014c 5803     		.2byte	0x358
 1479 014e 0F       		.byte	0xf
 1480 014f 9C000000 		.4byte	0x9c
 1481 0153 10       		.byte	0x10
 1482 0154 01       		.uleb128 0x1
ARM GAS  C:\Users\DEVELO~1\AppData\Local\Temp\cc4WljaS.s 			page 27


 1483 0155 77050000 		.4byte	.LASF18
 1484 0159 5903     		.2byte	0x359
 1485 015b 0F       		.byte	0xf
 1486 015c 9C000000 		.4byte	0x9c
 1487 0160 14       		.byte	0x14
 1488 0161 01       		.uleb128 0x1
 1489 0162 3F040000 		.4byte	.LASF19
 1490 0166 5A03     		.2byte	0x35a
 1491 0168 0F       		.byte	0xf
 1492 0169 A1000000 		.4byte	0xa1
 1493 016d 18       		.byte	0x18
 1494 016e 01       		.uleb128 0x1
 1495 016f 3D030000 		.4byte	.LASF20
 1496 0173 5B03     		.2byte	0x35b
 1497 0175 0F       		.byte	0xf
 1498 0176 9C000000 		.4byte	0x9c
 1499 017a 20       		.byte	0x20
 1500 017b 01       		.uleb128 0x1
 1501 017c BC010000 		.4byte	.LASF21
 1502 0180 5C03     		.2byte	0x35c
 1503 0182 0F       		.byte	0xf
 1504 0183 9C000000 		.4byte	0x9c
 1505 0187 24       		.byte	0x24
 1506 0188 01       		.uleb128 0x1
 1507 0189 C0000000 		.4byte	.LASF22
 1508 018d 5D03     		.2byte	0x35d
 1509 018f 0F       		.byte	0xf
 1510 0190 9C000000 		.4byte	0x9c
 1511 0194 28       		.byte	0x28
 1512 0195 01       		.uleb128 0x1
 1513 0196 53060000 		.4byte	.LASF23
 1514 019a 5E03     		.2byte	0x35e
 1515 019c 0F       		.byte	0xf
 1516 019d 9C000000 		.4byte	0x9c
 1517 01a1 2C       		.byte	0x2c
 1518 01a2 01       		.uleb128 0x1
 1519 01a3 27060000 		.4byte	.LASF24
 1520 01a7 5F03     		.2byte	0x35f
 1521 01a9 0F       		.byte	0xf
 1522 01aa 9C000000 		.4byte	0x9c
 1523 01ae 30       		.byte	0x30
 1524 01af 01       		.uleb128 0x1
 1525 01b0 1A060000 		.4byte	.LASF25
 1526 01b4 6003     		.2byte	0x360
 1527 01b6 0F       		.byte	0xf
 1528 01b7 9C000000 		.4byte	0x9c
 1529 01bb 34       		.byte	0x34
 1530 01bc 01       		.uleb128 0x1
 1531 01bd 49040000 		.4byte	.LASF26
 1532 01c1 6103     		.2byte	0x361
 1533 01c3 0F       		.byte	0xf
 1534 01c4 A1000000 		.4byte	0xa1
 1535 01c8 38       		.byte	0x38
 1536 01c9 01       		.uleb128 0x1
 1537 01ca 6B040000 		.4byte	.LASF27
 1538 01ce 6203     		.2byte	0x362
 1539 01d0 0F       		.byte	0xf
ARM GAS  C:\Users\DEVELO~1\AppData\Local\Temp\cc4WljaS.s 			page 28


 1540 01d1 9C000000 		.4byte	0x9c
 1541 01d5 40       		.byte	0x40
 1542 01d6 01       		.uleb128 0x1
 1543 01d7 CB010000 		.4byte	.LASF28
 1544 01db 6303     		.2byte	0x363
 1545 01dd 0F       		.byte	0xf
 1546 01de 9C000000 		.4byte	0x9c
 1547 01e2 44       		.byte	0x44
 1548 01e3 01       		.uleb128 0x1
 1549 01e4 C7000000 		.4byte	.LASF29
 1550 01e8 6403     		.2byte	0x364
 1551 01ea 0F       		.byte	0xf
 1552 01eb 9C000000 		.4byte	0x9c
 1553 01ef 48       		.byte	0x48
 1554 01f0 01       		.uleb128 0x1
 1555 01f1 5A060000 		.4byte	.LASF30
 1556 01f5 6503     		.2byte	0x365
 1557 01f7 0F       		.byte	0xf
 1558 01f8 9C000000 		.4byte	0x9c
 1559 01fc 4C       		.byte	0x4c
 1560 01fd 01       		.uleb128 0x1
 1561 01fe 00000000 		.4byte	.LASF31
 1562 0202 6603     		.2byte	0x366
 1563 0204 0F       		.byte	0xf
 1564 0205 9C000000 		.4byte	0x9c
 1565 0209 50       		.byte	0x50
 1566 020a 01       		.uleb128 0x1
 1567 020b 34060000 		.4byte	.LASF32
 1568 020f 6703     		.2byte	0x367
 1569 0211 0F       		.byte	0xf
 1570 0212 9C000000 		.4byte	0x9c
 1571 0216 54       		.byte	0x54
 1572 0217 01       		.uleb128 0x1
 1573 0218 50050000 		.4byte	.LASF33
 1574 021c 6803     		.2byte	0x368
 1575 021e 0F       		.byte	0xf
 1576 021f EB000000 		.4byte	0xeb
 1577 0223 58       		.byte	0x58
 1578 0224 01       		.uleb128 0x1
 1579 0225 7A020000 		.4byte	.LASF34
 1580 0229 6903     		.2byte	0x369
 1581 022b 0F       		.byte	0xf
 1582 022c 9C000000 		.4byte	0x9c
 1583 0230 80       		.byte	0x80
 1584 0231 01       		.uleb128 0x1
 1585 0232 00060000 		.4byte	.LASF35
 1586 0236 6A03     		.2byte	0x36a
 1587 0238 0F       		.byte	0xf
 1588 0239 9C000000 		.4byte	0x9c
 1589 023d 84       		.byte	0x84
 1590 023e 04       		.uleb128 0x4
 1591 023f 50523100 		.ascii	"PR1\000"
 1592 0243 6B03     		.2byte	0x36b
 1593 0245 0F       		.byte	0xf
 1594 0246 9C000000 		.4byte	0x9c
 1595 024a 88       		.byte	0x88
 1596 024b 01       		.uleb128 0x1
ARM GAS  C:\Users\DEVELO~1\AppData\Local\Temp\cc4WljaS.s 			page 29


 1597 024c 5A050000 		.4byte	.LASF36
 1598 0250 6C03     		.2byte	0x36c
 1599 0252 0F       		.byte	0xf
 1600 0253 90000000 		.4byte	0x90
 1601 0257 8C       		.byte	0x8c
 1602 0258 01       		.uleb128 0x1
 1603 0259 7F020000 		.4byte	.LASF37
 1604 025d 6D03     		.2byte	0x36d
 1605 025f 0F       		.byte	0xf
 1606 0260 9C000000 		.4byte	0x9c
 1607 0264 90       		.byte	0x90
 1608 0265 01       		.uleb128 0x1
 1609 0266 05060000 		.4byte	.LASF38
 1610 026a 6E03     		.2byte	0x36e
 1611 026c 0F       		.byte	0xf
 1612 026d 9C000000 		.4byte	0x9c
 1613 0271 94       		.byte	0x94
 1614 0272 04       		.uleb128 0x4
 1615 0273 50523200 		.ascii	"PR2\000"
 1616 0277 6F03     		.2byte	0x36f
 1617 0279 0F       		.byte	0xf
 1618 027a 9C000000 		.4byte	0x9c
 1619 027e 98       		.byte	0x98
 1620 027f 01       		.uleb128 0x1
 1621 0280 64050000 		.4byte	.LASF39
 1622 0284 7003     		.2byte	0x370
 1623 0286 0F       		.byte	0xf
 1624 0287 90000000 		.4byte	0x90
 1625 028b 9C       		.byte	0x9c
 1626 028c 01       		.uleb128 0x1
 1627 028d 84020000 		.4byte	.LASF40
 1628 0291 7103     		.2byte	0x371
 1629 0293 0F       		.byte	0xf
 1630 0294 9C000000 		.4byte	0x9c
 1631 0298 A0       		.byte	0xa0
 1632 0299 01       		.uleb128 0x1
 1633 029a 0A060000 		.4byte	.LASF41
 1634 029e 7203     		.2byte	0x372
 1635 02a0 0F       		.byte	0xf
 1636 02a1 9C000000 		.4byte	0x9c
 1637 02a5 A4       		.byte	0xa4
 1638 02a6 04       		.uleb128 0x4
 1639 02a7 50523300 		.ascii	"PR3\000"
 1640 02ab 7303     		.2byte	0x373
 1641 02ad 0F       		.byte	0xf
 1642 02ae 9C000000 		.4byte	0x9c
 1643 02b2 A8       		.byte	0xa8
 1644 02b3 00       		.byte	0
 1645 02b4 0B       		.uleb128 0xb
 1646 02b5 7E060000 		.4byte	.LASF42
 1647 02b9 7403     		.2byte	0x374
 1648 02bb 02       		.byte	0x2
 1649 02bc 0B010000 		.4byte	0x10b
 1650 02c0 12       		.uleb128 0x12
 1651 02c1 2C       		.byte	0x2c
 1652 02c2 7F03     		.2byte	0x37f
 1653 02c4 58030000 		.4byte	0x358
ARM GAS  C:\Users\DEVELO~1\AppData\Local\Temp\cc4WljaS.s 			page 30


 1654 02c8 01       		.uleb128 0x1
 1655 02c9 7A020000 		.4byte	.LASF34
 1656 02cd 8103     		.2byte	0x381
 1657 02cf 0F       		.byte	0xf
 1658 02d0 9C000000 		.4byte	0x9c
 1659 02d4 00       		.byte	0
 1660 02d5 01       		.uleb128 0x1
 1661 02d6 00060000 		.4byte	.LASF35
 1662 02da 8203     		.2byte	0x382
 1663 02dc 0F       		.byte	0xf
 1664 02dd 9C000000 		.4byte	0x9c
 1665 02e1 04       		.byte	0x4
 1666 02e2 04       		.uleb128 0x4
 1667 02e3 50523100 		.ascii	"PR1\000"
 1668 02e7 8303     		.2byte	0x383
 1669 02e9 0F       		.byte	0xf
 1670 02ea 9C000000 		.4byte	0x9c
 1671 02ee 08       		.byte	0x8
 1672 02ef 01       		.uleb128 0x1
 1673 02f0 3F040000 		.4byte	.LASF19
 1674 02f4 8403     		.2byte	0x384
 1675 02f6 0F       		.byte	0xf
 1676 02f7 90000000 		.4byte	0x90
 1677 02fb 0C       		.byte	0xc
 1678 02fc 01       		.uleb128 0x1
 1679 02fd 7F020000 		.4byte	.LASF37
 1680 0301 8503     		.2byte	0x385
 1681 0303 0F       		.byte	0xf
 1682 0304 9C000000 		.4byte	0x9c
 1683 0308 10       		.byte	0x10
 1684 0309 01       		.uleb128 0x1
 1685 030a 05060000 		.4byte	.LASF38
 1686 030e 8603     		.2byte	0x386
 1687 0310 0F       		.byte	0xf
 1688 0311 9C000000 		.4byte	0x9c
 1689 0315 14       		.byte	0x14
 1690 0316 04       		.uleb128 0x4
 1691 0317 50523200 		.ascii	"PR2\000"
 1692 031b 8703     		.2byte	0x387
 1693 031d 0F       		.byte	0xf
 1694 031e 9C000000 		.4byte	0x9c
 1695 0322 18       		.byte	0x18
 1696 0323 01       		.uleb128 0x1
 1697 0324 49040000 		.4byte	.LASF26
 1698 0328 8803     		.2byte	0x388
 1699 032a 0F       		.byte	0xf
 1700 032b 90000000 		.4byte	0x90
 1701 032f 1C       		.byte	0x1c
 1702 0330 01       		.uleb128 0x1
 1703 0331 84020000 		.4byte	.LASF40
 1704 0335 8903     		.2byte	0x389
 1705 0337 0F       		.byte	0xf
 1706 0338 9C000000 		.4byte	0x9c
 1707 033c 20       		.byte	0x20
 1708 033d 01       		.uleb128 0x1
 1709 033e 0A060000 		.4byte	.LASF41
 1710 0342 8A03     		.2byte	0x38a
ARM GAS  C:\Users\DEVELO~1\AppData\Local\Temp\cc4WljaS.s 			page 31


 1711 0344 0F       		.byte	0xf
 1712 0345 9C000000 		.4byte	0x9c
 1713 0349 24       		.byte	0x24
 1714 034a 04       		.uleb128 0x4
 1715 034b 50523300 		.ascii	"PR3\000"
 1716 034f 8B03     		.2byte	0x38b
 1717 0351 0F       		.byte	0xf
 1718 0352 9C000000 		.4byte	0x9c
 1719 0356 28       		.byte	0x28
 1720 0357 00       		.byte	0
 1721 0358 0B       		.uleb128 0xb
 1722 0359 28040000 		.4byte	.LASF43
 1723 035d 8C03     		.2byte	0x38c
 1724 035f 02       		.byte	0x2
 1725 0360 C0020000 		.4byte	0x2c0
 1726 0364 12       		.uleb128 0x12
 1727 0365 28       		.byte	0x28
 1728 0366 0204     		.2byte	0x402
 1729 0368 E2030000 		.4byte	0x3e2
 1730 036c 01       		.uleb128 0x1
 1731 036d 68000000 		.4byte	.LASF44
 1732 0371 0404     		.2byte	0x404
 1733 0373 11       		.byte	0x11
 1734 0374 9C000000 		.4byte	0x9c
 1735 0378 00       		.byte	0
 1736 0379 01       		.uleb128 0x1
 1737 037a 25000000 		.4byte	.LASF45
 1738 037e 0504     		.2byte	0x405
 1739 0380 11       		.byte	0x11
 1740 0381 9C000000 		.4byte	0x9c
 1741 0385 04       		.byte	0x4
 1742 0386 01       		.uleb128 0x1
 1743 0387 A9010000 		.4byte	.LASF46
 1744 038b 0604     		.2byte	0x406
 1745 038d 11       		.byte	0x11
 1746 038e 9C000000 		.4byte	0x9c
 1747 0392 08       		.byte	0x8
 1748 0393 01       		.uleb128 0x1
 1749 0394 08000000 		.4byte	.LASF47
 1750 0398 0704     		.2byte	0x407
 1751 039a 11       		.byte	0x11
 1752 039b 9C000000 		.4byte	0x9c
 1753 039f 0C       		.byte	0xc
 1754 03a0 04       		.uleb128 0x4
 1755 03a1 49445200 		.ascii	"IDR\000"
 1756 03a5 0804     		.2byte	0x408
 1757 03a7 11       		.byte	0x11
 1758 03a8 9C000000 		.4byte	0x9c
 1759 03ac 10       		.byte	0x10
 1760 03ad 04       		.uleb128 0x4
 1761 03ae 4F445200 		.ascii	"ODR\000"
 1762 03b2 0904     		.2byte	0x409
 1763 03b4 11       		.byte	0x11
 1764 03b5 9C000000 		.4byte	0x9c
 1765 03b9 14       		.byte	0x14
 1766 03ba 01       		.uleb128 0x1
 1767 03bb 00010000 		.4byte	.LASF48
ARM GAS  C:\Users\DEVELO~1\AppData\Local\Temp\cc4WljaS.s 			page 32


 1768 03bf 0A04     		.2byte	0x40a
 1769 03c1 11       		.byte	0x11
 1770 03c2 9C000000 		.4byte	0x9c
 1771 03c6 18       		.byte	0x18
 1772 03c7 01       		.uleb128 0x1
 1773 03c8 17000000 		.4byte	.LASF49
 1774 03cc 0B04     		.2byte	0x40b
 1775 03ce 11       		.byte	0x11
 1776 03cf 9C000000 		.4byte	0x9c
 1777 03d3 1C       		.byte	0x1c
 1778 03d4 04       		.uleb128 0x4
 1779 03d5 41465200 		.ascii	"AFR\000"
 1780 03d9 0C04     		.2byte	0x40c
 1781 03db 11       		.byte	0x11
 1782 03dc E6000000 		.4byte	0xe6
 1783 03e0 20       		.byte	0x20
 1784 03e1 00       		.byte	0
 1785 03e2 0B       		.uleb128 0xb
 1786 03e3 3D020000 		.4byte	.LASF50
 1787 03e7 0D04     		.2byte	0x40d
 1788 03e9 03       		.byte	0x3
 1789 03ea 64030000 		.4byte	0x364
 1790 03ee 14       		.uleb128 0x14
 1791 03ef E2030000 		.4byte	0x3e2
 1792 03f3 15       		.uleb128 0x15
 1793 03f4 4803     		.2byte	0x348
 1794 03f6 1E04     		.2byte	0x41e
 1795 03f8 8D050000 		.4byte	0x58d
 1796 03fc 01       		.uleb128 0x1
 1797 03fd 3F040000 		.4byte	.LASF19
 1798 0401 2004     		.2byte	0x420
 1799 0403 0B       		.byte	0xb
 1800 0404 90000000 		.4byte	0x90
 1801 0408 00       		.byte	0
 1802 0409 01       		.uleb128 0x1
 1803 040a 4B050000 		.4byte	.LASF51
 1804 040e 2104     		.2byte	0x421
 1805 0410 10       		.byte	0x10
 1806 0411 9C000000 		.4byte	0x9c
 1807 0415 04       		.byte	0x4
 1808 0416 01       		.uleb128 0x1
 1809 0417 BE060000 		.4byte	.LASF52
 1810 041b 2204     		.2byte	0x422
 1811 041d 10       		.byte	0x10
 1812 041e D1000000 		.4byte	0xd1
 1813 0422 08       		.byte	0x8
 1814 0423 01       		.uleb128 0x1
 1815 0424 61060000 		.4byte	.LASF53
 1816 0428 2304     		.2byte	0x423
 1817 042a 10       		.byte	0x10
 1818 042b 9C000000 		.4byte	0x9c
 1819 042f 18       		.byte	0x18
 1820 0430 01       		.uleb128 0x1
 1821 0431 49040000 		.4byte	.LASF26
 1822 0435 2404     		.2byte	0x424
 1823 0437 0B       		.byte	0xb
 1824 0438 90000000 		.4byte	0x90
ARM GAS  C:\Users\DEVELO~1\AppData\Local\Temp\cc4WljaS.s 			page 33


 1825 043c 1C       		.byte	0x1c
 1826 043d 01       		.uleb128 0x1
 1827 043e EE000000 		.4byte	.LASF54
 1828 0442 2504     		.2byte	0x425
 1829 0444 10       		.byte	0x10
 1830 0445 9C000000 		.4byte	0x9c
 1831 0449 20       		.byte	0x20
 1832 044a 01       		.uleb128 0x1
 1833 044b 9B010000 		.4byte	.LASF55
 1834 044f 2604     		.2byte	0x426
 1835 0451 10       		.byte	0x10
 1836 0452 9C000000 		.4byte	0x9c
 1837 0456 24       		.byte	0x24
 1838 0457 01       		.uleb128 0x1
 1839 0458 79060000 		.4byte	.LASF56
 1840 045c 2704     		.2byte	0x427
 1841 045e 10       		.byte	0x10
 1842 045f 9C000000 		.4byte	0x9c
 1843 0463 28       		.byte	0x28
 1844 0464 01       		.uleb128 0x1
 1845 0465 D9010000 		.4byte	.LASF57
 1846 0469 2804     		.2byte	0x428
 1847 046b 10       		.byte	0x10
 1848 046c 9C000000 		.4byte	0x9c
 1849 0470 2C       		.byte	0x2c
 1850 0471 01       		.uleb128 0x1
 1851 0472 50050000 		.4byte	.LASF33
 1852 0476 2904     		.2byte	0x429
 1853 0478 10       		.byte	0x10
 1854 0479 8D050000 		.4byte	0x58d
 1855 047d 30       		.byte	0x30
 1856 047e 02       		.uleb128 0x2
 1857 047f 3A040000 		.4byte	.LASF58
 1858 0483 2A04     		.2byte	0x42a
 1859 0485 11       		.byte	0x11
 1860 0486 9C000000 		.4byte	0x9c
 1861 048a 2401     		.2byte	0x124
 1862 048c 02       		.uleb128 0x2
 1863 048d 5A050000 		.4byte	.LASF36
 1864 0491 2B04     		.2byte	0x42b
 1865 0493 10       		.byte	0x10
 1866 0494 9D050000 		.4byte	0x59d
 1867 0498 2801     		.2byte	0x128
 1868 049a 06       		.uleb128 0x6
 1869 049b 55523000 		.ascii	"UR0\000"
 1870 049f 2C04     		.2byte	0x42c
 1871 04a1 9C000000 		.4byte	0x9c
 1872 04a5 0003     		.2byte	0x300
 1873 04a7 06       		.uleb128 0x6
 1874 04a8 55523100 		.ascii	"UR1\000"
 1875 04ac 2D04     		.2byte	0x42d
 1876 04ae 9C000000 		.4byte	0x9c
 1877 04b2 0403     		.2byte	0x304
 1878 04b4 06       		.uleb128 0x6
 1879 04b5 55523200 		.ascii	"UR2\000"
 1880 04b9 2E04     		.2byte	0x42e
 1881 04bb 9C000000 		.4byte	0x9c
ARM GAS  C:\Users\DEVELO~1\AppData\Local\Temp\cc4WljaS.s 			page 34


 1882 04bf 0803     		.2byte	0x308
 1883 04c1 06       		.uleb128 0x6
 1884 04c2 55523300 		.ascii	"UR3\000"
 1885 04c6 2F04     		.2byte	0x42f
 1886 04c8 9C000000 		.4byte	0x9c
 1887 04cc 0C03     		.2byte	0x30c
 1888 04ce 06       		.uleb128 0x6
 1889 04cf 55523400 		.ascii	"UR4\000"
 1890 04d3 3004     		.2byte	0x430
 1891 04d5 9C000000 		.4byte	0x9c
 1892 04d9 1003     		.2byte	0x310
 1893 04db 06       		.uleb128 0x6
 1894 04dc 55523500 		.ascii	"UR5\000"
 1895 04e0 3104     		.2byte	0x431
 1896 04e2 9C000000 		.4byte	0x9c
 1897 04e6 1403     		.2byte	0x314
 1898 04e8 06       		.uleb128 0x6
 1899 04e9 55523600 		.ascii	"UR6\000"
 1900 04ed 3204     		.2byte	0x432
 1901 04ef 9C000000 		.4byte	0x9c
 1902 04f3 1803     		.2byte	0x318
 1903 04f5 06       		.uleb128 0x6
 1904 04f6 55523700 		.ascii	"UR7\000"
 1905 04fa 3304     		.2byte	0x433
 1906 04fc 9C000000 		.4byte	0x9c
 1907 0500 1C03     		.2byte	0x31c
 1908 0502 06       		.uleb128 0x6
 1909 0503 55523800 		.ascii	"UR8\000"
 1910 0507 3404     		.2byte	0x434
 1911 0509 9C000000 		.4byte	0x9c
 1912 050d 2003     		.2byte	0x320
 1913 050f 06       		.uleb128 0x6
 1914 0510 55523900 		.ascii	"UR9\000"
 1915 0514 3504     		.2byte	0x435
 1916 0516 9C000000 		.4byte	0x9c
 1917 051a 2403     		.2byte	0x324
 1918 051c 02       		.uleb128 0x2
 1919 051d A8030000 		.4byte	.LASF59
 1920 0521 3604     		.2byte	0x436
 1921 0523 10       		.byte	0x10
 1922 0524 9C000000 		.4byte	0x9c
 1923 0528 2803     		.2byte	0x328
 1924 052a 02       		.uleb128 0x2
 1925 052b C4030000 		.4byte	.LASF60
 1926 052f 3704     		.2byte	0x437
 1927 0531 10       		.byte	0x10
 1928 0532 9C000000 		.4byte	0x9c
 1929 0536 2C03     		.2byte	0x32c
 1930 0538 02       		.uleb128 0x2
 1931 0539 F1050000 		.4byte	.LASF61
 1932 053d 3804     		.2byte	0x438
 1933 053f 10       		.byte	0x10
 1934 0540 9C000000 		.4byte	0x9c
 1935 0544 3003     		.2byte	0x330
 1936 0546 02       		.uleb128 0x2
 1937 0547 F6050000 		.4byte	.LASF62
 1938 054b 3904     		.2byte	0x439
ARM GAS  C:\Users\DEVELO~1\AppData\Local\Temp\cc4WljaS.s 			page 35


 1939 054d 10       		.byte	0x10
 1940 054e 9C000000 		.4byte	0x9c
 1941 0552 3403     		.2byte	0x334
 1942 0554 02       		.uleb128 0x2
 1943 0555 FB050000 		.4byte	.LASF63
 1944 0559 3A04     		.2byte	0x43a
 1945 055b 10       		.byte	0x10
 1946 055c 9C000000 		.4byte	0x9c
 1947 0560 3803     		.2byte	0x338
 1948 0562 02       		.uleb128 0x2
 1949 0563 D1030000 		.4byte	.LASF64
 1950 0567 3B04     		.2byte	0x43b
 1951 0569 10       		.byte	0x10
 1952 056a 9C000000 		.4byte	0x9c
 1953 056e 3C03     		.2byte	0x33c
 1954 0570 02       		.uleb128 0x2
 1955 0571 D6030000 		.4byte	.LASF65
 1956 0575 3C04     		.2byte	0x43c
 1957 0577 10       		.byte	0x10
 1958 0578 9C000000 		.4byte	0x9c
 1959 057c 4003     		.2byte	0x340
 1960 057e 02       		.uleb128 0x2
 1961 057f DB030000 		.4byte	.LASF66
 1962 0583 3D04     		.2byte	0x43d
 1963 0585 10       		.byte	0x10
 1964 0586 9C000000 		.4byte	0x9c
 1965 058a 4403     		.2byte	0x344
 1966 058c 00       		.byte	0
 1967 058d 07       		.uleb128 0x7
 1968 058e 90000000 		.4byte	0x90
 1969 0592 9D050000 		.4byte	0x59d
 1970 0596 08       		.uleb128 0x8
 1971 0597 7D000000 		.4byte	0x7d
 1972 059b 3C       		.byte	0x3c
 1973 059c 00       		.byte	0
 1974 059d 07       		.uleb128 0x7
 1975 059e 90000000 		.4byte	0x90
 1976 05a2 AD050000 		.4byte	0x5ad
 1977 05a6 08       		.uleb128 0x8
 1978 05a7 7D000000 		.4byte	0x7d
 1979 05ab 75       		.byte	0x75
 1980 05ac 00       		.byte	0
 1981 05ad 0B       		.uleb128 0xb
 1982 05ae 8A040000 		.4byte	.LASF67
 1983 05b2 3F04     		.2byte	0x43f
 1984 05b4 03       		.byte	0x3
 1985 05b5 F3030000 		.4byte	0x3f3
 1986 05b9 15       		.uleb128 0x15
 1987 05ba 3001     		.2byte	0x130
 1988 05bc CE04     		.2byte	0x4ce
 1989 05be 18090000 		.4byte	0x918
 1990 05c2 04       		.uleb128 0x4
 1991 05c3 435200   		.ascii	"CR\000"
 1992 05c6 D004     		.2byte	0x4d0
 1993 05c8 10       		.byte	0x10
 1994 05c9 9C000000 		.4byte	0x9c
 1995 05cd 00       		.byte	0
ARM GAS  C:\Users\DEVELO~1\AppData\Local\Temp\cc4WljaS.s 			page 36


 1996 05ce 01       		.uleb128 0x1
 1997 05cf 89020000 		.4byte	.LASF68
 1998 05d3 D104     		.2byte	0x4d1
 1999 05d5 10       		.byte	0x10
 2000 05d6 9C000000 		.4byte	0x9c
 2001 05da 04       		.byte	0x4
 2002 05db 01       		.uleb128 0x1
 2003 05dc 90010000 		.4byte	.LASF69
 2004 05e0 D204     		.2byte	0x4d2
 2005 05e2 10       		.byte	0x10
 2006 05e3 9C000000 		.4byte	0x9c
 2007 05e7 08       		.byte	0x8
 2008 05e8 01       		.uleb128 0x1
 2009 05e9 E9050000 		.4byte	.LASF70
 2010 05ed D304     		.2byte	0x4d3
 2011 05ef 10       		.byte	0x10
 2012 05f0 9C000000 		.4byte	0x9c
 2013 05f4 0C       		.byte	0xc
 2014 05f5 01       		.uleb128 0x1
 2015 05f6 61060000 		.4byte	.LASF53
 2016 05fa D404     		.2byte	0x4d4
 2017 05fc 10       		.byte	0x10
 2018 05fd 9C000000 		.4byte	0x9c
 2019 0601 10       		.byte	0x10
 2020 0602 01       		.uleb128 0x1
 2021 0603 3F040000 		.4byte	.LASF19
 2022 0607 D504     		.2byte	0x4d5
 2023 0609 0F       		.byte	0xf
 2024 060a 90000000 		.4byte	0x90
 2025 060e 14       		.byte	0x14
 2026 060f 01       		.uleb128 0x1
 2027 0610 AD060000 		.4byte	.LASF71
 2028 0614 D604     		.2byte	0x4d6
 2029 0616 10       		.byte	0x10
 2030 0617 9C000000 		.4byte	0x9c
 2031 061b 18       		.byte	0x18
 2032 061c 01       		.uleb128 0x1
 2033 061d 64040000 		.4byte	.LASF72
 2034 0621 D704     		.2byte	0x4d7
 2035 0623 10       		.byte	0x10
 2036 0624 9C000000 		.4byte	0x9c
 2037 0628 1C       		.byte	0x1c
 2038 0629 01       		.uleb128 0x1
 2039 062a 81010000 		.4byte	.LASF73
 2040 062e D804     		.2byte	0x4d8
 2041 0630 10       		.byte	0x10
 2042 0631 9C000000 		.4byte	0x9c
 2043 0635 20       		.byte	0x20
 2044 0636 01       		.uleb128 0x1
 2045 0637 49040000 		.4byte	.LASF26
 2046 063b D904     		.2byte	0x4d9
 2047 063d 0F       		.byte	0xf
 2048 063e 90000000 		.4byte	0x90
 2049 0642 24       		.byte	0x24
 2050 0643 01       		.uleb128 0x1
 2051 0644 70020000 		.4byte	.LASF74
 2052 0648 DA04     		.2byte	0x4da
ARM GAS  C:\Users\DEVELO~1\AppData\Local\Temp\cc4WljaS.s 			page 37


 2053 064a 10       		.byte	0x10
 2054 064b 9C000000 		.4byte	0x9c
 2055 064f 28       		.byte	0x28
 2056 0650 01       		.uleb128 0x1
 2057 0651 88010000 		.4byte	.LASF75
 2058 0655 DB04     		.2byte	0x4db
 2059 0657 10       		.byte	0x10
 2060 0658 9C000000 		.4byte	0x9c
 2061 065c 2C       		.byte	0x2c
 2062 065d 01       		.uleb128 0x1
 2063 065e 0E000000 		.4byte	.LASF76
 2064 0662 DC04     		.2byte	0x4dc
 2065 0664 10       		.byte	0x10
 2066 0665 9C000000 		.4byte	0x9c
 2067 0669 30       		.byte	0x30
 2068 066a 01       		.uleb128 0x1
 2069 066b 40010000 		.4byte	.LASF77
 2070 066f DD04     		.2byte	0x4dd
 2071 0671 10       		.byte	0x10
 2072 0672 9C000000 		.4byte	0x9c
 2073 0676 34       		.byte	0x34
 2074 0677 01       		.uleb128 0x1
 2075 0678 3A050000 		.4byte	.LASF78
 2076 067c DE04     		.2byte	0x4de
 2077 067e 10       		.byte	0x10
 2078 067f 9C000000 		.4byte	0x9c
 2079 0683 38       		.byte	0x38
 2080 0684 01       		.uleb128 0x1
 2081 0685 0B020000 		.4byte	.LASF79
 2082 0689 DF04     		.2byte	0x4df
 2083 068b 10       		.byte	0x10
 2084 068c 9C000000 		.4byte	0x9c
 2085 0690 3C       		.byte	0x3c
 2086 0691 01       		.uleb128 0x1
 2087 0692 A0010000 		.4byte	.LASF80
 2088 0696 E004     		.2byte	0x4e0
 2089 0698 10       		.byte	0x10
 2090 0699 9C000000 		.4byte	0x9c
 2091 069d 40       		.byte	0x40
 2092 069e 01       		.uleb128 0x1
 2093 069f 5F030000 		.4byte	.LASF81
 2094 06a3 E104     		.2byte	0x4e1
 2095 06a5 10       		.byte	0x10
 2096 06a6 9C000000 		.4byte	0x9c
 2097 06aa 44       		.byte	0x44
 2098 06ab 01       		.uleb128 0x1
 2099 06ac 50050000 		.4byte	.LASF33
 2100 06b0 E204     		.2byte	0x4e2
 2101 06b2 10       		.byte	0x10
 2102 06b3 90000000 		.4byte	0x90
 2103 06b7 48       		.byte	0x48
 2104 06b8 01       		.uleb128 0x1
 2105 06b9 A5060000 		.4byte	.LASF82
 2106 06bd E304     		.2byte	0x4e3
 2107 06bf 11       		.byte	0x11
 2108 06c0 9C000000 		.4byte	0x9c
 2109 06c4 4C       		.byte	0x4c
ARM GAS  C:\Users\DEVELO~1\AppData\Local\Temp\cc4WljaS.s 			page 38


 2110 06c5 01       		.uleb128 0x1
 2111 06c6 C2010000 		.4byte	.LASF83
 2112 06ca E404     		.2byte	0x4e4
 2113 06cc 11       		.byte	0x11
 2114 06cd 9C000000 		.4byte	0x9c
 2115 06d1 50       		.byte	0x50
 2116 06d2 01       		.uleb128 0x1
 2117 06d3 2E030000 		.4byte	.LASF84
 2118 06d7 E504     		.2byte	0x4e5
 2119 06d9 11       		.byte	0x11
 2120 06da 9C000000 		.4byte	0x9c
 2121 06de 54       		.byte	0x54
 2122 06df 01       		.uleb128 0x1
 2123 06e0 D1010000 		.4byte	.LASF85
 2124 06e4 E604     		.2byte	0x4e6
 2125 06e6 11       		.byte	0x11
 2126 06e7 9C000000 		.4byte	0x9c
 2127 06eb 58       		.byte	0x58
 2128 06ec 01       		.uleb128 0x1
 2129 06ed 5A050000 		.4byte	.LASF36
 2130 06f1 E704     		.2byte	0x4e7
 2131 06f3 10       		.byte	0x10
 2132 06f4 90000000 		.4byte	0x90
 2133 06f8 5C       		.byte	0x5c
 2134 06f9 01       		.uleb128 0x1
 2135 06fa DF000000 		.4byte	.LASF86
 2136 06fe E804     		.2byte	0x4e8
 2137 0700 11       		.byte	0x11
 2138 0701 9C000000 		.4byte	0x9c
 2139 0705 60       		.byte	0x60
 2140 0706 01       		.uleb128 0x1
 2141 0707 96010000 		.4byte	.LASF87
 2142 070b E904     		.2byte	0x4e9
 2143 070d 11       		.byte	0x11
 2144 070e 9C000000 		.4byte	0x9c
 2145 0712 64       		.byte	0x64
 2146 0713 01       		.uleb128 0x1
 2147 0714 22060000 		.4byte	.LASF88
 2148 0718 EA04     		.2byte	0x4ea
 2149 071a 11       		.byte	0x11
 2150 071b 9C000000 		.4byte	0x9c
 2151 071f 68       		.byte	0x68
 2152 0720 01       		.uleb128 0x1
 2153 0721 64050000 		.4byte	.LASF39
 2154 0725 EB04     		.2byte	0x4eb
 2155 0727 0F       		.byte	0xf
 2156 0728 90000000 		.4byte	0x90
 2157 072c 6C       		.byte	0x6c
 2158 072d 01       		.uleb128 0x1
 2159 072e 2F060000 		.4byte	.LASF89
 2160 0732 EC04     		.2byte	0x4ec
 2161 0734 11       		.byte	0x11
 2162 0735 9C000000 		.4byte	0x9c
 2163 0739 70       		.byte	0x70
 2164 073a 04       		.uleb128 0x4
 2165 073b 43535200 		.ascii	"CSR\000"
 2166 073f ED04     		.2byte	0x4ed
ARM GAS  C:\Users\DEVELO~1\AppData\Local\Temp\cc4WljaS.s 			page 39


 2167 0741 11       		.byte	0x11
 2168 0742 9C000000 		.4byte	0x9c
 2169 0746 74       		.byte	0x74
 2170 0747 01       		.uleb128 0x1
 2171 0748 71040000 		.4byte	.LASF90
 2172 074c EE04     		.2byte	0x4ee
 2173 074e 0F       		.byte	0xf
 2174 074f 90000000 		.4byte	0x90
 2175 0753 78       		.byte	0x78
 2176 0754 01       		.uleb128 0x1
 2177 0755 1C030000 		.4byte	.LASF91
 2178 0759 EF04     		.2byte	0x4ef
 2179 075b 10       		.byte	0x10
 2180 075c 9C000000 		.4byte	0x9c
 2181 0760 7C       		.byte	0x7c
 2182 0761 01       		.uleb128 0x1
 2183 0762 05010000 		.4byte	.LASF92
 2184 0766 F004     		.2byte	0x4f0
 2185 0768 10       		.byte	0x10
 2186 0769 9C000000 		.4byte	0x9c
 2187 076d 80       		.byte	0x80
 2188 076e 01       		.uleb128 0x1
 2189 076f BB050000 		.4byte	.LASF93
 2190 0773 F104     		.2byte	0x4f1
 2191 0775 10       		.byte	0x10
 2192 0776 9C000000 		.4byte	0x9c
 2193 077a 84       		.byte	0x84
 2194 077b 01       		.uleb128 0x1
 2195 077c 1C000000 		.4byte	.LASF94
 2196 0780 F204     		.2byte	0x4f2
 2197 0782 10       		.byte	0x10
 2198 0783 9C000000 		.4byte	0x9c
 2199 0787 88       		.byte	0x88
 2200 0788 01       		.uleb128 0x1
 2201 0789 E0050000 		.4byte	.LASF95
 2202 078d F304     		.2byte	0x4f3
 2203 078f 10       		.byte	0x10
 2204 0790 9C000000 		.4byte	0x9c
 2205 0794 8C       		.byte	0x8c
 2206 0795 01       		.uleb128 0x1
 2207 0796 CE050000 		.4byte	.LASF96
 2208 079a F404     		.2byte	0x4f4
 2209 079c 10       		.byte	0x10
 2210 079d 9C000000 		.4byte	0x9c
 2211 07a1 90       		.byte	0x90
 2212 07a2 01       		.uleb128 0x1
 2213 07a3 E6030000 		.4byte	.LASF97
 2214 07a7 F504     		.2byte	0x4f5
 2215 07a9 10       		.byte	0x10
 2216 07aa 9C000000 		.4byte	0x9c
 2217 07ae 94       		.byte	0x94
 2218 07af 01       		.uleb128 0x1
 2219 07b0 4A010000 		.4byte	.LASF98
 2220 07b4 F604     		.2byte	0x4f6
 2221 07b6 10       		.byte	0x10
 2222 07b7 9C000000 		.4byte	0x9c
 2223 07bb 98       		.byte	0x98
ARM GAS  C:\Users\DEVELO~1\AppData\Local\Temp\cc4WljaS.s 			page 40


 2224 07bc 01       		.uleb128 0x1
 2225 07bd 9F030000 		.4byte	.LASF99
 2226 07c1 F704     		.2byte	0x4f7
 2227 07c3 10       		.byte	0x10
 2228 07c4 9C000000 		.4byte	0x9c
 2229 07c8 9C       		.byte	0x9c
 2230 07c9 04       		.uleb128 0x4
 2231 07ca 47435200 		.ascii	"GCR\000"
 2232 07ce F804     		.2byte	0x4f8
 2233 07d0 10       		.byte	0x10
 2234 07d1 9C000000 		.4byte	0x9c
 2235 07d5 A0       		.byte	0xa0
 2236 07d6 01       		.uleb128 0x1
 2237 07d7 7B040000 		.4byte	.LASF100
 2238 07db F904     		.2byte	0x4f9
 2239 07dd 0F       		.byte	0xf
 2240 07de 90000000 		.4byte	0x90
 2241 07e2 A4       		.byte	0xa4
 2242 07e3 01       		.uleb128 0x1
 2243 07e4 94000000 		.4byte	.LASF101
 2244 07e8 FA04     		.2byte	0x4fa
 2245 07ea 10       		.byte	0x10
 2246 07eb 9C000000 		.4byte	0x9c
 2247 07ef A8       		.byte	0xa8
 2248 07f0 01       		.uleb128 0x1
 2249 07f1 18010000 		.4byte	.LASF102
 2250 07f5 FB04     		.2byte	0x4fb
 2251 07f7 0F       		.byte	0xf
 2252 07f8 FB000000 		.4byte	0xfb
 2253 07fc AC       		.byte	0xac
 2254 07fd 04       		.uleb128 0x4
 2255 07fe 52535200 		.ascii	"RSR\000"
 2256 0802 FC04     		.2byte	0x4fc
 2257 0804 10       		.byte	0x10
 2258 0805 9C000000 		.4byte	0x9c
 2259 0809 D0       		.byte	0xd0
 2260 080a 01       		.uleb128 0x1
 2261 080b 43050000 		.4byte	.LASF103
 2262 080f FD04     		.2byte	0x4fd
 2263 0811 10       		.byte	0x10
 2264 0812 9C000000 		.4byte	0x9c
 2265 0816 D4       		.byte	0xd4
 2266 0817 01       		.uleb128 0x1
 2267 0818 03020000 		.4byte	.LASF104
 2268 081c FE04     		.2byte	0x4fe
 2269 081e 10       		.byte	0x10
 2270 081f 9C000000 		.4byte	0x9c
 2271 0823 D8       		.byte	0xd8
 2272 0824 01       		.uleb128 0x1
 2273 0825 D8050000 		.4byte	.LASF105
 2274 0829 FF04     		.2byte	0x4ff
 2275 082b 10       		.byte	0x10
 2276 082c 9C000000 		.4byte	0x9c
 2277 0830 DC       		.byte	0xdc
 2278 0831 01       		.uleb128 0x1
 2279 0832 A7040000 		.4byte	.LASF106
 2280 0836 0005     		.2byte	0x500
ARM GAS  C:\Users\DEVELO~1\AppData\Local\Temp\cc4WljaS.s 			page 41


 2281 0838 10       		.byte	0x10
 2282 0839 9C000000 		.4byte	0x9c
 2283 083d E0       		.byte	0xe0
 2284 083e 01       		.uleb128 0x1
 2285 083f 20040000 		.4byte	.LASF107
 2286 0843 0105     		.2byte	0x501
 2287 0845 10       		.byte	0x10
 2288 0846 9C000000 		.4byte	0x9c
 2289 084a E4       		.byte	0xe4
 2290 084b 01       		.uleb128 0x1
 2291 084c 9C060000 		.4byte	.LASF108
 2292 0850 0205     		.2byte	0x502
 2293 0852 10       		.byte	0x10
 2294 0853 9C000000 		.4byte	0x9c
 2295 0857 E8       		.byte	0xe8
 2296 0858 01       		.uleb128 0x1
 2297 0859 25030000 		.4byte	.LASF109
 2298 085d 0305     		.2byte	0x503
 2299 085f 10       		.byte	0x10
 2300 0860 9C000000 		.4byte	0x9c
 2301 0864 EC       		.byte	0xec
 2302 0865 01       		.uleb128 0x1
 2303 0866 32050000 		.4byte	.LASF110
 2304 086a 0405     		.2byte	0x504
 2305 086c 10       		.byte	0x10
 2306 086d 9C000000 		.4byte	0x9c
 2307 0871 F0       		.byte	0xf0
 2308 0872 01       		.uleb128 0x1
 2309 0873 C9030000 		.4byte	.LASF111
 2310 0877 0505     		.2byte	0x505
 2311 0879 10       		.byte	0x10
 2312 087a 9C000000 		.4byte	0x9c
 2313 087e F4       		.byte	0xf4
 2314 087f 01       		.uleb128 0x1
 2315 0880 23010000 		.4byte	.LASF112
 2316 0884 0605     		.2byte	0x506
 2317 0886 10       		.byte	0x10
 2318 0887 90000000 		.4byte	0x90
 2319 088b F8       		.byte	0xf8
 2320 088c 01       		.uleb128 0x1
 2321 088d 18050000 		.4byte	.LASF113
 2322 0891 0705     		.2byte	0x507
 2323 0893 10       		.byte	0x10
 2324 0894 9C000000 		.4byte	0x9c
 2325 0898 FC       		.byte	0xfc
 2326 0899 02       		.uleb128 0x2
 2327 089a 3C060000 		.4byte	.LASF114
 2328 089e 0805     		.2byte	0x508
 2329 08a0 10       		.byte	0x10
 2330 08a1 9C000000 		.4byte	0x9c
 2331 08a5 0001     		.2byte	0x100
 2332 08a7 02       		.uleb128 0x2
 2333 08a8 FE030000 		.4byte	.LASF115
 2334 08ac 0905     		.2byte	0x509
 2335 08ae 10       		.byte	0x10
 2336 08af 9C000000 		.4byte	0x9c
 2337 08b3 0401     		.2byte	0x104
ARM GAS  C:\Users\DEVELO~1\AppData\Local\Temp\cc4WljaS.s 			page 42


 2338 08b5 02       		.uleb128 0x2
 2339 08b6 C4050000 		.4byte	.LASF116
 2340 08ba 0A05     		.2byte	0x50a
 2341 08bc 10       		.byte	0x10
 2342 08bd 9C000000 		.4byte	0x9c
 2343 08c1 0801     		.2byte	0x108
 2344 08c3 02       		.uleb128 0x2
 2345 08c4 0E010000 		.4byte	.LASF117
 2346 08c8 0B05     		.2byte	0x50b
 2347 08ca 10       		.byte	0x10
 2348 08cb 9C000000 		.4byte	0x9c
 2349 08cf 0C01     		.2byte	0x10c
 2350 08d1 02       		.uleb128 0x2
 2351 08d2 0F060000 		.4byte	.LASF118
 2352 08d6 0C05     		.2byte	0x50c
 2353 08d8 10       		.byte	0x10
 2354 08d9 9C000000 		.4byte	0x9c
 2355 08dd 1001     		.2byte	0x110
 2356 08df 02       		.uleb128 0x2
 2357 08e0 3B000000 		.4byte	.LASF119
 2358 08e4 0D05     		.2byte	0x50d
 2359 08e6 10       		.byte	0x10
 2360 08e7 9C000000 		.4byte	0x9c
 2361 08eb 1401     		.2byte	0x114
 2362 08ed 02       		.uleb128 0x2
 2363 08ee 55030000 		.4byte	.LASF120
 2364 08f2 0E05     		.2byte	0x50e
 2365 08f4 10       		.byte	0x10
 2366 08f5 9C000000 		.4byte	0x9c
 2367 08f9 1801     		.2byte	0x118
 2368 08fb 02       		.uleb128 0x2
 2369 08fc 22050000 		.4byte	.LASF121
 2370 0900 0F05     		.2byte	0x50f
 2371 0902 10       		.byte	0x10
 2372 0903 9C000000 		.4byte	0x9c
 2373 0907 1C01     		.2byte	0x11c
 2374 0909 02       		.uleb128 0x2
 2375 090a 2E010000 		.4byte	.LASF122
 2376 090e 1005     		.2byte	0x510
 2377 0910 0F       		.byte	0xf
 2378 0911 B1000000 		.4byte	0xb1
 2379 0915 2001     		.2byte	0x120
 2380 0917 00       		.byte	0
 2381 0918 0B       		.uleb128 0xb
 2382 0919 4A020000 		.4byte	.LASF123
 2383 091d 1205     		.2byte	0x512
 2384 091f 03       		.byte	0x3
 2385 0920 B9050000 		.4byte	0x5b9
 2386 0924 03       		.uleb128 0x3
 2387 0925 08       		.byte	0x8
 2388 0926 04       		.byte	0x4
 2389 0927 91050000 		.4byte	.LASF124
 2390 092b 03       		.uleb128 0x3
 2391 092c 01       		.byte	0x1
 2392 092d 08       		.byte	0x8
 2393 092e A6050000 		.4byte	.LASF125
 2394 0932 03       		.uleb128 0x3
ARM GAS  C:\Users\DEVELO~1\AppData\Local\Temp\cc4WljaS.s 			page 43


 2395 0933 04       		.byte	0x4
 2396 0934 04       		.byte	0x4
 2397 0935 1A040000 		.4byte	.LASF126
 2398 0939 03       		.uleb128 0x3
 2399 093a 08       		.byte	0x8
 2400 093b 04       		.byte	0x4
 2401 093c 6A010000 		.4byte	.LASF127
 2402 0940 16       		.uleb128 0x16
 2403 0941 34000000 		.4byte	0x34
 2404 0945 05       		.byte	0x5
 2405 0946 28       		.byte	0x28
 2406 0947 64090000 		.4byte	0x964
 2407 094b 0A       		.uleb128 0xa
 2408 094c 56020000 		.4byte	.LASF128
 2409 0950 00       		.byte	0
 2410 0951 0A       		.uleb128 0xa
 2411 0952 7F050000 		.4byte	.LASF129
 2412 0956 01       		.byte	0x1
 2413 0957 0A       		.uleb128 0xa
 2414 0958 2C000000 		.4byte	.LASF130
 2415 095c 02       		.byte	0x2
 2416 095d 0A       		.uleb128 0xa
 2417 095e F7010000 		.4byte	.LASF131
 2418 0962 03       		.byte	0x3
 2419 0963 00       		.byte	0
 2420 0964 09       		.uleb128 0x9
 2421 0965 43030000 		.4byte	.LASF132
 2422 0969 05       		.byte	0x5
 2423 096a 2D       		.byte	0x2d
 2424 096b 03       		.byte	0x3
 2425 096c 40090000 		.4byte	0x940
 2426 0970 1B       		.uleb128 0x1b
 2427 0971 14       		.byte	0x14
 2428 0972 06       		.byte	0x6
 2429 0973 2E       		.byte	0x2e
 2430 0974 09       		.byte	0x9
 2431 0975 B3090000 		.4byte	0x9b3
 2432 0979 1C       		.uleb128 0x1c
 2433 097a 50696E00 		.ascii	"Pin\000"
 2434 097e 06       		.byte	0x6
 2435 097f 30       		.byte	0x30
 2436 0980 0C       		.byte	0xc
 2437 0981 90000000 		.4byte	0x90
 2438 0985 00       		.byte	0
 2439 0986 0D       		.uleb128 0xd
 2440 0987 AB050000 		.4byte	.LASF133
 2441 098b 33       		.byte	0x33
 2442 098c 90000000 		.4byte	0x90
 2443 0990 04       		.byte	0x4
 2444 0991 0D       		.uleb128 0xd
 2445 0992 85040000 		.4byte	.LASF134
 2446 0996 36       		.byte	0x36
 2447 0997 90000000 		.4byte	0x90
 2448 099b 08       		.byte	0x8
 2449 099c 0D       		.uleb128 0xd
 2450 099d E0030000 		.4byte	.LASF135
 2451 09a1 39       		.byte	0x39
ARM GAS  C:\Users\DEVELO~1\AppData\Local\Temp\cc4WljaS.s 			page 44


 2452 09a2 90000000 		.4byte	0x90
 2453 09a6 0C       		.byte	0xc
 2454 09a7 0D       		.uleb128 0xd
 2455 09a8 E4000000 		.4byte	.LASF136
 2456 09ac 3C       		.byte	0x3c
 2457 09ad 90000000 		.4byte	0x90
 2458 09b1 10       		.byte	0x10
 2459 09b2 00       		.byte	0
 2460 09b3 09       		.uleb128 0x9
 2461 09b4 53040000 		.4byte	.LASF137
 2462 09b8 06       		.byte	0x6
 2463 09b9 3E       		.byte	0x3e
 2464 09ba 03       		.byte	0x3
 2465 09bb 70090000 		.4byte	0x970
 2466 09bf 14       		.uleb128 0x14
 2467 09c0 B3090000 		.4byte	0x9b3
 2468 09c4 16       		.uleb128 0x16
 2469 09c5 34000000 		.4byte	0x34
 2470 09c9 06       		.byte	0x6
 2471 09ca 44       		.byte	0x44
 2472 09cb DC090000 		.4byte	0x9dc
 2473 09cf 0A       		.uleb128 0xa
 2474 09d0 85000000 		.4byte	.LASF138
 2475 09d4 00       		.byte	0
 2476 09d5 0A       		.uleb128 0xa
 2477 09d6 46060000 		.4byte	.LASF139
 2478 09da 01       		.byte	0x1
 2479 09db 00       		.byte	0
 2480 09dc 09       		.uleb128 0x9
 2481 09dd AB000000 		.4byte	.LASF140
 2482 09e1 06       		.byte	0x6
 2483 09e2 47       		.byte	0x47
 2484 09e3 03       		.byte	0x3
 2485 09e4 C4090000 		.4byte	0x9c4
 2486 09e8 0E       		.uleb128 0xe
 2487 09e9 AD030000 		.4byte	.LASF141
 2488 09ed 1102     		.2byte	0x211
 2489 09ef 0D       		.byte	0xd
 2490 09f0 00000000 		.4byte	.LFB148
 2491 09f4 14000000 		.4byte	.LFE148-.LFB148
 2492 09f8 01       		.uleb128 0x1
 2493 09f9 9C       		.byte	0x9c
 2494 09fa 0E0A0000 		.4byte	0xa0e
 2495 09fe 05       		.uleb128 0x5
 2496 09ff E9010000 		.4byte	.LASF143
 2497 0a03 1102     		.2byte	0x211
 2498 0a05 2D       		.byte	0x2d
 2499 0a06 84000000 		.4byte	0x84
 2500 0a0a 02       		.uleb128 0x2
 2501 0a0b 91       		.byte	0x91
 2502 0a0c 76       		.sleb128 -10
 2503 0a0d 00       		.byte	0
 2504 0a0e 1D       		.uleb128 0x1d
 2505 0a0f 4F000000 		.4byte	.LASF142
 2506 0a13 01       		.byte	0x1
 2507 0a14 FA01     		.2byte	0x1fa
 2508 0a16 06       		.byte	0x6
ARM GAS  C:\Users\DEVELO~1\AppData\Local\Temp\cc4WljaS.s 			page 45


 2509 0a17 00000000 		.4byte	.LFB147
 2510 0a1b 34000000 		.4byte	.LFE147-.LFB147
 2511 0a1f 01       		.uleb128 0x1
 2512 0a20 9C       		.byte	0x9c
 2513 0a21 350A0000 		.4byte	0xa35
 2514 0a25 05       		.uleb128 0x5
 2515 0a26 E9010000 		.4byte	.LASF143
 2516 0a2a FA01     		.2byte	0x1fa
 2517 0a2c 28       		.byte	0x28
 2518 0a2d 84000000 		.4byte	0x84
 2519 0a31 02       		.uleb128 0x2
 2520 0a32 91       		.byte	0x91
 2521 0a33 76       		.sleb128 -10
 2522 0a34 00       		.byte	0
 2523 0a35 17       		.uleb128 0x17
 2524 0a36 CE000000 		.4byte	.LASF148
 2525 0a3a D701     		.2byte	0x1d7
 2526 0a3c 13       		.byte	0x13
 2527 0a3d 64090000 		.4byte	0x964
 2528 0a41 00000000 		.4byte	.LFB146
 2529 0a45 4E000000 		.4byte	.LFE146-.LFB146
 2530 0a49 01       		.uleb128 0x1
 2531 0a4a 9C       		.byte	0x9c
 2532 0a4b 7D0A0000 		.4byte	0xa7d
 2533 0a4f 05       		.uleb128 0x5
 2534 0a50 2C050000 		.4byte	.LASF144
 2535 0a54 D701     		.2byte	0x1d7
 2536 0a56 32       		.byte	0x32
 2537 0a57 7D0A0000 		.4byte	0xa7d
 2538 0a5b 02       		.uleb128 0x2
 2539 0a5c 91       		.byte	0x91
 2540 0a5d 6C       		.sleb128 -20
 2541 0a5e 05       		.uleb128 0x5
 2542 0a5f E9010000 		.4byte	.LASF143
 2543 0a63 D701     		.2byte	0x1d7
 2544 0a65 42       		.byte	0x42
 2545 0a66 84000000 		.4byte	0x84
 2546 0a6a 02       		.uleb128 0x2
 2547 0a6b 91       		.byte	0x91
 2548 0a6c 6A       		.sleb128 -22
 2549 0a6d 13       		.uleb128 0x13
 2550 0a6e 746D7000 		.ascii	"tmp\000"
 2551 0a72 D901     		.2byte	0x1d9
 2552 0a74 11       		.byte	0x11
 2553 0a75 9C000000 		.4byte	0x9c
 2554 0a79 02       		.uleb128 0x2
 2555 0a7a 91       		.byte	0x91
 2556 0a7b 74       		.sleb128 -12
 2557 0a7c 00       		.byte	0
 2558 0a7d 0F       		.uleb128 0xf
 2559 0a7e E2030000 		.4byte	0x3e2
 2560 0a82 0E       		.uleb128 0xe
 2561 0a83 66060000 		.4byte	.LASF145
 2562 0a87 BE01     		.2byte	0x1be
 2563 0a89 06       		.byte	0x6
 2564 0a8a 00000000 		.4byte	.LFB145
 2565 0a8e 32000000 		.4byte	.LFE145-.LFB145
ARM GAS  C:\Users\DEVELO~1\AppData\Local\Temp\cc4WljaS.s 			page 46


 2566 0a92 01       		.uleb128 0x1
 2567 0a93 9C       		.byte	0x9c
 2568 0a94 C60A0000 		.4byte	0xac6
 2569 0a98 05       		.uleb128 0x5
 2570 0a99 2C050000 		.4byte	.LASF144
 2571 0a9d BE01     		.2byte	0x1be
 2572 0a9f 27       		.byte	0x27
 2573 0aa0 7D0A0000 		.4byte	0xa7d
 2574 0aa4 02       		.uleb128 0x2
 2575 0aa5 91       		.byte	0x91
 2576 0aa6 6C       		.sleb128 -20
 2577 0aa7 05       		.uleb128 0x5
 2578 0aa8 E9010000 		.4byte	.LASF143
 2579 0aac BE01     		.2byte	0x1be
 2580 0aae 37       		.byte	0x37
 2581 0aaf 84000000 		.4byte	0x84
 2582 0ab3 02       		.uleb128 0x2
 2583 0ab4 91       		.byte	0x91
 2584 0ab5 6A       		.sleb128 -22
 2585 0ab6 13       		.uleb128 0x13
 2586 0ab7 6F647200 		.ascii	"odr\000"
 2587 0abb C001     		.2byte	0x1c0
 2588 0abd 0C       		.byte	0xc
 2589 0abe 90000000 		.4byte	0x90
 2590 0ac2 02       		.uleb128 0x2
 2591 0ac3 91       		.byte	0x91
 2592 0ac4 74       		.sleb128 -12
 2593 0ac5 00       		.byte	0
 2594 0ac6 0E       		.uleb128 0xe
 2595 0ac7 08040000 		.4byte	.LASF146
 2596 0acb A801     		.2byte	0x1a8
 2597 0acd 06       		.byte	0x6
 2598 0ace 00000000 		.4byte	.LFB144
 2599 0ad2 30000000 		.4byte	.LFE144-.LFB144
 2600 0ad6 01       		.uleb128 0x1
 2601 0ad7 9C       		.byte	0x9c
 2602 0ad8 0A0B0000 		.4byte	0xb0a
 2603 0adc 05       		.uleb128 0x5
 2604 0add 2C050000 		.4byte	.LASF144
 2605 0ae1 A801     		.2byte	0x1a8
 2606 0ae3 26       		.byte	0x26
 2607 0ae4 7D0A0000 		.4byte	0xa7d
 2608 0ae8 02       		.uleb128 0x2
 2609 0ae9 91       		.byte	0x91
 2610 0aea 74       		.sleb128 -12
 2611 0aeb 05       		.uleb128 0x5
 2612 0aec E9010000 		.4byte	.LASF143
 2613 0af0 A801     		.2byte	0x1a8
 2614 0af2 36       		.byte	0x36
 2615 0af3 84000000 		.4byte	0x84
 2616 0af7 02       		.uleb128 0x2
 2617 0af8 91       		.byte	0x91
 2618 0af9 72       		.sleb128 -14
 2619 0afa 05       		.uleb128 0x5
 2620 0afb 9D050000 		.4byte	.LASF147
 2621 0aff A801     		.2byte	0x1a8
 2622 0b01 4E       		.byte	0x4e
ARM GAS  C:\Users\DEVELO~1\AppData\Local\Temp\cc4WljaS.s 			page 47


 2623 0b02 DC090000 		.4byte	0x9dc
 2624 0b06 02       		.uleb128 0x2
 2625 0b07 91       		.byte	0x91
 2626 0b08 71       		.sleb128 -15
 2627 0b09 00       		.byte	0
 2628 0b0a 17       		.uleb128 0x17
 2629 0b0b 8B060000 		.4byte	.LASF149
 2630 0b0f 8601     		.2byte	0x186
 2631 0b11 0F       		.byte	0xf
 2632 0b12 DC090000 		.4byte	0x9dc
 2633 0b16 00000000 		.4byte	.LFB143
 2634 0b1a 2E000000 		.4byte	.LFE143-.LFB143
 2635 0b1e 01       		.uleb128 0x1
 2636 0b1f 9C       		.byte	0x9c
 2637 0b20 520B0000 		.4byte	0xb52
 2638 0b24 05       		.uleb128 0x5
 2639 0b25 2C050000 		.4byte	.LASF144
 2640 0b29 8601     		.2byte	0x186
 2641 0b2b 34       		.byte	0x34
 2642 0b2c 520B0000 		.4byte	0xb52
 2643 0b30 02       		.uleb128 0x2
 2644 0b31 91       		.byte	0x91
 2645 0b32 6C       		.sleb128 -20
 2646 0b33 05       		.uleb128 0x5
 2647 0b34 E9010000 		.4byte	.LASF143
 2648 0b38 8601     		.2byte	0x186
 2649 0b3a 44       		.byte	0x44
 2650 0b3b 84000000 		.4byte	0x84
 2651 0b3f 02       		.uleb128 0x2
 2652 0b40 91       		.byte	0x91
 2653 0b41 6A       		.sleb128 -22
 2654 0b42 10       		.uleb128 0x10
 2655 0b43 DF010000 		.4byte	.LASF150
 2656 0b47 8801     		.2byte	0x188
 2657 0b49 11       		.byte	0x11
 2658 0b4a DC090000 		.4byte	0x9dc
 2659 0b4e 02       		.uleb128 0x2
 2660 0b4f 91       		.byte	0x91
 2661 0b50 77       		.sleb128 -9
 2662 0b51 00       		.byte	0
 2663 0b52 0F       		.uleb128 0xf
 2664 0b53 EE030000 		.4byte	0x3ee
 2665 0b57 0E       		.uleb128 0xe
 2666 0b58 C5060000 		.4byte	.LASF151
 2667 0b5c 2F01     		.2byte	0x12f
 2668 0b5e 06       		.byte	0x6
 2669 0b5f 00000000 		.4byte	.LFB142
 2670 0b63 14020000 		.4byte	.LFE142-.LFB142
 2671 0b67 01       		.uleb128 0x1
 2672 0b68 9C       		.byte	0x9c
 2673 0b69 C80B0000 		.4byte	0xbc8
 2674 0b6d 05       		.uleb128 0x5
 2675 0b6e 2C050000 		.4byte	.LASF144
 2676 0b72 2F01     		.2byte	0x12f
 2677 0b74 25       		.byte	0x25
 2678 0b75 7D0A0000 		.4byte	0xa7d
 2679 0b79 02       		.uleb128 0x2
ARM GAS  C:\Users\DEVELO~1\AppData\Local\Temp\cc4WljaS.s 			page 48


 2680 0b7a 91       		.byte	0x91
 2681 0b7b 64       		.sleb128 -28
 2682 0b7c 05       		.uleb128 0x5
 2683 0b7d E9010000 		.4byte	.LASF143
 2684 0b81 2F01     		.2byte	0x12f
 2685 0b83 35       		.byte	0x35
 2686 0b84 90000000 		.4byte	0x90
 2687 0b88 02       		.uleb128 0x2
 2688 0b89 91       		.byte	0x91
 2689 0b8a 60       		.sleb128 -32
 2690 0b8b 10       		.uleb128 0x10
 2691 0b8c 22020000 		.4byte	.LASF152
 2692 0b90 3101     		.2byte	0x131
 2693 0b92 0C       		.byte	0xc
 2694 0b93 90000000 		.4byte	0x90
 2695 0b97 02       		.uleb128 0x2
 2696 0b98 91       		.byte	0x91
 2697 0b99 74       		.sleb128 -12
 2698 0b9a 10       		.uleb128 0x10
 2699 0b9b B4060000 		.4byte	.LASF153
 2700 0b9f 3201     		.2byte	0x132
 2701 0ba1 0C       		.byte	0xc
 2702 0ba2 90000000 		.4byte	0x90
 2703 0ba6 02       		.uleb128 0x2
 2704 0ba7 91       		.byte	0x91
 2705 0ba8 6C       		.sleb128 -20
 2706 0ba9 13       		.uleb128 0x13
 2707 0baa 746D7000 		.ascii	"tmp\000"
 2708 0bae 3301     		.2byte	0x133
 2709 0bb0 0C       		.byte	0xc
 2710 0bb1 90000000 		.4byte	0x90
 2711 0bb5 02       		.uleb128 0x2
 2712 0bb6 91       		.byte	0x91
 2713 0bb7 68       		.sleb128 -24
 2714 0bb8 10       		.uleb128 0x10
 2715 0bb9 71010000 		.4byte	.LASF154
 2716 0bbd 3401     		.2byte	0x134
 2717 0bbf 16       		.byte	0x16
 2718 0bc0 C80B0000 		.4byte	0xbc8
 2719 0bc4 02       		.uleb128 0x2
 2720 0bc5 91       		.byte	0x91
 2721 0bc6 70       		.sleb128 -16
 2722 0bc7 00       		.byte	0
 2723 0bc8 0F       		.uleb128 0xf
 2724 0bc9 58030000 		.4byte	0x358
 2725 0bcd 1E       		.uleb128 0x1e
 2726 0bce F0030000 		.4byte	.LASF155
 2727 0bd2 01       		.byte	0x1
 2728 0bd3 A5       		.byte	0xa5
 2729 0bd4 06       		.byte	0x6
 2730 0bd5 00000000 		.4byte	.LFB141
 2731 0bd9 74030000 		.4byte	.LFE141-.LFB141
 2732 0bdd 01       		.uleb128 0x1
 2733 0bde 9C       		.byte	0x9c
 2734 0bdf 500C0000 		.4byte	0xc50
 2735 0be3 18       		.uleb128 0x18
 2736 0be4 2C050000 		.4byte	.LASF144
ARM GAS  C:\Users\DEVELO~1\AppData\Local\Temp\cc4WljaS.s 			page 49


 2737 0be8 A5       		.byte	0xa5
 2738 0be9 23       		.byte	0x23
 2739 0bea 7D0A0000 		.4byte	0xa7d
 2740 0bee 02       		.uleb128 0x2
 2741 0bef 91       		.byte	0x91
 2742 0bf0 5C       		.sleb128 -36
 2743 0bf1 18       		.uleb128 0x18
 2744 0bf2 A1000000 		.4byte	.LASF156
 2745 0bf6 A5       		.byte	0xa5
 2746 0bf7 42       		.byte	0x42
 2747 0bf8 500C0000 		.4byte	0xc50
 2748 0bfc 02       		.uleb128 0x2
 2749 0bfd 91       		.byte	0x91
 2750 0bfe 58       		.sleb128 -40
 2751 0bff 0C       		.uleb128 0xc
 2752 0c00 22020000 		.4byte	.LASF152
 2753 0c04 A7       		.byte	0xa7
 2754 0c05 0C       		.byte	0xc
 2755 0c06 90000000 		.4byte	0x90
 2756 0c0a 02       		.uleb128 0x2
 2757 0c0b 91       		.byte	0x91
 2758 0c0c 74       		.sleb128 -12
 2759 0c0d 0C       		.uleb128 0xc
 2760 0c0e B4060000 		.4byte	.LASF153
 2761 0c12 A8       		.byte	0xa8
 2762 0c13 0C       		.byte	0xc
 2763 0c14 90000000 		.4byte	0x90
 2764 0c18 02       		.uleb128 0x2
 2765 0c19 91       		.byte	0x91
 2766 0c1a 68       		.sleb128 -24
 2767 0c1b 0C       		.uleb128 0xc
 2768 0c1c F2010000 		.4byte	.LASF157
 2769 0c20 A9       		.byte	0xa9
 2770 0c21 0C       		.byte	0xc
 2771 0c22 90000000 		.4byte	0x90
 2772 0c26 02       		.uleb128 0x2
 2773 0c27 91       		.byte	0x91
 2774 0c28 70       		.sleb128 -16
 2775 0c29 0C       		.uleb128 0xc
 2776 0c2a 71010000 		.4byte	.LASF154
 2777 0c2e AA       		.byte	0xaa
 2778 0c2f 16       		.byte	0x16
 2779 0c30 C80B0000 		.4byte	0xbc8
 2780 0c34 02       		.uleb128 0x2
 2781 0c35 91       		.byte	0x91
 2782 0c36 6C       		.sleb128 -20
 2783 0c37 1F       		.uleb128 0x1f
 2784 0c38 8C010000 		.4byte	.LBB2
 2785 0c3c 1E000000 		.4byte	.LBE2-.LBB2
 2786 0c40 0C       		.uleb128 0xc
 2787 0c41 39010000 		.4byte	.LASF158
 2788 0c45 F9       		.byte	0xf9
 2789 0c46 09       		.byte	0x9
 2790 0c47 9C000000 		.4byte	0x9c
 2791 0c4b 02       		.uleb128 0x2
 2792 0c4c 91       		.byte	0x91
 2793 0c4d 64       		.sleb128 -28
ARM GAS  C:\Users\DEVELO~1\AppData\Local\Temp\cc4WljaS.s 			page 50


 2794 0c4e 00       		.byte	0
 2795 0c4f 00       		.byte	0
 2796 0c50 0F       		.uleb128 0xf
 2797 0c51 BF090000 		.4byte	0x9bf
 2798 0c55 00       		.byte	0
 2799              		.section	.debug_abbrev,"",%progbits
 2800              	.Ldebug_abbrev0:
 2801 0000 01       		.uleb128 0x1
 2802 0001 0D       		.uleb128 0xd
 2803 0002 00       		.byte	0
 2804 0003 03       		.uleb128 0x3
 2805 0004 0E       		.uleb128 0xe
 2806 0005 3A       		.uleb128 0x3a
 2807 0006 21       		.uleb128 0x21
 2808 0007 04       		.sleb128 4
 2809 0008 3B       		.uleb128 0x3b
 2810 0009 05       		.uleb128 0x5
 2811 000a 39       		.uleb128 0x39
 2812 000b 0B       		.uleb128 0xb
 2813 000c 49       		.uleb128 0x49
 2814 000d 13       		.uleb128 0x13
 2815 000e 38       		.uleb128 0x38
 2816 000f 0B       		.uleb128 0xb
 2817 0010 00       		.byte	0
 2818 0011 00       		.byte	0
 2819 0012 02       		.uleb128 0x2
 2820 0013 0D       		.uleb128 0xd
 2821 0014 00       		.byte	0
 2822 0015 03       		.uleb128 0x3
 2823 0016 0E       		.uleb128 0xe
 2824 0017 3A       		.uleb128 0x3a
 2825 0018 21       		.uleb128 0x21
 2826 0019 04       		.sleb128 4
 2827 001a 3B       		.uleb128 0x3b
 2828 001b 05       		.uleb128 0x5
 2829 001c 39       		.uleb128 0x39
 2830 001d 0B       		.uleb128 0xb
 2831 001e 49       		.uleb128 0x49
 2832 001f 13       		.uleb128 0x13
 2833 0020 38       		.uleb128 0x38
 2834 0021 05       		.uleb128 0x5
 2835 0022 00       		.byte	0
 2836 0023 00       		.byte	0
 2837 0024 03       		.uleb128 0x3
 2838 0025 24       		.uleb128 0x24
 2839 0026 00       		.byte	0
 2840 0027 0B       		.uleb128 0xb
 2841 0028 0B       		.uleb128 0xb
 2842 0029 3E       		.uleb128 0x3e
 2843 002a 0B       		.uleb128 0xb
 2844 002b 03       		.uleb128 0x3
 2845 002c 0E       		.uleb128 0xe
 2846 002d 00       		.byte	0
 2847 002e 00       		.byte	0
 2848 002f 04       		.uleb128 0x4
 2849 0030 0D       		.uleb128 0xd
 2850 0031 00       		.byte	0
ARM GAS  C:\Users\DEVELO~1\AppData\Local\Temp\cc4WljaS.s 			page 51


 2851 0032 03       		.uleb128 0x3
 2852 0033 08       		.uleb128 0x8
 2853 0034 3A       		.uleb128 0x3a
 2854 0035 21       		.uleb128 0x21
 2855 0036 04       		.sleb128 4
 2856 0037 3B       		.uleb128 0x3b
 2857 0038 05       		.uleb128 0x5
 2858 0039 39       		.uleb128 0x39
 2859 003a 0B       		.uleb128 0xb
 2860 003b 49       		.uleb128 0x49
 2861 003c 13       		.uleb128 0x13
 2862 003d 38       		.uleb128 0x38
 2863 003e 0B       		.uleb128 0xb
 2864 003f 00       		.byte	0
 2865 0040 00       		.byte	0
 2866 0041 05       		.uleb128 0x5
 2867 0042 05       		.uleb128 0x5
 2868 0043 00       		.byte	0
 2869 0044 03       		.uleb128 0x3
 2870 0045 0E       		.uleb128 0xe
 2871 0046 3A       		.uleb128 0x3a
 2872 0047 21       		.uleb128 0x21
 2873 0048 01       		.sleb128 1
 2874 0049 3B       		.uleb128 0x3b
 2875 004a 05       		.uleb128 0x5
 2876 004b 39       		.uleb128 0x39
 2877 004c 0B       		.uleb128 0xb
 2878 004d 49       		.uleb128 0x49
 2879 004e 13       		.uleb128 0x13
 2880 004f 02       		.uleb128 0x2
 2881 0050 18       		.uleb128 0x18
 2882 0051 00       		.byte	0
 2883 0052 00       		.byte	0
 2884 0053 06       		.uleb128 0x6
 2885 0054 0D       		.uleb128 0xd
 2886 0055 00       		.byte	0
 2887 0056 03       		.uleb128 0x3
 2888 0057 08       		.uleb128 0x8
 2889 0058 3A       		.uleb128 0x3a
 2890 0059 21       		.uleb128 0x21
 2891 005a 04       		.sleb128 4
 2892 005b 3B       		.uleb128 0x3b
 2893 005c 05       		.uleb128 0x5
 2894 005d 39       		.uleb128 0x39
 2895 005e 21       		.uleb128 0x21
 2896 005f 10       		.sleb128 16
 2897 0060 49       		.uleb128 0x49
 2898 0061 13       		.uleb128 0x13
 2899 0062 38       		.uleb128 0x38
 2900 0063 05       		.uleb128 0x5
 2901 0064 00       		.byte	0
 2902 0065 00       		.byte	0
 2903 0066 07       		.uleb128 0x7
 2904 0067 01       		.uleb128 0x1
 2905 0068 01       		.byte	0x1
 2906 0069 49       		.uleb128 0x49
 2907 006a 13       		.uleb128 0x13
ARM GAS  C:\Users\DEVELO~1\AppData\Local\Temp\cc4WljaS.s 			page 52


 2908 006b 01       		.uleb128 0x1
 2909 006c 13       		.uleb128 0x13
 2910 006d 00       		.byte	0
 2911 006e 00       		.byte	0
 2912 006f 08       		.uleb128 0x8
 2913 0070 21       		.uleb128 0x21
 2914 0071 00       		.byte	0
 2915 0072 49       		.uleb128 0x49
 2916 0073 13       		.uleb128 0x13
 2917 0074 2F       		.uleb128 0x2f
 2918 0075 0B       		.uleb128 0xb
 2919 0076 00       		.byte	0
 2920 0077 00       		.byte	0
 2921 0078 09       		.uleb128 0x9
 2922 0079 16       		.uleb128 0x16
 2923 007a 00       		.byte	0
 2924 007b 03       		.uleb128 0x3
 2925 007c 0E       		.uleb128 0xe
 2926 007d 3A       		.uleb128 0x3a
 2927 007e 0B       		.uleb128 0xb
 2928 007f 3B       		.uleb128 0x3b
 2929 0080 0B       		.uleb128 0xb
 2930 0081 39       		.uleb128 0x39
 2931 0082 0B       		.uleb128 0xb
 2932 0083 49       		.uleb128 0x49
 2933 0084 13       		.uleb128 0x13
 2934 0085 00       		.byte	0
 2935 0086 00       		.byte	0
 2936 0087 0A       		.uleb128 0xa
 2937 0088 28       		.uleb128 0x28
 2938 0089 00       		.byte	0
 2939 008a 03       		.uleb128 0x3
 2940 008b 0E       		.uleb128 0xe
 2941 008c 1C       		.uleb128 0x1c
 2942 008d 0B       		.uleb128 0xb
 2943 008e 00       		.byte	0
 2944 008f 00       		.byte	0
 2945 0090 0B       		.uleb128 0xb
 2946 0091 16       		.uleb128 0x16
 2947 0092 00       		.byte	0
 2948 0093 03       		.uleb128 0x3
 2949 0094 0E       		.uleb128 0xe
 2950 0095 3A       		.uleb128 0x3a
 2951 0096 21       		.uleb128 0x21
 2952 0097 04       		.sleb128 4
 2953 0098 3B       		.uleb128 0x3b
 2954 0099 05       		.uleb128 0x5
 2955 009a 39       		.uleb128 0x39
 2956 009b 0B       		.uleb128 0xb
 2957 009c 49       		.uleb128 0x49
 2958 009d 13       		.uleb128 0x13
 2959 009e 00       		.byte	0
 2960 009f 00       		.byte	0
 2961 00a0 0C       		.uleb128 0xc
 2962 00a1 34       		.uleb128 0x34
 2963 00a2 00       		.byte	0
 2964 00a3 03       		.uleb128 0x3
ARM GAS  C:\Users\DEVELO~1\AppData\Local\Temp\cc4WljaS.s 			page 53


 2965 00a4 0E       		.uleb128 0xe
 2966 00a5 3A       		.uleb128 0x3a
 2967 00a6 21       		.uleb128 0x21
 2968 00a7 01       		.sleb128 1
 2969 00a8 3B       		.uleb128 0x3b
 2970 00a9 0B       		.uleb128 0xb
 2971 00aa 39       		.uleb128 0x39
 2972 00ab 0B       		.uleb128 0xb
 2973 00ac 49       		.uleb128 0x49
 2974 00ad 13       		.uleb128 0x13
 2975 00ae 02       		.uleb128 0x2
 2976 00af 18       		.uleb128 0x18
 2977 00b0 00       		.byte	0
 2978 00b1 00       		.byte	0
 2979 00b2 0D       		.uleb128 0xd
 2980 00b3 0D       		.uleb128 0xd
 2981 00b4 00       		.byte	0
 2982 00b5 03       		.uleb128 0x3
 2983 00b6 0E       		.uleb128 0xe
 2984 00b7 3A       		.uleb128 0x3a
 2985 00b8 21       		.uleb128 0x21
 2986 00b9 06       		.sleb128 6
 2987 00ba 3B       		.uleb128 0x3b
 2988 00bb 0B       		.uleb128 0xb
 2989 00bc 39       		.uleb128 0x39
 2990 00bd 21       		.uleb128 0x21
 2991 00be 0C       		.sleb128 12
 2992 00bf 49       		.uleb128 0x49
 2993 00c0 13       		.uleb128 0x13
 2994 00c1 38       		.uleb128 0x38
 2995 00c2 0B       		.uleb128 0xb
 2996 00c3 00       		.byte	0
 2997 00c4 00       		.byte	0
 2998 00c5 0E       		.uleb128 0xe
 2999 00c6 2E       		.uleb128 0x2e
 3000 00c7 01       		.byte	0x1
 3001 00c8 3F       		.uleb128 0x3f
 3002 00c9 19       		.uleb128 0x19
 3003 00ca 03       		.uleb128 0x3
 3004 00cb 0E       		.uleb128 0xe
 3005 00cc 3A       		.uleb128 0x3a
 3006 00cd 21       		.uleb128 0x21
 3007 00ce 01       		.sleb128 1
 3008 00cf 3B       		.uleb128 0x3b
 3009 00d0 05       		.uleb128 0x5
 3010 00d1 39       		.uleb128 0x39
 3011 00d2 0B       		.uleb128 0xb
 3012 00d3 27       		.uleb128 0x27
 3013 00d4 19       		.uleb128 0x19
 3014 00d5 11       		.uleb128 0x11
 3015 00d6 01       		.uleb128 0x1
 3016 00d7 12       		.uleb128 0x12
 3017 00d8 06       		.uleb128 0x6
 3018 00d9 40       		.uleb128 0x40
 3019 00da 18       		.uleb128 0x18
 3020 00db 7A       		.uleb128 0x7a
 3021 00dc 19       		.uleb128 0x19
ARM GAS  C:\Users\DEVELO~1\AppData\Local\Temp\cc4WljaS.s 			page 54


 3022 00dd 01       		.uleb128 0x1
 3023 00de 13       		.uleb128 0x13
 3024 00df 00       		.byte	0
 3025 00e0 00       		.byte	0
 3026 00e1 0F       		.uleb128 0xf
 3027 00e2 0F       		.uleb128 0xf
 3028 00e3 00       		.byte	0
 3029 00e4 0B       		.uleb128 0xb
 3030 00e5 21       		.uleb128 0x21
 3031 00e6 04       		.sleb128 4
 3032 00e7 49       		.uleb128 0x49
 3033 00e8 13       		.uleb128 0x13
 3034 00e9 00       		.byte	0
 3035 00ea 00       		.byte	0
 3036 00eb 10       		.uleb128 0x10
 3037 00ec 34       		.uleb128 0x34
 3038 00ed 00       		.byte	0
 3039 00ee 03       		.uleb128 0x3
 3040 00ef 0E       		.uleb128 0xe
 3041 00f0 3A       		.uleb128 0x3a
 3042 00f1 21       		.uleb128 0x21
 3043 00f2 01       		.sleb128 1
 3044 00f3 3B       		.uleb128 0x3b
 3045 00f4 05       		.uleb128 0x5
 3046 00f5 39       		.uleb128 0x39
 3047 00f6 0B       		.uleb128 0xb
 3048 00f7 49       		.uleb128 0x49
 3049 00f8 13       		.uleb128 0x13
 3050 00f9 02       		.uleb128 0x2
 3051 00fa 18       		.uleb128 0x18
 3052 00fb 00       		.byte	0
 3053 00fc 00       		.byte	0
 3054 00fd 11       		.uleb128 0x11
 3055 00fe 35       		.uleb128 0x35
 3056 00ff 00       		.byte	0
 3057 0100 49       		.uleb128 0x49
 3058 0101 13       		.uleb128 0x13
 3059 0102 00       		.byte	0
 3060 0103 00       		.byte	0
 3061 0104 12       		.uleb128 0x12
 3062 0105 13       		.uleb128 0x13
 3063 0106 01       		.byte	0x1
 3064 0107 0B       		.uleb128 0xb
 3065 0108 0B       		.uleb128 0xb
 3066 0109 3A       		.uleb128 0x3a
 3067 010a 21       		.uleb128 0x21
 3068 010b 04       		.sleb128 4
 3069 010c 3B       		.uleb128 0x3b
 3070 010d 05       		.uleb128 0x5
 3071 010e 39       		.uleb128 0x39
 3072 010f 21       		.uleb128 0x21
 3073 0110 09       		.sleb128 9
 3074 0111 01       		.uleb128 0x1
 3075 0112 13       		.uleb128 0x13
 3076 0113 00       		.byte	0
 3077 0114 00       		.byte	0
 3078 0115 13       		.uleb128 0x13
ARM GAS  C:\Users\DEVELO~1\AppData\Local\Temp\cc4WljaS.s 			page 55


 3079 0116 34       		.uleb128 0x34
 3080 0117 00       		.byte	0
 3081 0118 03       		.uleb128 0x3
 3082 0119 08       		.uleb128 0x8
 3083 011a 3A       		.uleb128 0x3a
 3084 011b 21       		.uleb128 0x21
 3085 011c 01       		.sleb128 1
 3086 011d 3B       		.uleb128 0x3b
 3087 011e 05       		.uleb128 0x5
 3088 011f 39       		.uleb128 0x39
 3089 0120 0B       		.uleb128 0xb
 3090 0121 49       		.uleb128 0x49
 3091 0122 13       		.uleb128 0x13
 3092 0123 02       		.uleb128 0x2
 3093 0124 18       		.uleb128 0x18
 3094 0125 00       		.byte	0
 3095 0126 00       		.byte	0
 3096 0127 14       		.uleb128 0x14
 3097 0128 26       		.uleb128 0x26
 3098 0129 00       		.byte	0
 3099 012a 49       		.uleb128 0x49
 3100 012b 13       		.uleb128 0x13
 3101 012c 00       		.byte	0
 3102 012d 00       		.byte	0
 3103 012e 15       		.uleb128 0x15
 3104 012f 13       		.uleb128 0x13
 3105 0130 01       		.byte	0x1
 3106 0131 0B       		.uleb128 0xb
 3107 0132 05       		.uleb128 0x5
 3108 0133 3A       		.uleb128 0x3a
 3109 0134 21       		.uleb128 0x21
 3110 0135 04       		.sleb128 4
 3111 0136 3B       		.uleb128 0x3b
 3112 0137 05       		.uleb128 0x5
 3113 0138 39       		.uleb128 0x39
 3114 0139 21       		.uleb128 0x21
 3115 013a 09       		.sleb128 9
 3116 013b 01       		.uleb128 0x1
 3117 013c 13       		.uleb128 0x13
 3118 013d 00       		.byte	0
 3119 013e 00       		.byte	0
 3120 013f 16       		.uleb128 0x16
 3121 0140 04       		.uleb128 0x4
 3122 0141 01       		.byte	0x1
 3123 0142 3E       		.uleb128 0x3e
 3124 0143 21       		.uleb128 0x21
 3125 0144 07       		.sleb128 7
 3126 0145 0B       		.uleb128 0xb
 3127 0146 21       		.uleb128 0x21
 3128 0147 01       		.sleb128 1
 3129 0148 49       		.uleb128 0x49
 3130 0149 13       		.uleb128 0x13
 3131 014a 3A       		.uleb128 0x3a
 3132 014b 0B       		.uleb128 0xb
 3133 014c 3B       		.uleb128 0x3b
 3134 014d 0B       		.uleb128 0xb
 3135 014e 39       		.uleb128 0x39
ARM GAS  C:\Users\DEVELO~1\AppData\Local\Temp\cc4WljaS.s 			page 56


 3136 014f 21       		.uleb128 0x21
 3137 0150 01       		.sleb128 1
 3138 0151 01       		.uleb128 0x1
 3139 0152 13       		.uleb128 0x13
 3140 0153 00       		.byte	0
 3141 0154 00       		.byte	0
 3142 0155 17       		.uleb128 0x17
 3143 0156 2E       		.uleb128 0x2e
 3144 0157 01       		.byte	0x1
 3145 0158 3F       		.uleb128 0x3f
 3146 0159 19       		.uleb128 0x19
 3147 015a 03       		.uleb128 0x3
 3148 015b 0E       		.uleb128 0xe
 3149 015c 3A       		.uleb128 0x3a
 3150 015d 21       		.uleb128 0x21
 3151 015e 01       		.sleb128 1
 3152 015f 3B       		.uleb128 0x3b
 3153 0160 05       		.uleb128 0x5
 3154 0161 39       		.uleb128 0x39
 3155 0162 0B       		.uleb128 0xb
 3156 0163 27       		.uleb128 0x27
 3157 0164 19       		.uleb128 0x19
 3158 0165 49       		.uleb128 0x49
 3159 0166 13       		.uleb128 0x13
 3160 0167 11       		.uleb128 0x11
 3161 0168 01       		.uleb128 0x1
 3162 0169 12       		.uleb128 0x12
 3163 016a 06       		.uleb128 0x6
 3164 016b 40       		.uleb128 0x40
 3165 016c 18       		.uleb128 0x18
 3166 016d 7A       		.uleb128 0x7a
 3167 016e 19       		.uleb128 0x19
 3168 016f 01       		.uleb128 0x1
 3169 0170 13       		.uleb128 0x13
 3170 0171 00       		.byte	0
 3171 0172 00       		.byte	0
 3172 0173 18       		.uleb128 0x18
 3173 0174 05       		.uleb128 0x5
 3174 0175 00       		.byte	0
 3175 0176 03       		.uleb128 0x3
 3176 0177 0E       		.uleb128 0xe
 3177 0178 3A       		.uleb128 0x3a
 3178 0179 21       		.uleb128 0x21
 3179 017a 01       		.sleb128 1
 3180 017b 3B       		.uleb128 0x3b
 3181 017c 0B       		.uleb128 0xb
 3182 017d 39       		.uleb128 0x39
 3183 017e 0B       		.uleb128 0xb
 3184 017f 49       		.uleb128 0x49
 3185 0180 13       		.uleb128 0x13
 3186 0181 02       		.uleb128 0x2
 3187 0182 18       		.uleb128 0x18
 3188 0183 00       		.byte	0
 3189 0184 00       		.byte	0
 3190 0185 19       		.uleb128 0x19
 3191 0186 11       		.uleb128 0x11
 3192 0187 01       		.byte	0x1
ARM GAS  C:\Users\DEVELO~1\AppData\Local\Temp\cc4WljaS.s 			page 57


 3193 0188 25       		.uleb128 0x25
 3194 0189 0E       		.uleb128 0xe
 3195 018a 13       		.uleb128 0x13
 3196 018b 0B       		.uleb128 0xb
 3197 018c 03       		.uleb128 0x3
 3198 018d 0E       		.uleb128 0xe
 3199 018e 1B       		.uleb128 0x1b
 3200 018f 0E       		.uleb128 0xe
 3201 0190 55       		.uleb128 0x55
 3202 0191 17       		.uleb128 0x17
 3203 0192 11       		.uleb128 0x11
 3204 0193 01       		.uleb128 0x1
 3205 0194 10       		.uleb128 0x10
 3206 0195 17       		.uleb128 0x17
 3207 0196 00       		.byte	0
 3208 0197 00       		.byte	0
 3209 0198 1A       		.uleb128 0x1a
 3210 0199 24       		.uleb128 0x24
 3211 019a 00       		.byte	0
 3212 019b 0B       		.uleb128 0xb
 3213 019c 0B       		.uleb128 0xb
 3214 019d 3E       		.uleb128 0x3e
 3215 019e 0B       		.uleb128 0xb
 3216 019f 03       		.uleb128 0x3
 3217 01a0 08       		.uleb128 0x8
 3218 01a1 00       		.byte	0
 3219 01a2 00       		.byte	0
 3220 01a3 1B       		.uleb128 0x1b
 3221 01a4 13       		.uleb128 0x13
 3222 01a5 01       		.byte	0x1
 3223 01a6 0B       		.uleb128 0xb
 3224 01a7 0B       		.uleb128 0xb
 3225 01a8 3A       		.uleb128 0x3a
 3226 01a9 0B       		.uleb128 0xb
 3227 01aa 3B       		.uleb128 0x3b
 3228 01ab 0B       		.uleb128 0xb
 3229 01ac 39       		.uleb128 0x39
 3230 01ad 0B       		.uleb128 0xb
 3231 01ae 01       		.uleb128 0x1
 3232 01af 13       		.uleb128 0x13
 3233 01b0 00       		.byte	0
 3234 01b1 00       		.byte	0
 3235 01b2 1C       		.uleb128 0x1c
 3236 01b3 0D       		.uleb128 0xd
 3237 01b4 00       		.byte	0
 3238 01b5 03       		.uleb128 0x3
 3239 01b6 08       		.uleb128 0x8
 3240 01b7 3A       		.uleb128 0x3a
 3241 01b8 0B       		.uleb128 0xb
 3242 01b9 3B       		.uleb128 0x3b
 3243 01ba 0B       		.uleb128 0xb
 3244 01bb 39       		.uleb128 0x39
 3245 01bc 0B       		.uleb128 0xb
 3246 01bd 49       		.uleb128 0x49
 3247 01be 13       		.uleb128 0x13
 3248 01bf 38       		.uleb128 0x38
 3249 01c0 0B       		.uleb128 0xb
ARM GAS  C:\Users\DEVELO~1\AppData\Local\Temp\cc4WljaS.s 			page 58


 3250 01c1 00       		.byte	0
 3251 01c2 00       		.byte	0
 3252 01c3 1D       		.uleb128 0x1d
 3253 01c4 2E       		.uleb128 0x2e
 3254 01c5 01       		.byte	0x1
 3255 01c6 3F       		.uleb128 0x3f
 3256 01c7 19       		.uleb128 0x19
 3257 01c8 03       		.uleb128 0x3
 3258 01c9 0E       		.uleb128 0xe
 3259 01ca 3A       		.uleb128 0x3a
 3260 01cb 0B       		.uleb128 0xb
 3261 01cc 3B       		.uleb128 0x3b
 3262 01cd 05       		.uleb128 0x5
 3263 01ce 39       		.uleb128 0x39
 3264 01cf 0B       		.uleb128 0xb
 3265 01d0 27       		.uleb128 0x27
 3266 01d1 19       		.uleb128 0x19
 3267 01d2 11       		.uleb128 0x11
 3268 01d3 01       		.uleb128 0x1
 3269 01d4 12       		.uleb128 0x12
 3270 01d5 06       		.uleb128 0x6
 3271 01d6 40       		.uleb128 0x40
 3272 01d7 18       		.uleb128 0x18
 3273 01d8 7C       		.uleb128 0x7c
 3274 01d9 19       		.uleb128 0x19
 3275 01da 01       		.uleb128 0x1
 3276 01db 13       		.uleb128 0x13
 3277 01dc 00       		.byte	0
 3278 01dd 00       		.byte	0
 3279 01de 1E       		.uleb128 0x1e
 3280 01df 2E       		.uleb128 0x2e
 3281 01e0 01       		.byte	0x1
 3282 01e1 3F       		.uleb128 0x3f
 3283 01e2 19       		.uleb128 0x19
 3284 01e3 03       		.uleb128 0x3
 3285 01e4 0E       		.uleb128 0xe
 3286 01e5 3A       		.uleb128 0x3a
 3287 01e6 0B       		.uleb128 0xb
 3288 01e7 3B       		.uleb128 0x3b
 3289 01e8 0B       		.uleb128 0xb
 3290 01e9 39       		.uleb128 0x39
 3291 01ea 0B       		.uleb128 0xb
 3292 01eb 27       		.uleb128 0x27
 3293 01ec 19       		.uleb128 0x19
 3294 01ed 11       		.uleb128 0x11
 3295 01ee 01       		.uleb128 0x1
 3296 01ef 12       		.uleb128 0x12
 3297 01f0 06       		.uleb128 0x6
 3298 01f1 40       		.uleb128 0x40
 3299 01f2 18       		.uleb128 0x18
 3300 01f3 7A       		.uleb128 0x7a
 3301 01f4 19       		.uleb128 0x19
 3302 01f5 01       		.uleb128 0x1
 3303 01f6 13       		.uleb128 0x13
 3304 01f7 00       		.byte	0
 3305 01f8 00       		.byte	0
 3306 01f9 1F       		.uleb128 0x1f
ARM GAS  C:\Users\DEVELO~1\AppData\Local\Temp\cc4WljaS.s 			page 59


 3307 01fa 0B       		.uleb128 0xb
 3308 01fb 01       		.byte	0x1
 3309 01fc 11       		.uleb128 0x11
 3310 01fd 01       		.uleb128 0x1
 3311 01fe 12       		.uleb128 0x12
 3312 01ff 06       		.uleb128 0x6
 3313 0200 00       		.byte	0
 3314 0201 00       		.byte	0
 3315 0202 00       		.byte	0
 3316              		.section	.debug_aranges,"",%progbits
 3317 0000 54000000 		.4byte	0x54
 3318 0004 0200     		.2byte	0x2
 3319 0006 00000000 		.4byte	.Ldebug_info0
 3320 000a 04       		.byte	0x4
 3321 000b 00       		.byte	0
 3322 000c 0000     		.2byte	0
 3323 000e 0000     		.2byte	0
 3324 0010 00000000 		.4byte	.LFB141
 3325 0014 74030000 		.4byte	.LFE141-.LFB141
 3326 0018 00000000 		.4byte	.LFB142
 3327 001c 14020000 		.4byte	.LFE142-.LFB142
 3328 0020 00000000 		.4byte	.LFB143
 3329 0024 2E000000 		.4byte	.LFE143-.LFB143
 3330 0028 00000000 		.4byte	.LFB144
 3331 002c 30000000 		.4byte	.LFE144-.LFB144
 3332 0030 00000000 		.4byte	.LFB145
 3333 0034 32000000 		.4byte	.LFE145-.LFB145
 3334 0038 00000000 		.4byte	.LFB146
 3335 003c 4E000000 		.4byte	.LFE146-.LFB146
 3336 0040 00000000 		.4byte	.LFB147
 3337 0044 34000000 		.4byte	.LFE147-.LFB147
 3338 0048 00000000 		.4byte	.LFB148
 3339 004c 14000000 		.4byte	.LFE148-.LFB148
 3340 0050 00000000 		.4byte	0
 3341 0054 00000000 		.4byte	0
 3342              		.section	.debug_rnglists,"",%progbits
 3343              	.Ldebug_ranges0:
 3344 0000 3B000000 		.4byte	.Ldebug_ranges3-.Ldebug_ranges2
 3345              	.Ldebug_ranges2:
 3346 0004 0500     		.2byte	0x5
 3347 0006 04       		.byte	0x4
 3348 0007 00       		.byte	0
 3349 0008 00000000 		.4byte	0
 3350              	.LLRL0:
 3351 000c 07       		.byte	0x7
 3352 000d 00000000 		.4byte	.LFB141
 3353 0011 F406     		.uleb128 .LFE141-.LFB141
 3354 0013 07       		.byte	0x7
 3355 0014 00000000 		.4byte	.LFB142
 3356 0018 9404     		.uleb128 .LFE142-.LFB142
 3357 001a 07       		.byte	0x7
 3358 001b 00000000 		.4byte	.LFB143
 3359 001f 2E       		.uleb128 .LFE143-.LFB143
 3360 0020 07       		.byte	0x7
 3361 0021 00000000 		.4byte	.LFB144
 3362 0025 30       		.uleb128 .LFE144-.LFB144
 3363 0026 07       		.byte	0x7
ARM GAS  C:\Users\DEVELO~1\AppData\Local\Temp\cc4WljaS.s 			page 60


 3364 0027 00000000 		.4byte	.LFB145
 3365 002b 32       		.uleb128 .LFE145-.LFB145
 3366 002c 07       		.byte	0x7
 3367 002d 00000000 		.4byte	.LFB146
 3368 0031 4E       		.uleb128 .LFE146-.LFB146
 3369 0032 07       		.byte	0x7
 3370 0033 00000000 		.4byte	.LFB147
 3371 0037 34       		.uleb128 .LFE147-.LFB147
 3372 0038 07       		.byte	0x7
 3373 0039 00000000 		.4byte	.LFB148
 3374 003d 14       		.uleb128 .LFE148-.LFB148
 3375 003e 00       		.byte	0
 3376              	.Ldebug_ranges3:
 3377              		.section	.debug_line,"",%progbits
 3378              	.Ldebug_line0:
 3379 0000 37060000 		.section	.debug_str,"MS",%progbits,1
 3379      03009C01 
 3379      00000201 
 3379      FB0E0D00 
 3379      01010101 
 3380              	.LASF31:
 3381 0000 44335043 		.ascii	"D3PCR3L\000"
 3381      52334C00 
 3382              	.LASF47:
 3383 0008 50555044 		.ascii	"PUPDR\000"
 3383      5200
 3384              	.LASF76:
 3385 000e 504C4C31 		.ascii	"PLL1DIVR\000"
 3385      44495652 
 3385      00
 3386              	.LASF49:
 3387 0017 4C434B52 		.ascii	"LCKR\000"
 3387      00
 3388              	.LASF94:
 3389 001c 41484234 		.ascii	"AHB4RSTR\000"
 3389      52535452 
 3389      00
 3390              	.LASF45:
 3391 0025 4F545950 		.ascii	"OTYPER\000"
 3391      455200
 3392              	.LASF130:
 3393 002c 48414C5F 		.ascii	"HAL_BUSY\000"
 3393      42555359 
 3393      00
 3394              	.LASF14:
 3395 0035 46545352 		.ascii	"FTSR1\000"
 3395      3100
 3396              	.LASF119:
 3397 003b 41504231 		.ascii	"APB1HLPENR\000"
 3397      484C5045 
 3397      4E5200
 3398              	.LASF4:
 3399 0046 6C6F6E67 		.ascii	"long int\000"
 3399      20696E74 
 3399      00
 3400              	.LASF142:
 3401 004f 48414C5F 		.ascii	"HAL_GPIO_EXTI_IRQHandler\000"
ARM GAS  C:\Users\DEVELO~1\AppData\Local\Temp\cc4WljaS.s 			page 61


 3401      4750494F 
 3401      5F455854 
 3401      495F4952 
 3401      5148616E 
 3402              	.LASF44:
 3403 0068 4D4F4445 		.ascii	"MODER\000"
 3403      5200
 3404              	.LASF9:
 3405 006e 6C6F6E67 		.ascii	"long long unsigned int\000"
 3405      206C6F6E 
 3405      6720756E 
 3405      7369676E 
 3405      65642069 
 3406              	.LASF138:
 3407 0085 4750494F 		.ascii	"GPIO_PIN_RESET\000"
 3407      5F50494E 
 3407      5F524553 
 3407      455400
 3408              	.LASF101:
 3409 0094 4433414D 		.ascii	"D3AMR\000"
 3409      5200
 3410              	.LASF16:
 3411 009a 4433504D 		.ascii	"D3PMR1\000"
 3411      523100
 3412              	.LASF156:
 3413 00a1 4750494F 		.ascii	"GPIO_Init\000"
 3413      5F496E69 
 3413      7400
 3414              	.LASF140:
 3415 00ab 4750494F 		.ascii	"GPIO_PinState\000"
 3415      5F50696E 
 3415      53746174 
 3415      6500
 3416              	.LASF15:
 3417 00b9 53574945 		.ascii	"SWIER1\000"
 3417      523100
 3418              	.LASF22:
 3419 00c0 53574945 		.ascii	"SWIER2\000"
 3419      523200
 3420              	.LASF29:
 3421 00c7 53574945 		.ascii	"SWIER3\000"
 3421      523300
 3422              	.LASF148:
 3423 00ce 48414C5F 		.ascii	"HAL_GPIO_LockPin\000"
 3423      4750494F 
 3423      5F4C6F63 
 3423      6B50696E 
 3423      00
 3424              	.LASF86:
 3425 00df 43494552 		.ascii	"CIER\000"
 3425      00
 3426              	.LASF136:
 3427 00e4 416C7465 		.ascii	"Alternate\000"
 3427      726E6174 
 3427      6500
 3428              	.LASF54:
 3429 00ee 43434353 		.ascii	"CCCSR\000"
ARM GAS  C:\Users\DEVELO~1\AppData\Local\Temp\cc4WljaS.s 			page 62


 3429      5200
 3430              	.LASF1:
 3431 00f4 7369676E 		.ascii	"signed char\000"
 3431      65642063 
 3431      68617200 
 3432              	.LASF48:
 3433 0100 42535252 		.ascii	"BSRR\000"
 3433      00
 3434              	.LASF92:
 3435 0105 41484231 		.ascii	"AHB1RSTR\000"
 3435      52535452 
 3435      00
 3436              	.LASF117:
 3437 010e 41504233 		.ascii	"APB3LPENR\000"
 3437      4C50454E 
 3437      5200
 3438              	.LASF102:
 3439 0118 52455345 		.ascii	"RESERVED11\000"
 3439      52564544 
 3439      313100
 3440              	.LASF112:
 3441 0123 52455345 		.ascii	"RESERVED12\000"
 3441      52564544 
 3441      313200
 3442              	.LASF122:
 3443 012e 52455345 		.ascii	"RESERVED13\000"
 3443      52564544 
 3443      313300
 3444              	.LASF158:
 3445 0139 746D7072 		.ascii	"tmpreg\000"
 3445      656700
 3446              	.LASF77:
 3447 0140 504C4C31 		.ascii	"PLL1FRACR\000"
 3447      46524143 
 3447      5200
 3448              	.LASF98:
 3449 014a 41504232 		.ascii	"APB2RSTR\000"
 3449      52535452 
 3449      00
 3450              	.LASF8:
 3451 0153 6C6F6E67 		.ascii	"long long int\000"
 3451      206C6F6E 
 3451      6720696E 
 3451      7400
 3452              	.LASF11:
 3453 0161 75696E74 		.ascii	"uint16_t\000"
 3453      31365F74 
 3453      00
 3454              	.LASF127:
 3455 016a 646F7562 		.ascii	"double\000"
 3455      6C6500
 3456              	.LASF154:
 3457 0171 45585449 		.ascii	"EXTI_CurrentCPU\000"
 3457      5F437572 
 3457      72656E74 
 3457      43505500 
 3458              	.LASF73:
ARM GAS  C:\Users\DEVELO~1\AppData\Local\Temp\cc4WljaS.s 			page 63


 3459 0181 44334346 		.ascii	"D3CFGR\000"
 3459      475200
 3460              	.LASF75:
 3461 0188 504C4C43 		.ascii	"PLLCFGR\000"
 3461      46475200 
 3462              	.LASF69:
 3463 0190 43525243 		.ascii	"CRRCR\000"
 3463      5200
 3464              	.LASF87:
 3465 0196 43494652 		.ascii	"CIFR\000"
 3465      00
 3466              	.LASF55:
 3467 019b 43435652 		.ascii	"CCVR\000"
 3467      00
 3468              	.LASF80:
 3469 01a0 504C4C33 		.ascii	"PLL3DIVR\000"
 3469      44495652 
 3469      00
 3470              	.LASF46:
 3471 01a9 4F535045 		.ascii	"OSPEEDR\000"
 3471      45445200 
 3472              	.LASF6:
 3473 01b1 5F5F7569 		.ascii	"__uint32_t\000"
 3473      6E743332 
 3473      5F7400
 3474              	.LASF21:
 3475 01bc 46545352 		.ascii	"FTSR2\000"
 3475      3200
 3476              	.LASF83:
 3477 01c2 44324343 		.ascii	"D2CCIP1R\000"
 3477      49503152 
 3477      00
 3478              	.LASF28:
 3479 01cb 46545352 		.ascii	"FTSR3\000"
 3479      3300
 3480              	.LASF85:
 3481 01d1 44334343 		.ascii	"D3CCIPR\000"
 3481      49505200 
 3482              	.LASF57:
 3483 01d9 50575243 		.ascii	"PWRCR\000"
 3483      5200
 3484              	.LASF150:
 3485 01df 62697473 		.ascii	"bitstatus\000"
 3485      74617475 
 3485      7300
 3486              	.LASF143:
 3487 01e9 4750494F 		.ascii	"GPIO_Pin\000"
 3487      5F50696E 
 3487      00
 3488              	.LASF157:
 3489 01f2 74656D70 		.ascii	"temp\000"
 3489      00
 3490              	.LASF131:
 3491 01f7 48414C5F 		.ascii	"HAL_TIMEOUT\000"
 3491      54494D45 
 3491      4F555400 
 3492              	.LASF104:
ARM GAS  C:\Users\DEVELO~1\AppData\Local\Temp\cc4WljaS.s 			page 64


 3493 0203 41484231 		.ascii	"AHB1ENR\000"
 3493      454E5200 
 3494              	.LASF79:
 3495 020b 504C4C32 		.ascii	"PLL2FRACR\000"
 3495      46524143 
 3495      5200
 3496              	.LASF10:
 3497 0215 756E7369 		.ascii	"unsigned int\000"
 3497      676E6564 
 3497      20696E74 
 3497      00
 3498              	.LASF152:
 3499 0222 706F7369 		.ascii	"position\000"
 3499      74696F6E 
 3499      00
 3500              	.LASF7:
 3501 022b 6C6F6E67 		.ascii	"long unsigned int\000"
 3501      20756E73 
 3501      69676E65 
 3501      6420696E 
 3501      7400
 3502              	.LASF50:
 3503 023d 4750494F 		.ascii	"GPIO_TypeDef\000"
 3503      5F547970 
 3503      65446566 
 3503      00
 3504              	.LASF123:
 3505 024a 5243435F 		.ascii	"RCC_TypeDef\000"
 3505      54797065 
 3505      44656600 
 3506              	.LASF128:
 3507 0256 48414C5F 		.ascii	"HAL_OK\000"
 3507      4F4B00
 3508              	.LASF3:
 3509 025d 73686F72 		.ascii	"short unsigned int\000"
 3509      7420756E 
 3509      7369676E 
 3509      65642069 
 3509      6E7400
 3510              	.LASF74:
 3511 0270 504C4C43 		.ascii	"PLLCKSELR\000"
 3511      4B53454C 
 3511      5200
 3512              	.LASF34:
 3513 027a 494D5231 		.ascii	"IMR1\000"
 3513      00
 3514              	.LASF37:
 3515 027f 494D5232 		.ascii	"IMR2\000"
 3515      00
 3516              	.LASF40:
 3517 0284 494D5233 		.ascii	"IMR3\000"
 3517      00
 3518              	.LASF68:
 3519 0289 48534943 		.ascii	"HSICFGR\000"
 3519      46475200 
 3520              	.LASF159:
 3521 0291 474E5520 		.ascii	"GNU C17 11.3.1 20220712 -mcpu=cortex-m7 -mthumb -mf"
ARM GAS  C:\Users\DEVELO~1\AppData\Local\Temp\cc4WljaS.s 			page 65


 3521      43313720 
 3521      31312E33 
 3521      2E312032 
 3521      30323230 
 3522 02c4 6C6F6174 		.ascii	"loat-abi=soft -march=armv7e-m -ggdb -O0 -ffunction-"
 3522      2D616269 
 3522      3D736F66 
 3522      74202D6D 
 3522      61726368 
 3523 02f7 73656374 		.ascii	"sections -fdata-sections -fno-common\000"
 3523      696F6E73 
 3523      202D6664 
 3523      6174612D 
 3523      73656374 
 3524              	.LASF91:
 3525 031c 41484233 		.ascii	"AHB3RSTR\000"
 3525      52535452 
 3525      00
 3526              	.LASF109:
 3527 0325 41504231 		.ascii	"APB1HENR\000"
 3527      48454E52 
 3527      00
 3528              	.LASF84:
 3529 032e 44324343 		.ascii	"D2CCIP2R\000"
 3529      49503252 
 3529      00
 3530              	.LASF13:
 3531 0337 52545352 		.ascii	"RTSR1\000"
 3531      3100
 3532              	.LASF20:
 3533 033d 52545352 		.ascii	"RTSR2\000"
 3533      3200
 3534              	.LASF132:
 3535 0343 48414C5F 		.ascii	"HAL_StatusTypeDef\000"
 3535      53746174 
 3535      75735479 
 3535      70654465 
 3535      6600
 3536              	.LASF120:
 3537 0355 41504232 		.ascii	"APB2LPENR\000"
 3537      4C50454E 
 3537      5200
 3538              	.LASF81:
 3539 035f 504C4C33 		.ascii	"PLL3FRACR\000"
 3539      46524143 
 3539      5200
 3540              	.LASF160:
 3541 0369 64726976 		.ascii	"drivers/stm32h7xx-hal-driver/Src/stm32h7xx_hal_gpio"
 3541      6572732F 
 3541      73746D33 
 3541      32683778 
 3541      782D6861 
 3542 039c 2E6300   		.ascii	".c\000"
 3543              	.LASF99:
 3544 039f 41504234 		.ascii	"APB4RSTR\000"
 3544      52535452 
 3544      00
ARM GAS  C:\Users\DEVELO~1\AppData\Local\Temp\cc4WljaS.s 			page 66


 3545              	.LASF59:
 3546 03a8 55523130 		.ascii	"UR10\000"
 3546      00
 3547              	.LASF141:
 3548 03ad 48414C5F 		.ascii	"HAL_GPIO_EXTI_Callback\000"
 3548      4750494F 
 3548      5F455854 
 3548      495F4361 
 3548      6C6C6261 
 3549              	.LASF60:
 3550 03c4 55523131 		.ascii	"UR11\000"
 3550      00
 3551              	.LASF111:
 3552 03c9 41504234 		.ascii	"APB4ENR\000"
 3552      454E5200 
 3553              	.LASF64:
 3554 03d1 55523135 		.ascii	"UR15\000"
 3554      00
 3555              	.LASF65:
 3556 03d6 55523136 		.ascii	"UR16\000"
 3556      00
 3557              	.LASF66:
 3558 03db 55523137 		.ascii	"UR17\000"
 3558      00
 3559              	.LASF135:
 3560 03e0 53706565 		.ascii	"Speed\000"
 3560      6400
 3561              	.LASF97:
 3562 03e6 41504231 		.ascii	"APB1HRSTR\000"
 3562      48525354 
 3562      5200
 3563              	.LASF155:
 3564 03f0 48414C5F 		.ascii	"HAL_GPIO_Init\000"
 3564      4750494F 
 3564      5F496E69 
 3564      7400
 3565              	.LASF115:
 3566 03fe 41484232 		.ascii	"AHB2LPENR\000"
 3566      4C50454E 
 3566      5200
 3567              	.LASF146:
 3568 0408 48414C5F 		.ascii	"HAL_GPIO_WritePin\000"
 3568      4750494F 
 3568      5F577269 
 3568      74655069 
 3568      6E00
 3569              	.LASF126:
 3570 041a 666C6F61 		.ascii	"float\000"
 3570      7400
 3571              	.LASF107:
 3572 0420 41504233 		.ascii	"APB3ENR\000"
 3572      454E5200 
 3573              	.LASF43:
 3574 0428 45585449 		.ascii	"EXTI_Core_TypeDef\000"
 3574      5F436F72 
 3574      655F5479 
 3574      70654465 
ARM GAS  C:\Users\DEVELO~1\AppData\Local\Temp\cc4WljaS.s 			page 67


 3574      6600
 3575              	.LASF58:
 3576 043a 504B4752 		.ascii	"PKGR\000"
 3576      00
 3577              	.LASF19:
 3578 043f 52455345 		.ascii	"RESERVED1\000"
 3578      52564544 
 3578      3100
 3579              	.LASF26:
 3580 0449 52455345 		.ascii	"RESERVED2\000"
 3580      52564544 
 3580      3200
 3581              	.LASF137:
 3582 0453 4750494F 		.ascii	"GPIO_InitTypeDef\000"
 3582      5F496E69 
 3582      74547970 
 3582      65446566 
 3582      00
 3583              	.LASF72:
 3584 0464 44324346 		.ascii	"D2CFGR\000"
 3584      475200
 3585              	.LASF27:
 3586 046b 52545352 		.ascii	"RTSR3\000"
 3586      3300
 3587              	.LASF90:
 3588 0471 52455345 		.ascii	"RESERVED6\000"
 3588      52564544 
 3588      3600
 3589              	.LASF100:
 3590 047b 52455345 		.ascii	"RESERVED8\000"
 3590      52564544 
 3590      3800
 3591              	.LASF134:
 3592 0485 50756C6C 		.ascii	"Pull\000"
 3592      00
 3593              	.LASF67:
 3594 048a 53595343 		.ascii	"SYSCFG_TypeDef\000"
 3594      46475F54 
 3594      79706544 
 3594      656600
 3595              	.LASF2:
 3596 0499 756E7369 		.ascii	"unsigned char\000"
 3596      676E6564 
 3596      20636861 
 3596      7200
 3597              	.LASF106:
 3598 04a7 41484234 		.ascii	"AHB4ENR\000"
 3598      454E5200 
 3599              	.LASF0:
 3600 04af 73686F72 		.ascii	"short int\000"
 3600      7420696E 
 3600      7400
 3601              	.LASF161:
 3602 04b9 433A5C50 		.ascii	"C:\\PROJET\\ChibiOS project\\ChibiOS_21.11.4\\demos"
 3602      524F4A45 
 3602      545C4368 
 3602      6962694F 
ARM GAS  C:\Users\DEVELO~1\AppData\Local\Temp\cc4WljaS.s 			page 68


 3602      53207072 
 3603 04e8 5C53544D 		.ascii	"\\STM32\\RT-STM32H743ZI_REV_XY-NUCLEO144_Quartz8M\000"
 3603      33325C52 
 3603      542D5354 
 3603      4D333248 
 3603      3734335A 
 3604              	.LASF113:
 3605 0518 41484233 		.ascii	"AHB3LPENR\000"
 3605      4C50454E 
 3605      5200
 3606              	.LASF121:
 3607 0522 41504234 		.ascii	"APB4LPENR\000"
 3607      4C50454E 
 3607      5200
 3608              	.LASF144:
 3609 052c 4750494F 		.ascii	"GPIOx\000"
 3609      7800
 3610              	.LASF110:
 3611 0532 41504232 		.ascii	"APB2ENR\000"
 3611      454E5200 
 3612              	.LASF78:
 3613 053a 504C4C32 		.ascii	"PLL2DIVR\000"
 3613      44495652 
 3613      00
 3614              	.LASF103:
 3615 0543 41484233 		.ascii	"AHB3ENR\000"
 3615      454E5200 
 3616              	.LASF51:
 3617 054b 504D4352 		.ascii	"PMCR\000"
 3617      00
 3618              	.LASF33:
 3619 0550 52455345 		.ascii	"RESERVED3\000"
 3619      52564544 
 3619      3300
 3620              	.LASF36:
 3621 055a 52455345 		.ascii	"RESERVED4\000"
 3621      52564544 
 3621      3400
 3622              	.LASF39:
 3623 0564 52455345 		.ascii	"RESERVED5\000"
 3623      52564544 
 3623      3500
 3624              	.LASF12:
 3625 056e 75696E74 		.ascii	"uint32_t\000"
 3625      33325F74 
 3625      00
 3626              	.LASF18:
 3627 0577 44335043 		.ascii	"D3PCR1H\000"
 3627      52314800 
 3628              	.LASF129:
 3629 057f 48414C5F 		.ascii	"HAL_ERROR\000"
 3629      4552524F 
 3629      5200
 3630              	.LASF17:
 3631 0589 44335043 		.ascii	"D3PCR1L\000"
 3631      52314C00 
 3632              	.LASF124:
ARM GAS  C:\Users\DEVELO~1\AppData\Local\Temp\cc4WljaS.s 			page 69


 3633 0591 6C6F6E67 		.ascii	"long double\000"
 3633      20646F75 
 3633      626C6500 
 3634              	.LASF147:
 3635 059d 50696E53 		.ascii	"PinState\000"
 3635      74617465 
 3635      00
 3636              	.LASF125:
 3637 05a6 63686172 		.ascii	"char\000"
 3637      00
 3638              	.LASF133:
 3639 05ab 4D6F6465 		.ascii	"Mode\000"
 3639      00
 3640              	.LASF5:
 3641 05b0 5F5F7569 		.ascii	"__uint16_t\000"
 3641      6E743136 
 3641      5F7400
 3642              	.LASF93:
 3643 05bb 41484232 		.ascii	"AHB2RSTR\000"
 3643      52535452 
 3643      00
 3644              	.LASF116:
 3645 05c4 41484234 		.ascii	"AHB4LPENR\000"
 3645      4C50454E 
 3645      5200
 3646              	.LASF96:
 3647 05ce 41504231 		.ascii	"APB1LRSTR\000"
 3647      4C525354 
 3647      5200
 3648              	.LASF105:
 3649 05d8 41484232 		.ascii	"AHB2ENR\000"
 3649      454E5200 
 3650              	.LASF95:
 3651 05e0 41504233 		.ascii	"APB3RSTR\000"
 3651      52535452 
 3651      00
 3652              	.LASF70:
 3653 05e9 43534943 		.ascii	"CSICFGR\000"
 3653      46475200 
 3654              	.LASF61:
 3655 05f1 55523132 		.ascii	"UR12\000"
 3655      00
 3656              	.LASF62:
 3657 05f6 55523133 		.ascii	"UR13\000"
 3657      00
 3658              	.LASF63:
 3659 05fb 55523134 		.ascii	"UR14\000"
 3659      00
 3660              	.LASF35:
 3661 0600 454D5231 		.ascii	"EMR1\000"
 3661      00
 3662              	.LASF38:
 3663 0605 454D5232 		.ascii	"EMR2\000"
 3663      00
 3664              	.LASF41:
 3665 060a 454D5233 		.ascii	"EMR3\000"
 3665      00
ARM GAS  C:\Users\DEVELO~1\AppData\Local\Temp\cc4WljaS.s 			page 70


 3666              	.LASF118:
 3667 060f 41504231 		.ascii	"APB1LLPENR\000"
 3667      4C4C5045 
 3667      4E5200
 3668              	.LASF25:
 3669 061a 44335043 		.ascii	"D3PCR2H\000"
 3669      52324800 
 3670              	.LASF88:
 3671 0622 43494352 		.ascii	"CICR\000"
 3671      00
 3672              	.LASF24:
 3673 0627 44335043 		.ascii	"D3PCR2L\000"
 3673      52324C00 
 3674              	.LASF89:
 3675 062f 42444352 		.ascii	"BDCR\000"
 3675      00
 3676              	.LASF32:
 3677 0634 44335043 		.ascii	"D3PCR3H\000"
 3677      52334800 
 3678              	.LASF114:
 3679 063c 41484231 		.ascii	"AHB1LPENR\000"
 3679      4C50454E 
 3679      5200
 3680              	.LASF139:
 3681 0646 4750494F 		.ascii	"GPIO_PIN_SET\000"
 3681      5F50494E 
 3681      5F534554 
 3681      00
 3682              	.LASF23:
 3683 0653 4433504D 		.ascii	"D3PMR2\000"
 3683      523200
 3684              	.LASF30:
 3685 065a 4433504D 		.ascii	"D3PMR3\000"
 3685      523300
 3686              	.LASF53:
 3687 0661 43464752 		.ascii	"CFGR\000"
 3687      00
 3688              	.LASF145:
 3689 0666 48414C5F 		.ascii	"HAL_GPIO_TogglePin\000"
 3689      4750494F 
 3689      5F546F67 
 3689      676C6550 
 3689      696E00
 3690              	.LASF56:
 3691 0679 43434352 		.ascii	"CCCR\000"
 3691      00
 3692              	.LASF42:
 3693 067e 45585449 		.ascii	"EXTI_TypeDef\000"
 3693      5F547970 
 3693      65446566 
 3693      00
 3694              	.LASF149:
 3695 068b 48414C5F 		.ascii	"HAL_GPIO_ReadPin\000"
 3695      4750494F 
 3695      5F526561 
 3695      6450696E 
 3695      00
ARM GAS  C:\Users\DEVELO~1\AppData\Local\Temp\cc4WljaS.s 			page 71


 3696              	.LASF108:
 3697 069c 41504231 		.ascii	"APB1LENR\000"
 3697      4C454E52 
 3697      00
 3698              	.LASF82:
 3699 06a5 44314343 		.ascii	"D1CCIPR\000"
 3699      49505200 
 3700              	.LASF71:
 3701 06ad 44314346 		.ascii	"D1CFGR\000"
 3701      475200
 3702              	.LASF153:
 3703 06b4 696F6375 		.ascii	"iocurrent\000"
 3703      7272656E 
 3703      7400
 3704              	.LASF52:
 3705 06be 45585449 		.ascii	"EXTICR\000"
 3705      435200
 3706              	.LASF151:
 3707 06c5 48414C5F 		.ascii	"HAL_GPIO_DeInit\000"
 3707      4750494F 
 3707      5F446549 
 3707      6E697400 
 3708              		.ident	"GCC: (Arm GNU Toolchain 11.3.Rel1) 11.3.1 20220712"
ARM GAS  C:\Users\DEVELO~1\AppData\Local\Temp\cc4WljaS.s 			page 72


DEFINED SYMBOLS
                            *ABS*:00000000 stm32h7xx_hal_gpio.c
C:\Users\DEVELO~1\AppData\Local\Temp\cc4WljaS.s:18     .text.HAL_GPIO_Init:00000000 $t
C:\Users\DEVELO~1\AppData\Local\Temp\cc4WljaS.s:24     .text.HAL_GPIO_Init:00000000 HAL_GPIO_Init
C:\Users\DEVELO~1\AppData\Local\Temp\cc4WljaS.s:424    .text.HAL_GPIO_Init:00000248 $d
C:\Users\DEVELO~1\AppData\Local\Temp\cc4WljaS.s:439    .text.HAL_GPIO_Init:0000027c $t
C:\Users\DEVELO~1\AppData\Local\Temp\cc4WljaS.s:611    .text.HAL_GPIO_Init:00000370 $d
C:\Users\DEVELO~1\AppData\Local\Temp\cc4WljaS.s:616    .text.HAL_GPIO_DeInit:00000000 $t
C:\Users\DEVELO~1\AppData\Local\Temp\cc4WljaS.s:622    .text.HAL_GPIO_DeInit:00000000 HAL_GPIO_DeInit
C:\Users\DEVELO~1\AppData\Local\Temp\cc4WljaS.s:957    .text.HAL_GPIO_DeInit:000001e4 $d
C:\Users\DEVELO~1\AppData\Local\Temp\cc4WljaS.s:973    .text.HAL_GPIO_ReadPin:00000000 $t
C:\Users\DEVELO~1\AppData\Local\Temp\cc4WljaS.s:979    .text.HAL_GPIO_ReadPin:00000000 HAL_GPIO_ReadPin
C:\Users\DEVELO~1\AppData\Local\Temp\cc4WljaS.s:1031   .text.HAL_GPIO_WritePin:00000000 $t
C:\Users\DEVELO~1\AppData\Local\Temp\cc4WljaS.s:1037   .text.HAL_GPIO_WritePin:00000000 HAL_GPIO_WritePin
C:\Users\DEVELO~1\AppData\Local\Temp\cc4WljaS.s:1090   .text.HAL_GPIO_TogglePin:00000000 $t
C:\Users\DEVELO~1\AppData\Local\Temp\cc4WljaS.s:1096   .text.HAL_GPIO_TogglePin:00000000 HAL_GPIO_TogglePin
C:\Users\DEVELO~1\AppData\Local\Temp\cc4WljaS.s:1149   .text.HAL_GPIO_LockPin:00000000 $t
C:\Users\DEVELO~1\AppData\Local\Temp\cc4WljaS.s:1155   .text.HAL_GPIO_LockPin:00000000 HAL_GPIO_LockPin
C:\Users\DEVELO~1\AppData\Local\Temp\cc4WljaS.s:1227   .text.HAL_GPIO_EXTI_IRQHandler:00000000 $t
C:\Users\DEVELO~1\AppData\Local\Temp\cc4WljaS.s:1233   .text.HAL_GPIO_EXTI_IRQHandler:00000000 HAL_GPIO_EXTI_IRQHandler
C:\Users\DEVELO~1\AppData\Local\Temp\cc4WljaS.s:1284   .text.HAL_GPIO_EXTI_Callback:00000000 HAL_GPIO_EXTI_Callback
C:\Users\DEVELO~1\AppData\Local\Temp\cc4WljaS.s:1278   .text.HAL_GPIO_EXTI_Callback:00000000 $t

NO UNDEFINED SYMBOLS
