ARM GAS  C:\Users\DEVELO~1\AppData\Local\Temp\ccG9oqmd.s 			page 1


   1              		.cpu cortex-m7
   2              		.arch armv7e-m
   3              		.fpu softvfp
   4              		.eabi_attribute 20, 1
   5              		.eabi_attribute 21, 1
   6              		.eabi_attribute 23, 3
   7              		.eabi_attribute 24, 1
   8              		.eabi_attribute 25, 1
   9              		.eabi_attribute 26, 1
  10              		.eabi_attribute 30, 6
  11              		.eabi_attribute 34, 1
  12              		.eabi_attribute 18, 4
  13              		.file	"syscalls.c"
  14              		.text
  15              	.Ltext0:
  16              		.cfi_sections	.debug_frame
  17              		.section	.text._read_r,"ax",%progbits
  18              		.align	1
  19              		.global	_read_r
  20              		.syntax unified
  21              		.thumb
  22              		.thumb_func
  23              		.type	_read_r, %function
  24              	_read_r:
  25              	.LFB346:
  26              		.file 1 "../../../os/various/syscalls.c"
  27              		.loc 1 71 62
  28              		.cfi_startproc
  29              		@ args = 0, pretend = 0, frame = 16
  30              		@ frame_needed = 1, uses_anonymous_args = 0
  31              		@ link register save eliminated.
  32 0000 80B4     		push	{r7}
  33              		.cfi_def_cfa_offset 4
  34              		.cfi_offset 7, -4
  35 0002 85B0     		sub	sp, sp, #20
  36              		.cfi_def_cfa_offset 24
  37 0004 00AF     		add	r7, sp, #0
  38              		.cfi_def_cfa_register 7
  39 0006 F860     		str	r0, [r7, #12]
  40 0008 B960     		str	r1, [r7, #8]
  41 000a 7A60     		str	r2, [r7, #4]
  42 000c 3B60     		str	r3, [r7]
  43              		.loc 1 84 17
  44 000e FB68     		ldr	r3, [r7, #12]
  45 0010 1622     		movs	r2, #22
  46 0012 1A60     		str	r2, [r3]
  47              		.loc 1 85 10
  48 0014 4FF0FF33 		mov	r3, #-1
  49              		.loc 1 87 1
  50 0018 1846     		mov	r0, r3
  51 001a 1437     		adds	r7, r7, #20
  52              		.cfi_def_cfa_offset 4
  53 001c BD46     		mov	sp, r7
  54              		.cfi_def_cfa_register 13
  55              		@ sp needed
  56 001e 80BC     		pop	{r7}
  57              		.cfi_restore 7
ARM GAS  C:\Users\DEVELO~1\AppData\Local\Temp\ccG9oqmd.s 			page 2


  58              		.cfi_def_cfa_offset 0
  59 0020 7047     		bx	lr
  60              		.cfi_endproc
  61              	.LFE346:
  62              		.size	_read_r, .-_read_r
  63              		.section	.text._lseek_r,"ax",%progbits
  64              		.align	1
  65              		.global	_lseek_r
  66              		.syntax unified
  67              		.thumb
  68              		.thumb_func
  69              		.type	_lseek_r, %function
  70              	_lseek_r:
  71              	.LFB347:
  72              		.loc 1 92 60
  73              		.cfi_startproc
  74              		@ args = 0, pretend = 0, frame = 16
  75              		@ frame_needed = 1, uses_anonymous_args = 0
  76              		@ link register save eliminated.
  77 0000 80B4     		push	{r7}
  78              		.cfi_def_cfa_offset 4
  79              		.cfi_offset 7, -4
  80 0002 85B0     		sub	sp, sp, #20
  81              		.cfi_def_cfa_offset 24
  82 0004 00AF     		add	r7, sp, #0
  83              		.cfi_def_cfa_register 7
  84 0006 F860     		str	r0, [r7, #12]
  85 0008 B960     		str	r1, [r7, #8]
  86 000a 7A60     		str	r2, [r7, #4]
  87 000c 3B60     		str	r3, [r7]
  88              		.loc 1 98 10
  89 000e 0023     		movs	r3, #0
  90              		.loc 1 99 1
  91 0010 1846     		mov	r0, r3
  92 0012 1437     		adds	r7, r7, #20
  93              		.cfi_def_cfa_offset 4
  94 0014 BD46     		mov	sp, r7
  95              		.cfi_def_cfa_register 13
  96              		@ sp needed
  97 0016 80BC     		pop	{r7}
  98              		.cfi_restore 7
  99              		.cfi_def_cfa_offset 0
 100 0018 7047     		bx	lr
 101              		.cfi_endproc
 102              	.LFE347:
 103              		.size	_lseek_r, .-_lseek_r
 104              		.section	.text._write_r,"ax",%progbits
 105              		.align	1
 106              		.global	_write_r
 107              		.syntax unified
 108              		.thumb
 109              		.thumb_func
 110              		.type	_write_r, %function
 111              	_write_r:
 112              	.LFB348:
 113              		.loc 1 104 63
 114              		.cfi_startproc
ARM GAS  C:\Users\DEVELO~1\AppData\Local\Temp\ccG9oqmd.s 			page 3


 115              		@ args = 0, pretend = 0, frame = 16
 116              		@ frame_needed = 1, uses_anonymous_args = 0
 117              		@ link register save eliminated.
 118 0000 80B4     		push	{r7}
 119              		.cfi_def_cfa_offset 4
 120              		.cfi_offset 7, -4
 121 0002 85B0     		sub	sp, sp, #20
 122              		.cfi_def_cfa_offset 24
 123 0004 00AF     		add	r7, sp, #0
 124              		.cfi_def_cfa_register 7
 125 0006 F860     		str	r0, [r7, #12]
 126 0008 B960     		str	r1, [r7, #8]
 127 000a 7A60     		str	r2, [r7, #4]
 128 000c 3B60     		str	r3, [r7]
 129              		.loc 1 115 10
 130 000e 3B68     		ldr	r3, [r7]
 131              		.loc 1 116 1
 132 0010 1846     		mov	r0, r3
 133 0012 1437     		adds	r7, r7, #20
 134              		.cfi_def_cfa_offset 4
 135 0014 BD46     		mov	sp, r7
 136              		.cfi_def_cfa_register 13
 137              		@ sp needed
 138 0016 80BC     		pop	{r7}
 139              		.cfi_restore 7
 140              		.cfi_def_cfa_offset 0
 141 0018 7047     		bx	lr
 142              		.cfi_endproc
 143              	.LFE348:
 144              		.size	_write_r, .-_write_r
 145              		.section	.text._open_r,"ax",%progbits
 146              		.align	1
 147              		.global	_open_r
 148              		.syntax unified
 149              		.thumb
 150              		.thumb_func
 151              		.type	_open_r, %function
 152              	_open_r:
 153              	.LFB349:
 154              		.loc 1 121 60
 155              		.cfi_startproc
 156              		@ args = 0, pretend = 0, frame = 16
 157              		@ frame_needed = 1, uses_anonymous_args = 0
 158              		@ link register save eliminated.
 159 0000 80B4     		push	{r7}
 160              		.cfi_def_cfa_offset 4
 161              		.cfi_offset 7, -4
 162 0002 85B0     		sub	sp, sp, #20
 163              		.cfi_def_cfa_offset 24
 164 0004 00AF     		add	r7, sp, #0
 165              		.cfi_def_cfa_register 7
 166 0006 F860     		str	r0, [r7, #12]
 167 0008 B960     		str	r1, [r7, #8]
 168 000a 7A60     		str	r2, [r7, #4]
 169 000c 3B60     		str	r3, [r7]
 170              		.loc 1 127 16
 171 000e FB68     		ldr	r3, [r7, #12]
ARM GAS  C:\Users\DEVELO~1\AppData\Local\Temp\ccG9oqmd.s 			page 4


 172 0010 1622     		movs	r2, #22
 173 0012 1A60     		str	r2, [r3]
 174              		.loc 1 128 10
 175 0014 4FF0FF33 		mov	r3, #-1
 176              		.loc 1 129 1
 177 0018 1846     		mov	r0, r3
 178 001a 1437     		adds	r7, r7, #20
 179              		.cfi_def_cfa_offset 4
 180 001c BD46     		mov	sp, r7
 181              		.cfi_def_cfa_register 13
 182              		@ sp needed
 183 001e 80BC     		pop	{r7}
 184              		.cfi_restore 7
 185              		.cfi_def_cfa_offset 0
 186 0020 7047     		bx	lr
 187              		.cfi_endproc
 188              	.LFE349:
 189              		.size	_open_r, .-_open_r
 190              		.section	.text._close_r,"ax",%progbits
 191              		.align	1
 192              		.global	_close_r
 193              		.syntax unified
 194              		.thumb
 195              		.thumb_func
 196              		.type	_close_r, %function
 197              	_close_r:
 198              	.LFB350:
 199              		.loc 1 134 42
 200              		.cfi_startproc
 201              		@ args = 0, pretend = 0, frame = 8
 202              		@ frame_needed = 1, uses_anonymous_args = 0
 203              		@ link register save eliminated.
 204 0000 80B4     		push	{r7}
 205              		.cfi_def_cfa_offset 4
 206              		.cfi_offset 7, -4
 207 0002 83B0     		sub	sp, sp, #12
 208              		.cfi_def_cfa_offset 16
 209 0004 00AF     		add	r7, sp, #0
 210              		.cfi_def_cfa_register 7
 211 0006 7860     		str	r0, [r7, #4]
 212 0008 3960     		str	r1, [r7]
 213              		.loc 1 138 10
 214 000a 0023     		movs	r3, #0
 215              		.loc 1 139 1
 216 000c 1846     		mov	r0, r3
 217 000e 0C37     		adds	r7, r7, #12
 218              		.cfi_def_cfa_offset 4
 219 0010 BD46     		mov	sp, r7
 220              		.cfi_def_cfa_register 13
 221              		@ sp needed
 222 0012 80BC     		pop	{r7}
 223              		.cfi_restore 7
 224              		.cfi_def_cfa_offset 0
 225 0014 7047     		bx	lr
 226              		.cfi_endproc
 227              	.LFE350:
 228              		.size	_close_r, .-_close_r
ARM GAS  C:\Users\DEVELO~1\AppData\Local\Temp\ccG9oqmd.s 			page 5


 229              		.section	.text._sbrk_r,"ax",%progbits
 230              		.align	1
 231              		.global	_sbrk_r
 232              		.syntax unified
 233              		.thumb
 234              		.thumb_func
 235              		.type	_sbrk_r, %function
 236              	_sbrk_r:
 237              	.LFB351:
 238              		.loc 1 144 45
 239              		.cfi_startproc
 240              		@ args = 0, pretend = 0, frame = 16
 241              		@ frame_needed = 1, uses_anonymous_args = 0
 242 0000 80B5     		push	{r7, lr}
 243              		.cfi_def_cfa_offset 8
 244              		.cfi_offset 7, -8
 245              		.cfi_offset 14, -4
 246 0002 84B0     		sub	sp, sp, #16
 247              		.cfi_def_cfa_offset 24
 248 0004 00AF     		add	r7, sp, #0
 249              		.cfi_def_cfa_register 7
 250 0006 7860     		str	r0, [r7, #4]
 251 0008 3960     		str	r1, [r7]
 252              		.loc 1 150 7
 253 000a 3B68     		ldr	r3, [r7]
 254 000c 0022     		movs	r2, #0
 255 000e 0121     		movs	r1, #1
 256 0010 1846     		mov	r0, r3
 257 0012 FFF7FEFF 		bl	chCoreAllocFromBase
 258 0016 F860     		str	r0, [r7, #12]
 259              		.loc 1 151 6
 260 0018 FB68     		ldr	r3, [r7, #12]
 261 001a 002B     		cmp	r3, #0
 262 001c 05D1     		bne	.L12
 263              		.loc 1 152 19
 264 001e 7B68     		ldr	r3, [r7, #4]
 265 0020 0C22     		movs	r2, #12
 266 0022 1A60     		str	r2, [r3]
 267              		.loc 1 153 12
 268 0024 4FF0FF33 		mov	r3, #-1
 269 0028 00E0     		b	.L13
 270              	.L12:
 271              		.loc 1 155 10
 272 002a FB68     		ldr	r3, [r7, #12]
 273              	.L13:
 274              		.loc 1 161 1
 275 002c 1846     		mov	r0, r3
 276 002e 1037     		adds	r7, r7, #16
 277              		.cfi_def_cfa_offset 8
 278 0030 BD46     		mov	sp, r7
 279              		.cfi_def_cfa_register 13
 280              		@ sp needed
 281 0032 80BD     		pop	{r7, pc}
 282              		.cfi_endproc
 283              	.LFE351:
 284              		.size	_sbrk_r, .-_sbrk_r
 285              		.section	.text._fstat_r,"ax",%progbits
ARM GAS  C:\Users\DEVELO~1\AppData\Local\Temp\ccG9oqmd.s 			page 6


 286              		.align	1
 287              		.global	_fstat_r
 288              		.syntax unified
 289              		.thumb
 290              		.thumb_func
 291              		.type	_fstat_r, %function
 292              	_fstat_r:
 293              	.LFB352:
 294              		.loc 1 166 60
 295              		.cfi_startproc
 296              		@ args = 0, pretend = 0, frame = 16
 297              		@ frame_needed = 1, uses_anonymous_args = 0
 298 0000 80B5     		push	{r7, lr}
 299              		.cfi_def_cfa_offset 8
 300              		.cfi_offset 7, -8
 301              		.cfi_offset 14, -4
 302 0002 84B0     		sub	sp, sp, #16
 303              		.cfi_def_cfa_offset 24
 304 0004 00AF     		add	r7, sp, #0
 305              		.cfi_def_cfa_register 7
 306 0006 F860     		str	r0, [r7, #12]
 307 0008 B960     		str	r1, [r7, #8]
 308 000a 7A60     		str	r2, [r7, #4]
 309              		.loc 1 170 3
 310 000c 5822     		movs	r2, #88
 311 000e 0021     		movs	r1, #0
 312 0010 7868     		ldr	r0, [r7, #4]
 313 0012 FFF7FEFF 		bl	memset
 314              		.loc 1 171 15
 315 0016 7B68     		ldr	r3, [r7, #4]
 316 0018 4FF40052 		mov	r2, #8192
 317 001c 5A60     		str	r2, [r3, #4]
 318              		.loc 1 172 10
 319 001e 0023     		movs	r3, #0
 320              		.loc 1 173 1
 321 0020 1846     		mov	r0, r3
 322 0022 1037     		adds	r7, r7, #16
 323              		.cfi_def_cfa_offset 8
 324 0024 BD46     		mov	sp, r7
 325              		.cfi_def_cfa_register 13
 326              		@ sp needed
 327 0026 80BD     		pop	{r7, pc}
 328              		.cfi_endproc
 329              	.LFE352:
 330              		.size	_fstat_r, .-_fstat_r
 331              		.section	.text._isatty_r,"ax",%progbits
 332              		.align	1
 333              		.global	_isatty_r
 334              		.syntax unified
 335              		.thumb
 336              		.thumb_func
 337              		.type	_isatty_r, %function
 338              	_isatty_r:
 339              	.LFB353:
 340              		.loc 1 178 41
 341              		.cfi_startproc
 342              		@ args = 0, pretend = 0, frame = 8
ARM GAS  C:\Users\DEVELO~1\AppData\Local\Temp\ccG9oqmd.s 			page 7


 343              		@ frame_needed = 1, uses_anonymous_args = 0
 344              		@ link register save eliminated.
 345 0000 80B4     		push	{r7}
 346              		.cfi_def_cfa_offset 4
 347              		.cfi_offset 7, -4
 348 0002 83B0     		sub	sp, sp, #12
 349              		.cfi_def_cfa_offset 16
 350 0004 00AF     		add	r7, sp, #0
 351              		.cfi_def_cfa_register 7
 352 0006 7860     		str	r0, [r7, #4]
 353 0008 3960     		str	r1, [r7]
 354              		.loc 1 182 10
 355 000a 0123     		movs	r3, #1
 356              		.loc 1 183 1
 357 000c 1846     		mov	r0, r3
 358 000e 0C37     		adds	r7, r7, #12
 359              		.cfi_def_cfa_offset 4
 360 0010 BD46     		mov	sp, r7
 361              		.cfi_def_cfa_register 13
 362              		@ sp needed
 363 0012 80BC     		pop	{r7}
 364              		.cfi_restore 7
 365              		.cfi_def_cfa_offset 0
 366 0014 7047     		bx	lr
 367              		.cfi_endproc
 368              	.LFE353:
 369              		.size	_isatty_r, .-_isatty_r
 370              		.section	.rodata
 371              		.align	2
 372              	.LC0:
 373 0000 65786974 		.ascii	"exit\000"
 373      00
 374              		.section	.text._exit,"ax",%progbits
 375              		.align	1
 376              		.global	_exit
 377              		.syntax unified
 378              		.thumb
 379              		.thumb_func
 380              		.type	_exit, %function
 381              	_exit:
 382              	.LFB354:
 383              		.loc 1 188 24
 384              		.cfi_startproc
 385              		@ args = 0, pretend = 0, frame = 8
 386              		@ frame_needed = 1, uses_anonymous_args = 0
 387 0000 80B5     		push	{r7, lr}
 388              		.cfi_def_cfa_offset 8
 389              		.cfi_offset 7, -8
 390              		.cfi_offset 14, -4
 391 0002 82B0     		sub	sp, sp, #8
 392              		.cfi_def_cfa_offset 16
 393 0004 00AF     		add	r7, sp, #0
 394              		.cfi_def_cfa_register 7
 395 0006 7860     		str	r0, [r7, #4]
 396              		.loc 1 192 3
 397 0008 0248     		ldr	r0, .L19
 398 000a FFF7FEFF 		bl	chSysHalt
ARM GAS  C:\Users\DEVELO~1\AppData\Local\Temp\ccG9oqmd.s 			page 8


 399              		.loc 1 193 3
 400 000e FFF7FEFF 		bl	abort
 401              	.L20:
 402 0012 00BF     		.align	2
 403              	.L19:
 404 0014 00000000 		.word	.LC0
 405              		.cfi_endproc
 406              	.LFE354:
 407              		.size	_exit, .-_exit
 408              		.section	.rodata
 409 0005 000000   		.align	2
 410              	.LC1:
 411 0008 6B696C6C 		.ascii	"kill\000"
 411      00
 412              		.section	.text._kill,"ax",%progbits
 413              		.align	1
 414              		.global	_kill
 415              		.syntax unified
 416              		.thumb
 417              		.thumb_func
 418              		.type	_kill, %function
 419              	_kill:
 420              	.LFB355:
 421              		.loc 1 199 29
 422              		.cfi_startproc
 423              		@ args = 0, pretend = 0, frame = 8
 424              		@ frame_needed = 1, uses_anonymous_args = 0
 425 0000 80B5     		push	{r7, lr}
 426              		.cfi_def_cfa_offset 8
 427              		.cfi_offset 7, -8
 428              		.cfi_offset 14, -4
 429 0002 82B0     		sub	sp, sp, #8
 430              		.cfi_def_cfa_offset 16
 431 0004 00AF     		add	r7, sp, #0
 432              		.cfi_def_cfa_register 7
 433 0006 7860     		str	r0, [r7, #4]
 434 0008 3960     		str	r1, [r7]
 435              		.loc 1 204 3
 436 000a 0248     		ldr	r0, .L22
 437 000c FFF7FEFF 		bl	chSysHalt
 438              		.loc 1 205 3
 439 0010 FFF7FEFF 		bl	abort
 440              	.L23:
 441              		.align	2
 442              	.L22:
 443 0014 08000000 		.word	.LC1
 444              		.cfi_endproc
 445              	.LFE355:
 446              		.size	_kill, .-_kill
 447              		.section	.text._getpid,"ax",%progbits
 448              		.align	1
 449              		.global	_getpid
 450              		.syntax unified
 451              		.thumb
 452              		.thumb_func
 453              		.type	_getpid, %function
 454              	_getpid:
ARM GAS  C:\Users\DEVELO~1\AppData\Local\Temp\ccG9oqmd.s 			page 9


 455              	.LFB356:
 456              		.loc 1 211 19
 457              		.cfi_startproc
 458              		@ args = 0, pretend = 0, frame = 0
 459              		@ frame_needed = 1, uses_anonymous_args = 0
 460              		@ link register save eliminated.
 461 0000 80B4     		push	{r7}
 462              		.cfi_def_cfa_offset 4
 463              		.cfi_offset 7, -4
 464 0002 00AF     		add	r7, sp, #0
 465              		.cfi_def_cfa_register 7
 466              		.loc 1 213 10
 467 0004 0123     		movs	r3, #1
 468              		.loc 1 215 1
 469 0006 1846     		mov	r0, r3
 470 0008 BD46     		mov	sp, r7
 471              		.cfi_def_cfa_register 13
 472              		@ sp needed
 473 000a 80BC     		pop	{r7}
 474              		.cfi_restore 7
 475              		.cfi_def_cfa_offset 0
 476 000c 7047     		bx	lr
 477              		.cfi_endproc
 478              	.LFE356:
 479              		.size	_getpid, .-_getpid
 480              		.section	.rodata
 481 000d 000000   		.align	2
 482              	.LC2:
 483 0010 70757265 		.ascii	"pure virtual\000"
 483      20766972 
 483      7475616C 
 483      00
 484              		.section	.text.__cxa_pure_virtual,"ax",%progbits
 485              		.align	1
 486              		.global	__cxa_pure_virtual
 487              		.syntax unified
 488              		.thumb
 489              		.thumb_func
 490              		.type	__cxa_pure_virtual, %function
 491              	__cxa_pure_virtual:
 492              	.LFB357:
 493              		.loc 1 219 31
 494              		.cfi_startproc
 495              		@ args = 0, pretend = 0, frame = 0
 496              		@ frame_needed = 1, uses_anonymous_args = 0
 497 0000 80B5     		push	{r7, lr}
 498              		.cfi_def_cfa_offset 8
 499              		.cfi_offset 7, -8
 500              		.cfi_offset 14, -4
 501 0002 00AF     		add	r7, sp, #0
 502              		.cfi_def_cfa_register 7
 503              		.loc 1 220 3
 504 0004 0248     		ldr	r0, .L27
 505 0006 FFF7FEFF 		bl	chSysHalt
 506              		.loc 1 221 1
 507 000a 00BF     		nop
 508 000c 80BD     		pop	{r7, pc}
ARM GAS  C:\Users\DEVELO~1\AppData\Local\Temp\ccG9oqmd.s 			page 10


 509              	.L28:
 510 000e 00BF     		.align	2
 511              	.L27:
 512 0010 10000000 		.word	.LC2
 513              		.cfi_endproc
 514              	.LFE357:
 515              		.size	__cxa_pure_virtual, .-__cxa_pure_virtual
 516              		.text
 517              	.Letext0:
 518              		.file 2 "c:\\chibistudio\\tools\\gnu tools arm embedded\\11.3 2022.08\\lib\\gcc\\arm-none-eabi\\11
 519              		.file 3 "c:\\chibistudio\\tools\\gnu tools arm embedded\\11.3 2022.08\\arm-none-eabi\\include\\mac
 520              		.file 4 "c:\\chibistudio\\tools\\gnu tools arm embedded\\11.3 2022.08\\arm-none-eabi\\include\\sys
 521              		.file 5 "c:\\chibistudio\\tools\\gnu tools arm embedded\\11.3 2022.08\\arm-none-eabi\\include\\sys
 522              		.file 6 "c:\\chibistudio\\tools\\gnu tools arm embedded\\11.3 2022.08\\arm-none-eabi\\include\\sys
 523              		.file 7 "c:\\chibistudio\\tools\\gnu tools arm embedded\\11.3 2022.08\\arm-none-eabi\\include\\sys
 524              		.file 8 "c:\\chibistudio\\tools\\gnu tools arm embedded\\11.3 2022.08\\arm-none-eabi\\include\\sys
 525              		.file 9 "c:\\chibistudio\\tools\\gnu tools arm embedded\\11.3 2022.08\\arm-none-eabi\\include\\sys
 526              		.file 10 "c:\\chibistudio\\tools\\gnu tools arm embedded\\11.3 2022.08\\arm-none-eabi\\include\\sy
 527              		.file 11 "c:\\chibistudio\\tools\\gnu tools arm embedded\\11.3 2022.08\\arm-none-eabi\\include\\st
 528              		.file 12 "../../../os/oslib/include/chmemcore.h"
 529              		.file 13 "c:\\chibistudio\\tools\\gnu tools arm embedded\\11.3 2022.08\\arm-none-eabi\\include\\st
 530              		.file 14 "../../../os/rt/include/chearly.h"
 531              		.section	.debug_info,"",%progbits
 532              	.Ldebug_info0:
 533 0000 1E0C0000 		.4byte	0xc1e
 534 0004 0500     		.2byte	0x5
 535 0006 01       		.byte	0x1
 536 0007 04       		.byte	0x4
 537 0008 00000000 		.4byte	.Ldebug_abbrev0
 538 000c 15       		.uleb128 0x15
 539 000d 30010000 		.4byte	.LASF155
 540 0011 1D       		.byte	0x1d
 541 0012 FF030000 		.4byte	.LASF156
 542 0016 E3020000 		.4byte	.LASF157
 543 001a 0C000000 		.4byte	.LLRL0
 544 001e 00000000 		.4byte	0
 545 0022 00000000 		.4byte	.Ldebug_line0
 546 0026 03       		.uleb128 0x3
 547 0027 23000000 		.4byte	.LASF3
 548 002b 02       		.byte	0x2
 549 002c D1       		.byte	0xd1
 550 002d 17       		.byte	0x17
 551 002e 32000000 		.4byte	0x32
 552 0032 07       		.uleb128 0x7
 553 0033 04       		.byte	0x4
 554 0034 07       		.byte	0x7
 555 0035 93050000 		.4byte	.LASF0
 556 0039 16       		.uleb128 0x16
 557 003a 04       		.byte	0x4
 558 003b 05       		.byte	0x5
 559 003c 696E7400 		.ascii	"int\000"
 560 0040 07       		.uleb128 0x7
 561 0041 08       		.byte	0x8
 562 0042 05       		.byte	0x5
 563 0043 F3010000 		.4byte	.LASF1
 564 0047 07       		.uleb128 0x7
 565 0048 08       		.byte	0x8
ARM GAS  C:\Users\DEVELO~1\AppData\Local\Temp\ccG9oqmd.s 			page 11


 566 0049 04       		.byte	0x4
 567 004a 6B050000 		.4byte	.LASF2
 568 004e 17       		.uleb128 0x17
 569 004f AA030000 		.4byte	.LASF4
 570 0053 02       		.byte	0x2
 571 0054 5E01     		.2byte	0x15e
 572 0056 17       		.byte	0x17
 573 0057 32000000 		.4byte	0x32
 574 005b 07       		.uleb128 0x7
 575 005c 01       		.byte	0x1
 576 005d 06       		.byte	0x6
 577 005e 44000000 		.4byte	.LASF5
 578 0062 07       		.uleb128 0x7
 579 0063 01       		.byte	0x1
 580 0064 08       		.byte	0x8
 581 0065 76040000 		.4byte	.LASF6
 582 0069 07       		.uleb128 0x7
 583 006a 02       		.byte	0x2
 584 006b 05       		.byte	0x5
 585 006c 09000000 		.4byte	.LASF7
 586 0070 07       		.uleb128 0x7
 587 0071 02       		.byte	0x2
 588 0072 07       		.byte	0x7
 589 0073 50030000 		.4byte	.LASF8
 590 0077 07       		.uleb128 0x7
 591 0078 04       		.byte	0x4
 592 0079 05       		.byte	0x5
 593 007a CE010000 		.4byte	.LASF9
 594 007e 03       		.uleb128 0x3
 595 007f A6050000 		.4byte	.LASF10
 596 0083 03       		.byte	0x3
 597 0084 4F       		.byte	0x4f
 598 0085 19       		.byte	0x19
 599 0086 8A000000 		.4byte	0x8a
 600 008a 07       		.uleb128 0x7
 601 008b 04       		.byte	0x4
 602 008c 07       		.byte	0x7
 603 008d C3020000 		.4byte	.LASF11
 604 0091 07       		.uleb128 0x7
 605 0092 08       		.byte	0x8
 606 0093 07       		.byte	0x7
 607 0094 83000000 		.4byte	.LASF12
 608 0098 03       		.uleb128 0x3
 609 0099 C7000000 		.4byte	.LASF13
 610 009d 03       		.byte	0x3
 611 009e C8       		.byte	0xc8
 612 009f 1E       		.byte	0x1e
 613 00a0 40000000 		.4byte	0x40
 614 00a4 03       		.uleb128 0x3
 615 00a5 C3010000 		.4byte	.LASF14
 616 00a9 04       		.byte	0x4
 617 00aa 1E       		.byte	0x1e
 618 00ab 0E       		.byte	0xe
 619 00ac 77000000 		.4byte	0x77
 620 00b0 03       		.uleb128 0x3
 621 00b1 27040000 		.4byte	.LASF15
 622 00b5 04       		.byte	0x4
ARM GAS  C:\Users\DEVELO~1\AppData\Local\Temp\ccG9oqmd.s 			page 12


 623 00b6 22       		.byte	0x22
 624 00b7 0E       		.byte	0xe
 625 00b8 77000000 		.4byte	0x77
 626 00bc 03       		.uleb128 0x3
 627 00bd 33040000 		.4byte	.LASF16
 628 00c1 04       		.byte	0x4
 629 00c2 2E       		.byte	0x2e
 630 00c3 0E       		.byte	0xe
 631 00c4 77000000 		.4byte	0x77
 632 00c8 03       		.uleb128 0x3
 633 00c9 85020000 		.4byte	.LASF17
 634 00cd 04       		.byte	0x4
 635 00ce 38       		.byte	0x38
 636 00cf 0F       		.byte	0xf
 637 00d0 69000000 		.4byte	0x69
 638 00d4 03       		.uleb128 0x3
 639 00d5 B1050000 		.4byte	.LASF18
 640 00d9 04       		.byte	0x4
 641 00da 3C       		.byte	0x3c
 642 00db 18       		.byte	0x18
 643 00dc 70000000 		.4byte	0x70
 644 00e0 03       		.uleb128 0x3
 645 00e1 D7000000 		.4byte	.LASF19
 646 00e5 04       		.byte	0x4
 647 00e6 3F       		.byte	0x3f
 648 00e7 18       		.byte	0x18
 649 00e8 70000000 		.4byte	0x70
 650 00ec 03       		.uleb128 0x3
 651 00ed 0B050000 		.4byte	.LASF20
 652 00f1 04       		.byte	0x4
 653 00f2 4B       		.byte	0x4b
 654 00f3 18       		.byte	0x18
 655 00f4 70000000 		.4byte	0x70
 656 00f8 03       		.uleb128 0x3
 657 00f9 11010000 		.4byte	.LASF21
 658 00fd 04       		.byte	0x4
 659 00fe 5A       		.byte	0x5a
 660 00ff 14       		.byte	0x14
 661 0100 7E000000 		.4byte	0x7e
 662 0104 03       		.uleb128 0x3
 663 0105 3A040000 		.4byte	.LASF22
 664 0109 04       		.byte	0x4
 665 010a 66       		.byte	0x66
 666 010b 10       		.byte	0x10
 667 010c BC000000 		.4byte	0xbc
 668 0110 03       		.uleb128 0x3
 669 0111 13000000 		.4byte	.LASF23
 670 0115 04       		.byte	0x4
 671 0116 74       		.byte	0x74
 672 0117 0E       		.byte	0xe
 673 0118 77000000 		.4byte	0x77
 674 011c 18       		.uleb128 0x18
 675 011d 04       		.byte	0x4
 676 011e 04       		.byte	0x4
 677 011f A5       		.byte	0xa5
 678 0120 03       		.byte	0x3
 679 0121 3C010000 		.4byte	0x13c
ARM GAS  C:\Users\DEVELO~1\AppData\Local\Temp\ccG9oqmd.s 			page 13


 680 0125 10       		.uleb128 0x10
 681 0126 2A010000 		.4byte	.LASF24
 682 012a A7       		.byte	0xa7
 683 012b 0C       		.byte	0xc
 684 012c 4E000000 		.4byte	0x4e
 685 0130 10       		.uleb128 0x10
 686 0131 AB020000 		.4byte	.LASF25
 687 0135 A8       		.byte	0xa8
 688 0136 13       		.byte	0x13
 689 0137 3C010000 		.4byte	0x13c
 690 013b 00       		.byte	0
 691 013c 08       		.uleb128 0x8
 692 013d 62000000 		.4byte	0x62
 693 0141 4C010000 		.4byte	0x14c
 694 0145 09       		.uleb128 0x9
 695 0146 32000000 		.4byte	0x32
 696 014a 03       		.byte	0x3
 697 014b 00       		.byte	0
 698 014c 19       		.uleb128 0x19
 699 014d 08       		.byte	0x8
 700 014e 04       		.byte	0x4
 701 014f A2       		.byte	0xa2
 702 0150 09       		.byte	0x9
 703 0151 70010000 		.4byte	0x170
 704 0155 01       		.uleb128 0x1
 705 0156 19050000 		.4byte	.LASF26
 706 015a 04       		.byte	0x4
 707 015b A4       		.byte	0xa4
 708 015c 07       		.byte	0x7
 709 015d 39000000 		.4byte	0x39
 710 0161 00       		.byte	0
 711 0162 01       		.uleb128 0x1
 712 0163 28050000 		.4byte	.LASF27
 713 0167 04       		.byte	0x4
 714 0168 A9       		.byte	0xa9
 715 0169 05       		.byte	0x5
 716 016a 1C010000 		.4byte	0x11c
 717 016e 04       		.byte	0x4
 718 016f 00       		.byte	0
 719 0170 03       		.uleb128 0x3
 720 0171 B3040000 		.4byte	.LASF28
 721 0175 04       		.byte	0x4
 722 0176 AA       		.byte	0xaa
 723 0177 03       		.byte	0x3
 724 0178 4C010000 		.4byte	0x14c
 725 017c 1A       		.uleb128 0x1a
 726 017d 04       		.byte	0x4
 727 017e 03       		.uleb128 0x3
 728 017f 98030000 		.4byte	.LASF29
 729 0183 04       		.byte	0x4
 730 0184 D5       		.byte	0xd5
 731 0185 18       		.byte	0x18
 732 0186 70000000 		.4byte	0x70
 733 018a 03       		.uleb128 0x3
 734 018b 02010000 		.4byte	.LASF30
 735 018f 05       		.byte	0x5
 736 0190 16       		.byte	0x16
ARM GAS  C:\Users\DEVELO~1\AppData\Local\Temp\ccG9oqmd.s 			page 14


 737 0191 19       		.byte	0x19
 738 0192 8A000000 		.4byte	0x8a
 739 0196 03       		.uleb128 0x3
 740 0197 A2030000 		.4byte	.LASF31
 741 019b 06       		.byte	0x6
 742 019c 22       		.byte	0x22
 743 019d 19       		.byte	0x19
 744 019e A2010000 		.4byte	0x1a2
 745 01a2 06       		.uleb128 0x6
 746 01a3 A7010000 		.4byte	0x1a7
 747 01a7 11       		.uleb128 0x11
 748 01a8 21050000 		.4byte	.LASF109
 749 01ac 03       		.uleb128 0x3
 750 01ad 57020000 		.4byte	.LASF32
 751 01b1 05       		.byte	0x5
 752 01b2 23       		.byte	0x23
 753 01b3 1B       		.byte	0x1b
 754 01b4 96010000 		.4byte	0x196
 755 01b8 0C       		.uleb128 0xc
 756 01b9 68020000 		.4byte	.LASF37
 757 01bd 18       		.byte	0x18
 758 01be 05       		.byte	0x5
 759 01bf 34       		.byte	0x34
 760 01c0 0F020000 		.4byte	0x20f
 761 01c4 01       		.uleb128 0x1
 762 01c5 B9050000 		.4byte	.LASF33
 763 01c9 05       		.byte	0x5
 764 01ca 36       		.byte	0x36
 765 01cb 13       		.byte	0x13
 766 01cc 0F020000 		.4byte	0x20f
 767 01d0 00       		.byte	0
 768 01d1 0A       		.uleb128 0xa
 769 01d2 5F6B00   		.ascii	"_k\000"
 770 01d5 37       		.byte	0x37
 771 01d6 07       		.byte	0x7
 772 01d7 39000000 		.4byte	0x39
 773 01db 04       		.byte	0x4
 774 01dc 01       		.uleb128 0x1
 775 01dd FC040000 		.4byte	.LASF34
 776 01e1 05       		.byte	0x5
 777 01e2 37       		.byte	0x37
 778 01e3 0B       		.byte	0xb
 779 01e4 39000000 		.4byte	0x39
 780 01e8 08       		.byte	0x8
 781 01e9 01       		.uleb128 0x1
 782 01ea 51020000 		.4byte	.LASF35
 783 01ee 05       		.byte	0x5
 784 01ef 37       		.byte	0x37
 785 01f0 14       		.byte	0x14
 786 01f1 39000000 		.4byte	0x39
 787 01f5 0C       		.byte	0xc
 788 01f6 01       		.uleb128 0x1
 789 01f7 DE010000 		.4byte	.LASF36
 790 01fb 05       		.byte	0x5
 791 01fc 37       		.byte	0x37
 792 01fd 1B       		.byte	0x1b
 793 01fe 39000000 		.4byte	0x39
ARM GAS  C:\Users\DEVELO~1\AppData\Local\Temp\ccG9oqmd.s 			page 15


 794 0202 10       		.byte	0x10
 795 0203 0A       		.uleb128 0xa
 796 0204 5F7800   		.ascii	"_x\000"
 797 0207 38       		.byte	0x38
 798 0208 0B       		.byte	0xb
 799 0209 14020000 		.4byte	0x214
 800 020d 14       		.byte	0x14
 801 020e 00       		.byte	0
 802 020f 06       		.uleb128 0x6
 803 0210 B8010000 		.4byte	0x1b8
 804 0214 08       		.uleb128 0x8
 805 0215 8A010000 		.4byte	0x18a
 806 0219 24020000 		.4byte	0x224
 807 021d 09       		.uleb128 0x9
 808 021e 32000000 		.4byte	0x32
 809 0222 00       		.byte	0
 810 0223 00       		.byte	0
 811 0224 0C       		.uleb128 0xc
 812 0225 9D020000 		.4byte	.LASF38
 813 0229 24       		.byte	0x24
 814 022a 05       		.byte	0x5
 815 022b 3C       		.byte	0x3c
 816 022c A6020000 		.4byte	0x2a6
 817 0230 01       		.uleb128 0x1
 818 0231 DF000000 		.4byte	.LASF39
 819 0235 05       		.byte	0x5
 820 0236 3E       		.byte	0x3e
 821 0237 09       		.byte	0x9
 822 0238 39000000 		.4byte	0x39
 823 023c 00       		.byte	0
 824 023d 01       		.uleb128 0x1
 825 023e 6D060000 		.4byte	.LASF40
 826 0242 05       		.byte	0x5
 827 0243 3F       		.byte	0x3f
 828 0244 09       		.byte	0x9
 829 0245 39000000 		.4byte	0x39
 830 0249 04       		.byte	0x4
 831 024a 01       		.uleb128 0x1
 832 024b 20010000 		.4byte	.LASF41
 833 024f 05       		.byte	0x5
 834 0250 40       		.byte	0x40
 835 0251 09       		.byte	0x9
 836 0252 39000000 		.4byte	0x39
 837 0256 08       		.byte	0x8
 838 0257 01       		.uleb128 0x1
 839 0258 95060000 		.4byte	.LASF42
 840 025c 05       		.byte	0x5
 841 025d 41       		.byte	0x41
 842 025e 09       		.byte	0x9
 843 025f 39000000 		.4byte	0x39
 844 0263 0C       		.byte	0xc
 845 0264 01       		.uleb128 0x1
 846 0265 1E040000 		.4byte	.LASF43
 847 0269 05       		.byte	0x5
 848 026a 42       		.byte	0x42
 849 026b 09       		.byte	0x9
 850 026c 39000000 		.4byte	0x39
ARM GAS  C:\Users\DEVELO~1\AppData\Local\Temp\ccG9oqmd.s 			page 16


 851 0270 10       		.byte	0x10
 852 0271 01       		.uleb128 0x1
 853 0272 D5030000 		.4byte	.LASF44
 854 0276 05       		.byte	0x5
 855 0277 43       		.byte	0x43
 856 0278 09       		.byte	0x9
 857 0279 39000000 		.4byte	0x39
 858 027d 14       		.byte	0x14
 859 027e 01       		.uleb128 0x1
 860 027f 0F060000 		.4byte	.LASF45
 861 0283 05       		.byte	0x5
 862 0284 44       		.byte	0x44
 863 0285 09       		.byte	0x9
 864 0286 39000000 		.4byte	0x39
 865 028a 18       		.byte	0x18
 866 028b 01       		.uleb128 0x1
 867 028c 92040000 		.4byte	.LASF46
 868 0290 05       		.byte	0x5
 869 0291 45       		.byte	0x45
 870 0292 09       		.byte	0x9
 871 0293 39000000 		.4byte	0x39
 872 0297 1C       		.byte	0x1c
 873 0298 01       		.uleb128 0x1
 874 0299 53060000 		.4byte	.LASF47
 875 029d 05       		.byte	0x5
 876 029e 46       		.byte	0x46
 877 029f 09       		.byte	0x9
 878 02a0 39000000 		.4byte	0x39
 879 02a4 20       		.byte	0x20
 880 02a5 00       		.byte	0
 881 02a6 0C       		.uleb128 0xc
 882 02a7 8E060000 		.4byte	.LASF48
 883 02ab 08       		.byte	0x8
 884 02ac 05       		.byte	0x5
 885 02ad 73       		.byte	0x73
 886 02ae CD020000 		.4byte	0x2cd
 887 02b2 01       		.uleb128 0x1
 888 02b3 1A010000 		.4byte	.LASF49
 889 02b7 05       		.byte	0x5
 890 02b8 74       		.byte	0x74
 891 02b9 11       		.byte	0x11
 892 02ba CD020000 		.4byte	0x2cd
 893 02be 00       		.byte	0
 894 02bf 01       		.uleb128 0x1
 895 02c0 8D050000 		.4byte	.LASF50
 896 02c4 05       		.byte	0x5
 897 02c5 75       		.byte	0x75
 898 02c6 06       		.byte	0x6
 899 02c7 39000000 		.4byte	0x39
 900 02cb 04       		.byte	0x4
 901 02cc 00       		.byte	0
 902 02cd 06       		.uleb128 0x6
 903 02ce 62000000 		.4byte	0x62
 904 02d2 0C       		.uleb128 0xc
 905 02d3 BE040000 		.4byte	.LASF51
 906 02d7 68       		.byte	0x68
 907 02d8 05       		.byte	0x5
ARM GAS  C:\Users\DEVELO~1\AppData\Local\Temp\ccG9oqmd.s 			page 17


 908 02d9 93       		.byte	0x93
 909 02da 0C040000 		.4byte	0x40c
 910 02de 0A       		.uleb128 0xa
 911 02df 5F7000   		.ascii	"_p\000"
 912 02e2 94       		.byte	0x94
 913 02e3 12       		.byte	0x12
 914 02e4 CD020000 		.4byte	0x2cd
 915 02e8 00       		.byte	0
 916 02e9 0A       		.uleb128 0xa
 917 02ea 5F7200   		.ascii	"_r\000"
 918 02ed 95       		.byte	0x95
 919 02ee 07       		.byte	0x7
 920 02ef 39000000 		.4byte	0x39
 921 02f3 04       		.byte	0x4
 922 02f4 0A       		.uleb128 0xa
 923 02f5 5F7700   		.ascii	"_w\000"
 924 02f8 96       		.byte	0x96
 925 02f9 07       		.byte	0x7
 926 02fa 39000000 		.4byte	0x39
 927 02fe 08       		.byte	0x8
 928 02ff 01       		.uleb128 0x1
 929 0300 D7010000 		.4byte	.LASF52
 930 0304 05       		.byte	0x5
 931 0305 97       		.byte	0x97
 932 0306 09       		.byte	0x9
 933 0307 69000000 		.4byte	0x69
 934 030b 0C       		.byte	0xc
 935 030c 01       		.uleb128 0x1
 936 030d D5020000 		.4byte	.LASF53
 937 0311 05       		.byte	0x5
 938 0312 98       		.byte	0x98
 939 0313 09       		.byte	0x9
 940 0314 69000000 		.4byte	0x69
 941 0318 0E       		.byte	0xe
 942 0319 0A       		.uleb128 0xa
 943 031a 5F626600 		.ascii	"_bf\000"
 944 031e 99       		.byte	0x99
 945 031f 11       		.byte	0x11
 946 0320 A6020000 		.4byte	0x2a6
 947 0324 10       		.byte	0x10
 948 0325 01       		.uleb128 0x1
 949 0326 A4000000 		.4byte	.LASF54
 950 032a 05       		.byte	0x5
 951 032b 9A       		.byte	0x9a
 952 032c 07       		.byte	0x7
 953 032d 39000000 		.4byte	0x39
 954 0331 18       		.byte	0x18
 955 0332 01       		.uleb128 0x1
 956 0333 BB010000 		.4byte	.LASF55
 957 0337 05       		.byte	0x5
 958 0338 A1       		.byte	0xa1
 959 0339 0A       		.byte	0xa
 960 033a 7C010000 		.4byte	0x17c
 961 033e 1C       		.byte	0x1c
 962 033f 01       		.uleb128 0x1
 963 0340 61040000 		.4byte	.LASF56
 964 0344 05       		.byte	0x5
ARM GAS  C:\Users\DEVELO~1\AppData\Local\Temp\ccG9oqmd.s 			page 18


 965 0345 A3       		.byte	0xa3
 966 0346 1D       		.byte	0x1d
 967 0347 22050000 		.4byte	0x522
 968 034b 20       		.byte	0x20
 969 034c 01       		.uleb128 0x1
 970 034d CE030000 		.4byte	.LASF57
 971 0351 05       		.byte	0x5
 972 0352 A5       		.byte	0xa5
 973 0353 1D       		.byte	0x1d
 974 0354 4A050000 		.4byte	0x54a
 975 0358 24       		.byte	0x24
 976 0359 01       		.uleb128 0x1
 977 035a 30050000 		.4byte	.LASF58
 978 035e 05       		.byte	0x5
 979 035f A8       		.byte	0xa8
 980 0360 0D       		.byte	0xd
 981 0361 6D050000 		.4byte	0x56d
 982 0365 28       		.byte	0x28
 983 0366 01       		.uleb128 0x1
 984 0367 F3000000 		.4byte	.LASF59
 985 036b 05       		.byte	0x5
 986 036c A9       		.byte	0xa9
 987 036d 09       		.byte	0x9
 988 036e 86050000 		.4byte	0x586
 989 0372 2C       		.byte	0x2c
 990 0373 0A       		.uleb128 0xa
 991 0374 5F756200 		.ascii	"_ub\000"
 992 0378 AC       		.byte	0xac
 993 0379 11       		.byte	0x11
 994 037a A6020000 		.4byte	0x2a6
 995 037e 30       		.byte	0x30
 996 037f 0A       		.uleb128 0xa
 997 0380 5F757000 		.ascii	"_up\000"
 998 0384 AD       		.byte	0xad
 999 0385 12       		.byte	0x12
 1000 0386 CD020000 		.4byte	0x2cd
 1001 038a 38       		.byte	0x38
 1002 038b 0A       		.uleb128 0xa
 1003 038c 5F757200 		.ascii	"_ur\000"
 1004 0390 AE       		.byte	0xae
 1005 0391 07       		.byte	0x7
 1006 0392 39000000 		.4byte	0x39
 1007 0396 3C       		.byte	0x3c
 1008 0397 01       		.uleb128 0x1
 1009 0398 E3010000 		.4byte	.LASF60
 1010 039c 05       		.byte	0x5
 1011 039d B1       		.byte	0xb1
 1012 039e 11       		.byte	0x11
 1013 039f 8B050000 		.4byte	0x58b
 1014 03a3 40       		.byte	0x40
 1015 03a4 01       		.uleb128 0x1
 1016 03a5 4D060000 		.4byte	.LASF61
 1017 03a9 05       		.byte	0x5
 1018 03aa B2       		.byte	0xb2
 1019 03ab 11       		.byte	0x11
 1020 03ac 9B050000 		.4byte	0x59b
 1021 03b0 43       		.byte	0x43
ARM GAS  C:\Users\DEVELO~1\AppData\Local\Temp\ccG9oqmd.s 			page 19


 1022 03b1 0A       		.uleb128 0xa
 1023 03b2 5F6C6200 		.ascii	"_lb\000"
 1024 03b6 B5       		.byte	0xb5
 1025 03b7 11       		.byte	0x11
 1026 03b8 A6020000 		.4byte	0x2a6
 1027 03bc 44       		.byte	0x44
 1028 03bd 01       		.uleb128 0x1
 1029 03be 8D020000 		.4byte	.LASF62
 1030 03c2 05       		.byte	0x5
 1031 03c3 B8       		.byte	0xb8
 1032 03c4 07       		.byte	0x7
 1033 03c5 39000000 		.4byte	0x39
 1034 03c9 4C       		.byte	0x4c
 1035 03ca 01       		.uleb128 0x1
 1036 03cb F0030000 		.4byte	.LASF63
 1037 03cf 05       		.byte	0x5
 1038 03d0 B9       		.byte	0xb9
 1039 03d1 0A       		.byte	0xa
 1040 03d2 BC000000 		.4byte	0xbc
 1041 03d6 50       		.byte	0x50
 1042 03d7 01       		.uleb128 0x1
 1043 03d8 5D000000 		.4byte	.LASF64
 1044 03dc 05       		.byte	0x5
 1045 03dd BC       		.byte	0xbc
 1046 03de 12       		.byte	0x12
 1047 03df 2A040000 		.4byte	0x42a
 1048 03e3 54       		.byte	0x54
 1049 03e4 01       		.uleb128 0x1
 1050 03e5 B1030000 		.4byte	.LASF65
 1051 03e9 05       		.byte	0x5
 1052 03ea C0       		.byte	0xc0
 1053 03eb 0C       		.byte	0xc
 1054 03ec AC010000 		.4byte	0x1ac
 1055 03f0 58       		.byte	0x58
 1056 03f1 01       		.uleb128 0x1
 1057 03f2 A2020000 		.4byte	.LASF66
 1058 03f6 05       		.byte	0x5
 1059 03f7 C2       		.byte	0xc2
 1060 03f8 0E       		.byte	0xe
 1061 03f9 70010000 		.4byte	0x170
 1062 03fd 5C       		.byte	0x5c
 1063 03fe 01       		.uleb128 0x1
 1064 03ff DB020000 		.4byte	.LASF67
 1065 0403 05       		.byte	0x5
 1066 0404 C3       		.byte	0xc3
 1067 0405 09       		.byte	0x9
 1068 0406 39000000 		.4byte	0x39
 1069 040a 64       		.byte	0x64
 1070 040b 00       		.byte	0
 1071 040c 0E       		.uleb128 0xe
 1072 040d 39000000 		.4byte	0x39
 1073 0411 2A040000 		.4byte	0x42a
 1074 0415 04       		.uleb128 0x4
 1075 0416 2A040000 		.4byte	0x42a
 1076 041a 04       		.uleb128 0x4
 1077 041b 7C010000 		.4byte	0x17c
 1078 041f 04       		.uleb128 0x4
ARM GAS  C:\Users\DEVELO~1\AppData\Local\Temp\ccG9oqmd.s 			page 20


 1079 0420 11050000 		.4byte	0x511
 1080 0424 04       		.uleb128 0x4
 1081 0425 39000000 		.4byte	0x39
 1082 0429 00       		.byte	0
 1083 042a 06       		.uleb128 0x6
 1084 042b 2F040000 		.4byte	0x42f
 1085 042f 1B       		.uleb128 0x1b
 1086 0430 04050000 		.4byte	.LASF68
 1087 0434 2001     		.2byte	0x120
 1088 0436 05       		.byte	0x5
 1089 0437 2702     		.2byte	0x227
 1090 0439 08       		.byte	0x8
 1091 043a 11050000 		.4byte	0x511
 1092 043e 02       		.uleb128 0x2
 1093 043f 77050000 		.4byte	.LASF69
 1094 0443 2902     		.2byte	0x229
 1095 0445 07       		.byte	0x7
 1096 0446 39000000 		.4byte	0x39
 1097 044a 00       		.byte	0
 1098 044b 02       		.uleb128 0x2
 1099 044c 20060000 		.4byte	.LASF70
 1100 0450 2E02     		.2byte	0x22e
 1101 0452 0B       		.byte	0xb
 1102 0453 B7050000 		.4byte	0x5b7
 1103 0457 04       		.byte	0x4
 1104 0458 02       		.uleb128 0x2
 1105 0459 07060000 		.4byte	.LASF71
 1106 045d 2E02     		.2byte	0x22e
 1107 045f 14       		.byte	0x14
 1108 0460 B7050000 		.4byte	0x5b7
 1109 0464 08       		.byte	0x8
 1110 0465 02       		.uleb128 0x2
 1111 0466 60020000 		.4byte	.LASF72
 1112 046a 2E02     		.2byte	0x22e
 1113 046c 1E       		.byte	0x1e
 1114 046d B7050000 		.4byte	0x5b7
 1115 0471 0C       		.byte	0xc
 1116 0472 02       		.uleb128 0x2
 1117 0473 E5040000 		.4byte	.LASF73
 1118 0477 3002     		.2byte	0x230
 1119 0479 08       		.byte	0x8
 1120 047a 39000000 		.4byte	0x39
 1121 047e 10       		.byte	0x10
 1122 047f 02       		.uleb128 0x2
 1123 0480 39000000 		.4byte	.LASF74
 1124 0484 3102     		.2byte	0x231
 1125 0486 08       		.byte	0x8
 1126 0487 3F070000 		.4byte	0x73f
 1127 048b 14       		.byte	0x14
 1128 048c 02       		.uleb128 0x2
 1129 048d EA040000 		.4byte	.LASF75
 1130 0491 3602     		.2byte	0x236
 1131 0493 16       		.byte	0x16
 1132 0494 54070000 		.4byte	0x754
 1133 0498 30       		.byte	0x30
 1134 0499 02       		.uleb128 0x2
 1135 049a F2040000 		.4byte	.LASF76
ARM GAS  C:\Users\DEVELO~1\AppData\Local\Temp\ccG9oqmd.s 			page 21


 1136 049e 3C02     		.2byte	0x23c
 1137 04a0 0A       		.byte	0xa
 1138 04a1 64070000 		.4byte	0x764
 1139 04a5 34       		.byte	0x34
 1140 04a6 02       		.uleb128 0x2
 1141 04a7 90030000 		.4byte	.LASF77
 1142 04ab 3F02     		.2byte	0x23f
 1143 04ad 13       		.byte	0x13
 1144 04ae 0F020000 		.4byte	0x20f
 1145 04b2 38       		.byte	0x38
 1146 04b3 02       		.uleb128 0x2
 1147 04b4 E9010000 		.4byte	.LASF78
 1148 04b8 4002     		.2byte	0x240
 1149 04ba 07       		.byte	0x7
 1150 04bb 39000000 		.4byte	0x39
 1151 04bf 3C       		.byte	0x3c
 1152 04c0 02       		.uleb128 0x2
 1153 04c1 89060000 		.4byte	.LASF79
 1154 04c5 4102     		.2byte	0x241
 1155 04c7 13       		.byte	0x13
 1156 04c8 0F020000 		.4byte	0x20f
 1157 04cc 40       		.byte	0x40
 1158 04cd 02       		.uleb128 0x2
 1159 04ce 49040000 		.4byte	.LASF80
 1160 04d2 4202     		.2byte	0x242
 1161 04d4 14       		.byte	0x14
 1162 04d5 69070000 		.4byte	0x769
 1163 04d9 44       		.byte	0x44
 1164 04da 02       		.uleb128 0x2
 1165 04db BB020000 		.4byte	.LASF81
 1166 04df 4502     		.2byte	0x245
 1167 04e1 07       		.byte	0x7
 1168 04e2 39000000 		.4byte	0x39
 1169 04e6 48       		.byte	0x48
 1170 04e7 02       		.uleb128 0x2
 1171 04e8 11020000 		.4byte	.LASF82
 1172 04ec 4602     		.2byte	0x246
 1173 04ee 09       		.byte	0x9
 1174 04ef 11050000 		.4byte	0x511
 1175 04f3 4C       		.byte	0x4c
 1176 04f4 02       		.uleb128 0x2
 1177 04f5 84040000 		.4byte	.LASF83
 1178 04f9 6902     		.2byte	0x269
 1179 04fb 07       		.byte	0x7
 1180 04fc 27070000 		.4byte	0x727
 1181 0500 50       		.byte	0x50
 1182 0501 1C       		.uleb128 0x1c
 1183 0502 31060000 		.4byte	.LASF84
 1184 0506 05       		.byte	0x5
 1185 0507 7102     		.2byte	0x271
 1186 0509 0B       		.byte	0xb
 1187 050a 79070000 		.4byte	0x779
 1188 050e 1801     		.2byte	0x118
 1189 0510 00       		.byte	0
 1190 0511 06       		.uleb128 0x6
 1191 0512 16050000 		.4byte	0x516
 1192 0516 07       		.uleb128 0x7
ARM GAS  C:\Users\DEVELO~1\AppData\Local\Temp\ccG9oqmd.s 			page 22


 1193 0517 01       		.byte	0x1
 1194 0518 08       		.byte	0x8
 1195 0519 7E050000 		.4byte	.LASF85
 1196 051d 12       		.uleb128 0x12
 1197 051e 16050000 		.4byte	0x516
 1198 0522 06       		.uleb128 0x6
 1199 0523 0C040000 		.4byte	0x40c
 1200 0527 0E       		.uleb128 0xe
 1201 0528 39000000 		.4byte	0x39
 1202 052c 45050000 		.4byte	0x545
 1203 0530 04       		.uleb128 0x4
 1204 0531 2A040000 		.4byte	0x42a
 1205 0535 04       		.uleb128 0x4
 1206 0536 7C010000 		.4byte	0x17c
 1207 053a 04       		.uleb128 0x4
 1208 053b 45050000 		.4byte	0x545
 1209 053f 04       		.uleb128 0x4
 1210 0540 39000000 		.4byte	0x39
 1211 0544 00       		.byte	0
 1212 0545 06       		.uleb128 0x6
 1213 0546 1D050000 		.4byte	0x51d
 1214 054a 06       		.uleb128 0x6
 1215 054b 27050000 		.4byte	0x527
 1216 054f 0E       		.uleb128 0xe
 1217 0550 10010000 		.4byte	0x110
 1218 0554 6D050000 		.4byte	0x56d
 1219 0558 04       		.uleb128 0x4
 1220 0559 2A040000 		.4byte	0x42a
 1221 055d 04       		.uleb128 0x4
 1222 055e 7C010000 		.4byte	0x17c
 1223 0562 04       		.uleb128 0x4
 1224 0563 10010000 		.4byte	0x110
 1225 0567 04       		.uleb128 0x4
 1226 0568 39000000 		.4byte	0x39
 1227 056c 00       		.byte	0
 1228 056d 06       		.uleb128 0x6
 1229 056e 4F050000 		.4byte	0x54f
 1230 0572 0E       		.uleb128 0xe
 1231 0573 39000000 		.4byte	0x39
 1232 0577 86050000 		.4byte	0x586
 1233 057b 04       		.uleb128 0x4
 1234 057c 2A040000 		.4byte	0x42a
 1235 0580 04       		.uleb128 0x4
 1236 0581 7C010000 		.4byte	0x17c
 1237 0585 00       		.byte	0
 1238 0586 06       		.uleb128 0x6
 1239 0587 72050000 		.4byte	0x572
 1240 058b 08       		.uleb128 0x8
 1241 058c 62000000 		.4byte	0x62
 1242 0590 9B050000 		.4byte	0x59b
 1243 0594 09       		.uleb128 0x9
 1244 0595 32000000 		.4byte	0x32
 1245 0599 02       		.byte	0x2
 1246 059a 00       		.byte	0
 1247 059b 08       		.uleb128 0x8
 1248 059c 62000000 		.4byte	0x62
 1249 05a0 AB050000 		.4byte	0x5ab
ARM GAS  C:\Users\DEVELO~1\AppData\Local\Temp\ccG9oqmd.s 			page 23


 1250 05a4 09       		.uleb128 0x9
 1251 05a5 32000000 		.4byte	0x32
 1252 05a9 00       		.byte	0
 1253 05aa 00       		.byte	0
 1254 05ab 03       		.uleb128 0x3
 1255 05ac AC040000 		.4byte	.LASF86
 1256 05b0 05       		.byte	0x5
 1257 05b1 FD       		.byte	0xfd
 1258 05b2 1A       		.byte	0x1a
 1259 05b3 D2020000 		.4byte	0x2d2
 1260 05b7 06       		.uleb128 0x6
 1261 05b8 AB050000 		.4byte	0x5ab
 1262 05bc 1D       		.uleb128 0x1d
 1263 05bd 2A000000 		.4byte	.LASF87
 1264 05c1 0E       		.byte	0xe
 1265 05c2 05       		.byte	0x5
 1266 05c3 2101     		.2byte	0x121
 1267 05c5 08       		.byte	0x8
 1268 05c6 F2050000 		.4byte	0x5f2
 1269 05ca 02       		.uleb128 0x2
 1270 05cb 13050000 		.4byte	.LASF88
 1271 05cf 2201     		.2byte	0x122
 1272 05d1 12       		.byte	0x12
 1273 05d2 F2050000 		.4byte	0x5f2
 1274 05d6 00       		.byte	0
 1275 05d7 02       		.uleb128 0x2
 1276 05d8 C0030000 		.4byte	.LASF89
 1277 05dc 2301     		.2byte	0x123
 1278 05de 12       		.byte	0x12
 1279 05df F2050000 		.4byte	0x5f2
 1280 05e3 06       		.byte	0x6
 1281 05e4 02       		.uleb128 0x2
 1282 05e5 D2050000 		.4byte	.LASF90
 1283 05e9 2401     		.2byte	0x124
 1284 05eb 12       		.byte	0x12
 1285 05ec 70000000 		.4byte	0x70
 1286 05f0 0C       		.byte	0xc
 1287 05f1 00       		.byte	0
 1288 05f2 08       		.uleb128 0x8
 1289 05f3 70000000 		.4byte	0x70
 1290 05f7 02060000 		.4byte	0x602
 1291 05fb 09       		.uleb128 0x9
 1292 05fc 32000000 		.4byte	0x32
 1293 0600 02       		.byte	0x2
 1294 0601 00       		.byte	0
 1295 0602 1E       		.uleb128 0x1e
 1296 0603 C8       		.byte	0xc8
 1297 0604 05       		.byte	0x5
 1298 0605 4A02     		.2byte	0x24a
 1299 0607 07       		.byte	0x7
 1300 0608 F7060000 		.4byte	0x6f7
 1301 060c 02       		.uleb128 0x2
 1302 060d BF050000 		.4byte	.LASF91
 1303 0611 4F02     		.2byte	0x24f
 1304 0613 12       		.byte	0x12
 1305 0614 11050000 		.4byte	0x511
 1306 0618 00       		.byte	0
ARM GAS  C:\Users\DEVELO~1\AppData\Local\Temp\ccG9oqmd.s 			page 24


 1307 0619 02       		.uleb128 0x2
 1308 061a 83030000 		.4byte	.LASF92
 1309 061e 5002     		.2byte	0x250
 1310 0620 10       		.byte	0x10
 1311 0621 F7060000 		.4byte	0x6f7
 1312 0625 04       		.byte	0x4
 1313 0626 02       		.uleb128 0x2
 1314 0627 5E060000 		.4byte	.LASF93
 1315 062b 5102     		.2byte	0x251
 1316 062d 17       		.byte	0x17
 1317 062e 24020000 		.4byte	0x224
 1318 0632 20       		.byte	0x20
 1319 0633 02       		.uleb128 0x2
 1320 0634 70020000 		.4byte	.LASF94
 1321 0638 5202     		.2byte	0x252
 1322 063a 0F       		.byte	0xf
 1323 063b 39000000 		.4byte	0x39
 1324 063f 44       		.byte	0x44
 1325 0640 02       		.uleb128 0x2
 1326 0641 9F060000 		.4byte	.LASF95
 1327 0645 5302     		.2byte	0x253
 1328 0647 2C       		.byte	0x2c
 1329 0648 91000000 		.4byte	0x91
 1330 064c 48       		.byte	0x48
 1331 064d 02       		.uleb128 0x2
 1332 064e 76060000 		.4byte	.LASF96
 1333 0652 5402     		.2byte	0x254
 1334 0654 1A       		.byte	0x1a
 1335 0655 BC050000 		.4byte	0x5bc
 1336 0659 50       		.byte	0x50
 1337 065a 02       		.uleb128 0x2
 1338 065b D8040000 		.4byte	.LASF97
 1339 065f 5502     		.2byte	0x255
 1340 0661 16       		.byte	0x16
 1341 0662 70010000 		.4byte	0x170
 1342 0666 60       		.byte	0x60
 1343 0667 02       		.uleb128 0x2
 1344 0668 7B060000 		.4byte	.LASF98
 1345 066c 5602     		.2byte	0x256
 1346 066e 16       		.byte	0x16
 1347 066f 70010000 		.4byte	0x170
 1348 0673 68       		.byte	0x68
 1349 0674 02       		.uleb128 0x2
 1350 0675 53040000 		.4byte	.LASF99
 1351 0679 5702     		.2byte	0x257
 1352 067b 16       		.byte	0x16
 1353 067c 70010000 		.4byte	0x170
 1354 0680 70       		.byte	0x70
 1355 0681 02       		.uleb128 0x2
 1356 0682 27060000 		.4byte	.LASF100
 1357 0686 5802     		.2byte	0x258
 1358 0688 10       		.byte	0x10
 1359 0689 07070000 		.4byte	0x707
 1360 068d 78       		.byte	0x78
 1361 068e 02       		.uleb128 0x2
 1362 068f 77030000 		.4byte	.LASF101
 1363 0693 5902     		.2byte	0x259
ARM GAS  C:\Users\DEVELO~1\AppData\Local\Temp\ccG9oqmd.s 			page 25


 1364 0695 10       		.byte	0x10
 1365 0696 17070000 		.4byte	0x717
 1366 069a 80       		.byte	0x80
 1367 069b 02       		.uleb128 0x2
 1368 069c 50000000 		.4byte	.LASF102
 1369 06a0 5A02     		.2byte	0x25a
 1370 06a2 0F       		.byte	0xf
 1371 06a3 39000000 		.4byte	0x39
 1372 06a7 98       		.byte	0x98
 1373 06a8 02       		.uleb128 0x2
 1374 06a9 2A020000 		.4byte	.LASF103
 1375 06ad 5B02     		.2byte	0x25b
 1376 06af 16       		.byte	0x16
 1377 06b0 70010000 		.4byte	0x170
 1378 06b4 9C       		.byte	0x9c
 1379 06b5 02       		.uleb128 0x2
 1380 06b6 B8000000 		.4byte	.LASF104
 1381 06ba 5C02     		.2byte	0x25c
 1382 06bc 16       		.byte	0x16
 1383 06bd 70010000 		.4byte	0x170
 1384 06c1 A4       		.byte	0xa4
 1385 06c2 02       		.uleb128 0x2
 1386 06c3 19020000 		.4byte	.LASF105
 1387 06c7 5D02     		.2byte	0x25d
 1388 06c9 16       		.byte	0x16
 1389 06ca 70010000 		.4byte	0x170
 1390 06ce AC       		.byte	0xac
 1391 06cf 02       		.uleb128 0x2
 1392 06d0 63000000 		.4byte	.LASF106
 1393 06d4 5E02     		.2byte	0x25e
 1394 06d6 16       		.byte	0x16
 1395 06d7 70010000 		.4byte	0x170
 1396 06db B4       		.byte	0xb4
 1397 06dc 02       		.uleb128 0x2
 1398 06dd 72000000 		.4byte	.LASF107
 1399 06e1 5F02     		.2byte	0x25f
 1400 06e3 16       		.byte	0x16
 1401 06e4 70010000 		.4byte	0x170
 1402 06e8 BC       		.byte	0xbc
 1403 06e9 02       		.uleb128 0x2
 1404 06ea 89040000 		.4byte	.LASF108
 1405 06ee 6002     		.2byte	0x260
 1406 06f0 08       		.byte	0x8
 1407 06f1 39000000 		.4byte	0x39
 1408 06f5 C4       		.byte	0xc4
 1409 06f6 00       		.byte	0
 1410 06f7 08       		.uleb128 0x8
 1411 06f8 16050000 		.4byte	0x516
 1412 06fc 07070000 		.4byte	0x707
 1413 0700 09       		.uleb128 0x9
 1414 0701 32000000 		.4byte	0x32
 1415 0705 19       		.byte	0x19
 1416 0706 00       		.byte	0
 1417 0707 08       		.uleb128 0x8
 1418 0708 16050000 		.4byte	0x516
 1419 070c 17070000 		.4byte	0x717
 1420 0710 09       		.uleb128 0x9
ARM GAS  C:\Users\DEVELO~1\AppData\Local\Temp\ccG9oqmd.s 			page 26


 1421 0711 32000000 		.4byte	0x32
 1422 0715 07       		.byte	0x7
 1423 0716 00       		.byte	0
 1424 0717 08       		.uleb128 0x8
 1425 0718 16050000 		.4byte	0x516
 1426 071c 27070000 		.4byte	0x727
 1427 0720 09       		.uleb128 0x9
 1428 0721 32000000 		.4byte	0x32
 1429 0725 17       		.byte	0x17
 1430 0726 00       		.byte	0
 1431 0727 1F       		.uleb128 0x1f
 1432 0728 C8       		.byte	0xc8
 1433 0729 05       		.byte	0x5
 1434 072a 4802     		.2byte	0x248
 1435 072c 03       		.byte	0x3
 1436 072d 3F070000 		.4byte	0x73f
 1437 0731 20       		.uleb128 0x20
 1438 0732 04050000 		.4byte	.LASF68
 1439 0736 05       		.byte	0x5
 1440 0737 6102     		.2byte	0x261
 1441 0739 0B       		.byte	0xb
 1442 073a 02060000 		.4byte	0x602
 1443 073e 00       		.byte	0
 1444 073f 08       		.uleb128 0x8
 1445 0740 16050000 		.4byte	0x516
 1446 0744 4F070000 		.4byte	0x74f
 1447 0748 09       		.uleb128 0x9
 1448 0749 32000000 		.4byte	0x32
 1449 074d 18       		.byte	0x18
 1450 074e 00       		.byte	0
 1451 074f 11       		.uleb128 0x11
 1452 0750 AD000000 		.4byte	.LASF110
 1453 0754 06       		.uleb128 0x6
 1454 0755 4F070000 		.4byte	0x74f
 1455 0759 13       		.uleb128 0x13
 1456 075a 64070000 		.4byte	0x764
 1457 075e 04       		.uleb128 0x4
 1458 075f 2A040000 		.4byte	0x42a
 1459 0763 00       		.byte	0
 1460 0764 06       		.uleb128 0x6
 1461 0765 59070000 		.4byte	0x759
 1462 0769 06       		.uleb128 0x6
 1463 076a 0F020000 		.4byte	0x20f
 1464 076e 13       		.uleb128 0x13
 1465 076f 79070000 		.4byte	0x779
 1466 0773 04       		.uleb128 0x4
 1467 0774 39000000 		.4byte	0x39
 1468 0778 00       		.byte	0
 1469 0779 06       		.uleb128 0x6
 1470 077a 7E070000 		.4byte	0x77e
 1471 077e 06       		.uleb128 0x6
 1472 077f 6E070000 		.4byte	0x76e
 1473 0783 03       		.uleb128 0x3
 1474 0784 42040000 		.4byte	.LASF111
 1475 0788 07       		.byte	0x7
 1476 0789 2A       		.byte	0x2a
 1477 078a 12       		.byte	0x12
ARM GAS  C:\Users\DEVELO~1\AppData\Local\Temp\ccG9oqmd.s 			page 27


 1478 078b 98000000 		.4byte	0x98
 1479 078f 0C       		.uleb128 0xc
 1480 0790 C6040000 		.4byte	.LASF112
 1481 0794 10       		.byte	0x10
 1482 0795 08       		.byte	0x8
 1483 0796 2F       		.byte	0x2f
 1484 0797 B6070000 		.4byte	0x7b6
 1485 079b 01       		.uleb128 0x1
 1486 079c F8030000 		.4byte	.LASF113
 1487 07a0 08       		.byte	0x8
 1488 07a1 30       		.byte	0x30
 1489 07a2 09       		.byte	0x9
 1490 07a3 83070000 		.4byte	0x783
 1491 07a7 00       		.byte	0
 1492 07a8 01       		.uleb128 0x1
 1493 07a9 E8030000 		.4byte	.LASF114
 1494 07ad 08       		.byte	0x8
 1495 07ae 31       		.byte	0x31
 1496 07af 07       		.byte	0x7
 1497 07b0 77000000 		.4byte	0x77
 1498 07b4 08       		.byte	0x8
 1499 07b5 00       		.byte	0
 1500 07b6 03       		.uleb128 0x3
 1501 07b7 B2020000 		.4byte	.LASF115
 1502 07bb 09       		.byte	0x9
 1503 07bc 61       		.byte	0x61
 1504 07bd 14       		.byte	0x14
 1505 07be A4000000 		.4byte	0xa4
 1506 07c2 03       		.uleb128 0x3
 1507 07c3 3B060000 		.4byte	.LASF116
 1508 07c7 09       		.byte	0x9
 1509 07c8 66       		.byte	0x66
 1510 07c9 15       		.byte	0x15
 1511 07ca B0000000 		.4byte	0xb0
 1512 07ce 03       		.uleb128 0x3
 1513 07cf 40050000 		.4byte	.LASF117
 1514 07d3 09       		.byte	0x9
 1515 07d4 79       		.byte	0x79
 1516 07d5 10       		.byte	0x10
 1517 07d6 11050000 		.4byte	0x511
 1518 07da 03       		.uleb128 0x3
 1519 07db AA060000 		.4byte	.LASF118
 1520 07df 09       		.byte	0x9
 1521 07e0 89       		.byte	0x89
 1522 07e1 12       		.byte	0x12
 1523 07e2 EC000000 		.4byte	0xec
 1524 07e6 03       		.uleb128 0x3
 1525 07e7 40020000 		.4byte	.LASF119
 1526 07eb 09       		.byte	0x9
 1527 07ec 9B       		.byte	0x9b
 1528 07ed 12       		.byte	0x12
 1529 07ee 04010000 		.4byte	0x104
 1530 07f2 03       		.uleb128 0x3
 1531 07f3 7F020000 		.4byte	.LASF120
 1532 07f7 09       		.byte	0x9
 1533 07f8 9F       		.byte	0x9f
 1534 07f9 12       		.byte	0x12
ARM GAS  C:\Users\DEVELO~1\AppData\Local\Temp\ccG9oqmd.s 			page 28


 1535 07fa C8000000 		.4byte	0xc8
 1536 07fe 03       		.uleb128 0x3
 1537 07ff 42030000 		.4byte	.LASF121
 1538 0803 09       		.byte	0x9
 1539 0804 A3       		.byte	0xa3
 1540 0805 12       		.byte	0x12
 1541 0806 D4000000 		.4byte	0xd4
 1542 080a 03       		.uleb128 0x3
 1543 080b 46020000 		.4byte	.LASF122
 1544 080f 09       		.byte	0x9
 1545 0810 A7       		.byte	0xa7
 1546 0811 12       		.byte	0x12
 1547 0812 E0000000 		.4byte	0xe0
 1548 0816 03       		.uleb128 0x3
 1549 0817 32000000 		.4byte	.LASF123
 1550 081b 09       		.byte	0x9
 1551 081c BB       		.byte	0xbb
 1552 081d 12       		.byte	0x12
 1553 081e F8000000 		.4byte	0xf8
 1554 0822 03       		.uleb128 0x3
 1555 0823 38020000 		.4byte	.LASF124
 1556 0827 09       		.byte	0x9
 1557 0828 C0       		.byte	0xc0
 1558 0829 13       		.byte	0x13
 1559 082a 7E010000 		.4byte	0x17e
 1560 082e 0C       		.uleb128 0xc
 1561 082f E8000000 		.4byte	.LASF125
 1562 0833 58       		.byte	0x58
 1563 0834 0A       		.byte	0xa
 1564 0835 1B       		.byte	0x1b
 1565 0836 F1080000 		.4byte	0x8f1
 1566 083a 01       		.uleb128 0x1
 1567 083b 19060000 		.4byte	.LASF126
 1568 083f 0A       		.byte	0xa
 1569 0840 1D       		.byte	0x1d
 1570 0841 0A       		.byte	0xa
 1571 0842 F2070000 		.4byte	0x7f2
 1572 0846 00       		.byte	0
 1573 0847 01       		.uleb128 0x1
 1574 0848 0A010000 		.4byte	.LASF127
 1575 084c 0A       		.byte	0xa
 1576 084d 1E       		.byte	0x1e
 1577 084e 0A       		.byte	0xa
 1578 084f DA070000 		.4byte	0x7da
 1579 0853 02       		.byte	0x2
 1580 0854 01       		.uleb128 0x1
 1581 0855 FA000000 		.4byte	.LASF128
 1582 0859 0A       		.byte	0xa
 1583 085a 1F       		.byte	0x1f
 1584 085b 0A       		.byte	0xa
 1585 085c 16080000 		.4byte	0x816
 1586 0860 04       		.byte	0x4
 1587 0861 01       		.uleb128 0x1
 1588 0862 67040000 		.4byte	.LASF129
 1589 0866 0A       		.byte	0xa
 1590 0867 20       		.byte	0x20
 1591 0868 0B       		.byte	0xb
ARM GAS  C:\Users\DEVELO~1\AppData\Local\Temp\ccG9oqmd.s 			page 29


 1592 0869 22080000 		.4byte	0x822
 1593 086d 08       		.byte	0x8
 1594 086e 01       		.uleb128 0x1
 1595 086f 96020000 		.4byte	.LASF130
 1596 0873 0A       		.byte	0xa
 1597 0874 21       		.byte	0x21
 1598 0875 0A       		.byte	0xa
 1599 0876 FE070000 		.4byte	0x7fe
 1600 087a 0A       		.byte	0xa
 1601 087b 01       		.uleb128 0x1
 1602 087c D7050000 		.4byte	.LASF131
 1603 0880 0A       		.byte	0xa
 1604 0881 22       		.byte	0x22
 1605 0882 0A       		.byte	0xa
 1606 0883 0A080000 		.4byte	0x80a
 1607 0887 0C       		.byte	0xc
 1608 0888 01       		.uleb128 0x1
 1609 0889 48050000 		.4byte	.LASF132
 1610 088d 0A       		.byte	0xa
 1611 088e 23       		.byte	0x23
 1612 088f 0A       		.byte	0xa
 1613 0890 F2070000 		.4byte	0x7f2
 1614 0894 0E       		.byte	0xe
 1615 0895 01       		.uleb128 0x1
 1616 0896 C6030000 		.4byte	.LASF133
 1617 089a 0A       		.byte	0xa
 1618 089b 24       		.byte	0x24
 1619 089c 0A       		.byte	0xa
 1620 089d E6070000 		.4byte	0x7e6
 1621 08a1 10       		.byte	0x10
 1622 08a2 01       		.uleb128 0x1
 1623 08a3 09020000 		.4byte	.LASF134
 1624 08a7 0A       		.byte	0xa
 1625 08a8 2A       		.byte	0x2a
 1626 08a9 13       		.byte	0x13
 1627 08aa 8F070000 		.4byte	0x78f
 1628 08ae 18       		.byte	0x18
 1629 08af 01       		.uleb128 0x1
 1630 08b0 45060000 		.4byte	.LASF135
 1631 08b4 0A       		.byte	0xa
 1632 08b5 2B       		.byte	0x2b
 1633 08b6 13       		.byte	0x13
 1634 08b7 8F070000 		.4byte	0x78f
 1635 08bb 28       		.byte	0x28
 1636 08bc 01       		.uleb128 0x1
 1637 08bd 1B000000 		.4byte	.LASF136
 1638 08c1 0A       		.byte	0xa
 1639 08c2 2C       		.byte	0x2c
 1640 08c3 13       		.byte	0x13
 1641 08c4 8F070000 		.4byte	0x78f
 1642 08c8 38       		.byte	0x38
 1643 08c9 01       		.uleb128 0x1
 1644 08ca A1040000 		.4byte	.LASF137
 1645 08ce 0A       		.byte	0xa
 1646 08cf 2D       		.byte	0x2d
 1647 08d0 11       		.byte	0x11
 1648 08d1 C2070000 		.4byte	0x7c2
ARM GAS  C:\Users\DEVELO~1\AppData\Local\Temp\ccG9oqmd.s 			page 30


 1649 08d5 48       		.byte	0x48
 1650 08d6 01       		.uleb128 0x1
 1651 08d7 9A000000 		.4byte	.LASF138
 1652 08db 0A       		.byte	0xa
 1653 08dc 2E       		.byte	0x2e
 1654 08dd 0C       		.byte	0xc
 1655 08de B6070000 		.4byte	0x7b6
 1656 08e2 4C       		.byte	0x4c
 1657 08e3 01       		.uleb128 0x1
 1658 08e4 83050000 		.4byte	.LASF139
 1659 08e8 0A       		.byte	0xa
 1660 08e9 30       		.byte	0x30
 1661 08ea 09       		.byte	0x9
 1662 08eb F1080000 		.4byte	0x8f1
 1663 08ef 50       		.byte	0x50
 1664 08f0 00       		.byte	0
 1665 08f1 08       		.uleb128 0x8
 1666 08f2 77000000 		.4byte	0x77
 1667 08f6 01090000 		.4byte	0x901
 1668 08fa 09       		.uleb128 0x9
 1669 08fb 32000000 		.4byte	0x32
 1670 08ff 01       		.byte	0x1
 1671 0900 00       		.byte	0
 1672 0901 07       		.uleb128 0x7
 1673 0902 01       		.byte	0x1
 1674 0903 02       		.byte	0x2
 1675 0904 70040000 		.4byte	.LASF140
 1676 0908 21       		.uleb128 0x21
 1677 0909 A0050000 		.4byte	.LASF158
 1678 090d 0D       		.byte	0xd
 1679 090e 45       		.byte	0x45
 1680 090f 06       		.byte	0x6
 1681 0910 22       		.uleb128 0x22
 1682 0911 F6050000 		.4byte	.LASF159
 1683 0915 0E       		.byte	0xe
 1684 0916 D9       		.byte	0xd9
 1685 0917 08       		.byte	0x8
 1686 0918 22090000 		.4byte	0x922
 1687 091c 04       		.uleb128 0x4
 1688 091d 45050000 		.4byte	0x545
 1689 0921 00       		.byte	0
 1690 0922 14       		.uleb128 0x14
 1691 0923 EF050000 		.4byte	.LASF141
 1692 0927 0B       		.byte	0xb
 1693 0928 21       		.byte	0x21
 1694 0929 7C010000 		.4byte	0x17c
 1695 092d 41090000 		.4byte	0x941
 1696 0931 04       		.uleb128 0x4
 1697 0932 7C010000 		.4byte	0x17c
 1698 0936 04       		.uleb128 0x4
 1699 0937 39000000 		.4byte	0x39
 1700 093b 04       		.uleb128 0x4
 1701 093c 26000000 		.4byte	0x26
 1702 0940 00       		.byte	0
 1703 0941 14       		.uleb128 0x14
 1704 0942 63030000 		.4byte	.LASF142
 1705 0946 0C       		.byte	0xc
ARM GAS  C:\Users\DEVELO~1\AppData\Local\Temp\ccG9oqmd.s 			page 31


 1706 0947 7E       		.byte	0x7e
 1707 0948 7C010000 		.4byte	0x17c
 1708 094c 60090000 		.4byte	0x960
 1709 0950 04       		.uleb128 0x4
 1710 0951 26000000 		.4byte	0x26
 1711 0955 04       		.uleb128 0x4
 1712 0956 32000000 		.4byte	0x32
 1713 095a 04       		.uleb128 0x4
 1714 095b 26000000 		.4byte	0x26
 1715 095f 00       		.byte	0
 1716 0960 23       		.uleb128 0x23
 1717 0961 50050000 		.4byte	.LASF160
 1718 0965 01       		.byte	0x1
 1719 0966 DB       		.byte	0xdb
 1720 0967 06       		.byte	0x6
 1721 0968 00000000 		.4byte	.LFB357
 1722 096c 14000000 		.4byte	.LFE357-.LFB357
 1723 0970 01       		.uleb128 0x1
 1724 0971 9C       		.byte	0x9c
 1725 0972 24       		.uleb128 0x24
 1726 0973 01020000 		.4byte	.LASF161
 1727 0977 01       		.byte	0x1
 1728 0978 D3       		.byte	0xd3
 1729 0979 05       		.byte	0x5
 1730 097a 39000000 		.4byte	0x39
 1731 097e 00000000 		.4byte	.LFB356
 1732 0982 0E000000 		.4byte	.LFE356-.LFB356
 1733 0986 01       		.uleb128 0x1
 1734 0987 9C       		.byte	0x9c
 1735 0988 0F       		.uleb128 0xf
 1736 0989 CC050000 		.4byte	.LASF143
 1737 098d C7       		.byte	0xc7
 1738 098e 05       		.byte	0x5
 1739 098f 39000000 		.4byte	0x39
 1740 0993 00000000 		.4byte	.LFB355
 1741 0997 18000000 		.4byte	.LFE355-.LFB355
 1742 099b 01       		.uleb128 0x1
 1743 099c 9C       		.byte	0x9c
 1744 099d BE090000 		.4byte	0x9be
 1745 09a1 05       		.uleb128 0x5
 1746 09a2 70696400 		.ascii	"pid\000"
 1747 09a6 C7       		.byte	0xc7
 1748 09a7 0F       		.byte	0xf
 1749 09a8 39000000 		.4byte	0x39
 1750 09ac 02       		.uleb128 0x2
 1751 09ad 91       		.byte	0x91
 1752 09ae 74       		.sleb128 -12
 1753 09af 05       		.uleb128 0x5
 1754 09b0 73696700 		.ascii	"sig\000"
 1755 09b4 C7       		.byte	0xc7
 1756 09b5 18       		.byte	0x18
 1757 09b6 39000000 		.4byte	0x39
 1758 09ba 02       		.uleb128 0x2
 1759 09bb 91       		.byte	0x91
 1760 09bc 70       		.sleb128 -16
 1761 09bd 00       		.byte	0
 1762 09be 25       		.uleb128 0x25
ARM GAS  C:\Users\DEVELO~1\AppData\Local\Temp\ccG9oqmd.s 			page 32


 1763 09bf ED000000 		.4byte	.LASF144
 1764 09c3 01       		.byte	0x1
 1765 09c4 BC       		.byte	0xbc
 1766 09c5 06       		.byte	0x6
 1767 09c6 00000000 		.4byte	.LFB354
 1768 09ca 18000000 		.4byte	.LFE354-.LFB354
 1769 09ce 01       		.uleb128 0x1
 1770 09cf 9C       		.byte	0x9c
 1771 09d0 E3090000 		.4byte	0x9e3
 1772 09d4 0B       		.uleb128 0xb
 1773 09d5 00060000 		.4byte	.LASF145
 1774 09d9 BC       		.byte	0xbc
 1775 09da 10       		.byte	0x10
 1776 09db 39000000 		.4byte	0x39
 1777 09df 02       		.uleb128 0x2
 1778 09e0 91       		.byte	0x91
 1779 09e1 74       		.sleb128 -12
 1780 09e2 00       		.byte	0
 1781 09e3 0D       		.uleb128 0xd
 1782 09e4 36050000 		.4byte	.LASF146
 1783 09e8 B2       		.byte	0xb2
 1784 09e9 39000000 		.4byte	0x39
 1785 09ed 00000000 		.4byte	.LFB353
 1786 09f1 16000000 		.4byte	.LFE353-.LFB353
 1787 09f5 01       		.uleb128 0x1
 1788 09f6 9C       		.byte	0x9c
 1789 09f7 150A0000 		.4byte	0xa15
 1790 09fb 05       		.uleb128 0x5
 1791 09fc 7200     		.ascii	"r\000"
 1792 09fe B2       		.byte	0xb2
 1793 09ff 1E       		.byte	0x1e
 1794 0a00 2A040000 		.4byte	0x42a
 1795 0a04 02       		.uleb128 0x2
 1796 0a05 91       		.byte	0x91
 1797 0a06 74       		.sleb128 -12
 1798 0a07 05       		.uleb128 0x5
 1799 0a08 666400   		.ascii	"fd\000"
 1800 0a0b B2       		.byte	0xb2
 1801 0a0c 25       		.byte	0x25
 1802 0a0d 39000000 		.4byte	0x39
 1803 0a11 02       		.uleb128 0x2
 1804 0a12 91       		.byte	0x91
 1805 0a13 70       		.sleb128 -16
 1806 0a14 00       		.byte	0
 1807 0a15 0F       		.uleb128 0xf
 1808 0a16 E6050000 		.4byte	.LASF147
 1809 0a1a A6       		.byte	0xa6
 1810 0a1b 05       		.byte	0x5
 1811 0a1c 39000000 		.4byte	0x39
 1812 0a20 00000000 		.4byte	.LFB352
 1813 0a24 28000000 		.4byte	.LFE352-.LFB352
 1814 0a28 01       		.uleb128 0x1
 1815 0a29 9C       		.byte	0x9c
 1816 0a2a 560A0000 		.4byte	0xa56
 1817 0a2e 05       		.uleb128 0x5
 1818 0a2f 7200     		.ascii	"r\000"
 1819 0a31 A6       		.byte	0xa6
ARM GAS  C:\Users\DEVELO~1\AppData\Local\Temp\ccG9oqmd.s 			page 33


 1820 0a32 1D       		.byte	0x1d
 1821 0a33 2A040000 		.4byte	0x42a
 1822 0a37 02       		.uleb128 0x2
 1823 0a38 91       		.byte	0x91
 1824 0a39 74       		.sleb128 -12
 1825 0a3a 0B       		.uleb128 0xb
 1826 0a3b 9C040000 		.4byte	.LASF148
 1827 0a3f A6       		.byte	0xa6
 1828 0a40 24       		.byte	0x24
 1829 0a41 39000000 		.4byte	0x39
 1830 0a45 02       		.uleb128 0x2
 1831 0a46 91       		.byte	0x91
 1832 0a47 70       		.sleb128 -16
 1833 0a48 05       		.uleb128 0x5
 1834 0a49 737400   		.ascii	"st\000"
 1835 0a4c A6       		.byte	0xa6
 1836 0a4d 38       		.byte	0x38
 1837 0a4e 560A0000 		.4byte	0xa56
 1838 0a52 02       		.uleb128 0x2
 1839 0a53 91       		.byte	0x91
 1840 0a54 6C       		.sleb128 -20
 1841 0a55 00       		.byte	0
 1842 0a56 06       		.uleb128 0x6
 1843 0a57 2E080000 		.4byte	0x82e
 1844 0a5b 0F       		.uleb128 0xf
 1845 0a5c DE050000 		.4byte	.LASF149
 1846 0a60 90       		.byte	0x90
 1847 0a61 09       		.byte	0x9
 1848 0a62 CE070000 		.4byte	0x7ce
 1849 0a66 00000000 		.4byte	.LFB351
 1850 0a6a 34000000 		.4byte	.LFE351-.LFB351
 1851 0a6e 01       		.uleb128 0x1
 1852 0a6f 9C       		.byte	0x9c
 1853 0a70 A50A0000 		.4byte	0xaa5
 1854 0a74 05       		.uleb128 0x5
 1855 0a75 7200     		.ascii	"r\000"
 1856 0a77 90       		.byte	0x90
 1857 0a78 20       		.byte	0x20
 1858 0a79 2A040000 		.4byte	0x42a
 1859 0a7d 02       		.uleb128 0x2
 1860 0a7e 91       		.byte	0x91
 1861 0a7f 6C       		.sleb128 -20
 1862 0a80 0B       		.uleb128 0xb
 1863 0a81 4C020000 		.4byte	.LASF150
 1864 0a85 90       		.byte	0x90
 1865 0a86 27       		.byte	0x27
 1866 0a87 39000000 		.4byte	0x39
 1867 0a8b 02       		.uleb128 0x2
 1868 0a8c 91       		.byte	0x91
 1869 0a8d 68       		.sleb128 -24
 1870 0a8e 26       		.uleb128 0x26
 1871 0a8f 7000     		.ascii	"p\000"
 1872 0a91 01       		.byte	0x1
 1873 0a92 92       		.byte	0x92
 1874 0a93 09       		.byte	0x9
 1875 0a94 7C010000 		.4byte	0x17c
 1876 0a98 02       		.uleb128 0x2
ARM GAS  C:\Users\DEVELO~1\AppData\Local\Temp\ccG9oqmd.s 			page 34


 1877 0a99 91       		.byte	0x91
 1878 0a9a 74       		.sleb128 -12
 1879 0a9b 27       		.uleb128 0x27
 1880 0a9c CF040000 		.4byte	.LASF162
 1881 0aa0 B50A0000 		.4byte	0xab5
 1882 0aa4 00       		.byte	0
 1883 0aa5 08       		.uleb128 0x8
 1884 0aa6 1D050000 		.4byte	0x51d
 1885 0aaa B50A0000 		.4byte	0xab5
 1886 0aae 09       		.uleb128 0x9
 1887 0aaf 32000000 		.4byte	0x32
 1888 0ab3 07       		.byte	0x7
 1889 0ab4 00       		.byte	0
 1890 0ab5 12       		.uleb128 0x12
 1891 0ab6 A50A0000 		.4byte	0xaa5
 1892 0aba 0D       		.uleb128 0xd
 1893 0abb B7030000 		.4byte	.LASF151
 1894 0abf 86       		.byte	0x86
 1895 0ac0 39000000 		.4byte	0x39
 1896 0ac4 00000000 		.4byte	.LFB350
 1897 0ac8 16000000 		.4byte	.LFE350-.LFB350
 1898 0acc 01       		.uleb128 0x1
 1899 0acd 9C       		.byte	0x9c
 1900 0ace ED0A0000 		.4byte	0xaed
 1901 0ad2 05       		.uleb128 0x5
 1902 0ad3 7200     		.ascii	"r\000"
 1903 0ad5 86       		.byte	0x86
 1904 0ad6 1D       		.byte	0x1d
 1905 0ad7 2A040000 		.4byte	0x42a
 1906 0adb 02       		.uleb128 0x2
 1907 0adc 91       		.byte	0x91
 1908 0add 74       		.sleb128 -12
 1909 0ade 0B       		.uleb128 0xb
 1910 0adf 9C040000 		.4byte	.LASF148
 1911 0ae3 86       		.byte	0x86
 1912 0ae4 24       		.byte	0x24
 1913 0ae5 39000000 		.4byte	0x39
 1914 0ae9 02       		.uleb128 0x2
 1915 0aea 91       		.byte	0x91
 1916 0aeb 70       		.sleb128 -16
 1917 0aec 00       		.byte	0
 1918 0aed 0D       		.uleb128 0xd
 1919 0aee 63050000 		.4byte	.LASF152
 1920 0af2 79       		.byte	0x79
 1921 0af3 39000000 		.4byte	0x39
 1922 0af7 00000000 		.4byte	.LFB349
 1923 0afb 22000000 		.4byte	.LFE349-.LFB349
 1924 0aff 01       		.uleb128 0x1
 1925 0b00 9C       		.byte	0x9c
 1926 0b01 360B0000 		.4byte	0xb36
 1927 0b05 05       		.uleb128 0x5
 1928 0b06 7200     		.ascii	"r\000"
 1929 0b08 79       		.byte	0x79
 1930 0b09 1C       		.byte	0x1c
 1931 0b0a 2A040000 		.4byte	0x42a
 1932 0b0e 02       		.uleb128 0x2
 1933 0b0f 91       		.byte	0x91
ARM GAS  C:\Users\DEVELO~1\AppData\Local\Temp\ccG9oqmd.s 			page 35


 1934 0b10 74       		.sleb128 -12
 1935 0b11 05       		.uleb128 0x5
 1936 0b12 7000     		.ascii	"p\000"
 1937 0b14 79       		.byte	0x79
 1938 0b15 2B       		.byte	0x2b
 1939 0b16 45050000 		.4byte	0x545
 1940 0b1a 02       		.uleb128 0x2
 1941 0b1b 91       		.byte	0x91
 1942 0b1c 70       		.sleb128 -16
 1943 0b1d 05       		.uleb128 0x5
 1944 0b1e 6100     		.ascii	"a\000"
 1945 0b20 79       		.byte	0x79
 1946 0b21 32       		.byte	0x32
 1947 0b22 39000000 		.4byte	0x39
 1948 0b26 02       		.uleb128 0x2
 1949 0b27 91       		.byte	0x91
 1950 0b28 6C       		.sleb128 -20
 1951 0b29 05       		.uleb128 0x5
 1952 0b2a 6200     		.ascii	"b\000"
 1953 0b2c 79       		.byte	0x79
 1954 0b2d 39       		.byte	0x39
 1955 0b2e 39000000 		.4byte	0x39
 1956 0b32 02       		.uleb128 0x2
 1957 0b33 91       		.byte	0x91
 1958 0b34 68       		.sleb128 -24
 1959 0b35 00       		.byte	0
 1960 0b36 0D       		.uleb128 0xd
 1961 0b37 DF030000 		.4byte	.LASF153
 1962 0b3b 68       		.byte	0x68
 1963 0b3c 39000000 		.4byte	0x39
 1964 0b40 00000000 		.4byte	.LFB348
 1965 0b44 1A000000 		.4byte	.LFE348-.LFB348
 1966 0b48 01       		.uleb128 0x1
 1967 0b49 9C       		.byte	0x9c
 1968 0b4a 850B0000 		.4byte	0xb85
 1969 0b4e 05       		.uleb128 0x5
 1970 0b4f 7200     		.ascii	"r\000"
 1971 0b51 68       		.byte	0x68
 1972 0b52 1D       		.byte	0x1d
 1973 0b53 2A040000 		.4byte	0x42a
 1974 0b57 02       		.uleb128 0x2
 1975 0b58 91       		.byte	0x91
 1976 0b59 74       		.sleb128 -12
 1977 0b5a 0B       		.uleb128 0xb
 1978 0b5b 9C040000 		.4byte	.LASF148
 1979 0b5f 68       		.byte	0x68
 1980 0b60 24       		.byte	0x24
 1981 0b61 39000000 		.4byte	0x39
 1982 0b65 02       		.uleb128 0x2
 1983 0b66 91       		.byte	0x91
 1984 0b67 70       		.sleb128 -16
 1985 0b68 05       		.uleb128 0x5
 1986 0b69 70747200 		.ascii	"ptr\000"
 1987 0b6d 68       		.byte	0x68
 1988 0b6e 31       		.byte	0x31
 1989 0b6f 11050000 		.4byte	0x511
 1990 0b73 02       		.uleb128 0x2
ARM GAS  C:\Users\DEVELO~1\AppData\Local\Temp\ccG9oqmd.s 			page 36


 1991 0b74 91       		.byte	0x91
 1992 0b75 6C       		.sleb128 -20
 1993 0b76 05       		.uleb128 0x5
 1994 0b77 6C656E00 		.ascii	"len\000"
 1995 0b7b 68       		.byte	0x68
 1996 0b7c 3A       		.byte	0x3a
 1997 0b7d 39000000 		.4byte	0x39
 1998 0b81 02       		.uleb128 0x2
 1999 0b82 91       		.byte	0x91
 2000 0b83 68       		.sleb128 -24
 2001 0b84 00       		.byte	0
 2002 0b85 0D       		.uleb128 0xd
 2003 0b86 00000000 		.4byte	.LASF154
 2004 0b8a 5C       		.byte	0x5c
 2005 0b8b 39000000 		.4byte	0x39
 2006 0b8f 00000000 		.4byte	.LFB347
 2007 0b93 1A000000 		.4byte	.LFE347-.LFB347
 2008 0b97 01       		.uleb128 0x1
 2009 0b98 9C       		.byte	0x9c
 2010 0b99 D40B0000 		.4byte	0xbd4
 2011 0b9d 05       		.uleb128 0x5
 2012 0b9e 7200     		.ascii	"r\000"
 2013 0ba0 5C       		.byte	0x5c
 2014 0ba1 1D       		.byte	0x1d
 2015 0ba2 2A040000 		.4byte	0x42a
 2016 0ba6 02       		.uleb128 0x2
 2017 0ba7 91       		.byte	0x91
 2018 0ba8 74       		.sleb128 -12
 2019 0ba9 0B       		.uleb128 0xb
 2020 0baa 9C040000 		.4byte	.LASF148
 2021 0bae 5C       		.byte	0x5c
 2022 0baf 24       		.byte	0x24
 2023 0bb0 39000000 		.4byte	0x39
 2024 0bb4 02       		.uleb128 0x2
 2025 0bb5 91       		.byte	0x91
 2026 0bb6 70       		.sleb128 -16
 2027 0bb7 05       		.uleb128 0x5
 2028 0bb8 70747200 		.ascii	"ptr\000"
 2029 0bbc 5C       		.byte	0x5c
 2030 0bbd 2E       		.byte	0x2e
 2031 0bbe 39000000 		.4byte	0x39
 2032 0bc2 02       		.uleb128 0x2
 2033 0bc3 91       		.byte	0x91
 2034 0bc4 6C       		.sleb128 -20
 2035 0bc5 05       		.uleb128 0x5
 2036 0bc6 64697200 		.ascii	"dir\000"
 2037 0bca 5C       		.byte	0x5c
 2038 0bcb 37       		.byte	0x37
 2039 0bcc 39000000 		.4byte	0x39
 2040 0bd0 02       		.uleb128 0x2
 2041 0bd1 91       		.byte	0x91
 2042 0bd2 68       		.sleb128 -24
 2043 0bd3 00       		.byte	0
 2044 0bd4 28       		.uleb128 0x28
 2045 0bd5 48030000 		.4byte	.LASF163
 2046 0bd9 01       		.byte	0x1
 2047 0bda 47       		.byte	0x47
ARM GAS  C:\Users\DEVELO~1\AppData\Local\Temp\ccG9oqmd.s 			page 37


 2048 0bdb 05       		.byte	0x5
 2049 0bdc 39000000 		.4byte	0x39
 2050 0be0 00000000 		.4byte	.LFB346
 2051 0be4 22000000 		.4byte	.LFE346-.LFB346
 2052 0be8 01       		.uleb128 0x1
 2053 0be9 9C       		.byte	0x9c
 2054 0bea 05       		.uleb128 0x5
 2055 0beb 7200     		.ascii	"r\000"
 2056 0bed 47       		.byte	0x47
 2057 0bee 1C       		.byte	0x1c
 2058 0bef 2A040000 		.4byte	0x42a
 2059 0bf3 02       		.uleb128 0x2
 2060 0bf4 91       		.byte	0x91
 2061 0bf5 74       		.sleb128 -12
 2062 0bf6 0B       		.uleb128 0xb
 2063 0bf7 9C040000 		.4byte	.LASF148
 2064 0bfb 47       		.byte	0x47
 2065 0bfc 23       		.byte	0x23
 2066 0bfd 39000000 		.4byte	0x39
 2067 0c01 02       		.uleb128 0x2
 2068 0c02 91       		.byte	0x91
 2069 0c03 70       		.sleb128 -16
 2070 0c04 05       		.uleb128 0x5
 2071 0c05 70747200 		.ascii	"ptr\000"
 2072 0c09 47       		.byte	0x47
 2073 0c0a 30       		.byte	0x30
 2074 0c0b 11050000 		.4byte	0x511
 2075 0c0f 02       		.uleb128 0x2
 2076 0c10 91       		.byte	0x91
 2077 0c11 6C       		.sleb128 -20
 2078 0c12 05       		.uleb128 0x5
 2079 0c13 6C656E00 		.ascii	"len\000"
 2080 0c17 47       		.byte	0x47
 2081 0c18 39       		.byte	0x39
 2082 0c19 39000000 		.4byte	0x39
 2083 0c1d 02       		.uleb128 0x2
 2084 0c1e 91       		.byte	0x91
 2085 0c1f 68       		.sleb128 -24
 2086 0c20 00       		.byte	0
 2087 0c21 00       		.byte	0
 2088              		.section	.debug_abbrev,"",%progbits
 2089              	.Ldebug_abbrev0:
 2090 0000 01       		.uleb128 0x1
 2091 0001 0D       		.uleb128 0xd
 2092 0002 00       		.byte	0
 2093 0003 03       		.uleb128 0x3
 2094 0004 0E       		.uleb128 0xe
 2095 0005 3A       		.uleb128 0x3a
 2096 0006 0B       		.uleb128 0xb
 2097 0007 3B       		.uleb128 0x3b
 2098 0008 0B       		.uleb128 0xb
 2099 0009 39       		.uleb128 0x39
 2100 000a 0B       		.uleb128 0xb
 2101 000b 49       		.uleb128 0x49
 2102 000c 13       		.uleb128 0x13
 2103 000d 38       		.uleb128 0x38
 2104 000e 0B       		.uleb128 0xb
ARM GAS  C:\Users\DEVELO~1\AppData\Local\Temp\ccG9oqmd.s 			page 38


 2105 000f 00       		.byte	0
 2106 0010 00       		.byte	0
 2107 0011 02       		.uleb128 0x2
 2108 0012 0D       		.uleb128 0xd
 2109 0013 00       		.byte	0
 2110 0014 03       		.uleb128 0x3
 2111 0015 0E       		.uleb128 0xe
 2112 0016 3A       		.uleb128 0x3a
 2113 0017 21       		.uleb128 0x21
 2114 0018 05       		.sleb128 5
 2115 0019 3B       		.uleb128 0x3b
 2116 001a 05       		.uleb128 0x5
 2117 001b 39       		.uleb128 0x39
 2118 001c 0B       		.uleb128 0xb
 2119 001d 49       		.uleb128 0x49
 2120 001e 13       		.uleb128 0x13
 2121 001f 38       		.uleb128 0x38
 2122 0020 0B       		.uleb128 0xb
 2123 0021 00       		.byte	0
 2124 0022 00       		.byte	0
 2125 0023 03       		.uleb128 0x3
 2126 0024 16       		.uleb128 0x16
 2127 0025 00       		.byte	0
 2128 0026 03       		.uleb128 0x3
 2129 0027 0E       		.uleb128 0xe
 2130 0028 3A       		.uleb128 0x3a
 2131 0029 0B       		.uleb128 0xb
 2132 002a 3B       		.uleb128 0x3b
 2133 002b 0B       		.uleb128 0xb
 2134 002c 39       		.uleb128 0x39
 2135 002d 0B       		.uleb128 0xb
 2136 002e 49       		.uleb128 0x49
 2137 002f 13       		.uleb128 0x13
 2138 0030 00       		.byte	0
 2139 0031 00       		.byte	0
 2140 0032 04       		.uleb128 0x4
 2141 0033 05       		.uleb128 0x5
 2142 0034 00       		.byte	0
 2143 0035 49       		.uleb128 0x49
 2144 0036 13       		.uleb128 0x13
 2145 0037 00       		.byte	0
 2146 0038 00       		.byte	0
 2147 0039 05       		.uleb128 0x5
 2148 003a 05       		.uleb128 0x5
 2149 003b 00       		.byte	0
 2150 003c 03       		.uleb128 0x3
 2151 003d 08       		.uleb128 0x8
 2152 003e 3A       		.uleb128 0x3a
 2153 003f 21       		.uleb128 0x21
 2154 0040 01       		.sleb128 1
 2155 0041 3B       		.uleb128 0x3b
 2156 0042 0B       		.uleb128 0xb
 2157 0043 39       		.uleb128 0x39
 2158 0044 0B       		.uleb128 0xb
 2159 0045 49       		.uleb128 0x49
 2160 0046 13       		.uleb128 0x13
 2161 0047 02       		.uleb128 0x2
ARM GAS  C:\Users\DEVELO~1\AppData\Local\Temp\ccG9oqmd.s 			page 39


 2162 0048 18       		.uleb128 0x18
 2163 0049 00       		.byte	0
 2164 004a 00       		.byte	0
 2165 004b 06       		.uleb128 0x6
 2166 004c 0F       		.uleb128 0xf
 2167 004d 00       		.byte	0
 2168 004e 0B       		.uleb128 0xb
 2169 004f 21       		.uleb128 0x21
 2170 0050 04       		.sleb128 4
 2171 0051 49       		.uleb128 0x49
 2172 0052 13       		.uleb128 0x13
 2173 0053 00       		.byte	0
 2174 0054 00       		.byte	0
 2175 0055 07       		.uleb128 0x7
 2176 0056 24       		.uleb128 0x24
 2177 0057 00       		.byte	0
 2178 0058 0B       		.uleb128 0xb
 2179 0059 0B       		.uleb128 0xb
 2180 005a 3E       		.uleb128 0x3e
 2181 005b 0B       		.uleb128 0xb
 2182 005c 03       		.uleb128 0x3
 2183 005d 0E       		.uleb128 0xe
 2184 005e 00       		.byte	0
 2185 005f 00       		.byte	0
 2186 0060 08       		.uleb128 0x8
 2187 0061 01       		.uleb128 0x1
 2188 0062 01       		.byte	0x1
 2189 0063 49       		.uleb128 0x49
 2190 0064 13       		.uleb128 0x13
 2191 0065 01       		.uleb128 0x1
 2192 0066 13       		.uleb128 0x13
 2193 0067 00       		.byte	0
 2194 0068 00       		.byte	0
 2195 0069 09       		.uleb128 0x9
 2196 006a 21       		.uleb128 0x21
 2197 006b 00       		.byte	0
 2198 006c 49       		.uleb128 0x49
 2199 006d 13       		.uleb128 0x13
 2200 006e 2F       		.uleb128 0x2f
 2201 006f 0B       		.uleb128 0xb
 2202 0070 00       		.byte	0
 2203 0071 00       		.byte	0
 2204 0072 0A       		.uleb128 0xa
 2205 0073 0D       		.uleb128 0xd
 2206 0074 00       		.byte	0
 2207 0075 03       		.uleb128 0x3
 2208 0076 08       		.uleb128 0x8
 2209 0077 3A       		.uleb128 0x3a
 2210 0078 21       		.uleb128 0x21
 2211 0079 05       		.sleb128 5
 2212 007a 3B       		.uleb128 0x3b
 2213 007b 0B       		.uleb128 0xb
 2214 007c 39       		.uleb128 0x39
 2215 007d 0B       		.uleb128 0xb
 2216 007e 49       		.uleb128 0x49
 2217 007f 13       		.uleb128 0x13
 2218 0080 38       		.uleb128 0x38
ARM GAS  C:\Users\DEVELO~1\AppData\Local\Temp\ccG9oqmd.s 			page 40


 2219 0081 0B       		.uleb128 0xb
 2220 0082 00       		.byte	0
 2221 0083 00       		.byte	0
 2222 0084 0B       		.uleb128 0xb
 2223 0085 05       		.uleb128 0x5
 2224 0086 00       		.byte	0
 2225 0087 03       		.uleb128 0x3
 2226 0088 0E       		.uleb128 0xe
 2227 0089 3A       		.uleb128 0x3a
 2228 008a 21       		.uleb128 0x21
 2229 008b 01       		.sleb128 1
 2230 008c 3B       		.uleb128 0x3b
 2231 008d 0B       		.uleb128 0xb
 2232 008e 39       		.uleb128 0x39
 2233 008f 0B       		.uleb128 0xb
 2234 0090 49       		.uleb128 0x49
 2235 0091 13       		.uleb128 0x13
 2236 0092 02       		.uleb128 0x2
 2237 0093 18       		.uleb128 0x18
 2238 0094 00       		.byte	0
 2239 0095 00       		.byte	0
 2240 0096 0C       		.uleb128 0xc
 2241 0097 13       		.uleb128 0x13
 2242 0098 01       		.byte	0x1
 2243 0099 03       		.uleb128 0x3
 2244 009a 0E       		.uleb128 0xe
 2245 009b 0B       		.uleb128 0xb
 2246 009c 0B       		.uleb128 0xb
 2247 009d 3A       		.uleb128 0x3a
 2248 009e 0B       		.uleb128 0xb
 2249 009f 3B       		.uleb128 0x3b
 2250 00a0 0B       		.uleb128 0xb
 2251 00a1 39       		.uleb128 0x39
 2252 00a2 21       		.uleb128 0x21
 2253 00a3 08       		.sleb128 8
 2254 00a4 01       		.uleb128 0x1
 2255 00a5 13       		.uleb128 0x13
 2256 00a6 00       		.byte	0
 2257 00a7 00       		.byte	0
 2258 00a8 0D       		.uleb128 0xd
 2259 00a9 2E       		.uleb128 0x2e
 2260 00aa 01       		.byte	0x1
 2261 00ab 3F       		.uleb128 0x3f
 2262 00ac 19       		.uleb128 0x19
 2263 00ad 03       		.uleb128 0x3
 2264 00ae 0E       		.uleb128 0xe
 2265 00af 3A       		.uleb128 0x3a
 2266 00b0 21       		.uleb128 0x21
 2267 00b1 01       		.sleb128 1
 2268 00b2 3B       		.uleb128 0x3b
 2269 00b3 0B       		.uleb128 0xb
 2270 00b4 39       		.uleb128 0x39
 2271 00b5 21       		.uleb128 0x21
 2272 00b6 05       		.sleb128 5
 2273 00b7 27       		.uleb128 0x27
 2274 00b8 19       		.uleb128 0x19
 2275 00b9 49       		.uleb128 0x49
ARM GAS  C:\Users\DEVELO~1\AppData\Local\Temp\ccG9oqmd.s 			page 41


 2276 00ba 13       		.uleb128 0x13
 2277 00bb 11       		.uleb128 0x11
 2278 00bc 01       		.uleb128 0x1
 2279 00bd 12       		.uleb128 0x12
 2280 00be 06       		.uleb128 0x6
 2281 00bf 40       		.uleb128 0x40
 2282 00c0 18       		.uleb128 0x18
 2283 00c1 7A       		.uleb128 0x7a
 2284 00c2 19       		.uleb128 0x19
 2285 00c3 01       		.uleb128 0x1
 2286 00c4 13       		.uleb128 0x13
 2287 00c5 00       		.byte	0
 2288 00c6 00       		.byte	0
 2289 00c7 0E       		.uleb128 0xe
 2290 00c8 15       		.uleb128 0x15
 2291 00c9 01       		.byte	0x1
 2292 00ca 27       		.uleb128 0x27
 2293 00cb 19       		.uleb128 0x19
 2294 00cc 49       		.uleb128 0x49
 2295 00cd 13       		.uleb128 0x13
 2296 00ce 01       		.uleb128 0x1
 2297 00cf 13       		.uleb128 0x13
 2298 00d0 00       		.byte	0
 2299 00d1 00       		.byte	0
 2300 00d2 0F       		.uleb128 0xf
 2301 00d3 2E       		.uleb128 0x2e
 2302 00d4 01       		.byte	0x1
 2303 00d5 3F       		.uleb128 0x3f
 2304 00d6 19       		.uleb128 0x19
 2305 00d7 03       		.uleb128 0x3
 2306 00d8 0E       		.uleb128 0xe
 2307 00d9 3A       		.uleb128 0x3a
 2308 00da 21       		.uleb128 0x21
 2309 00db 01       		.sleb128 1
 2310 00dc 3B       		.uleb128 0x3b
 2311 00dd 0B       		.uleb128 0xb
 2312 00de 39       		.uleb128 0x39
 2313 00df 0B       		.uleb128 0xb
 2314 00e0 27       		.uleb128 0x27
 2315 00e1 19       		.uleb128 0x19
 2316 00e2 49       		.uleb128 0x49
 2317 00e3 13       		.uleb128 0x13
 2318 00e4 11       		.uleb128 0x11
 2319 00e5 01       		.uleb128 0x1
 2320 00e6 12       		.uleb128 0x12
 2321 00e7 06       		.uleb128 0x6
 2322 00e8 40       		.uleb128 0x40
 2323 00e9 18       		.uleb128 0x18
 2324 00ea 7C       		.uleb128 0x7c
 2325 00eb 19       		.uleb128 0x19
 2326 00ec 01       		.uleb128 0x1
 2327 00ed 13       		.uleb128 0x13
 2328 00ee 00       		.byte	0
 2329 00ef 00       		.byte	0
 2330 00f0 10       		.uleb128 0x10
 2331 00f1 0D       		.uleb128 0xd
 2332 00f2 00       		.byte	0
ARM GAS  C:\Users\DEVELO~1\AppData\Local\Temp\ccG9oqmd.s 			page 42


 2333 00f3 03       		.uleb128 0x3
 2334 00f4 0E       		.uleb128 0xe
 2335 00f5 3A       		.uleb128 0x3a
 2336 00f6 21       		.uleb128 0x21
 2337 00f7 04       		.sleb128 4
 2338 00f8 3B       		.uleb128 0x3b
 2339 00f9 0B       		.uleb128 0xb
 2340 00fa 39       		.uleb128 0x39
 2341 00fb 0B       		.uleb128 0xb
 2342 00fc 49       		.uleb128 0x49
 2343 00fd 13       		.uleb128 0x13
 2344 00fe 00       		.byte	0
 2345 00ff 00       		.byte	0
 2346 0100 11       		.uleb128 0x11
 2347 0101 13       		.uleb128 0x13
 2348 0102 00       		.byte	0
 2349 0103 03       		.uleb128 0x3
 2350 0104 0E       		.uleb128 0xe
 2351 0105 3C       		.uleb128 0x3c
 2352 0106 19       		.uleb128 0x19
 2353 0107 00       		.byte	0
 2354 0108 00       		.byte	0
 2355 0109 12       		.uleb128 0x12
 2356 010a 26       		.uleb128 0x26
 2357 010b 00       		.byte	0
 2358 010c 49       		.uleb128 0x49
 2359 010d 13       		.uleb128 0x13
 2360 010e 00       		.byte	0
 2361 010f 00       		.byte	0
 2362 0110 13       		.uleb128 0x13
 2363 0111 15       		.uleb128 0x15
 2364 0112 01       		.byte	0x1
 2365 0113 27       		.uleb128 0x27
 2366 0114 19       		.uleb128 0x19
 2367 0115 01       		.uleb128 0x1
 2368 0116 13       		.uleb128 0x13
 2369 0117 00       		.byte	0
 2370 0118 00       		.byte	0
 2371 0119 14       		.uleb128 0x14
 2372 011a 2E       		.uleb128 0x2e
 2373 011b 01       		.byte	0x1
 2374 011c 3F       		.uleb128 0x3f
 2375 011d 19       		.uleb128 0x19
 2376 011e 03       		.uleb128 0x3
 2377 011f 0E       		.uleb128 0xe
 2378 0120 3A       		.uleb128 0x3a
 2379 0121 0B       		.uleb128 0xb
 2380 0122 3B       		.uleb128 0x3b
 2381 0123 0B       		.uleb128 0xb
 2382 0124 39       		.uleb128 0x39
 2383 0125 21       		.uleb128 0x21
 2384 0126 09       		.sleb128 9
 2385 0127 27       		.uleb128 0x27
 2386 0128 19       		.uleb128 0x19
 2387 0129 49       		.uleb128 0x49
 2388 012a 13       		.uleb128 0x13
 2389 012b 3C       		.uleb128 0x3c
ARM GAS  C:\Users\DEVELO~1\AppData\Local\Temp\ccG9oqmd.s 			page 43


 2390 012c 19       		.uleb128 0x19
 2391 012d 01       		.uleb128 0x1
 2392 012e 13       		.uleb128 0x13
 2393 012f 00       		.byte	0
 2394 0130 00       		.byte	0
 2395 0131 15       		.uleb128 0x15
 2396 0132 11       		.uleb128 0x11
 2397 0133 01       		.byte	0x1
 2398 0134 25       		.uleb128 0x25
 2399 0135 0E       		.uleb128 0xe
 2400 0136 13       		.uleb128 0x13
 2401 0137 0B       		.uleb128 0xb
 2402 0138 03       		.uleb128 0x3
 2403 0139 0E       		.uleb128 0xe
 2404 013a 1B       		.uleb128 0x1b
 2405 013b 0E       		.uleb128 0xe
 2406 013c 55       		.uleb128 0x55
 2407 013d 17       		.uleb128 0x17
 2408 013e 11       		.uleb128 0x11
 2409 013f 01       		.uleb128 0x1
 2410 0140 10       		.uleb128 0x10
 2411 0141 17       		.uleb128 0x17
 2412 0142 00       		.byte	0
 2413 0143 00       		.byte	0
 2414 0144 16       		.uleb128 0x16
 2415 0145 24       		.uleb128 0x24
 2416 0146 00       		.byte	0
 2417 0147 0B       		.uleb128 0xb
 2418 0148 0B       		.uleb128 0xb
 2419 0149 3E       		.uleb128 0x3e
 2420 014a 0B       		.uleb128 0xb
 2421 014b 03       		.uleb128 0x3
 2422 014c 08       		.uleb128 0x8
 2423 014d 00       		.byte	0
 2424 014e 00       		.byte	0
 2425 014f 17       		.uleb128 0x17
 2426 0150 16       		.uleb128 0x16
 2427 0151 00       		.byte	0
 2428 0152 03       		.uleb128 0x3
 2429 0153 0E       		.uleb128 0xe
 2430 0154 3A       		.uleb128 0x3a
 2431 0155 0B       		.uleb128 0xb
 2432 0156 3B       		.uleb128 0x3b
 2433 0157 05       		.uleb128 0x5
 2434 0158 39       		.uleb128 0x39
 2435 0159 0B       		.uleb128 0xb
 2436 015a 49       		.uleb128 0x49
 2437 015b 13       		.uleb128 0x13
 2438 015c 00       		.byte	0
 2439 015d 00       		.byte	0
 2440 015e 18       		.uleb128 0x18
 2441 015f 17       		.uleb128 0x17
 2442 0160 01       		.byte	0x1
 2443 0161 0B       		.uleb128 0xb
 2444 0162 0B       		.uleb128 0xb
 2445 0163 3A       		.uleb128 0x3a
 2446 0164 0B       		.uleb128 0xb
ARM GAS  C:\Users\DEVELO~1\AppData\Local\Temp\ccG9oqmd.s 			page 44


 2447 0165 3B       		.uleb128 0x3b
 2448 0166 0B       		.uleb128 0xb
 2449 0167 39       		.uleb128 0x39
 2450 0168 0B       		.uleb128 0xb
 2451 0169 01       		.uleb128 0x1
 2452 016a 13       		.uleb128 0x13
 2453 016b 00       		.byte	0
 2454 016c 00       		.byte	0
 2455 016d 19       		.uleb128 0x19
 2456 016e 13       		.uleb128 0x13
 2457 016f 01       		.byte	0x1
 2458 0170 0B       		.uleb128 0xb
 2459 0171 0B       		.uleb128 0xb
 2460 0172 3A       		.uleb128 0x3a
 2461 0173 0B       		.uleb128 0xb
 2462 0174 3B       		.uleb128 0x3b
 2463 0175 0B       		.uleb128 0xb
 2464 0176 39       		.uleb128 0x39
 2465 0177 0B       		.uleb128 0xb
 2466 0178 01       		.uleb128 0x1
 2467 0179 13       		.uleb128 0x13
 2468 017a 00       		.byte	0
 2469 017b 00       		.byte	0
 2470 017c 1A       		.uleb128 0x1a
 2471 017d 0F       		.uleb128 0xf
 2472 017e 00       		.byte	0
 2473 017f 0B       		.uleb128 0xb
 2474 0180 0B       		.uleb128 0xb
 2475 0181 00       		.byte	0
 2476 0182 00       		.byte	0
 2477 0183 1B       		.uleb128 0x1b
 2478 0184 13       		.uleb128 0x13
 2479 0185 01       		.byte	0x1
 2480 0186 03       		.uleb128 0x3
 2481 0187 0E       		.uleb128 0xe
 2482 0188 0B       		.uleb128 0xb
 2483 0189 05       		.uleb128 0x5
 2484 018a 3A       		.uleb128 0x3a
 2485 018b 0B       		.uleb128 0xb
 2486 018c 3B       		.uleb128 0x3b
 2487 018d 05       		.uleb128 0x5
 2488 018e 39       		.uleb128 0x39
 2489 018f 0B       		.uleb128 0xb
 2490 0190 01       		.uleb128 0x1
 2491 0191 13       		.uleb128 0x13
 2492 0192 00       		.byte	0
 2493 0193 00       		.byte	0
 2494 0194 1C       		.uleb128 0x1c
 2495 0195 0D       		.uleb128 0xd
 2496 0196 00       		.byte	0
 2497 0197 03       		.uleb128 0x3
 2498 0198 0E       		.uleb128 0xe
 2499 0199 3A       		.uleb128 0x3a
 2500 019a 0B       		.uleb128 0xb
 2501 019b 3B       		.uleb128 0x3b
 2502 019c 05       		.uleb128 0x5
 2503 019d 39       		.uleb128 0x39
ARM GAS  C:\Users\DEVELO~1\AppData\Local\Temp\ccG9oqmd.s 			page 45


 2504 019e 0B       		.uleb128 0xb
 2505 019f 49       		.uleb128 0x49
 2506 01a0 13       		.uleb128 0x13
 2507 01a1 38       		.uleb128 0x38
 2508 01a2 05       		.uleb128 0x5
 2509 01a3 00       		.byte	0
 2510 01a4 00       		.byte	0
 2511 01a5 1D       		.uleb128 0x1d
 2512 01a6 13       		.uleb128 0x13
 2513 01a7 01       		.byte	0x1
 2514 01a8 03       		.uleb128 0x3
 2515 01a9 0E       		.uleb128 0xe
 2516 01aa 0B       		.uleb128 0xb
 2517 01ab 0B       		.uleb128 0xb
 2518 01ac 3A       		.uleb128 0x3a
 2519 01ad 0B       		.uleb128 0xb
 2520 01ae 3B       		.uleb128 0x3b
 2521 01af 05       		.uleb128 0x5
 2522 01b0 39       		.uleb128 0x39
 2523 01b1 0B       		.uleb128 0xb
 2524 01b2 01       		.uleb128 0x1
 2525 01b3 13       		.uleb128 0x13
 2526 01b4 00       		.byte	0
 2527 01b5 00       		.byte	0
 2528 01b6 1E       		.uleb128 0x1e
 2529 01b7 13       		.uleb128 0x13
 2530 01b8 01       		.byte	0x1
 2531 01b9 0B       		.uleb128 0xb
 2532 01ba 0B       		.uleb128 0xb
 2533 01bb 3A       		.uleb128 0x3a
 2534 01bc 0B       		.uleb128 0xb
 2535 01bd 3B       		.uleb128 0x3b
 2536 01be 05       		.uleb128 0x5
 2537 01bf 39       		.uleb128 0x39
 2538 01c0 0B       		.uleb128 0xb
 2539 01c1 01       		.uleb128 0x1
 2540 01c2 13       		.uleb128 0x13
 2541 01c3 00       		.byte	0
 2542 01c4 00       		.byte	0
 2543 01c5 1F       		.uleb128 0x1f
 2544 01c6 17       		.uleb128 0x17
 2545 01c7 01       		.byte	0x1
 2546 01c8 0B       		.uleb128 0xb
 2547 01c9 0B       		.uleb128 0xb
 2548 01ca 3A       		.uleb128 0x3a
 2549 01cb 0B       		.uleb128 0xb
 2550 01cc 3B       		.uleb128 0x3b
 2551 01cd 05       		.uleb128 0x5
 2552 01ce 39       		.uleb128 0x39
 2553 01cf 0B       		.uleb128 0xb
 2554 01d0 01       		.uleb128 0x1
 2555 01d1 13       		.uleb128 0x13
 2556 01d2 00       		.byte	0
 2557 01d3 00       		.byte	0
 2558 01d4 20       		.uleb128 0x20
 2559 01d5 0D       		.uleb128 0xd
 2560 01d6 00       		.byte	0
ARM GAS  C:\Users\DEVELO~1\AppData\Local\Temp\ccG9oqmd.s 			page 46


 2561 01d7 03       		.uleb128 0x3
 2562 01d8 0E       		.uleb128 0xe
 2563 01d9 3A       		.uleb128 0x3a
 2564 01da 0B       		.uleb128 0xb
 2565 01db 3B       		.uleb128 0x3b
 2566 01dc 05       		.uleb128 0x5
 2567 01dd 39       		.uleb128 0x39
 2568 01de 0B       		.uleb128 0xb
 2569 01df 49       		.uleb128 0x49
 2570 01e0 13       		.uleb128 0x13
 2571 01e1 00       		.byte	0
 2572 01e2 00       		.byte	0
 2573 01e3 21       		.uleb128 0x21
 2574 01e4 2E       		.uleb128 0x2e
 2575 01e5 00       		.byte	0
 2576 01e6 3F       		.uleb128 0x3f
 2577 01e7 19       		.uleb128 0x19
 2578 01e8 03       		.uleb128 0x3
 2579 01e9 0E       		.uleb128 0xe
 2580 01ea 3A       		.uleb128 0x3a
 2581 01eb 0B       		.uleb128 0xb
 2582 01ec 3B       		.uleb128 0x3b
 2583 01ed 0B       		.uleb128 0xb
 2584 01ee 39       		.uleb128 0x39
 2585 01ef 0B       		.uleb128 0xb
 2586 01f0 27       		.uleb128 0x27
 2587 01f1 19       		.uleb128 0x19
 2588 01f2 8701     		.uleb128 0x87
 2589 01f4 19       		.uleb128 0x19
 2590 01f5 3C       		.uleb128 0x3c
 2591 01f6 19       		.uleb128 0x19
 2592 01f7 00       		.byte	0
 2593 01f8 00       		.byte	0
 2594 01f9 22       		.uleb128 0x22
 2595 01fa 2E       		.uleb128 0x2e
 2596 01fb 01       		.byte	0x1
 2597 01fc 3F       		.uleb128 0x3f
 2598 01fd 19       		.uleb128 0x19
 2599 01fe 03       		.uleb128 0x3
 2600 01ff 0E       		.uleb128 0xe
 2601 0200 3A       		.uleb128 0x3a
 2602 0201 0B       		.uleb128 0xb
 2603 0202 3B       		.uleb128 0x3b
 2604 0203 0B       		.uleb128 0xb
 2605 0204 39       		.uleb128 0x39
 2606 0205 0B       		.uleb128 0xb
 2607 0206 27       		.uleb128 0x27
 2608 0207 19       		.uleb128 0x19
 2609 0208 3C       		.uleb128 0x3c
 2610 0209 19       		.uleb128 0x19
 2611 020a 01       		.uleb128 0x1
 2612 020b 13       		.uleb128 0x13
 2613 020c 00       		.byte	0
 2614 020d 00       		.byte	0
 2615 020e 23       		.uleb128 0x23
 2616 020f 2E       		.uleb128 0x2e
 2617 0210 00       		.byte	0
ARM GAS  C:\Users\DEVELO~1\AppData\Local\Temp\ccG9oqmd.s 			page 47


 2618 0211 3F       		.uleb128 0x3f
 2619 0212 19       		.uleb128 0x19
 2620 0213 03       		.uleb128 0x3
 2621 0214 0E       		.uleb128 0xe
 2622 0215 3A       		.uleb128 0x3a
 2623 0216 0B       		.uleb128 0xb
 2624 0217 3B       		.uleb128 0x3b
 2625 0218 0B       		.uleb128 0xb
 2626 0219 39       		.uleb128 0x39
 2627 021a 0B       		.uleb128 0xb
 2628 021b 27       		.uleb128 0x27
 2629 021c 19       		.uleb128 0x19
 2630 021d 11       		.uleb128 0x11
 2631 021e 01       		.uleb128 0x1
 2632 021f 12       		.uleb128 0x12
 2633 0220 06       		.uleb128 0x6
 2634 0221 40       		.uleb128 0x40
 2635 0222 18       		.uleb128 0x18
 2636 0223 7C       		.uleb128 0x7c
 2637 0224 19       		.uleb128 0x19
 2638 0225 00       		.byte	0
 2639 0226 00       		.byte	0
 2640 0227 24       		.uleb128 0x24
 2641 0228 2E       		.uleb128 0x2e
 2642 0229 00       		.byte	0
 2643 022a 3F       		.uleb128 0x3f
 2644 022b 19       		.uleb128 0x19
 2645 022c 03       		.uleb128 0x3
 2646 022d 0E       		.uleb128 0xe
 2647 022e 3A       		.uleb128 0x3a
 2648 022f 0B       		.uleb128 0xb
 2649 0230 3B       		.uleb128 0x3b
 2650 0231 0B       		.uleb128 0xb
 2651 0232 39       		.uleb128 0x39
 2652 0233 0B       		.uleb128 0xb
 2653 0234 27       		.uleb128 0x27
 2654 0235 19       		.uleb128 0x19
 2655 0236 49       		.uleb128 0x49
 2656 0237 13       		.uleb128 0x13
 2657 0238 11       		.uleb128 0x11
 2658 0239 01       		.uleb128 0x1
 2659 023a 12       		.uleb128 0x12
 2660 023b 06       		.uleb128 0x6
 2661 023c 40       		.uleb128 0x40
 2662 023d 18       		.uleb128 0x18
 2663 023e 7A       		.uleb128 0x7a
 2664 023f 19       		.uleb128 0x19
 2665 0240 00       		.byte	0
 2666 0241 00       		.byte	0
 2667 0242 25       		.uleb128 0x25
 2668 0243 2E       		.uleb128 0x2e
 2669 0244 01       		.byte	0x1
 2670 0245 3F       		.uleb128 0x3f
 2671 0246 19       		.uleb128 0x19
 2672 0247 03       		.uleb128 0x3
 2673 0248 0E       		.uleb128 0xe
 2674 0249 3A       		.uleb128 0x3a
ARM GAS  C:\Users\DEVELO~1\AppData\Local\Temp\ccG9oqmd.s 			page 48


 2675 024a 0B       		.uleb128 0xb
 2676 024b 3B       		.uleb128 0x3b
 2677 024c 0B       		.uleb128 0xb
 2678 024d 39       		.uleb128 0x39
 2679 024e 0B       		.uleb128 0xb
 2680 024f 27       		.uleb128 0x27
 2681 0250 19       		.uleb128 0x19
 2682 0251 8701     		.uleb128 0x87
 2683 0253 19       		.uleb128 0x19
 2684 0254 11       		.uleb128 0x11
 2685 0255 01       		.uleb128 0x1
 2686 0256 12       		.uleb128 0x12
 2687 0257 06       		.uleb128 0x6
 2688 0258 40       		.uleb128 0x40
 2689 0259 18       		.uleb128 0x18
 2690 025a 7C       		.uleb128 0x7c
 2691 025b 19       		.uleb128 0x19
 2692 025c 01       		.uleb128 0x1
 2693 025d 13       		.uleb128 0x13
 2694 025e 00       		.byte	0
 2695 025f 00       		.byte	0
 2696 0260 26       		.uleb128 0x26
 2697 0261 34       		.uleb128 0x34
 2698 0262 00       		.byte	0
 2699 0263 03       		.uleb128 0x3
 2700 0264 08       		.uleb128 0x8
 2701 0265 3A       		.uleb128 0x3a
 2702 0266 0B       		.uleb128 0xb
 2703 0267 3B       		.uleb128 0x3b
 2704 0268 0B       		.uleb128 0xb
 2705 0269 39       		.uleb128 0x39
 2706 026a 0B       		.uleb128 0xb
 2707 026b 49       		.uleb128 0x49
 2708 026c 13       		.uleb128 0x13
 2709 026d 02       		.uleb128 0x2
 2710 026e 18       		.uleb128 0x18
 2711 026f 00       		.byte	0
 2712 0270 00       		.byte	0
 2713 0271 27       		.uleb128 0x27
 2714 0272 34       		.uleb128 0x34
 2715 0273 00       		.byte	0
 2716 0274 03       		.uleb128 0x3
 2717 0275 0E       		.uleb128 0xe
 2718 0276 49       		.uleb128 0x49
 2719 0277 13       		.uleb128 0x13
 2720 0278 34       		.uleb128 0x34
 2721 0279 19       		.uleb128 0x19
 2722 027a 00       		.byte	0
 2723 027b 00       		.byte	0
 2724 027c 28       		.uleb128 0x28
 2725 027d 2E       		.uleb128 0x2e
 2726 027e 01       		.byte	0x1
 2727 027f 3F       		.uleb128 0x3f
 2728 0280 19       		.uleb128 0x19
 2729 0281 03       		.uleb128 0x3
 2730 0282 0E       		.uleb128 0xe
 2731 0283 3A       		.uleb128 0x3a
ARM GAS  C:\Users\DEVELO~1\AppData\Local\Temp\ccG9oqmd.s 			page 49


 2732 0284 0B       		.uleb128 0xb
 2733 0285 3B       		.uleb128 0x3b
 2734 0286 0B       		.uleb128 0xb
 2735 0287 39       		.uleb128 0x39
 2736 0288 0B       		.uleb128 0xb
 2737 0289 27       		.uleb128 0x27
 2738 028a 19       		.uleb128 0x19
 2739 028b 49       		.uleb128 0x49
 2740 028c 13       		.uleb128 0x13
 2741 028d 11       		.uleb128 0x11
 2742 028e 01       		.uleb128 0x1
 2743 028f 12       		.uleb128 0x12
 2744 0290 06       		.uleb128 0x6
 2745 0291 40       		.uleb128 0x40
 2746 0292 18       		.uleb128 0x18
 2747 0293 7A       		.uleb128 0x7a
 2748 0294 19       		.uleb128 0x19
 2749 0295 00       		.byte	0
 2750 0296 00       		.byte	0
 2751 0297 00       		.byte	0
 2752              		.section	.debug_aranges,"",%progbits
 2753 0000 74000000 		.4byte	0x74
 2754 0004 0200     		.2byte	0x2
 2755 0006 00000000 		.4byte	.Ldebug_info0
 2756 000a 04       		.byte	0x4
 2757 000b 00       		.byte	0
 2758 000c 0000     		.2byte	0
 2759 000e 0000     		.2byte	0
 2760 0010 00000000 		.4byte	.LFB346
 2761 0014 22000000 		.4byte	.LFE346-.LFB346
 2762 0018 00000000 		.4byte	.LFB347
 2763 001c 1A000000 		.4byte	.LFE347-.LFB347
 2764 0020 00000000 		.4byte	.LFB348
 2765 0024 1A000000 		.4byte	.LFE348-.LFB348
 2766 0028 00000000 		.4byte	.LFB349
 2767 002c 22000000 		.4byte	.LFE349-.LFB349
 2768 0030 00000000 		.4byte	.LFB350
 2769 0034 16000000 		.4byte	.LFE350-.LFB350
 2770 0038 00000000 		.4byte	.LFB351
 2771 003c 34000000 		.4byte	.LFE351-.LFB351
 2772 0040 00000000 		.4byte	.LFB352
 2773 0044 28000000 		.4byte	.LFE352-.LFB352
 2774 0048 00000000 		.4byte	.LFB353
 2775 004c 16000000 		.4byte	.LFE353-.LFB353
 2776 0050 00000000 		.4byte	.LFB354
 2777 0054 18000000 		.4byte	.LFE354-.LFB354
 2778 0058 00000000 		.4byte	.LFB355
 2779 005c 18000000 		.4byte	.LFE355-.LFB355
 2780 0060 00000000 		.4byte	.LFB356
 2781 0064 0E000000 		.4byte	.LFE356-.LFB356
 2782 0068 00000000 		.4byte	.LFB357
 2783 006c 14000000 		.4byte	.LFE357-.LFB357
 2784 0070 00000000 		.4byte	0
 2785 0074 00000000 		.4byte	0
 2786              		.section	.debug_rnglists,"",%progbits
 2787              	.Ldebug_ranges0:
 2788 0000 51000000 		.4byte	.Ldebug_ranges3-.Ldebug_ranges2
ARM GAS  C:\Users\DEVELO~1\AppData\Local\Temp\ccG9oqmd.s 			page 50


 2789              	.Ldebug_ranges2:
 2790 0004 0500     		.2byte	0x5
 2791 0006 04       		.byte	0x4
 2792 0007 00       		.byte	0
 2793 0008 00000000 		.4byte	0
 2794              	.LLRL0:
 2795 000c 07       		.byte	0x7
 2796 000d 00000000 		.4byte	.LFB346
 2797 0011 22       		.uleb128 .LFE346-.LFB346
 2798 0012 07       		.byte	0x7
 2799 0013 00000000 		.4byte	.LFB347
 2800 0017 1A       		.uleb128 .LFE347-.LFB347
 2801 0018 07       		.byte	0x7
 2802 0019 00000000 		.4byte	.LFB348
 2803 001d 1A       		.uleb128 .LFE348-.LFB348
 2804 001e 07       		.byte	0x7
 2805 001f 00000000 		.4byte	.LFB349
 2806 0023 22       		.uleb128 .LFE349-.LFB349
 2807 0024 07       		.byte	0x7
 2808 0025 00000000 		.4byte	.LFB350
 2809 0029 16       		.uleb128 .LFE350-.LFB350
 2810 002a 07       		.byte	0x7
 2811 002b 00000000 		.4byte	.LFB351
 2812 002f 34       		.uleb128 .LFE351-.LFB351
 2813 0030 07       		.byte	0x7
 2814 0031 00000000 		.4byte	.LFB352
 2815 0035 28       		.uleb128 .LFE352-.LFB352
 2816 0036 07       		.byte	0x7
 2817 0037 00000000 		.4byte	.LFB353
 2818 003b 16       		.uleb128 .LFE353-.LFB353
 2819 003c 07       		.byte	0x7
 2820 003d 00000000 		.4byte	.LFB354
 2821 0041 18       		.uleb128 .LFE354-.LFB354
 2822 0042 07       		.byte	0x7
 2823 0043 00000000 		.4byte	.LFB355
 2824 0047 18       		.uleb128 .LFE355-.LFB355
 2825 0048 07       		.byte	0x7
 2826 0049 00000000 		.4byte	.LFB356
 2827 004d 0E       		.uleb128 .LFE356-.LFB356
 2828 004e 07       		.byte	0x7
 2829 004f 00000000 		.4byte	.LFB357
 2830 0053 14       		.uleb128 .LFE357-.LFB357
 2831 0054 00       		.byte	0
 2832              	.Ldebug_ranges3:
 2833              		.section	.debug_line,"",%progbits
 2834              	.Ldebug_line0:
 2835 0000 A2030000 		.section	.debug_str,"MS",%progbits,1
 2835      03006402 
 2835      00000201 
 2835      FB0E0D00 
 2835      01010101 
 2836              	.LASF154:
 2837 0000 5F6C7365 		.ascii	"_lseek_r\000"
 2837      656B5F72 
 2837      00
 2838              	.LASF7:
 2839 0009 73686F72 		.ascii	"short int\000"
ARM GAS  C:\Users\DEVELO~1\AppData\Local\Temp\ccG9oqmd.s 			page 51


 2839      7420696E 
 2839      7400
 2840              	.LASF23:
 2841 0013 5F66706F 		.ascii	"_fpos_t\000"
 2841      735F7400 
 2842              	.LASF136:
 2843 001b 73745F63 		.ascii	"st_ctim\000"
 2843      74696D00 
 2844              	.LASF3:
 2845 0023 73697A65 		.ascii	"size_t\000"
 2845      5F7400
 2846              	.LASF87:
 2847 002a 5F72616E 		.ascii	"_rand48\000"
 2847      64343800 
 2848              	.LASF123:
 2849 0032 6D6F6465 		.ascii	"mode_t\000"
 2849      5F7400
 2850              	.LASF74:
 2851 0039 5F656D65 		.ascii	"_emergency\000"
 2851      7267656E 
 2851      637900
 2852              	.LASF5:
 2853 0044 7369676E 		.ascii	"signed char\000"
 2853      65642063 
 2853      68617200 
 2854              	.LASF102:
 2855 0050 5F676574 		.ascii	"_getdate_err\000"
 2855      64617465 
 2855      5F657272 
 2855      00
 2856              	.LASF64:
 2857 005d 5F646174 		.ascii	"_data\000"
 2857      6100
 2858              	.LASF106:
 2859 0063 5F776372 		.ascii	"_wcrtomb_state\000"
 2859      746F6D62 
 2859      5F737461 
 2859      746500
 2860              	.LASF107:
 2861 0072 5F776373 		.ascii	"_wcsrtombs_state\000"
 2861      72746F6D 
 2861      62735F73 
 2861      74617465 
 2861      00
 2862              	.LASF12:
 2863 0083 6C6F6E67 		.ascii	"long long unsigned int\000"
 2863      206C6F6E 
 2863      6720756E 
 2863      7369676E 
 2863      65642069 
 2864              	.LASF138:
 2865 009a 73745F62 		.ascii	"st_blocks\000"
 2865      6C6F636B 
 2865      7300
 2866              	.LASF54:
 2867 00a4 5F6C6266 		.ascii	"_lbfsize\000"
 2867      73697A65 
ARM GAS  C:\Users\DEVELO~1\AppData\Local\Temp\ccG9oqmd.s 			page 52


 2867      00
 2868              	.LASF110:
 2869 00ad 5F5F6C6F 		.ascii	"__locale_t\000"
 2869      63616C65 
 2869      5F7400
 2870              	.LASF104:
 2871 00b8 5F6D6272 		.ascii	"_mbrtowc_state\000"
 2871      746F7763 
 2871      5F737461 
 2871      746500
 2872              	.LASF13:
 2873 00c7 5F5F696E 		.ascii	"__int_least64_t\000"
 2873      745F6C65 
 2873      61737436 
 2873      345F7400 
 2874              	.LASF19:
 2875 00d7 5F5F6769 		.ascii	"__gid_t\000"
 2875      645F7400 
 2876              	.LASF39:
 2877 00df 5F5F746D 		.ascii	"__tm_sec\000"
 2877      5F736563 
 2877      00
 2878              	.LASF125:
 2879 00e8 73746174 		.ascii	"stat\000"
 2879      00
 2880              	.LASF144:
 2881 00ed 5F657869 		.ascii	"_exit\000"
 2881      7400
 2882              	.LASF59:
 2883 00f3 5F636C6F 		.ascii	"_close\000"
 2883      736500
 2884              	.LASF128:
 2885 00fa 73745F6D 		.ascii	"st_mode\000"
 2885      6F646500 
 2886              	.LASF30:
 2887 0102 5F5F554C 		.ascii	"__ULong\000"
 2887      6F6E6700 
 2888              	.LASF127:
 2889 010a 73745F69 		.ascii	"st_ino\000"
 2889      6E6F00
 2890              	.LASF21:
 2891 0111 5F5F6D6F 		.ascii	"__mode_t\000"
 2891      64655F74 
 2891      00
 2892              	.LASF49:
 2893 011a 5F626173 		.ascii	"_base\000"
 2893      6500
 2894              	.LASF41:
 2895 0120 5F5F746D 		.ascii	"__tm_hour\000"
 2895      5F686F75 
 2895      7200
 2896              	.LASF24:
 2897 012a 5F5F7763 		.ascii	"__wch\000"
 2897      6800
 2898              	.LASF155:
 2899 0130 474E5520 		.ascii	"GNU C17 11.3.1 20220712 -mcpu=cortex-m7 -mthumb -mf"
 2899      43313720 
ARM GAS  C:\Users\DEVELO~1\AppData\Local\Temp\ccG9oqmd.s 			page 53


 2899      31312E33 
 2899      2E312032 
 2899      30323230 
 2900 0163 6C6F6174 		.ascii	"loat-abi=soft -march=armv7e-m -ggdb -O0 -ffunction-"
 2900      2D616269 
 2900      3D736F66 
 2900      74202D6D 
 2900      61726368 
 2901 0196 73656374 		.ascii	"sections -fdata-sections -fno-common\000"
 2901      696F6E73 
 2901      202D6664 
 2901      6174612D 
 2901      73656374 
 2902              	.LASF55:
 2903 01bb 5F636F6F 		.ascii	"_cookie\000"
 2903      6B696500 
 2904              	.LASF14:
 2905 01c3 5F5F626C 		.ascii	"__blkcnt_t\000"
 2905      6B636E74 
 2905      5F7400
 2906              	.LASF9:
 2907 01ce 6C6F6E67 		.ascii	"long int\000"
 2907      20696E74 
 2907      00
 2908              	.LASF52:
 2909 01d7 5F666C61 		.ascii	"_flags\000"
 2909      677300
 2910              	.LASF36:
 2911 01de 5F776473 		.ascii	"_wds\000"
 2911      00
 2912              	.LASF60:
 2913 01e3 5F756275 		.ascii	"_ubuf\000"
 2913      6600
 2914              	.LASF78:
 2915 01e9 5F726573 		.ascii	"_result_k\000"
 2915      756C745F 
 2915      6B00
 2916              	.LASF1:
 2917 01f3 6C6F6E67 		.ascii	"long long int\000"
 2917      206C6F6E 
 2917      6720696E 
 2917      7400
 2918              	.LASF161:
 2919 0201 5F676574 		.ascii	"_getpid\000"
 2919      70696400 
 2920              	.LASF134:
 2921 0209 73745F61 		.ascii	"st_atim\000"
 2921      74696D00 
 2922              	.LASF82:
 2923 0211 5F637674 		.ascii	"_cvtbuf\000"
 2923      62756600 
 2924              	.LASF105:
 2925 0219 5F6D6273 		.ascii	"_mbsrtowcs_state\000"
 2925      72746F77 
 2925      63735F73 
 2925      74617465 
 2925      00
ARM GAS  C:\Users\DEVELO~1\AppData\Local\Temp\ccG9oqmd.s 			page 54


 2926              	.LASF103:
 2927 022a 5F6D6272 		.ascii	"_mbrlen_state\000"
 2927      6C656E5F 
 2927      73746174 
 2927      6500
 2928              	.LASF124:
 2929 0238 6E6C696E 		.ascii	"nlink_t\000"
 2929      6B5F7400 
 2930              	.LASF119:
 2931 0240 6F66665F 		.ascii	"off_t\000"
 2931      7400
 2932              	.LASF122:
 2933 0246 6769645F 		.ascii	"gid_t\000"
 2933      7400
 2934              	.LASF150:
 2935 024c 696E6372 		.ascii	"incr\000"
 2935      00
 2936              	.LASF35:
 2937 0251 5F736967 		.ascii	"_sign\000"
 2937      6E00
 2938              	.LASF32:
 2939 0257 5F666C6F 		.ascii	"_flock_t\000"
 2939      636B5F74 
 2939      00
 2940              	.LASF72:
 2941 0260 5F737464 		.ascii	"_stderr\000"
 2941      65727200 
 2942              	.LASF37:
 2943 0268 5F426967 		.ascii	"_Bigint\000"
 2943      696E7400 
 2944              	.LASF94:
 2945 0270 5F67616D 		.ascii	"_gamma_signgam\000"
 2945      6D615F73 
 2945      69676E67 
 2945      616D00
 2946              	.LASF120:
 2947 027f 6465765F 		.ascii	"dev_t\000"
 2947      7400
 2948              	.LASF17:
 2949 0285 5F5F6465 		.ascii	"__dev_t\000"
 2949      765F7400 
 2950              	.LASF62:
 2951 028d 5F626C6B 		.ascii	"_blksize\000"
 2951      73697A65 
 2951      00
 2952              	.LASF130:
 2953 0296 73745F75 		.ascii	"st_uid\000"
 2953      696400
 2954              	.LASF38:
 2955 029d 5F5F746D 		.ascii	"__tm\000"
 2955      00
 2956              	.LASF66:
 2957 02a2 5F6D6273 		.ascii	"_mbstate\000"
 2957      74617465 
 2957      00
 2958              	.LASF25:
 2959 02ab 5F5F7763 		.ascii	"__wchb\000"
ARM GAS  C:\Users\DEVELO~1\AppData\Local\Temp\ccG9oqmd.s 			page 55


 2959      686200
 2960              	.LASF115:
 2961 02b2 626C6B63 		.ascii	"blkcnt_t\000"
 2961      6E745F74 
 2961      00
 2962              	.LASF81:
 2963 02bb 5F637674 		.ascii	"_cvtlen\000"
 2963      6C656E00 
 2964              	.LASF11:
 2965 02c3 6C6F6E67 		.ascii	"long unsigned int\000"
 2965      20756E73 
 2965      69676E65 
 2965      6420696E 
 2965      7400
 2966              	.LASF53:
 2967 02d5 5F66696C 		.ascii	"_file\000"
 2967      6500
 2968              	.LASF67:
 2969 02db 5F666C61 		.ascii	"_flags2\000"
 2969      67733200 
 2970              	.LASF157:
 2971 02e3 433A5C50 		.ascii	"C:\\PROJET\\ChibiOS project\\ChibiOS_21.11.4\\demos"
 2971      524F4A45 
 2971      545C4368 
 2971      6962694F 
 2971      53207072 
 2972 0312 5C53544D 		.ascii	"\\STM32\\RT-STM32H743ZI_REV_XY-NUCLEO144_Quartz8M\000"
 2972      33325C52 
 2972      542D5354 
 2972      4D333248 
 2972      3734335A 
 2973              	.LASF121:
 2974 0342 7569645F 		.ascii	"uid_t\000"
 2974      7400
 2975              	.LASF163:
 2976 0348 5F726561 		.ascii	"_read_r\000"
 2976      645F7200 
 2977              	.LASF8:
 2978 0350 73686F72 		.ascii	"short unsigned int\000"
 2978      7420756E 
 2978      7369676E 
 2978      65642069 
 2978      6E7400
 2979              	.LASF142:
 2980 0363 6368436F 		.ascii	"chCoreAllocFromBase\000"
 2980      7265416C 
 2980      6C6F6346 
 2980      726F6D42 
 2980      61736500 
 2981              	.LASF101:
 2982 0377 5F736967 		.ascii	"_signal_buf\000"
 2982      6E616C5F 
 2982      62756600 
 2983              	.LASF92:
 2984 0383 5F617363 		.ascii	"_asctime_buf\000"
 2984      74696D65 
 2984      5F627566 
ARM GAS  C:\Users\DEVELO~1\AppData\Local\Temp\ccG9oqmd.s 			page 56


 2984      00
 2985              	.LASF77:
 2986 0390 5F726573 		.ascii	"_result\000"
 2986      756C7400 
 2987              	.LASF29:
 2988 0398 5F5F6E6C 		.ascii	"__nlink_t\000"
 2988      696E6B5F 
 2988      7400
 2989              	.LASF31:
 2990 03a2 5F4C4F43 		.ascii	"_LOCK_T\000"
 2990      4B5F5400 
 2991              	.LASF4:
 2992 03aa 77696E74 		.ascii	"wint_t\000"
 2992      5F7400
 2993              	.LASF65:
 2994 03b1 5F6C6F63 		.ascii	"_lock\000"
 2994      6B00
 2995              	.LASF151:
 2996 03b7 5F636C6F 		.ascii	"_close_r\000"
 2996      73655F72 
 2996      00
 2997              	.LASF89:
 2998 03c0 5F6D756C 		.ascii	"_mult\000"
 2998      7400
 2999              	.LASF133:
 3000 03c6 73745F73 		.ascii	"st_size\000"
 3000      697A6500 
 3001              	.LASF57:
 3002 03ce 5F777269 		.ascii	"_write\000"
 3002      746500
 3003              	.LASF44:
 3004 03d5 5F5F746D 		.ascii	"__tm_year\000"
 3004      5F796561 
 3004      7200
 3005              	.LASF153:
 3006 03df 5F777269 		.ascii	"_write_r\000"
 3006      74655F72 
 3006      00
 3007              	.LASF114:
 3008 03e8 74765F6E 		.ascii	"tv_nsec\000"
 3008      73656300 
 3009              	.LASF63:
 3010 03f0 5F6F6666 		.ascii	"_offset\000"
 3010      73657400 
 3011              	.LASF113:
 3012 03f8 74765F73 		.ascii	"tv_sec\000"
 3012      656300
 3013              	.LASF156:
 3014 03ff 2E2E2F2E 		.ascii	"../../../os/various/syscalls.c\000"
 3014      2E2F2E2E 
 3014      2F6F732F 
 3014      76617269 
 3014      6F75732F 
 3015              	.LASF43:
 3016 041e 5F5F746D 		.ascii	"__tm_mon\000"
 3016      5F6D6F6E 
 3016      00
ARM GAS  C:\Users\DEVELO~1\AppData\Local\Temp\ccG9oqmd.s 			page 57


 3017              	.LASF15:
 3018 0427 5F5F626C 		.ascii	"__blksize_t\000"
 3018      6B73697A 
 3018      655F7400 
 3019              	.LASF16:
 3020 0433 5F6F6666 		.ascii	"_off_t\000"
 3020      5F7400
 3021              	.LASF22:
 3022 043a 5F5F6F66 		.ascii	"__off_t\000"
 3022      665F7400 
 3023              	.LASF111:
 3024 0442 74696D65 		.ascii	"time_t\000"
 3024      5F7400
 3025              	.LASF80:
 3026 0449 5F667265 		.ascii	"_freelist\000"
 3026      656C6973 
 3026      7400
 3027              	.LASF99:
 3028 0453 5F776374 		.ascii	"_wctomb_state\000"
 3028      6F6D625F 
 3028      73746174 
 3028      6500
 3029              	.LASF56:
 3030 0461 5F726561 		.ascii	"_read\000"
 3030      6400
 3031              	.LASF129:
 3032 0467 73745F6E 		.ascii	"st_nlink\000"
 3032      6C696E6B 
 3032      00
 3033              	.LASF140:
 3034 0470 5F426F6F 		.ascii	"_Bool\000"
 3034      6C00
 3035              	.LASF6:
 3036 0476 756E7369 		.ascii	"unsigned char\000"
 3036      676E6564 
 3036      20636861 
 3036      7200
 3037              	.LASF83:
 3038 0484 5F6E6577 		.ascii	"_new\000"
 3038      00
 3039              	.LASF108:
 3040 0489 5F685F65 		.ascii	"_h_errno\000"
 3040      72726E6F 
 3040      00
 3041              	.LASF46:
 3042 0492 5F5F746D 		.ascii	"__tm_yday\000"
 3042      5F796461 
 3042      7900
 3043              	.LASF148:
 3044 049c 66696C65 		.ascii	"file\000"
 3044      00
 3045              	.LASF137:
 3046 04a1 73745F62 		.ascii	"st_blksize\000"
 3046      6C6B7369 
 3046      7A6500
 3047              	.LASF86:
 3048 04ac 5F5F4649 		.ascii	"__FILE\000"
ARM GAS  C:\Users\DEVELO~1\AppData\Local\Temp\ccG9oqmd.s 			page 58


 3048      4C4500
 3049              	.LASF28:
 3050 04b3 5F6D6273 		.ascii	"_mbstate_t\000"
 3050      74617465 
 3050      5F7400
 3051              	.LASF51:
 3052 04be 5F5F7346 		.ascii	"__sFILE\000"
 3052      494C4500 
 3053              	.LASF112:
 3054 04c6 74696D65 		.ascii	"timespec\000"
 3054      73706563 
 3054      00
 3055              	.LASF162:
 3056 04cf 5F5F6675 		.ascii	"__func__\000"
 3056      6E635F5F 
 3056      00
 3057              	.LASF97:
 3058 04d8 5F6D626C 		.ascii	"_mblen_state\000"
 3058      656E5F73 
 3058      74617465 
 3058      00
 3059              	.LASF73:
 3060 04e5 5F696E63 		.ascii	"_inc\000"
 3060      00
 3061              	.LASF75:
 3062 04ea 5F6C6F63 		.ascii	"_locale\000"
 3062      616C6500 
 3063              	.LASF76:
 3064 04f2 5F5F636C 		.ascii	"__cleanup\000"
 3064      65616E75 
 3064      7000
 3065              	.LASF34:
 3066 04fc 5F6D6178 		.ascii	"_maxwds\000"
 3066      77647300 
 3067              	.LASF68:
 3068 0504 5F726565 		.ascii	"_reent\000"
 3068      6E7400
 3069              	.LASF20:
 3070 050b 5F5F696E 		.ascii	"__ino_t\000"
 3070      6F5F7400 
 3071              	.LASF88:
 3072 0513 5F736565 		.ascii	"_seed\000"
 3072      6400
 3073              	.LASF26:
 3074 0519 5F5F636F 		.ascii	"__count\000"
 3074      756E7400 
 3075              	.LASF109:
 3076 0521 5F5F6C6F 		.ascii	"__lock\000"
 3076      636B00
 3077              	.LASF27:
 3078 0528 5F5F7661 		.ascii	"__value\000"
 3078      6C756500 
 3079              	.LASF58:
 3080 0530 5F736565 		.ascii	"_seek\000"
 3080      6B00
 3081              	.LASF146:
 3082 0536 5F697361 		.ascii	"_isatty_r\000"
ARM GAS  C:\Users\DEVELO~1\AppData\Local\Temp\ccG9oqmd.s 			page 59


 3082      7474795F 
 3082      7200
 3083              	.LASF117:
 3084 0540 63616464 		.ascii	"caddr_t\000"
 3084      725F7400 
 3085              	.LASF132:
 3086 0548 73745F72 		.ascii	"st_rdev\000"
 3086      64657600 
 3087              	.LASF160:
 3088 0550 5F5F6378 		.ascii	"__cxa_pure_virtual\000"
 3088      615F7075 
 3088      72655F76 
 3088      69727475 
 3088      616C00
 3089              	.LASF152:
 3090 0563 5F6F7065 		.ascii	"_open_r\000"
 3090      6E5F7200 
 3091              	.LASF2:
 3092 056b 6C6F6E67 		.ascii	"long double\000"
 3092      20646F75 
 3092      626C6500 
 3093              	.LASF69:
 3094 0577 5F657272 		.ascii	"_errno\000"
 3094      6E6F00
 3095              	.LASF85:
 3096 057e 63686172 		.ascii	"char\000"
 3096      00
 3097              	.LASF139:
 3098 0583 73745F73 		.ascii	"st_spare4\000"
 3098      70617265 
 3098      3400
 3099              	.LASF50:
 3100 058d 5F73697A 		.ascii	"_size\000"
 3100      6500
 3101              	.LASF0:
 3102 0593 756E7369 		.ascii	"unsigned int\000"
 3102      676E6564 
 3102      20696E74 
 3102      00
 3103              	.LASF158:
 3104 05a0 61626F72 		.ascii	"abort\000"
 3104      7400
 3105              	.LASF10:
 3106 05a6 5F5F7569 		.ascii	"__uint32_t\000"
 3106      6E743332 
 3106      5F7400
 3107              	.LASF18:
 3108 05b1 5F5F7569 		.ascii	"__uid_t\000"
 3108      645F7400 
 3109              	.LASF33:
 3110 05b9 5F6E6578 		.ascii	"_next\000"
 3110      7400
 3111              	.LASF91:
 3112 05bf 5F737472 		.ascii	"_strtok_last\000"
 3112      746F6B5F 
 3112      6C617374 
 3112      00
ARM GAS  C:\Users\DEVELO~1\AppData\Local\Temp\ccG9oqmd.s 			page 60


 3113              	.LASF143:
 3114 05cc 5F6B696C 		.ascii	"_kill\000"
 3114      6C00
 3115              	.LASF90:
 3116 05d2 5F616464 		.ascii	"_add\000"
 3116      00
 3117              	.LASF131:
 3118 05d7 73745F67 		.ascii	"st_gid\000"
 3118      696400
 3119              	.LASF149:
 3120 05de 5F736272 		.ascii	"_sbrk_r\000"
 3120      6B5F7200 
 3121              	.LASF147:
 3122 05e6 5F667374 		.ascii	"_fstat_r\000"
 3122      61745F72 
 3122      00
 3123              	.LASF141:
 3124 05ef 6D656D73 		.ascii	"memset\000"
 3124      657400
 3125              	.LASF159:
 3126 05f6 63685379 		.ascii	"chSysHalt\000"
 3126      7348616C 
 3126      7400
 3127              	.LASF145:
 3128 0600 73746174 		.ascii	"status\000"
 3128      757300
 3129              	.LASF71:
 3130 0607 5F737464 		.ascii	"_stdout\000"
 3130      6F757400 
 3131              	.LASF45:
 3132 060f 5F5F746D 		.ascii	"__tm_wday\000"
 3132      5F776461 
 3132      7900
 3133              	.LASF126:
 3134 0619 73745F64 		.ascii	"st_dev\000"
 3134      657600
 3135              	.LASF70:
 3136 0620 5F737464 		.ascii	"_stdin\000"
 3136      696E00
 3137              	.LASF100:
 3138 0627 5F6C3634 		.ascii	"_l64a_buf\000"
 3138      615F6275 
 3138      6600
 3139              	.LASF84:
 3140 0631 5F736967 		.ascii	"_sig_func\000"
 3140      5F66756E 
 3140      6300
 3141              	.LASF116:
 3142 063b 626C6B73 		.ascii	"blksize_t\000"
 3142      697A655F 
 3142      7400
 3143              	.LASF135:
 3144 0645 73745F6D 		.ascii	"st_mtim\000"
 3144      74696D00 
 3145              	.LASF61:
 3146 064d 5F6E6275 		.ascii	"_nbuf\000"
 3146      6600
ARM GAS  C:\Users\DEVELO~1\AppData\Local\Temp\ccG9oqmd.s 			page 61


 3147              	.LASF47:
 3148 0653 5F5F746D 		.ascii	"__tm_isdst\000"
 3148      5F697364 
 3148      737400
 3149              	.LASF93:
 3150 065e 5F6C6F63 		.ascii	"_localtime_buf\000"
 3150      616C7469 
 3150      6D655F62 
 3150      756600
 3151              	.LASF40:
 3152 066d 5F5F746D 		.ascii	"__tm_min\000"
 3152      5F6D696E 
 3152      00
 3153              	.LASF96:
 3154 0676 5F723438 		.ascii	"_r48\000"
 3154      00
 3155              	.LASF98:
 3156 067b 5F6D6274 		.ascii	"_mbtowc_state\000"
 3156      6F77635F 
 3156      73746174 
 3156      6500
 3157              	.LASF79:
 3158 0689 5F703573 		.ascii	"_p5s\000"
 3158      00
 3159              	.LASF48:
 3160 068e 5F5F7362 		.ascii	"__sbuf\000"
 3160      756600
 3161              	.LASF42:
 3162 0695 5F5F746D 		.ascii	"__tm_mday\000"
 3162      5F6D6461 
 3162      7900
 3163              	.LASF95:
 3164 069f 5F72616E 		.ascii	"_rand_next\000"
 3164      645F6E65 
 3164      787400
 3165              	.LASF118:
 3166 06aa 696E6F5F 		.ascii	"ino_t\000"
 3166      7400
 3167              		.ident	"GCC: (Arm GNU Toolchain 11.3.Rel1) 11.3.1 20220712"
ARM GAS  C:\Users\DEVELO~1\AppData\Local\Temp\ccG9oqmd.s 			page 62


DEFINED SYMBOLS
                            *ABS*:00000000 syscalls.c
C:\Users\DEVELO~1\AppData\Local\Temp\ccG9oqmd.s:18     .text._read_r:00000000 $t
C:\Users\DEVELO~1\AppData\Local\Temp\ccG9oqmd.s:24     .text._read_r:00000000 _read_r
C:\Users\DEVELO~1\AppData\Local\Temp\ccG9oqmd.s:64     .text._lseek_r:00000000 $t
C:\Users\DEVELO~1\AppData\Local\Temp\ccG9oqmd.s:70     .text._lseek_r:00000000 _lseek_r
C:\Users\DEVELO~1\AppData\Local\Temp\ccG9oqmd.s:105    .text._write_r:00000000 $t
C:\Users\DEVELO~1\AppData\Local\Temp\ccG9oqmd.s:111    .text._write_r:00000000 _write_r
C:\Users\DEVELO~1\AppData\Local\Temp\ccG9oqmd.s:146    .text._open_r:00000000 $t
C:\Users\DEVELO~1\AppData\Local\Temp\ccG9oqmd.s:152    .text._open_r:00000000 _open_r
C:\Users\DEVELO~1\AppData\Local\Temp\ccG9oqmd.s:191    .text._close_r:00000000 $t
C:\Users\DEVELO~1\AppData\Local\Temp\ccG9oqmd.s:197    .text._close_r:00000000 _close_r
C:\Users\DEVELO~1\AppData\Local\Temp\ccG9oqmd.s:230    .text._sbrk_r:00000000 $t
C:\Users\DEVELO~1\AppData\Local\Temp\ccG9oqmd.s:236    .text._sbrk_r:00000000 _sbrk_r
C:\Users\DEVELO~1\AppData\Local\Temp\ccG9oqmd.s:286    .text._fstat_r:00000000 $t
C:\Users\DEVELO~1\AppData\Local\Temp\ccG9oqmd.s:292    .text._fstat_r:00000000 _fstat_r
C:\Users\DEVELO~1\AppData\Local\Temp\ccG9oqmd.s:332    .text._isatty_r:00000000 $t
C:\Users\DEVELO~1\AppData\Local\Temp\ccG9oqmd.s:338    .text._isatty_r:00000000 _isatty_r
C:\Users\DEVELO~1\AppData\Local\Temp\ccG9oqmd.s:371    .rodata:00000000 $d
C:\Users\DEVELO~1\AppData\Local\Temp\ccG9oqmd.s:375    .text._exit:00000000 $t
C:\Users\DEVELO~1\AppData\Local\Temp\ccG9oqmd.s:381    .text._exit:00000000 _exit
C:\Users\DEVELO~1\AppData\Local\Temp\ccG9oqmd.s:404    .text._exit:00000014 $d
C:\Users\DEVELO~1\AppData\Local\Temp\ccG9oqmd.s:413    .text._kill:00000000 $t
C:\Users\DEVELO~1\AppData\Local\Temp\ccG9oqmd.s:419    .text._kill:00000000 _kill
C:\Users\DEVELO~1\AppData\Local\Temp\ccG9oqmd.s:443    .text._kill:00000014 $d
C:\Users\DEVELO~1\AppData\Local\Temp\ccG9oqmd.s:448    .text._getpid:00000000 $t
C:\Users\DEVELO~1\AppData\Local\Temp\ccG9oqmd.s:454    .text._getpid:00000000 _getpid
C:\Users\DEVELO~1\AppData\Local\Temp\ccG9oqmd.s:485    .text.__cxa_pure_virtual:00000000 $t
C:\Users\DEVELO~1\AppData\Local\Temp\ccG9oqmd.s:491    .text.__cxa_pure_virtual:00000000 __cxa_pure_virtual
C:\Users\DEVELO~1\AppData\Local\Temp\ccG9oqmd.s:512    .text.__cxa_pure_virtual:00000010 $d

UNDEFINED SYMBOLS
chCoreAllocFromBase
memset
chSysHalt
abort
