ARM GAS  C:\Users\DEVELO~1\AppData\Local\Temp\ccG9oqmd.s 			page 1


   1              		.cpu cortex-m7
   2              		.arch armv7e-m
   3              		.fpu softvfp
   4              		.eabi_attribute 20, 1
   5              		.eabi_attribute 21, 1
   6              		.eabi_attribute 23, 3
   7              		.eabi_attribute 24, 1
   8              		.eabi_attribute 25, 1
   9              		.eabi_attribute 26, 1
  10              		.eabi_attribute 30, 6
  11              		.eabi_attribute 34, 1
  12              		.eabi_attribute 18, 4
  13              		.file	"syscalls.c"
  14              		.text
  15              	.Ltext0:
  16              		.cfi_sections	.debug_frame
  17              		.section	.text._read_r,"ax",%progbits
  18              		.align	1
  19              		.global	_read_r
  20              		.syntax unified
  21              		.thumb
  22              		.thumb_func
  23              		.type	_read_r, %function
  24              	_read_r:
  25              	.LFB346:
  26              		.file 1 "../../../os/various/syscalls.c"
  27              		.loc 1 71 62
  28              		.cfi_startproc
  29              		@ args = 0, pretend = 0, frame = 16
  30              		@ frame_needed = 1, uses_anonymous_args = 0
  31              		@ link register save eliminated.
  32 0000 80B4     		push	{r7}
  33              		.cfi_def_cfa_offset 4
  34              		.cfi_offset 7, -4
  35 0002 85B0     		sub	sp, sp, #20
  36              		.cfi_def_cfa_offset 24
  37 0004 00AF     		add	r7, sp, #0
  38              		.cfi_def_cfa_register 7
  39 0006 F860     		str	r0, [r7, #12]
  40 0008 B960     		str	r1, [r7, #8]
  41 000a 7A60     		str	r2, [r7, #4]
  42 000c 3B60     		str	r3, [r7]
  43              		.loc 1 84 17
  44 000e FB68     		ldr	r3, [r7, #12]
  45 0010 1622     		movs	r2, #22
  46 0012 1A60     		str	r2, [r3]
  47              		.loc 1 85 10
  48 0014 4FF0FF33 		mov	r3, #-1
  49              		.loc 1 87 1
  50 0018 1846     		mov	r0, r3
  51 001a 1437     		adds	r7, r7, #20
  52              		.cfi_def_cfa_offset 4
  53 001c BD46     		mov	sp, r7
  54              		.cfi_def_cfa_register 13
  55              		@ sp needed
  56 001e 80BC     		pop	{r7}
  57              		.cfi_restore 7
ARM GAS  C:\Users\DEVELO~1\AppData\Local\Temp\ccG9oqmd.s 			page 2


  58              		.cfi_def_cfa_offset 0
  59 0020 7047     		bx	lr
  60              		.cfi_endproc
  61              	.LFE346:
  62              		.size	_read_r, .-_read_r
  63              		.section	.text._lseek_r,"ax",%progbits
  64              		.align	1
  65              		.global	_lseek_r
  66              		.syntax unified
  67              		.thumb
  68              		.thumb_func
  69              		.type	_lseek_r, %function
  70              	_lseek_r:
  71              	.LFB347:
  72              		.loc 1 92 60
  73              		.cfi_startproc
  74              		@ args = 0, pretend = 0, frame = 16
  75              		@ frame_needed = 1, uses_anonymous_args = 0
  76              		@ link register save eliminated.
  77 0000 80B4     		push	{r7}
  78              		.cfi_def_cfa_offset 4
  79              		.cfi_offset 7, -4
  80 0002 85B0     		sub	sp, sp, #20
  81              		.cfi_def_cfa_offset 24
  82 0004 00AF     		add	r7, sp, #0
  83              		.cfi_def_cfa_register 7
  84 0006 F860     		str	r0, [r7, #12]
  85 0008 B960     		str	r1, [r7, #8]
  86 000a 7A60     		str	r2, [r7, #4]
  87 000c 3B60     		str	r3, [r7]
  88              		.loc 1 98 10
  89 000e 0023     		movs	r3, #0
  90              		.loc 1 99 1
  91 0010 1846     		mov	r0, r3
  92 0012 1437     		adds	r7, r7, #20
  93              		.cfi_def_cfa_offset 4
  94 0014 BD46     		mov	sp, r7
  95              		.cfi_def_cfa_register 13
  96              		@ sp needed
  97 0016 80BC     		pop	{r7}
  98              		.cfi_restore 7
  99              		.cfi_def_cfa_offset 0
 100 0018 7047     		bx	lr
 101              		.cfi_endproc
 102              	.LFE347:
 103              		.size	_lseek_r, .-_lseek_r
 104              		.section	.text._write_r,"ax",%progbits
 105              		.align	1
 106              		.global	_write_r
 107              		.syntax unified
 108              		.thumb
 109              		.thumb_func
 110              		.type	_write_r, %function
 111              	_write_r:
 112              	.LFB348:
 113              		.loc 1 104 63
 114              		.cfi_startproc
ARM GAS  C:\Users\DEVELO~1\AppData\Local\Temp\ccG9oqmd.s 			page 3


 115              		@ args = 0, pretend = 0, frame = 16
 116              		@ frame_needed = 1, uses_anonymous_args = 0
 117              		@ link register save eliminated.
 118 0000 80B4     		push	{r7}
 119              		.cfi_def_cfa_offset 4
 120              		.cfi_offset 7, -4
 121 0002 85B0     		sub	sp, sp, #20
 122              		.cfi_def_cfa_offset 24
 123 0004 00AF     		add	r7, sp, #0
 124              		.cfi_def_cfa_register 7
 125 0006 F860     		str	r0, [r7, #12]
 126 0008 B960     		str	r1, [r7, #8]
 127 000a 7A60     		str	r2, [r7, #4]
 128 000c 3B60     		str	r3, [r7]
 129              		.loc 1 115 10
 130 000e 3B68     		ldr	r3, [r7]
 131              		.loc 1 116 1
 132 0010 1846     		mov	r0, r3
 133 0012 1437     		adds	r7, r7, #20
 134              		.cfi_def_cfa_offset 4
 135 0014 BD46     		mov	sp, r7
 136              		.cfi_def_cfa_register 13
 137              		@ sp needed
 138 0016 80BC     		pop	{r7}
 139              		.cfi_restore 7
 140              		.cfi_def_cfa_offset 0
 141 0018 7047     		bx	lr
 142              		.cfi_endproc
 143              	.LFE348:
 144              		.size	_write_r, .-_write_r
 145              		.section	.text._open_r,"ax",%progbits
 146              		.align	1
 147              		.global	_open_r
 148              		.syntax unified
 149              		.thumb
 150              		.thumb_func
 151              		.type	_open_r, %function
 152              	_open_r:
 153              	.LFB349:
 154              		.loc 1 121 60
 155              		.cfi_startproc
 156              		@ args = 0, pretend = 0, frame = 16
 157              		@ frame_needed = 1, uses_anonymous_args = 0
 158              		@ link register save eliminated.
 159 0000 80B4     		push	{r7}
 160              		.cfi_def_cfa_offset 4
 161              		.cfi_offset 7, -4
 162 0002 85B0     		sub	sp, sp, #20
 163              		.cfi_def_cfa_offset 24
 164 0004 00AF     		add	r7, sp, #0
 165              		.cfi_def_cfa_register 7
 166 0006 F860     		str	r0, [r7, #12]
 167 0008 B960     		str	r1, [r7, #8]
 168 000a 7A60     		str	r2, [r7, #4]
 169 000c 3B60     		str	r3, [r7]
 170              		.loc 1 127 16
 171 000e FB68     		ldr	r3, [r7, #12]
ARM GAS  C:\Users\DEVELO~1\AppData\Local\Temp\ccG9oqmd.s 			page 4


 172 0010 1622     		movs	r2, #22
 173 0012 1A60     		str	r2, [r3]
 174              		.loc 1 128 10
 175 0014 4FF0FF33 		mov	r3, #-1
 176              		.loc 1 129 1
 177 0018 1846     		mov	r0, r3
 178 001a 1437     		adds	r7, r7, #20
 179              		.cfi_def_cfa_offset 4
 180 001c BD46     		mov	sp, r7
 181              		.cfi_def_cfa_register 13
 182              		@ sp needed
 183 001e 80BC     		pop	{r7}
 184              		.cfi_restore 7
 185              		.cfi_def_cfa_offset 0
 186 0020 7047     		bx	lr
 187              		.cfi_endproc
 188              	.LFE349:
 189              		.size	_open_r, .-_open_r
 190              		.section	.text._close_r,"ax",%progbits
 191              		.align	1
 192              		.global	_close_r
 193              		.syntax unified
 194              		.thumb
 195              		.thumb_func
 196              		.type	_close_r, %function
 197              	_close_r:
 198              	.LFB350:
 199              		.loc 1 134 42
 200              		.cfi_startproc
 201              		@ args = 0, pretend = 0, frame = 8
 202              		@ frame_needed = 1, uses_anonymous_args = 0
 203              		@ link register save eliminated.
 204 0000 80B4     		push	{r7}
 205              		.cfi_def_cfa_offset 4
 206              		.cfi_offset 7, -4
 207 0002 83B0     		sub	sp, sp, #12
 208              		.cfi_def_cfa_offset 16
 209 0004 00AF     		add	r7, sp, #0
 210              		.cfi_def_cfa_register 7
 211 0006 7860     		str	r0, [r7, #4]
 212 0008 3960     		str	r1, [r7]
 213              		.loc 1 138 10
 214 000a 0023     		movs	r3, #0
 215              		.loc 1 139 1
 216 000c 1846     		mov	r0, r3
 217 000e 0C37     		adds	r7, r7, #12
 218              		.cfi_def_cfa_offset 4
 219 0010 BD46     		mov	sp, r7
 220              		.cfi_def_cfa_register 13
 221              		@ sp needed
 222 0012 80BC     		pop	{r7}
 223              		.cfi_restore 7
 224              		.cfi_def_cfa_offset 0
 225 0014 7047     		bx	lr
 226              		.cfi_endproc
 227              	.LFE350:
 228              		.size	_close_r, .-_close_r
ARM GAS  C:\Users\DEVELO~1\AppData\Local\Temp\ccG9oqmd.s 			page 5


 229              		.section	.text._sbrk_r,"ax",%progbits
 230              		.align	1
 231              		.global	_sbrk_r
 232              		.syntax unified
 233              		.thumb
 234              		.thumb_func
 235              		.type	_sbrk_r, %function
 236              	_sbrk_r:
 237              	.LFB351:
 238              		.loc 1 144 45
 239              		.cfi_startproc
 240              		@ args = 0, pretend = 0, frame = 16
 241              		@ frame_needed = 1, uses_anonymous_args = 0
 242 0000 80B5     		push	{r7, lr}
 243              		.cfi_def_cfa_offset 8
 244              		.cfi_offset 7, -8
 245              		.cfi_offset 14, -4
 246 0002 84B0     		sub	sp, sp, #16
 247              		.cfi_def_cfa_offset 24
 248 0004 00AF     		add	r7, sp, #0
 249              		.cfi_def_cfa_register 7
 250 0006 7860     		str	r0, [r7, #4]
 251 0008 3960     		str	r1, [r7]
 252              		.loc 1 150 7
 253 000a 3B68     		ldr	r3, [r7]
 254 000c 0022     		movs	r2, #0
 255 000e 0121     		movs	r1, #1
 256 0010 1846     		mov	r0, r3
 257 0012 FFF7FEFF 		bl	chCoreAllocFromBase
 258 0016 F860     		str	r0, [r7, #12]
 259              		.loc 1 151 6
 260 0018 FB68     		ldr	r3, [r7, #12]
 261 001a 002B     		cmp	r3, #0
 262 001c 05D1     		bne	.L12
 263              		.loc 1 152 19
 264 001e 7B68     		ldr	r3, [r7, #4]
 265 0020 0C22     		movs	r2, #12
 266 0022 1A60     		str	r2, [r3]
 267              		.loc 1 153 12
 268 0024 4FF0FF33 		mov	r3, #-1
 269 0028 00E0     		b	.L13
 270              	.L12:
 271              		.loc 1 155 10
 272 002a FB68     		ldr	r3, [r7, #12]
 273              	.L13:
 274              		.loc 1 161 1
 275 002c 1846     		mov	r0, r3
 276 002e 1037     		adds	r7, r7, #16
 277              		.cfi_def_cfa_offset 8
 278 0030 BD46     		mov	sp, r7
 279              		.cfi_def_cfa_register 13
 280              		@ sp needed
 281 0032 80BD     		pop	{r7, pc}
 282              		.cfi_endproc
 283              	.LFE351:
 284              		.size	_sbrk_r, .-_sbrk_r
 285              		.section	.text._fstat_r,"ax",%progbits
ARM GAS  C:\Users\DEVELO~1\AppData\Local\Temp\ccG9oqmd.s 			page 6


 286              		.align	1
 287              		.global	_fstat_r
 288              		.syntax unified
 289              		.thumb
 290              		.thumb_func
 291              		.type	_fstat_r, %function
 292              	_fstat_r:
 293              	.LFB352:
 294              		.loc 1 166 60
 295              		.cfi_startproc
 296              		@ args = 0, pretend = 0, frame = 16
 297              		@ frame_needed = 1, uses_anonymous_args = 0
 298 0000 80B5     		push	{r7, lr}
 299              		.cfi_def_cfa_offset 8
 300              		.cfi_offset 7, -8
 301              		.cfi_offset 14, -4
 302 0002 84B0     		sub	sp, sp, #16
 303              		.cfi_def_cfa_offset 24
 304 0004 00AF     		add	r7, sp, #0
 305              		.cfi_def_cfa_register 7
 306 0006 F860     		str	r0, [r7, #12]
 307 0008 B960     		str	r1, [r7, #8]
 308 000a 7A60     		str	r2, [r7, #4]
 309              		.loc 1 170 3
 310 000c 5822     		movs	r2, #88
 311 000e 0021     		movs	r1, #0
 312 0010 7868     		ldr	r0, [r7, #4]
 313 0012 FFF7FEFF 		bl	memset
 314              		.loc 1 171 15
 315 0016 7B68     		ldr	r3, [r7, #4]
 316 0018 4FF40052 		mov	r2, #8192
 317 001c 5A60     		str	r2, [r3, #4]
 318              		.loc 1 172 10
 319 001e 0023     		movs	r3, #0
 320              		.loc 1 173 1
 321 0020 1846     		mov	r0, r3
 322 0022 1037     		adds	r7, r7, #16
 323              		.cfi_def_cfa_offset 8
 324 0024 BD46     		mov	sp, r7
 325              		.cfi_def_cfa_register 13
 326              		@ sp needed
 327 0026 80BD     		pop	{r7, pc}
 328              		.cfi_endproc
 329              	.LFE352:
 330              		.size	_fstat_r, .-_fstat_r
 331              		.section	.text._isatty_r,"ax",%progbits
 332              		.align	1
 333              		.global	_isatty_r
 334              		.syntax unified
 335              		.thumb
 336              		.thumb_func
 337              		.type	_isatty_r, %function
 338              	_isatty_r:
 339              	.LFB353:
 340              		.loc 1 178 41
 341              		.cfi_startproc
 342              		@ args = 0, pretend = 0, frame = 8
ARM GAS  C:\Users\DEVELO~1\AppData\Local\Temp\ccG9oqmd.s 			page 7


 343              		@ frame_needed = 1, uses_anonymous_args = 0
 344              		@ link register save eliminated.
 345 0000 80B4     		push	{r7}
 346              		.cfi_def_cfa_offset 4
 347              		.cfi_offset 7, -4
 348 0002 83B0     		sub	sp, sp, #12
 349              		.cfi_def_cfa_offset 16
 350 0004 00AF     		add	r7, sp, #0
 351              		.cfi_def_cfa_register 7
 352 0006 7860     		str	r0, [r7, #4]
 353 0008 3960     		str	r1, [r7]
 354              		.loc 1 182 10
 355 000a 0123     		movs	r3, #1
 356              		.loc 1 183 1
 357 000c 1846     		mov	r0, r3
 358 000e 0C37     		adds	r7, r7, #12
 359              		.cfi_def_cfa_offset 4
 360 0010 BD46     		mov	sp, r7
 361              		.cfi_def_cfa_register 13
 362              		@ sp needed
 363 0012 80BC     		pop	{r7}
 364              		.cfi_restore 7
 365              		.cfi_def_cfa_offset 0
 366 0014 7047     		bx	lr
 367              		.cfi_endproc
 368              	.LFE353:
 369              		.size	_isatty_r, .-_isatty_r
 370              		.section	.rodata
 371              		.align	2
 372              	.LC0:
 373 0000 65786974 		.ascii	"exit\000"
 373      00
 374              		.section	.text._exit,"ax",%progbits
 375              		.align	1
 376              		.global	_exit
 377              		.syntax unified
 378              		.thumb
 379              		.thumb_func
 380              		.type	_exit, %function
 381              	_exit:
 382              	.LFB354:
 383              		.loc 1 188 24
 384              		.cfi_startproc
 385              		@ args = 0, pretend = 0, frame = 8
 386              		@ frame_needed = 1, uses_anonymous_args = 0
 387 0000 80B5     		push	{r7, lr}
 388              		.cfi_def_cfa_offset 8
 389              		.cfi_offset 7, -8
 390              		.cfi_offset 14, -4
 391 0002 82B0     		sub	sp, sp, #8
 392              		.cfi_def_cfa_offset 16
 393 0004 00AF     		add	r7, sp, #0
 394              		.cfi_def_cfa_register 7
 395 0006 7860     		str	r0, [r7, #4]
 396              		.loc 1 192 3
 397 0008 0248     		ldr	r0, .L19
 398 000a FFF7FEFF 		bl	chSysHalt
ARM GAS  C:\Users\DEVELO~1\AppData\Local\Temp\ccG9oqmd.s 			page 8


 399              		.loc 1 193 3
 400 000e FFF7FEFF 		bl	abort
 401              	.L20:
 402 0012 00BF     		.align	2
 403              	.L19:
 404 0014 00000000 		.word	.LC0
 405              		.cfi_endproc
 406              	.LFE354:
 407              		.size	_exit, .-_exit
 408              		.section	.rodata
 409 0005 000000   		.align	2
 410              	.LC1:
 411 0008 6B696C6C 		.ascii	"kill\000"
 411      00
 412              		.section	.text._kill,"ax",%progbits
 413              		.align	1
 414              		.global	_kill
 415              		.syntax unified
 416              		.thumb
 417              		.thumb_func
 418              		.type	_kill, %function
 419              	_kill:
 420              	.LFB355:
 421              		.loc 1 199 29
 422              		.cfi_startproc
 423              		@ args = 0, pretend = 0, frame = 8
 424              		@ frame_needed = 1, uses_anonymous_args = 0
 425 0000 80B5     		push	{r7, lr}
 426              		.cfi_def_cfa_offset 8
 427              		.cfi_offset 7, -8
 428              		.cfi_offset 14, -4
 429 0002 82B0     		sub	sp, sp, #8
 430              		.cfi_def_cfa_offset 16
 431 0004 00AF     		add	r7, sp, #0
 432              		.cfi_def_cfa_register 7
 433 0006 7860     		str	r0, [r7, #4]
 434 0008 3960     		str	r1, [r7]
 435              		.loc 1 204 3
 436 000a 0248     		ldr	r0, .L22
 437 000c FFF7FEFF 		bl	chSysHalt
 438              		.loc 1 205 3
 439 0010 FFF7FEFF 		bl	abort
 440              	.L23:
 441              		.align	2
 442              	.L22:
 443 0014 08000000 		.word	.LC1
 444              		.cfi_endproc
 445              	.LFE355:
 446              		.size	_kill, .-_kill
 447              		.section	.text._getpid,"ax",%progbits
 448              		.align	1
 449              		.global	_getpid
 450              		.syntax unified
 451              		.thumb
 452              		.thumb_func
 453              		.type	_getpid, %function
 454              	_getpid:
ARM GAS  C:\Users\DEVELO~1\AppData\Local\Temp\ccG9oqmd.s 			page 9


 455              	.LFB356:
 456              		.loc 1 211 19
 457              		.cfi_startproc
 458              		@ args = 0, pretend = 0, frame = 0
 459              		@ frame_needed = 1, uses_anonymous_args = 0
 460              		@ link register save eliminated.
 461 0000 80B4     		push	{r7}
 462              		.cfi_def_cfa_offset 4
 463              		.cfi_offset 7, -4
 464 0002 00AF     		add	r7, sp, #0
 465              		.cfi_def_cfa_register 7
 466              		.loc 1 213 10
 467 0004 0123     		movs	r3, #1
 468              		.loc 1 215 1
 469 0006 1846     		mov	r0, r3
 470 0008 BD46     		mov	sp, r7
 471              		.cfi_def_cfa_register 13
 472              		@ sp needed
 473 000a 80BC     		pop	{r7}
 474              		.cfi_restore 7
 475              		.cfi_def_cfa_offset 0
 476 000c 7047     		bx	lr
 477              		.cfi_endproc
 478              	.LFE356:
 479              		.size	_getpid, .-_getpid
 480              		.section	.rodata
 481 000d 000000   		.align	2
 482              	.LC2:
 483 0010 70757265 		.ascii	"pure virtual\000"
 483      20766972 
 483      7475616C 
 483      00
 484              		.section	.text.__cxa_pure_virtual,"ax",%progbits
 485              		.align	1
 486              		.global	__cxa_pure_virtual
 487              		.syntax unified
 488              		.thumb
 489              		.thumb_func
 490              		.type	__cxa_pure_virtual, %function
 491              	__cxa_pure_virtual:
 492              	.LFB357:
 493              		.loc 1 219 31
 494              		.cfi_startproc
 495              		@ args = 0, pretend = 0, frame = 0
 496              		@ frame_needed = 1, uses_anonymous_args = 0
 497 0000 80B5     		push	{r7, lr}
 498              		.cfi_def_cfa_offset 8
 499              		.cfi_offset 7, -8
 500              		.cfi_offset 14, -4
 501 0002 00AF     		add	r7, sp, #0
 502              		.cfi_def_cfa_register 7
 503              		.loc 1 220 3
 504 0004 0248     		ldr	r0, .L27
 505 0006 FFF7FEFF 		bl	chSysHalt
 506              		.loc 1 221 1
 507 000a 00BF     		nop
 508 000c 80BD     		pop	{r7, pc}
ARM GAS  C:\Users\DEVELO~1\AppData\Local\Temp\ccG9oqmd.s 			page 10


 509              	.L28:
 510 000e 00BF     		.align	2
 511              	.L27:
 512 0010 10000000 		.word	.LC2
 513              		.cfi_endproc
 514              	.LFE357:
 515              		.size	__cxa_pure_virtual, .-__cxa_pure_virtual
 516              		.text
 517              	.Letext0:
 518              		.file 2 "c:\\chibistudio\\tools\\gnu tools arm embedded\\11.3 2022.08\\lib\\gcc\\arm-none-eabi\\11
 519              		.file 3 "c:\\chibistudio\\tools\\gnu tools arm embedded\\11.3 2022.08\\arm-none-eabi\\include\\mac
 520              		.file 4 "c:\\chibistudio\\tools\\gnu tools arm embedded\\11.3 2022.08\\arm-none-eabi\\include\\sys
 521              		.file 5 "c:\\chibistudio\\tools\\gnu tools arm embedded\\11.3 2022.08\\arm-none-eabi\\include\\sys
 522              		.file 6 "c:\\chibistudio\\tools\\gnu tools arm embedded\\11.3 2022.08\\arm-none-eabi\\include\\sys
 523              		.file 7 "c:\\chibistudio\\tools\\gnu tools arm embedded\\11.3 2022.08\\arm-none-eabi\\include\\sys
 524              		.file 8 "c:\\chibistudio\\tools\\gnu tools arm embedded\\11.3 2022.08\\arm-none-eabi\\include\\sys
 525              		.file 9 "c:\\chibistudio\\tools\\gnu tools arm embedded\\11.3 2022.08\\arm-none-eabi\\include\\sys
 526              		.file 10 "c:\\chibistudio\\tools\\gnu tools arm embedded\\11.3 2022.08\\arm-none-eabi\\include\\sy
 527              		.file 11 "c:\\chibistudio\\tools\\gnu tools arm embedded\\11.3 2022.08\\arm-none-eabi\\include\\st
 528              		.file 12 "../../../os/oslib/include/chmemcore.h"
 529              		.file 13 "c:\\chibistudio\\tools\\gnu tools arm embedded\\11.3 2022.08\\arm-none-eabi\\include\\st
 530              		.file 14 "../../../os/rt/include/chearly.h"