ARM GAS  C:\Users\DEVELO~1\AppData\Local\Temp\ccRUvqpW.s 			page 1


   1              		.cpu cortex-m7
   2              		.arch armv7e-m
   3              		.fpu softvfp
   4              		.eabi_attribute 20, 1
   5              		.eabi_attribute 21, 1
   6              		.eabi_attribute 23, 3
   7              		.eabi_attribute 24, 1
   8              		.eabi_attribute 25, 1
   9              		.eabi_attribute 26, 1
  10              		.eabi_attribute 30, 6
  11              		.eabi_attribute 34, 1
  12              		.eabi_attribute 18, 4
  13              		.file	"usb_device.c"
  14              		.text
  15              	.Ltext0:
  16              		.cfi_sections	.debug_frame
  17              		.section	.text.usb_device_start,"ax",%progbits
  18              		.align	1
  19              		.global	usb_device_start
  20              		.syntax unified
  21              		.thumb
  22              		.thumb_func
  23              		.type	usb_device_start, %function
  24              	usb_device_start:
  25              	.LFB432:
  26              		.file 1 "usb/usb_device.c"
  27              		.loc 1 48 29
  28              		.cfi_startproc
  29              		@ args = 0, pretend = 0, frame = 0
  30              		@ frame_needed = 1, uses_anonymous_args = 0
  31 0000 80B5     		push	{r7, lr}
  32              		.cfi_def_cfa_offset 8
  33              		.cfi_offset 7, -8
  34              		.cfi_offset 14, -4
  35 0002 00AF     		add	r7, sp, #0
  36              		.cfi_def_cfa_register 7
  37              		.loc 1 50 5
  38 0004 104B     		ldr	r3, .L2
  39 0006 D3F89030 		ldr	r3, [r3, #144]
  40 000a D3F80428 		ldr	r2, [r3, #2052]
  41 000e 0E4B     		ldr	r3, .L2
  42 0010 D3F89030 		ldr	r3, [r3, #144]
  43 0014 42F00202 		orr	r2, r2, #2
  44 0018 C3F80428 		str	r2, [r3, #2052]
  45              		.loc 1 51 5
  46 001c 43F69820 		movw	r0, #15000
  47 0020 FFF7FEFF 		bl	chThdSleep
  48              		.loc 1 54 5
  49 0024 0949     		ldr	r1, .L2+4
  50 0026 0848     		ldr	r0, .L2
  51 0028 FFF7FEFF 		bl	usbStart
  52              		.loc 1 74 5
  53 002c 064B     		ldr	r3, .L2
  54 002e D3F89030 		ldr	r3, [r3, #144]
  55 0032 D3F80428 		ldr	r2, [r3, #2052]
  56 0036 044B     		ldr	r3, .L2
  57 0038 D3F89030 		ldr	r3, [r3, #144]
ARM GAS  C:\Users\DEVELO~1\AppData\Local\Temp\ccRUvqpW.s 			page 2


  58 003c 22F00202 		bic	r2, r2, #2
  59 0040 C3F80428 		str	r2, [r3, #2052]
  60              		.loc 1 75 1
  61 0044 00BF     		nop
  62 0046 80BD     		pop	{r7, pc}
  63              	.L3:
  64              		.align	2
  65              	.L2:
  66 0048 00000000 		.word	USBD1
  67 004c 00000000 		.word	usbcfg
  68              		.cfi_endproc
  69              	.LFE432:
  70              		.size	usb_device_start, .-usb_device_start
  71              		.section	.text.usb_device_active,"ax",%progbits
  72              		.align	1
  73              		.global	usb_device_active
  74              		.syntax unified
  75              		.thumb
  76              		.thumb_func
  77              		.type	usb_device_active, %function
  78              	usb_device_active:
  79              	.LFB433:
  80              		.loc 1 82 30
  81              		.cfi_startproc
  82              		@ args = 0, pretend = 0, frame = 0
  83              		@ frame_needed = 1, uses_anonymous_args = 0
  84              		@ link register save eliminated.
  85 0000 80B4     		push	{r7}
  86              		.cfi_def_cfa_offset 4
  87              		.cfi_offset 7, -4
  88 0002 00AF     		add	r7, sp, #0
  89              		.cfi_def_cfa_register 7
  90              		.loc 1 83 12
  91 0004 034B     		ldr	r3, .L6
  92 0006 1B78     		ldrb	r3, [r3]
  93 0008 DBB2     		uxtb	r3, r3
  94              		.loc 1 84 1
  95 000a 1846     		mov	r0, r3
  96 000c BD46     		mov	sp, r7
  97              		.cfi_def_cfa_register 13
  98              		@ sp needed
  99 000e 80BC     		pop	{r7}
 100              		.cfi_restore 7
 101              		.cfi_def_cfa_offset 0
 102 0010 7047     		bx	lr
 103              	.L7:
 104 0012 00BF     		.align	2
 105              	.L6:
 106 0014 00000000 		.word	usb_midi_tx_ready
 107              		.cfi_endproc
 108              	.LFE433:
 109              		.size	usb_device_active, .-usb_device_active
 110              		.text
 111              	.Letext0:
 112              		.file 2 "c:\\chibistudio\\tools\\gnu tools arm embedded\\11.3 2022.08\\lib\\gcc\\arm-none-eabi\\11
 113              		.file 3 "c:\\chibistudio\\tools\\gnu tools arm embedded\\11.3 2022.08\\arm-none-eabi\\include\\mac
 114              		.file 4 "c:\\chibistudio\\tools\\gnu tools arm embedded\\11.3 2022.08\\arm-none-eabi\\include\\sys
ARM GAS  C:\Users\DEVELO~1\AppData\Local\Temp\ccRUvqpW.s 			page 3


 115              		.file 5 "../../../os/rt/include/chearly.h"
 116              		.file 6 "../../../os/rt/include/chtime.h"
 117              		.file 7 "../../../os/hal/include/hal_usb.h"
 118              		.file 8 "../../../os/hal/ports/STM32/LLD/OTGv1/hal_usb_lld.h"
 119              		.file 9 "../../../os/hal/ports/STM32/LLD/OTGv1/stm32_otg.h"
 120              		.file 10 "usb/usbcfg.h"
 121              		.file 11 "../../../os/rt/include/chthreads.h"