ARM GAS  C:\Users\DEVELO~1\AppData\Local\Temp\ccPZimPw.s 			page 1


   1              		.cpu cortex-m7
   2              		.arch armv7e-m
   3              		.fpu softvfp
   4              		.eabi_attribute 20, 1
   5              		.eabi_attribute 21, 1
   6              		.eabi_attribute 23, 3
   7              		.eabi_attribute 24, 1
   8              		.eabi_attribute 25, 1
   9              		.eabi_attribute 26, 1
  10              		.eabi_attribute 30, 6
  11              		.eabi_attribute 34, 1
  12              		.eabi_attribute 18, 4
  13              		.file	"usbcfg.c"
  14              		.text
  15              	.Ltext0:
  16              		.cfi_sections	.debug_frame
  17              		.section	.text.chSysLockFromISR,"ax",%progbits
  18              		.align	1
  19              		.syntax unified
  20              		.thumb
  21              		.thumb_func
  22              		.type	chSysLockFromISR, %function
  23              	chSysLockFromISR:
  24              	.LFB204:
  25              		.file 1 "../../../os/rt/include/chsys.h"
  26              		.loc 1 451 43
  27              		.cfi_startproc
  28              		@ args = 0, pretend = 0, frame = 8
  29              		@ frame_needed = 1, uses_anonymous_args = 0
  30              		@ link register save eliminated.
  31 0000 80B4     		push	{r7}
  32              		.cfi_def_cfa_offset 4
  33              		.cfi_offset 7, -4
  34 0002 83B0     		sub	sp, sp, #12
  35              		.cfi_def_cfa_offset 16
  36 0004 00AF     		add	r7, sp, #0
  37              		.cfi_def_cfa_register 7
  38 0006 3023     		movs	r3, #48
  39 0008 7B60     		str	r3, [r7, #4]
  40              	.LBB26:
  41              	.LBB27:
  42              	.LBB28:
  43              	.LBB29:
  44              	.LBB30:
  45              	.LBB31:
  46              		.file 2 "../../../os/common/ext/ARM/CMSIS/Core/Include/cmsis_gcc.h"
  47              		.loc 2 493 3
  48 000a 7B68     		ldr	r3, [r7, #4]
  49              		.syntax unified
  50              	@ 493 "../../../os/common/ext/ARM/CMSIS/Core/Include/cmsis_gcc.h" 1
  51 000c 83F31188 		MSR basepri, r3
  52              	@ 0 "" 2
  53              		.loc 2 494 1
  54              		.thumb
  55              		.syntax unified
  56 0010 00BF     		nop
  57              	.LBE31:
ARM GAS  C:\Users\DEVELO~1\AppData\Local\Temp\ccPZimPw.s 			page 2


  58              	.LBE30:
  59              		.file 3 "../../../os/common/ports/ARMv7-M/chcore.h"
  60              		.loc 3 840 1
  61 0012 00BF     		nop
  62              	.LBE29:
  63              	.LBE28:
  64              		.loc 3 865 1
  65 0014 00BF     		nop
  66              	.LBE27:
  67              	.LBE26:
  68              		.loc 1 456 1
  69 0016 00BF     		nop
  70 0018 0C37     		adds	r7, r7, #12
  71              		.cfi_def_cfa_offset 4
  72 001a BD46     		mov	sp, r7
  73              		.cfi_def_cfa_register 13
  74              		@ sp needed
  75 001c 80BC     		pop	{r7}
  76              		.cfi_restore 7
  77              		.cfi_def_cfa_offset 0
  78 001e 7047     		bx	lr
  79              		.cfi_endproc
  80              	.LFE204:
  81              		.size	chSysLockFromISR, .-chSysLockFromISR
  82              		.section	.text.chSysUnlockFromISR,"ax",%progbits
  83              		.align	1
  84              		.syntax unified
  85              		.thumb
  86              		.thumb_func
  87              		.type	chSysUnlockFromISR, %function
  88              	chSysUnlockFromISR:
  89              	.LFB205:
  90              		.loc 1 473 45
  91              		.cfi_startproc
  92              		@ args = 0, pretend = 0, frame = 8
  93              		@ frame_needed = 1, uses_anonymous_args = 0
  94              		@ link register save eliminated.
  95 0000 80B4     		push	{r7}
  96              		.cfi_def_cfa_offset 4
  97              		.cfi_offset 7, -4
  98 0002 83B0     		sub	sp, sp, #12
  99              		.cfi_def_cfa_offset 16
 100 0004 00AF     		add	r7, sp, #0
 101              		.cfi_def_cfa_register 7
 102 0006 0023     		movs	r3, #0
 103 0008 7B60     		str	r3, [r7, #4]
 104              	.LBB32:
 105              	.LBB33:
 106              	.LBB34:
 107              	.LBB35:
 108              	.LBB36:
 109              	.LBB37:
 110              		.loc 2 493 3
 111 000a 7B68     		ldr	r3, [r7, #4]
 112              		.syntax unified
 113              	@ 493 "../../../os/common/ext/ARM/CMSIS/Core/Include/cmsis_gcc.h" 1
 114 000c 83F31188 		MSR basepri, r3
ARM GAS  C:\Users\DEVELO~1\AppData\Local\Temp\ccPZimPw.s 			page 3


 115              	@ 0 "" 2
 116              		.loc 2 494 1
 117              		.thumb
 118              		.syntax unified
 119 0010 00BF     		nop
 120              	.LBE37:
 121              	.LBE36:
 122              		.loc 3 854 1
 123 0012 00BF     		nop
 124              	.LBE35:
 125              	.LBE34:
 126              		.loc 3 876 1
 127 0014 00BF     		nop
 128              	.LBE33:
 129              	.LBE32:
 130              		.loc 1 478 1
 131 0016 00BF     		nop
 132 0018 0C37     		adds	r7, r7, #12
 133              		.cfi_def_cfa_offset 4
 134 001a BD46     		mov	sp, r7
 135              		.cfi_def_cfa_register 13
 136              		@ sp needed
 137 001c 80BC     		pop	{r7}
 138              		.cfi_restore 7
 139              		.cfi_def_cfa_offset 0
 140 001e 7047     		bx	lr
 141              		.cfi_endproc
 142              	.LFE205:
 143              		.size	chSysUnlockFromISR, .-chSysUnlockFromISR
 144              		.section	.text.chBSemSignalI,"ax",%progbits
 145              		.align	1
 146              		.syntax unified
 147              		.thumb
 148              		.thumb_func
 149              		.type	chBSemSignalI, %function
 150              	chBSemSignalI:
 151              	.LFB272:
 152              		.file 4 "../../../os/oslib/include/chbsem.h"
 153              		.loc 4 266 59
 154              		.cfi_startproc
 155              		@ args = 0, pretend = 0, frame = 8
 156              		@ frame_needed = 1, uses_anonymous_args = 0
 157 0000 80B5     		push	{r7, lr}
 158              		.cfi_def_cfa_offset 8
 159              		.cfi_offset 7, -8
 160              		.cfi_offset 14, -4
 161 0002 82B0     		sub	sp, sp, #8
 162              		.cfi_def_cfa_offset 16
 163 0004 00AF     		add	r7, sp, #0
 164              		.cfi_def_cfa_register 7
 165 0006 7860     		str	r0, [r7, #4]
 166              		.loc 4 270 15
 167 0008 7B68     		ldr	r3, [r7, #4]
 168 000a 9B68     		ldr	r3, [r3, #8]
 169              		.loc 4 270 6
 170 000c 002B     		cmp	r3, #0
 171 000e 03DC     		bgt	.L5
ARM GAS  C:\Users\DEVELO~1\AppData\Local\Temp\ccPZimPw.s 			page 4


 172              		.loc 4 271 5
 173 0010 7B68     		ldr	r3, [r7, #4]
 174 0012 1846     		mov	r0, r3
 175 0014 FFF7FEFF 		bl	chSemSignalI
 176              	.L5:
 177              		.loc 4 273 1
 178 0018 00BF     		nop
 179 001a 0837     		adds	r7, r7, #8
 180              		.cfi_def_cfa_offset 8
 181 001c BD46     		mov	sp, r7
 182              		.cfi_def_cfa_register 13
 183              		@ sp needed
 184 001e 80BD     		pop	{r7, pc}
 185              		.cfi_endproc
 186              	.LFE272:
 187              		.size	chBSemSignalI, .-chBSemSignalI
 188              		.section	.text.osalSysLockFromISR,"ax",%progbits
 189              		.align	1
 190              		.syntax unified
 191              		.thumb
 192              		.thumb_func
 193              		.type	osalSysLockFromISR, %function
 194              	osalSysLockFromISR:
 195              	.LFB352:
 196              		.file 5 "../../../os/hal/osal/rt-nil/osal.h"
 197              		.loc 5 595 45
 198              		.cfi_startproc
 199              		@ args = 0, pretend = 0, frame = 0
 200              		@ frame_needed = 1, uses_anonymous_args = 0
 201 0000 80B5     		push	{r7, lr}
 202              		.cfi_def_cfa_offset 8
 203              		.cfi_offset 7, -8
 204              		.cfi_offset 14, -4
 205 0002 00AF     		add	r7, sp, #0
 206              		.cfi_def_cfa_register 7
 207              		.loc 5 597 3
 208 0004 FFF7FEFF 		bl	chSysLockFromISR
 209              		.loc 5 598 1
 210 0008 00BF     		nop
 211 000a 80BD     		pop	{r7, pc}
 212              		.cfi_endproc
 213              	.LFE352:
 214              		.size	osalSysLockFromISR, .-osalSysLockFromISR
 215              		.section	.text.osalSysUnlockFromISR,"ax",%progbits
 216              		.align	1
 217              		.syntax unified
 218              		.thumb
 219              		.thumb_func
 220              		.type	osalSysUnlockFromISR, %function
 221              	osalSysUnlockFromISR:
 222              	.LFB353:
 223              		.loc 5 606 47
 224              		.cfi_startproc
 225              		@ args = 0, pretend = 0, frame = 0
 226              		@ frame_needed = 1, uses_anonymous_args = 0
 227 0000 80B5     		push	{r7, lr}
 228              		.cfi_def_cfa_offset 8
ARM GAS  C:\Users\DEVELO~1\AppData\Local\Temp\ccPZimPw.s 			page 5


 229              		.cfi_offset 7, -8
 230              		.cfi_offset 14, -4
 231 0002 00AF     		add	r7, sp, #0
 232              		.cfi_def_cfa_register 7
 233              		.loc 5 608 3
 234 0004 FFF7FEFF 		bl	chSysUnlockFromISR
 235              		.loc 5 609 1
 236 0008 00BF     		nop
 237 000a 80BD     		pop	{r7, pc}
 238              		.cfi_endproc
 239              	.LFE353:
 240              		.size	osalSysUnlockFromISR, .-osalSysUnlockFromISR
 241              		.section	.text.usb_dcache_invalidate,"ax",%progbits
 242              		.align	1
 243              		.syntax unified
 244              		.thumb
 245              		.thumb_func
 246              		.type	usb_dcache_invalidate, %function
 247              	usb_dcache_invalidate:
 248              	.LFB432:
 249              		.file 6 "usb/usbcfg.c"
 250              		.loc 6 46 66
 251              		.cfi_startproc
 252              		@ args = 0, pretend = 0, frame = 8
 253              		@ frame_needed = 1, uses_anonymous_args = 0
 254              		@ link register save eliminated.
 255 0000 80B4     		push	{r7}
 256              		.cfi_def_cfa_offset 4
 257              		.cfi_offset 7, -4
 258 0002 83B0     		sub	sp, sp, #12
 259              		.cfi_def_cfa_offset 16
 260 0004 00AF     		add	r7, sp, #0
 261              		.cfi_def_cfa_register 7
 262 0006 7860     		str	r0, [r7, #4]
 263 0008 3960     		str	r1, [r7]
 264              		.loc 6 48 1
 265 000a 00BF     		nop
 266 000c 0C37     		adds	r7, r7, #12
 267              		.cfi_def_cfa_offset 4
 268 000e BD46     		mov	sp, r7
 269              		.cfi_def_cfa_register 13
 270              		@ sp needed
 271 0010 80BC     		pop	{r7}
 272              		.cfi_restore 7
 273              		.cfi_def_cfa_offset 0
 274 0012 7047     		bx	lr
 275              		.cfi_endproc
 276              	.LFE432:
 277              		.size	usb_dcache_invalidate, .-usb_dcache_invalidate
 278              		.global	usb_midi_tx_ready
 279              		.section	.bss.usb_midi_tx_ready,"aw",%nobits
 280              		.type	usb_midi_tx_ready, %object
 281              		.size	usb_midi_tx_ready, 1
 282              	usb_midi_tx_ready:
 283 0000 00       		.space	1
 284              		.section	.rodata.device_descriptor_data,"a"
 285              		.align	2
ARM GAS  C:\Users\DEVELO~1\AppData\Local\Temp\ccPZimPw.s 			page 6


 286              		.type	device_descriptor_data, %object
 287              		.size	device_descriptor_data, 18
 288              	device_descriptor_data:
 289 0000 12010002 		.ascii	"\022\001\000\002\000\000\000@\203\004@W\000\001\001"
 289      00000040 
 289      83044057 
 289      000101
 290 000f 020301   		.ascii	"\002\003\001"
 291              		.section	.rodata.device_descriptor,"a"
 292              		.align	2
 293              		.type	device_descriptor, %object
 294              		.size	device_descriptor, 8
 295              	device_descriptor:
 296 0000 12000000 		.word	18
 297 0004 00000000 		.word	device_descriptor_data
 298              		.section	.rodata.config_descriptor_data,"a"
 299              		.align	2
 300              		.type	config_descriptor_data, %object
 301              		.size	config_descriptor_data, 82
 302              	config_descriptor_data:
 303 0000 09025200 		.ascii	"\011\002R\000\002\001\000\2002\011\004\000\000\000\001"
 303      02010080 
 303      32090400 
 303      000001
 304 000f 01000009 		.ascii	"\001\000\000\011$\001\000\001\011\000\001\001\011\004"
 304      24010001 
 304      09000101 
 304      0904
 305 001d 01000201 		.ascii	"\001\000\002\001\003\000\000\007$\001\000\001 \000\006"
 305      03000007 
 305      24010001 
 305      200006
 306 002c 24020101 		.ascii	"$\002\001\001\001\011$\003\001\002\001\001\001\000\007"
 306      01092403 
 306      01020101 
 306      010007
 307 003b 05010240 		.ascii	"\005\001\002@\000\000\005%\001\001\001\007\005\202\002"
 307      00000525 
 307      01010107 
 307      058202
 308 004a 40000005 		.ascii	"@\000\000\005%\001\001\002"
 308      25010102 
 309              		.section	.rodata.config_descriptor,"a"
 310              		.align	2
 311              		.type	config_descriptor, %object
 312              		.size	config_descriptor, 8
 313              	config_descriptor:
 314 0000 52000000 		.word	82
 315 0004 00000000 		.word	config_descriptor_data
 316              		.section	.rodata.string0,"a"
 317              		.align	2
 318              		.type	string0, %object
 319              		.size	string0, 4
 320              	string0:
 321 0000 04030904 		.ascii	"\004\003\011\004"
 322              		.section	.rodata.string1,"a"
 323              		.align	2
ARM GAS  C:\Users\DEVELO~1\AppData\Local\Temp\ccPZimPw.s 			page 7


 324              		.type	string1, %object
 325              		.size	string1, 16
 326              	string1:
 327 0000 10034300 		.ascii	"\020\003C\000h\000i\000b\000i\000O\000S\000"
 327      68006900 
 327      62006900 
 327      4F005300 
 328              		.section	.rodata.string2,"a"
 329              		.align	2
 330              		.type	string2, %object
 331              		.size	string2, 12
 332              	string2:
 333 0000 0C034200 		.ascii	"\014\003B\000r\000i\000c\000k\000"
 333      72006900 
 333      63006B00 
 334              		.section	.rodata.string3,"a"
 335              		.align	2
 336              		.type	string3, %object
 337              		.size	string3, 10
 338              	string3:
 339 0000 0A033000 		.ascii	"\012\0030\0000\0000\0001\000"
 339      30003000 
 339      3100
 340              		.section	.rodata.strings,"a"
 341              		.align	2
 342              		.type	strings, %object
 343              		.size	strings, 32
 344              	strings:
 345 0000 04000000 		.word	4
 346 0004 00000000 		.word	string0
 347 0008 10000000 		.word	16
 348 000c 00000000 		.word	string1
 349 0010 0C000000 		.word	12
 350 0014 00000000 		.word	string2
 351 0018 0A000000 		.word	10
 352 001c 00000000 		.word	string3
 353              		.section	.bss.ep2_in_state,"aw",%nobits
 354              		.align	2
 355              		.type	ep2_in_state, %object
 356              		.size	ep2_in_state, 16
 357              	ep2_in_state:
 358 0000 00000000 		.space	16
 358      00000000 
 358      00000000 
 358      00000000 
 359              		.section	.bss.ep1_out_state,"aw",%nobits
 360              		.align	2
 361              		.type	ep1_out_state, %object
 362              		.size	ep1_out_state, 16
 363              	ep1_out_state:
 364 0000 00000000 		.space	16
 364      00000000 
 364      00000000 
 364      00000000 
 365              		.section	.bss.rx_pkt,"aw",%nobits
 366              		.align	5
 367              		.type	rx_pkt, %object
ARM GAS  C:\Users\DEVELO~1\AppData\Local\Temp\ccPZimPw.s 			page 8


 368              		.size	rx_pkt, 64
 369              	rx_pkt:
 370 0000 00000000 		.space	64
 370      00000000 
 370      00000000 
 370      00000000 
 370      00000000 
 371              		.section	.bss.usb_midi_rx_invalid_size,"aw",%nobits
 372              		.align	2
 373              		.type	usb_midi_rx_invalid_size, %object
 374              		.size	usb_midi_rx_invalid_size, 4
 375              	usb_midi_rx_invalid_size:
 376 0000 00000000 		.space	4
 377              		.section	.text.ep1_out_cb,"ax",%progbits
 378              		.align	1
 379              		.syntax unified
 380              		.thumb
 381              		.thumb_func
 382              		.type	ep1_out_cb, %function
 383              	ep1_out_cb:
 384              	.LFB433:
 385              		.loc 6 186 53
 386              		.cfi_startproc
 387              		@ args = 0, pretend = 0, frame = 16
 388              		@ frame_needed = 1, uses_anonymous_args = 0
 389 0000 80B5     		push	{r7, lr}
 390              		.cfi_def_cfa_offset 8
 391              		.cfi_offset 7, -8
 392              		.cfi_offset 14, -4
 393 0002 84B0     		sub	sp, sp, #16
 394              		.cfi_def_cfa_offset 24
 395 0004 00AF     		add	r7, sp, #0
 396              		.cfi_def_cfa_register 7
 397 0006 7860     		str	r0, [r7, #4]
 398 0008 0B46     		mov	r3, r1
 399 000a FB70     		strb	r3, [r7, #3]
 400              		.loc 6 188 16
 401 000c 154B     		ldr	r3, .L13
 402 000e 1B68     		ldr	r3, [r3]
 403 0010 FB60     		str	r3, [r7, #12]
 404              		.loc 6 190 6
 405 0012 FB68     		ldr	r3, [r7, #12]
 406 0014 002B     		cmp	r3, #0
 407 0016 02D0     		beq	.L10
 408              		.loc 6 190 23 discriminator 1
 409 0018 FB68     		ldr	r3, [r7, #12]
 410 001a 402B     		cmp	r3, #64
 411 001c 10D9     		bls	.L11
 412              	.L10:
 413              		.loc 6 191 29
 414 001e 124B     		ldr	r3, .L13+4
 415 0020 1B68     		ldr	r3, [r3]
 416 0022 0133     		adds	r3, r3, #1
 417 0024 104A     		ldr	r2, .L13+4
 418 0026 1360     		str	r3, [r2]
 419              		.loc 6 192 18
 420 0028 104B     		ldr	r3, .L13+8
ARM GAS  C:\Users\DEVELO~1\AppData\Local\Temp\ccPZimPw.s 			page 9


 421 002a 5B68     		ldr	r3, [r3, #4]
 422              		.loc 6 192 31
 423 002c 0133     		adds	r3, r3, #1
 424 002e 0F4A     		ldr	r2, .L13+8
 425 0030 5360     		str	r3, [r2, #4]
 426              		.loc 6 193 5
 427 0032 4023     		movs	r3, #64
 428 0034 0E4A     		ldr	r2, .L13+12
 429 0036 0121     		movs	r1, #1
 430 0038 7868     		ldr	r0, [r7, #4]
 431 003a FFF7FEFF 		bl	usbStartReceiveI
 432              		.loc 6 194 5
 433 003e 0DE0     		b	.L9
 434              	.L11:
 435              		.loc 6 197 3
 436 0040 F968     		ldr	r1, [r7, #12]
 437 0042 0B48     		ldr	r0, .L13+12
 438 0044 FFF7FEFF 		bl	usb_dcache_invalidate
 439              		.loc 6 198 3
 440 0048 F968     		ldr	r1, [r7, #12]
 441 004a 0948     		ldr	r0, .L13+12
 442 004c FFF7FEFF 		bl	midi_usb_rx_submit_from_isr
 443              		.loc 6 199 3
 444 0050 4023     		movs	r3, #64
 445 0052 074A     		ldr	r2, .L13+12
 446 0054 0121     		movs	r1, #1
 447 0056 7868     		ldr	r0, [r7, #4]
 448 0058 FFF7FEFF 		bl	usbStartReceiveI
 449              	.L9:
 450              		.loc 6 200 1
 451 005c 1037     		adds	r7, r7, #16
 452              		.cfi_def_cfa_offset 8
 453 005e BD46     		mov	sp, r7
 454              		.cfi_def_cfa_register 13
 455              		@ sp needed
 456 0060 80BD     		pop	{r7, pc}
 457              	.L14:
 458 0062 00BF     		.align	2
 459              	.L13:
 460 0064 00000000 		.word	ep1_out_state
 461 0068 00000000 		.word	usb_midi_rx_invalid_size
 462 006c 00000000 		.word	midi_rx_stats
 463 0070 00000000 		.word	rx_pkt
 464              		.cfi_endproc
 465              	.LFE433:
 466              		.size	ep1_out_cb, .-ep1_out_cb
 467              		.section	.text.ep2_in_cb,"ax",%progbits
 468              		.align	1
 469              		.syntax unified
 470              		.thumb
 471              		.thumb_func
 472              		.type	ep2_in_cb, %function
 473              	ep2_in_cb:
 474              	.LFB434:
 475              		.loc 6 213 52
 476              		.cfi_startproc
 477              		@ args = 0, pretend = 0, frame = 8
ARM GAS  C:\Users\DEVELO~1\AppData\Local\Temp\ccPZimPw.s 			page 10


 478              		@ frame_needed = 1, uses_anonymous_args = 0
 479 0000 80B5     		push	{r7, lr}
 480              		.cfi_def_cfa_offset 8
 481              		.cfi_offset 7, -8
 482              		.cfi_offset 14, -4
 483 0002 82B0     		sub	sp, sp, #8
 484              		.cfi_def_cfa_offset 16
 485 0004 00AF     		add	r7, sp, #0
 486              		.cfi_def_cfa_register 7
 487 0006 7860     		str	r0, [r7, #4]
 488 0008 0B46     		mov	r3, r1
 489 000a FB70     		strb	r3, [r7, #3]
 490              		.loc 6 215 3
 491 000c 0348     		ldr	r0, .L16
 492 000e FFF7FEFF 		bl	chBSemSignalI
 493              		.loc 6 216 1
 494 0012 00BF     		nop
 495 0014 0837     		adds	r7, r7, #8
 496              		.cfi_def_cfa_offset 8
 497 0016 BD46     		mov	sp, r7
 498              		.cfi_def_cfa_register 13
 499              		@ sp needed
 500 0018 80BD     		pop	{r7, pc}
 501              	.L17:
 502 001a 00BF     		.align	2
 503              	.L16:
 504 001c 00000000 		.word	tx_sem
 505              		.cfi_endproc
 506              	.LFE434:
 507              		.size	ep2_in_cb, .-ep2_in_cb
 508              		.section	.rodata.ep1_out_cfg,"a"
 509              		.align	2
 510              		.type	ep1_out_cfg, %object
 511              		.size	ep1_out_cfg, 36
 512              	ep1_out_cfg:
 513 0000 02000000 		.word	2
 514 0004 00000000 		.word	0
 515 0008 00000000 		.word	0
 516 000c 00000000 		.word	ep1_out_cb
 517 0010 0000     		.short	0
 518 0012 4000     		.short	64
 519 0014 00000000 		.word	0
 520 0018 00000000 		.word	ep1_out_state
 521 001c 0100     		.short	1
 522 001e 0000     		.space	2
 523 0020 00000000 		.word	0
 524              		.section	.rodata.ep2_in_cfg,"a"
 525              		.align	2
 526              		.type	ep2_in_cfg, %object
 527              		.size	ep2_in_cfg, 36
 528              	ep2_in_cfg:
 529 0000 02000000 		.word	2
 530 0004 00000000 		.word	0
 531 0008 00000000 		.word	ep2_in_cb
 532 000c 00000000 		.word	0
 533 0010 4000     		.short	64
 534 0012 0000     		.short	0
ARM GAS  C:\Users\DEVELO~1\AppData\Local\Temp\ccPZimPw.s 			page 11


 535 0014 00000000 		.word	ep2_in_state
 536 0018 00000000 		.word	0
 537 001c 0100     		.short	1
 538 001e 0000     		.space	2
 539 0020 00000000 		.word	0
 540              		.section	.text.get_descriptor,"ax",%progbits
 541              		.align	1
 542              		.syntax unified
 543              		.thumb
 544              		.thumb_func
 545              		.type	get_descriptor, %function
 546              	get_descriptor:
 547              	.LFB435:
 548              		.loc 6 256 59
 549              		.cfi_startproc
 550              		@ args = 0, pretend = 0, frame = 8
 551              		@ frame_needed = 1, uses_anonymous_args = 0
 552              		@ link register save eliminated.
 553 0000 80B4     		push	{r7}
 554              		.cfi_def_cfa_offset 4
 555              		.cfi_offset 7, -4
 556 0002 83B0     		sub	sp, sp, #12
 557              		.cfi_def_cfa_offset 16
 558 0004 00AF     		add	r7, sp, #0
 559              		.cfi_def_cfa_register 7
 560 0006 7860     		str	r0, [r7, #4]
 561 0008 0846     		mov	r0, r1
 562 000a 1146     		mov	r1, r2
 563 000c 1A46     		mov	r2, r3
 564 000e 0346     		mov	r3, r0
 565 0010 FB70     		strb	r3, [r7, #3]
 566 0012 0B46     		mov	r3, r1
 567 0014 BB70     		strb	r3, [r7, #2]
 568 0016 1346     		mov	r3, r2	@ movhi
 569 0018 3B80     		strh	r3, [r7]	@ movhi
 570              		.loc 6 258 3
 571 001a FB78     		ldrb	r3, [r7, #3]	@ zero_extendqisi2
 572 001c 032B     		cmp	r3, #3
 573 001e 0AD0     		beq	.L19
 574 0020 032B     		cmp	r3, #3
 575 0022 10DC     		bgt	.L26
 576 0024 012B     		cmp	r3, #1
 577 0026 02D0     		beq	.L21
 578 0028 022B     		cmp	r3, #2
 579 002a 02D0     		beq	.L22
 580              		.loc 6 265 7
 581 002c 0BE0     		b	.L26
 582              	.L21:
 583              		.loc 6 259 47
 584 002e 0A4B     		ldr	r3, .L28
 585 0030 0DE0     		b	.L23
 586              	.L22:
 587              		.loc 6 260 47
 588 0032 0A4B     		ldr	r3, .L28+4
 589 0034 0BE0     		b	.L23
 590              	.L19:
 591              		.loc 6 262 10
ARM GAS  C:\Users\DEVELO~1\AppData\Local\Temp\ccPZimPw.s 			page 12


 592 0036 BB78     		ldrb	r3, [r7, #2]	@ zero_extendqisi2
 593 0038 032B     		cmp	r3, #3
 594 003a 06D8     		bhi	.L27
 595              		.loc 6 262 38 discriminator 1
 596 003c BB78     		ldrb	r3, [r7, #2]	@ zero_extendqisi2
 597              		.loc 6 262 30 discriminator 1
 598 003e DB00     		lsls	r3, r3, #3
 599 0040 074A     		ldr	r2, .L28+8
 600 0042 1344     		add	r3, r3, r2
 601 0044 03E0     		b	.L23
 602              	.L26:
 603              		.loc 6 265 7
 604 0046 00BF     		nop
 605 0048 00E0     		b	.L25
 606              	.L27:
 607              		.loc 6 263 7
 608 004a 00BF     		nop
 609              	.L25:
 610              		.loc 6 267 10
 611 004c 0023     		movs	r3, #0
 612              	.L23:
 613              		.loc 6 268 1
 614 004e 1846     		mov	r0, r3
 615 0050 0C37     		adds	r7, r7, #12
 616              		.cfi_def_cfa_offset 4
 617 0052 BD46     		mov	sp, r7
 618              		.cfi_def_cfa_register 13
 619              		@ sp needed
 620 0054 80BC     		pop	{r7}
 621              		.cfi_restore 7
 622              		.cfi_def_cfa_offset 0
 623 0056 7047     		bx	lr
 624              	.L29:
 625              		.align	2
 626              	.L28:
 627 0058 00000000 		.word	device_descriptor
 628 005c 00000000 		.word	config_descriptor
 629 0060 00000000 		.word	strings
 630              		.cfi_endproc
 631              	.LFE435:
 632              		.size	get_descriptor, .-get_descriptor
 633              		.section	.text.usb_event,"ax",%progbits
 634              		.align	1
 635              		.syntax unified
 636              		.thumb
 637              		.thumb_func
 638              		.type	usb_event, %function
 639              	usb_event:
 640              	.LFB436:
 641              		.loc 6 276 58
 642              		.cfi_startproc
 643              		@ args = 0, pretend = 0, frame = 8
 644              		@ frame_needed = 1, uses_anonymous_args = 0
 645 0000 80B5     		push	{r7, lr}
 646              		.cfi_def_cfa_offset 8
 647              		.cfi_offset 7, -8
 648              		.cfi_offset 14, -4
ARM GAS  C:\Users\DEVELO~1\AppData\Local\Temp\ccPZimPw.s 			page 13


 649 0002 82B0     		sub	sp, sp, #8
 650              		.cfi_def_cfa_offset 16
 651 0004 00AF     		add	r7, sp, #0
 652              		.cfi_def_cfa_register 7
 653 0006 7860     		str	r0, [r7, #4]
 654 0008 0B46     		mov	r3, r1
 655 000a FB70     		strb	r3, [r7, #3]
 656              		.loc 6 277 3
 657 000c FB78     		ldrb	r3, [r7, #3]	@ zero_extendqisi2
 658 000e 042B     		cmp	r3, #4
 659 0010 2CDC     		bgt	.L34
 660 0012 032B     		cmp	r3, #3
 661 0014 22DA     		bge	.L32
 662 0016 002B     		cmp	r3, #0
 663 0018 20D0     		beq	.L32
 664 001a 022B     		cmp	r3, #2
 665 001c 26D1     		bne	.L34
 666              		.loc 6 279 7
 667 001e FFF7FEFF 		bl	osalSysLockFromISR
 668              		.loc 6 280 7
 669 0022 154A     		ldr	r2, .L35
 670 0024 0121     		movs	r1, #1
 671 0026 7868     		ldr	r0, [r7, #4]
 672 0028 FFF7FEFF 		bl	usbInitEndpointI
 673              		.loc 6 281 7
 674 002c 134A     		ldr	r2, .L35+4
 675 002e 0221     		movs	r1, #2
 676 0030 7868     		ldr	r0, [r7, #4]
 677 0032 FFF7FEFF 		bl	usbInitEndpointI
 678              		.loc 6 282 7
 679 0036 4021     		movs	r1, #64
 680 0038 1148     		ldr	r0, .L35+8
 681 003a FFF7FEFF 		bl	usb_dcache_invalidate
 682              		.loc 6 283 7
 683 003e 4023     		movs	r3, #64
 684 0040 0F4A     		ldr	r2, .L35+8
 685 0042 0121     		movs	r1, #1
 686 0044 7868     		ldr	r0, [r7, #4]
 687 0046 FFF7FEFF 		bl	usbStartReceiveI
 688              		.loc 6 284 25
 689 004a 0E4B     		ldr	r3, .L35+12
 690 004c 0122     		movs	r2, #1
 691 004e 1A70     		strb	r2, [r3]
 692              		.loc 6 285 7
 693 0050 0D48     		ldr	r0, .L35+16
 694 0052 FFF7FEFF 		bl	chBSemSignalI
 695              		.loc 6 286 7
 696 0056 FFF7FEFF 		bl	osalSysUnlockFromISR
 697              		.loc 6 287 7
 698 005a 08E0     		b	.L33
 699              	.L32:
 700              		.loc 6 292 7
 701 005c FFF7FEFF 		bl	osalSysLockFromISR
 702              		.loc 6 293 25
 703 0060 084B     		ldr	r3, .L35+12
 704 0062 0022     		movs	r2, #0
 705 0064 1A70     		strb	r2, [r3]
ARM GAS  C:\Users\DEVELO~1\AppData\Local\Temp\ccPZimPw.s 			page 14


 706              		.loc 6 294 7
 707 0066 FFF7FEFF 		bl	osalSysUnlockFromISR
 708              		.loc 6 295 7
 709 006a 00E0     		b	.L33
 710              	.L34:
 711              		.loc 6 298 7
 712 006c 00BF     		nop
 713              	.L33:
 714              		.loc 6 300 1
 715 006e 00BF     		nop
 716 0070 0837     		adds	r7, r7, #8
 717              		.cfi_def_cfa_offset 8
 718 0072 BD46     		mov	sp, r7
 719              		.cfi_def_cfa_register 13
 720              		@ sp needed
 721 0074 80BD     		pop	{r7, pc}
 722              	.L36:
 723 0076 00BF     		.align	2
 724              	.L35:
 725 0078 00000000 		.word	ep1_out_cfg
 726 007c 00000000 		.word	ep2_in_cfg
 727 0080 00000000 		.word	rx_pkt
 728 0084 00000000 		.word	usb_midi_tx_ready
 729 0088 00000000 		.word	tx_sem
 730              		.cfi_endproc
 731              	.LFE436:
 732              		.size	usb_event, .-usb_event
 733              		.section	.text.sof_handler,"ax",%progbits
 734              		.align	1
 735              		.syntax unified
 736              		.thumb
 737              		.thumb_func
 738              		.type	sof_handler, %function
 739              	sof_handler:
 740              	.LFB437:
 741              		.loc 6 305 42
 742              		.cfi_startproc
 743              		@ args = 0, pretend = 0, frame = 8
 744              		@ frame_needed = 1, uses_anonymous_args = 0
 745 0000 80B5     		push	{r7, lr}
 746              		.cfi_def_cfa_offset 8
 747              		.cfi_offset 7, -8
 748              		.cfi_offset 14, -4
 749 0002 82B0     		sub	sp, sp, #8
 750              		.cfi_def_cfa_offset 16
 751 0004 00AF     		add	r7, sp, #0
 752              		.cfi_def_cfa_register 7
 753 0006 7860     		str	r0, [r7, #4]
 754              		.loc 6 307 3
 755 0008 0348     		ldr	r0, .L38
 756 000a FFF7FEFF 		bl	chBSemSignalI
 757              		.loc 6 308 1
 758 000e 00BF     		nop
 759 0010 0837     		adds	r7, r7, #8
 760              		.cfi_def_cfa_offset 8
 761 0012 BD46     		mov	sp, r7
 762              		.cfi_def_cfa_register 13
ARM GAS  C:\Users\DEVELO~1\AppData\Local\Temp\ccPZimPw.s 			page 15


 763              		@ sp needed
 764 0014 80BD     		pop	{r7, pc}
 765              	.L39:
 766 0016 00BF     		.align	2
 767              	.L38:
 768 0018 00000000 		.word	sof_sem
 769              		.cfi_endproc
 770              	.LFE437:
 771              		.size	sof_handler, .-sof_handler
 772              		.global	usbcfg
 773              		.section	.rodata.usbcfg,"a"
 774              		.align	2
 775              		.type	usbcfg, %object
 776              		.size	usbcfg, 16
 777              	usbcfg:
 778 0000 00000000 		.word	usb_event
 779 0004 00000000 		.word	get_descriptor
 780 0008 00000000 		.word	0
 781 000c 00000000 		.word	sof_handler
 782              		.text
 783              	.Letext0:
 784              		.file 7 "c:\\chibistudio\\tools\\gnu tools arm embedded\\11.3 2022.08\\lib\\gcc\\arm-none-eabi\\11
 785              		.file 8 "c:\\chibistudio\\tools\\gnu tools arm embedded\\11.3 2022.08\\arm-none-eabi\\include\\mac
 786              		.file 9 "c:\\chibistudio\\tools\\gnu tools arm embedded\\11.3 2022.08\\arm-none-eabi\\include\\sys
 787              		.file 10 "../../../os/rt/include/chearly.h"
 788              		.file 11 "../../../os/rt/include/chlists.h"
 789              		.file 12 "../../../os/rt/include/chsem.h"
 790              		.file 13 "../../../os/hal/include/hal_usb.h"
 791              		.file 14 "../../../os/hal/ports/STM32/LLD/OTGv1/hal_usb_lld.h"
 792              		.file 15 "../../../os/hal/ports/STM32/LLD/OTGv1/stm32_otg.h"
 793              		.file 16 "usb/usbcfg.h"
 794              		.file 17 "midi/midi.h"