ARM GAS  C:\Users\DEVELO~1\AppData\Local\Temp\ccPZimPw.s 			page 1


   1              		.cpu cortex-m7
   2              		.arch armv7e-m
   3              		.fpu softvfp
   4              		.eabi_attribute 20, 1
   5              		.eabi_attribute 21, 1
   6              		.eabi_attribute 23, 3
   7              		.eabi_attribute 24, 1
   8              		.eabi_attribute 25, 1
   9              		.eabi_attribute 26, 1
  10              		.eabi_attribute 30, 6
  11              		.eabi_attribute 34, 1
  12              		.eabi_attribute 18, 4
  13              		.file	"usbcfg.c"
  14              		.text
  15              	.Ltext0:
  16              		.cfi_sections	.debug_frame
  17              		.section	.text.chSysLockFromISR,"ax",%progbits
  18              		.align	1
  19              		.syntax unified
  20              		.thumb
  21              		.thumb_func
  22              		.type	chSysLockFromISR, %function
  23              	chSysLockFromISR:
  24              	.LFB204:
  25              		.file 1 "../../../os/rt/include/chsys.h"
  26              		.loc 1 451 43
  27              		.cfi_startproc
  28              		@ args = 0, pretend = 0, frame = 8
  29              		@ frame_needed = 1, uses_anonymous_args = 0
  30              		@ link register save eliminated.
  31 0000 80B4     		push	{r7}
  32              		.cfi_def_cfa_offset 4
  33              		.cfi_offset 7, -4
  34 0002 83B0     		sub	sp, sp, #12
  35              		.cfi_def_cfa_offset 16
  36 0004 00AF     		add	r7, sp, #0
  37              		.cfi_def_cfa_register 7
  38 0006 3023     		movs	r3, #48
  39 0008 7B60     		str	r3, [r7, #4]
  40              	.LBB26:
  41              	.LBB27:
  42              	.LBB28:
  43              	.LBB29:
  44              	.LBB30:
  45              	.LBB31:
  46              		.file 2 "../../../os/common/ext/ARM/CMSIS/Core/Include/cmsis_gcc.h"
  47              		.loc 2 493 3
  48 000a 7B68     		ldr	r3, [r7, #4]
  49              		.syntax unified
  50              	@ 493 "../../../os/common/ext/ARM/CMSIS/Core/Include/cmsis_gcc.h" 1
  51 000c 83F31188 		MSR basepri, r3
  52              	@ 0 "" 2
  53              		.loc 2 494 1
  54              		.thumb
  55              		.syntax unified
  56 0010 00BF     		nop
  57              	.LBE31:
ARM GAS  C:\Users\DEVELO~1\AppData\Local\Temp\ccPZimPw.s 			page 2


  58              	.LBE30:
  59              		.file 3 "../../../os/common/ports/ARMv7-M/chcore.h"
  60              		.loc 3 840 1
  61 0012 00BF     		nop
  62              	.LBE29:
  63              	.LBE28:
  64              		.loc 3 865 1
  65 0014 00BF     		nop
  66              	.LBE27:
  67              	.LBE26:
  68              		.loc 1 456 1
  69 0016 00BF     		nop
  70 0018 0C37     		adds	r7, r7, #12
  71              		.cfi_def_cfa_offset 4
  72 001a BD46     		mov	sp, r7
  73              		.cfi_def_cfa_register 13
  74              		@ sp needed
  75 001c 80BC     		pop	{r7}
  76              		.cfi_restore 7
  77              		.cfi_def_cfa_offset 0
  78 001e 7047     		bx	lr
  79              		.cfi_endproc
  80              	.LFE204:
  81              		.size	chSysLockFromISR, .-chSysLockFromISR
  82              		.section	.text.chSysUnlockFromISR,"ax",%progbits
  83              		.align	1
  84              		.syntax unified
  85              		.thumb
  86              		.thumb_func
  87              		.type	chSysUnlockFromISR, %function
  88              	chSysUnlockFromISR:
  89              	.LFB205:
  90              		.loc 1 473 45
  91              		.cfi_startproc
  92              		@ args = 0, pretend = 0, frame = 8
  93              		@ frame_needed = 1, uses_anonymous_args = 0
  94              		@ link register save eliminated.
  95 0000 80B4     		push	{r7}
  96              		.cfi_def_cfa_offset 4
  97              		.cfi_offset 7, -4
  98 0002 83B0     		sub	sp, sp, #12
  99              		.cfi_def_cfa_offset 16
 100 0004 00AF     		add	r7, sp, #0
 101              		.cfi_def_cfa_register 7
 102 0006 0023     		movs	r3, #0
 103 0008 7B60     		str	r3, [r7, #4]
 104              	.LBB32:
 105              	.LBB33:
 106              	.LBB34:
 107              	.LBB35:
 108              	.LBB36:
 109              	.LBB37:
 110              		.loc 2 493 3
 111 000a 7B68     		ldr	r3, [r7, #4]
 112              		.syntax unified
 113              	@ 493 "../../../os/common/ext/ARM/CMSIS/Core/Include/cmsis_gcc.h" 1
 114 000c 83F31188 		MSR basepri, r3
ARM GAS  C:\Users\DEVELO~1\AppData\Local\Temp\ccPZimPw.s 			page 3


 115              	@ 0 "" 2
 116              		.loc 2 494 1
 117              		.thumb
 118              		.syntax unified
 119 0010 00BF     		nop
 120              	.LBE37:
 121              	.LBE36:
 122              		.loc 3 854 1
 123 0012 00BF     		nop
 124              	.LBE35:
 125              	.LBE34:
 126              		.loc 3 876 1
 127 0014 00BF     		nop
 128              	.LBE33:
 129              	.LBE32:
 130              		.loc 1 478 1
 131 0016 00BF     		nop
 132 0018 0C37     		adds	r7, r7, #12
 133              		.cfi_def_cfa_offset 4
 134 001a BD46     		mov	sp, r7
 135              		.cfi_def_cfa_register 13
 136              		@ sp needed
 137 001c 80BC     		pop	{r7}
 138              		.cfi_restore 7
 139              		.cfi_def_cfa_offset 0
 140 001e 7047     		bx	lr
 141              		.cfi_endproc
 142              	.LFE205:
 143              		.size	chSysUnlockFromISR, .-chSysUnlockFromISR
 144              		.section	.text.chBSemSignalI,"ax",%progbits
 145              		.align	1
 146              		.syntax unified
 147              		.thumb
 148              		.thumb_func
 149              		.type	chBSemSignalI, %function
 150              	chBSemSignalI:
 151              	.LFB272:
 152              		.file 4 "../../../os/oslib/include/chbsem.h"
 153              		.loc 4 266 59
 154              		.cfi_startproc
 155              		@ args = 0, pretend = 0, frame = 8
 156              		@ frame_needed = 1, uses_anonymous_args = 0
 157 0000 80B5     		push	{r7, lr}
 158              		.cfi_def_cfa_offset 8
 159              		.cfi_offset 7, -8
 160              		.cfi_offset 14, -4
 161 0002 82B0     		sub	sp, sp, #8
 162              		.cfi_def_cfa_offset 16
 163 0004 00AF     		add	r7, sp, #0
 164              		.cfi_def_cfa_register 7
 165 0006 7860     		str	r0, [r7, #4]
 166              		.loc 4 270 15
 167 0008 7B68     		ldr	r3, [r7, #4]
 168 000a 9B68     		ldr	r3, [r3, #8]
 169              		.loc 4 270 6
 170 000c 002B     		cmp	r3, #0
 171 000e 03DC     		bgt	.L5
ARM GAS  C:\Users\DEVELO~1\AppData\Local\Temp\ccPZimPw.s 			page 4


 172              		.loc 4 271 5
 173 0010 7B68     		ldr	r3, [r7, #4]
 174 0012 1846     		mov	r0, r3
 175 0014 FFF7FEFF 		bl	chSemSignalI
 176              	.L5:
 177              		.loc 4 273 1
 178 0018 00BF     		nop
 179 001a 0837     		adds	r7, r7, #8
 180              		.cfi_def_cfa_offset 8
 181 001c BD46     		mov	sp, r7
 182              		.cfi_def_cfa_register 13
 183              		@ sp needed
 184 001e 80BD     		pop	{r7, pc}
 185              		.cfi_endproc
 186              	.LFE272:
 187              		.size	chBSemSignalI, .-chBSemSignalI
 188              		.section	.text.osalSysLockFromISR,"ax",%progbits
 189              		.align	1
 190              		.syntax unified
 191              		.thumb
 192              		.thumb_func
 193              		.type	osalSysLockFromISR, %function
 194              	osalSysLockFromISR:
 195              	.LFB352:
 196              		.file 5 "../../../os/hal/osal/rt-nil/osal.h"
 197              		.loc 5 595 45
 198              		.cfi_startproc
 199              		@ args = 0, pretend = 0, frame = 0
 200              		@ frame_needed = 1, uses_anonymous_args = 0
 201 0000 80B5     		push	{r7, lr}
 202              		.cfi_def_cfa_offset 8
 203              		.cfi_offset 7, -8
 204              		.cfi_offset 14, -4
 205 0002 00AF     		add	r7, sp, #0
 206              		.cfi_def_cfa_register 7
 207              		.loc 5 597 3
 208 0004 FFF7FEFF 		bl	chSysLockFromISR
 209              		.loc 5 598 1
 210 0008 00BF     		nop
 211 000a 80BD     		pop	{r7, pc}
 212              		.cfi_endproc
 213              	.LFE352:
 214              		.size	osalSysLockFromISR, .-osalSysLockFromISR
 215              		.section	.text.osalSysUnlockFromISR,"ax",%progbits
 216              		.align	1
 217              		.syntax unified
 218              		.thumb
 219              		.thumb_func
 220              		.type	osalSysUnlockFromISR, %function
 221              	osalSysUnlockFromISR:
 222              	.LFB353:
 223              		.loc 5 606 47
 224              		.cfi_startproc
 225              		@ args = 0, pretend = 0, frame = 0
 226              		@ frame_needed = 1, uses_anonymous_args = 0
 227 0000 80B5     		push	{r7, lr}
 228              		.cfi_def_cfa_offset 8
ARM GAS  C:\Users\DEVELO~1\AppData\Local\Temp\ccPZimPw.s 			page 5


 229              		.cfi_offset 7, -8
 230              		.cfi_offset 14, -4
 231 0002 00AF     		add	r7, sp, #0
 232              		.cfi_def_cfa_register 7
 233              		.loc 5 608 3
 234 0004 FFF7FEFF 		bl	chSysUnlockFromISR
 235              		.loc 5 609 1
 236 0008 00BF     		nop
 237 000a 80BD     		pop	{r7, pc}
 238              		.cfi_endproc
 239              	.LFE353:
 240              		.size	osalSysUnlockFromISR, .-osalSysUnlockFromISR
 241              		.section	.text.usb_dcache_invalidate,"ax",%progbits
 242              		.align	1
 243              		.syntax unified
 244              		.thumb
 245              		.thumb_func
 246              		.type	usb_dcache_invalidate, %function
 247              	usb_dcache_invalidate:
 248              	.LFB432:
 249              		.file 6 "usb/usbcfg.c"
 250              		.loc 6 46 66
 251              		.cfi_startproc
 252              		@ args = 0, pretend = 0, frame = 8
 253              		@ frame_needed = 1, uses_anonymous_args = 0
 254              		@ link register save eliminated.
 255 0000 80B4     		push	{r7}
 256              		.cfi_def_cfa_offset 4
 257              		.cfi_offset 7, -4
 258 0002 83B0     		sub	sp, sp, #12
 259              		.cfi_def_cfa_offset 16
 260 0004 00AF     		add	r7, sp, #0
 261              		.cfi_def_cfa_register 7
 262 0006 7860     		str	r0, [r7, #4]
 263 0008 3960     		str	r1, [r7]
 264              		.loc 6 48 1
 265 000a 00BF     		nop
 266 000c 0C37     		adds	r7, r7, #12
 267              		.cfi_def_cfa_offset 4
 268 000e BD46     		mov	sp, r7
 269              		.cfi_def_cfa_register 13
 270              		@ sp needed
 271 0010 80BC     		pop	{r7}
 272              		.cfi_restore 7
 273              		.cfi_def_cfa_offset 0
 274 0012 7047     		bx	lr
 275              		.cfi_endproc
 276              	.LFE432:
 277              		.size	usb_dcache_invalidate, .-usb_dcache_invalidate
 278              		.global	usb_midi_tx_ready
 279              		.section	.bss.usb_midi_tx_ready,"aw",%nobits
 280              		.type	usb_midi_tx_ready, %object
 281              		.size	usb_midi_tx_ready, 1
 282              	usb_midi_tx_ready:
 283 0000 00       		.space	1
 284              		.section	.rodata.device_descriptor_data,"a"
 285              		.align	2
ARM GAS  C:\Users\DEVELO~1\AppData\Local\Temp\ccPZimPw.s 			page 6


 286              		.type	device_descriptor_data, %object
 287              		.size	device_descriptor_data, 18
 288              	device_descriptor_data:
 289 0000 12010002 		.ascii	"\022\001\000\002\000\000\000@\203\004@W\000\001\001"
 289      00000040 
 289      83044057 
 289      000101
 290 000f 020301   		.ascii	"\002\003\001"
 291              		.section	.rodata.device_descriptor,"a"
 292              		.align	2
 293              		.type	device_descriptor, %object
 294              		.size	device_descriptor, 8
 295              	device_descriptor:
 296 0000 12000000 		.word	18
 297 0004 00000000 		.word	device_descriptor_data
 298              		.section	.rodata.config_descriptor_data,"a"
 299              		.align	2
 300              		.type	config_descriptor_data, %object
 301              		.size	config_descriptor_data, 82
 302              	config_descriptor_data:
 303 0000 09025200 		.ascii	"\011\002R\000\002\001\000\2002\011\004\000\000\000\001"
 303      02010080 
 303      32090400 
 303      000001
 304 000f 01000009 		.ascii	"\001\000\000\011$\001\000\001\011\000\001\001\011\004"
 304      24010001 
 304      09000101 
 304      0904
 305 001d 01000201 		.ascii	"\001\000\002\001\003\000\000\007$\001\000\001 \000\006"
 305      03000007 
 305      24010001 
 305      200006
 306 002c 24020101 		.ascii	"$\002\001\001\001\011$\003\001\002\001\001\001\000\007"
 306      01092403 
 306      01020101 
 306      010007
 307 003b 05010240 		.ascii	"\005\001\002@\000\000\005%\001\001\001\007\005\202\002"
 307      00000525 
 307      01010107 
 307      058202
 308 004a 40000005 		.ascii	"@\000\000\005%\001\001\002"
 308      25010102 
 309              		.section	.rodata.config_descriptor,"a"
 310              		.align	2
 311              		.type	config_descriptor, %object
 312              		.size	config_descriptor, 8
 313              	config_descriptor:
 314 0000 52000000 		.word	82
 315 0004 00000000 		.word	config_descriptor_data
 316              		.section	.rodata.string0,"a"
 317              		.align	2
 318              		.type	string0, %object
 319              		.size	string0, 4
 320              	string0:
 321 0000 04030904 		.ascii	"\004\003\011\004"
 322              		.section	.rodata.string1,"a"
 323              		.align	2
ARM GAS  C:\Users\DEVELO~1\AppData\Local\Temp\ccPZimPw.s 			page 7


 324              		.type	string1, %object
 325              		.size	string1, 16
 326              	string1:
 327 0000 10034300 		.ascii	"\020\003C\000h\000i\000b\000i\000O\000S\000"
 327      68006900 
 327      62006900 
 327      4F005300 
 328              		.section	.rodata.string2,"a"
 329              		.align	2
 330              		.type	string2, %object
 331              		.size	string2, 12
 332              	string2:
 333 0000 0C034200 		.ascii	"\014\003B\000r\000i\000c\000k\000"
 333      72006900 
 333      63006B00 
 334              		.section	.rodata.string3,"a"
 335              		.align	2
 336              		.type	string3, %object
 337              		.size	string3, 10
 338              	string3:
 339 0000 0A033000 		.ascii	"\012\0030\0000\0000\0001\000"
 339      30003000 
 339      3100
 340              		.section	.rodata.strings,"a"
 341              		.align	2
 342              		.type	strings, %object
 343              		.size	strings, 32
 344              	strings:
 345 0000 04000000 		.word	4
 346 0004 00000000 		.word	string0
 347 0008 10000000 		.word	16
 348 000c 00000000 		.word	string1
 349 0010 0C000000 		.word	12
 350 0014 00000000 		.word	string2
 351 0018 0A000000 		.word	10
 352 001c 00000000 		.word	string3
 353              		.section	.bss.ep2_in_state,"aw",%nobits
 354              		.align	2
 355              		.type	ep2_in_state, %object
 356              		.size	ep2_in_state, 16
 357              	ep2_in_state:
 358 0000 00000000 		.space	16
 358      00000000 
 358      00000000 
 358      00000000 
 359              		.section	.bss.ep1_out_state,"aw",%nobits
 360              		.align	2
 361              		.type	ep1_out_state, %object
 362              		.size	ep1_out_state, 16
 363              	ep1_out_state:
 364 0000 00000000 		.space	16
 364      00000000 
 364      00000000 
 364      00000000 
 365              		.section	.bss.rx_pkt,"aw",%nobits
 366              		.align	5
 367              		.type	rx_pkt, %object
ARM GAS  C:\Users\DEVELO~1\AppData\Local\Temp\ccPZimPw.s 			page 8


 368              		.size	rx_pkt, 64
 369              	rx_pkt:
 370 0000 00000000 		.space	64
 370      00000000 
 370      00000000 
 370      00000000 
 370      00000000 
 371              		.section	.bss.usb_midi_rx_invalid_size,"aw",%nobits
 372              		.align	2
 373              		.type	usb_midi_rx_invalid_size, %object
 374              		.size	usb_midi_rx_invalid_size, 4
 375              	usb_midi_rx_invalid_size:
 376 0000 00000000 		.space	4
 377              		.section	.text.ep1_out_cb,"ax",%progbits
 378              		.align	1
 379              		.syntax unified
 380              		.thumb
 381              		.thumb_func
 382              		.type	ep1_out_cb, %function
 383              	ep1_out_cb:
 384              	.LFB433:
 385              		.loc 6 186 53
 386              		.cfi_startproc
 387              		@ args = 0, pretend = 0, frame = 16
 388              		@ frame_needed = 1, uses_anonymous_args = 0
 389 0000 80B5     		push	{r7, lr}
 390              		.cfi_def_cfa_offset 8
 391              		.cfi_offset 7, -8
 392              		.cfi_offset 14, -4
 393 0002 84B0     		sub	sp, sp, #16
 394              		.cfi_def_cfa_offset 24
 395 0004 00AF     		add	r7, sp, #0
 396              		.cfi_def_cfa_register 7
 397 0006 7860     		str	r0, [r7, #4]
 398 0008 0B46     		mov	r3, r1
 399 000a FB70     		strb	r3, [r7, #3]
 400              		.loc 6 188 16
 401 000c 154B     		ldr	r3, .L13
 402 000e 1B68     		ldr	r3, [r3]
 403 0010 FB60     		str	r3, [r7, #12]
 404              		.loc 6 190 6
 405 0012 FB68     		ldr	r3, [r7, #12]
 406 0014 002B     		cmp	r3, #0
 407 0016 02D0     		beq	.L10
 408              		.loc 6 190 23 discriminator 1
 409 0018 FB68     		ldr	r3, [r7, #12]
 410 001a 402B     		cmp	r3, #64
 411 001c 10D9     		bls	.L11
 412              	.L10:
 413              		.loc 6 191 29
 414 001e 124B     		ldr	r3, .L13+4
 415 0020 1B68     		ldr	r3, [r3]
 416 0022 0133     		adds	r3, r3, #1
 417 0024 104A     		ldr	r2, .L13+4
 418 0026 1360     		str	r3, [r2]
 419              		.loc 6 192 18
 420 0028 104B     		ldr	r3, .L13+8
ARM GAS  C:\Users\DEVELO~1\AppData\Local\Temp\ccPZimPw.s 			page 9


 421 002a 5B68     		ldr	r3, [r3, #4]
 422              		.loc 6 192 31
 423 002c 0133     		adds	r3, r3, #1
 424 002e 0F4A     		ldr	r2, .L13+8
 425 0030 5360     		str	r3, [r2, #4]
 426              		.loc 6 193 5
 427 0032 4023     		movs	r3, #64
 428 0034 0E4A     		ldr	r2, .L13+12
 429 0036 0121     		movs	r1, #1
 430 0038 7868     		ldr	r0, [r7, #4]
 431 003a FFF7FEFF 		bl	usbStartReceiveI
 432              		.loc 6 194 5
 433 003e 0DE0     		b	.L9
 434              	.L11:
 435              		.loc 6 197 3
 436 0040 F968     		ldr	r1, [r7, #12]
 437 0042 0B48     		ldr	r0, .L13+12
 438 0044 FFF7FEFF 		bl	usb_dcache_invalidate
 439              		.loc 6 198 3
 440 0048 F968     		ldr	r1, [r7, #12]
 441 004a 0948     		ldr	r0, .L13+12
 442 004c FFF7FEFF 		bl	midi_usb_rx_submit_from_isr
 443              		.loc 6 199 3
 444 0050 4023     		movs	r3, #64
 445 0052 074A     		ldr	r2, .L13+12
 446 0054 0121     		movs	r1, #1
 447 0056 7868     		ldr	r0, [r7, #4]
 448 0058 FFF7FEFF 		bl	usbStartReceiveI
 449              	.L9:
 450              		.loc 6 200 1
 451 005c 1037     		adds	r7, r7, #16
 452              		.cfi_def_cfa_offset 8
 453 005e BD46     		mov	sp, r7
 454              		.cfi_def_cfa_register 13
 455              		@ sp needed
 456 0060 80BD     		pop	{r7, pc}
 457              	.L14:
 458 0062 00BF     		.align	2
 459              	.L13:
 460 0064 00000000 		.word	ep1_out_state
 461 0068 00000000 		.word	usb_midi_rx_invalid_size
 462 006c 00000000 		.word	midi_rx_stats
 463 0070 00000000 		.word	rx_pkt
 464              		.cfi_endproc
 465              	.LFE433:
 466              		.size	ep1_out_cb, .-ep1_out_cb
 467              		.section	.text.ep2_in_cb,"ax",%progbits
 468              		.align	1
 469              		.syntax unified
 470              		.thumb
 471              		.thumb_func
 472              		.type	ep2_in_cb, %function
 473              	ep2_in_cb:
 474              	.LFB434:
 475              		.loc 6 213 52
 476              		.cfi_startproc
 477              		@ args = 0, pretend = 0, frame = 8
ARM GAS  C:\Users\DEVELO~1\AppData\Local\Temp\ccPZimPw.s 			page 10


 478              		@ frame_needed = 1, uses_anonymous_args = 0
 479 0000 80B5     		push	{r7, lr}
 480              		.cfi_def_cfa_offset 8
 481              		.cfi_offset 7, -8
 482              		.cfi_offset 14, -4
 483 0002 82B0     		sub	sp, sp, #8
 484              		.cfi_def_cfa_offset 16
 485 0004 00AF     		add	r7, sp, #0
 486              		.cfi_def_cfa_register 7
 487 0006 7860     		str	r0, [r7, #4]
 488 0008 0B46     		mov	r3, r1
 489 000a FB70     		strb	r3, [r7, #3]
 490              		.loc 6 215 3
 491 000c 0348     		ldr	r0, .L16
 492 000e FFF7FEFF 		bl	chBSemSignalI
 493              		.loc 6 216 1
 494 0012 00BF     		nop
 495 0014 0837     		adds	r7, r7, #8
 496              		.cfi_def_cfa_offset 8
 497 0016 BD46     		mov	sp, r7
 498              		.cfi_def_cfa_register 13
 499              		@ sp needed
 500 0018 80BD     		pop	{r7, pc}
 501              	.L17:
 502 001a 00BF     		.align	2
 503              	.L16:
 504 001c 00000000 		.word	tx_sem
 505              		.cfi_endproc
 506              	.LFE434:
 507              		.size	ep2_in_cb, .-ep2_in_cb
 508              		.section	.rodata.ep1_out_cfg,"a"
 509              		.align	2
 510              		.type	ep1_out_cfg, %object
 511              		.size	ep1_out_cfg, 36
 512              	ep1_out_cfg:
 513 0000 02000000 		.word	2
 514 0004 00000000 		.word	0
 515 0008 00000000 		.word	0
 516 000c 00000000 		.word	ep1_out_cb
 517 0010 0000     		.short	0
 518 0012 4000     		.short	64
 519 0014 00000000 		.word	0
 520 0018 00000000 		.word	ep1_out_state
 521 001c 0100     		.short	1
 522 001e 0000     		.space	2
 523 0020 00000000 		.word	0
 524              		.section	.rodata.ep2_in_cfg,"a"
 525              		.align	2
 526              		.type	ep2_in_cfg, %object
 527              		.size	ep2_in_cfg, 36
 528              	ep2_in_cfg:
 529 0000 02000000 		.word	2
 530 0004 00000000 		.word	0
 531 0008 00000000 		.word	ep2_in_cb
 532 000c 00000000 		.word	0
 533 0010 4000     		.short	64
 534 0012 0000     		.short	0
ARM GAS  C:\Users\DEVELO~1\AppData\Local\Temp\ccPZimPw.s 			page 11


 535 0014 00000000 		.word	ep2_in_state
 536 0018 00000000 		.word	0
 537 001c 0100     		.short	1
 538 001e 0000     		.space	2
 539 0020 00000000 		.word	0
 540              		.section	.text.get_descriptor,"ax",%progbits
 541              		.align	1
 542              		.syntax unified
 543              		.thumb
 544              		.thumb_func
 545              		.type	get_descriptor, %function
 546              	get_descriptor:
 547              	.LFB435:
 548              		.loc 6 256 59
 549              		.cfi_startproc
 550              		@ args = 0, pretend = 0, frame = 8
 551              		@ frame_needed = 1, uses_anonymous_args = 0
 552              		@ link register save eliminated.
 553 0000 80B4     		push	{r7}
 554              		.cfi_def_cfa_offset 4
 555              		.cfi_offset 7, -4
 556 0002 83B0     		sub	sp, sp, #12
 557              		.cfi_def_cfa_offset 16
 558 0004 00AF     		add	r7, sp, #0
 559              		.cfi_def_cfa_register 7
 560 0006 7860     		str	r0, [r7, #4]
 561 0008 0846     		mov	r0, r1
 562 000a 1146     		mov	r1, r2
 563 000c 1A46     		mov	r2, r3
 564 000e 0346     		mov	r3, r0
 565 0010 FB70     		strb	r3, [r7, #3]
 566 0012 0B46     		mov	r3, r1
 567 0014 BB70     		strb	r3, [r7, #2]
 568 0016 1346     		mov	r3, r2	@ movhi
 569 0018 3B80     		strh	r3, [r7]	@ movhi
 570              		.loc 6 258 3
 571 001a FB78     		ldrb	r3, [r7, #3]	@ zero_extendqisi2
 572 001c 032B     		cmp	r3, #3
 573 001e 0AD0     		beq	.L19
 574 0020 032B     		cmp	r3, #3
 575 0022 10DC     		bgt	.L26
 576 0024 012B     		cmp	r3, #1
 577 0026 02D0     		beq	.L21
 578 0028 022B     		cmp	r3, #2
 579 002a 02D0     		beq	.L22
 580              		.loc 6 265 7
 581 002c 0BE0     		b	.L26
 582              	.L21:
 583              		.loc 6 259 47
 584 002e 0A4B     		ldr	r3, .L28
 585 0030 0DE0     		b	.L23
 586              	.L22:
 587              		.loc 6 260 47
 588 0032 0A4B     		ldr	r3, .L28+4
 589 0034 0BE0     		b	.L23
 590              	.L19:
 591              		.loc 6 262 10
ARM GAS  C:\Users\DEVELO~1\AppData\Local\Temp\ccPZimPw.s 			page 12


 592 0036 BB78     		ldrb	r3, [r7, #2]	@ zero_extendqisi2
 593 0038 032B     		cmp	r3, #3
 594 003a 06D8     		bhi	.L27
 595              		.loc 6 262 38 discriminator 1
 596 003c BB78     		ldrb	r3, [r7, #2]	@ zero_extendqisi2
 597              		.loc 6 262 30 discriminator 1
 598 003e DB00     		lsls	r3, r3, #3
 599 0040 074A     		ldr	r2, .L28+8
 600 0042 1344     		add	r3, r3, r2
 601 0044 03E0     		b	.L23
 602              	.L26:
 603              		.loc 6 265 7
 604 0046 00BF     		nop
 605 0048 00E0     		b	.L25
 606              	.L27:
 607              		.loc 6 263 7
 608 004a 00BF     		nop
 609              	.L25:
 610              		.loc 6 267 10
 611 004c 0023     		movs	r3, #0
 612              	.L23:
 613              		.loc 6 268 1
 614 004e 1846     		mov	r0, r3
 615 0050 0C37     		adds	r7, r7, #12
 616              		.cfi_def_cfa_offset 4
 617 0052 BD46     		mov	sp, r7
 618              		.cfi_def_cfa_register 13
 619              		@ sp needed
 620 0054 80BC     		pop	{r7}
 621              		.cfi_restore 7
 622              		.cfi_def_cfa_offset 0
 623 0056 7047     		bx	lr
 624              	.L29:
 625              		.align	2
 626              	.L28:
 627 0058 00000000 		.word	device_descriptor
 628 005c 00000000 		.word	config_descriptor
 629 0060 00000000 		.word	strings
 630              		.cfi_endproc
 631              	.LFE435:
 632              		.size	get_descriptor, .-get_descriptor
 633              		.section	.text.usb_event,"ax",%progbits
 634              		.align	1
 635              		.syntax unified
 636              		.thumb
 637              		.thumb_func
 638              		.type	usb_event, %function
 639              	usb_event:
 640              	.LFB436:
 641              		.loc 6 276 58
 642              		.cfi_startproc
 643              		@ args = 0, pretend = 0, frame = 8
 644              		@ frame_needed = 1, uses_anonymous_args = 0
 645 0000 80B5     		push	{r7, lr}
 646              		.cfi_def_cfa_offset 8
 647              		.cfi_offset 7, -8
 648              		.cfi_offset 14, -4
ARM GAS  C:\Users\DEVELO~1\AppData\Local\Temp\ccPZimPw.s 			page 13


 649 0002 82B0     		sub	sp, sp, #8
 650              		.cfi_def_cfa_offset 16
 651 0004 00AF     		add	r7, sp, #0
 652              		.cfi_def_cfa_register 7
 653 0006 7860     		str	r0, [r7, #4]
 654 0008 0B46     		mov	r3, r1
 655 000a FB70     		strb	r3, [r7, #3]
 656              		.loc 6 277 3
 657 000c FB78     		ldrb	r3, [r7, #3]	@ zero_extendqisi2
 658 000e 042B     		cmp	r3, #4
 659 0010 2CDC     		bgt	.L34
 660 0012 032B     		cmp	r3, #3
 661 0014 22DA     		bge	.L32
 662 0016 002B     		cmp	r3, #0
 663 0018 20D0     		beq	.L32
 664 001a 022B     		cmp	r3, #2
 665 001c 26D1     		bne	.L34
 666              		.loc 6 279 7
 667 001e FFF7FEFF 		bl	osalSysLockFromISR
 668              		.loc 6 280 7
 669 0022 154A     		ldr	r2, .L35
 670 0024 0121     		movs	r1, #1
 671 0026 7868     		ldr	r0, [r7, #4]
 672 0028 FFF7FEFF 		bl	usbInitEndpointI
 673              		.loc 6 281 7
 674 002c 134A     		ldr	r2, .L35+4
 675 002e 0221     		movs	r1, #2
 676 0030 7868     		ldr	r0, [r7, #4]
 677 0032 FFF7FEFF 		bl	usbInitEndpointI
 678              		.loc 6 282 7
 679 0036 4021     		movs	r1, #64
 680 0038 1148     		ldr	r0, .L35+8
 681 003a FFF7FEFF 		bl	usb_dcache_invalidate
 682              		.loc 6 283 7
 683 003e 4023     		movs	r3, #64
 684 0040 0F4A     		ldr	r2, .L35+8
 685 0042 0121     		movs	r1, #1
 686 0044 7868     		ldr	r0, [r7, #4]
 687 0046 FFF7FEFF 		bl	usbStartReceiveI
 688              		.loc 6 284 25
 689 004a 0E4B     		ldr	r3, .L35+12
 690 004c 0122     		movs	r2, #1
 691 004e 1A70     		strb	r2, [r3]
 692              		.loc 6 285 7
 693 0050 0D48     		ldr	r0, .L35+16
 694 0052 FFF7FEFF 		bl	chBSemSignalI
 695              		.loc 6 286 7
 696 0056 FFF7FEFF 		bl	osalSysUnlockFromISR
 697              		.loc 6 287 7
 698 005a 08E0     		b	.L33
 699              	.L32:
 700              		.loc 6 292 7
 701 005c FFF7FEFF 		bl	osalSysLockFromISR
 702              		.loc 6 293 25
 703 0060 084B     		ldr	r3, .L35+12
 704 0062 0022     		movs	r2, #0
 705 0064 1A70     		strb	r2, [r3]
ARM GAS  C:\Users\DEVELO~1\AppData\Local\Temp\ccPZimPw.s 			page 14


 706              		.loc 6 294 7
 707 0066 FFF7FEFF 		bl	osalSysUnlockFromISR
 708              		.loc 6 295 7
 709 006a 00E0     		b	.L33
 710              	.L34:
 711              		.loc 6 298 7
 712 006c 00BF     		nop
 713              	.L33:
 714              		.loc 6 300 1
 715 006e 00BF     		nop
 716 0070 0837     		adds	r7, r7, #8
 717              		.cfi_def_cfa_offset 8
 718 0072 BD46     		mov	sp, r7
 719              		.cfi_def_cfa_register 13
 720              		@ sp needed
 721 0074 80BD     		pop	{r7, pc}
 722              	.L36:
 723 0076 00BF     		.align	2
 724              	.L35:
 725 0078 00000000 		.word	ep1_out_cfg
 726 007c 00000000 		.word	ep2_in_cfg
 727 0080 00000000 		.word	rx_pkt
 728 0084 00000000 		.word	usb_midi_tx_ready
 729 0088 00000000 		.word	tx_sem
 730              		.cfi_endproc
 731              	.LFE436:
 732              		.size	usb_event, .-usb_event
 733              		.section	.text.sof_handler,"ax",%progbits
 734              		.align	1
 735              		.syntax unified
 736              		.thumb
 737              		.thumb_func
 738              		.type	sof_handler, %function
 739              	sof_handler:
 740              	.LFB437:
 741              		.loc 6 305 42
 742              		.cfi_startproc
 743              		@ args = 0, pretend = 0, frame = 8
 744              		@ frame_needed = 1, uses_anonymous_args = 0
 745 0000 80B5     		push	{r7, lr}
 746              		.cfi_def_cfa_offset 8
 747              		.cfi_offset 7, -8
 748              		.cfi_offset 14, -4
 749 0002 82B0     		sub	sp, sp, #8
 750              		.cfi_def_cfa_offset 16
 751 0004 00AF     		add	r7, sp, #0
 752              		.cfi_def_cfa_register 7
 753 0006 7860     		str	r0, [r7, #4]
 754              		.loc 6 307 3
 755 0008 0348     		ldr	r0, .L38
 756 000a FFF7FEFF 		bl	chBSemSignalI
 757              		.loc 6 308 1
 758 000e 00BF     		nop
 759 0010 0837     		adds	r7, r7, #8
 760              		.cfi_def_cfa_offset 8
 761 0012 BD46     		mov	sp, r7
 762              		.cfi_def_cfa_register 13
ARM GAS  C:\Users\DEVELO~1\AppData\Local\Temp\ccPZimPw.s 			page 15


 763              		@ sp needed
 764 0014 80BD     		pop	{r7, pc}
 765              	.L39:
 766 0016 00BF     		.align	2
 767              	.L38:
 768 0018 00000000 		.word	sof_sem
 769              		.cfi_endproc
 770              	.LFE437:
 771              		.size	sof_handler, .-sof_handler
 772              		.global	usbcfg
 773              		.section	.rodata.usbcfg,"a"
 774              		.align	2
 775              		.type	usbcfg, %object
 776              		.size	usbcfg, 16
 777              	usbcfg:
 778 0000 00000000 		.word	usb_event
 779 0004 00000000 		.word	get_descriptor
 780 0008 00000000 		.word	0
 781 000c 00000000 		.word	sof_handler
 782              		.text
 783              	.Letext0:
 784              		.file 7 "c:\\chibistudio\\tools\\gnu tools arm embedded\\11.3 2022.08\\lib\\gcc\\arm-none-eabi\\11
 785              		.file 8 "c:\\chibistudio\\tools\\gnu tools arm embedded\\11.3 2022.08\\arm-none-eabi\\include\\mac
 786              		.file 9 "c:\\chibistudio\\tools\\gnu tools arm embedded\\11.3 2022.08\\arm-none-eabi\\include\\sys
 787              		.file 10 "../../../os/rt/include/chearly.h"
 788              		.file 11 "../../../os/rt/include/chlists.h"
 789              		.file 12 "../../../os/rt/include/chsem.h"
 790              		.file 13 "../../../os/hal/include/hal_usb.h"
 791              		.file 14 "../../../os/hal/ports/STM32/LLD/OTGv1/hal_usb_lld.h"
 792              		.file 15 "../../../os/hal/ports/STM32/LLD/OTGv1/stm32_otg.h"
 793              		.file 16 "usb/usbcfg.h"
 794              		.file 17 "midi/midi.h"
 795              		.section	.debug_info,"",%progbits
 796              	.Ldebug_info0:
 797 0000 25110000 		.4byte	0x1125
 798 0004 0500     		.2byte	0x5
 799 0006 01       		.byte	0x1
 800 0007 04       		.byte	0x4
 801 0008 00000000 		.4byte	.Ldebug_abbrev0
 802 000c 25       		.uleb128 0x25
 803 000d E6010000 		.4byte	.LASF235
 804 0011 1D       		.byte	0x1d
 805 0012 FA060000 		.4byte	.LASF236
 806 0016 0F040000 		.4byte	.LASF237
 807 001a 0C000000 		.4byte	.LLRL0
 808 001e 00000000 		.4byte	0
 809 0022 00000000 		.4byte	.Ldebug_line0
 810 0026 26       		.uleb128 0x26
 811 0027 04       		.byte	0x4
 812 0028 05       		.byte	0x5
 813 0029 696E7400 		.ascii	"int\000"
 814 002d 08       		.uleb128 0x8
 815 002e 41000000 		.4byte	.LASF4
 816 0032 07       		.byte	0x7
 817 0033 D1       		.byte	0xd1
 818 0034 17       		.byte	0x17
 819 0035 3E000000 		.4byte	0x3e
ARM GAS  C:\Users\DEVELO~1\AppData\Local\Temp\ccPZimPw.s 			page 16


 820 0039 0C       		.uleb128 0xc
 821 003a 2D000000 		.4byte	0x2d
 822 003e 0D       		.uleb128 0xd
 823 003f 04       		.byte	0x4
 824 0040 07       		.byte	0x7
 825 0041 A8030000 		.4byte	.LASF0
 826 0045 0D       		.uleb128 0xd
 827 0046 08       		.byte	0x8
 828 0047 05       		.byte	0x5
 829 0048 B7040000 		.4byte	.LASF1
 830 004c 0D       		.uleb128 0xd
 831 004d 08       		.byte	0x8
 832 004e 04       		.byte	0x4
 833 004f 64030000 		.4byte	.LASF2
 834 0053 0D       		.uleb128 0xd
 835 0054 01       		.byte	0x1
 836 0055 06       		.byte	0x6
 837 0056 5E010000 		.4byte	.LASF3
 838 005a 08       		.uleb128 0x8
 839 005b 77000000 		.4byte	.LASF5
 840 005f 08       		.byte	0x8
 841 0060 2B       		.byte	0x2b
 842 0061 18       		.byte	0x18
 843 0062 66000000 		.4byte	0x66
 844 0066 0D       		.uleb128 0xd
 845 0067 01       		.byte	0x1
 846 0068 08       		.byte	0x8
 847 0069 AA070000 		.4byte	.LASF6
 848 006d 0D       		.uleb128 0xd
 849 006e 02       		.byte	0x2
 850 006f 05       		.byte	0x5
 851 0070 D7070000 		.4byte	.LASF7
 852 0074 08       		.uleb128 0x8
 853 0075 04090000 		.4byte	.LASF8
 854 0079 08       		.byte	0x8
 855 007a 39       		.byte	0x39
 856 007b 19       		.byte	0x19
 857 007c 80000000 		.4byte	0x80
 858 0080 0D       		.uleb128 0xd
 859 0081 02       		.byte	0x2
 860 0082 07       		.byte	0x7
 861 0083 8F090000 		.4byte	.LASF9
 862 0087 08       		.uleb128 0x8
 863 0088 75050000 		.4byte	.LASF10
 864 008c 08       		.byte	0x8
 865 008d 4D       		.byte	0x4d
 866 008e 18       		.byte	0x18
 867 008f 93000000 		.4byte	0x93
 868 0093 0D       		.uleb128 0xd
 869 0094 04       		.byte	0x4
 870 0095 05       		.byte	0x5
 871 0096 C70A0000 		.4byte	.LASF11
 872 009a 08       		.uleb128 0x8
 873 009b 88030000 		.4byte	.LASF12
 874 009f 08       		.byte	0x8
 875 00a0 4F       		.byte	0x4f
 876 00a1 19       		.byte	0x19
ARM GAS  C:\Users\DEVELO~1\AppData\Local\Temp\ccPZimPw.s 			page 17


 877 00a2 A6000000 		.4byte	0xa6
 878 00a6 0D       		.uleb128 0xd
 879 00a7 04       		.byte	0x4
 880 00a8 07       		.byte	0x7
 881 00a9 D80A0000 		.4byte	.LASF13
 882 00ad 0D       		.uleb128 0xd
 883 00ae 08       		.byte	0x8
 884 00af 07       		.byte	0x7
 885 00b0 AC010000 		.4byte	.LASF14
 886 00b4 08       		.uleb128 0x8
 887 00b5 42090000 		.4byte	.LASF15
 888 00b9 09       		.byte	0x9
 889 00ba 18       		.byte	0x18
 890 00bb 13       		.byte	0x13
 891 00bc 5A000000 		.4byte	0x5a
 892 00c0 0C       		.uleb128 0xc
 893 00c1 B4000000 		.4byte	0xb4
 894 00c5 08       		.uleb128 0x8
 895 00c6 FE020000 		.4byte	.LASF16
 896 00ca 09       		.byte	0x9
 897 00cb 24       		.byte	0x24
 898 00cc 14       		.byte	0x14
 899 00cd 74000000 		.4byte	0x74
 900 00d1 08       		.uleb128 0x8
 901 00d2 A2070000 		.4byte	.LASF17
 902 00d6 09       		.byte	0x9
 903 00d7 2C       		.byte	0x2c
 904 00d8 13       		.byte	0x13
 905 00d9 87000000 		.4byte	0x87
 906 00dd 08       		.uleb128 0x8
 907 00de E2090000 		.4byte	.LASF18
 908 00e2 09       		.byte	0x9
 909 00e3 30       		.byte	0x30
 910 00e4 14       		.byte	0x14
 911 00e5 9A000000 		.4byte	0x9a
 912 00e9 0E       		.uleb128 0xe
 913 00ea DD000000 		.4byte	0xdd
 914 00ee 08       		.uleb128 0x8
 915 00ef 93030000 		.4byte	.LASF19
 916 00f3 0A       		.byte	0xa
 917 00f4 5C       		.byte	0x5c
 918 00f5 19       		.byte	0x19
 919 00f6 D1000000 		.4byte	0xd1
 920 00fa 0D       		.uleb128 0xd
 921 00fb 01       		.byte	0x1
 922 00fc 08       		.byte	0x8
 923 00fd E2080000 		.4byte	.LASF20
 924 0101 08       		.uleb128 0x8
 925 0102 3E030000 		.4byte	.LASF21
 926 0106 0B       		.byte	0xb
 927 0107 3F       		.byte	0x3f
 928 0108 19       		.byte	0x19
 929 0109 0D010000 		.4byte	0x10d
 930 010d 16       		.uleb128 0x16
 931 010e 93070000 		.4byte	.LASF24
 932 0112 08       		.byte	0x8
 933 0113 0B       		.byte	0xb
ARM GAS  C:\Users\DEVELO~1\AppData\Local\Temp\ccPZimPw.s 			page 18


 934 0114 45       		.byte	0x45
 935 0115 08       		.byte	0x8
 936 0116 35010000 		.4byte	0x135
 937 011a 01       		.uleb128 0x1
 938 011b 1F010000 		.4byte	.LASF22
 939 011f 0B       		.byte	0xb
 940 0120 46       		.byte	0x46
 941 0121 1A       		.byte	0x1a
 942 0122 35010000 		.4byte	0x135
 943 0126 00       		.byte	0
 944 0127 01       		.uleb128 0x1
 945 0128 89000000 		.4byte	.LASF23
 946 012c 0B       		.byte	0xb
 947 012d 47       		.byte	0x47
 948 012e 1A       		.byte	0x1a
 949 012f 35010000 		.4byte	0x135
 950 0133 04       		.byte	0x4
 951 0134 00       		.byte	0
 952 0135 09       		.uleb128 0x9
 953 0136 01010000 		.4byte	0x101
 954 013a 27       		.uleb128 0x27
 955 013b 04       		.byte	0x4
 956 013c 04       		.uleb128 0x4
 957 013d C0000000 		.4byte	0xc0
 958 0141 4C010000 		.4byte	0x14c
 959 0145 05       		.uleb128 0x5
 960 0146 3E000000 		.4byte	0x3e
 961 014a 0F       		.byte	0xf
 962 014b 00       		.byte	0
 963 014c 0C       		.uleb128 0xc
 964 014d 3C010000 		.4byte	0x13c
 965 0151 04       		.uleb128 0x4
 966 0152 E9000000 		.4byte	0xe9
 967 0156 61010000 		.4byte	0x161
 968 015a 05       		.uleb128 0x5
 969 015b 3E000000 		.4byte	0x3e
 970 015f 0F       		.byte	0xf
 971 0160 00       		.byte	0
 972 0161 0E       		.uleb128 0xe
 973 0162 51010000 		.4byte	0x151
 974 0166 04       		.uleb128 0x4
 975 0167 E9000000 		.4byte	0xe9
 976 016b 76010000 		.4byte	0x176
 977 016f 05       		.uleb128 0x5
 978 0170 3E000000 		.4byte	0x3e
 979 0174 0E       		.byte	0xe
 980 0175 00       		.byte	0
 981 0176 0E       		.uleb128 0xe
 982 0177 66010000 		.4byte	0x166
 983 017b 16       		.uleb128 0x16
 984 017c 79080000 		.4byte	.LASF25
 985 0180 0C       		.byte	0xc
 986 0181 0C       		.byte	0xc
 987 0182 34       		.byte	0x34
 988 0183 10       		.byte	0x10
 989 0184 A3010000 		.4byte	0x1a3
 990 0188 01       		.uleb128 0x1
ARM GAS  C:\Users\DEVELO~1\AppData\Local\Temp\ccPZimPw.s 			page 19


 991 0189 7F040000 		.4byte	.LASF26
 992 018d 0C       		.byte	0xc
 993 018e 35       		.byte	0x35
 994 018f 19       		.byte	0x19
 995 0190 01010000 		.4byte	0x101
 996 0194 00       		.byte	0
 997 0195 17       		.uleb128 0x17
 998 0196 636E7400 		.ascii	"cnt\000"
 999 019a 0C       		.byte	0xc
 1000 019b 37       		.byte	0x37
 1001 019c 19       		.byte	0x19
 1002 019d EE000000 		.4byte	0xee
 1003 01a1 08       		.byte	0x8
 1004 01a2 00       		.byte	0
 1005 01a3 08       		.uleb128 0x8
 1006 01a4 4F080000 		.4byte	.LASF27
 1007 01a8 0C       		.byte	0xc
 1008 01a9 38       		.byte	0x38
 1009 01aa 03       		.byte	0x3
 1010 01ab 7B010000 		.4byte	0x17b
 1011 01af 16       		.uleb128 0x16
 1012 01b0 0B010000 		.4byte	.LASF28
 1013 01b4 0C       		.byte	0xc
 1014 01b5 04       		.byte	0x4
 1015 01b6 4B       		.byte	0x4b
 1016 01b7 10       		.byte	0x10
 1017 01b8 CA010000 		.4byte	0x1ca
 1018 01bc 17       		.uleb128 0x17
 1019 01bd 73656D00 		.ascii	"sem\000"
 1020 01c1 04       		.byte	0x4
 1021 01c2 4C       		.byte	0x4c
 1022 01c3 19       		.byte	0x19
 1023 01c4 A3010000 		.4byte	0x1a3
 1024 01c8 00       		.byte	0
 1025 01c9 00       		.byte	0
 1026 01ca 08       		.uleb128 0x8
 1027 01cb 53070000 		.4byte	.LASF29
 1028 01cf 04       		.byte	0x4
 1029 01d0 4D       		.byte	0x4d
 1030 01d1 03       		.byte	0x3
 1031 01d2 AF010000 		.4byte	0x1af
 1032 01d6 0D       		.uleb128 0xd
 1033 01d7 01       		.byte	0x1
 1034 01d8 02       		.byte	0x2
 1035 01d9 9C070000 		.4byte	.LASF30
 1036 01dd 0E       		.uleb128 0xe
 1037 01de D6010000 		.4byte	0x1d6
 1038 01e2 09       		.uleb128 0x9
 1039 01e3 B4000000 		.4byte	0xb4
 1040 01e7 09       		.uleb128 0x9
 1041 01e8 C0000000 		.4byte	0xc0
 1042 01ec 0A       		.uleb128 0xa
 1043 01ed 570A0000 		.4byte	.LASF31
 1044 01f1 0D       		.byte	0xd
 1045 01f2 0301     		.2byte	0x103
 1046 01f4 1A       		.byte	0x1a
 1047 01f5 F9010000 		.4byte	0x1f9
ARM GAS  C:\Users\DEVELO~1\AppData\Local\Temp\ccPZimPw.s 			page 20


 1048 01f9 28       		.uleb128 0x28
 1049 01fa 570A0000 		.4byte	.LASF31
 1050 01fe 9C       		.byte	0x9c
 1051 01ff 0E       		.byte	0xe
 1052 0200 A501     		.2byte	0x1a5
 1053 0202 08       		.byte	0x8
 1054 0203 0E030000 		.4byte	0x30e
 1055 0207 02       		.uleb128 0x2
 1056 0208 96020000 		.4byte	.LASF32
 1057 020c 0E       		.byte	0xe
 1058 020d A901     		.2byte	0x1a9
 1059 020f 21       		.byte	0x21
 1060 0210 4B030000 		.4byte	0x34b
 1061 0214 00       		.byte	0
 1062 0215 02       		.uleb128 0x2
 1063 0216 DE030000 		.4byte	.LASF33
 1064 021a 0E       		.byte	0xe
 1065 021b AD01     		.2byte	0x1ad
 1066 021d 22       		.byte	0x22
 1067 021e D30B0000 		.4byte	0xbd3
 1068 0222 04       		.byte	0x4
 1069 0223 02       		.uleb128 0x2
 1070 0224 85040000 		.4byte	.LASF34
 1071 0228 0E       		.byte	0xe
 1072 0229 B101     		.2byte	0x1b1
 1073 022b 21       		.byte	0x21
 1074 022c C5000000 		.4byte	0xc5
 1075 0230 08       		.byte	0x8
 1076 0231 02       		.uleb128 0x2
 1077 0232 63050000 		.4byte	.LASF35
 1078 0236 0E       		.byte	0xe
 1079 0237 B501     		.2byte	0x1b5
 1080 0239 21       		.byte	0x21
 1081 023a C5000000 		.4byte	0xc5
 1082 023e 0A       		.byte	0xa
 1083 023f 1D       		.uleb128 0x1d
 1084 0240 65706300 		.ascii	"epc\000"
 1085 0244 B901     		.2byte	0x1b9
 1086 0246 D80B0000 		.4byte	0xbd8
 1087 024a 0C       		.byte	0xc
 1088 024b 02       		.uleb128 0x2
 1089 024c F7090000 		.4byte	.LASF36
 1090 0250 0E       		.byte	0xe
 1091 0251 C001     		.2byte	0x1c0
 1092 0253 22       		.byte	0x22
 1093 0254 ED0B0000 		.4byte	0xbed
 1094 0258 30       		.byte	0x30
 1095 0259 02       		.uleb128 0x2
 1096 025a 9C020000 		.4byte	.LASF37
 1097 025e 0E       		.byte	0xe
 1098 025f C701     		.2byte	0x1c7
 1099 0261 22       		.byte	0x22
 1100 0262 ED0B0000 		.4byte	0xbed
 1101 0266 50       		.byte	0x50
 1102 0267 02       		.uleb128 0x2
 1103 0268 9D080000 		.4byte	.LASF38
 1104 026c 0E       		.byte	0xe
ARM GAS  C:\Users\DEVELO~1\AppData\Local\Temp\ccPZimPw.s 			page 21


 1105 026d CB01     		.2byte	0x1cb
 1106 026f 21       		.byte	0x21
 1107 0270 8E030000 		.4byte	0x38e
 1108 0274 70       		.byte	0x70
 1109 0275 02       		.uleb128 0x2
 1110 0276 98040000 		.4byte	.LASF39
 1111 027a 0E       		.byte	0xe
 1112 027b CF01     		.2byte	0x1cf
 1113 027d 22       		.byte	0x22
 1114 027e E2010000 		.4byte	0x1e2
 1115 0282 74       		.byte	0x74
 1116 0283 02       		.uleb128 0x2
 1117 0284 4E050000 		.4byte	.LASF40
 1118 0288 0E       		.byte	0xe
 1119 0289 D301     		.2byte	0x1d3
 1120 028b 21       		.byte	0x21
 1121 028c 2D000000 		.4byte	0x2d
 1122 0290 78       		.byte	0x78
 1123 0291 02       		.uleb128 0x2
 1124 0292 75090000 		.4byte	.LASF41
 1125 0296 0E       		.byte	0xe
 1126 0297 D701     		.2byte	0x1d7
 1127 0299 21       		.byte	0x21
 1128 029a 16040000 		.4byte	0x416
 1129 029e 7C       		.byte	0x7c
 1130 029f 02       		.uleb128 0x2
 1131 02a0 A5060000 		.4byte	.LASF42
 1132 02a4 0E       		.byte	0xe
 1133 02a5 DB01     		.2byte	0x1db
 1134 02a7 21       		.byte	0x21
 1135 02a8 FD0B0000 		.4byte	0xbfd
 1136 02ac 80       		.byte	0x80
 1137 02ad 02       		.uleb128 0x2
 1138 02ae 250A0000 		.4byte	.LASF43
 1139 02b2 0E       		.byte	0xe
 1140 02b3 DF01     		.2byte	0x1df
 1141 02b5 21       		.byte	0x21
 1142 02b6 C5000000 		.4byte	0xc5
 1143 02ba 88       		.byte	0x88
 1144 02bb 02       		.uleb128 0x2
 1145 02bc 4C060000 		.4byte	.LASF44
 1146 02c0 0E       		.byte	0xe
 1147 02c1 E301     		.2byte	0x1e3
 1148 02c3 21       		.byte	0x21
 1149 02c4 B4000000 		.4byte	0xb4
 1150 02c8 8A       		.byte	0x8a
 1151 02c9 02       		.uleb128 0x2
 1152 02ca 0C0B0000 		.4byte	.LASF45
 1153 02ce 0E       		.byte	0xe
 1154 02cf E701     		.2byte	0x1e7
 1155 02d1 21       		.byte	0x21
 1156 02d2 B4000000 		.4byte	0xb4
 1157 02d6 8B       		.byte	0x8b
 1158 02d7 02       		.uleb128 0x2
 1159 02d8 3B080000 		.4byte	.LASF46
 1160 02dc 0E       		.byte	0xe
 1161 02dd EB01     		.2byte	0x1eb
ARM GAS  C:\Users\DEVELO~1\AppData\Local\Temp\ccPZimPw.s 			page 22


 1162 02df 21       		.byte	0x21
 1163 02e0 4B030000 		.4byte	0x34b
 1164 02e4 8C       		.byte	0x8c
 1165 02e5 1D       		.uleb128 0x1d
 1166 02e6 6F746700 		.ascii	"otg\000"
 1167 02ea F301     		.2byte	0x1f3
 1168 02ec 0D0C0000 		.4byte	0xc0d
 1169 02f0 90       		.byte	0x90
 1170 02f1 02       		.uleb128 0x2
 1171 02f2 44050000 		.4byte	.LASF47
 1172 02f6 0E       		.byte	0xe
 1173 02f7 F701     		.2byte	0x1f7
 1174 02f9 22       		.byte	0x22
 1175 02fa 120C0000 		.4byte	0xc12
 1176 02fe 94       		.byte	0x94
 1177 02ff 02       		.uleb128 0x2
 1178 0300 07070000 		.4byte	.LASF48
 1179 0304 0E       		.byte	0xe
 1180 0305 FB01     		.2byte	0x1fb
 1181 0307 21       		.byte	0x21
 1182 0308 DD000000 		.4byte	0xdd
 1183 030c 98       		.byte	0x98
 1184 030d 00       		.byte	0
 1185 030e 0A       		.uleb128 0xa
 1186 030f C0030000 		.4byte	.LASF49
 1187 0313 0D       		.byte	0xd
 1188 0314 0801     		.2byte	0x108
 1189 0316 11       		.byte	0x11
 1190 0317 B4000000 		.4byte	0xb4
 1191 031b 18       		.uleb128 0x18
 1192 031c 66000000 		.4byte	0x66
 1193 0320 0D01     		.2byte	0x10d
 1194 0322 4B030000 		.4byte	0x34b
 1195 0326 06       		.uleb128 0x6
 1196 0327 F80A0000 		.4byte	.LASF50
 1197 032b 00       		.byte	0
 1198 032c 06       		.uleb128 0x6
 1199 032d 8A070000 		.4byte	.LASF51
 1200 0331 01       		.byte	0x1
 1201 0332 06       		.uleb128 0x6
 1202 0333 80070000 		.4byte	.LASF52
 1203 0337 02       		.byte	0x2
 1204 0338 06       		.uleb128 0x6
 1205 0339 23080000 		.4byte	.LASF53
 1206 033d 03       		.byte	0x3
 1207 033e 06       		.uleb128 0x6
 1208 033f B5030000 		.4byte	.LASF54
 1209 0343 04       		.byte	0x4
 1210 0344 06       		.uleb128 0x6
 1211 0345 EA0A0000 		.4byte	.LASF55
 1212 0349 05       		.byte	0x5
 1213 034a 00       		.byte	0
 1214 034b 0A       		.uleb128 0xa
 1215 034c 53010000 		.4byte	.LASF56
 1216 0350 0D       		.byte	0xd
 1217 0351 1401     		.2byte	0x114
 1218 0353 03       		.byte	0x3
ARM GAS  C:\Users\DEVELO~1\AppData\Local\Temp\ccPZimPw.s 			page 23


 1219 0354 1B030000 		.4byte	0x31b
 1220 0358 18       		.uleb128 0x18
 1221 0359 66000000 		.4byte	0x66
 1222 035d 2201     		.2byte	0x122
 1223 035f 8E030000 		.4byte	0x38e
 1224 0363 06       		.uleb128 0x6
 1225 0364 A9050000 		.4byte	.LASF57
 1226 0368 00       		.byte	0
 1227 0369 06       		.uleb128 0x6
 1228 036a 8A050000 		.4byte	.LASF58
 1229 036e 09       		.byte	0x9
 1230 036f 06       		.uleb128 0x6
 1231 0370 CD000000 		.4byte	.LASF59
 1232 0374 0A       		.byte	0xa
 1233 0375 06       		.uleb128 0x6
 1234 0376 09050000 		.4byte	.LASF60
 1235 037a 0B       		.byte	0xb
 1236 037b 06       		.uleb128 0x6
 1237 037c 010A0000 		.4byte	.LASF61
 1238 0380 14       		.byte	0x14
 1239 0381 06       		.uleb128 0x6
 1240 0382 20050000 		.4byte	.LASF62
 1241 0386 15       		.byte	0x15
 1242 0387 06       		.uleb128 0x6
 1243 0388 D5060000 		.4byte	.LASF63
 1244 038c 06       		.byte	0x6
 1245 038d 00       		.byte	0
 1246 038e 0A       		.uleb128 0xa
 1247 038f 16030000 		.4byte	.LASF64
 1248 0393 0D       		.byte	0xd
 1249 0394 2A01     		.2byte	0x12a
 1250 0396 03       		.byte	0x3
 1251 0397 58030000 		.4byte	0x358
 1252 039b 18       		.uleb128 0x18
 1253 039c 66000000 		.4byte	0x66
 1254 03a0 2F01     		.2byte	0x12f
 1255 03a2 D1030000 		.4byte	0x3d1
 1256 03a6 06       		.uleb128 0x6
 1257 03a7 F4080000 		.4byte	.LASF65
 1258 03ab 00       		.byte	0
 1259 03ac 06       		.uleb128 0x6
 1260 03ad 29070000 		.4byte	.LASF66
 1261 03b1 01       		.byte	0x1
 1262 03b2 06       		.uleb128 0x6
 1263 03b3 60090000 		.4byte	.LASF67
 1264 03b7 02       		.byte	0x2
 1265 03b8 06       		.uleb128 0x6
 1266 03b9 99000000 		.4byte	.LASF68
 1267 03bd 03       		.byte	0x3
 1268 03be 06       		.uleb128 0x6
 1269 03bf 8B080000 		.4byte	.LASF69
 1270 03c3 04       		.byte	0x4
 1271 03c4 06       		.uleb128 0x6
 1272 03c5 ED020000 		.4byte	.LASF70
 1273 03c9 05       		.byte	0x5
 1274 03ca 06       		.uleb128 0x6
 1275 03cb 2C030000 		.4byte	.LASF71
ARM GAS  C:\Users\DEVELO~1\AppData\Local\Temp\ccPZimPw.s 			page 24


 1276 03cf 06       		.byte	0x6
 1277 03d0 00       		.byte	0
 1278 03d1 0A       		.uleb128 0xa
 1279 03d2 8E000000 		.4byte	.LASF72
 1280 03d6 0D       		.byte	0xd
 1281 03d7 3701     		.2byte	0x137
 1282 03d9 03       		.byte	0x3
 1283 03da 9B030000 		.4byte	0x39b
 1284 03de 0F       		.uleb128 0xf
 1285 03df 08       		.byte	0x8
 1286 03e0 0D       		.byte	0xd
 1287 03e1 3C01     		.2byte	0x13c
 1288 03e3 04040000 		.4byte	0x404
 1289 03e7 02       		.uleb128 0x2
 1290 03e8 CE030000 		.4byte	.LASF73
 1291 03ec 0D       		.byte	0xd
 1292 03ed 4001     		.2byte	0x140
 1293 03ef 21       		.byte	0x21
 1294 03f0 2D000000 		.4byte	0x2d
 1295 03f4 00       		.byte	0
 1296 03f5 02       		.uleb128 0x2
 1297 03f6 10060000 		.4byte	.LASF74
 1298 03fa 0D       		.byte	0xd
 1299 03fb 4401     		.2byte	0x144
 1300 03fd 22       		.byte	0x22
 1301 03fe E7010000 		.4byte	0x1e7
 1302 0402 04       		.byte	0x4
 1303 0403 00       		.byte	0
 1304 0404 0A       		.uleb128 0xa
 1305 0405 2C010000 		.4byte	.LASF75
 1306 0409 0D       		.byte	0xd
 1307 040a 4501     		.2byte	0x145
 1308 040c 03       		.byte	0x3
 1309 040d DE030000 		.4byte	0x3de
 1310 0411 0C       		.uleb128 0xc
 1311 0412 04040000 		.4byte	0x404
 1312 0416 0A       		.uleb128 0xa
 1313 0417 78010000 		.4byte	.LASF76
 1314 041b 0D       		.byte	0xd
 1315 041c 4D01     		.2byte	0x14d
 1316 041e 10       		.byte	0x10
 1317 041f 23040000 		.4byte	0x423
 1318 0423 09       		.uleb128 0x9
 1319 0424 28040000 		.4byte	0x428
 1320 0428 19       		.uleb128 0x19
 1321 0429 33040000 		.4byte	0x433
 1322 042d 07       		.uleb128 0x7
 1323 042e 33040000 		.4byte	0x433
 1324 0432 00       		.byte	0
 1325 0433 09       		.uleb128 0x9
 1326 0434 EC010000 		.4byte	0x1ec
 1327 0438 0A       		.uleb128 0xa
 1328 0439 2C0A0000 		.4byte	.LASF77
 1329 043d 0D       		.byte	0xd
 1330 043e 5601     		.2byte	0x156
 1331 0440 10       		.byte	0x10
 1332 0441 45040000 		.4byte	0x445
ARM GAS  C:\Users\DEVELO~1\AppData\Local\Temp\ccPZimPw.s 			page 25


 1333 0445 09       		.uleb128 0x9
 1334 0446 4A040000 		.4byte	0x44a
 1335 044a 19       		.uleb128 0x19
 1336 044b 5A040000 		.4byte	0x45a
 1337 044f 07       		.uleb128 0x7
 1338 0450 33040000 		.4byte	0x433
 1339 0454 07       		.uleb128 0x7
 1340 0455 0E030000 		.4byte	0x30e
 1341 0459 00       		.byte	0
 1342 045a 0A       		.uleb128 0xa
 1343 045b D7020000 		.4byte	.LASF78
 1344 045f 0D       		.byte	0xd
 1345 0460 5F01     		.2byte	0x15f
 1346 0462 10       		.byte	0x10
 1347 0463 67040000 		.4byte	0x467
 1348 0467 09       		.uleb128 0x9
 1349 0468 6C040000 		.4byte	0x46c
 1350 046c 19       		.uleb128 0x19
 1351 046d 7C040000 		.4byte	0x47c
 1352 0471 07       		.uleb128 0x7
 1353 0472 33040000 		.4byte	0x433
 1354 0476 07       		.uleb128 0x7
 1355 0477 D1030000 		.4byte	0x3d1
 1356 047b 00       		.byte	0
 1357 047c 0A       		.uleb128 0xa
 1358 047d 68060000 		.4byte	.LASF79
 1359 0481 0D       		.byte	0xd
 1360 0482 6B01     		.2byte	0x16b
 1361 0484 10       		.byte	0x10
 1362 0485 89040000 		.4byte	0x489
 1363 0489 09       		.uleb128 0x9
 1364 048a 8E040000 		.4byte	0x48e
 1365 048e 1E       		.uleb128 0x1e
 1366 048f D6010000 		.4byte	0x1d6
 1367 0493 9D040000 		.4byte	0x49d
 1368 0497 07       		.uleb128 0x7
 1369 0498 33040000 		.4byte	0x433
 1370 049c 00       		.byte	0
 1371 049d 0A       		.uleb128 0xa
 1372 049e AC020000 		.4byte	.LASF80
 1373 04a2 0D       		.byte	0xd
 1374 04a3 7001     		.2byte	0x170
 1375 04a5 21       		.byte	0x21
 1376 04a6 AA040000 		.4byte	0x4aa
 1377 04aa 09       		.uleb128 0x9
 1378 04ab AF040000 		.4byte	0x4af
 1379 04af 1E       		.uleb128 0x1e
 1380 04b0 CD040000 		.4byte	0x4cd
 1381 04b4 CD040000 		.4byte	0x4cd
 1382 04b8 07       		.uleb128 0x7
 1383 04b9 33040000 		.4byte	0x433
 1384 04bd 07       		.uleb128 0x7
 1385 04be B4000000 		.4byte	0xb4
 1386 04c2 07       		.uleb128 0x7
 1387 04c3 B4000000 		.4byte	0xb4
 1388 04c7 07       		.uleb128 0x7
 1389 04c8 C5000000 		.4byte	0xc5
ARM GAS  C:\Users\DEVELO~1\AppData\Local\Temp\ccPZimPw.s 			page 26


 1390 04cc 00       		.byte	0
 1391 04cd 09       		.uleb128 0x9
 1392 04ce 11040000 		.4byte	0x411
 1393 04d2 13       		.uleb128 0x13
 1394 04d3 20       		.byte	0x20
 1395 04d4 0F       		.byte	0xf
 1396 04d5 29       		.byte	0x29
 1397 04d6 43050000 		.4byte	0x543
 1398 04da 01       		.uleb128 0x1
 1399 04db B80A0000 		.4byte	.LASF81
 1400 04df 0F       		.byte	0xf
 1401 04e0 2A       		.byte	0x2a
 1402 04e1 15       		.byte	0x15
 1403 04e2 E9000000 		.4byte	0xe9
 1404 04e6 00       		.byte	0
 1405 04e7 01       		.uleb128 0x1
 1406 04e8 79070000 		.4byte	.LASF82
 1407 04ec 0F       		.byte	0xf
 1408 04ed 2C       		.byte	0x2c
 1409 04ee 15       		.byte	0x15
 1410 04ef E9000000 		.4byte	0xe9
 1411 04f3 04       		.byte	0x4
 1412 04f4 01       		.uleb128 0x1
 1413 04f5 9F060000 		.4byte	.LASF83
 1414 04f9 0F       		.byte	0xf
 1415 04fa 2D       		.byte	0x2d
 1416 04fb 15       		.byte	0x15
 1417 04fc E9000000 		.4byte	0xe9
 1418 0500 08       		.byte	0x8
 1419 0501 01       		.uleb128 0x1
 1420 0502 8C060000 		.4byte	.LASF84
 1421 0506 0F       		.byte	0xf
 1422 0507 2E       		.byte	0x2e
 1423 0508 15       		.byte	0x15
 1424 0509 E9000000 		.4byte	0xe9
 1425 050d 0C       		.byte	0xc
 1426 050e 01       		.uleb128 0x1
 1427 050f 3A010000 		.4byte	.LASF85
 1428 0513 0F       		.byte	0xf
 1429 0514 30       		.byte	0x30
 1430 0515 15       		.byte	0x15
 1431 0516 E9000000 		.4byte	0xe9
 1432 051a 10       		.byte	0x10
 1433 051b 01       		.uleb128 0x1
 1434 051c 07040000 		.4byte	.LASF86
 1435 0520 0F       		.byte	0xf
 1436 0521 32       		.byte	0x32
 1437 0522 15       		.byte	0x15
 1438 0523 E9000000 		.4byte	0xe9
 1439 0527 14       		.byte	0x14
 1440 0528 01       		.uleb128 0x1
 1441 0529 6E040000 		.4byte	.LASF87
 1442 052d 0F       		.byte	0xf
 1443 052e 33       		.byte	0x33
 1444 052f 15       		.byte	0x15
 1445 0530 E9000000 		.4byte	0xe9
 1446 0534 18       		.byte	0x18
ARM GAS  C:\Users\DEVELO~1\AppData\Local\Temp\ccPZimPw.s 			page 27


 1447 0535 01       		.uleb128 0x1
 1448 0536 6D050000 		.4byte	.LASF88
 1449 053a 0F       		.byte	0xf
 1450 053b 34       		.byte	0x34
 1451 053c 15       		.byte	0x15
 1452 053d E9000000 		.4byte	0xe9
 1453 0541 1C       		.byte	0x1c
 1454 0542 00       		.byte	0
 1455 0543 08       		.uleb128 0x8
 1456 0544 2F050000 		.4byte	.LASF89
 1457 0548 0F       		.byte	0xf
 1458 0549 35       		.byte	0x35
 1459 054a 03       		.byte	0x3
 1460 054b D2040000 		.4byte	0x4d2
 1461 054f 13       		.uleb128 0x13
 1462 0550 20       		.byte	0x20
 1463 0551 0F       		.byte	0xf
 1464 0552 3A       		.byte	0x3a
 1465 0553 C0050000 		.4byte	0x5c0
 1466 0557 01       		.uleb128 0x1
 1467 0558 44060000 		.4byte	.LASF90
 1468 055c 0F       		.byte	0xf
 1469 055d 3B       		.byte	0x3b
 1470 055e 15       		.byte	0x15
 1471 055f E9000000 		.4byte	0xe9
 1472 0563 00       		.byte	0
 1473 0564 01       		.uleb128 0x1
 1474 0565 4C070000 		.4byte	.LASF91
 1475 0569 0F       		.byte	0xf
 1476 056a 3D       		.byte	0x3d
 1477 056b 15       		.byte	0x15
 1478 056c E9000000 		.4byte	0xe9
 1479 0570 04       		.byte	0x4
 1480 0571 01       		.uleb128 0x1
 1481 0572 C9070000 		.4byte	.LASF92
 1482 0576 0F       		.byte	0xf
 1483 0577 3E       		.byte	0x3e
 1484 0578 15       		.byte	0x15
 1485 0579 E9000000 		.4byte	0xe9
 1486 057d 08       		.byte	0x8
 1487 057e 01       		.uleb128 0x1
 1488 057f C2070000 		.4byte	.LASF93
 1489 0583 0F       		.byte	0xf
 1490 0584 40       		.byte	0x40
 1491 0585 15       		.byte	0x15
 1492 0586 E9000000 		.4byte	0xe9
 1493 058a 0C       		.byte	0xc
 1494 058b 01       		.uleb128 0x1
 1495 058c AB060000 		.4byte	.LASF94
 1496 0590 0F       		.byte	0xf
 1497 0591 41       		.byte	0x41
 1498 0592 15       		.byte	0x15
 1499 0593 E9000000 		.4byte	0xe9
 1500 0597 10       		.byte	0x10
 1501 0598 01       		.uleb128 0x1
 1502 0599 07040000 		.4byte	.LASF86
 1503 059d 0F       		.byte	0xf
ARM GAS  C:\Users\DEVELO~1\AppData\Local\Temp\ccPZimPw.s 			page 28


 1504 059e 43       		.byte	0x43
 1505 059f 15       		.byte	0x15
 1506 05a0 E9000000 		.4byte	0xe9
 1507 05a4 14       		.byte	0x14
 1508 05a5 01       		.uleb128 0x1
 1509 05a6 B00A0000 		.4byte	.LASF95
 1510 05aa 0F       		.byte	0xf
 1511 05ab 44       		.byte	0x44
 1512 05ac 15       		.byte	0x15
 1513 05ad E9000000 		.4byte	0xe9
 1514 05b1 18       		.byte	0x18
 1515 05b2 01       		.uleb128 0x1
 1516 05b3 A6040000 		.4byte	.LASF96
 1517 05b7 0F       		.byte	0xf
 1518 05b8 46       		.byte	0x46
 1519 05b9 15       		.byte	0x15
 1520 05ba E9000000 		.4byte	0xe9
 1521 05be 1C       		.byte	0x1c
 1522 05bf 00       		.byte	0
 1523 05c0 08       		.uleb128 0x8
 1524 05c1 BD050000 		.4byte	.LASF97
 1525 05c5 0F       		.byte	0xf
 1526 05c6 47       		.byte	0x47
 1527 05c7 03       		.byte	0x3
 1528 05c8 4F050000 		.4byte	0x54f
 1529 05cc 13       		.uleb128 0x13
 1530 05cd 20       		.byte	0x20
 1531 05ce 0F       		.byte	0xf
 1532 05cf 4C       		.byte	0x4c
 1533 05d0 3D060000 		.4byte	0x63d
 1534 05d4 01       		.uleb128 0x1
 1535 05d5 D4090000 		.4byte	.LASF98
 1536 05d9 0F       		.byte	0xf
 1537 05da 4D       		.byte	0x4d
 1538 05db 15       		.byte	0x15
 1539 05dc E9000000 		.4byte	0xe9
 1540 05e0 00       		.byte	0
 1541 05e1 01       		.uleb128 0x1
 1542 05e2 4C070000 		.4byte	.LASF91
 1543 05e6 0F       		.byte	0xf
 1544 05e7 4F       		.byte	0x4f
 1545 05e8 15       		.byte	0x15
 1546 05e9 E9000000 		.4byte	0xe9
 1547 05ed 04       		.byte	0x4
 1548 05ee 01       		.uleb128 0x1
 1549 05ef 24010000 		.4byte	.LASF99
 1550 05f3 0F       		.byte	0xf
 1551 05f4 50       		.byte	0x50
 1552 05f5 15       		.byte	0x15
 1553 05f6 E9000000 		.4byte	0xe9
 1554 05fa 08       		.byte	0x8
 1555 05fb 01       		.uleb128 0x1
 1556 05fc C2070000 		.4byte	.LASF93
 1557 0600 0F       		.byte	0xf
 1558 0601 52       		.byte	0x52
 1559 0602 15       		.byte	0x15
 1560 0603 E9000000 		.4byte	0xe9
ARM GAS  C:\Users\DEVELO~1\AppData\Local\Temp\ccPZimPw.s 			page 29


 1561 0607 0C       		.byte	0xc
 1562 0608 01       		.uleb128 0x1
 1563 0609 D6040000 		.4byte	.LASF100
 1564 060d 0F       		.byte	0xf
 1565 060e 53       		.byte	0x53
 1566 060f 15       		.byte	0x15
 1567 0610 E9000000 		.4byte	0xe9
 1568 0614 10       		.byte	0x10
 1569 0615 01       		.uleb128 0x1
 1570 0616 07040000 		.4byte	.LASF86
 1571 061a 0F       		.byte	0xf
 1572 061b 55       		.byte	0x55
 1573 061c 15       		.byte	0x15
 1574 061d E9000000 		.4byte	0xe9
 1575 0621 14       		.byte	0x14
 1576 0622 01       		.uleb128 0x1
 1577 0623 6E040000 		.4byte	.LASF87
 1578 0627 0F       		.byte	0xf
 1579 0628 56       		.byte	0x56
 1580 0629 15       		.byte	0x15
 1581 062a E9000000 		.4byte	0xe9
 1582 062e 18       		.byte	0x18
 1583 062f 01       		.uleb128 0x1
 1584 0630 A6040000 		.4byte	.LASF96
 1585 0634 0F       		.byte	0xf
 1586 0635 57       		.byte	0x57
 1587 0636 15       		.byte	0x15
 1588 0637 E9000000 		.4byte	0xe9
 1589 063b 1C       		.byte	0x1c
 1590 063c 00       		.byte	0
 1591 063d 08       		.uleb128 0x8
 1592 063e 1A000000 		.4byte	.LASF101
 1593 0642 0F       		.byte	0xf
 1594 0643 58       		.byte	0x58
 1595 0644 03       		.byte	0x3
 1596 0645 CC050000 		.4byte	0x5cc
 1597 0649 29       		.uleb128 0x29
 1598 064a 00100100 		.4byte	0x11000
 1599 064e 0F       		.byte	0xf
 1600 064f 5D       		.byte	0x5d
 1601 0650 09       		.byte	0x9
 1602 0651 13090000 		.4byte	0x913
 1603 0655 01       		.uleb128 0x1
 1604 0656 87090000 		.4byte	.LASF102
 1605 065a 0F       		.byte	0xf
 1606 065b 5E       		.byte	0x5e
 1607 065c 15       		.byte	0x15
 1608 065d E9000000 		.4byte	0xe9
 1609 0661 00       		.byte	0
 1610 0662 01       		.uleb128 0x1
 1611 0663 5C030000 		.4byte	.LASF103
 1612 0667 0F       		.byte	0xf
 1613 0668 5F       		.byte	0x5f
 1614 0669 15       		.byte	0x15
 1615 066a E9000000 		.4byte	0xe9
 1616 066e 04       		.byte	0x4
 1617 066f 01       		.uleb128 0x1
ARM GAS  C:\Users\DEVELO~1\AppData\Local\Temp\ccPZimPw.s 			page 30


 1618 0670 81000000 		.4byte	.LASF104
 1619 0674 0F       		.byte	0xf
 1620 0675 60       		.byte	0x60
 1621 0676 15       		.byte	0x15
 1622 0677 E9000000 		.4byte	0xe9
 1623 067b 08       		.byte	0x8
 1624 067c 01       		.uleb128 0x1
 1625 067d EC060000 		.4byte	.LASF105
 1626 0681 0F       		.byte	0xf
 1627 0682 61       		.byte	0x61
 1628 0683 15       		.byte	0x15
 1629 0684 E9000000 		.4byte	0xe9
 1630 0688 0C       		.byte	0xc
 1631 0689 01       		.uleb128 0x1
 1632 068a 53050000 		.4byte	.LASF106
 1633 068e 0F       		.byte	0xf
 1634 068f 62       		.byte	0x62
 1635 0690 15       		.byte	0x15
 1636 0691 E9000000 		.4byte	0xe9
 1637 0695 10       		.byte	0x10
 1638 0696 01       		.uleb128 0x1
 1639 0697 CE040000 		.4byte	.LASF107
 1640 069b 0F       		.byte	0xf
 1641 069c 63       		.byte	0x63
 1642 069d 15       		.byte	0x15
 1643 069e E9000000 		.4byte	0xe9
 1644 06a2 14       		.byte	0x14
 1645 06a3 01       		.uleb128 0x1
 1646 06a4 D6030000 		.4byte	.LASF108
 1647 06a8 0F       		.byte	0xf
 1648 06a9 64       		.byte	0x64
 1649 06aa 15       		.byte	0x15
 1650 06ab E9000000 		.4byte	0xe9
 1651 06af 18       		.byte	0x18
 1652 06b0 01       		.uleb128 0x1
 1653 06b1 F1050000 		.4byte	.LASF109
 1654 06b5 0F       		.byte	0xf
 1655 06b6 65       		.byte	0x65
 1656 06b7 15       		.byte	0x15
 1657 06b8 E9000000 		.4byte	0xe9
 1658 06bc 1C       		.byte	0x1c
 1659 06bd 01       		.uleb128 0x1
 1660 06be 4A090000 		.4byte	.LASF110
 1661 06c2 0F       		.byte	0xf
 1662 06c3 67       		.byte	0x67
 1663 06c4 15       		.byte	0x15
 1664 06c5 E9000000 		.4byte	0xe9
 1665 06c9 20       		.byte	0x20
 1666 06ca 01       		.uleb128 0x1
 1667 06cb C5000000 		.4byte	.LASF111
 1668 06cf 0F       		.byte	0xf
 1669 06d0 69       		.byte	0x69
 1670 06d1 15       		.byte	0x15
 1671 06d2 E9000000 		.4byte	0xe9
 1672 06d6 24       		.byte	0x24
 1673 06d7 01       		.uleb128 0x1
 1674 06d8 8D020000 		.4byte	.LASF112
ARM GAS  C:\Users\DEVELO~1\AppData\Local\Temp\ccPZimPw.s 			page 31


 1675 06dc 0F       		.byte	0xf
 1676 06dd 6A       		.byte	0x6a
 1677 06de 15       		.byte	0x15
 1678 06df E9000000 		.4byte	0xe9
 1679 06e3 28       		.byte	0x28
 1680 06e4 01       		.uleb128 0x1
 1681 06e5 030B0000 		.4byte	.LASF113
 1682 06e9 0F       		.byte	0xf
 1683 06ea 6C       		.byte	0x6c
 1684 06eb 15       		.byte	0x15
 1685 06ec E9000000 		.4byte	0xe9
 1686 06f0 2C       		.byte	0x2c
 1687 06f1 01       		.uleb128 0x1
 1688 06f2 21070000 		.4byte	.LASF114
 1689 06f6 0F       		.byte	0xf
 1690 06f7 6E       		.byte	0x6e
 1691 06f8 15       		.byte	0x15
 1692 06f9 E9000000 		.4byte	0xe9
 1693 06fd 30       		.byte	0x30
 1694 06fe 01       		.uleb128 0x1
 1695 06ff 44070000 		.4byte	.LASF115
 1696 0703 0F       		.byte	0xf
 1697 0704 6F       		.byte	0x6f
 1698 0705 15       		.byte	0x15
 1699 0706 E9000000 		.4byte	0xe9
 1700 070a 34       		.byte	0x34
 1701 070b 01       		.uleb128 0x1
 1702 070c 990A0000 		.4byte	.LASF116
 1703 0710 0F       		.byte	0xf
 1704 0711 70       		.byte	0x70
 1705 0712 15       		.byte	0x15
 1706 0713 E9000000 		.4byte	0xe9
 1707 0717 38       		.byte	0x38
 1708 0718 17       		.uleb128 0x17
 1709 0719 43494400 		.ascii	"CID\000"
 1710 071d 0F       		.byte	0xf
 1711 071e 71       		.byte	0x71
 1712 071f 15       		.byte	0x15
 1713 0720 E9000000 		.4byte	0xe9
 1714 0724 3C       		.byte	0x3c
 1715 0725 01       		.uleb128 0x1
 1716 0726 3C0A0000 		.4byte	.LASF117
 1717 072a 0F       		.byte	0xf
 1718 072b 72       		.byte	0x72
 1719 072c 15       		.byte	0x15
 1720 072d 23090000 		.4byte	0x923
 1721 0731 40       		.byte	0x40
 1722 0732 03       		.uleb128 0x3
 1723 0733 F9050000 		.4byte	.LASF118
 1724 0737 73       		.byte	0x73
 1725 0738 E9000000 		.4byte	0xe9
 1726 073c 0001     		.2byte	0x100
 1727 073e 03       		.uleb128 0x3
 1728 073f D00A0000 		.4byte	.LASF119
 1729 0743 75       		.byte	0x75
 1730 0744 76010000 		.4byte	0x176
 1731 0748 0401     		.2byte	0x104
ARM GAS  C:\Users\DEVELO~1\AppData\Local\Temp\ccPZimPw.s 			page 32


 1732 074a 03       		.uleb128 0x3
 1733 074b C7080000 		.4byte	.LASF120
 1734 074f 77       		.byte	0x77
 1735 0750 38090000 		.4byte	0x938
 1736 0754 4001     		.2byte	0x140
 1737 0756 03       		.uleb128 0x3
 1738 0757 0F090000 		.4byte	.LASF121
 1739 075b 78       		.byte	0x78
 1740 075c E9000000 		.4byte	0xe9
 1741 0760 0004     		.2byte	0x400
 1742 0762 03       		.uleb128 0x3
 1743 0763 E1010000 		.4byte	.LASF122
 1744 0767 79       		.byte	0x79
 1745 0768 E9000000 		.4byte	0xe9
 1746 076c 0404     		.2byte	0x404
 1747 076e 03       		.uleb128 0x3
 1748 076f D1020000 		.4byte	.LASF123
 1749 0773 7A       		.byte	0x7a
 1750 0774 E9000000 		.4byte	0xe9
 1751 0778 0804     		.2byte	0x408
 1752 077a 03       		.uleb128 0x3
 1753 077b 70080000 		.4byte	.LASF124
 1754 077f 7C       		.byte	0x7c
 1755 0780 E9000000 		.4byte	0xe9
 1756 0784 0C04     		.2byte	0x40c
 1757 0786 03       		.uleb128 0x3
 1758 0787 47080000 		.4byte	.LASF125
 1759 078b 7D       		.byte	0x7d
 1760 078c E9000000 		.4byte	0xe9
 1761 0790 1004     		.2byte	0x410
 1762 0792 03       		.uleb128 0x3
 1763 0793 EE080000 		.4byte	.LASF126
 1764 0797 7F       		.byte	0x7f
 1765 0798 E9000000 		.4byte	0xe9
 1766 079c 1404     		.2byte	0x414
 1767 079e 03       		.uleb128 0x3
 1768 079f 4A010000 		.4byte	.LASF127
 1769 07a3 81       		.byte	0x81
 1770 07a4 E9000000 		.4byte	0xe9
 1771 07a8 1804     		.2byte	0x418
 1772 07aa 03       		.uleb128 0x3
 1773 07ab CB090000 		.4byte	.LASF128
 1774 07af 83       		.byte	0x83
 1775 07b0 4D090000 		.4byte	0x94d
 1776 07b4 1C04     		.2byte	0x41c
 1777 07b6 03       		.uleb128 0x3
 1778 07b7 48000000 		.4byte	.LASF129
 1779 07bb 84       		.byte	0x84
 1780 07bc E9000000 		.4byte	0xe9
 1781 07c0 4004     		.2byte	0x440
 1782 07c2 03       		.uleb128 0x3
 1783 07c3 BF020000 		.4byte	.LASF130
 1784 07c7 86       		.byte	0x86
 1785 07c8 62090000 		.4byte	0x962
 1786 07cc 4404     		.2byte	0x444
 1787 07ce 1A       		.uleb128 0x1a
 1788 07cf 686300   		.ascii	"hc\000"
ARM GAS  C:\Users\DEVELO~1\AppData\Local\Temp\ccPZimPw.s 			page 33


 1789 07d2 87       		.byte	0x87
 1790 07d3 18       		.byte	0x18
 1791 07d4 67090000 		.4byte	0x967
 1792 07d8 0005     		.2byte	0x500
 1793 07da 03       		.uleb128 0x3
 1794 07db 41010000 		.4byte	.LASF131
 1795 07df 88       		.byte	0x88
 1796 07e0 87090000 		.4byte	0x987
 1797 07e4 0007     		.2byte	0x700
 1798 07e6 03       		.uleb128 0x3
 1799 07e7 680A0000 		.4byte	.LASF132
 1800 07eb 89       		.byte	0x89
 1801 07ec E9000000 		.4byte	0xe9
 1802 07f0 0008     		.2byte	0x800
 1803 07f2 03       		.uleb128 0x3
 1804 07f3 B0000000 		.4byte	.LASF133
 1805 07f7 8A       		.byte	0x8a
 1806 07f8 E9000000 		.4byte	0xe9
 1807 07fc 0408     		.2byte	0x804
 1808 07fe 03       		.uleb128 0x3
 1809 07ff A7020000 		.4byte	.LASF134
 1810 0803 8B       		.byte	0x8b
 1811 0804 E9000000 		.4byte	0xe9
 1812 0808 0808     		.2byte	0x808
 1813 080a 03       		.uleb128 0x3
 1814 080b 2F0B0000 		.4byte	.LASF135
 1815 080f 8C       		.byte	0x8c
 1816 0810 E9000000 		.4byte	0xe9
 1817 0814 0C08     		.2byte	0x80c
 1818 0816 03       		.uleb128 0x3
 1819 0817 B4060000 		.4byte	.LASF136
 1820 081b 8D       		.byte	0x8d
 1821 081c E9000000 		.4byte	0xe9
 1822 0820 1008     		.2byte	0x810
 1823 0822 03       		.uleb128 0x3
 1824 0823 740A0000 		.4byte	.LASF137
 1825 0827 8F       		.byte	0x8f
 1826 0828 E9000000 		.4byte	0xe9
 1827 082c 1408     		.2byte	0x814
 1828 082e 03       		.uleb128 0x3
 1829 082f D1070000 		.4byte	.LASF138
 1830 0833 91       		.byte	0x91
 1831 0834 E9000000 		.4byte	0xe9
 1832 0838 1808     		.2byte	0x818
 1833 083a 03       		.uleb128 0x3
 1834 083b 6E000000 		.4byte	.LASF139
 1835 083f 93       		.byte	0x93
 1836 0840 E9000000 		.4byte	0xe9
 1837 0844 1C08     		.2byte	0x81c
 1838 0846 03       		.uleb128 0x3
 1839 0847 C8020000 		.4byte	.LASF140
 1840 084b 95       		.byte	0x95
 1841 084c E9000000 		.4byte	0xe9
 1842 0850 2008     		.2byte	0x820
 1843 0852 03       		.uleb128 0x3
 1844 0853 E4020000 		.4byte	.LASF141
 1845 0857 96       		.byte	0x96
ARM GAS  C:\Users\DEVELO~1\AppData\Local\Temp\ccPZimPw.s 			page 34


 1846 0858 E9000000 		.4byte	0xe9
 1847 085c 2408     		.2byte	0x824
 1848 085e 03       		.uleb128 0x3
 1849 085f BA090000 		.4byte	.LASF142
 1850 0863 97       		.byte	0x97
 1851 0864 E9000000 		.4byte	0xe9
 1852 0868 2808     		.2byte	0x828
 1853 086a 03       		.uleb128 0x3
 1854 086b 30080000 		.4byte	.LASF143
 1855 086f 99       		.byte	0x99
 1856 0870 E9000000 		.4byte	0xe9
 1857 0874 2C08     		.2byte	0x82c
 1858 0876 03       		.uleb128 0x3
 1859 0877 ED030000 		.4byte	.LASF144
 1860 087b 9B       		.byte	0x9b
 1861 087c E9000000 		.4byte	0xe9
 1862 0880 3008     		.2byte	0x830
 1863 0882 03       		.uleb128 0x3
 1864 0883 4D000000 		.4byte	.LASF145
 1865 0887 9C       		.byte	0x9c
 1866 0888 E9000000 		.4byte	0xe9
 1867 088c 3408     		.2byte	0x834
 1868 088e 03       		.uleb128 0x3
 1869 088f 76040000 		.4byte	.LASF146
 1870 0893 9E       		.byte	0x9e
 1871 0894 E9000000 		.4byte	0xe9
 1872 0898 3808     		.2byte	0x838
 1873 089a 03       		.uleb128 0x3
 1874 089b AE040000 		.4byte	.LASF147
 1875 089f 9F       		.byte	0x9f
 1876 08a0 E9000000 		.4byte	0xe9
 1877 08a4 3C08     		.2byte	0x83c
 1878 08a6 03       		.uleb128 0x3
 1879 08a7 E8050000 		.4byte	.LASF148
 1880 08ab A0       		.byte	0xa0
 1881 08ac 61010000 		.4byte	0x161
 1882 08b0 4008     		.2byte	0x840
 1883 08b2 03       		.uleb128 0x3
 1884 08b3 11000000 		.4byte	.LASF149
 1885 08b7 A1       		.byte	0xa1
 1886 08b8 61010000 		.4byte	0x161
 1887 08bc 8008     		.2byte	0x880
 1888 08be 03       		.uleb128 0x3
 1889 08bf 7E090000 		.4byte	.LASF150
 1890 08c3 A2       		.byte	0xa2
 1891 08c4 61010000 		.4byte	0x161
 1892 08c8 C008     		.2byte	0x8c0
 1893 08ca 1A       		.uleb128 0x1a
 1894 08cb 696500   		.ascii	"ie\000"
 1895 08ce A3       		.byte	0xa3
 1896 08cf 15       		.byte	0x15
 1897 08d0 8C090000 		.4byte	0x98c
 1898 08d4 0009     		.2byte	0x900
 1899 08d6 1A       		.uleb128 0x1a
 1900 08d7 6F6500   		.ascii	"oe\000"
 1901 08da A4       		.byte	0xa4
 1902 08db 16       		.byte	0x16
ARM GAS  C:\Users\DEVELO~1\AppData\Local\Temp\ccPZimPw.s 			page 35


 1903 08dc 9C090000 		.4byte	0x99c
 1904 08e0 000B     		.2byte	0xb00
 1905 08e2 03       		.uleb128 0x3
 1906 08e3 39090000 		.4byte	.LASF151
 1907 08e7 A5       		.byte	0xa5
 1908 08e8 87090000 		.4byte	0x987
 1909 08ec 000D     		.2byte	0xd00
 1910 08ee 03       		.uleb128 0x3
 1911 08ef E5030000 		.4byte	.LASF152
 1912 08f3 A6       		.byte	0xa6
 1913 08f4 E9000000 		.4byte	0xe9
 1914 08f8 000E     		.2byte	0xe00
 1915 08fa 03       		.uleb128 0x3
 1916 08fb 3B070000 		.4byte	.LASF153
 1917 08ff A8       		.byte	0xa8
 1918 0900 BC090000 		.4byte	0x9bc
 1919 0904 040E     		.2byte	0xe04
 1920 0906 03       		.uleb128 0x3
 1921 0907 04050000 		.4byte	.LASF154
 1922 090b A9       		.byte	0xa9
 1923 090c D8090000 		.4byte	0x9d8
 1924 0910 0010     		.2byte	0x1000
 1925 0912 00       		.byte	0
 1926 0913 04       		.uleb128 0x4
 1927 0914 E9000000 		.4byte	0xe9
 1928 0918 23090000 		.4byte	0x923
 1929 091c 05       		.uleb128 0x5
 1930 091d 3E000000 		.4byte	0x3e
 1931 0921 2F       		.byte	0x2f
 1932 0922 00       		.byte	0
 1933 0923 0E       		.uleb128 0xe
 1934 0924 13090000 		.4byte	0x913
 1935 0928 04       		.uleb128 0x4
 1936 0929 E9000000 		.4byte	0xe9
 1937 092d 38090000 		.4byte	0x938
 1938 0931 05       		.uleb128 0x5
 1939 0932 3E000000 		.4byte	0x3e
 1940 0936 AF       		.byte	0xaf
 1941 0937 00       		.byte	0
 1942 0938 0E       		.uleb128 0xe
 1943 0939 28090000 		.4byte	0x928
 1944 093d 04       		.uleb128 0x4
 1945 093e E9000000 		.4byte	0xe9
 1946 0942 4D090000 		.4byte	0x94d
 1947 0946 05       		.uleb128 0x5
 1948 0947 3E000000 		.4byte	0x3e
 1949 094b 08       		.byte	0x8
 1950 094c 00       		.byte	0
 1951 094d 0E       		.uleb128 0xe
 1952 094e 3D090000 		.4byte	0x93d
 1953 0952 04       		.uleb128 0x4
 1954 0953 E9000000 		.4byte	0xe9
 1955 0957 62090000 		.4byte	0x962
 1956 095b 05       		.uleb128 0x5
 1957 095c 3E000000 		.4byte	0x3e
 1958 0960 2E       		.byte	0x2e
 1959 0961 00       		.byte	0
ARM GAS  C:\Users\DEVELO~1\AppData\Local\Temp\ccPZimPw.s 			page 36


 1960 0962 0E       		.uleb128 0xe
 1961 0963 52090000 		.4byte	0x952
 1962 0967 04       		.uleb128 0x4
 1963 0968 43050000 		.4byte	0x543
 1964 096c 77090000 		.4byte	0x977
 1965 0970 05       		.uleb128 0x5
 1966 0971 3E000000 		.4byte	0x3e
 1967 0975 0F       		.byte	0xf
 1968 0976 00       		.byte	0
 1969 0977 04       		.uleb128 0x4
 1970 0978 E9000000 		.4byte	0xe9
 1971 097c 87090000 		.4byte	0x987
 1972 0980 05       		.uleb128 0x5
 1973 0981 3E000000 		.4byte	0x3e
 1974 0985 3F       		.byte	0x3f
 1975 0986 00       		.byte	0
 1976 0987 0E       		.uleb128 0xe
 1977 0988 77090000 		.4byte	0x977
 1978 098c 04       		.uleb128 0x4
 1979 098d C0050000 		.4byte	0x5c0
 1980 0991 9C090000 		.4byte	0x99c
 1981 0995 05       		.uleb128 0x5
 1982 0996 3E000000 		.4byte	0x3e
 1983 099a 0F       		.byte	0xf
 1984 099b 00       		.byte	0
 1985 099c 04       		.uleb128 0x4
 1986 099d 3D060000 		.4byte	0x63d
 1987 09a1 AC090000 		.4byte	0x9ac
 1988 09a5 05       		.uleb128 0x5
 1989 09a6 3E000000 		.4byte	0x3e
 1990 09aa 0F       		.byte	0xf
 1991 09ab 00       		.byte	0
 1992 09ac 04       		.uleb128 0x4
 1993 09ad E9000000 		.4byte	0xe9
 1994 09b1 BC090000 		.4byte	0x9bc
 1995 09b5 05       		.uleb128 0x5
 1996 09b6 3E000000 		.4byte	0x3e
 1997 09ba 7E       		.byte	0x7e
 1998 09bb 00       		.byte	0
 1999 09bc 0E       		.uleb128 0xe
 2000 09bd AC090000 		.4byte	0x9ac
 2001 09c1 04       		.uleb128 0x4
 2002 09c2 E9000000 		.4byte	0xe9
 2003 09c6 D8090000 		.4byte	0x9d8
 2004 09ca 05       		.uleb128 0x5
 2005 09cb 3E000000 		.4byte	0x3e
 2006 09cf 0F       		.byte	0xf
 2007 09d0 2A       		.uleb128 0x2a
 2008 09d1 3E000000 		.4byte	0x3e
 2009 09d5 FF03     		.2byte	0x3ff
 2010 09d7 00       		.byte	0
 2011 09d8 0E       		.uleb128 0xe
 2012 09d9 C1090000 		.4byte	0x9c1
 2013 09dd 08       		.uleb128 0x8
 2014 09de A0010000 		.4byte	.LASF155
 2015 09e2 0F       		.byte	0xf
 2016 09e3 AA       		.byte	0xaa
ARM GAS  C:\Users\DEVELO~1\AppData\Local\Temp\ccPZimPw.s 			page 37


 2017 09e4 03       		.byte	0x3
 2018 09e5 49060000 		.4byte	0x649
 2019 09e9 0F       		.uleb128 0xf
 2020 09ea 0C       		.byte	0xc
 2021 09eb 0E       		.byte	0xe
 2022 09ec 0401     		.2byte	0x104
 2023 09ee 1D0A0000 		.4byte	0xa1d
 2024 09f2 02       		.uleb128 0x2
 2025 09f3 E1070000 		.4byte	.LASF156
 2026 09f7 0E       		.byte	0xe
 2027 09f8 0501     		.2byte	0x105
 2028 09fa 21       		.byte	0x21
 2029 09fb DD000000 		.4byte	0xdd
 2030 09ff 00       		.byte	0
 2031 0a00 02       		.uleb128 0x2
 2032 0a01 86010000 		.4byte	.LASF157
 2033 0a05 0E       		.byte	0xe
 2034 0a06 0601     		.2byte	0x106
 2035 0a08 21       		.byte	0x21
 2036 0a09 DD000000 		.4byte	0xdd
 2037 0a0d 04       		.byte	0x4
 2038 0a0e 02       		.uleb128 0x2
 2039 0a0f 1A060000 		.4byte	.LASF158
 2040 0a13 0E       		.byte	0xe
 2041 0a14 0701     		.2byte	0x107
 2042 0a16 21       		.byte	0x21
 2043 0a17 DD000000 		.4byte	0xdd
 2044 0a1b 08       		.byte	0x8
 2045 0a1c 00       		.byte	0
 2046 0a1d 0A       		.uleb128 0xa
 2047 0a1e DF040000 		.4byte	.LASF159
 2048 0a22 0E       		.byte	0xe
 2049 0a23 0801     		.2byte	0x108
 2050 0a25 03       		.byte	0x3
 2051 0a26 E9090000 		.4byte	0x9e9
 2052 0a2a 0C       		.uleb128 0xc
 2053 0a2b 1D0A0000 		.4byte	0xa1d
 2054 0a2f 0F       		.uleb128 0xf
 2055 0a30 10       		.byte	0x10
 2056 0a31 0E       		.byte	0xe
 2057 0a32 0D01     		.2byte	0x10d
 2058 0a34 710A0000 		.4byte	0xa71
 2059 0a38 02       		.uleb128 0x2
 2060 0a39 02060000 		.4byte	.LASF160
 2061 0a3d 0E       		.byte	0xe
 2062 0a3e 1101     		.2byte	0x111
 2063 0a40 21       		.byte	0x21
 2064 0a41 2D000000 		.4byte	0x2d
 2065 0a45 00       		.byte	0
 2066 0a46 02       		.uleb128 0x2
 2067 0a47 DC090000 		.4byte	.LASF161
 2068 0a4b 0E       		.byte	0xe
 2069 0a4c 1501     		.2byte	0x115
 2070 0a4e 21       		.byte	0x21
 2071 0a4f 2D000000 		.4byte	0x2d
 2072 0a53 04       		.byte	0x4
 2073 0a54 02       		.uleb128 0x2
ARM GAS  C:\Users\DEVELO~1\AppData\Local\Temp\ccPZimPw.s 			page 38


 2074 0a55 C8030000 		.4byte	.LASF162
 2075 0a59 0E       		.byte	0xe
 2076 0a5a 1901     		.2byte	0x119
 2077 0a5c 22       		.byte	0x22
 2078 0a5d E7010000 		.4byte	0x1e7
 2079 0a61 08       		.byte	0x8
 2080 0a62 02       		.uleb128 0x2
 2081 0a63 24030000 		.4byte	.LASF163
 2082 0a67 0E       		.byte	0xe
 2083 0a68 2401     		.2byte	0x124
 2084 0a6a 21       		.byte	0x21
 2085 0a6b 2D000000 		.4byte	0x2d
 2086 0a6f 0C       		.byte	0xc
 2087 0a70 00       		.byte	0
 2088 0a71 0A       		.uleb128 0xa
 2089 0a72 440A0000 		.4byte	.LASF164
 2090 0a76 0E       		.byte	0xe
 2091 0a77 2501     		.2byte	0x125
 2092 0a79 03       		.byte	0x3
 2093 0a7a 2F0A0000 		.4byte	0xa2f
 2094 0a7e 0F       		.uleb128 0xf
 2095 0a7f 10       		.byte	0x10
 2096 0a80 0E       		.byte	0xe
 2097 0a81 2A01     		.2byte	0x12a
 2098 0a83 C00A0000 		.4byte	0xac0
 2099 0a87 02       		.uleb128 0x2
 2100 0a88 6D0A0000 		.4byte	.LASF165
 2101 0a8c 0E       		.byte	0xe
 2102 0a8d 2E01     		.2byte	0x12e
 2103 0a8f 21       		.byte	0x21
 2104 0a90 2D000000 		.4byte	0x2d
 2105 0a94 00       		.byte	0
 2106 0a95 02       		.uleb128 0x2
 2107 0a96 00000000 		.4byte	.LASF166
 2108 0a9a 0E       		.byte	0xe
 2109 0a9b 3201     		.2byte	0x132
 2110 0a9d 21       		.byte	0x21
 2111 0a9e 2D000000 		.4byte	0x2d
 2112 0aa2 04       		.byte	0x4
 2113 0aa3 02       		.uleb128 0x2
 2114 0aa4 B5000000 		.4byte	.LASF167
 2115 0aa8 0E       		.byte	0xe
 2116 0aa9 3601     		.2byte	0x136
 2117 0aab 22       		.byte	0x22
 2118 0aac E2010000 		.4byte	0x1e2
 2119 0ab0 08       		.byte	0x8
 2120 0ab1 02       		.uleb128 0x2
 2121 0ab2 24030000 		.4byte	.LASF163
 2122 0ab6 0E       		.byte	0xe
 2123 0ab7 4101     		.2byte	0x141
 2124 0ab9 21       		.byte	0x21
 2125 0aba 2D000000 		.4byte	0x2d
 2126 0abe 0C       		.byte	0xc
 2127 0abf 00       		.byte	0
 2128 0ac0 0A       		.uleb128 0xa
 2129 0ac1 78060000 		.4byte	.LASF168
 2130 0ac5 0E       		.byte	0xe
ARM GAS  C:\Users\DEVELO~1\AppData\Local\Temp\ccPZimPw.s 			page 39


 2131 0ac6 4201     		.2byte	0x142
 2132 0ac8 03       		.byte	0x3
 2133 0ac9 7E0A0000 		.4byte	0xa7e
 2134 0acd 0F       		.uleb128 0xf
 2135 0ace 24       		.byte	0x24
 2136 0acf 0E       		.byte	0xe
 2137 0ad0 4801     		.2byte	0x148
 2138 0ad2 630B0000 		.4byte	0xb63
 2139 0ad6 02       		.uleb128 0x2
 2140 0ad7 C3090000 		.4byte	.LASF169
 2141 0adb 0E       		.byte	0xe
 2142 0adc 4C01     		.2byte	0x14c
 2143 0ade 21       		.byte	0x21
 2144 0adf DD000000 		.4byte	0xdd
 2145 0ae3 00       		.byte	0
 2146 0ae4 02       		.uleb128 0x2
 2147 0ae5 E3060000 		.4byte	.LASF170
 2148 0ae9 0E       		.byte	0xe
 2149 0aea 5701     		.2byte	0x157
 2150 0aec 21       		.byte	0x21
 2151 0aed 38040000 		.4byte	0x438
 2152 0af1 04       		.byte	0x4
 2153 0af2 02       		.uleb128 0x2
 2154 0af3 92040000 		.4byte	.LASF171
 2155 0af7 0E       		.byte	0xe
 2156 0af8 5C01     		.2byte	0x15c
 2157 0afa 21       		.byte	0x21
 2158 0afb 38040000 		.4byte	0x438
 2159 0aff 08       		.byte	0x8
 2160 0b00 02       		.uleb128 0x2
 2161 0b01 2D000000 		.4byte	.LASF172
 2162 0b05 0E       		.byte	0xe
 2163 0b06 6101     		.2byte	0x161
 2164 0b08 21       		.byte	0x21
 2165 0b09 38040000 		.4byte	0x438
 2166 0b0d 0C       		.byte	0xc
 2167 0b0e 02       		.uleb128 0x2
 2168 0b0f 16070000 		.4byte	.LASF173
 2169 0b13 0E       		.byte	0xe
 2170 0b14 6601     		.2byte	0x166
 2171 0b16 21       		.byte	0x21
 2172 0b17 C5000000 		.4byte	0xc5
 2173 0b1b 10       		.byte	0x10
 2174 0b1c 02       		.uleb128 0x2
 2175 0b1d 190A0000 		.4byte	.LASF174
 2176 0b21 0E       		.byte	0xe
 2177 0b22 6B01     		.2byte	0x16b
 2178 0b24 21       		.byte	0x21
 2179 0b25 C5000000 		.4byte	0xc5
 2180 0b29 12       		.byte	0x12
 2181 0b2a 02       		.uleb128 0x2
 2182 0b2b 5B080000 		.4byte	.LASF175
 2183 0b2f 0E       		.byte	0xe
 2184 0b30 7101     		.2byte	0x171
 2185 0b32 22       		.byte	0x22
 2186 0b33 630B0000 		.4byte	0xb63
 2187 0b37 14       		.byte	0x14
ARM GAS  C:\Users\DEVELO~1\AppData\Local\Temp\ccPZimPw.s 			page 40


 2188 0b38 02       		.uleb128 0x2
 2189 0b39 54060000 		.4byte	.LASF176
 2190 0b3d 0E       		.byte	0xe
 2191 0b3e 7701     		.2byte	0x177
 2192 0b40 22       		.byte	0x22
 2193 0b41 680B0000 		.4byte	0xb68
 2194 0b45 18       		.byte	0x18
 2195 0b46 02       		.uleb128 0x2
 2196 0b47 1A0B0000 		.4byte	.LASF177
 2197 0b4b 0E       		.byte	0xe
 2198 0b4c 7E01     		.2byte	0x17e
 2199 0b4e 21       		.byte	0x21
 2200 0b4f C5000000 		.4byte	0xc5
 2201 0b53 1C       		.byte	0x1c
 2202 0b54 02       		.uleb128 0x2
 2203 0b55 5E060000 		.4byte	.LASF178
 2204 0b59 0E       		.byte	0xe
 2205 0b5a 8401     		.2byte	0x184
 2206 0b5c 22       		.byte	0x22
 2207 0b5d E2010000 		.4byte	0x1e2
 2208 0b61 20       		.byte	0x20
 2209 0b62 00       		.byte	0
 2210 0b63 09       		.uleb128 0x9
 2211 0b64 710A0000 		.4byte	0xa71
 2212 0b68 09       		.uleb128 0x9
 2213 0b69 C00A0000 		.4byte	0xac0
 2214 0b6d 0A       		.uleb128 0xa
 2215 0b6e C3060000 		.4byte	.LASF179
 2216 0b72 0E       		.byte	0xe
 2217 0b73 8501     		.2byte	0x185
 2218 0b75 03       		.byte	0x3
 2219 0b76 CD0A0000 		.4byte	0xacd
 2220 0b7a 0C       		.uleb128 0xc
 2221 0b7b 6D0B0000 		.4byte	0xb6d
 2222 0b7f 0F       		.uleb128 0xf
 2223 0b80 10       		.byte	0x10
 2224 0b81 0E       		.byte	0xe
 2225 0b82 8A01     		.2byte	0x18a
 2226 0b84 C10B0000 		.4byte	0xbc1
 2227 0b88 02       		.uleb128 0x2
 2228 0b89 C5040000 		.4byte	.LASF180
 2229 0b8d 0E       		.byte	0xe
 2230 0b8e 8F01     		.2byte	0x18f
 2231 0b90 21       		.byte	0x21
 2232 0b91 5A040000 		.4byte	0x45a
 2233 0b95 00       		.byte	0
 2234 0b96 02       		.uleb128 0x2
 2235 0b97 FF070000 		.4byte	.LASF181
 2236 0b9b 0E       		.byte	0xe
 2237 0b9c 9401     		.2byte	0x194
 2238 0b9e 21       		.byte	0x21
 2239 0b9f 9D040000 		.4byte	0x49d
 2240 0ba3 04       		.byte	0x4
 2241 0ba4 02       		.uleb128 0x2
 2242 0ba5 98050000 		.4byte	.LASF182
 2243 0ba9 0E       		.byte	0xe
 2244 0baa 9A01     		.2byte	0x19a
ARM GAS  C:\Users\DEVELO~1\AppData\Local\Temp\ccPZimPw.s 			page 41


 2245 0bac 21       		.byte	0x21
 2246 0bad 7C040000 		.4byte	0x47c
 2247 0bb1 08       		.byte	0x8
 2248 0bb2 02       		.uleb128 0x2
 2249 0bb3 BC060000 		.4byte	.LASF183
 2250 0bb7 0E       		.byte	0xe
 2251 0bb8 9E01     		.2byte	0x19e
 2252 0bba 21       		.byte	0x21
 2253 0bbb 16040000 		.4byte	0x416
 2254 0bbf 0C       		.byte	0xc
 2255 0bc0 00       		.byte	0
 2256 0bc1 0A       		.uleb128 0xa
 2257 0bc2 A6080000 		.4byte	.LASF184
 2258 0bc6 0E       		.byte	0xe
 2259 0bc7 A001     		.2byte	0x1a0
 2260 0bc9 03       		.byte	0x3
 2261 0bca 7F0B0000 		.4byte	0xb7f
 2262 0bce 0C       		.uleb128 0xc
 2263 0bcf C10B0000 		.4byte	0xbc1
 2264 0bd3 09       		.uleb128 0x9
 2265 0bd4 CE0B0000 		.4byte	0xbce
 2266 0bd8 04       		.uleb128 0x4
 2267 0bd9 E80B0000 		.4byte	0xbe8
 2268 0bdd E80B0000 		.4byte	0xbe8
 2269 0be1 05       		.uleb128 0x5
 2270 0be2 3E000000 		.4byte	0x3e
 2271 0be6 08       		.byte	0x8
 2272 0be7 00       		.byte	0
 2273 0be8 09       		.uleb128 0x9
 2274 0be9 7A0B0000 		.4byte	0xb7a
 2275 0bed 04       		.uleb128 0x4
 2276 0bee 3A010000 		.4byte	0x13a
 2277 0bf2 FD0B0000 		.4byte	0xbfd
 2278 0bf6 05       		.uleb128 0x5
 2279 0bf7 3E000000 		.4byte	0x3e
 2280 0bfb 07       		.byte	0x7
 2281 0bfc 00       		.byte	0
 2282 0bfd 04       		.uleb128 0x4
 2283 0bfe B4000000 		.4byte	0xb4
 2284 0c02 0D0C0000 		.4byte	0xc0d
 2285 0c06 05       		.uleb128 0x5
 2286 0c07 3E000000 		.4byte	0x3e
 2287 0c0b 07       		.byte	0x7
 2288 0c0c 00       		.byte	0
 2289 0c0d 09       		.uleb128 0x9
 2290 0c0e DD090000 		.4byte	0x9dd
 2291 0c12 09       		.uleb128 0x9
 2292 0c13 2A0A0000 		.4byte	0xa2a
 2293 0c17 12       		.uleb128 0x12
 2294 0c18 11080000 		.4byte	.LASF185
 2295 0c1c 10       		.byte	0x10
 2296 0c1d 43       		.byte	0x43
 2297 0c1e 16       		.byte	0x16
 2298 0c1f DD010000 		.4byte	0x1dd
 2299 0c23 12       		.uleb128 0x12
 2300 0c24 E7080000 		.4byte	.LASF186
 2301 0c28 10       		.byte	0x10
ARM GAS  C:\Users\DEVELO~1\AppData\Local\Temp\ccPZimPw.s 			page 42


 2302 0c29 56       		.byte	0x56
 2303 0c2a 18       		.byte	0x18
 2304 0c2b CE0B0000 		.4byte	0xbce
 2305 0c2f 13       		.uleb128 0x13
 2306 0c30 10       		.byte	0x10
 2307 0c31 11       		.byte	0x11
 2308 0c32 5D       		.byte	0x5d
 2309 0c33 6C0C0000 		.4byte	0xc6c
 2310 0c37 01       		.uleb128 0x1
 2311 0c38 7D020000 		.4byte	.LASF187
 2312 0c3c 11       		.byte	0x11
 2313 0c3d 5E       		.byte	0x5e
 2314 0c3e 15       		.byte	0x15
 2315 0c3f E9000000 		.4byte	0xe9
 2316 0c43 00       		.byte	0
 2317 0c44 01       		.uleb128 0x1
 2318 0c45 93010000 		.4byte	.LASF188
 2319 0c49 11       		.byte	0x11
 2320 0c4a 5F       		.byte	0x5f
 2321 0c4b 15       		.byte	0x15
 2322 0c4c E9000000 		.4byte	0xe9
 2323 0c50 04       		.byte	0x4
 2324 0c51 01       		.uleb128 0x1
 2325 0c52 07030000 		.4byte	.LASF189
 2326 0c56 11       		.byte	0x11
 2327 0c57 60       		.byte	0x60
 2328 0c58 15       		.byte	0x15
 2329 0c59 E9000000 		.4byte	0xe9
 2330 0c5d 08       		.byte	0x8
 2331 0c5e 01       		.uleb128 0x1
 2332 0c5f 99030000 		.4byte	.LASF190
 2333 0c63 11       		.byte	0x11
 2334 0c64 61       		.byte	0x61
 2335 0c65 15       		.byte	0x15
 2336 0c66 E9000000 		.4byte	0xe9
 2337 0c6a 0C       		.byte	0xc
 2338 0c6b 00       		.byte	0
 2339 0c6c 08       		.uleb128 0x8
 2340 0c6d 29090000 		.4byte	.LASF191
 2341 0c71 11       		.byte	0x11
 2342 0c72 62       		.byte	0x62
 2343 0c73 03       		.byte	0x3
 2344 0c74 2F0C0000 		.4byte	0xc2f
 2345 0c78 12       		.uleb128 0x12
 2346 0c79 6A010000 		.4byte	.LASF192
 2347 0c7d 11       		.byte	0x11
 2348 0c7e 65       		.byte	0x65
 2349 0c7f 18       		.byte	0x18
 2350 0c80 6C0C0000 		.4byte	0xc6c
 2351 0c84 2B       		.uleb128 0x2b
 2352 0c85 170C0000 		.4byte	0xc17
 2353 0c89 06       		.byte	0x6
 2354 0c8a 34       		.byte	0x34
 2355 0c8b 0F       		.byte	0xf
 2356 0c8c 05       		.uleb128 0x5
 2357 0c8d 03       		.byte	0x3
 2358 0c8e 00000000 		.4byte	usb_midi_tx_ready
ARM GAS  C:\Users\DEVELO~1\AppData\Local\Temp\ccPZimPw.s 			page 43


 2359 0c92 04       		.uleb128 0x4
 2360 0c93 C0000000 		.4byte	0xc0
 2361 0c97 A20C0000 		.4byte	0xca2
 2362 0c9b 05       		.uleb128 0x5
 2363 0c9c 3E000000 		.4byte	0x3e
 2364 0ca0 11       		.byte	0x11
 2365 0ca1 00       		.byte	0
 2366 0ca2 0C       		.uleb128 0xc
 2367 0ca3 920C0000 		.4byte	0xc92
 2368 0ca7 0B       		.uleb128 0xb
 2369 0ca8 380B0000 		.4byte	.LASF193
 2370 0cac 4B       		.byte	0x4b
 2371 0cad 16       		.byte	0x16
 2372 0cae A20C0000 		.4byte	0xca2
 2373 0cb2 05       		.uleb128 0x5
 2374 0cb3 03       		.byte	0x3
 2375 0cb4 00000000 		.4byte	device_descriptor_data
 2376 0cb8 0B       		.uleb128 0xb
 2377 0cb9 D0080000 		.4byte	.LASF194
 2378 0cbd 5A       		.byte	0x5a
 2379 0cbe 1C       		.byte	0x1c
 2380 0cbf 11040000 		.4byte	0x411
 2381 0cc3 05       		.uleb128 0x5
 2382 0cc4 03       		.byte	0x3
 2383 0cc5 00000000 		.4byte	device_descriptor
 2384 0cc9 04       		.uleb128 0x4
 2385 0cca C0000000 		.4byte	0xc0
 2386 0cce D90C0000 		.4byte	0xcd9
 2387 0cd2 05       		.uleb128 0x5
 2388 0cd3 3E000000 		.4byte	0x3e
 2389 0cd7 51       		.byte	0x51
 2390 0cd8 00       		.byte	0
 2391 0cd9 0C       		.uleb128 0xc
 2392 0cda C90C0000 		.4byte	0xcc9
 2393 0cde 0B       		.uleb128 0xb
 2394 0cdf B0080000 		.4byte	.LASF195
 2395 0ce3 64       		.byte	0x64
 2396 0ce4 16       		.byte	0x16
 2397 0ce5 D90C0000 		.4byte	0xcd9
 2398 0ce9 05       		.uleb128 0x5
 2399 0cea 03       		.byte	0x3
 2400 0ceb 00000000 		.4byte	config_descriptor_data
 2401 0cef 0B       		.uleb128 0xb
 2402 0cf0 F2040000 		.4byte	.LASF196
 2403 0cf4 87       		.byte	0x87
 2404 0cf5 1C       		.byte	0x1c
 2405 0cf6 11040000 		.4byte	0x411
 2406 0cfa 05       		.uleb128 0x5
 2407 0cfb 03       		.byte	0x3
 2408 0cfc 00000000 		.4byte	config_descriptor
 2409 0d00 04       		.uleb128 0x4
 2410 0d01 C0000000 		.4byte	0xc0
 2411 0d05 100D0000 		.4byte	0xd10
 2412 0d09 05       		.uleb128 0x5
 2413 0d0a 3E000000 		.4byte	0x3e
 2414 0d0e 03       		.byte	0x3
 2415 0d0f 00       		.byte	0
ARM GAS  C:\Users\DEVELO~1\AppData\Local\Temp\ccPZimPw.s 			page 44


 2416 0d10 0C       		.uleb128 0xc
 2417 0d11 000D0000 		.4byte	0xd00
 2418 0d15 0B       		.uleb128 0xb
 2419 0d16 BF0A0000 		.4byte	.LASF197
 2420 0d1a 91       		.byte	0x91
 2421 0d1b 16       		.byte	0x16
 2422 0d1c 100D0000 		.4byte	0xd10
 2423 0d20 05       		.uleb128 0x5
 2424 0d21 03       		.byte	0x3
 2425 0d22 00000000 		.4byte	string0
 2426 0d26 0B       		.uleb128 0xb
 2427 0d27 70030000 		.4byte	.LASF198
 2428 0d2b 92       		.byte	0x92
 2429 0d2c 16       		.byte	0x16
 2430 0d2d 4C010000 		.4byte	0x14c
 2431 0d31 05       		.uleb128 0x5
 2432 0d32 03       		.byte	0x3
 2433 0d33 00000000 		.4byte	string1
 2434 0d37 04       		.uleb128 0x4
 2435 0d38 C0000000 		.4byte	0xc0
 2436 0d3c 470D0000 		.4byte	0xd47
 2437 0d40 05       		.uleb128 0x5
 2438 0d41 3E000000 		.4byte	0x3e
 2439 0d45 0B       		.byte	0xb
 2440 0d46 00       		.byte	0
 2441 0d47 0C       		.uleb128 0xc
 2442 0d48 370D0000 		.4byte	0xd37
 2443 0d4c 0B       		.uleb128 0xb
 2444 0d4d 78030000 		.4byte	.LASF199
 2445 0d51 96       		.byte	0x96
 2446 0d52 16       		.byte	0x16
 2447 0d53 470D0000 		.4byte	0xd47
 2448 0d57 05       		.uleb128 0x5
 2449 0d58 03       		.byte	0x3
 2450 0d59 00000000 		.4byte	string2
 2451 0d5d 04       		.uleb128 0x4
 2452 0d5e C0000000 		.4byte	0xc0
 2453 0d62 6D0D0000 		.4byte	0xd6d
 2454 0d66 05       		.uleb128 0x5
 2455 0d67 3E000000 		.4byte	0x3e
 2456 0d6b 09       		.byte	0x9
 2457 0d6c 00       		.byte	0
 2458 0d6d 0C       		.uleb128 0xc
 2459 0d6e 5D0D0000 		.4byte	0xd5d
 2460 0d72 0B       		.uleb128 0xb
 2461 0d73 80030000 		.4byte	.LASF200
 2462 0d77 9B       		.byte	0x9b
 2463 0d78 16       		.byte	0x16
 2464 0d79 6D0D0000 		.4byte	0xd6d
 2465 0d7d 05       		.uleb128 0x5
 2466 0d7e 03       		.byte	0x3
 2467 0d7f 00000000 		.4byte	string3
 2468 0d83 04       		.uleb128 0x4
 2469 0d84 11040000 		.4byte	0x411
 2470 0d88 930D0000 		.4byte	0xd93
 2471 0d8c 05       		.uleb128 0x5
 2472 0d8d 3E000000 		.4byte	0x3e
ARM GAS  C:\Users\DEVELO~1\AppData\Local\Temp\ccPZimPw.s 			page 45


 2473 0d91 03       		.byte	0x3
 2474 0d92 00       		.byte	0
 2475 0d93 0C       		.uleb128 0xc
 2476 0d94 830D0000 		.4byte	0xd83
 2477 0d98 0B       		.uleb128 0xb
 2478 0d99 5B050000 		.4byte	.LASF201
 2479 0d9d A0       		.byte	0xa0
 2480 0d9e 1C       		.byte	0x1c
 2481 0d9f 930D0000 		.4byte	0xd93
 2482 0da3 05       		.uleb128 0x5
 2483 0da4 03       		.byte	0x3
 2484 0da5 00000000 		.4byte	strings
 2485 0da9 0B       		.uleb128 0xb
 2486 0daa E9000000 		.4byte	.LASF202
 2487 0dae AB       		.byte	0xab
 2488 0daf 1D       		.byte	0x1d
 2489 0db0 710A0000 		.4byte	0xa71
 2490 0db4 05       		.uleb128 0x5
 2491 0db5 03       		.byte	0x3
 2492 0db6 00000000 		.4byte	ep2_in_state
 2493 0dba 0B       		.uleb128 0xb
 2494 0dbb 60000000 		.4byte	.LASF203
 2495 0dbf AC       		.byte	0xac
 2496 0dc0 1D       		.byte	0x1d
 2497 0dc1 C00A0000 		.4byte	0xac0
 2498 0dc5 05       		.uleb128 0x5
 2499 0dc6 03       		.byte	0x3
 2500 0dc7 00000000 		.4byte	ep1_out_state
 2501 0dcb 04       		.uleb128 0x4
 2502 0dcc B4000000 		.4byte	0xb4
 2503 0dd0 DB0D0000 		.4byte	0xddb
 2504 0dd4 05       		.uleb128 0x5
 2505 0dd5 3E000000 		.4byte	0x3e
 2506 0dd9 3F       		.byte	0x3f
 2507 0dda 00       		.byte	0
 2508 0ddb 2C       		.uleb128 0x2c
 2509 0ddc 610A0000 		.4byte	.LASF204
 2510 0de0 06       		.byte	0x6
 2511 0de1 B2       		.byte	0xb2
 2512 0de2 10       		.byte	0x10
 2513 0de3 CB0D0000 		.4byte	0xdcb
 2514 0de7 20       		.byte	0x20
 2515 0de8 05       		.uleb128 0x5
 2516 0de9 03       		.byte	0x3
 2517 0dea 00000000 		.4byte	rx_pkt
 2518 0dee 0B       		.uleb128 0xb
 2519 0def CF050000 		.4byte	.LASF205
 2520 0df3 B3       		.byte	0xb3
 2521 0df4 1A       		.byte	0x1a
 2522 0df5 E9000000 		.4byte	0xe9
 2523 0df9 05       		.uleb128 0x5
 2524 0dfa 03       		.byte	0x3
 2525 0dfb 00000000 		.4byte	usb_midi_rx_invalid_size
 2526 0dff 12       		.uleb128 0x12
 2527 0e00 09060000 		.4byte	.LASF206
 2528 0e04 06       		.byte	0x6
 2529 0e05 D3       		.byte	0xd3
ARM GAS  C:\Users\DEVELO~1\AppData\Local\Temp\ccPZimPw.s 			page 46


 2530 0e06 1B       		.byte	0x1b
 2531 0e07 CA010000 		.4byte	0x1ca
 2532 0e0b 12       		.uleb128 0x12
 2533 0e0c 0E070000 		.4byte	.LASF207
 2534 0e10 06       		.byte	0x6
 2535 0e11 D4       		.byte	0xd4
 2536 0e12 1B       		.byte	0x1b
 2537 0e13 CA010000 		.4byte	0x1ca
 2538 0e17 0B       		.uleb128 0xb
 2539 0e18 64080000 		.4byte	.LASF208
 2540 0e1c DB       		.byte	0xdb
 2541 0e1d 20       		.byte	0x20
 2542 0e1e 7A0B0000 		.4byte	0xb7a
 2543 0e22 05       		.uleb128 0x5
 2544 0e23 03       		.byte	0x3
 2545 0e24 00000000 		.4byte	ep1_out_cfg
 2546 0e28 0B       		.uleb128 0xb
 2547 0e29 7F050000 		.4byte	.LASF209
 2548 0e2d E9       		.byte	0xe9
 2549 0e2e 20       		.byte	0x20
 2550 0e2f 7A0B0000 		.4byte	0xb7a
 2551 0e33 05       		.uleb128 0x5
 2552 0e34 03       		.byte	0x3
 2553 0e35 00000000 		.4byte	ep2_in_cfg
 2554 0e39 2D       		.uleb128 0x2d
 2555 0e3a 230C0000 		.4byte	0xc23
 2556 0e3e 06       		.byte	0x6
 2557 0e3f 3F01     		.2byte	0x13f
 2558 0e41 11       		.byte	0x11
 2559 0e42 05       		.uleb128 0x5
 2560 0e43 03       		.byte	0x3
 2561 0e44 00000000 		.4byte	usbcfg
 2562 0e48 1F       		.uleb128 0x1f
 2563 0e49 EE070000 		.4byte	.LASF210
 2564 0e4d 6102     		.2byte	0x261
 2565 0e4f 630E0000 		.4byte	0xe63
 2566 0e53 07       		.uleb128 0x7
 2567 0e54 33040000 		.4byte	0x433
 2568 0e58 07       		.uleb128 0x7
 2569 0e59 0E030000 		.4byte	0x30e
 2570 0e5d 07       		.uleb128 0x7
 2571 0e5e E80B0000 		.4byte	0xbe8
 2572 0e62 00       		.byte	0
 2573 0e63 20       		.uleb128 0x20
 2574 0e64 34000000 		.4byte	.LASF211
 2575 0e68 0C       		.byte	0xc
 2576 0e69 63       		.byte	0x63
 2577 0e6a 08       		.byte	0x8
 2578 0e6b 750E0000 		.4byte	0xe75
 2579 0e6f 07       		.uleb128 0x7
 2580 0e70 750E0000 		.4byte	0xe75
 2581 0e74 00       		.byte	0
 2582 0e75 09       		.uleb128 0x9
 2583 0e76 A3010000 		.4byte	0x1a3
 2584 0e7a 20       		.uleb128 0x20
 2585 0e7b 28060000 		.4byte	.LASF212
 2586 0e7f 11       		.byte	0x11
ARM GAS  C:\Users\DEVELO~1\AppData\Local\Temp\ccPZimPw.s 			page 47


 2587 0e80 F9       		.byte	0xf9
 2588 0e81 06       		.byte	0x6
 2589 0e82 910E0000 		.4byte	0xe91
 2590 0e86 07       		.uleb128 0x7
 2591 0e87 E7010000 		.4byte	0x1e7
 2592 0e8b 07       		.uleb128 0x7
 2593 0e8c 2D000000 		.4byte	0x2d
 2594 0e90 00       		.byte	0
 2595 0e91 1F       		.uleb128 0x1f
 2596 0e92 F6030000 		.4byte	.LASF213
 2597 0e96 6502     		.2byte	0x265
 2598 0e98 B10E0000 		.4byte	0xeb1
 2599 0e9c 07       		.uleb128 0x7
 2600 0e9d 33040000 		.4byte	0x433
 2601 0ea1 07       		.uleb128 0x7
 2602 0ea2 0E030000 		.4byte	0x30e
 2603 0ea6 07       		.uleb128 0x7
 2604 0ea7 E2010000 		.4byte	0x1e2
 2605 0eab 07       		.uleb128 0x7
 2606 0eac 2D000000 		.4byte	0x2d
 2607 0eb0 00       		.byte	0
 2608 0eb1 1B       		.uleb128 0x1b
 2609 0eb2 EB090000 		.4byte	.LASF214
 2610 0eb6 06       		.byte	0x6
 2611 0eb7 3101     		.2byte	0x131
 2612 0eb9 0D       		.byte	0xd
 2613 0eba 00000000 		.4byte	.LFB437
 2614 0ebe 1C000000 		.4byte	.LFE437-.LFB437
 2615 0ec2 01       		.uleb128 0x1
 2616 0ec3 9C       		.byte	0x9c
 2617 0ec4 D80E0000 		.4byte	0xed8
 2618 0ec8 14       		.uleb128 0x14
 2619 0ec9 A2090000 		.4byte	.LASF216
 2620 0ecd 3101     		.2byte	0x131
 2621 0ecf 24       		.byte	0x24
 2622 0ed0 33040000 		.4byte	0x433
 2623 0ed4 02       		.uleb128 0x2
 2624 0ed5 91       		.byte	0x91
 2625 0ed6 74       		.sleb128 -12
 2626 0ed7 00       		.byte	0
 2627 0ed8 1B       		.uleb128 0x1b
 2628 0ed9 B8070000 		.4byte	.LASF215
 2629 0edd 06       		.byte	0x6
 2630 0ede 1401     		.2byte	0x114
 2631 0ee0 0D       		.byte	0xd
 2632 0ee1 00000000 		.4byte	.LFB436
 2633 0ee5 8C000000 		.4byte	.LFE436-.LFB436
 2634 0ee9 01       		.uleb128 0x1
 2635 0eea 9C       		.byte	0x9c
 2636 0eeb 0E0F0000 		.4byte	0xf0e
 2637 0eef 14       		.uleb128 0x14
 2638 0ef0 A2090000 		.4byte	.LASF216
 2639 0ef4 1401     		.2byte	0x114
 2640 0ef6 22       		.byte	0x22
 2641 0ef7 33040000 		.4byte	0x433
 2642 0efb 02       		.uleb128 0x2
 2643 0efc 91       		.byte	0x91
ARM GAS  C:\Users\DEVELO~1\AppData\Local\Temp\ccPZimPw.s 			page 48


 2644 0efd 74       		.sleb128 -12
 2645 0efe 14       		.uleb128 0x14
 2646 0eff A0040000 		.4byte	.LASF217
 2647 0f03 1401     		.2byte	0x114
 2648 0f05 33       		.byte	0x33
 2649 0f06 D1030000 		.4byte	0x3d1
 2650 0f0a 02       		.uleb128 0x2
 2651 0f0b 91       		.byte	0x91
 2652 0f0c 73       		.sleb128 -13
 2653 0f0d 00       		.byte	0
 2654 0f0e 2E       		.uleb128 0x2e
 2655 0f0f 7C0A0000 		.4byte	.LASF238
 2656 0f13 06       		.byte	0x6
 2657 0f14 FD       		.byte	0xfd
 2658 0f15 1D       		.byte	0x1d
 2659 0f16 CD040000 		.4byte	0x4cd
 2660 0f1a 00000000 		.4byte	.LFB435
 2661 0f1e 64000000 		.4byte	.LFE435-.LFB435
 2662 0f22 01       		.uleb128 0x1
 2663 0f23 9C       		.byte	0x9c
 2664 0f24 620F0000 		.4byte	0xf62
 2665 0f28 10       		.uleb128 0x10
 2666 0f29 A2090000 		.4byte	.LASF216
 2667 0f2d FD       		.byte	0xfd
 2668 0f2e 37       		.byte	0x37
 2669 0f2f 33040000 		.4byte	0x433
 2670 0f33 02       		.uleb128 0x2
 2671 0f34 91       		.byte	0x91
 2672 0f35 74       		.sleb128 -12
 2673 0f36 10       		.uleb128 0x10
 2674 0f37 F4060000 		.4byte	.LASF218
 2675 0f3b FE       		.byte	0xfe
 2676 0f3c 34       		.byte	0x34
 2677 0f3d B4000000 		.4byte	0xb4
 2678 0f41 02       		.uleb128 0x2
 2679 0f42 91       		.byte	0x91
 2680 0f43 73       		.sleb128 -13
 2681 0f44 10       		.uleb128 0x10
 2682 0f45 280B0000 		.4byte	.LASF219
 2683 0f49 FF       		.byte	0xff
 2684 0f4a 34       		.byte	0x34
 2685 0f4b B4000000 		.4byte	0xb4
 2686 0f4f 02       		.uleb128 0x2
 2687 0f50 91       		.byte	0x91
 2688 0f51 72       		.sleb128 -14
 2689 0f52 14       		.uleb128 0x14
 2690 0f53 86080000 		.4byte	.LASF220
 2691 0f57 0001     		.2byte	0x100
 2692 0f59 35       		.byte	0x35
 2693 0f5a C5000000 		.4byte	0xc5
 2694 0f5e 02       		.uleb128 0x2
 2695 0f5f 91       		.byte	0x91
 2696 0f60 70       		.sleb128 -16
 2697 0f61 00       		.byte	0
 2698 0f62 21       		.uleb128 0x21
 2699 0f63 95060000 		.4byte	.LASF221
 2700 0f67 D5       		.byte	0xd5
ARM GAS  C:\Users\DEVELO~1\AppData\Local\Temp\ccPZimPw.s 			page 49


 2701 0f68 00000000 		.4byte	.LFB434
 2702 0f6c 20000000 		.4byte	.LFE434-.LFB434
 2703 0f70 01       		.uleb128 0x1
 2704 0f71 9C       		.byte	0x9c
 2705 0f72 920F0000 		.4byte	0xf92
 2706 0f76 10       		.uleb128 0x10
 2707 0f77 A2090000 		.4byte	.LASF216
 2708 0f7b D5       		.byte	0xd5
 2709 0f7c 22       		.byte	0x22
 2710 0f7d 33040000 		.4byte	0x433
 2711 0f81 02       		.uleb128 0x2
 2712 0f82 91       		.byte	0x91
 2713 0f83 74       		.sleb128 -12
 2714 0f84 1C       		.uleb128 0x1c
 2715 0f85 657000   		.ascii	"ep\000"
 2716 0f88 D5       		.byte	0xd5
 2717 0f89 30       		.byte	0x30
 2718 0f8a 0E030000 		.4byte	0x30e
 2719 0f8e 02       		.uleb128 0x2
 2720 0f8f 91       		.byte	0x91
 2721 0f90 73       		.sleb128 -13
 2722 0f91 00       		.byte	0
 2723 0f92 21       		.uleb128 0x21
 2724 0f93 06000000 		.4byte	.LASF222
 2725 0f97 BA       		.byte	0xba
 2726 0f98 00000000 		.4byte	.LFB433
 2727 0f9c 74000000 		.4byte	.LFE433-.LFB433
 2728 0fa0 01       		.uleb128 0x1
 2729 0fa1 9C       		.byte	0x9c
 2730 0fa2 D00F0000 		.4byte	0xfd0
 2731 0fa6 10       		.uleb128 0x10
 2732 0fa7 A2090000 		.4byte	.LASF216
 2733 0fab BA       		.byte	0xba
 2734 0fac 23       		.byte	0x23
 2735 0fad 33040000 		.4byte	0x433
 2736 0fb1 02       		.uleb128 0x2
 2737 0fb2 91       		.byte	0x91
 2738 0fb3 6C       		.sleb128 -20
 2739 0fb4 1C       		.uleb128 0x1c
 2740 0fb5 657000   		.ascii	"ep\000"
 2741 0fb8 BA       		.byte	0xba
 2742 0fb9 31       		.byte	0x31
 2743 0fba 0E030000 		.4byte	0x30e
 2744 0fbe 02       		.uleb128 0x2
 2745 0fbf 91       		.byte	0x91
 2746 0fc0 6B       		.sleb128 -21
 2747 0fc1 0B       		.uleb128 0xb
 2748 0fc2 58000000 		.4byte	.LASF223
 2749 0fc6 BC       		.byte	0xbc
 2750 0fc7 10       		.byte	0x10
 2751 0fc8 39000000 		.4byte	0x39
 2752 0fcc 02       		.uleb128 0x2
 2753 0fcd 91       		.byte	0x91
 2754 0fce 74       		.sleb128 -12
 2755 0fcf 00       		.byte	0
 2756 0fd0 2F       		.uleb128 0x2f
 2757 0fd1 C3010000 		.4byte	.LASF224
ARM GAS  C:\Users\DEVELO~1\AppData\Local\Temp\ccPZimPw.s 			page 50


 2758 0fd5 06       		.byte	0x6
 2759 0fd6 2E       		.byte	0x2e
 2760 0fd7 14       		.byte	0x14
 2761 0fd8 00000000 		.4byte	.LFB432
 2762 0fdc 14000000 		.4byte	.LFE432-.LFB432
 2763 0fe0 01       		.uleb128 0x1
 2764 0fe1 9C       		.byte	0x9c
 2765 0fe2 03100000 		.4byte	0x1003
 2766 0fe6 10       		.uleb128 0x10
 2767 0fe7 E4000000 		.4byte	.LASF225
 2768 0feb 2E       		.byte	0x2e
 2769 0fec 30       		.byte	0x30
 2770 0fed 3A010000 		.4byte	0x13a
 2771 0ff1 02       		.uleb128 0x2
 2772 0ff2 91       		.byte	0x91
 2773 0ff3 74       		.sleb128 -12
 2774 0ff4 1C       		.uleb128 0x1c
 2775 0ff5 6C656E00 		.ascii	"len\000"
 2776 0ff9 2E       		.byte	0x2e
 2777 0ffa 3D       		.byte	0x3d
 2778 0ffb 2D000000 		.4byte	0x2d
 2779 0fff 02       		.uleb128 0x2
 2780 1000 91       		.byte	0x91
 2781 1001 70       		.sleb128 -16
 2782 1002 00       		.byte	0
 2783 1003 22       		.uleb128 0x22
 2784 1004 F6000000 		.4byte	.LASF226
 2785 1008 5E02     		.2byte	0x25e
 2786 100a 00000000 		.4byte	.LFB353
 2787 100e 0C000000 		.4byte	.LFE353-.LFB353
 2788 1012 01       		.uleb128 0x1
 2789 1013 9C       		.byte	0x9c
 2790 1014 22       		.uleb128 0x22
 2791 1015 49030000 		.4byte	.LASF227
 2792 1019 5302     		.2byte	0x253
 2793 101b 00000000 		.4byte	.LFB352
 2794 101f 0C000000 		.4byte	.LFE352-.LFB352
 2795 1023 01       		.uleb128 0x1
 2796 1024 9C       		.byte	0x9c
 2797 1025 1B       		.uleb128 0x1b
 2798 1026 8B0A0000 		.4byte	.LASF228
 2799 102a 04       		.byte	0x4
 2800 102b 0A01     		.2byte	0x10a
 2801 102d 14       		.byte	0x14
 2802 102e 00000000 		.4byte	.LFB272
 2803 1032 20000000 		.4byte	.LFE272-.LFB272
 2804 1036 01       		.uleb128 0x1
 2805 1037 9C       		.byte	0x9c
 2806 1038 4D100000 		.4byte	0x104d
 2807 103c 30       		.uleb128 0x30
 2808 103d 62737000 		.ascii	"bsp\000"
 2809 1041 04       		.byte	0x4
 2810 1042 0A01     		.2byte	0x10a
 2811 1044 36       		.byte	0x36
 2812 1045 4D100000 		.4byte	0x104d
 2813 1049 02       		.uleb128 0x2
 2814 104a 91       		.byte	0x91
ARM GAS  C:\Users\DEVELO~1\AppData\Local\Temp\ccPZimPw.s 			page 51


 2815 104b 74       		.sleb128 -12
 2816 104c 00       		.byte	0
 2817 104d 09       		.uleb128 0x9
 2818 104e CA010000 		.4byte	0x1ca
 2819 1052 23       		.uleb128 0x23
 2820 1053 66070000 		.4byte	.LASF229
 2821 1057 D901     		.2byte	0x1d9
 2822 1059 00000000 		.4byte	.LFB205
 2823 105d 20000000 		.4byte	.LFE205-.LFB205
 2824 1061 01       		.uleb128 0x1
 2825 1062 9C       		.byte	0x9c
 2826 1063 A3100000 		.4byte	0x10a3
 2827 1067 11       		.uleb128 0x11
 2828 1068 F4100000 		.4byte	0x10f4
 2829 106c 0A000000 		.4byte	.LBB32
 2830 1070 0C000000 		.4byte	.LBE32-.LBB32
 2831 1074 01       		.byte	0x1
 2832 1075 DD01     		.2byte	0x1dd
 2833 1077 11       		.uleb128 0x11
 2834 1078 02110000 		.4byte	0x1102
 2835 107c 0A000000 		.4byte	.LBB34
 2836 1080 0A000000 		.4byte	.LBE34-.LBB34
 2837 1084 03       		.byte	0x3
 2838 1085 6B03     		.2byte	0x36b
 2839 1087 11       		.uleb128 0x11
 2840 1088 10110000 		.4byte	0x1110
 2841 108c 0A000000 		.4byte	.LBB36
 2842 1090 08000000 		.4byte	.LBE36-.LBB36
 2843 1094 03       		.byte	0x3
 2844 1095 5203     		.2byte	0x352
 2845 1097 24       		.uleb128 0x24
 2846 1098 1A110000 		.4byte	0x111a
 2847 109c 02       		.uleb128 0x2
 2848 109d 91       		.byte	0x91
 2849 109e 74       		.sleb128 -12
 2850 109f 00       		.byte	0
 2851 10a0 00       		.byte	0
 2852 10a1 00       		.byte	0
 2853 10a2 00       		.byte	0
 2854 10a3 23       		.uleb128 0x23
 2855 10a4 9F0A0000 		.4byte	.LASF230
 2856 10a8 C301     		.2byte	0x1c3
 2857 10aa 00000000 		.4byte	.LFB204
 2858 10ae 20000000 		.4byte	.LFE204-.LFB204
 2859 10b2 01       		.uleb128 0x1
 2860 10b3 9C       		.byte	0x9c
 2861 10b4 F4100000 		.4byte	0x10f4
 2862 10b8 11       		.uleb128 0x11
 2863 10b9 FB100000 		.4byte	0x10fb
 2864 10bd 0A000000 		.4byte	.LBB26
 2865 10c1 0C000000 		.4byte	.LBE26-.LBB26
 2866 10c5 01       		.byte	0x1
 2867 10c6 C501     		.2byte	0x1c5
 2868 10c8 11       		.uleb128 0x11
 2869 10c9 09110000 		.4byte	0x1109
 2870 10cd 0A000000 		.4byte	.LBB28
 2871 10d1 0A000000 		.4byte	.LBE28-.LBB28
ARM GAS  C:\Users\DEVELO~1\AppData\Local\Temp\ccPZimPw.s 			page 52


 2872 10d5 03       		.byte	0x3
 2873 10d6 6003     		.2byte	0x360
 2874 10d8 11       		.uleb128 0x11
 2875 10d9 10110000 		.4byte	0x1110
 2876 10dd 0A000000 		.4byte	.LBB30
 2877 10e1 08000000 		.4byte	.LBE30-.LBB30
 2878 10e5 03       		.byte	0x3
 2879 10e6 3F03     		.2byte	0x33f
 2880 10e8 24       		.uleb128 0x24
 2881 10e9 1A110000 		.4byte	0x111a
 2882 10ed 02       		.uleb128 0x2
 2883 10ee 91       		.byte	0x91
 2884 10ef 74       		.sleb128 -12
 2885 10f0 00       		.byte	0
 2886 10f1 00       		.byte	0
 2887 10f2 00       		.byte	0
 2888 10f3 00       		.byte	0
 2889 10f4 15       		.uleb128 0x15
 2890 10f5 14090000 		.4byte	.LASF231
 2891 10f9 6903     		.2byte	0x369
 2892 10fb 15       		.uleb128 0x15
 2893 10fc A7090000 		.4byte	.LASF232
 2894 1100 5E03     		.2byte	0x35e
 2895 1102 15       		.uleb128 0x15
 2896 1103 71020000 		.4byte	.LASF233
 2897 1107 4F03     		.2byte	0x34f
 2898 1109 15       		.uleb128 0x15
 2899 110a BB000000 		.4byte	.LASF234
 2900 110e 3703     		.2byte	0x337
 2901 1110 31       		.uleb128 0x31
 2902 1111 52090000 		.4byte	.LASF239
 2903 1115 02       		.byte	0x2
 2904 1116 EB01     		.2byte	0x1eb
 2905 1118 1B       		.byte	0x1b
 2906 1119 03       		.byte	0x3
 2907 111a 32       		.uleb128 0x32
 2908 111b D9010000 		.4byte	.LASF240
 2909 111f 02       		.byte	0x2
 2910 1120 EB01     		.2byte	0x1eb
 2911 1122 32       		.byte	0x32
 2912 1123 DD000000 		.4byte	0xdd
 2913 1127 00       		.byte	0
 2914 1128 00       		.byte	0
 2915              		.section	.debug_abbrev,"",%progbits
 2916              	.Ldebug_abbrev0:
 2917 0000 01       		.uleb128 0x1
 2918 0001 0D       		.uleb128 0xd
 2919 0002 00       		.byte	0
 2920 0003 03       		.uleb128 0x3
 2921 0004 0E       		.uleb128 0xe
 2922 0005 3A       		.uleb128 0x3a
 2923 0006 0B       		.uleb128 0xb
 2924 0007 3B       		.uleb128 0x3b
 2925 0008 0B       		.uleb128 0xb
 2926 0009 39       		.uleb128 0x39
 2927 000a 0B       		.uleb128 0xb
 2928 000b 49       		.uleb128 0x49
ARM GAS  C:\Users\DEVELO~1\AppData\Local\Temp\ccPZimPw.s 			page 53


 2929 000c 13       		.uleb128 0x13
 2930 000d 38       		.uleb128 0x38
 2931 000e 0B       		.uleb128 0xb
 2932 000f 00       		.byte	0
 2933 0010 00       		.byte	0
 2934 0011 02       		.uleb128 0x2
 2935 0012 0D       		.uleb128 0xd
 2936 0013 00       		.byte	0
 2937 0014 03       		.uleb128 0x3
 2938 0015 0E       		.uleb128 0xe
 2939 0016 3A       		.uleb128 0x3a
 2940 0017 0B       		.uleb128 0xb
 2941 0018 3B       		.uleb128 0x3b
 2942 0019 05       		.uleb128 0x5
 2943 001a 39       		.uleb128 0x39
 2944 001b 0B       		.uleb128 0xb
 2945 001c 49       		.uleb128 0x49
 2946 001d 13       		.uleb128 0x13
 2947 001e 38       		.uleb128 0x38
 2948 001f 0B       		.uleb128 0xb
 2949 0020 00       		.byte	0
 2950 0021 00       		.byte	0
 2951 0022 03       		.uleb128 0x3
 2952 0023 0D       		.uleb128 0xd
 2953 0024 00       		.byte	0
 2954 0025 03       		.uleb128 0x3
 2955 0026 0E       		.uleb128 0xe
 2956 0027 3A       		.uleb128 0x3a
 2957 0028 21       		.uleb128 0x21
 2958 0029 0F       		.sleb128 15
 2959 002a 3B       		.uleb128 0x3b
 2960 002b 0B       		.uleb128 0xb
 2961 002c 39       		.uleb128 0x39
 2962 002d 21       		.uleb128 0x21
 2963 002e 15       		.sleb128 21
 2964 002f 49       		.uleb128 0x49
 2965 0030 13       		.uleb128 0x13
 2966 0031 38       		.uleb128 0x38
 2967 0032 05       		.uleb128 0x5
 2968 0033 00       		.byte	0
 2969 0034 00       		.byte	0
 2970 0035 04       		.uleb128 0x4
 2971 0036 01       		.uleb128 0x1
 2972 0037 01       		.byte	0x1
 2973 0038 49       		.uleb128 0x49
 2974 0039 13       		.uleb128 0x13
 2975 003a 01       		.uleb128 0x1
 2976 003b 13       		.uleb128 0x13
 2977 003c 00       		.byte	0
 2978 003d 00       		.byte	0
 2979 003e 05       		.uleb128 0x5
 2980 003f 21       		.uleb128 0x21
 2981 0040 00       		.byte	0
 2982 0041 49       		.uleb128 0x49
 2983 0042 13       		.uleb128 0x13
 2984 0043 2F       		.uleb128 0x2f
 2985 0044 0B       		.uleb128 0xb
ARM GAS  C:\Users\DEVELO~1\AppData\Local\Temp\ccPZimPw.s 			page 54


 2986 0045 00       		.byte	0
 2987 0046 00       		.byte	0
 2988 0047 06       		.uleb128 0x6
 2989 0048 28       		.uleb128 0x28
 2990 0049 00       		.byte	0
 2991 004a 03       		.uleb128 0x3
 2992 004b 0E       		.uleb128 0xe
 2993 004c 1C       		.uleb128 0x1c
 2994 004d 0B       		.uleb128 0xb
 2995 004e 00       		.byte	0
 2996 004f 00       		.byte	0
 2997 0050 07       		.uleb128 0x7
 2998 0051 05       		.uleb128 0x5
 2999 0052 00       		.byte	0
 3000 0053 49       		.uleb128 0x49
 3001 0054 13       		.uleb128 0x13
 3002 0055 00       		.byte	0
 3003 0056 00       		.byte	0
 3004 0057 08       		.uleb128 0x8
 3005 0058 16       		.uleb128 0x16
 3006 0059 00       		.byte	0
 3007 005a 03       		.uleb128 0x3
 3008 005b 0E       		.uleb128 0xe
 3009 005c 3A       		.uleb128 0x3a
 3010 005d 0B       		.uleb128 0xb
 3011 005e 3B       		.uleb128 0x3b
 3012 005f 0B       		.uleb128 0xb
 3013 0060 39       		.uleb128 0x39
 3014 0061 0B       		.uleb128 0xb
 3015 0062 49       		.uleb128 0x49
 3016 0063 13       		.uleb128 0x13
 3017 0064 00       		.byte	0
 3018 0065 00       		.byte	0
 3019 0066 09       		.uleb128 0x9
 3020 0067 0F       		.uleb128 0xf
 3021 0068 00       		.byte	0
 3022 0069 0B       		.uleb128 0xb
 3023 006a 21       		.uleb128 0x21
 3024 006b 04       		.sleb128 4
 3025 006c 49       		.uleb128 0x49
 3026 006d 13       		.uleb128 0x13
 3027 006e 00       		.byte	0
 3028 006f 00       		.byte	0
 3029 0070 0A       		.uleb128 0xa
 3030 0071 16       		.uleb128 0x16
 3031 0072 00       		.byte	0
 3032 0073 03       		.uleb128 0x3
 3033 0074 0E       		.uleb128 0xe
 3034 0075 3A       		.uleb128 0x3a
 3035 0076 0B       		.uleb128 0xb
 3036 0077 3B       		.uleb128 0x3b
 3037 0078 05       		.uleb128 0x5
 3038 0079 39       		.uleb128 0x39
 3039 007a 0B       		.uleb128 0xb
 3040 007b 49       		.uleb128 0x49
 3041 007c 13       		.uleb128 0x13
 3042 007d 00       		.byte	0
ARM GAS  C:\Users\DEVELO~1\AppData\Local\Temp\ccPZimPw.s 			page 55


 3043 007e 00       		.byte	0
 3044 007f 0B       		.uleb128 0xb
 3045 0080 34       		.uleb128 0x34
 3046 0081 00       		.byte	0
 3047 0082 03       		.uleb128 0x3
 3048 0083 0E       		.uleb128 0xe
 3049 0084 3A       		.uleb128 0x3a
 3050 0085 21       		.uleb128 0x21
 3051 0086 06       		.sleb128 6
 3052 0087 3B       		.uleb128 0x3b
 3053 0088 0B       		.uleb128 0xb
 3054 0089 39       		.uleb128 0x39
 3055 008a 0B       		.uleb128 0xb
 3056 008b 49       		.uleb128 0x49
 3057 008c 13       		.uleb128 0x13
 3058 008d 02       		.uleb128 0x2
 3059 008e 18       		.uleb128 0x18
 3060 008f 00       		.byte	0
 3061 0090 00       		.byte	0
 3062 0091 0C       		.uleb128 0xc
 3063 0092 26       		.uleb128 0x26
 3064 0093 00       		.byte	0
 3065 0094 49       		.uleb128 0x49
 3066 0095 13       		.uleb128 0x13
 3067 0096 00       		.byte	0
 3068 0097 00       		.byte	0
 3069 0098 0D       		.uleb128 0xd
 3070 0099 24       		.uleb128 0x24
 3071 009a 00       		.byte	0
 3072 009b 0B       		.uleb128 0xb
 3073 009c 0B       		.uleb128 0xb
 3074 009d 3E       		.uleb128 0x3e
 3075 009e 0B       		.uleb128 0xb
 3076 009f 03       		.uleb128 0x3
 3077 00a0 0E       		.uleb128 0xe
 3078 00a1 00       		.byte	0
 3079 00a2 00       		.byte	0
 3080 00a3 0E       		.uleb128 0xe
 3081 00a4 35       		.uleb128 0x35
 3082 00a5 00       		.byte	0
 3083 00a6 49       		.uleb128 0x49
 3084 00a7 13       		.uleb128 0x13
 3085 00a8 00       		.byte	0
 3086 00a9 00       		.byte	0
 3087 00aa 0F       		.uleb128 0xf
 3088 00ab 13       		.uleb128 0x13
 3089 00ac 01       		.byte	0x1
 3090 00ad 0B       		.uleb128 0xb
 3091 00ae 0B       		.uleb128 0xb
 3092 00af 3A       		.uleb128 0x3a
 3093 00b0 0B       		.uleb128 0xb
 3094 00b1 3B       		.uleb128 0x3b
 3095 00b2 05       		.uleb128 0x5
 3096 00b3 39       		.uleb128 0x39
 3097 00b4 21       		.uleb128 0x21
 3098 00b5 09       		.sleb128 9
 3099 00b6 01       		.uleb128 0x1
ARM GAS  C:\Users\DEVELO~1\AppData\Local\Temp\ccPZimPw.s 			page 56


 3100 00b7 13       		.uleb128 0x13
 3101 00b8 00       		.byte	0
 3102 00b9 00       		.byte	0
 3103 00ba 10       		.uleb128 0x10
 3104 00bb 05       		.uleb128 0x5
 3105 00bc 00       		.byte	0
 3106 00bd 03       		.uleb128 0x3
 3107 00be 0E       		.uleb128 0xe
 3108 00bf 3A       		.uleb128 0x3a
 3109 00c0 21       		.uleb128 0x21
 3110 00c1 06       		.sleb128 6
 3111 00c2 3B       		.uleb128 0x3b
 3112 00c3 0B       		.uleb128 0xb
 3113 00c4 39       		.uleb128 0x39
 3114 00c5 0B       		.uleb128 0xb
 3115 00c6 49       		.uleb128 0x49
 3116 00c7 13       		.uleb128 0x13
 3117 00c8 02       		.uleb128 0x2
 3118 00c9 18       		.uleb128 0x18
 3119 00ca 00       		.byte	0
 3120 00cb 00       		.byte	0
 3121 00cc 11       		.uleb128 0x11
 3122 00cd 1D       		.uleb128 0x1d
 3123 00ce 01       		.byte	0x1
 3124 00cf 31       		.uleb128 0x31
 3125 00d0 13       		.uleb128 0x13
 3126 00d1 11       		.uleb128 0x11
 3127 00d2 01       		.uleb128 0x1
 3128 00d3 12       		.uleb128 0x12
 3129 00d4 06       		.uleb128 0x6
 3130 00d5 58       		.uleb128 0x58
 3131 00d6 0B       		.uleb128 0xb
 3132 00d7 59       		.uleb128 0x59
 3133 00d8 05       		.uleb128 0x5
 3134 00d9 57       		.uleb128 0x57
 3135 00da 21       		.uleb128 0x21
 3136 00db 03       		.sleb128 3
 3137 00dc 00       		.byte	0
 3138 00dd 00       		.byte	0
 3139 00de 12       		.uleb128 0x12
 3140 00df 34       		.uleb128 0x34
 3141 00e0 00       		.byte	0
 3142 00e1 03       		.uleb128 0x3
 3143 00e2 0E       		.uleb128 0xe
 3144 00e3 3A       		.uleb128 0x3a
 3145 00e4 0B       		.uleb128 0xb
 3146 00e5 3B       		.uleb128 0x3b
 3147 00e6 0B       		.uleb128 0xb
 3148 00e7 39       		.uleb128 0x39
 3149 00e8 0B       		.uleb128 0xb
 3150 00e9 49       		.uleb128 0x49
 3151 00ea 13       		.uleb128 0x13
 3152 00eb 3F       		.uleb128 0x3f
 3153 00ec 19       		.uleb128 0x19
 3154 00ed 3C       		.uleb128 0x3c
 3155 00ee 19       		.uleb128 0x19
 3156 00ef 00       		.byte	0
ARM GAS  C:\Users\DEVELO~1\AppData\Local\Temp\ccPZimPw.s 			page 57


 3157 00f0 00       		.byte	0
 3158 00f1 13       		.uleb128 0x13
 3159 00f2 13       		.uleb128 0x13
 3160 00f3 01       		.byte	0x1
 3161 00f4 0B       		.uleb128 0xb
 3162 00f5 0B       		.uleb128 0xb
 3163 00f6 3A       		.uleb128 0x3a
 3164 00f7 0B       		.uleb128 0xb
 3165 00f8 3B       		.uleb128 0x3b
 3166 00f9 0B       		.uleb128 0xb
 3167 00fa 39       		.uleb128 0x39
 3168 00fb 21       		.uleb128 0x21
 3169 00fc 09       		.sleb128 9
 3170 00fd 01       		.uleb128 0x1
 3171 00fe 13       		.uleb128 0x13
 3172 00ff 00       		.byte	0
 3173 0100 00       		.byte	0
 3174 0101 14       		.uleb128 0x14
 3175 0102 05       		.uleb128 0x5
 3176 0103 00       		.byte	0
 3177 0104 03       		.uleb128 0x3
 3178 0105 0E       		.uleb128 0xe
 3179 0106 3A       		.uleb128 0x3a
 3180 0107 21       		.uleb128 0x21
 3181 0108 06       		.sleb128 6
 3182 0109 3B       		.uleb128 0x3b
 3183 010a 05       		.uleb128 0x5
 3184 010b 39       		.uleb128 0x39
 3185 010c 0B       		.uleb128 0xb
 3186 010d 49       		.uleb128 0x49
 3187 010e 13       		.uleb128 0x13
 3188 010f 02       		.uleb128 0x2
 3189 0110 18       		.uleb128 0x18
 3190 0111 00       		.byte	0
 3191 0112 00       		.byte	0
 3192 0113 15       		.uleb128 0x15
 3193 0114 2E       		.uleb128 0x2e
 3194 0115 00       		.byte	0
 3195 0116 03       		.uleb128 0x3
 3196 0117 0E       		.uleb128 0xe
 3197 0118 3A       		.uleb128 0x3a
 3198 0119 21       		.uleb128 0x21
 3199 011a 03       		.sleb128 3
 3200 011b 3B       		.uleb128 0x3b
 3201 011c 05       		.uleb128 0x5
 3202 011d 39       		.uleb128 0x39
 3203 011e 21       		.uleb128 0x21
 3204 011f 1B       		.sleb128 27
 3205 0120 27       		.uleb128 0x27
 3206 0121 19       		.uleb128 0x19
 3207 0122 20       		.uleb128 0x20
 3208 0123 21       		.uleb128 0x21
 3209 0124 03       		.sleb128 3
 3210 0125 00       		.byte	0
 3211 0126 00       		.byte	0
 3212 0127 16       		.uleb128 0x16
 3213 0128 13       		.uleb128 0x13
ARM GAS  C:\Users\DEVELO~1\AppData\Local\Temp\ccPZimPw.s 			page 58


 3214 0129 01       		.byte	0x1
 3215 012a 03       		.uleb128 0x3
 3216 012b 0E       		.uleb128 0xe
 3217 012c 0B       		.uleb128 0xb
 3218 012d 0B       		.uleb128 0xb
 3219 012e 3A       		.uleb128 0x3a
 3220 012f 0B       		.uleb128 0xb
 3221 0130 3B       		.uleb128 0x3b
 3222 0131 0B       		.uleb128 0xb
 3223 0132 39       		.uleb128 0x39
 3224 0133 0B       		.uleb128 0xb
 3225 0134 01       		.uleb128 0x1
 3226 0135 13       		.uleb128 0x13
 3227 0136 00       		.byte	0
 3228 0137 00       		.byte	0
 3229 0138 17       		.uleb128 0x17
 3230 0139 0D       		.uleb128 0xd
 3231 013a 00       		.byte	0
 3232 013b 03       		.uleb128 0x3
 3233 013c 08       		.uleb128 0x8
 3234 013d 3A       		.uleb128 0x3a
 3235 013e 0B       		.uleb128 0xb
 3236 013f 3B       		.uleb128 0x3b
 3237 0140 0B       		.uleb128 0xb
 3238 0141 39       		.uleb128 0x39
 3239 0142 0B       		.uleb128 0xb
 3240 0143 49       		.uleb128 0x49
 3241 0144 13       		.uleb128 0x13
 3242 0145 38       		.uleb128 0x38
 3243 0146 0B       		.uleb128 0xb
 3244 0147 00       		.byte	0
 3245 0148 00       		.byte	0
 3246 0149 18       		.uleb128 0x18
 3247 014a 04       		.uleb128 0x4
 3248 014b 01       		.byte	0x1
 3249 014c 3E       		.uleb128 0x3e
 3250 014d 21       		.uleb128 0x21
 3251 014e 07       		.sleb128 7
 3252 014f 0B       		.uleb128 0xb
 3253 0150 21       		.uleb128 0x21
 3254 0151 01       		.sleb128 1
 3255 0152 49       		.uleb128 0x49
 3256 0153 13       		.uleb128 0x13
 3257 0154 3A       		.uleb128 0x3a
 3258 0155 21       		.uleb128 0x21
 3259 0156 0D       		.sleb128 13
 3260 0157 3B       		.uleb128 0x3b
 3261 0158 05       		.uleb128 0x5
 3262 0159 39       		.uleb128 0x39
 3263 015a 21       		.uleb128 0x21
 3264 015b 0E       		.sleb128 14
 3265 015c 01       		.uleb128 0x1
 3266 015d 13       		.uleb128 0x13
 3267 015e 00       		.byte	0
 3268 015f 00       		.byte	0
 3269 0160 19       		.uleb128 0x19
 3270 0161 15       		.uleb128 0x15
ARM GAS  C:\Users\DEVELO~1\AppData\Local\Temp\ccPZimPw.s 			page 59


 3271 0162 01       		.byte	0x1
 3272 0163 27       		.uleb128 0x27
 3273 0164 19       		.uleb128 0x19
 3274 0165 01       		.uleb128 0x1
 3275 0166 13       		.uleb128 0x13
 3276 0167 00       		.byte	0
 3277 0168 00       		.byte	0
 3278 0169 1A       		.uleb128 0x1a
 3279 016a 0D       		.uleb128 0xd
 3280 016b 00       		.byte	0
 3281 016c 03       		.uleb128 0x3
 3282 016d 08       		.uleb128 0x8
 3283 016e 3A       		.uleb128 0x3a
 3284 016f 21       		.uleb128 0x21
 3285 0170 0F       		.sleb128 15
 3286 0171 3B       		.uleb128 0x3b
 3287 0172 0B       		.uleb128 0xb
 3288 0173 39       		.uleb128 0x39
 3289 0174 0B       		.uleb128 0xb
 3290 0175 49       		.uleb128 0x49
 3291 0176 13       		.uleb128 0x13
 3292 0177 38       		.uleb128 0x38
 3293 0178 05       		.uleb128 0x5
 3294 0179 00       		.byte	0
 3295 017a 00       		.byte	0
 3296 017b 1B       		.uleb128 0x1b
 3297 017c 2E       		.uleb128 0x2e
 3298 017d 01       		.byte	0x1
 3299 017e 03       		.uleb128 0x3
 3300 017f 0E       		.uleb128 0xe
 3301 0180 3A       		.uleb128 0x3a
 3302 0181 0B       		.uleb128 0xb
 3303 0182 3B       		.uleb128 0x3b
 3304 0183 05       		.uleb128 0x5
 3305 0184 39       		.uleb128 0x39
 3306 0185 0B       		.uleb128 0xb
 3307 0186 27       		.uleb128 0x27
 3308 0187 19       		.uleb128 0x19
 3309 0188 11       		.uleb128 0x11
 3310 0189 01       		.uleb128 0x1
 3311 018a 12       		.uleb128 0x12
 3312 018b 06       		.uleb128 0x6
 3313 018c 40       		.uleb128 0x40
 3314 018d 18       		.uleb128 0x18
 3315 018e 7C       		.uleb128 0x7c
 3316 018f 19       		.uleb128 0x19
 3317 0190 01       		.uleb128 0x1
 3318 0191 13       		.uleb128 0x13
 3319 0192 00       		.byte	0
 3320 0193 00       		.byte	0
 3321 0194 1C       		.uleb128 0x1c
 3322 0195 05       		.uleb128 0x5
 3323 0196 00       		.byte	0
 3324 0197 03       		.uleb128 0x3
 3325 0198 08       		.uleb128 0x8
 3326 0199 3A       		.uleb128 0x3a
 3327 019a 21       		.uleb128 0x21
ARM GAS  C:\Users\DEVELO~1\AppData\Local\Temp\ccPZimPw.s 			page 60


 3328 019b 06       		.sleb128 6
 3329 019c 3B       		.uleb128 0x3b
 3330 019d 0B       		.uleb128 0xb
 3331 019e 39       		.uleb128 0x39
 3332 019f 0B       		.uleb128 0xb
 3333 01a0 49       		.uleb128 0x49
 3334 01a1 13       		.uleb128 0x13
 3335 01a2 02       		.uleb128 0x2
 3336 01a3 18       		.uleb128 0x18
 3337 01a4 00       		.byte	0
 3338 01a5 00       		.byte	0
 3339 01a6 1D       		.uleb128 0x1d
 3340 01a7 0D       		.uleb128 0xd
 3341 01a8 00       		.byte	0
 3342 01a9 03       		.uleb128 0x3
 3343 01aa 08       		.uleb128 0x8
 3344 01ab 3A       		.uleb128 0x3a
 3345 01ac 21       		.uleb128 0x21
 3346 01ad 0E       		.sleb128 14
 3347 01ae 3B       		.uleb128 0x3b
 3348 01af 05       		.uleb128 0x5
 3349 01b0 39       		.uleb128 0x39
 3350 01b1 21       		.uleb128 0x21
 3351 01b2 22       		.sleb128 34
 3352 01b3 49       		.uleb128 0x49
 3353 01b4 13       		.uleb128 0x13
 3354 01b5 38       		.uleb128 0x38
 3355 01b6 0B       		.uleb128 0xb
 3356 01b7 00       		.byte	0
 3357 01b8 00       		.byte	0
 3358 01b9 1E       		.uleb128 0x1e
 3359 01ba 15       		.uleb128 0x15
 3360 01bb 01       		.byte	0x1
 3361 01bc 27       		.uleb128 0x27
 3362 01bd 19       		.uleb128 0x19
 3363 01be 49       		.uleb128 0x49
 3364 01bf 13       		.uleb128 0x13
 3365 01c0 01       		.uleb128 0x1
 3366 01c1 13       		.uleb128 0x13
 3367 01c2 00       		.byte	0
 3368 01c3 00       		.byte	0
 3369 01c4 1F       		.uleb128 0x1f
 3370 01c5 2E       		.uleb128 0x2e
 3371 01c6 01       		.byte	0x1
 3372 01c7 3F       		.uleb128 0x3f
 3373 01c8 19       		.uleb128 0x19
 3374 01c9 03       		.uleb128 0x3
 3375 01ca 0E       		.uleb128 0xe
 3376 01cb 3A       		.uleb128 0x3a
 3377 01cc 21       		.uleb128 0x21
 3378 01cd 0D       		.sleb128 13
 3379 01ce 3B       		.uleb128 0x3b
 3380 01cf 05       		.uleb128 0x5
 3381 01d0 39       		.uleb128 0x39
 3382 01d1 21       		.uleb128 0x21
 3383 01d2 08       		.sleb128 8
 3384 01d3 27       		.uleb128 0x27
ARM GAS  C:\Users\DEVELO~1\AppData\Local\Temp\ccPZimPw.s 			page 61


 3385 01d4 19       		.uleb128 0x19
 3386 01d5 3C       		.uleb128 0x3c
 3387 01d6 19       		.uleb128 0x19
 3388 01d7 01       		.uleb128 0x1
 3389 01d8 13       		.uleb128 0x13
 3390 01d9 00       		.byte	0
 3391 01da 00       		.byte	0
 3392 01db 20       		.uleb128 0x20
 3393 01dc 2E       		.uleb128 0x2e
 3394 01dd 01       		.byte	0x1
 3395 01de 3F       		.uleb128 0x3f
 3396 01df 19       		.uleb128 0x19
 3397 01e0 03       		.uleb128 0x3
 3398 01e1 0E       		.uleb128 0xe
 3399 01e2 3A       		.uleb128 0x3a
 3400 01e3 0B       		.uleb128 0xb
 3401 01e4 3B       		.uleb128 0x3b
 3402 01e5 0B       		.uleb128 0xb
 3403 01e6 39       		.uleb128 0x39
 3404 01e7 0B       		.uleb128 0xb
 3405 01e8 27       		.uleb128 0x27
 3406 01e9 19       		.uleb128 0x19
 3407 01ea 3C       		.uleb128 0x3c
 3408 01eb 19       		.uleb128 0x19
 3409 01ec 01       		.uleb128 0x1
 3410 01ed 13       		.uleb128 0x13
 3411 01ee 00       		.byte	0
 3412 01ef 00       		.byte	0
 3413 01f0 21       		.uleb128 0x21
 3414 01f1 2E       		.uleb128 0x2e
 3415 01f2 01       		.byte	0x1
 3416 01f3 03       		.uleb128 0x3
 3417 01f4 0E       		.uleb128 0xe
 3418 01f5 3A       		.uleb128 0x3a
 3419 01f6 21       		.uleb128 0x21
 3420 01f7 06       		.sleb128 6
 3421 01f8 3B       		.uleb128 0x3b
 3422 01f9 0B       		.uleb128 0xb
 3423 01fa 39       		.uleb128 0x39
 3424 01fb 21       		.uleb128 0x21
 3425 01fc 0D       		.sleb128 13
 3426 01fd 27       		.uleb128 0x27
 3427 01fe 19       		.uleb128 0x19
 3428 01ff 11       		.uleb128 0x11
 3429 0200 01       		.uleb128 0x1
 3430 0201 12       		.uleb128 0x12
 3431 0202 06       		.uleb128 0x6
 3432 0203 40       		.uleb128 0x40
 3433 0204 18       		.uleb128 0x18
 3434 0205 7C       		.uleb128 0x7c
 3435 0206 19       		.uleb128 0x19
 3436 0207 01       		.uleb128 0x1
 3437 0208 13       		.uleb128 0x13
 3438 0209 00       		.byte	0
 3439 020a 00       		.byte	0
 3440 020b 22       		.uleb128 0x22
 3441 020c 2E       		.uleb128 0x2e
ARM GAS  C:\Users\DEVELO~1\AppData\Local\Temp\ccPZimPw.s 			page 62


 3442 020d 00       		.byte	0
 3443 020e 03       		.uleb128 0x3
 3444 020f 0E       		.uleb128 0xe
 3445 0210 3A       		.uleb128 0x3a
 3446 0211 21       		.uleb128 0x21
 3447 0212 05       		.sleb128 5
 3448 0213 3B       		.uleb128 0x3b
 3449 0214 05       		.uleb128 0x5
 3450 0215 39       		.uleb128 0x39
 3451 0216 21       		.uleb128 0x21
 3452 0217 14       		.sleb128 20
 3453 0218 27       		.uleb128 0x27
 3454 0219 19       		.uleb128 0x19
 3455 021a 11       		.uleb128 0x11
 3456 021b 01       		.uleb128 0x1
 3457 021c 12       		.uleb128 0x12
 3458 021d 06       		.uleb128 0x6
 3459 021e 40       		.uleb128 0x40
 3460 021f 18       		.uleb128 0x18
 3461 0220 7C       		.uleb128 0x7c
 3462 0221 19       		.uleb128 0x19
 3463 0222 00       		.byte	0
 3464 0223 00       		.byte	0
 3465 0224 23       		.uleb128 0x23
 3466 0225 2E       		.uleb128 0x2e
 3467 0226 01       		.byte	0x1
 3468 0227 03       		.uleb128 0x3
 3469 0228 0E       		.uleb128 0xe
 3470 0229 3A       		.uleb128 0x3a
 3471 022a 21       		.uleb128 0x21
 3472 022b 01       		.sleb128 1
 3473 022c 3B       		.uleb128 0x3b
 3474 022d 05       		.uleb128 0x5
 3475 022e 39       		.uleb128 0x39
 3476 022f 21       		.uleb128 0x21
 3477 0230 14       		.sleb128 20
 3478 0231 27       		.uleb128 0x27
 3479 0232 19       		.uleb128 0x19
 3480 0233 11       		.uleb128 0x11
 3481 0234 01       		.uleb128 0x1
 3482 0235 12       		.uleb128 0x12
 3483 0236 06       		.uleb128 0x6
 3484 0237 40       		.uleb128 0x40
 3485 0238 18       		.uleb128 0x18
 3486 0239 7A       		.uleb128 0x7a
 3487 023a 19       		.uleb128 0x19
 3488 023b 01       		.uleb128 0x1
 3489 023c 13       		.uleb128 0x13
 3490 023d 00       		.byte	0
 3491 023e 00       		.byte	0
 3492 023f 24       		.uleb128 0x24
 3493 0240 05       		.uleb128 0x5
 3494 0241 00       		.byte	0
 3495 0242 31       		.uleb128 0x31
 3496 0243 13       		.uleb128 0x13
 3497 0244 02       		.uleb128 0x2
 3498 0245 18       		.uleb128 0x18
ARM GAS  C:\Users\DEVELO~1\AppData\Local\Temp\ccPZimPw.s 			page 63


 3499 0246 00       		.byte	0
 3500 0247 00       		.byte	0
 3501 0248 25       		.uleb128 0x25
 3502 0249 11       		.uleb128 0x11
 3503 024a 01       		.byte	0x1
 3504 024b 25       		.uleb128 0x25
 3505 024c 0E       		.uleb128 0xe
 3506 024d 13       		.uleb128 0x13
 3507 024e 0B       		.uleb128 0xb
 3508 024f 03       		.uleb128 0x3
 3509 0250 0E       		.uleb128 0xe
 3510 0251 1B       		.uleb128 0x1b
 3511 0252 0E       		.uleb128 0xe
 3512 0253 55       		.uleb128 0x55
 3513 0254 17       		.uleb128 0x17
 3514 0255 11       		.uleb128 0x11
 3515 0256 01       		.uleb128 0x1
 3516 0257 10       		.uleb128 0x10
 3517 0258 17       		.uleb128 0x17
 3518 0259 00       		.byte	0
 3519 025a 00       		.byte	0
 3520 025b 26       		.uleb128 0x26
 3521 025c 24       		.uleb128 0x24
 3522 025d 00       		.byte	0
 3523 025e 0B       		.uleb128 0xb
 3524 025f 0B       		.uleb128 0xb
 3525 0260 3E       		.uleb128 0x3e
 3526 0261 0B       		.uleb128 0xb
 3527 0262 03       		.uleb128 0x3
 3528 0263 08       		.uleb128 0x8
 3529 0264 00       		.byte	0
 3530 0265 00       		.byte	0
 3531 0266 27       		.uleb128 0x27
 3532 0267 0F       		.uleb128 0xf
 3533 0268 00       		.byte	0
 3534 0269 0B       		.uleb128 0xb
 3535 026a 0B       		.uleb128 0xb
 3536 026b 00       		.byte	0
 3537 026c 00       		.byte	0
 3538 026d 28       		.uleb128 0x28
 3539 026e 13       		.uleb128 0x13
 3540 026f 01       		.byte	0x1
 3541 0270 03       		.uleb128 0x3
 3542 0271 0E       		.uleb128 0xe
 3543 0272 0B       		.uleb128 0xb
 3544 0273 0B       		.uleb128 0xb
 3545 0274 3A       		.uleb128 0x3a
 3546 0275 0B       		.uleb128 0xb
 3547 0276 3B       		.uleb128 0x3b
 3548 0277 05       		.uleb128 0x5
 3549 0278 39       		.uleb128 0x39
 3550 0279 0B       		.uleb128 0xb
 3551 027a 01       		.uleb128 0x1
 3552 027b 13       		.uleb128 0x13
 3553 027c 00       		.byte	0
 3554 027d 00       		.byte	0
 3555 027e 29       		.uleb128 0x29
ARM GAS  C:\Users\DEVELO~1\AppData\Local\Temp\ccPZimPw.s 			page 64


 3556 027f 13       		.uleb128 0x13
 3557 0280 01       		.byte	0x1
 3558 0281 0B       		.uleb128 0xb
 3559 0282 06       		.uleb128 0x6
 3560 0283 3A       		.uleb128 0x3a
 3561 0284 0B       		.uleb128 0xb
 3562 0285 3B       		.uleb128 0x3b
 3563 0286 0B       		.uleb128 0xb
 3564 0287 39       		.uleb128 0x39
 3565 0288 0B       		.uleb128 0xb
 3566 0289 01       		.uleb128 0x1
 3567 028a 13       		.uleb128 0x13
 3568 028b 00       		.byte	0
 3569 028c 00       		.byte	0
 3570 028d 2A       		.uleb128 0x2a
 3571 028e 21       		.uleb128 0x21
 3572 028f 00       		.byte	0
 3573 0290 49       		.uleb128 0x49
 3574 0291 13       		.uleb128 0x13
 3575 0292 2F       		.uleb128 0x2f
 3576 0293 05       		.uleb128 0x5
 3577 0294 00       		.byte	0
 3578 0295 00       		.byte	0
 3579 0296 2B       		.uleb128 0x2b
 3580 0297 34       		.uleb128 0x34
 3581 0298 00       		.byte	0
 3582 0299 47       		.uleb128 0x47
 3583 029a 13       		.uleb128 0x13
 3584 029b 3A       		.uleb128 0x3a
 3585 029c 0B       		.uleb128 0xb
 3586 029d 3B       		.uleb128 0x3b
 3587 029e 0B       		.uleb128 0xb
 3588 029f 39       		.uleb128 0x39
 3589 02a0 0B       		.uleb128 0xb
 3590 02a1 02       		.uleb128 0x2
 3591 02a2 18       		.uleb128 0x18
 3592 02a3 00       		.byte	0
 3593 02a4 00       		.byte	0
 3594 02a5 2C       		.uleb128 0x2c
 3595 02a6 34       		.uleb128 0x34
 3596 02a7 00       		.byte	0
 3597 02a8 03       		.uleb128 0x3
 3598 02a9 0E       		.uleb128 0xe
 3599 02aa 3A       		.uleb128 0x3a
 3600 02ab 0B       		.uleb128 0xb
 3601 02ac 3B       		.uleb128 0x3b
 3602 02ad 0B       		.uleb128 0xb
 3603 02ae 39       		.uleb128 0x39
 3604 02af 0B       		.uleb128 0xb
 3605 02b0 49       		.uleb128 0x49
 3606 02b1 13       		.uleb128 0x13
 3607 02b2 8801     		.uleb128 0x88
 3608 02b4 0B       		.uleb128 0xb
 3609 02b5 02       		.uleb128 0x2
 3610 02b6 18       		.uleb128 0x18
 3611 02b7 00       		.byte	0
 3612 02b8 00       		.byte	0
ARM GAS  C:\Users\DEVELO~1\AppData\Local\Temp\ccPZimPw.s 			page 65


 3613 02b9 2D       		.uleb128 0x2d
 3614 02ba 34       		.uleb128 0x34
 3615 02bb 00       		.byte	0
 3616 02bc 47       		.uleb128 0x47
 3617 02bd 13       		.uleb128 0x13
 3618 02be 3A       		.uleb128 0x3a
 3619 02bf 0B       		.uleb128 0xb
 3620 02c0 3B       		.uleb128 0x3b
 3621 02c1 05       		.uleb128 0x5
 3622 02c2 39       		.uleb128 0x39
 3623 02c3 0B       		.uleb128 0xb
 3624 02c4 02       		.uleb128 0x2
 3625 02c5 18       		.uleb128 0x18
 3626 02c6 00       		.byte	0
 3627 02c7 00       		.byte	0
 3628 02c8 2E       		.uleb128 0x2e
 3629 02c9 2E       		.uleb128 0x2e
 3630 02ca 01       		.byte	0x1
 3631 02cb 03       		.uleb128 0x3
 3632 02cc 0E       		.uleb128 0xe
 3633 02cd 3A       		.uleb128 0x3a
 3634 02ce 0B       		.uleb128 0xb
 3635 02cf 3B       		.uleb128 0x3b
 3636 02d0 0B       		.uleb128 0xb
 3637 02d1 39       		.uleb128 0x39
 3638 02d2 0B       		.uleb128 0xb
 3639 02d3 27       		.uleb128 0x27
 3640 02d4 19       		.uleb128 0x19
 3641 02d5 49       		.uleb128 0x49
 3642 02d6 13       		.uleb128 0x13
 3643 02d7 11       		.uleb128 0x11
 3644 02d8 01       		.uleb128 0x1
 3645 02d9 12       		.uleb128 0x12
 3646 02da 06       		.uleb128 0x6
 3647 02db 40       		.uleb128 0x40
 3648 02dc 18       		.uleb128 0x18
 3649 02dd 7A       		.uleb128 0x7a
 3650 02de 19       		.uleb128 0x19
 3651 02df 01       		.uleb128 0x1
 3652 02e0 13       		.uleb128 0x13
 3653 02e1 00       		.byte	0
 3654 02e2 00       		.byte	0
 3655 02e3 2F       		.uleb128 0x2f
 3656 02e4 2E       		.uleb128 0x2e
 3657 02e5 01       		.byte	0x1
 3658 02e6 03       		.uleb128 0x3
 3659 02e7 0E       		.uleb128 0xe
 3660 02e8 3A       		.uleb128 0x3a
 3661 02e9 0B       		.uleb128 0xb
 3662 02ea 3B       		.uleb128 0x3b
 3663 02eb 0B       		.uleb128 0xb
 3664 02ec 39       		.uleb128 0x39
 3665 02ed 0B       		.uleb128 0xb
 3666 02ee 27       		.uleb128 0x27
 3667 02ef 19       		.uleb128 0x19
 3668 02f0 11       		.uleb128 0x11
 3669 02f1 01       		.uleb128 0x1
ARM GAS  C:\Users\DEVELO~1\AppData\Local\Temp\ccPZimPw.s 			page 66


 3670 02f2 12       		.uleb128 0x12
 3671 02f3 06       		.uleb128 0x6
 3672 02f4 40       		.uleb128 0x40
 3673 02f5 18       		.uleb128 0x18
 3674 02f6 7A       		.uleb128 0x7a
 3675 02f7 19       		.uleb128 0x19
 3676 02f8 01       		.uleb128 0x1
 3677 02f9 13       		.uleb128 0x13
 3678 02fa 00       		.byte	0
 3679 02fb 00       		.byte	0
 3680 02fc 30       		.uleb128 0x30
 3681 02fd 05       		.uleb128 0x5
 3682 02fe 00       		.byte	0
 3683 02ff 03       		.uleb128 0x3
 3684 0300 08       		.uleb128 0x8
 3685 0301 3A       		.uleb128 0x3a
 3686 0302 0B       		.uleb128 0xb
 3687 0303 3B       		.uleb128 0x3b
 3688 0304 05       		.uleb128 0x5
 3689 0305 39       		.uleb128 0x39
 3690 0306 0B       		.uleb128 0xb
 3691 0307 49       		.uleb128 0x49
 3692 0308 13       		.uleb128 0x13
 3693 0309 02       		.uleb128 0x2
 3694 030a 18       		.uleb128 0x18
 3695 030b 00       		.byte	0
 3696 030c 00       		.byte	0
 3697 030d 31       		.uleb128 0x31
 3698 030e 2E       		.uleb128 0x2e
 3699 030f 01       		.byte	0x1
 3700 0310 03       		.uleb128 0x3
 3701 0311 0E       		.uleb128 0xe
 3702 0312 3A       		.uleb128 0x3a
 3703 0313 0B       		.uleb128 0xb
 3704 0314 3B       		.uleb128 0x3b
 3705 0315 05       		.uleb128 0x5
 3706 0316 39       		.uleb128 0x39
 3707 0317 0B       		.uleb128 0xb
 3708 0318 27       		.uleb128 0x27
 3709 0319 19       		.uleb128 0x19
 3710 031a 20       		.uleb128 0x20
 3711 031b 0B       		.uleb128 0xb
 3712 031c 00       		.byte	0
 3713 031d 00       		.byte	0
 3714 031e 32       		.uleb128 0x32
 3715 031f 05       		.uleb128 0x5
 3716 0320 00       		.byte	0
 3717 0321 03       		.uleb128 0x3
 3718 0322 0E       		.uleb128 0xe
 3719 0323 3A       		.uleb128 0x3a
 3720 0324 0B       		.uleb128 0xb
 3721 0325 3B       		.uleb128 0x3b
 3722 0326 05       		.uleb128 0x5
 3723 0327 39       		.uleb128 0x39
 3724 0328 0B       		.uleb128 0xb
 3725 0329 49       		.uleb128 0x49
 3726 032a 13       		.uleb128 0x13
ARM GAS  C:\Users\DEVELO~1\AppData\Local\Temp\ccPZimPw.s 			page 67


 3727 032b 00       		.byte	0
 3728 032c 00       		.byte	0
 3729 032d 00       		.byte	0
 3730              		.section	.debug_aranges,"",%progbits
 3731 0000 6C000000 		.4byte	0x6c
 3732 0004 0200     		.2byte	0x2
 3733 0006 00000000 		.4byte	.Ldebug_info0
 3734 000a 04       		.byte	0x4
 3735 000b 00       		.byte	0
 3736 000c 0000     		.2byte	0
 3737 000e 0000     		.2byte	0
 3738 0010 00000000 		.4byte	.LFB204
 3739 0014 20000000 		.4byte	.LFE204-.LFB204
 3740 0018 00000000 		.4byte	.LFB205
 3741 001c 20000000 		.4byte	.LFE205-.LFB205
 3742 0020 00000000 		.4byte	.LFB272
 3743 0024 20000000 		.4byte	.LFE272-.LFB272
 3744 0028 00000000 		.4byte	.LFB352
 3745 002c 0C000000 		.4byte	.LFE352-.LFB352
 3746 0030 00000000 		.4byte	.LFB353
 3747 0034 0C000000 		.4byte	.LFE353-.LFB353
 3748 0038 00000000 		.4byte	.LFB432
 3749 003c 14000000 		.4byte	.LFE432-.LFB432
 3750 0040 00000000 		.4byte	.LFB433
 3751 0044 74000000 		.4byte	.LFE433-.LFB433
 3752 0048 00000000 		.4byte	.LFB434
 3753 004c 20000000 		.4byte	.LFE434-.LFB434
 3754 0050 00000000 		.4byte	.LFB435
 3755 0054 64000000 		.4byte	.LFE435-.LFB435
 3756 0058 00000000 		.4byte	.LFB436
 3757 005c 8C000000 		.4byte	.LFE436-.LFB436
 3758 0060 00000000 		.4byte	.LFB437
 3759 0064 1C000000 		.4byte	.LFE437-.LFB437
 3760 0068 00000000 		.4byte	0
 3761 006c 00000000 		.4byte	0
 3762              		.section	.debug_rnglists,"",%progbits
 3763              	.Ldebug_ranges0:
 3764 0000 4C000000 		.4byte	.Ldebug_ranges3-.Ldebug_ranges2
 3765              	.Ldebug_ranges2:
 3766 0004 0500     		.2byte	0x5
 3767 0006 04       		.byte	0x4
 3768 0007 00       		.byte	0
 3769 0008 00000000 		.4byte	0
 3770              	.LLRL0:
 3771 000c 07       		.byte	0x7
 3772 000d 00000000 		.4byte	.LFB204
 3773 0011 20       		.uleb128 .LFE204-.LFB204
 3774 0012 07       		.byte	0x7
 3775 0013 00000000 		.4byte	.LFB205
 3776 0017 20       		.uleb128 .LFE205-.LFB205
 3777 0018 07       		.byte	0x7
 3778 0019 00000000 		.4byte	.LFB272
 3779 001d 20       		.uleb128 .LFE272-.LFB272
 3780 001e 07       		.byte	0x7
 3781 001f 00000000 		.4byte	.LFB352
 3782 0023 0C       		.uleb128 .LFE352-.LFB352
 3783 0024 07       		.byte	0x7
ARM GAS  C:\Users\DEVELO~1\AppData\Local\Temp\ccPZimPw.s 			page 68


 3784 0025 00000000 		.4byte	.LFB353
 3785 0029 0C       		.uleb128 .LFE353-.LFB353
 3786 002a 07       		.byte	0x7
 3787 002b 00000000 		.4byte	.LFB432
 3788 002f 14       		.uleb128 .LFE432-.LFB432
 3789 0030 07       		.byte	0x7
 3790 0031 00000000 		.4byte	.LFB433
 3791 0035 74       		.uleb128 .LFE433-.LFB433
 3792 0036 07       		.byte	0x7
 3793 0037 00000000 		.4byte	.LFB434
 3794 003b 20       		.uleb128 .LFE434-.LFB434
 3795 003c 07       		.byte	0x7
 3796 003d 00000000 		.4byte	.LFB435
 3797 0041 64       		.uleb128 .LFE435-.LFB435
 3798 0042 07       		.byte	0x7
 3799 0043 00000000 		.4byte	.LFB436
 3800 0047 8C01     		.uleb128 .LFE436-.LFB436
 3801 0049 07       		.byte	0x7
 3802 004a 00000000 		.4byte	.LFB437
 3803 004e 1C       		.uleb128 .LFE437-.LFB437
 3804 004f 00       		.byte	0
 3805              	.Ldebug_ranges3:
 3806              		.section	.debug_line,"",%progbits
 3807              	.Ldebug_line0:
 3808 0000 78040000 		.section	.debug_str,"MS",%progbits,1
 3808      0300DB02 
 3808      00000201 
 3808      FB0E0D00 
 3808      01010101 
 3809              	.LASF166:
 3810 0000 7278636E 		.ascii	"rxcnt\000"
 3810      7400
 3811              	.LASF222:
 3812 0006 6570315F 		.ascii	"ep1_out_cb\000"
 3812      6F75745F 
 3812      636200
 3813              	.LASF149:
 3814 0011 72657376 		.ascii	"resvd880\000"
 3814      64383830 
 3814      00
 3815              	.LASF101:
 3816 001a 73746D33 		.ascii	"stm32_otg_out_ep_t\000"
 3816      325F6F74 
 3816      675F6F75 
 3816      745F6570 
 3816      5F7400
 3817              	.LASF172:
 3818 002d 6F75745F 		.ascii	"out_cb\000"
 3818      636200
 3819              	.LASF211:
 3820 0034 63685365 		.ascii	"chSemSignalI\000"
 3820      6D536967 
 3820      6E616C49 
 3820      00
 3821              	.LASF4:
 3822 0041 73697A65 		.ascii	"size_t\000"
 3822      5F7400
ARM GAS  C:\Users\DEVELO~1\AppData\Local\Temp\ccPZimPw.s 			page 69


 3823              	.LASF129:
 3824 0048 48505254 		.ascii	"HPRT\000"
 3824      00
 3825              	.LASF145:
 3826 004d 44494550 		.ascii	"DIEPEMPMSK\000"
 3826      454D504D 
 3826      534B00
 3827              	.LASF223:
 3828 0058 72785F73 		.ascii	"rx_size\000"
 3828      697A6500 
 3829              	.LASF203:
 3830 0060 6570315F 		.ascii	"ep1_out_state\000"
 3830      6F75745F 
 3830      73746174 
 3830      6500
 3831              	.LASF139:
 3832 006e 4441494E 		.ascii	"DAINTMSK\000"
 3832      544D534B 
 3832      00
 3833              	.LASF5:
 3834 0077 5F5F7569 		.ascii	"__uint8_t\000"
 3834      6E74385F 
 3834      7400
 3835              	.LASF104:
 3836 0081 47414842 		.ascii	"GAHBCFG\000"
 3836      43464700 
 3837              	.LASF23:
 3838 0089 70726576 		.ascii	"prev\000"
 3838      00
 3839              	.LASF72:
 3840 008e 75736265 		.ascii	"usbevent_t\000"
 3840      76656E74 
 3840      5F7400
 3841              	.LASF68:
 3842 0099 5553425F 		.ascii	"USB_EVENT_UNCONFIGURED\000"
 3842      4556454E 
 3842      545F554E 
 3842      434F4E46 
 3842      49475552 
 3843              	.LASF133:
 3844 00b0 4443544C 		.ascii	"DCTL\000"
 3844      00
 3845              	.LASF167:
 3846 00b5 72786275 		.ascii	"rxbuf\000"
 3846      6600
 3847              	.LASF234:
 3848 00bb 706F7274 		.ascii	"port_lock\000"
 3848      5F6C6F63 
 3848      6B00
 3849              	.LASF111:
 3850 00c5 47525846 		.ascii	"GRXFSIZ\000"
 3850      53495A00 
 3851              	.LASF59:
 3852 00cd 5553425F 		.ascii	"USB_EP0_IN_WAITING_TX0\000"
 3852      4550305F 
 3852      494E5F57 
 3852      41495449 
ARM GAS  C:\Users\DEVELO~1\AppData\Local\Temp\ccPZimPw.s 			page 70


 3852      4E475F54 
 3853              	.LASF225:
 3854 00e4 61646472 		.ascii	"addr\000"
 3854      00
 3855              	.LASF202:
 3856 00e9 6570325F 		.ascii	"ep2_in_state\000"
 3856      696E5F73 
 3856      74617465 
 3856      00
 3857              	.LASF226:
 3858 00f6 6F73616C 		.ascii	"osalSysUnlockFromISR\000"
 3858      53797355 
 3858      6E6C6F63 
 3858      6B46726F 
 3858      6D495352 
 3859              	.LASF28:
 3860 010b 63685F62 		.ascii	"ch_binary_semaphore\000"
 3860      696E6172 
 3860      795F7365 
 3860      6D617068 
 3860      6F726500 
 3861              	.LASF22:
 3862 011f 6E657874 		.ascii	"next\000"
 3862      00
 3863              	.LASF99:
 3864 0124 444F4550 		.ascii	"DOEPINT\000"
 3864      494E5400 
 3865              	.LASF75:
 3866 012c 55534244 		.ascii	"USBDescriptor\000"
 3866      65736372 
 3866      6970746F 
 3866      7200
 3867              	.LASF85:
 3868 013a 48435453 		.ascii	"HCTSIZ\000"
 3868      495A00
 3869              	.LASF131:
 3870 0141 72657376 		.ascii	"resvd700\000"
 3870      64373030 
 3870      00
 3871              	.LASF127:
 3872 014a 4841494E 		.ascii	"HAINTMSK\000"
 3872      544D534B 
 3872      00
 3873              	.LASF56:
 3874 0153 75736273 		.ascii	"usbstate_t\000"
 3874      74617465 
 3874      5F7400
 3875              	.LASF3:
 3876 015e 7369676E 		.ascii	"signed char\000"
 3876      65642063 
 3876      68617200 
 3877              	.LASF192:
 3878 016a 6D696469 		.ascii	"midi_rx_stats\000"
 3878      5F72785F 
 3878      73746174 
 3878      7300
 3879              	.LASF76:
ARM GAS  C:\Users\DEVELO~1\AppData\Local\Temp\ccPZimPw.s 			page 71


 3880 0178 75736263 		.ascii	"usbcallback_t\000"
 3880      616C6C62 
 3880      61636B5F 
 3880      7400
 3881              	.LASF157:
 3882 0186 6F74675F 		.ascii	"otg_ram_size\000"
 3882      72616D5F 
 3882      73697A65 
 3882      00
 3883              	.LASF188:
 3884 0193 7573625F 		.ascii	"usb_rx_drops\000"
 3884      72785F64 
 3884      726F7073 
 3884      00
 3885              	.LASF155:
 3886 01a0 73746D33 		.ascii	"stm32_otg_t\000"
 3886      325F6F74 
 3886      675F7400 
 3887              	.LASF14:
 3888 01ac 6C6F6E67 		.ascii	"long long unsigned int\000"
 3888      206C6F6E 
 3888      6720756E 
 3888      7369676E 
 3888      65642069 
 3889              	.LASF224:
 3890 01c3 7573625F 		.ascii	"usb_dcache_invalidate\000"
 3890      64636163 
 3890      68655F69 
 3890      6E76616C 
 3890      69646174 
 3891              	.LASF240:
 3892 01d9 62617365 		.ascii	"basePri\000"
 3892      50726900 
 3893              	.LASF122:
 3894 01e1 48464952 		.ascii	"HFIR\000"
 3894      00
 3895              	.LASF235:
 3896 01e6 474E5520 		.ascii	"GNU C17 11.3.1 20220712 -mcpu=cortex-m7 -mthumb -mf"
 3896      43313720 
 3896      31312E33 
 3896      2E312032 
 3896      30323230 
 3897 0219 6C6F6174 		.ascii	"loat-abi=soft -march=armv7e-m -ggdb -O0 -ffunction-"
 3897      2D616269 
 3897      3D736F66 
 3897      74202D6D 
 3897      61726368 
 3898 024c 73656374 		.ascii	"sections -fdata-sections -fno-common\000"
 3898      696F6E73 
 3898      202D6664 
 3898      6174612D 
 3898      73656374 
 3899              	.LASF233:
 3900 0271 706F7274 		.ascii	"port_unlock\000"
 3900      5F756E6C 
 3900      6F636B00 
 3901              	.LASF187:
ARM GAS  C:\Users\DEVELO~1\AppData\Local\Temp\ccPZimPw.s 			page 72


 3902 027d 7573625F 		.ascii	"usb_rx_enqueued\000"
 3902      72785F65 
 3902      6E717565 
 3902      75656400 
 3903              	.LASF112:
 3904 028d 44494550 		.ascii	"DIEPTXF0\000"
 3904      54584630 
 3904      00
 3905              	.LASF32:
 3906 0296 73746174 		.ascii	"state\000"
 3906      6500
 3907              	.LASF37:
 3908 029c 6F75745F 		.ascii	"out_params\000"
 3908      70617261 
 3908      6D7300
 3909              	.LASF134:
 3910 02a7 44535453 		.ascii	"DSTS\000"
 3910      00
 3911              	.LASF80:
 3912 02ac 75736267 		.ascii	"usbgetdescriptor_t\000"
 3912      65746465 
 3912      73637269 
 3912      70746F72 
 3912      5F7400
 3913              	.LASF130:
 3914 02bf 72657376 		.ascii	"resvd444\000"
 3914      64343434 
 3914      00
 3915              	.LASF140:
 3916 02c8 72657376 		.ascii	"resvd820\000"
 3916      64383230 
 3916      00
 3917              	.LASF123:
 3918 02d1 48464E55 		.ascii	"HFNUM\000"
 3918      4D00
 3919              	.LASF78:
 3920 02d7 75736265 		.ascii	"usbeventcb_t\000"
 3920      76656E74 
 3920      63625F74 
 3920      00
 3921              	.LASF141:
 3922 02e4 72657376 		.ascii	"resvd824\000"
 3922      64383234 
 3922      00
 3923              	.LASF70:
 3924 02ed 5553425F 		.ascii	"USB_EVENT_WAKEUP\000"
 3924      4556454E 
 3924      545F5741 
 3924      4B455550 
 3924      00
 3925              	.LASF16:
 3926 02fe 75696E74 		.ascii	"uint16_t\000"
 3926      31365F74 
 3926      00
 3927              	.LASF189:
 3928 0307 7573625F 		.ascii	"usb_rx_decoded\000"
 3928      72785F64 
ARM GAS  C:\Users\DEVELO~1\AppData\Local\Temp\ccPZimPw.s 			page 73


 3928      65636F64 
 3928      656400
 3929              	.LASF64:
 3930 0316 75736265 		.ascii	"usbep0state_t\000"
 3930      70307374 
 3930      6174655F 
 3930      7400
 3931              	.LASF163:
 3932 0324 746F7473 		.ascii	"totsize\000"
 3932      697A6500 
 3933              	.LASF71:
 3934 032c 5553425F 		.ascii	"USB_EVENT_STALLED\000"
 3934      4556454E 
 3934      545F5354 
 3934      414C4C45 
 3934      4400
 3935              	.LASF21:
 3936 033e 63685F71 		.ascii	"ch_queue_t\000"
 3936      75657565 
 3936      5F7400
 3937              	.LASF227:
 3938 0349 6F73616C 		.ascii	"osalSysLockFromISR\000"
 3938      5379734C 
 3938      6F636B46 
 3938      726F6D49 
 3938      535200
 3939              	.LASF103:
 3940 035c 474F5447 		.ascii	"GOTGINT\000"
 3940      494E5400 
 3941              	.LASF2:
 3942 0364 6C6F6E67 		.ascii	"long double\000"
 3942      20646F75 
 3942      626C6500 
 3943              	.LASF198:
 3944 0370 73747269 		.ascii	"string1\000"
 3944      6E673100 
 3945              	.LASF199:
 3946 0378 73747269 		.ascii	"string2\000"
 3946      6E673200 
 3947              	.LASF200:
 3948 0380 73747269 		.ascii	"string3\000"
 3948      6E673300 
 3949              	.LASF12:
 3950 0388 5F5F7569 		.ascii	"__uint32_t\000"
 3950      6E743332 
 3950      5F7400
 3951              	.LASF19:
 3952 0393 636E745F 		.ascii	"cnt_t\000"
 3952      7400
 3953              	.LASF190:
 3954 0399 7573625F 		.ascii	"usb_rx_ignored\000"
 3954      72785F69 
 3954      676E6F72 
 3954      656400
 3955              	.LASF0:
 3956 03a8 756E7369 		.ascii	"unsigned int\000"
 3956      676E6564 
ARM GAS  C:\Users\DEVELO~1\AppData\Local\Temp\ccPZimPw.s 			page 74


 3956      20696E74 
 3956      00
 3957              	.LASF54:
 3958 03b5 5553425F 		.ascii	"USB_ACTIVE\000"
 3958      41435449 
 3958      564500
 3959              	.LASF49:
 3960 03c0 75736265 		.ascii	"usbep_t\000"
 3960      705F7400 
 3961              	.LASF162:
 3962 03c8 74786275 		.ascii	"txbuf\000"
 3962      6600
 3963              	.LASF73:
 3964 03ce 75645F73 		.ascii	"ud_size\000"
 3964      697A6500 
 3965              	.LASF108:
 3966 03d6 47494E54 		.ascii	"GINTMSK\000"
 3966      4D534B00 
 3967              	.LASF33:
 3968 03de 636F6E66 		.ascii	"config\000"
 3968      696700
 3969              	.LASF152:
 3970 03e5 50434743 		.ascii	"PCGCCTL\000"
 3970      43544C00 
 3971              	.LASF144:
 3972 03ed 72657376 		.ascii	"resvd830\000"
 3972      64383330 
 3972      00
 3973              	.LASF213:
 3974 03f6 75736253 		.ascii	"usbStartReceiveI\000"
 3974      74617274 
 3974      52656365 
 3974      69766549 
 3974      00
 3975              	.LASF86:
 3976 0407 72657376 		.ascii	"resvd14\000"
 3976      64313400 
 3977              	.LASF237:
 3978 040f 433A5C50 		.ascii	"C:\\PROJET\\ChibiOS project\\ChibiOS_21.11.4\\demos"
 3978      524F4A45 
 3978      545C4368 
 3978      6962694F 
 3978      53207072 
 3979 043e 5C53544D 		.ascii	"\\STM32\\RT-STM32H743ZI_REV_XY-NUCLEO144_Quartz8M\000"
 3979      33325C52 
 3979      542D5354 
 3979      4D333248 
 3979      3734335A 
 3980              	.LASF87:
 3981 046e 72657376 		.ascii	"resvd18\000"
 3981      64313800 
 3982              	.LASF146:
 3983 0476 72657376 		.ascii	"resvd838\000"
 3983      64383338 
 3983      00
 3984              	.LASF26:
 3985 047f 71756575 		.ascii	"queue\000"
ARM GAS  C:\Users\DEVELO~1\AppData\Local\Temp\ccPZimPw.s 			page 75


 3985      6500
 3986              	.LASF34:
 3987 0485 7472616E 		.ascii	"transmitting\000"
 3987      736D6974 
 3987      74696E67 
 3987      00
 3988              	.LASF171:
 3989 0492 696E5F63 		.ascii	"in_cb\000"
 3989      6200
 3990              	.LASF39:
 3991 0498 6570306E 		.ascii	"ep0next\000"
 3991      65787400 
 3992              	.LASF217:
 3993 04a0 6576656E 		.ascii	"event\000"
 3993      7400
 3994              	.LASF96:
 3995 04a6 72657376 		.ascii	"resvd1C\000"
 3995      64314300 
 3996              	.LASF147:
 3997 04ae 72657376 		.ascii	"resvd83C\000"
 3997      64383343 
 3997      00
 3998              	.LASF1:
 3999 04b7 6C6F6E67 		.ascii	"long long int\000"
 3999      206C6F6E 
 3999      6720696E 
 3999      7400
 4000              	.LASF180:
 4001 04c5 6576656E 		.ascii	"event_cb\000"
 4001      745F6362 
 4001      00
 4002              	.LASF107:
 4003 04ce 47494E54 		.ascii	"GINTSTS\000"
 4003      53545300 
 4004              	.LASF100:
 4005 04d6 444F4550 		.ascii	"DOEPTSIZ\000"
 4005      5453495A 
 4005      00
 4006              	.LASF159:
 4007 04df 73746D33 		.ascii	"stm32_otg_params_t\000"
 4007      325F6F74 
 4007      675F7061 
 4007      72616D73 
 4007      5F7400
 4008              	.LASF196:
 4009 04f2 636F6E66 		.ascii	"config_descriptor\000"
 4009      69675F64 
 4009      65736372 
 4009      6970746F 
 4009      7200
 4010              	.LASF154:
 4011 0504 4649464F 		.ascii	"FIFO\000"
 4011      00
 4012              	.LASF60:
 4013 0509 5553425F 		.ascii	"USB_EP0_IN_SENDING_STS\000"
 4013      4550305F 
 4013      494E5F53 
ARM GAS  C:\Users\DEVELO~1\AppData\Local\Temp\ccPZimPw.s 			page 76


 4013      454E4449 
 4013      4E475F53 
 4014              	.LASF62:
 4015 0520 5553425F 		.ascii	"USB_EP0_OUT_RX\000"
 4015      4550305F 
 4015      4F55545F 
 4015      525800
 4016              	.LASF89:
 4017 052f 73746D33 		.ascii	"stm32_otg_host_chn_t\000"
 4017      325F6F74 
 4017      675F686F 
 4017      73745F63 
 4017      686E5F74 
 4018              	.LASF47:
 4019 0544 6F746770 		.ascii	"otgparams\000"
 4019      6172616D 
 4019      7300
 4020              	.LASF40:
 4021 054e 6570306E 		.ascii	"ep0n\000"
 4021      00
 4022              	.LASF106:
 4023 0553 47525354 		.ascii	"GRSTCTL\000"
 4023      43544C00 
 4024              	.LASF201:
 4025 055b 73747269 		.ascii	"strings\000"
 4025      6E677300 
 4026              	.LASF35:
 4027 0563 72656365 		.ascii	"receiving\000"
 4027      6976696E 
 4027      6700
 4028              	.LASF88:
 4029 056d 72657376 		.ascii	"resvd1c\000"
 4029      64316300 
 4030              	.LASF10:
 4031 0575 5F5F696E 		.ascii	"__int32_t\000"
 4031      7433325F 
 4031      7400
 4032              	.LASF209:
 4033 057f 6570325F 		.ascii	"ep2_in_cfg\000"
 4033      696E5F63 
 4033      666700
 4034              	.LASF58:
 4035 058a 5553425F 		.ascii	"USB_EP0_IN_TX\000"
 4035      4550305F 
 4035      494E5F54 
 4035      5800
 4036              	.LASF182:
 4037 0598 72657175 		.ascii	"requests_hook_cb\000"
 4037      65737473 
 4037      5F686F6F 
 4037      6B5F6362 
 4037      00
 4038              	.LASF57:
 4039 05a9 5553425F 		.ascii	"USB_EP0_STP_WAITING\000"
 4039      4550305F 
 4039      5354505F 
 4039      57414954 
ARM GAS  C:\Users\DEVELO~1\AppData\Local\Temp\ccPZimPw.s 			page 77


 4039      494E4700 
 4040              	.LASF97:
 4041 05bd 73746D33 		.ascii	"stm32_otg_in_ep_t\000"
 4041      325F6F74 
 4041      675F696E 
 4041      5F65705F 
 4041      7400
 4042              	.LASF205:
 4043 05cf 7573625F 		.ascii	"usb_midi_rx_invalid_size\000"
 4043      6D696469 
 4043      5F72785F 
 4043      696E7661 
 4043      6C69645F 
 4044              	.LASF148:
 4045 05e8 72657376 		.ascii	"resvd840\000"
 4045      64383430 
 4045      00
 4046              	.LASF109:
 4047 05f1 47525853 		.ascii	"GRXSTSR\000"
 4047      54535200 
 4048              	.LASF118:
 4049 05f9 48505458 		.ascii	"HPTXFSIZ\000"
 4049      4653495A 
 4049      00
 4050              	.LASF160:
 4051 0602 74787369 		.ascii	"txsize\000"
 4051      7A6500
 4052              	.LASF206:
 4053 0609 74785F73 		.ascii	"tx_sem\000"
 4053      656D00
 4054              	.LASF74:
 4055 0610 75645F73 		.ascii	"ud_string\000"
 4055      7472696E 
 4055      6700
 4056              	.LASF158:
 4057 061a 6E756D5F 		.ascii	"num_endpoints\000"
 4057      656E6470 
 4057      6F696E74 
 4057      7300
 4058              	.LASF212:
 4059 0628 6D696469 		.ascii	"midi_usb_rx_submit_from_isr\000"
 4059      5F757362 
 4059      5F72785F 
 4059      7375626D 
 4059      69745F66 
 4060              	.LASF90:
 4061 0644 44494550 		.ascii	"DIEPCTL\000"
 4061      43544C00 
 4062              	.LASF44:
 4063 064c 61646472 		.ascii	"address\000"
 4063      65737300 
 4064              	.LASF176:
 4065 0654 6F75745F 		.ascii	"out_state\000"
 4065      73746174 
 4065      6500
 4066              	.LASF178:
 4067 065e 73657475 		.ascii	"setup_buf\000"
ARM GAS  C:\Users\DEVELO~1\AppData\Local\Temp\ccPZimPw.s 			page 78


 4067      705F6275 
 4067      6600
 4068              	.LASF79:
 4069 0668 75736272 		.ascii	"usbreqhandler_t\000"
 4069      65716861 
 4069      6E646C65 
 4069      725F7400 
 4070              	.LASF168:
 4071 0678 5553424F 		.ascii	"USBOutEndpointState\000"
 4071      7574456E 
 4071      64706F69 
 4071      6E745374 
 4071      61746500 
 4072              	.LASF84:
 4073 068c 4843494E 		.ascii	"HCINTMSK\000"
 4073      544D534B 
 4073      00
 4074              	.LASF221:
 4075 0695 6570325F 		.ascii	"ep2_in_cb\000"
 4075      696E5F63 
 4075      6200
 4076              	.LASF83:
 4077 069f 4843494E 		.ascii	"HCINT\000"
 4077      5400
 4078              	.LASF42:
 4079 06a5 73657475 		.ascii	"setup\000"
 4079      7000
 4080              	.LASF94:
 4081 06ab 44494550 		.ascii	"DIEPTSIZ\000"
 4081      5453495A 
 4081      00
 4082              	.LASF136:
 4083 06b4 44494550 		.ascii	"DIEPMSK\000"
 4083      4D534B00 
 4084              	.LASF183:
 4085 06bc 736F665F 		.ascii	"sof_cb\000"
 4085      636200
 4086              	.LASF179:
 4087 06c3 55534245 		.ascii	"USBEndpointConfig\000"
 4087      6E64706F 
 4087      696E7443 
 4087      6F6E6669 
 4087      6700
 4088              	.LASF63:
 4089 06d5 5553425F 		.ascii	"USB_EP0_ERROR\000"
 4089      4550305F 
 4089      4552524F 
 4089      5200
 4090              	.LASF170:
 4091 06e3 73657475 		.ascii	"setup_cb\000"
 4091      705F6362 
 4091      00
 4092              	.LASF105:
 4093 06ec 47555342 		.ascii	"GUSBCFG\000"
 4093      43464700 
 4094              	.LASF218:
 4095 06f4 64747970 		.ascii	"dtype\000"
ARM GAS  C:\Users\DEVELO~1\AppData\Local\Temp\ccPZimPw.s 			page 79


 4095      6500
 4096              	.LASF236:
 4097 06fa 7573622F 		.ascii	"usb/usbcfg.c\000"
 4097      75736263 
 4097      66672E63 
 4097      00
 4098              	.LASF48:
 4099 0707 706D6E65 		.ascii	"pmnext\000"
 4099      787400
 4100              	.LASF207:
 4101 070e 736F665F 		.ascii	"sof_sem\000"
 4101      73656D00 
 4102              	.LASF173:
 4103 0716 696E5F6D 		.ascii	"in_maxsize\000"
 4103      61787369 
 4103      7A6500
 4104              	.LASF114:
 4105 0721 72657376 		.ascii	"resvd30\000"
 4105      64333000 
 4106              	.LASF66:
 4107 0729 5553425F 		.ascii	"USB_EVENT_ADDRESS\000"
 4107      4556454E 
 4107      545F4144 
 4107      44524553 
 4107      5300
 4108              	.LASF153:
 4109 073b 72657376 		.ascii	"resvdE04\000"
 4109      64453034 
 4109      00
 4110              	.LASF115:
 4111 0744 72657376 		.ascii	"resvd34\000"
 4111      64333400 
 4112              	.LASF91:
 4113 074c 72657376 		.ascii	"resvd4\000"
 4113      643400
 4114              	.LASF29:
 4115 0753 62696E61 		.ascii	"binary_semaphore_t\000"
 4115      72795F73 
 4115      656D6170 
 4115      686F7265 
 4115      5F7400
 4116              	.LASF229:
 4117 0766 63685379 		.ascii	"chSysUnlockFromISR\000"
 4117      73556E6C 
 4117      6F636B46 
 4117      726F6D49 
 4117      535200
 4118              	.LASF82:
 4119 0779 72657376 		.ascii	"resvd8\000"
 4119      643800
 4120              	.LASF52:
 4121 0780 5553425F 		.ascii	"USB_READY\000"
 4121      52454144 
 4121      5900
 4122              	.LASF51:
 4123 078a 5553425F 		.ascii	"USB_STOP\000"
 4123      53544F50 
ARM GAS  C:\Users\DEVELO~1\AppData\Local\Temp\ccPZimPw.s 			page 80


 4123      00
 4124              	.LASF24:
 4125 0793 63685F71 		.ascii	"ch_queue\000"
 4125      75657565 
 4125      00
 4126              	.LASF30:
 4127 079c 5F426F6F 		.ascii	"_Bool\000"
 4127      6C00
 4128              	.LASF17:
 4129 07a2 696E7433 		.ascii	"int32_t\000"
 4129      325F7400 
 4130              	.LASF6:
 4131 07aa 756E7369 		.ascii	"unsigned char\000"
 4131      676E6564 
 4131      20636861 
 4131      7200
 4132              	.LASF215:
 4133 07b8 7573625F 		.ascii	"usb_event\000"
 4133      6576656E 
 4133      7400
 4134              	.LASF93:
 4135 07c2 72657376 		.ascii	"resvdC\000"
 4135      644300
 4136              	.LASF92:
 4137 07c9 44494550 		.ascii	"DIEPINT\000"
 4137      494E5400 
 4138              	.LASF138:
 4139 07d1 4441494E 		.ascii	"DAINT\000"
 4139      5400
 4140              	.LASF7:
 4141 07d7 73686F72 		.ascii	"short int\000"
 4141      7420696E 
 4141      7400
 4142              	.LASF156:
 4143 07e1 72785F66 		.ascii	"rx_fifo_size\000"
 4143      69666F5F 
 4143      73697A65 
 4143      00
 4144              	.LASF210:
 4145 07ee 75736249 		.ascii	"usbInitEndpointI\000"
 4145      6E697445 
 4145      6E64706F 
 4145      696E7449 
 4145      00
 4146              	.LASF181:
 4147 07ff 6765745F 		.ascii	"get_descriptor_cb\000"
 4147      64657363 
 4147      72697074 
 4147      6F725F63 
 4147      6200
 4148              	.LASF185:
 4149 0811 7573625F 		.ascii	"usb_midi_tx_ready\000"
 4149      6D696469 
 4149      5F74785F 
 4149      72656164 
 4149      7900
 4150              	.LASF53:
ARM GAS  C:\Users\DEVELO~1\AppData\Local\Temp\ccPZimPw.s 			page 81


 4151 0823 5553425F 		.ascii	"USB_SELECTED\000"
 4151      53454C45 
 4151      43544544 
 4151      00
 4152              	.LASF143:
 4153 0830 44564255 		.ascii	"DVBUSPULSE\000"
 4153      5350554C 
 4153      534500
 4154              	.LASF46:
 4155 083b 73617665 		.ascii	"saved_state\000"
 4155      645F7374 
 4155      61746500 
 4156              	.LASF125:
 4157 0847 48505458 		.ascii	"HPTXSTS\000"
 4157      53545300 
 4158              	.LASF27:
 4159 084f 73656D61 		.ascii	"semaphore_t\000"
 4159      70686F72 
 4159      655F7400 
 4160              	.LASF175:
 4161 085b 696E5F73 		.ascii	"in_state\000"
 4161      74617465 
 4161      00
 4162              	.LASF208:
 4163 0864 6570315F 		.ascii	"ep1_out_cfg\000"
 4163      6F75745F 
 4163      63666700 
 4164              	.LASF124:
 4165 0870 72657376 		.ascii	"resvd40C\000"
 4165      64343043 
 4165      00
 4166              	.LASF25:
 4167 0879 63685F73 		.ascii	"ch_semaphore\000"
 4167      656D6170 
 4167      686F7265 
 4167      00
 4168              	.LASF220:
 4169 0886 6C616E67 		.ascii	"lang\000"
 4169      00
 4170              	.LASF69:
 4171 088b 5553425F 		.ascii	"USB_EVENT_SUSPEND\000"
 4171      4556454E 
 4171      545F5355 
 4171      5350454E 
 4171      4400
 4172              	.LASF38:
 4173 089d 65703073 		.ascii	"ep0state\000"
 4173      74617465 
 4173      00
 4174              	.LASF184:
 4175 08a6 55534243 		.ascii	"USBConfig\000"
 4175      6F6E6669 
 4175      6700
 4176              	.LASF195:
 4177 08b0 636F6E66 		.ascii	"config_descriptor_data\000"
 4177      69675F64 
 4177      65736372 
ARM GAS  C:\Users\DEVELO~1\AppData\Local\Temp\ccPZimPw.s 			page 82


 4177      6970746F 
 4177      725F6461 
 4178              	.LASF120:
 4179 08c7 72657376 		.ascii	"resvd140\000"
 4179      64313430 
 4179      00
 4180              	.LASF194:
 4181 08d0 64657669 		.ascii	"device_descriptor\000"
 4181      63655F64 
 4181      65736372 
 4181      6970746F 
 4181      7200
 4182              	.LASF20:
 4183 08e2 63686172 		.ascii	"char\000"
 4183      00
 4184              	.LASF186:
 4185 08e7 75736263 		.ascii	"usbcfg\000"
 4185      666700
 4186              	.LASF126:
 4187 08ee 4841494E 		.ascii	"HAINT\000"
 4187      5400
 4188              	.LASF65:
 4189 08f4 5553425F 		.ascii	"USB_EVENT_RESET\000"
 4189      4556454E 
 4189      545F5245 
 4189      53455400 
 4190              	.LASF8:
 4191 0904 5F5F7569 		.ascii	"__uint16_t\000"
 4191      6E743136 
 4191      5F7400
 4192              	.LASF121:
 4193 090f 48434647 		.ascii	"HCFG\000"
 4193      00
 4194              	.LASF231:
 4195 0914 706F7274 		.ascii	"port_unlock_from_isr\000"
 4195      5F756E6C 
 4195      6F636B5F 
 4195      66726F6D 
 4195      5F697372 
 4196              	.LASF191:
 4197 0929 6D696469 		.ascii	"midi_rx_stats_t\000"
 4197      5F72785F 
 4197      73746174 
 4197      735F7400 
 4198              	.LASF151:
 4199 0939 72657376 		.ascii	"resvdD00\000"
 4199      64443030 
 4199      00
 4200              	.LASF15:
 4201 0942 75696E74 		.ascii	"uint8_t\000"
 4201      385F7400 
 4202              	.LASF110:
 4203 094a 47525853 		.ascii	"GRXSTSP\000"
 4203      54535000 
 4204              	.LASF239:
 4205 0952 5F5F7365 		.ascii	"__set_BASEPRI\000"
 4205      745F4241 
ARM GAS  C:\Users\DEVELO~1\AppData\Local\Temp\ccPZimPw.s 			page 83


 4205      53455052 
 4205      4900
 4206              	.LASF67:
 4207 0960 5553425F 		.ascii	"USB_EVENT_CONFIGURED\000"
 4207      4556454E 
 4207      545F434F 
 4207      4E464947 
 4207      55524544 
 4208              	.LASF41:
 4209 0975 65703065 		.ascii	"ep0endcb\000"
 4209      6E646362 
 4209      00
 4210              	.LASF150:
 4211 097e 72657376 		.ascii	"resvd8C0\000"
 4211      64384330 
 4211      00
 4212              	.LASF102:
 4213 0987 474F5447 		.ascii	"GOTGCTL\000"
 4213      43544C00 
 4214              	.LASF9:
 4215 098f 73686F72 		.ascii	"short unsigned int\000"
 4215      7420756E 
 4215      7369676E 
 4215      65642069 
 4215      6E7400
 4216              	.LASF216:
 4217 09a2 75736270 		.ascii	"usbp\000"
 4217      00
 4218              	.LASF232:
 4219 09a7 706F7274 		.ascii	"port_lock_from_isr\000"
 4219      5F6C6F63 
 4219      6B5F6672 
 4219      6F6D5F69 
 4219      737200
 4220              	.LASF142:
 4221 09ba 44564255 		.ascii	"DVBUSDIS\000"
 4221      53444953 
 4221      00
 4222              	.LASF169:
 4223 09c3 65705F6D 		.ascii	"ep_mode\000"
 4223      6F646500 
 4224              	.LASF128:
 4225 09cb 72657376 		.ascii	"resvd41C\000"
 4225      64343143 
 4225      00
 4226              	.LASF98:
 4227 09d4 444F4550 		.ascii	"DOEPCTL\000"
 4227      43544C00 
 4228              	.LASF161:
 4229 09dc 7478636E 		.ascii	"txcnt\000"
 4229      7400
 4230              	.LASF18:
 4231 09e2 75696E74 		.ascii	"uint32_t\000"
 4231      33325F74 
 4231      00
 4232              	.LASF214:
 4233 09eb 736F665F 		.ascii	"sof_handler\000"
ARM GAS  C:\Users\DEVELO~1\AppData\Local\Temp\ccPZimPw.s 			page 84


 4233      68616E64 
 4233      6C657200 
 4234              	.LASF36:
 4235 09f7 696E5F70 		.ascii	"in_params\000"
 4235      6172616D 
 4235      7300
 4236              	.LASF61:
 4237 0a01 5553425F 		.ascii	"USB_EP0_OUT_WAITING_STS\000"
 4237      4550305F 
 4237      4F55545F 
 4237      57414954 
 4237      494E475F 
 4238              	.LASF174:
 4239 0a19 6F75745F 		.ascii	"out_maxsize\000"
 4239      6D617873 
 4239      697A6500 
 4240              	.LASF43:
 4241 0a25 73746174 		.ascii	"status\000"
 4241      757300
 4242              	.LASF77:
 4243 0a2c 75736265 		.ascii	"usbepcallback_t\000"
 4243      7063616C 
 4243      6C626163 
 4243      6B5F7400 
 4244              	.LASF117:
 4245 0a3c 72657376 		.ascii	"resvd58\000"
 4245      64353800 
 4246              	.LASF164:
 4247 0a44 55534249 		.ascii	"USBInEndpointState\000"
 4247      6E456E64 
 4247      706F696E 
 4247      74537461 
 4247      746500
 4248              	.LASF31:
 4249 0a57 55534244 		.ascii	"USBDriver\000"
 4249      72697665 
 4249      7200
 4250              	.LASF204:
 4251 0a61 72785F70 		.ascii	"rx_pkt\000"
 4251      6B7400
 4252              	.LASF132:
 4253 0a68 44434647 		.ascii	"DCFG\000"
 4253      00
 4254              	.LASF165:
 4255 0a6d 72787369 		.ascii	"rxsize\000"
 4255      7A6500
 4256              	.LASF137:
 4257 0a74 444F4550 		.ascii	"DOEPMSK\000"
 4257      4D534B00 
 4258              	.LASF238:
 4259 0a7c 6765745F 		.ascii	"get_descriptor\000"
 4259      64657363 
 4259      72697074 
 4259      6F7200
 4260              	.LASF228:
 4261 0a8b 63684253 		.ascii	"chBSemSignalI\000"
 4261      656D5369 
ARM GAS  C:\Users\DEVELO~1\AppData\Local\Temp\ccPZimPw.s 			page 85


 4261      676E616C 
 4261      4900
 4262              	.LASF116:
 4263 0a99 47434346 		.ascii	"GCCFG\000"
 4263      4700
 4264              	.LASF230:
 4265 0a9f 63685379 		.ascii	"chSysLockFromISR\000"
 4265      734C6F63 
 4265      6B46726F 
 4265      6D495352 
 4265      00
 4266              	.LASF95:
 4267 0ab0 44545846 		.ascii	"DTXFSTS\000"
 4267      53545300 
 4268              	.LASF81:
 4269 0ab8 48434348 		.ascii	"HCCHAR\000"
 4269      415200
 4270              	.LASF197:
 4271 0abf 73747269 		.ascii	"string0\000"
 4271      6E673000 
 4272              	.LASF11:
 4273 0ac7 6C6F6E67 		.ascii	"long int\000"
 4273      20696E74 
 4273      00
 4274              	.LASF119:
 4275 0ad0 44494550 		.ascii	"DIEPTXF\000"
 4275      54584600 
 4276              	.LASF13:
 4277 0ad8 6C6F6E67 		.ascii	"long unsigned int\000"
 4277      20756E73 
 4277      69676E65 
 4277      6420696E 
 4277      7400
 4278              	.LASF55:
 4279 0aea 5553425F 		.ascii	"USB_SUSPENDED\000"
 4279      53555350 
 4279      454E4445 
 4279      4400
 4280              	.LASF50:
 4281 0af8 5553425F 		.ascii	"USB_UNINIT\000"
 4281      554E494E 
 4281      495400
 4282              	.LASF113:
 4283 0b03 484E5054 		.ascii	"HNPTXSTS\000"
 4283      58535453 
 4283      00
 4284              	.LASF45:
 4285 0b0c 636F6E66 		.ascii	"configuration\000"
 4285      69677572 
 4285      6174696F 
 4285      6E00
 4286              	.LASF177:
 4287 0b1a 696E5F6D 		.ascii	"in_multiplier\000"
 4287      756C7469 
 4287      706C6965 
 4287      7200
 4288              	.LASF219:
ARM GAS  C:\Users\DEVELO~1\AppData\Local\Temp\ccPZimPw.s 			page 86


 4289 0b28 64696E64 		.ascii	"dindex\000"
 4289      657800
 4290              	.LASF135:
 4291 0b2f 72657376 		.ascii	"resvd80C\000"
 4291      64383043 
 4291      00
 4292              	.LASF193:
 4293 0b38 64657669 		.ascii	"device_descriptor_data\000"
 4293      63655F64 
 4293      65736372 
 4293      6970746F 
 4293      725F6461 
 4294              		.ident	"GCC: (Arm GNU Toolchain 11.3.Rel1) 11.3.1 20220712"
ARM GAS  C:\Users\DEVELO~1\AppData\Local\Temp\ccPZimPw.s 			page 87


DEFINED SYMBOLS
                            *ABS*:00000000 usbcfg.c
C:\Users\DEVELO~1\AppData\Local\Temp\ccPZimPw.s:18     .text.chSysLockFromISR:00000000 $t
C:\Users\DEVELO~1\AppData\Local\Temp\ccPZimPw.s:23     .text.chSysLockFromISR:00000000 chSysLockFromISR
C:\Users\DEVELO~1\AppData\Local\Temp\ccPZimPw.s:83     .text.chSysUnlockFromISR:00000000 $t
C:\Users\DEVELO~1\AppData\Local\Temp\ccPZimPw.s:88     .text.chSysUnlockFromISR:00000000 chSysUnlockFromISR
C:\Users\DEVELO~1\AppData\Local\Temp\ccPZimPw.s:145    .text.chBSemSignalI:00000000 $t
C:\Users\DEVELO~1\AppData\Local\Temp\ccPZimPw.s:150    .text.chBSemSignalI:00000000 chBSemSignalI
C:\Users\DEVELO~1\AppData\Local\Temp\ccPZimPw.s:189    .text.osalSysLockFromISR:00000000 $t
C:\Users\DEVELO~1\AppData\Local\Temp\ccPZimPw.s:194    .text.osalSysLockFromISR:00000000 osalSysLockFromISR
C:\Users\DEVELO~1\AppData\Local\Temp\ccPZimPw.s:216    .text.osalSysUnlockFromISR:00000000 $t
C:\Users\DEVELO~1\AppData\Local\Temp\ccPZimPw.s:221    .text.osalSysUnlockFromISR:00000000 osalSysUnlockFromISR
C:\Users\DEVELO~1\AppData\Local\Temp\ccPZimPw.s:242    .text.usb_dcache_invalidate:00000000 $t
C:\Users\DEVELO~1\AppData\Local\Temp\ccPZimPw.s:247    .text.usb_dcache_invalidate:00000000 usb_dcache_invalidate
C:\Users\DEVELO~1\AppData\Local\Temp\ccPZimPw.s:282    .bss.usb_midi_tx_ready:00000000 usb_midi_tx_ready
C:\Users\DEVELO~1\AppData\Local\Temp\ccPZimPw.s:283    .bss.usb_midi_tx_ready:00000000 $d
C:\Users\DEVELO~1\AppData\Local\Temp\ccPZimPw.s:285    .rodata.device_descriptor_data:00000000 $d
C:\Users\DEVELO~1\AppData\Local\Temp\ccPZimPw.s:288    .rodata.device_descriptor_data:00000000 device_descriptor_data
C:\Users\DEVELO~1\AppData\Local\Temp\ccPZimPw.s:292    .rodata.device_descriptor:00000000 $d
C:\Users\DEVELO~1\AppData\Local\Temp\ccPZimPw.s:295    .rodata.device_descriptor:00000000 device_descriptor
C:\Users\DEVELO~1\AppData\Local\Temp\ccPZimPw.s:299    .rodata.config_descriptor_data:00000000 $d
C:\Users\DEVELO~1\AppData\Local\Temp\ccPZimPw.s:302    .rodata.config_descriptor_data:00000000 config_descriptor_data
C:\Users\DEVELO~1\AppData\Local\Temp\ccPZimPw.s:310    .rodata.config_descriptor:00000000 $d
C:\Users\DEVELO~1\AppData\Local\Temp\ccPZimPw.s:313    .rodata.config_descriptor:00000000 config_descriptor
C:\Users\DEVELO~1\AppData\Local\Temp\ccPZimPw.s:317    .rodata.string0:00000000 $d
C:\Users\DEVELO~1\AppData\Local\Temp\ccPZimPw.s:320    .rodata.string0:00000000 string0
C:\Users\DEVELO~1\AppData\Local\Temp\ccPZimPw.s:323    .rodata.string1:00000000 $d
C:\Users\DEVELO~1\AppData\Local\Temp\ccPZimPw.s:326    .rodata.string1:00000000 string1
C:\Users\DEVELO~1\AppData\Local\Temp\ccPZimPw.s:329    .rodata.string2:00000000 $d
C:\Users\DEVELO~1\AppData\Local\Temp\ccPZimPw.s:332    .rodata.string2:00000000 string2
C:\Users\DEVELO~1\AppData\Local\Temp\ccPZimPw.s:335    .rodata.string3:00000000 $d
C:\Users\DEVELO~1\AppData\Local\Temp\ccPZimPw.s:338    .rodata.string3:00000000 string3
C:\Users\DEVELO~1\AppData\Local\Temp\ccPZimPw.s:341    .rodata.strings:00000000 $d
C:\Users\DEVELO~1\AppData\Local\Temp\ccPZimPw.s:344    .rodata.strings:00000000 strings
C:\Users\DEVELO~1\AppData\Local\Temp\ccPZimPw.s:354    .bss.ep2_in_state:00000000 $d
C:\Users\DEVELO~1\AppData\Local\Temp\ccPZimPw.s:357    .bss.ep2_in_state:00000000 ep2_in_state
C:\Users\DEVELO~1\AppData\Local\Temp\ccPZimPw.s:360    .bss.ep1_out_state:00000000 $d
C:\Users\DEVELO~1\AppData\Local\Temp\ccPZimPw.s:363    .bss.ep1_out_state:00000000 ep1_out_state
C:\Users\DEVELO~1\AppData\Local\Temp\ccPZimPw.s:366    .bss.rx_pkt:00000000 $d
C:\Users\DEVELO~1\AppData\Local\Temp\ccPZimPw.s:369    .bss.rx_pkt:00000000 rx_pkt
C:\Users\DEVELO~1\AppData\Local\Temp\ccPZimPw.s:372    .bss.usb_midi_rx_invalid_size:00000000 $d
C:\Users\DEVELO~1\AppData\Local\Temp\ccPZimPw.s:375    .bss.usb_midi_rx_invalid_size:00000000 usb_midi_rx_invalid_size
C:\Users\DEVELO~1\AppData\Local\Temp\ccPZimPw.s:378    .text.ep1_out_cb:00000000 $t
C:\Users\DEVELO~1\AppData\Local\Temp\ccPZimPw.s:383    .text.ep1_out_cb:00000000 ep1_out_cb
C:\Users\DEVELO~1\AppData\Local\Temp\ccPZimPw.s:460    .text.ep1_out_cb:00000064 $d
C:\Users\DEVELO~1\AppData\Local\Temp\ccPZimPw.s:468    .text.ep2_in_cb:00000000 $t
C:\Users\DEVELO~1\AppData\Local\Temp\ccPZimPw.s:473    .text.ep2_in_cb:00000000 ep2_in_cb
C:\Users\DEVELO~1\AppData\Local\Temp\ccPZimPw.s:504    .text.ep2_in_cb:0000001c $d
C:\Users\DEVELO~1\AppData\Local\Temp\ccPZimPw.s:509    .rodata.ep1_out_cfg:00000000 $d
C:\Users\DEVELO~1\AppData\Local\Temp\ccPZimPw.s:512    .rodata.ep1_out_cfg:00000000 ep1_out_cfg
C:\Users\DEVELO~1\AppData\Local\Temp\ccPZimPw.s:525    .rodata.ep2_in_cfg:00000000 $d
C:\Users\DEVELO~1\AppData\Local\Temp\ccPZimPw.s:528    .rodata.ep2_in_cfg:00000000 ep2_in_cfg
C:\Users\DEVELO~1\AppData\Local\Temp\ccPZimPw.s:541    .text.get_descriptor:00000000 $t
C:\Users\DEVELO~1\AppData\Local\Temp\ccPZimPw.s:546    .text.get_descriptor:00000000 get_descriptor
C:\Users\DEVELO~1\AppData\Local\Temp\ccPZimPw.s:627    .text.get_descriptor:00000058 $d
C:\Users\DEVELO~1\AppData\Local\Temp\ccPZimPw.s:634    .text.usb_event:00000000 $t
C:\Users\DEVELO~1\AppData\Local\Temp\ccPZimPw.s:639    .text.usb_event:00000000 usb_event
ARM GAS  C:\Users\DEVELO~1\AppData\Local\Temp\ccPZimPw.s 			page 88


C:\Users\DEVELO~1\AppData\Local\Temp\ccPZimPw.s:725    .text.usb_event:00000078 $d
C:\Users\DEVELO~1\AppData\Local\Temp\ccPZimPw.s:734    .text.sof_handler:00000000 $t
C:\Users\DEVELO~1\AppData\Local\Temp\ccPZimPw.s:739    .text.sof_handler:00000000 sof_handler
C:\Users\DEVELO~1\AppData\Local\Temp\ccPZimPw.s:768    .text.sof_handler:00000018 $d
C:\Users\DEVELO~1\AppData\Local\Temp\ccPZimPw.s:777    .rodata.usbcfg:00000000 usbcfg
C:\Users\DEVELO~1\AppData\Local\Temp\ccPZimPw.s:774    .rodata.usbcfg:00000000 $d

UNDEFINED SYMBOLS
chSemSignalI
usbStartReceiveI
midi_usb_rx_submit_from_isr
midi_rx_stats
tx_sem
usbInitEndpointI
sof_sem
