ARM GAS  C:\Users\DEVELO~1\AppData\Local\Temp\ccgNRDbD.s 			page 1


   1              		.cpu cortex-m7
   2              		.arch armv7e-m
   3              		.fpu softvfp
   4              		.eabi_attribute 20, 1
   5              		.eabi_attribute 21, 1
   6              		.eabi_attribute 23, 3
   7              		.eabi_attribute 24, 1
   8              		.eabi_attribute 25, 1
   9              		.eabi_attribute 26, 1
  10              		.eabi_attribute 30, 6
  11              		.eabi_attribute 34, 1
  12              		.eabi_attribute 18, 4
  13              		.file	"audio_codec_pcm4104.c"
  14              		.text
  15              	.Ltext0:
  16              		.cfi_sections	.debug_frame
  17              		.section	.text.audio_codec_pcm4104_init,"ax",%progbits
  18              		.align	1
  19              		.global	audio_codec_pcm4104_init
  20              		.syntax unified
  21              		.thumb
  22              		.thumb_func
  23              		.type	audio_codec_pcm4104_init, %function
  24              	audio_codec_pcm4104_init:
  25              	.LFB432:
  26              		.file 1 "audio/audio_codec_pcm4104.c"
  27              		.loc 1 19 37
  28              		.cfi_startproc
  29              		@ args = 0, pretend = 0, frame = 0
  30              		@ frame_needed = 1, uses_anonymous_args = 0
  31              		@ link register save eliminated.
  32 0000 80B4     		push	{r7}
  33              		.cfi_def_cfa_offset 4
  34              		.cfi_offset 7, -4
  35 0002 00AF     		add	r7, sp, #0
  36              		.cfi_def_cfa_register 7
  37              		.loc 1 26 1
  38 0004 00BF     		nop
  39 0006 BD46     		mov	sp, r7
  40              		.cfi_def_cfa_register 13
  41              		@ sp needed
  42 0008 80BC     		pop	{r7}
  43              		.cfi_restore 7
  44              		.cfi_def_cfa_offset 0
  45 000a 7047     		bx	lr
  46              		.cfi_endproc
  47              	.LFE432:
  48              		.size	audio_codec_pcm4104_init, .-audio_codec_pcm4104_init
  49              		.section	.text.audio_codec_pcm4104_set_mute,"ax",%progbits
  50              		.align	1
  51              		.global	audio_codec_pcm4104_set_mute
  52              		.syntax unified
  53              		.thumb
  54              		.thumb_func
  55              		.type	audio_codec_pcm4104_set_mute, %function
  56              	audio_codec_pcm4104_set_mute:
  57              	.LFB433:
ARM GAS  C:\Users\DEVELO~1\AppData\Local\Temp\ccgNRDbD.s 			page 2


  58              		.loc 1 28 46
  59              		.cfi_startproc
  60              		@ args = 0, pretend = 0, frame = 8
  61              		@ frame_needed = 1, uses_anonymous_args = 0
  62              		@ link register save eliminated.
  63 0000 80B4     		push	{r7}
  64              		.cfi_def_cfa_offset 4
  65              		.cfi_offset 7, -4
  66 0002 83B0     		sub	sp, sp, #12
  67              		.cfi_def_cfa_offset 16
  68 0004 00AF     		add	r7, sp, #0
  69              		.cfi_def_cfa_register 7
  70 0006 0346     		mov	r3, r0
  71 0008 FB71     		strb	r3, [r7, #7]
  72              		.loc 1 39 1
  73 000a 00BF     		nop
  74 000c 0C37     		adds	r7, r7, #12
  75              		.cfi_def_cfa_offset 4
  76 000e BD46     		mov	sp, r7
  77              		.cfi_def_cfa_register 13
  78              		@ sp needed
  79 0010 80BC     		pop	{r7}
  80              		.cfi_restore 7
  81              		.cfi_def_cfa_offset 0
  82 0012 7047     		bx	lr
  83              		.cfi_endproc
  84              	.LFE433:
  85              		.size	audio_codec_pcm4104_set_mute, .-audio_codec_pcm4104_set_mute
  86              		.text
  87              	.Letext0: