ARM GAS  C:\Users\DEVELO~1\AppData\Local\Temp\ccHeBbUd.s 			page 1


   1              		.cpu cortex-m7
   2              		.arch armv7e-m
   3              		.fpu softvfp
   4              		.eabi_attribute 20, 1
   5              		.eabi_attribute 21, 1
   6              		.eabi_attribute 23, 3
   7              		.eabi_attribute 24, 1
   8              		.eabi_attribute 25, 1
   9              		.eabi_attribute 26, 1
  10              		.eabi_attribute 30, 2
  11              		.eabi_attribute 34, 1
  12              		.eabi_attribute 18, 4
  13              		.file	"board.c"
  14              		.text
  15              	.Ltext0:
  16              		.cfi_sections	.debug_frame
  17              		.section	.text.__early_init,"ax",%progbits
  18              		.align	1
  19              		.p2align 4,,15
  20              		.global	__early_init
  21              		.syntax unified
  22              		.thumb
  23              		.thumb_func
  24              		.type	__early_init, %function
  25              	__early_init:
  26              	.LFB434:
  27              		.file 1 "../../../os/hal/boards/STM32H743_LQFP176_CUSTOM/board.c"
  28              		.loc 1 210 25 view -0
  29              		.cfi_startproc
  30              		@ args = 0, pretend = 0, frame = 0
  31              		@ frame_needed = 0, uses_anonymous_args = 0
  32              		@ link register save eliminated.
  33              		.loc 1 212 3 view .LVU1
  34              	.LBB56:
  35              	.LBI56:
  36              		.loc 1 154 13 view .LVU2
  37              		.loc 1 158 3 view .LVU3
  38              	.LVL0:
  39              	.LBB57:
  40              	.LBI57:
  41              		.file 2 "../../../os/hal/ports/STM32/STM32H7xx/stm32_rcc.h"
  42              		.loc 2 121 22 view .LVU4
  43              	.LBB58:
  44              		.loc 2 124 3 view .LVU5
  45              		.loc 2 124 17 is_stmt 0 view .LVU6
  46 0000 664A     		ldr	r2, .L4
  47 0002 40F2FF70 		movw	r0, #2047
  48              	.LBE58:
  49              	.LBE57:
  50              	.LBB63:
  51              	.LBB64:
  52              		.loc 1 145 18 view .LVU7
  53 0006 0023     		movs	r3, #0
  54              	.LBE64:
  55              	.LBE63:
  56              	.LBB71:
  57              	.LBB59:
ARM GAS  C:\Users\DEVELO~1\AppData\Local\Temp\ccHeBbUd.s 			page 2


  58              		.loc 2 124 17 view .LVU8
  59 0008 D2F88810 		ldr	r1, [r2, #136]
  60 000c 0143     		orrs	r1, r1, r0
  61              	.LBE59:
  62              	.LBE71:
  63              	.LBE56:
  64              		.loc 1 210 25 view .LVU9
  65 000e 70B4     		push	{r4, r5, r6}
  66              		.cfi_def_cfa_offset 12
  67              		.cfi_offset 4, -12
  68              		.cfi_offset 5, -8
  69              		.cfi_offset 6, -4
  70              	.LBB147:
  71              	.LBB72:
  72              	.LBB60:
  73              		.loc 2 124 17 view .LVU10
  74 0010 C2F88810 		str	r1, [r2, #136]
  75              		.loc 2 125 3 is_stmt 1 view .LVU11
  76              		.loc 2 125 17 is_stmt 0 view .LVU12
  77 0014 624C     		ldr	r4, .L4+4
  78 0016 D2F88810 		ldr	r1, [r2, #136]
  79              	.LBE60:
  80              	.LBE72:
  81              	.LBB73:
  82              	.LBB65:
  83              		.loc 1 146 18 view .LVU13
  84 001a 624D     		ldr	r5, .L4+8
  85              	.LBE65:
  86              	.LBE73:
  87              	.LBB74:
  88              	.LBB61:
  89              		.loc 2 125 17 view .LVU14
  90 001c 0C40     		ands	r4, r4, r1
  91              	.LBE61:
  92              	.LBE74:
  93              	.LBB75:
  94              	.LBB66:
  95              		.loc 1 145 18 view .LVU15
  96 001e 6249     		ldr	r1, .L4+12
  97              	.LBE66:
  98              	.LBE75:
  99              	.LBB76:
 100              	.LBB77:
 101              		.loc 1 149 18 view .LVU16
 102 0020 624E     		ldr	r6, .L4+16
 103              	.LBE77:
 104              	.LBE76:
 105              	.LBB80:
 106              	.LBB62:
 107              		.loc 2 125 17 view .LVU17
 108 0022 C2F88840 		str	r4, [r2, #136]
 109              		.loc 2 126 3 is_stmt 1 view .LVU18
 110 0026 D2F88840 		ldr	r4, [r2, #136]
 111              	.LVL1:
 112              		.loc 2 126 3 is_stmt 0 view .LVU19
 113              	.LBE62:
 114              	.LBE80:
ARM GAS  C:\Users\DEVELO~1\AppData\Local\Temp\ccHeBbUd.s 			page 3


 115              		.loc 1 159 3 is_stmt 1 view .LVU20
 116              	.LBB81:
 117              	.LBI81:
 118              		.loc 2 853 22 view .LVU21
 119              	.LBB82:
 120              		.loc 2 857 3 view .LVU22
 121              		.loc 2 857 19 is_stmt 0 view .LVU23
 122 002a D2F8E040 		ldr	r4, [r2, #224]
 123 002e 0443     		orrs	r4, r4, r0
 124 0030 C2F8E040 		str	r4, [r2, #224]
 125              		.loc 2 858 3 is_stmt 1 view .LVU24
 126              		.loc 2 859 5 view .LVU25
 127              		.loc 2 859 23 is_stmt 0 view .LVU26
 128 0034 D2F80841 		ldr	r4, [r2, #264]
 129 0038 0443     		orrs	r4, r4, r0
 130              	.LBE82:
 131              	.LBE81:
 132              	.LBB85:
 133              	.LBB86:
 134              		.loc 1 145 18 view .LVU27
 135 003a 5D48     		ldr	r0, .L4+20
 136              	.LBE86:
 137              	.LBE85:
 138              	.LBB89:
 139              	.LBB83:
 140              		.loc 2 859 23 view .LVU28
 141 003c C2F80841 		str	r4, [r2, #264]
 142              		.loc 2 864 3 is_stmt 1 view .LVU29
 143              	.LBE83:
 144              	.LBE89:
 145              	.LBB90:
 146              	.LBB67:
 147              		.loc 1 148 18 is_stmt 0 view .LVU30
 148 0040 4FF4C044 		mov	r4, #24576
 149              	.LBE67:
 150              	.LBE90:
 151              	.LBB91:
 152              	.LBB84:
 153              		.loc 2 864 3 view .LVU31
 154 0044 D2F80821 		ldr	r2, [r2, #264]
 155              	.LVL2:
 156              		.loc 2 864 3 view .LVU32
 157              	.LBE84:
 158              	.LBE91:
 159              		.loc 1 163 3 is_stmt 1 view .LVU33
 160              	.LBB92:
 161              	.LBI63:
 162              		.loc 1 143 13 view .LVU34
 163              	.LBB68:
 164              		.loc 1 145 3 view .LVU35
 165              		.loc 1 145 18 is_stmt 0 view .LVU36
 166 0048 4B60     		str	r3, [r1, #4]
 167              		.loc 1 146 3 is_stmt 1 view .LVU37
 168              		.loc 1 146 18 is_stmt 0 view .LVU38
 169 004a 8D60     		str	r5, [r1, #8]
 170              		.loc 1 147 3 is_stmt 1 view .LVU39
 171              		.loc 1 147 18 is_stmt 0 view .LVU40
ARM GAS  C:\Users\DEVELO~1\AppData\Local\Temp\ccHeBbUd.s 			page 4


 172 004c CB60     		str	r3, [r1, #12]
 173              		.loc 1 148 3 is_stmt 1 view .LVU41
 174              		.loc 1 148 18 is_stmt 0 view .LVU42
 175 004e 4C61     		str	r4, [r1, #20]
 176              		.loc 1 149 3 is_stmt 1 view .LVU43
 177              		.loc 1 149 18 is_stmt 0 view .LVU44
 178 0050 0A24     		movs	r4, #10
 179              	.LBE68:
 180              	.LBE92:
 181              	.LBB93:
 182              	.LBB94:
 183              		.loc 1 145 18 view .LVU45
 184 0052 584A     		ldr	r2, .L4+24
 185              	.LBE94:
 186              	.LBE93:
 187              	.LBB97:
 188              	.LBB69:
 189              		.loc 1 149 18 view .LVU46
 190 0054 0C62     		str	r4, [r1, #32]
 191              		.loc 1 150 3 is_stmt 1 view .LVU47
 192              		.loc 1 150 18 is_stmt 0 view .LVU48
 193 0056 584C     		ldr	r4, .L4+28
 194              	.LBE69:
 195              	.LBE97:
 196              	.LBB98:
 197              	.LBB99:
 198              		.loc 1 146 18 view .LVU49
 199 0058 584D     		ldr	r5, .L4+32
 200              	.LBE99:
 201              	.LBE98:
 202              	.LBB103:
 203              	.LBB70:
 204              		.loc 1 150 18 view .LVU50
 205 005a 4C62     		str	r4, [r1, #36]
 206              		.loc 1 151 3 is_stmt 1 view .LVU51
 207              		.loc 1 151 18 is_stmt 0 view .LVU52
 208 005c 584C     		ldr	r4, .L4+36
 209 005e 0C60     		str	r4, [r1]
 210              	.LVL3:
 211              		.loc 1 151 18 view .LVU53
 212              	.LBE70:
 213              	.LBE103:
 214              		.loc 1 166 3 is_stmt 1 view .LVU54
 215              	.LBB104:
 216              	.LBI85:
 217              		.loc 1 143 13 view .LVU55
 218              	.LBB87:
 219              		.loc 1 145 3 view .LVU56
 220              	.LBE87:
 221              	.LBE104:
 222              	.LBB105:
 223              	.LBB106:
 224              		.loc 1 145 18 is_stmt 0 view .LVU57
 225 0060 01F54061 		add	r1, r1, #3072
 226              	.LBE106:
 227              	.LBE105:
 228              	.LBB110:
ARM GAS  C:\Users\DEVELO~1\AppData\Local\Temp\ccHeBbUd.s 			page 5


 229              	.LBB88:
 230              		.loc 1 146 18 view .LVU58
 231 0064 574C     		ldr	r4, .L4+40
 232              		.loc 1 145 18 view .LVU59
 233 0066 4360     		str	r3, [r0, #4]
 234              		.loc 1 146 3 is_stmt 1 view .LVU60
 235              		.loc 1 146 18 is_stmt 0 view .LVU61
 236 0068 8460     		str	r4, [r0, #8]
 237              		.loc 1 147 3 is_stmt 1 view .LVU62
 238              		.loc 1 148 18 is_stmt 0 view .LVU63
 239 006a 8024     		movs	r4, #128
 240              		.loc 1 147 18 view .LVU64
 241 006c C360     		str	r3, [r0, #12]
 242              		.loc 1 148 3 is_stmt 1 view .LVU65
 243              		.loc 1 148 18 is_stmt 0 view .LVU66
 244 006e 4461     		str	r4, [r0, #20]
 245              		.loc 1 149 3 is_stmt 1 view .LVU67
 246              		.loc 1 149 18 is_stmt 0 view .LVU68
 247 0070 554C     		ldr	r4, .L4+44
 248 0072 0462     		str	r4, [r0, #32]
 249              		.loc 1 150 3 is_stmt 1 view .LVU69
 250              		.loc 1 150 18 is_stmt 0 view .LVU70
 251 0074 554C     		ldr	r4, .L4+48
 252 0076 4462     		str	r4, [r0, #36]
 253              		.loc 1 151 3 is_stmt 1 view .LVU71
 254              		.loc 1 151 18 is_stmt 0 view .LVU72
 255 0078 554C     		ldr	r4, .L4+52
 256 007a 0460     		str	r4, [r0]
 257              	.LVL4:
 258              		.loc 1 151 18 view .LVU73
 259              	.LBE88:
 260              	.LBE110:
 261              		.loc 1 169 3 is_stmt 1 view .LVU74
 262              	.LBB111:
 263              	.LBI93:
 264              		.loc 1 143 13 view .LVU75
 265              	.LBB95:
 266              		.loc 1 145 3 view .LVU76
 267              	.LBE95:
 268              	.LBE111:
 269              	.LBB112:
 270              	.LBB107:
 271              		.loc 1 148 18 is_stmt 0 view .LVU77
 272 007c 4020     		movs	r0, #64
 273              	.LBE107:
 274              	.LBE112:
 275              	.LBB113:
 276              	.LBB96:
 277              		.loc 1 146 18 view .LVU78
 278 007e 554C     		ldr	r4, .L4+56
 279              		.loc 1 145 18 view .LVU79
 280 0080 5360     		str	r3, [r2, #4]
 281              		.loc 1 146 3 is_stmt 1 view .LVU80
 282              		.loc 1 146 18 is_stmt 0 view .LVU81
 283 0082 9460     		str	r4, [r2, #8]
 284              		.loc 1 147 3 is_stmt 1 view .LVU82
 285              		.loc 1 150 18 is_stmt 0 view .LVU83
ARM GAS  C:\Users\DEVELO~1\AppData\Local\Temp\ccHeBbUd.s 			page 6


 286 0084 544C     		ldr	r4, .L4+60
 287              		.loc 1 147 18 view .LVU84
 288 0086 D360     		str	r3, [r2, #12]
 289              		.loc 1 148 3 is_stmt 1 view .LVU85
 290              		.loc 1 148 18 is_stmt 0 view .LVU86
 291 0088 5361     		str	r3, [r2, #20]
 292              		.loc 1 149 3 is_stmt 1 view .LVU87
 293              		.loc 1 149 18 is_stmt 0 view .LVU88
 294 008a 1362     		str	r3, [r2, #32]
 295              		.loc 1 150 3 is_stmt 1 view .LVU89
 296              		.loc 1 150 18 is_stmt 0 view .LVU90
 297 008c 5462     		str	r4, [r2, #36]
 298              		.loc 1 151 3 is_stmt 1 view .LVU91
 299              		.loc 1 151 18 is_stmt 0 view .LVU92
 300 008e 534C     		ldr	r4, .L4+64
 301 0090 1460     		str	r4, [r2]
 302              	.LVL5:
 303              		.loc 1 151 18 view .LVU93
 304              	.LBE96:
 305              	.LBE113:
 306              		.loc 1 172 3 is_stmt 1 view .LVU94
 307              	.LBB114:
 308              	.LBI105:
 309              		.loc 1 143 13 view .LVU95
 310              	.LBB108:
 311              		.loc 1 145 3 view .LVU96
 312              	.LBE108:
 313              	.LBE114:
 314              	.LBB115:
 315              	.LBB116:
 316              		.loc 1 145 18 is_stmt 0 view .LVU97
 317 0092 02F50062 		add	r2, r2, #2048
 318              	.LBE116:
 319              	.LBE115:
 320              	.LBB118:
 321              	.LBB109:
 322              		.loc 1 146 18 view .LVU98
 323 0096 524C     		ldr	r4, .L4+68
 324              		.loc 1 145 18 view .LVU99
 325 0098 4B60     		str	r3, [r1, #4]
 326              		.loc 1 146 3 is_stmt 1 view .LVU100
 327              		.loc 1 146 18 is_stmt 0 view .LVU101
 328 009a 8C60     		str	r4, [r1, #8]
 329              		.loc 1 147 3 is_stmt 1 view .LVU102
 330              		.loc 1 149 18 is_stmt 0 view .LVU103
 331 009c 514C     		ldr	r4, .L4+72
 332              		.loc 1 147 18 view .LVU104
 333 009e CB60     		str	r3, [r1, #12]
 334              		.loc 1 148 3 is_stmt 1 view .LVU105
 335              		.loc 1 148 18 is_stmt 0 view .LVU106
 336 00a0 4861     		str	r0, [r1, #20]
 337              		.loc 1 149 3 is_stmt 1 view .LVU107
 338              		.loc 1 149 18 is_stmt 0 view .LVU108
 339 00a2 0C62     		str	r4, [r1, #32]
 340              		.loc 1 150 3 is_stmt 1 view .LVU109
 341              		.loc 1 150 18 is_stmt 0 view .LVU110
 342 00a4 04F1F844 		add	r4, r4, #2080374784
ARM GAS  C:\Users\DEVELO~1\AppData\Local\Temp\ccHeBbUd.s 			page 7


 343 00a8 4C62     		str	r4, [r1, #36]
 344              		.loc 1 151 3 is_stmt 1 view .LVU111
 345              		.loc 1 151 18 is_stmt 0 view .LVU112
 346 00aa 4F4C     		ldr	r4, .L4+76
 347 00ac 0C60     		str	r4, [r1]
 348              	.LVL6:
 349              		.loc 1 151 18 view .LVU113
 350              	.LBE109:
 351              	.LBE118:
 352              		.loc 1 175 3 is_stmt 1 view .LVU114
 353              	.LBB119:
 354              	.LBI115:
 355              		.loc 1 143 13 view .LVU115
 356              	.LBB117:
 357              		.loc 1 145 3 view .LVU116
 358              		.loc 1 146 18 is_stmt 0 view .LVU117
 359 00ae 4F4C     		ldr	r4, .L4+80
 360              		.loc 1 145 18 view .LVU118
 361 00b0 5360     		str	r3, [r2, #4]
 362              		.loc 1 146 3 is_stmt 1 view .LVU119
 363              		.loc 1 146 18 is_stmt 0 view .LVU120
 364 00b2 9460     		str	r4, [r2, #8]
 365              		.loc 1 147 3 is_stmt 1 view .LVU121
 366              		.loc 1 148 18 is_stmt 0 view .LVU122
 367 00b4 0424     		movs	r4, #4
 368              		.loc 1 147 18 view .LVU123
 369 00b6 D360     		str	r3, [r2, #12]
 370              		.loc 1 148 3 is_stmt 1 view .LVU124
 371              		.loc 1 148 18 is_stmt 0 view .LVU125
 372 00b8 5461     		str	r4, [r2, #20]
 373              		.loc 1 149 3 is_stmt 1 view .LVU126
 374              		.loc 1 149 18 is_stmt 0 view .LVU127
 375 00ba 4D4C     		ldr	r4, .L4+84
 376 00bc 1462     		str	r4, [r2, #32]
 377              		.loc 1 150 3 is_stmt 1 view .LVU128
 378              		.loc 1 150 18 is_stmt 0 view .LVU129
 379 00be 4FF0CC34 		mov	r4, #-858993460
 380 00c2 5462     		str	r4, [r2, #36]
 381              		.loc 1 151 3 is_stmt 1 view .LVU130
 382              		.loc 1 151 18 is_stmt 0 view .LVU131
 383 00c4 04F15E44 		add	r4, r4, #-570425344
 384 00c8 A4F50814 		sub	r4, r4, #2228224
 385 00cc A4F6F244 		subw	r4, r4, #3314
 386 00d0 1460     		str	r4, [r2]
 387              	.LVL7:
 388              		.loc 1 151 18 view .LVU132
 389              	.LBE117:
 390              	.LBE119:
 391              		.loc 1 178 3 is_stmt 1 view .LVU133
 392              	.LBB120:
 393              	.LBI98:
 394              		.loc 1 143 13 view .LVU134
 395              	.LBB100:
 396              		.loc 1 145 3 view .LVU135
 397              		.loc 1 145 18 is_stmt 0 view .LVU136
 398 00d2 C1F80438 		str	r3, [r1, #2052]
 399              		.loc 1 146 3 is_stmt 1 view .LVU137
ARM GAS  C:\Users\DEVELO~1\AppData\Local\Temp\ccHeBbUd.s 			page 8


 400              		.loc 1 146 18 is_stmt 0 view .LVU138
 401 00d6 C1F80858 		str	r5, [r1, #2056]
 402              		.loc 1 147 3 is_stmt 1 view .LVU139
 403              		.loc 1 151 18 is_stmt 0 view .LVU140
 404 00da 6FF4D575 		mvn	r5, #426
 405              		.loc 1 147 18 view .LVU141
 406 00de C1F80C38 		str	r3, [r1, #2060]
 407              		.loc 1 148 3 is_stmt 1 view .LVU142
 408              		.loc 1 148 18 is_stmt 0 view .LVU143
 409 00e2 C1F81408 		str	r0, [r1, #2068]
 410              		.loc 1 149 3 is_stmt 1 view .LVU144
 411              		.loc 1 149 18 is_stmt 0 view .LVU145
 412 00e6 4348     		ldr	r0, .L4+88
 413              	.LBE100:
 414              	.LBE120:
 415              	.LBB121:
 416              	.LBB78:
 417              		.loc 1 145 18 view .LVU146
 418 00e8 434C     		ldr	r4, .L4+92
 419              	.LBE78:
 420              	.LBE121:
 421              	.LBB122:
 422              	.LBB101:
 423              		.loc 1 149 18 view .LVU147
 424 00ea C1F82008 		str	r0, [r1, #2080]
 425              		.loc 1 150 3 is_stmt 1 view .LVU148
 426              		.loc 1 150 18 is_stmt 0 view .LVU149
 427 00ee 00F1F840 		add	r0, r0, #2080374784
 428 00f2 A0F67740 		subw	r0, r0, #3191
 429 00f6 C1F82408 		str	r0, [r1, #2084]
 430              		.loc 1 151 3 is_stmt 1 view .LVU150
 431              		.loc 1 151 18 is_stmt 0 view .LVU151
 432 00fa A0F10950 		sub	r0, r0, #574619648
 433 00fe A0F50930 		sub	r0, r0, #140288
 434 0102 2844     		add	r0, r0, r5
 435              	.LBE101:
 436              	.LBE122:
 437              	.LBB123:
 438              	.LBB124:
 439 0104 4FF0FF35 		mov	r5, #-1
 440              	.LBE124:
 441              	.LBE123:
 442              	.LBB127:
 443              	.LBB102:
 444 0108 C1F80008 		str	r0, [r1, #2048]
 445              	.LVL8:
 446              		.loc 1 151 18 view .LVU152
 447              	.LBE102:
 448              	.LBE127:
 449              		.loc 1 181 3 is_stmt 1 view .LVU153
 450              	.LBB128:
 451              	.LBI128:
 452              		.loc 1 143 13 view .LVU154
 453              	.LBB129:
 454              		.loc 1 145 3 view .LVU155
 455              		.loc 1 146 18 is_stmt 0 view .LVU156
 456 010c 3B49     		ldr	r1, .L4+96
ARM GAS  C:\Users\DEVELO~1\AppData\Local\Temp\ccHeBbUd.s 			page 9


 457              		.loc 1 145 18 view .LVU157
 458 010e C2F80438 		str	r3, [r2, #2052]
 459              		.loc 1 146 3 is_stmt 1 view .LVU158
 460              		.loc 1 146 18 is_stmt 0 view .LVU159
 461 0112 C2F80818 		str	r1, [r2, #2056]
 462              		.loc 1 147 3 is_stmt 1 view .LVU160
 463              		.loc 1 148 18 is_stmt 0 view .LVU161
 464 0116 4FF48061 		mov	r1, #1024
 465              		.loc 1 147 18 view .LVU162
 466 011a C2F80C38 		str	r3, [r2, #2060]
 467              		.loc 1 148 3 is_stmt 1 view .LVU163
 468              		.loc 1 148 18 is_stmt 0 view .LVU164
 469 011e C2F81418 		str	r1, [r2, #2068]
 470              		.loc 1 149 3 is_stmt 1 view .LVU165
 471              		.loc 1 149 18 is_stmt 0 view .LVU166
 472 0122 3749     		ldr	r1, .L4+100
 473              	.LBE129:
 474              	.LBE128:
 475              	.LBB131:
 476              	.LBB132:
 477              		.loc 1 145 18 view .LVU167
 478 0124 3748     		ldr	r0, .L4+104
 479              	.LBE132:
 480              	.LBE131:
 481              	.LBB136:
 482              	.LBB130:
 483              		.loc 1 149 18 view .LVU168
 484 0126 C2F82018 		str	r1, [r2, #2080]
 485              		.loc 1 150 3 is_stmt 1 view .LVU169
 486              		.loc 1 150 18 is_stmt 0 view .LVU170
 487 012a 3749     		ldr	r1, .L4+108
 488 012c C2F82418 		str	r1, [r2, #2084]
 489              		.loc 1 151 3 is_stmt 1 view .LVU171
 490              		.loc 1 151 18 is_stmt 0 view .LVU172
 491 0130 A1F1D551 		sub	r1, r1, #446693376
 492 0134 A1F5D411 		sub	r1, r1, #1736704
 493 0138 A1F27251 		subw	r1, r1, #1394
 494 013c C2F80018 		str	r1, [r2, #2048]
 495              	.LVL9:
 496              		.loc 1 151 18 view .LVU173
 497              	.LBE130:
 498              	.LBE136:
 499              		.loc 1 184 3 is_stmt 1 view .LVU174
 500              	.LBB137:
 501              	.LBI76:
 502              		.loc 1 143 13 view .LVU175
 503              	.LBB79:
 504              		.loc 1 145 3 view .LVU176
 505              		.loc 1 146 18 is_stmt 0 view .LVU177
 506 0140 4FF44362 		mov	r2, #3120
 507              		.loc 1 145 18 view .LVU178
 508 0144 6360     		str	r3, [r4, #4]
 509              		.loc 1 146 3 is_stmt 1 view .LVU179
 510              		.loc 1 146 18 is_stmt 0 view .LVU180
 511 0146 A260     		str	r2, [r4, #8]
 512              		.loc 1 147 3 is_stmt 1 view .LVU181
 513              		.loc 1 147 18 is_stmt 0 view .LVU182
ARM GAS  C:\Users\DEVELO~1\AppData\Local\Temp\ccHeBbUd.s 			page 10


 514 0148 E360     		str	r3, [r4, #12]
 515              		.loc 1 148 3 is_stmt 1 view .LVU183
 516              		.loc 1 148 18 is_stmt 0 view .LVU184
 517 014a 6361     		str	r3, [r4, #20]
 518              		.loc 1 149 3 is_stmt 1 view .LVU185
 519              		.loc 1 149 18 is_stmt 0 view .LVU186
 520 014c 2662     		str	r6, [r4, #32]
 521              		.loc 1 150 3 is_stmt 1 view .LVU187
 522              		.loc 1 151 18 is_stmt 0 view .LVU188
 523 014e 6FF48266 		mvn	r6, #1040
 524              		.loc 1 150 18 view .LVU189
 525 0152 6362     		str	r3, [r4, #36]
 526              		.loc 1 151 3 is_stmt 1 view .LVU190
 527              		.loc 1 151 18 is_stmt 0 view .LVU191
 528 0154 2660     		str	r6, [r4]
 529              	.LVL10:
 530              		.loc 1 151 18 view .LVU192
 531              	.LBE79:
 532              	.LBE137:
 533              		.loc 1 187 3 is_stmt 1 view .LVU193
 534              	.LBB138:
 535              	.LBI131:
 536              		.loc 1 143 13 view .LVU194
 537              	.LBB133:
 538              		.loc 1 145 3 view .LVU195
 539              		.loc 1 146 18 is_stmt 0 view .LVU196
 540 0156 2D4C     		ldr	r4, .L4+112
 541              		.loc 1 145 18 view .LVU197
 542 0158 4360     		str	r3, [r0, #4]
 543              		.loc 1 146 3 is_stmt 1 view .LVU198
 544              		.loc 1 146 18 is_stmt 0 view .LVU199
 545 015a 8460     		str	r4, [r0, #8]
 546              		.loc 1 147 3 is_stmt 1 view .LVU200
 547              		.loc 1 149 18 is_stmt 0 view .LVU201
 548 015c A4F1AB44 		sub	r4, r4, #1434451968
 549              		.loc 1 147 18 view .LVU202
 550 0160 C360     		str	r3, [r0, #12]
 551              		.loc 1 148 3 is_stmt 1 view .LVU203
 552              		.loc 1 149 18 is_stmt 0 view .LVU204
 553 0162 A4F5DD14 		sub	r4, r4, #1810432
 554              		.loc 1 148 18 view .LVU205
 555 0166 4361     		str	r3, [r0, #20]
 556              		.loc 1 149 3 is_stmt 1 view .LVU206
 557              	.LBE133:
 558              	.LBE138:
 559              	.LBB139:
 560              	.LBB125:
 561              		.loc 1 145 18 is_stmt 0 view .LVU207
 562 0168 2949     		ldr	r1, .L4+116
 563              	.LBE125:
 564              	.LBE139:
 565              	.LBB140:
 566              	.LBB134:
 567              		.loc 1 149 18 view .LVU208
 568 016a A4F67C74 		subw	r4, r4, #3964
 569              	.LBE134:
 570              	.LBE140:
ARM GAS  C:\Users\DEVELO~1\AppData\Local\Temp\ccHeBbUd.s 			page 11


 571              	.LBB141:
 572              	.LBB142:
 573              		.loc 1 145 18 view .LVU209
 574 016e 294A     		ldr	r2, .L4+120
 575              	.LBE142:
 576              	.LBE141:
 577              	.LBB144:
 578              	.LBB135:
 579              		.loc 1 149 18 view .LVU210
 580 0170 0462     		str	r4, [r0, #32]
 581              		.loc 1 150 3 is_stmt 1 view .LVU211
 582              		.loc 1 151 18 is_stmt 0 view .LVU212
 583 0172 294C     		ldr	r4, .L4+124
 584              		.loc 1 150 18 view .LVU213
 585 0174 4362     		str	r3, [r0, #36]
 586              		.loc 1 151 3 is_stmt 1 view .LVU214
 587              		.loc 1 151 18 is_stmt 0 view .LVU215
 588 0176 0460     		str	r4, [r0]
 589              	.LVL11:
 590              		.loc 1 151 18 view .LVU216
 591              	.LBE135:
 592              	.LBE144:
 593              		.loc 1 190 3 is_stmt 1 view .LVU217
 594              	.LBB145:
 595              	.LBI123:
 596              		.loc 1 143 13 view .LVU218
 597              	.LBB126:
 598              		.loc 1 145 3 view .LVU219
 599              		.loc 1 145 18 is_stmt 0 view .LVU220
 600 0178 4B60     		str	r3, [r1, #4]
 601              		.loc 1 146 3 is_stmt 1 view .LVU221
 602              		.loc 1 146 18 is_stmt 0 view .LVU222
 603 017a 8B60     		str	r3, [r1, #8]
 604              		.loc 1 147 3 is_stmt 1 view .LVU223
 605              		.loc 1 147 18 is_stmt 0 view .LVU224
 606 017c CB60     		str	r3, [r1, #12]
 607              		.loc 1 148 3 is_stmt 1 view .LVU225
 608              		.loc 1 148 18 is_stmt 0 view .LVU226
 609 017e 4B61     		str	r3, [r1, #20]
 610              		.loc 1 149 3 is_stmt 1 view .LVU227
 611              		.loc 1 149 18 is_stmt 0 view .LVU228
 612 0180 0B62     		str	r3, [r1, #32]
 613              		.loc 1 150 3 is_stmt 1 view .LVU229
 614              		.loc 1 150 18 is_stmt 0 view .LVU230
 615 0182 4B62     		str	r3, [r1, #36]
 616              		.loc 1 151 3 is_stmt 1 view .LVU231
 617              		.loc 1 151 18 is_stmt 0 view .LVU232
 618 0184 0D60     		str	r5, [r1]
 619              	.LVL12:
 620              		.loc 1 151 18 view .LVU233
 621              	.LBE126:
 622              	.LBE145:
 623              		.loc 1 193 3 is_stmt 1 view .LVU234
 624              	.LBB146:
 625              	.LBI141:
 626              		.loc 1 143 13 view .LVU235
 627              	.LBB143:
ARM GAS  C:\Users\DEVELO~1\AppData\Local\Temp\ccHeBbUd.s 			page 12


 628              		.loc 1 145 3 view .LVU236
 629              		.loc 1 145 18 is_stmt 0 view .LVU237
 630 0186 5360     		str	r3, [r2, #4]
 631              		.loc 1 146 3 is_stmt 1 view .LVU238
 632              		.loc 1 146 18 is_stmt 0 view .LVU239
 633 0188 9360     		str	r3, [r2, #8]
 634              		.loc 1 147 3 is_stmt 1 view .LVU240
 635              		.loc 1 147 18 is_stmt 0 view .LVU241
 636 018a D360     		str	r3, [r2, #12]
 637              		.loc 1 148 3 is_stmt 1 view .LVU242
 638              		.loc 1 148 18 is_stmt 0 view .LVU243
 639 018c 5361     		str	r3, [r2, #20]
 640              		.loc 1 149 3 is_stmt 1 view .LVU244
 641              		.loc 1 149 18 is_stmt 0 view .LVU245
 642 018e 1362     		str	r3, [r2, #32]
 643              		.loc 1 150 3 is_stmt 1 view .LVU246
 644              		.loc 1 150 18 is_stmt 0 view .LVU247
 645 0190 5362     		str	r3, [r2, #36]
 646              		.loc 1 151 3 is_stmt 1 view .LVU248
 647              		.loc 1 151 18 is_stmt 0 view .LVU249
 648 0192 1560     		str	r5, [r2]
 649              	.LVL13:
 650              		.loc 1 151 18 view .LVU250
 651              	.LBE143:
 652              	.LBE146:
 653              	.LBE147:
 654              		.loc 1 213 3 is_stmt 1 view .LVU251
 655              		.loc 1 214 1 is_stmt 0 view .LVU252
 656 0194 70BC     		pop	{r4, r5, r6}
 657              		.cfi_restore 6
 658              		.cfi_restore 5
 659              		.cfi_restore 4
 660              		.cfi_def_cfa_offset 0
 661              		.loc 1 213 3 view .LVU253
 662 0196 FFF7FEBF 		b	stm32_clock_init
 663              	.LVL14:
 664              	.L5:
 665 019a 00BF     		.align	2
 666              	.L4:
 667 019c 00440258 		.word	1476543488
 668 01a0 00F8FFFF 		.word	-2048
 669 01a4 1714FD3F 		.word	1073550359
 670 01a8 00000258 		.word	1476526080
 671 01ac 000CC000 		.word	12585984
 672 01b0 00040258 		.word	1476527104
 673 01b4 00080258 		.word	1476528128
 674 01b8 70A70A00 		.word	698224
 675 01bc FFDFDFFF 		.word	-2105345
 676 01c0 D6D7A8EA 		.word	-358033450
 677 01c4 C04F00FF 		.word	-16756800
 678 01c8 00606600 		.word	6709248
 679 01cc 000088CC 		.word	-863502336
 680 01d0 BF7AFFAA 		.word	-1426097473
 681 01d4 0000FF07 		.word	134152192
 682 01d8 CCCC0C00 		.word	838860
 683 01dc FFFFAAF2 		.word	-223674369
 684 01e0 3FD07FF0 		.word	-260059073
ARM GAS  C:\Users\DEVELO~1\AppData\Local\Temp\ccHeBbUd.s 			page 13


 685 01e4 CC0C0050 		.word	1342180556
 686 01e8 EA9F6AAF 		.word	-1351966742
 687 01ec 1FC0FFFF 		.word	-16353
 688 01f0 CC0000C0 		.word	-1073741620
 689 01f4 CCCCCC50 		.word	1355599052
 690 01f8 001C0258 		.word	1476533248
 691 01fc 3F1FDFFF 		.word	-2154689
 692 0200 CC0CCC00 		.word	13372620
 693 0204 00200258 		.word	1476534272
 694 0208 5C5055C5 		.word	-984264612
 695 020c CCFF4500 		.word	4587468
 696 0210 00240258 		.word	1476535296
 697 0214 00280258 		.word	1476536320
 698 0218 BBAA71FF 		.word	-9327941
 699              		.cfi_endproc
 700              	.LFE434:
 701              		.size	__early_init, .-__early_init
 702              		.section	.text.sdc_lld_is_card_inserted,"ax",%progbits
 703              		.align	1
 704              		.p2align 4,,15
 705              		.global	sdc_lld_is_card_inserted
 706              		.syntax unified
 707              		.thumb
 708              		.thumb_func
 709              		.type	sdc_lld_is_card_inserted, %function
 710              	sdc_lld_is_card_inserted:
 711              	.LVL15:
 712              	.LFB435:
 713              		.loc 1 220 48 is_stmt 1 view -0
 714              		.cfi_startproc
 715              		@ args = 0, pretend = 0, frame = 0
 716              		@ frame_needed = 0, uses_anonymous_args = 0
 717              		@ link register save eliminated.
 718              		.loc 1 222 3 view .LVU255
 719              		.loc 1 224 3 view .LVU256
 720              		.loc 1 225 1 is_stmt 0 view .LVU257
 721 0000 0120     		movs	r0, #1
 722              	.LVL16:
 723              		.loc 1 225 1 view .LVU258
 724 0002 7047     		bx	lr
 725              		.cfi_endproc
 726              	.LFE435:
 727              		.size	sdc_lld_is_card_inserted, .-sdc_lld_is_card_inserted
 728              		.section	.text.sdc_lld_is_write_protected,"ax",%progbits
 729              		.align	1
 730              		.p2align 4,,15
 731              		.global	sdc_lld_is_write_protected
 732              		.syntax unified
 733              		.thumb
 734              		.thumb_func
 735              		.type	sdc_lld_is_write_protected, %function
 736              	sdc_lld_is_write_protected:
 737              	.LVL17:
 738              	.LFB436:
 739              		.loc 1 230 50 is_stmt 1 view -0
 740              		.cfi_startproc
 741              		@ args = 0, pretend = 0, frame = 0
ARM GAS  C:\Users\DEVELO~1\AppData\Local\Temp\ccHeBbUd.s 			page 14


 742              		@ frame_needed = 0, uses_anonymous_args = 0
 743              		@ link register save eliminated.
 744              		.loc 1 232 3 view .LVU260
 745              		.loc 1 234 3 view .LVU261
 746              		.loc 1 235 1 is_stmt 0 view .LVU262
 747 0000 0020     		movs	r0, #0
 748              	.LVL18:
 749              		.loc 1 235 1 view .LVU263
 750 0002 7047     		bx	lr
 751              		.cfi_endproc
 752              	.LFE436:
 753              		.size	sdc_lld_is_write_protected, .-sdc_lld_is_write_protected
 754              		.section	.text.boardInit,"ax",%progbits
 755              		.align	1
 756              		.p2align 4,,15
 757              		.global	boardInit
 758              		.syntax unified
 759              		.thumb
 760              		.thumb_func
 761              		.type	boardInit, %function
 762              	boardInit:
 763              	.LFB437:
 764              		.loc 1 264 22 is_stmt 1 view -0
 765              		.cfi_startproc
 766              		@ args = 0, pretend = 0, frame = 0
 767              		@ frame_needed = 0, uses_anonymous_args = 0
 768              		@ link register save eliminated.
 769              		.loc 1 266 1 view .LVU265
 770 0000 7047     		bx	lr
 771              		.cfi_endproc
 772              	.LFE437:
 773              		.size	boardInit, .-boardInit
 774 0002 00BF     		.text
 775              	.Letext0:
 776              		.file 3 "c:\\chibistudio\\tools\\gnu tools arm embedded\\11.3 2022.08\\lib\\gcc\\arm-none-eabi\\11
 777              		.file 4 "c:\\chibistudio\\tools\\gnu tools arm embedded\\11.3 2022.08\\arm-none-eabi\\include\\mac
 778              		.file 5 "c:\\chibistudio\\tools\\gnu tools arm embedded\\11.3 2022.08\\arm-none-eabi\\include\\sys
 779              		.file 6 "../../../os/common/ports/ARM-common/chtypes.h"
 780              		.file 7 "../../../os/rt/include/chearly.h"
 781              		.file 8 "../../../os/rt/include/chobjects.h"
 782              		.file 9 "../../../os/rt/include/chrfcu.h"
 783              		.file 10 "../../../os/rt/include/chdebug.h"
 784              		.file 11 "../../../os/rt/include/chtime.h"
 785              		.file 12 "../../../os/rt/include/chlists.h"
 786              		.file 13 "../../../os/rt/include/chtrace.h"
 787              		.file 14 "../../../os/common/ext/ST/STM32H7xx/stm32h743xx.h"
 788              		.file 15 "../../../os/common/ports/ARMv7-M/chcore.h"
 789              		.file 16 "../../../os/rt/include/chsem.h"
 790              		.file 17 "../../../os/rt/include/chmtx.h"
 791              		.file 18 "../../../os/hal/include/hal_ioblock.h"
 792              		.file 19 "../../../os/hal/ports/STM32/LLD/GPIOv2/stm32_gpio.h"
 793              		.file 20 "../../../os/hal/include/hal_sdc.h"
 794              		.file 21 "../../../os/hal/ports/STM32/LLD/SDMMCv2/hal_sdc_lld.h"
 795              		.file 22 "../../../os/hal/ports/STM32/STM32H7xx/hal_lld.h"