ARM GAS  C:\Users\DEVELO~1\AppData\Local\Temp\ccPNADy7.s 			page 1


   1              		.cpu cortex-m7
   2              		.arch armv7e-m
   3              		.fpu softvfp
   4              		.eabi_attribute 20, 1
   5              		.eabi_attribute 21, 1
   6              		.eabi_attribute 23, 3
   7              		.eabi_attribute 24, 1
   8              		.eabi_attribute 25, 1
   9              		.eabi_attribute 26, 1
  10              		.eabi_attribute 30, 2
  11              		.eabi_attribute 34, 1
  12              		.eabi_attribute 18, 4
  13              		.file	"bufstreams.c"
  14              		.text
  15              	.Ltext0:
  16              		.cfi_sections	.debug_frame
  17              		.section	.text._writes,"ax",%progbits
  18              		.align	1
  19              		.p2align 4,,15
  20              		.syntax unified
  21              		.thumb
  22              		.thumb_func
  23              		.type	_writes, %function
  24              	_writes:
  25              	.LVL0:
  26              	.LFB432:
  27              		.file 1 "../../../os/hal/lib/streams/bufstreams.c"
  28              		.loc 1 51 62 view -0
  29              		.cfi_startproc
  30              		@ args = 0, pretend = 0, frame = 0
  31              		@ frame_needed = 0, uses_anonymous_args = 0
  32              		@ link register save eliminated.
  33              		.loc 1 52 3 view .LVU1
  34              		.loc 1 53 3 view .LVU2
  35              		.loc 1 53 14 is_stmt 0 view .LVU3
  36 0000 4068     		ldr	r0, [r0, #4]
  37              	.LVL1:
  38              		.loc 1 53 25 view .LVU4
  39 0002 0368     		ldr	r3, [r0]
  40              		.loc 1 53 10 view .LVU5
  41 0004 5B68     		ldr	r3, [r3, #4]
  42 0006 1847     		bx	r3
  43              	.LVL2:
  44              		.loc 1 53 10 view .LVU6
  45              		.cfi_endproc
  46              	.LFE432:
  47              		.size	_writes, .-_writes
  48              		.section	.text._put,"ax",%progbits
  49              		.align	1
  50              		.p2align 4,,15
  51              		.syntax unified
  52              		.thumb
  53              		.thumb_func
  54              		.type	_put, %function
  55              	_put:
  56              	.LVL3:
  57              	.LFB434:
ARM GAS  C:\Users\DEVELO~1\AppData\Local\Temp\ccPNADy7.s 			page 2


  58              		.loc 1 72 40 is_stmt 1 view -0
  59              		.cfi_startproc
  60              		@ args = 0, pretend = 0, frame = 0
  61              		@ frame_needed = 0, uses_anonymous_args = 0
  62              		@ link register save eliminated.
  63              		.loc 1 73 3 view .LVU8
  64              		.loc 1 74 3 view .LVU9
  65              		.loc 1 74 14 is_stmt 0 view .LVU10
  66 0000 4068     		ldr	r0, [r0, #4]
  67              	.LVL4:
  68              		.loc 1 74 25 view .LVU11
  69 0002 0368     		ldr	r3, [r0]
  70              		.loc 1 74 10 view .LVU12
  71 0004 DB68     		ldr	r3, [r3, #12]
  72 0006 1847     		bx	r3
  73              	.LVL5:
  74              		.loc 1 74 10 view .LVU13
  75              		.cfi_endproc
  76              	.LFE434:
  77              		.size	_put, .-_put
  78              		.section	.text._unget,"ax",%progbits
  79              		.align	1
  80              		.p2align 4,,15
  81              		.syntax unified
  82              		.thumb
  83              		.thumb_func
  84              		.type	_unget, %function
  85              	_unget:
  86              	.LVL6:
  87              	.LFB436:
  88              		.loc 1 87 42 is_stmt 1 view -0
  89              		.cfi_startproc
  90              		@ args = 0, pretend = 0, frame = 0
  91              		@ frame_needed = 0, uses_anonymous_args = 0
  92              		@ link register save eliminated.
  93              		.loc 1 88 3 view .LVU15
  94              		.loc 1 90 6 is_stmt 0 view .LVU16
  95 0000 FE29     		cmp	r1, #254
  96              		.loc 1 87 42 view .LVU17
  97 0002 0346     		mov	r3, r0
  98              	.LVL7:
  99              		.loc 1 90 3 is_stmt 1 view .LVU18
 100              		.loc 1 90 6 is_stmt 0 view .LVU19
 101 0004 09D0     		beq	.L7
 102              		.loc 1 90 40 discriminator 1 view .LVU20
 103 0006 C268     		ldr	r2, [r0, #12]
 104              		.loc 1 90 32 discriminator 1 view .LVU21
 105 0008 3AB1     		cbz	r2, .L7
 106              		.loc 1 94 3 is_stmt 1 view .LVU22
 107              		.loc 1 94 16 is_stmt 0 view .LVU23
 108 000a 013A     		subs	r2, r2, #1
 109              		.loc 1 96 10 view .LVU24
 110 000c 0846     		mov	r0, r1
 111              	.LVL8:
 112              		.loc 1 94 31 view .LVU25
 113 000e 03EB020C 		add	ip, r3, r2
 114 0012 DA60     		str	r2, [r3, #12]
ARM GAS  C:\Users\DEVELO~1\AppData\Local\Temp\ccPNADy7.s 			page 3


 115 0014 8CF80810 		strb	r1, [ip, #8]
 116              		.loc 1 96 3 is_stmt 1 view .LVU26
 117              		.loc 1 96 10 is_stmt 0 view .LVU27
 118 0018 7047     		bx	lr
 119              	.LVL9:
 120              	.L7:
 121              		.loc 1 91 12 view .LVU28
 122 001a 6FF00100 		mvn	r0, #1
 123              	.LVL10:
 124              		.loc 1 97 1 view .LVU29
 125 001e 7047     		bx	lr
 126              		.cfi_endproc
 127              	.LFE436:
 128              		.size	_unget, .-_unget
 129              		.section	.text._reads,"ax",%progbits
 130              		.align	1
 131              		.p2align 4,,15
 132              		.syntax unified
 133              		.thumb
 134              		.thumb_func
 135              		.type	_reads, %function
 136              	_reads:
 137              	.LVL11:
 138              	.LFB433:
 139              		.loc 1 56 55 is_stmt 1 view -0
 140              		.cfi_startproc
 141              		@ args = 0, pretend = 0, frame = 0
 142              		@ frame_needed = 0, uses_anonymous_args = 0
 143              		.loc 1 57 3 view .LVU31
 144              		.loc 1 56 55 is_stmt 0 view .LVU32
 145 0000 70B5     		push	{r4, r5, r6, lr}
 146              		.cfi_def_cfa_offset 16
 147              		.cfi_offset 4, -16
 148              		.cfi_offset 5, -12
 149              		.cfi_offset 6, -8
 150              		.cfi_offset 14, -4
 151              		.loc 1 60 34 view .LVU33
 152 0002 C468     		ldr	r4, [r0, #12]
 153              		.loc 1 56 55 view .LVU34
 154 0004 0B46     		mov	r3, r1
 155 0006 0646     		mov	r6, r0
 156              	.LVL12:
 157              		.loc 1 58 3 is_stmt 1 view .LVU35
 158              		.loc 1 60 3 view .LVU36
 159              		.loc 1 56 55 is_stmt 0 view .LVU37
 160 0008 1546     		mov	r5, r2
 161              		.loc 1 60 34 view .LVU38
 162 000a C4F10104 		rsb	r4, r4, #1
 163 000e 9442     		cmp	r4, r2
 164 0010 28BF     		it	cs
 165 0012 1446     		movcs	r4, r2
 166              	.LVL13:
 167              		.loc 1 66 3 is_stmt 1 view .LVU39
 168              		.loc 1 66 52 is_stmt 0 view .LVU40
 169 0014 011B     		subs	r1, r0, r4
 170              	.LVL14:
 171              		.loc 1 66 3 view .LVU41
ARM GAS  C:\Users\DEVELO~1\AppData\Local\Temp\ccPNADy7.s 			page 4


 172 0016 2246     		mov	r2, r4
 173              	.LVL15:
 174              		.loc 1 66 3 view .LVU42
 175 0018 1846     		mov	r0, r3
 176              	.LVL16:
 177              		.loc 1 66 3 view .LVU43
 178 001a 0931     		adds	r1, r1, #9
 179 001c FFF7FEFF 		bl	memcpy
 180              	.LVL17:
 181              		.loc 1 67 3 is_stmt 1 view .LVU44
 182              		.loc 1 67 13 is_stmt 0 view .LVU45
 183 0020 F368     		ldr	r3, [r6, #12]
 184              		.loc 1 69 21 view .LVU46
 185 0022 0119     		adds	r1, r0, r4
 186              		.loc 1 69 25 view .LVU47
 187 0024 7068     		ldr	r0, [r6, #4]
 188              		.loc 1 67 13 view .LVU48
 189 0026 2344     		add	r3, r3, r4
 190              		.loc 1 69 21 view .LVU49
 191 0028 2A1B     		subs	r2, r5, r4
 192              		.loc 1 67 13 view .LVU50
 193 002a F360     		str	r3, [r6, #12]
 194              		.loc 1 69 3 is_stmt 1 view .LVU51
 195              		.loc 1 69 36 is_stmt 0 view .LVU52
 196 002c 0368     		ldr	r3, [r0]
 197              		.loc 1 69 21 view .LVU53
 198 002e 9B68     		ldr	r3, [r3, #8]
 199 0030 9847     		blx	r3
 200              	.LVL18:
 201              		.loc 1 70 1 view .LVU54
 202 0032 2044     		add	r0, r0, r4
 203 0034 70BD     		pop	{r4, r5, r6, pc}
 204              		.loc 1 70 1 view .LVU55
 205              		.cfi_endproc
 206              	.LFE433:
 207              		.size	_reads, .-_reads
 208 0036 00BF     		.section	.text._get,"ax",%progbits
 209              		.align	1
 210              		.p2align 4,,15
 211              		.syntax unified
 212              		.thumb
 213              		.thumb_func
 214              		.type	_get, %function
 215              	_get:
 216              	.LVL19:
 217              	.LFB435:
 218              		.loc 1 77 29 is_stmt 1 view -0
 219              		.cfi_startproc
 220              		@ args = 0, pretend = 0, frame = 0
 221              		@ frame_needed = 0, uses_anonymous_args = 0
 222              		@ link register save eliminated.
 223              		.loc 1 78 3 view .LVU57
 224              		.loc 1 80 3 view .LVU58
 225              		.loc 1 80 11 is_stmt 0 view .LVU59
 226 0000 C368     		ldr	r3, [r0, #12]
 227              		.loc 1 80 6 view .LVU60
 228 0002 012B     		cmp	r3, #1
ARM GAS  C:\Users\DEVELO~1\AppData\Local\Temp\ccPNADy7.s 			page 5


 229 0004 04D0     		beq	.L12
 230              		.loc 1 84 3 is_stmt 1 view .LVU61
 231              		.loc 1 84 32 is_stmt 0 view .LVU62
 232 0006 5A1C     		adds	r2, r3, #1
 233              		.loc 1 84 22 view .LVU63
 234 0008 0344     		add	r3, r3, r0
 235              		.loc 1 84 32 view .LVU64
 236 000a C260     		str	r2, [r0, #12]
 237              		.loc 1 85 1 view .LVU65
 238 000c 187A     		ldrb	r0, [r3, #8]	@ zero_extendqisi2
 239              	.LVL20:
 240              		.loc 1 85 1 view .LVU66
 241 000e 7047     		bx	lr
 242              	.LVL21:
 243              	.L12:
 244              	.LBB4:
 245              	.LBI4:
 246              		.loc 1 77 14 is_stmt 1 view .LVU67
 247              	.LBB5:
 248              		.loc 1 81 5 view .LVU68
 249              		.loc 1 81 16 is_stmt 0 view .LVU69
 250 0010 4068     		ldr	r0, [r0, #4]
 251              	.LVL22:
 252              		.loc 1 81 27 view .LVU70
 253 0012 0368     		ldr	r3, [r0]
 254              		.loc 1 81 12 view .LVU71
 255 0014 1B69     		ldr	r3, [r3, #16]
 256 0016 1847     		bx	r3
 257              	.LVL23:
 258              	.LBE5:
 259              	.LBE4:
 260              		.cfi_endproc
 261              	.LFE435:
 262              		.size	_get, .-_get
 263              		.section	.text.bsaObjectInit,"ax",%progbits
 264              		.align	1
 265              		.p2align 4,,15
 266              		.global	bsaObjectInit
 267              		.syntax unified
 268              		.thumb
 269              		.thumb_func
 270              		.type	bsaObjectInit, %function
 271              	bsaObjectInit:
 272              	.LVL24:
 273              	.LFB437:
 274              		.loc 1 115 77 is_stmt 1 view -0
 275              		.cfi_startproc
 276              		@ args = 0, pretend = 0, frame = 0
 277              		@ frame_needed = 0, uses_anonymous_args = 0
 278              		@ link register save eliminated.
 279              		.loc 1 117 3 view .LVU73
 280              		.loc 1 115 77 is_stmt 0 view .LVU74
 281 0000 10B4     		push	{r4}
 282              		.cfi_def_cfa_offset 4
 283              		.cfi_offset 4, -4
 284              		.loc 1 119 3 view .LVU75
 285 0002 FE22     		movs	r2, #254
ARM GAS  C:\Users\DEVELO~1\AppData\Local\Temp\ccPNADy7.s 			page 6


 286              		.loc 1 117 16 view .LVU76
 287 0004 034C     		ldr	r4, .L15
 288              		.loc 1 120 16 view .LVU77
 289 0006 0123     		movs	r3, #1
 290              		.loc 1 119 3 view .LVU78
 291 0008 0272     		strb	r2, [r0, #8]
 292              		.loc 1 120 16 view .LVU79
 293 000a C360     		str	r3, [r0, #12]
 294              		.loc 1 118 16 view .LVU80
 295 000c C0E90041 		strd	r4, r1, [r0]
 296              		.loc 1 119 3 is_stmt 1 view .LVU81
 297              		.loc 1 120 3 view .LVU82
 298              		.loc 1 121 1 is_stmt 0 view .LVU83
 299 0010 10BC     		pop	{r4}
 300              		.cfi_restore 4
 301              		.cfi_def_cfa_offset 0
 302 0012 7047     		bx	lr
 303              	.L16:
 304              		.align	2
 305              	.L15:
 306 0014 00000000 		.word	.LANCHOR0
 307              		.cfi_endproc
 308              	.LFE437:
 309              		.size	bsaObjectInit, .-bsaObjectInit
 310              		.section	.rodata.vmt,"a"
 311              		.align	2
 312              		.set	.LANCHOR0,. + 0
 313              		.type	vmt, %object
 314              		.size	vmt, 24
 315              	vmt:
 316 0000 00000000 		.word	0
 317 0004 00000000 		.word	_writes
 318 0008 00000000 		.word	_reads
 319 000c 00000000 		.word	_put
 320 0010 00000000 		.word	_get
 321 0014 00000000 		.word	_unget
 322              		.text
 323              	.Letext0:
 324              		.file 2 "c:\\chibistudio\\tools\\gnu tools arm embedded\\11.3 2022.08\\lib\\gcc\\arm-none-eabi\\11
 325              		.file 3 "c:\\chibistudio\\tools\\gnu tools arm embedded\\11.3 2022.08\\arm-none-eabi\\include\\mac
 326              		.file 4 "c:\\chibistudio\\tools\\gnu tools arm embedded\\11.3 2022.08\\arm-none-eabi\\include\\sys
 327              		.file 5 "../../../os/rt/include/chearly.h"
 328              		.file 6 "../../../os/hal/include/hal_streams.h"
 329              		.file 7 "../../../os/hal/lib/streams/bufstreams.h"
 330              		.file 8 "c:\\chibistudio\\tools\\gnu tools arm embedded\\11.3 2022.08\\arm-none-eabi\\include\\str
 331              		.file 9 "<built-in>"
 332              		.section	.debug_info,"",%progbits
 333              	.Ldebug_info0:
 334 0000 5C050000 		.4byte	0x55c
 335 0004 0500     		.2byte	0x5
 336 0006 01       		.byte	0x1
 337 0007 04       		.byte	0x4
 338 0008 00000000 		.4byte	.Ldebug_abbrev0
 339 000c 12       		.uleb128 0x12
 340 000d D1010000 		.4byte	.LASF37
 341 0011 1D       		.byte	0x1d
 342 0012 8F020000 		.4byte	.LASF38
ARM GAS  C:\Users\DEVELO~1\AppData\Local\Temp\ccPNADy7.s 			page 7


 343 0016 A7000000 		.4byte	.LASF39
 344 001a 0C000000 		.4byte	.LLRL17
 345 001e 00000000 		.4byte	0
 346 0022 00000000 		.4byte	.Ldebug_line0
 347 0026 13       		.uleb128 0x13
 348 0027 04       		.byte	0x4
 349 0028 05       		.byte	0x5
 350 0029 696E7400 		.ascii	"int\000"
 351 002d 04       		.uleb128 0x4
 352 002e 16000000 		.4byte	.LASF3
 353 0032 02       		.byte	0x2
 354 0033 D1       		.byte	0xd1
 355 0034 17       		.byte	0x17
 356 0035 39000000 		.4byte	0x39
 357 0039 02       		.uleb128 0x2
 358 003a 04       		.byte	0x4
 359 003b 07       		.byte	0x7
 360 003c 3D000000 		.4byte	.LASF0
 361 0040 02       		.uleb128 0x2
 362 0041 08       		.byte	0x8
 363 0042 05       		.byte	0x5
 364 0043 73010000 		.4byte	.LASF1
 365 0047 02       		.uleb128 0x2
 366 0048 08       		.byte	0x8
 367 0049 04       		.byte	0x4
 368 004a 5F000000 		.4byte	.LASF2
 369 004e 04       		.uleb128 0x4
 370 004f 88010000 		.4byte	.LASF4
 371 0053 03       		.byte	0x3
 372 0054 29       		.byte	0x29
 373 0055 17       		.byte	0x17
 374 0056 5A000000 		.4byte	0x5a
 375 005a 02       		.uleb128 0x2
 376 005b 01       		.byte	0x1
 377 005c 06       		.byte	0x6
 378 005d 00000000 		.4byte	.LASF5
 379 0061 04       		.uleb128 0x4
 380 0062 0C000000 		.4byte	.LASF6
 381 0066 03       		.byte	0x3
 382 0067 2B       		.byte	0x2b
 383 0068 18       		.byte	0x18
 384 0069 6D000000 		.4byte	0x6d
 385 006d 02       		.uleb128 0x2
 386 006e 01       		.byte	0x1
 387 006f 08       		.byte	0x8
 388 0070 80000000 		.4byte	.LASF7
 389 0074 02       		.uleb128 0x2
 390 0075 02       		.byte	0x2
 391 0076 05       		.byte	0x5
 392 0077 A7010000 		.4byte	.LASF8
 393 007b 02       		.uleb128 0x2
 394 007c 02       		.byte	0x2
 395 007d 07       		.byte	0x7
 396 007e 8E000000 		.4byte	.LASF9
 397 0082 04       		.uleb128 0x4
 398 0083 33000000 		.4byte	.LASF10
 399 0087 03       		.byte	0x3
ARM GAS  C:\Users\DEVELO~1\AppData\Local\Temp\ccPNADy7.s 			page 8


 400 0088 4D       		.byte	0x4d
 401 0089 18       		.byte	0x18
 402 008a 8E000000 		.4byte	0x8e
 403 008e 02       		.uleb128 0x2
 404 008f 04       		.byte	0x4
 405 0090 05       		.byte	0x5
 406 0091 86020000 		.4byte	.LASF11
 407 0095 02       		.uleb128 0x2
 408 0096 04       		.byte	0x4
 409 0097 07       		.byte	0x7
 410 0098 12010000 		.4byte	.LASF12
 411 009c 02       		.uleb128 0x2
 412 009d 08       		.byte	0x8
 413 009e 07       		.byte	0x7
 414 009f DD020000 		.4byte	.LASF13
 415 00a3 14       		.uleb128 0x14
 416 00a4 04       		.byte	0x4
 417 00a5 02       		.uleb128 0x2
 418 00a6 01       		.byte	0x1
 419 00a7 08       		.byte	0x8
 420 00a8 44010000 		.4byte	.LASF14
 421 00ac 04       		.uleb128 0x4
 422 00ad 4F000000 		.4byte	.LASF15
 423 00b1 04       		.byte	0x4
 424 00b2 14       		.byte	0x14
 425 00b3 12       		.byte	0x12
 426 00b4 4E000000 		.4byte	0x4e
 427 00b8 04       		.uleb128 0x4
 428 00b9 49010000 		.4byte	.LASF16
 429 00bd 04       		.byte	0x4
 430 00be 18       		.byte	0x18
 431 00bf 13       		.byte	0x13
 432 00c0 61000000 		.4byte	0x61
 433 00c4 0B       		.uleb128 0xb
 434 00c5 B8000000 		.4byte	0xb8
 435 00c9 04       		.uleb128 0x4
 436 00ca 63010000 		.4byte	.LASF17
 437 00ce 04       		.byte	0x4
 438 00cf 2C       		.byte	0x2c
 439 00d0 13       		.byte	0x13
 440 00d1 82000000 		.4byte	0x82
 441 00d5 04       		.uleb128 0x4
 442 00d6 51010000 		.4byte	.LASF18
 443 00da 05       		.byte	0x5
 444 00db 58       		.byte	0x58
 445 00dc 19       		.byte	0x19
 446 00dd C9000000 		.4byte	0xc9
 447 00e1 02       		.uleb128 0x2
 448 00e2 01       		.byte	0x1
 449 00e3 02       		.byte	0x2
 450 00e4 BF020000 		.4byte	.LASF19
 451 00e8 03       		.uleb128 0x3
 452 00e9 B8000000 		.4byte	0xb8
 453 00ed 0D       		.uleb128 0xd
 454 00ee C5020000 		.4byte	.LASF24
 455 00f2 14       		.byte	0x14
 456 00f3 06       		.byte	0x6
ARM GAS  C:\Users\DEVELO~1\AppData\Local\Temp\ccPNADy7.s 			page 9


 457 00f4 4F       		.byte	0x4f
 458 00f5 38010000 		.4byte	0x138
 459 00f9 05       		.uleb128 0x5
 460 00fa 24010000 		.4byte	.LASF20
 461 00fe 06       		.byte	0x6
 462 00ff 50       		.byte	0x50
 463 0100 2D000000 		.4byte	0x2d
 464 0104 00       		.byte	0
 465 0105 05       		.uleb128 0x5
 466 0106 A1000000 		.4byte	.LASF21
 467 010a 06       		.byte	0x6
 468 010b 50       		.byte	0x50
 469 010c 5B010000 		.4byte	0x15b
 470 0110 04       		.byte	0x4
 471 0111 05       		.uleb128 0x5
 472 0112 34010000 		.4byte	.LASF22
 473 0116 06       		.byte	0x6
 474 0117 50       		.byte	0x50
 475 0118 79010000 		.4byte	0x179
 476 011c 08       		.byte	0x8
 477 011d 07       		.uleb128 0x7
 478 011e 70757400 		.ascii	"put\000"
 479 0122 06       		.byte	0x6
 480 0123 50       		.byte	0x50
 481 0124 03       		.byte	0x3
 482 0125 92010000 		.4byte	0x192
 483 0129 0C       		.byte	0xc
 484 012a 07       		.uleb128 0x7
 485 012b 67657400 		.ascii	"get\000"
 486 012f 06       		.byte	0x6
 487 0130 50       		.byte	0x50
 488 0131 03       		.byte	0x3
 489 0132 A6010000 		.4byte	0x1a6
 490 0136 10       		.byte	0x10
 491 0137 00       		.byte	0
 492 0138 0B       		.uleb128 0xb
 493 0139 ED000000 		.4byte	0xed
 494 013d 0A       		.uleb128 0xa
 495 013e 2D000000 		.4byte	0x2d
 496 0142 56010000 		.4byte	0x156
 497 0146 01       		.uleb128 0x1
 498 0147 A3000000 		.4byte	0xa3
 499 014b 01       		.uleb128 0x1
 500 014c 56010000 		.4byte	0x156
 501 0150 01       		.uleb128 0x1
 502 0151 2D000000 		.4byte	0x2d
 503 0155 00       		.byte	0
 504 0156 03       		.uleb128 0x3
 505 0157 C4000000 		.4byte	0xc4
 506 015b 03       		.uleb128 0x3
 507 015c 3D010000 		.4byte	0x13d
 508 0160 0A       		.uleb128 0xa
 509 0161 2D000000 		.4byte	0x2d
 510 0165 79010000 		.4byte	0x179
 511 0169 01       		.uleb128 0x1
 512 016a A3000000 		.4byte	0xa3
 513 016e 01       		.uleb128 0x1
ARM GAS  C:\Users\DEVELO~1\AppData\Local\Temp\ccPNADy7.s 			page 10


 514 016f E8000000 		.4byte	0xe8
 515 0173 01       		.uleb128 0x1
 516 0174 2D000000 		.4byte	0x2d
 517 0178 00       		.byte	0
 518 0179 03       		.uleb128 0x3
 519 017a 60010000 		.4byte	0x160
 520 017e 0A       		.uleb128 0xa
 521 017f D5000000 		.4byte	0xd5
 522 0183 92010000 		.4byte	0x192
 523 0187 01       		.uleb128 0x1
 524 0188 A3000000 		.4byte	0xa3
 525 018c 01       		.uleb128 0x1
 526 018d B8000000 		.4byte	0xb8
 527 0191 00       		.byte	0
 528 0192 03       		.uleb128 0x3
 529 0193 7E010000 		.4byte	0x17e
 530 0197 0A       		.uleb128 0xa
 531 0198 D5000000 		.4byte	0xd5
 532 019c A6010000 		.4byte	0x1a6
 533 01a0 01       		.uleb128 0x1
 534 01a1 A3000000 		.4byte	0xa3
 535 01a5 00       		.byte	0
 536 01a6 03       		.uleb128 0x3
 537 01a7 97010000 		.4byte	0x197
 538 01ab 0E       		.uleb128 0xe
 539 01ac 04       		.byte	0x4
 540 01ad 06       		.byte	0x6
 541 01ae 5A       		.byte	0x5a
 542 01af C1010000 		.4byte	0x1c1
 543 01b3 07       		.uleb128 0x7
 544 01b4 766D7400 		.ascii	"vmt\000"
 545 01b8 06       		.byte	0x6
 546 01b9 5C       		.byte	0x5c
 547 01ba 29       		.byte	0x29
 548 01bb C1010000 		.4byte	0x1c1
 549 01bf 00       		.byte	0
 550 01c0 00       		.byte	0
 551 01c1 03       		.uleb128 0x3
 552 01c2 38010000 		.4byte	0x138
 553 01c6 04       		.uleb128 0x4
 554 01c7 6B000000 		.4byte	.LASF23
 555 01cb 06       		.byte	0x6
 556 01cc 5E       		.byte	0x5e
 557 01cd 03       		.byte	0x3
 558 01ce AB010000 		.4byte	0x1ab
 559 01d2 0D       		.uleb128 0xd
 560 01d3 B8010000 		.4byte	.LASF25
 561 01d7 18       		.byte	0x18
 562 01d8 07       		.byte	0x7
 563 01d9 46       		.byte	0x46
 564 01da 29020000 		.4byte	0x229
 565 01de 05       		.uleb128 0x5
 566 01df 24010000 		.4byte	.LASF20
 567 01e3 07       		.byte	0x7
 568 01e4 47       		.byte	0x47
 569 01e5 2D000000 		.4byte	0x2d
 570 01e9 00       		.byte	0
ARM GAS  C:\Users\DEVELO~1\AppData\Local\Temp\ccPNADy7.s 			page 11


 571 01ea 05       		.uleb128 0x5
 572 01eb A1000000 		.4byte	.LASF21
 573 01ef 07       		.byte	0x7
 574 01f0 47       		.byte	0x47
 575 01f1 5B010000 		.4byte	0x15b
 576 01f5 04       		.byte	0x4
 577 01f6 05       		.uleb128 0x5
 578 01f7 34010000 		.4byte	.LASF22
 579 01fb 07       		.byte	0x7
 580 01fc 47       		.byte	0x47
 581 01fd 79010000 		.4byte	0x179
 582 0201 08       		.byte	0x8
 583 0202 07       		.uleb128 0x7
 584 0203 70757400 		.ascii	"put\000"
 585 0207 07       		.byte	0x7
 586 0208 47       		.byte	0x47
 587 0209 03       		.byte	0x3
 588 020a 92010000 		.4byte	0x192
 589 020e 0C       		.byte	0xc
 590 020f 07       		.uleb128 0x7
 591 0210 67657400 		.ascii	"get\000"
 592 0214 07       		.byte	0x7
 593 0215 47       		.byte	0x47
 594 0216 03       		.byte	0x3
 595 0217 A6010000 		.4byte	0x1a6
 596 021b 10       		.byte	0x10
 597 021c 05       		.uleb128 0x5
 598 021d 3E010000 		.4byte	.LASF26
 599 0221 07       		.byte	0x7
 600 0222 47       		.byte	0x47
 601 0223 92010000 		.4byte	0x192
 602 0227 14       		.byte	0x14
 603 0228 00       		.byte	0
 604 0229 0B       		.uleb128 0xb
 605 022a D2010000 		.4byte	0x1d2
 606 022e 0E       		.uleb128 0xe
 607 022f 10       		.byte	0x10
 608 0230 07       		.byte	0x7
 609 0231 4F       		.byte	0x4f
 610 0232 69020000 		.4byte	0x269
 611 0236 07       		.uleb128 0x7
 612 0237 766D7400 		.ascii	"vmt\000"
 613 023b 07       		.byte	0x7
 614 023c 51       		.byte	0x51
 615 023d 2A       		.byte	0x2a
 616 023e 69020000 		.4byte	0x269
 617 0242 00       		.byte	0
 618 0243 05       		.uleb128 0x5
 619 0244 5E010000 		.4byte	.LASF27
 620 0248 07       		.byte	0x7
 621 0249 52       		.byte	0x52
 622 024a 6E020000 		.4byte	0x26e
 623 024e 04       		.byte	0x4
 624 024f 05       		.uleb128 0x5
 625 0250 B1010000 		.4byte	.LASF28
 626 0254 07       		.byte	0x7
 627 0255 52       		.byte	0x52
ARM GAS  C:\Users\DEVELO~1\AppData\Local\Temp\ccPNADy7.s 			page 12


 628 0256 73020000 		.4byte	0x273
 629 025a 08       		.byte	0x8
 630 025b 07       		.uleb128 0x7
 631 025c 6E647800 		.ascii	"ndx\000"
 632 0260 07       		.byte	0x7
 633 0261 52       		.byte	0x52
 634 0262 03       		.byte	0x3
 635 0263 2D000000 		.4byte	0x2d
 636 0267 0C       		.byte	0xc
 637 0268 00       		.byte	0
 638 0269 03       		.uleb128 0x3
 639 026a 29020000 		.4byte	0x229
 640 026e 03       		.uleb128 0x3
 641 026f C6010000 		.4byte	0x1c6
 642 0273 15       		.uleb128 0x15
 643 0274 B8000000 		.4byte	0xb8
 644 0278 83020000 		.4byte	0x283
 645 027c 16       		.uleb128 0x16
 646 027d 39000000 		.4byte	0x39
 647 0281 00       		.byte	0
 648 0282 00       		.byte	0
 649 0283 04       		.uleb128 0x4
 650 0284 91010000 		.4byte	.LASF29
 651 0288 07       		.byte	0x7
 652 0289 53       		.byte	0x53
 653 028a 03       		.byte	0x3
 654 028b 2E020000 		.4byte	0x22e
 655 028f 17       		.uleb128 0x17
 656 0290 766D7400 		.ascii	"vmt\000"
 657 0294 01       		.byte	0x1
 658 0295 63       		.byte	0x63
 659 0296 2E       		.byte	0x2e
 660 0297 29020000 		.4byte	0x229
 661 029b 05       		.uleb128 0x5
 662 029c 03       		.byte	0x3
 663 029d 00000000 		.4byte	vmt
 664 02a1 0F       		.uleb128 0xf
 665 02a2 81010000 		.4byte	.LASF30
 666 02a6 1F       		.byte	0x1f
 667 02a7 A3000000 		.4byte	0xa3
 668 02ab BF020000 		.4byte	0x2bf
 669 02af 01       		.uleb128 0x1
 670 02b0 A3000000 		.4byte	0xa3
 671 02b4 01       		.uleb128 0x1
 672 02b5 BF020000 		.4byte	0x2bf
 673 02b9 01       		.uleb128 0x1
 674 02ba 2D000000 		.4byte	0x2d
 675 02be 00       		.byte	0
 676 02bf 03       		.uleb128 0x3
 677 02c0 C4020000 		.4byte	0x2c4
 678 02c4 18       		.uleb128 0x18
 679 02c5 0F       		.uleb128 0xf
 680 02c6 0B010000 		.4byte	.LASF31
 681 02ca 21       		.byte	0x21
 682 02cb A3000000 		.4byte	0xa3
 683 02cf E3020000 		.4byte	0x2e3
 684 02d3 01       		.uleb128 0x1
ARM GAS  C:\Users\DEVELO~1\AppData\Local\Temp\ccPNADy7.s 			page 13


 685 02d4 A3000000 		.4byte	0xa3
 686 02d8 01       		.uleb128 0x1
 687 02d9 26000000 		.4byte	0x26
 688 02dd 01       		.uleb128 0x1
 689 02de 2D000000 		.4byte	0x2d
 690 02e2 00       		.byte	0
 691 02e3 19       		.uleb128 0x19
 692 02e4 FD000000 		.4byte	.LASF40
 693 02e8 01       		.byte	0x1
 694 02e9 73       		.byte	0x73
 695 02ea 06       		.byte	0x6
 696 02eb 00000000 		.4byte	.LFB437
 697 02ef 18000000 		.4byte	.LFE437-.LFB437
 698 02f3 01       		.uleb128 0x1
 699 02f4 9C       		.byte	0x9c
 700 02f5 14030000 		.4byte	0x314
 701 02f9 10       		.uleb128 0x10
 702 02fa 4A000000 		.4byte	.LASF32
 703 02fe 73       		.byte	0x73
 704 02ff 2B       		.byte	0x2b
 705 0300 14030000 		.4byte	0x314
 706 0304 01       		.uleb128 0x1
 707 0305 50       		.byte	0x50
 708 0306 10       		.uleb128 0x10
 709 0307 5E010000 		.4byte	.LASF27
 710 030b 73       		.byte	0x73
 711 030c 47       		.byte	0x47
 712 030d 6E020000 		.4byte	0x26e
 713 0311 01       		.uleb128 0x1
 714 0312 51       		.byte	0x51
 715 0313 00       		.byte	0
 716 0314 03       		.uleb128 0x3
 717 0315 83020000 		.4byte	0x283
 718 0319 0C       		.uleb128 0xc
 719 031a B8020000 		.4byte	.LASF33
 720 031e 57       		.byte	0x57
 721 031f 0E       		.byte	0xe
 722 0320 D5000000 		.4byte	0xd5
 723 0324 00000000 		.4byte	.LFB436
 724 0328 20000000 		.4byte	.LFE436-.LFB436
 725 032c 01       		.uleb128 0x1
 726 032d 9C       		.byte	0x9c
 727 032e 64030000 		.4byte	0x364
 728 0332 06       		.uleb128 0x6
 729 0333 697000   		.ascii	"ip\000"
 730 0336 57       		.byte	0x57
 731 0337 1B       		.byte	0x1b
 732 0338 A3000000 		.4byte	0xa3
 733 033c 14000000 		.4byte	.LLST7
 734 0340 0C000000 		.4byte	.LVUS7
 735 0344 1A       		.uleb128 0x1a
 736 0345 6200     		.ascii	"b\000"
 737 0347 01       		.byte	0x1
 738 0348 57       		.byte	0x57
 739 0349 27       		.byte	0x27
 740 034a B8000000 		.4byte	0xb8
 741 034e 01       		.uleb128 0x1
ARM GAS  C:\Users\DEVELO~1\AppData\Local\Temp\ccPNADy7.s 			page 14


 742 034f 51       		.byte	0x51
 743 0350 09       		.uleb128 0x9
 744 0351 4A000000 		.4byte	.LASF32
 745 0355 58       		.byte	0x58
 746 0356 1A       		.byte	0x1a
 747 0357 14030000 		.4byte	0x314
 748 035b 36000000 		.4byte	.LLST8
 749 035f 2E000000 		.4byte	.LVUS8
 750 0363 00       		.byte	0
 751 0364 1B       		.uleb128 0x1b
 752 0365 39010000 		.4byte	.LASF41
 753 0369 01       		.byte	0x1
 754 036a 4D       		.byte	0x4d
 755 036b 0E       		.byte	0xe
 756 036c D5000000 		.4byte	0xd5
 757 0370 01       		.byte	0x1
 758 0371 8D030000 		.4byte	0x38d
 759 0375 1C       		.uleb128 0x1c
 760 0376 697000   		.ascii	"ip\000"
 761 0379 01       		.byte	0x1
 762 037a 4D       		.byte	0x4d
 763 037b 19       		.byte	0x19
 764 037c A3000000 		.4byte	0xa3
 765 0380 1D       		.uleb128 0x1d
 766 0381 4A000000 		.4byte	.LASF32
 767 0385 01       		.byte	0x1
 768 0386 4E       		.byte	0x4e
 769 0387 1A       		.byte	0x1a
 770 0388 14030000 		.4byte	0x314
 771 038c 00       		.byte	0
 772 038d 1E       		.uleb128 0x1e
 773 038e 2E000000 		.4byte	.LASF42
 774 0392 01       		.byte	0x1
 775 0393 48       		.byte	0x48
 776 0394 0E       		.byte	0xe
 777 0395 D5000000 		.4byte	0xd5
 778 0399 00000000 		.4byte	.LFB434
 779 039d 08000000 		.4byte	.LFE434-.LFB434
 780 03a1 01       		.uleb128 0x1
 781 03a2 9C       		.byte	0x9c
 782 03a3 DE030000 		.4byte	0x3de
 783 03a7 06       		.uleb128 0x6
 784 03a8 697000   		.ascii	"ip\000"
 785 03ab 48       		.byte	0x48
 786 03ac 19       		.byte	0x19
 787 03ad A3000000 		.4byte	0xa3
 788 03b1 54000000 		.4byte	.LLST4
 789 03b5 50000000 		.4byte	.LVUS4
 790 03b9 06       		.uleb128 0x6
 791 03ba 6200     		.ascii	"b\000"
 792 03bc 48       		.byte	0x48
 793 03bd 25       		.byte	0x25
 794 03be B8000000 		.4byte	0xb8
 795 03c2 6B000000 		.4byte	.LLST5
 796 03c6 67000000 		.4byte	.LVUS5
 797 03ca 09       		.uleb128 0x9
 798 03cb 4A000000 		.4byte	.LASF32
ARM GAS  C:\Users\DEVELO~1\AppData\Local\Temp\ccPNADy7.s 			page 15


 799 03cf 49       		.byte	0x49
 800 03d0 1A       		.byte	0x1a
 801 03d1 14030000 		.4byte	0x314
 802 03d5 82000000 		.4byte	.LLST6
 803 03d9 7E000000 		.4byte	.LVUS6
 804 03dd 00       		.byte	0
 805 03de 0C       		.uleb128 0xc
 806 03df 57010000 		.4byte	.LASF34
 807 03e3 38       		.byte	0x38
 808 03e4 0F       		.byte	0xf
 809 03e5 2D000000 		.4byte	0x2d
 810 03e9 00000000 		.4byte	.LFB433
 811 03ed 36000000 		.4byte	.LFE433-.LFB433
 812 03f1 01       		.uleb128 0x1
 813 03f2 9C       		.byte	0x9c
 814 03f3 88040000 		.4byte	0x488
 815 03f7 06       		.uleb128 0x6
 816 03f8 697000   		.ascii	"ip\000"
 817 03fb 38       		.byte	0x38
 818 03fc 1C       		.byte	0x1c
 819 03fd A3000000 		.4byte	0xa3
 820 0401 99000000 		.4byte	.LLST9
 821 0405 95000000 		.4byte	.LVUS9
 822 0409 06       		.uleb128 0x6
 823 040a 627000   		.ascii	"bp\000"
 824 040d 38       		.byte	0x38
 825 040e 29       		.byte	0x29
 826 040f E8000000 		.4byte	0xe8
 827 0413 AF000000 		.4byte	.LLST10
 828 0417 A9000000 		.4byte	.LVUS10
 829 041b 06       		.uleb128 0x6
 830 041c 6E00     		.ascii	"n\000"
 831 041e 38       		.byte	0x38
 832 041f 34       		.byte	0x34
 833 0420 2D000000 		.4byte	0x2d
 834 0424 CB000000 		.4byte	.LLST11
 835 0428 C7000000 		.4byte	.LVUS11
 836 042c 09       		.uleb128 0x9
 837 042d 4A000000 		.4byte	.LASF32
 838 0431 39       		.byte	0x39
 839 0432 1A       		.byte	0x1a
 840 0433 14030000 		.4byte	0x314
 841 0437 DF000000 		.4byte	.LLST12
 842 043b DB000000 		.4byte	.LVUS12
 843 043f 09       		.uleb128 0x9
 844 0440 56000000 		.4byte	.LASF35
 845 0444 3A       		.byte	0x3a
 846 0445 13       		.byte	0x13
 847 0446 2D000000 		.4byte	0x2d
 848 044a F1000000 		.4byte	.LLST13
 849 044e EF000000 		.4byte	.LVUS13
 850 0452 1F       		.uleb128 0x1f
 851 0453 20000000 		.4byte	.LVL17
 852 0457 54050000 		.4byte	0x554
 853 045b 78040000 		.4byte	0x478
 854 045f 08       		.uleb128 0x8
 855 0460 01       		.uleb128 0x1
ARM GAS  C:\Users\DEVELO~1\AppData\Local\Temp\ccPNADy7.s 			page 16


 856 0461 50       		.byte	0x50
 857 0462 03       		.uleb128 0x3
 858 0463 A3       		.byte	0xa3
 859 0464 01       		.uleb128 0x1
 860 0465 51       		.byte	0x51
 861 0466 08       		.uleb128 0x8
 862 0467 01       		.uleb128 0x1
 863 0468 51       		.byte	0x51
 864 0469 07       		.uleb128 0x7
 865 046a 76       		.byte	0x76
 866 046b 00       		.sleb128 0
 867 046c 74       		.byte	0x74
 868 046d 00       		.sleb128 0
 869 046e 1C       		.byte	0x1c
 870 046f 23       		.byte	0x23
 871 0470 09       		.uleb128 0x9
 872 0471 08       		.uleb128 0x8
 873 0472 01       		.uleb128 0x1
 874 0473 52       		.byte	0x52
 875 0474 02       		.uleb128 0x2
 876 0475 74       		.byte	0x74
 877 0476 00       		.sleb128 0
 878 0477 00       		.byte	0
 879 0478 20       		.uleb128 0x20
 880 0479 32000000 		.4byte	.LVL18
 881 047d 08       		.uleb128 0x8
 882 047e 01       		.uleb128 0x1
 883 047f 52       		.byte	0x52
 884 0480 05       		.uleb128 0x5
 885 0481 75       		.byte	0x75
 886 0482 00       		.sleb128 0
 887 0483 74       		.byte	0x74
 888 0484 00       		.sleb128 0
 889 0485 1C       		.byte	0x1c
 890 0486 00       		.byte	0
 891 0487 00       		.byte	0
 892 0488 0C       		.uleb128 0xc
 893 0489 6B010000 		.4byte	.LASF36
 894 048d 33       		.byte	0x33
 895 048e 0F       		.byte	0xf
 896 048f 2D000000 		.4byte	0x2d
 897 0493 00000000 		.4byte	.LFB432
 898 0497 08000000 		.4byte	.LFE432-.LFB432
 899 049b 01       		.uleb128 0x1
 900 049c 9C       		.byte	0x9c
 901 049d FE040000 		.4byte	0x4fe
 902 04a1 06       		.uleb128 0x6
 903 04a2 697000   		.ascii	"ip\000"
 904 04a5 33       		.byte	0x33
 905 04a6 1D       		.byte	0x1d
 906 04a7 A3000000 		.4byte	0xa3
 907 04ab FE000000 		.4byte	.LLST0
 908 04af FA000000 		.4byte	.LVUS0
 909 04b3 06       		.uleb128 0x6
 910 04b4 627000   		.ascii	"bp\000"
 911 04b7 33       		.byte	0x33
 912 04b8 30       		.byte	0x30
ARM GAS  C:\Users\DEVELO~1\AppData\Local\Temp\ccPNADy7.s 			page 17


 913 04b9 56010000 		.4byte	0x156
 914 04bd 15010000 		.4byte	.LLST1
 915 04c1 11010000 		.4byte	.LVUS1
 916 04c5 06       		.uleb128 0x6
 917 04c6 6E00     		.ascii	"n\000"
 918 04c8 33       		.byte	0x33
 919 04c9 3B       		.byte	0x3b
 920 04ca 2D000000 		.4byte	0x2d
 921 04ce 2C010000 		.4byte	.LLST2
 922 04d2 28010000 		.4byte	.LVUS2
 923 04d6 09       		.uleb128 0x9
 924 04d7 4A000000 		.4byte	.LASF32
 925 04db 34       		.byte	0x34
 926 04dc 1A       		.byte	0x1a
 927 04dd 14030000 		.4byte	0x314
 928 04e1 43010000 		.4byte	.LLST3
 929 04e5 3F010000 		.4byte	.LVUS3
 930 04e9 21       		.uleb128 0x21
 931 04ea 08000000 		.4byte	.LVL2
 932 04ee 08       		.uleb128 0x8
 933 04ef 01       		.uleb128 0x1
 934 04f0 51       		.byte	0x51
 935 04f1 03       		.uleb128 0x3
 936 04f2 A3       		.byte	0xa3
 937 04f3 01       		.uleb128 0x1
 938 04f4 51       		.byte	0x51
 939 04f5 08       		.uleb128 0x8
 940 04f6 01       		.uleb128 0x1
 941 04f7 52       		.byte	0x52
 942 04f8 03       		.uleb128 0x3
 943 04f9 A3       		.byte	0xa3
 944 04fa 01       		.uleb128 0x1
 945 04fb 52       		.byte	0x52
 946 04fc 00       		.byte	0
 947 04fd 00       		.byte	0
 948 04fe 22       		.uleb128 0x22
 949 04ff 64030000 		.4byte	0x364
 950 0503 00000000 		.4byte	.LFB435
 951 0507 18000000 		.4byte	.LFE435-.LFB435
 952 050b 01       		.uleb128 0x1
 953 050c 9C       		.byte	0x9c
 954 050d 54050000 		.4byte	0x554
 955 0511 11       		.uleb128 0x11
 956 0512 75030000 		.4byte	0x375
 957 0516 5E010000 		.4byte	.LLST14
 958 051a 56010000 		.4byte	.LVUS14
 959 051e 23       		.uleb128 0x23
 960 051f 80030000 		.4byte	0x380
 961 0523 86010000 		.4byte	.LLST15
 962 0527 7E010000 		.4byte	.LVUS15
 963 052b 24       		.uleb128 0x24
 964 052c 64030000 		.4byte	0x364
 965 0530 10000000 		.4byte	.LBI4
 966 0534 00       		.byte	.LVU67
 967 0535 10000000 		.4byte	.LBB4
 968 0539 08000000 		.4byte	.LBE4-.LBB4
 969 053d 01       		.byte	0x1
ARM GAS  C:\Users\DEVELO~1\AppData\Local\Temp\ccPNADy7.s 			page 18


 970 053e 4D       		.byte	0x4d
 971 053f 0E       		.byte	0xe
 972 0540 11       		.uleb128 0x11
 973 0541 75030000 		.4byte	0x375
 974 0545 AA010000 		.4byte	.LLST16
 975 0549 A6010000 		.4byte	.LVUS16
 976 054d 25       		.uleb128 0x25
 977 054e 80030000 		.4byte	0x380
 978 0552 00       		.byte	0
 979 0553 00       		.byte	0
 980 0554 26       		.uleb128 0x26
 981 0555 81010000 		.4byte	.LASF30
 982 0559 1D000000 		.4byte	.LASF43
 983 055d 09       		.byte	0x9
 984 055e 00       		.byte	0
 985 055f 00       		.byte	0
 986              		.section	.debug_abbrev,"",%progbits
 987              	.Ldebug_abbrev0:
 988 0000 01       		.uleb128 0x1
 989 0001 05       		.uleb128 0x5
 990 0002 00       		.byte	0
 991 0003 49       		.uleb128 0x49
 992 0004 13       		.uleb128 0x13
 993 0005 00       		.byte	0
 994 0006 00       		.byte	0
 995 0007 02       		.uleb128 0x2
 996 0008 24       		.uleb128 0x24
 997 0009 00       		.byte	0
 998 000a 0B       		.uleb128 0xb
 999 000b 0B       		.uleb128 0xb
 1000 000c 3E       		.uleb128 0x3e
 1001 000d 0B       		.uleb128 0xb
 1002 000e 03       		.uleb128 0x3
 1003 000f 0E       		.uleb128 0xe
 1004 0010 00       		.byte	0
 1005 0011 00       		.byte	0
 1006 0012 03       		.uleb128 0x3
 1007 0013 0F       		.uleb128 0xf
 1008 0014 00       		.byte	0
 1009 0015 0B       		.uleb128 0xb
 1010 0016 21       		.uleb128 0x21
 1011 0017 04       		.sleb128 4
 1012 0018 49       		.uleb128 0x49
 1013 0019 13       		.uleb128 0x13
 1014 001a 00       		.byte	0
 1015 001b 00       		.byte	0
 1016 001c 04       		.uleb128 0x4
 1017 001d 16       		.uleb128 0x16
 1018 001e 00       		.byte	0
 1019 001f 03       		.uleb128 0x3
 1020 0020 0E       		.uleb128 0xe
 1021 0021 3A       		.uleb128 0x3a
 1022 0022 0B       		.uleb128 0xb
 1023 0023 3B       		.uleb128 0x3b
 1024 0024 0B       		.uleb128 0xb
 1025 0025 39       		.uleb128 0x39
 1026 0026 0B       		.uleb128 0xb
ARM GAS  C:\Users\DEVELO~1\AppData\Local\Temp\ccPNADy7.s 			page 19


 1027 0027 49       		.uleb128 0x49
 1028 0028 13       		.uleb128 0x13
 1029 0029 00       		.byte	0
 1030 002a 00       		.byte	0
 1031 002b 05       		.uleb128 0x5
 1032 002c 0D       		.uleb128 0xd
 1033 002d 00       		.byte	0
 1034 002e 03       		.uleb128 0x3
 1035 002f 0E       		.uleb128 0xe
 1036 0030 3A       		.uleb128 0x3a
 1037 0031 0B       		.uleb128 0xb
 1038 0032 3B       		.uleb128 0x3b
 1039 0033 0B       		.uleb128 0xb
 1040 0034 39       		.uleb128 0x39
 1041 0035 21       		.uleb128 0x21
 1042 0036 03       		.sleb128 3
 1043 0037 49       		.uleb128 0x49
 1044 0038 13       		.uleb128 0x13
 1045 0039 38       		.uleb128 0x38
 1046 003a 0B       		.uleb128 0xb
 1047 003b 00       		.byte	0
 1048 003c 00       		.byte	0
 1049 003d 06       		.uleb128 0x6
 1050 003e 05       		.uleb128 0x5
 1051 003f 00       		.byte	0
 1052 0040 03       		.uleb128 0x3
 1053 0041 08       		.uleb128 0x8
 1054 0042 3A       		.uleb128 0x3a
 1055 0043 21       		.uleb128 0x21
 1056 0044 01       		.sleb128 1
 1057 0045 3B       		.uleb128 0x3b
 1058 0046 0B       		.uleb128 0xb
 1059 0047 39       		.uleb128 0x39
 1060 0048 0B       		.uleb128 0xb
 1061 0049 49       		.uleb128 0x49
 1062 004a 13       		.uleb128 0x13
 1063 004b 02       		.uleb128 0x2
 1064 004c 17       		.uleb128 0x17
 1065 004d B742     		.uleb128 0x2137
 1066 004f 17       		.uleb128 0x17
 1067 0050 00       		.byte	0
 1068 0051 00       		.byte	0
 1069 0052 07       		.uleb128 0x7
 1070 0053 0D       		.uleb128 0xd
 1071 0054 00       		.byte	0
 1072 0055 03       		.uleb128 0x3
 1073 0056 08       		.uleb128 0x8
 1074 0057 3A       		.uleb128 0x3a
 1075 0058 0B       		.uleb128 0xb
 1076 0059 3B       		.uleb128 0x3b
 1077 005a 0B       		.uleb128 0xb
 1078 005b 39       		.uleb128 0x39
 1079 005c 0B       		.uleb128 0xb
 1080 005d 49       		.uleb128 0x49
 1081 005e 13       		.uleb128 0x13
 1082 005f 38       		.uleb128 0x38
 1083 0060 0B       		.uleb128 0xb
ARM GAS  C:\Users\DEVELO~1\AppData\Local\Temp\ccPNADy7.s 			page 20


 1084 0061 00       		.byte	0
 1085 0062 00       		.byte	0
 1086 0063 08       		.uleb128 0x8
 1087 0064 49       		.uleb128 0x49
 1088 0065 00       		.byte	0
 1089 0066 02       		.uleb128 0x2
 1090 0067 18       		.uleb128 0x18
 1091 0068 7E       		.uleb128 0x7e
 1092 0069 18       		.uleb128 0x18
 1093 006a 00       		.byte	0
 1094 006b 00       		.byte	0
 1095 006c 09       		.uleb128 0x9
 1096 006d 34       		.uleb128 0x34
 1097 006e 00       		.byte	0
 1098 006f 03       		.uleb128 0x3
 1099 0070 0E       		.uleb128 0xe
 1100 0071 3A       		.uleb128 0x3a
 1101 0072 21       		.uleb128 0x21
 1102 0073 01       		.sleb128 1
 1103 0074 3B       		.uleb128 0x3b
 1104 0075 0B       		.uleb128 0xb
 1105 0076 39       		.uleb128 0x39
 1106 0077 0B       		.uleb128 0xb
 1107 0078 49       		.uleb128 0x49
 1108 0079 13       		.uleb128 0x13
 1109 007a 02       		.uleb128 0x2
 1110 007b 17       		.uleb128 0x17
 1111 007c B742     		.uleb128 0x2137
 1112 007e 17       		.uleb128 0x17
 1113 007f 00       		.byte	0
 1114 0080 00       		.byte	0
 1115 0081 0A       		.uleb128 0xa
 1116 0082 15       		.uleb128 0x15
 1117 0083 01       		.byte	0x1
 1118 0084 27       		.uleb128 0x27
 1119 0085 19       		.uleb128 0x19
 1120 0086 49       		.uleb128 0x49
 1121 0087 13       		.uleb128 0x13
 1122 0088 01       		.uleb128 0x1
 1123 0089 13       		.uleb128 0x13
 1124 008a 00       		.byte	0
 1125 008b 00       		.byte	0
 1126 008c 0B       		.uleb128 0xb
 1127 008d 26       		.uleb128 0x26
 1128 008e 00       		.byte	0
 1129 008f 49       		.uleb128 0x49
 1130 0090 13       		.uleb128 0x13
 1131 0091 00       		.byte	0
 1132 0092 00       		.byte	0
 1133 0093 0C       		.uleb128 0xc
 1134 0094 2E       		.uleb128 0x2e
 1135 0095 01       		.byte	0x1
 1136 0096 03       		.uleb128 0x3
 1137 0097 0E       		.uleb128 0xe
 1138 0098 3A       		.uleb128 0x3a
 1139 0099 21       		.uleb128 0x21
 1140 009a 01       		.sleb128 1
ARM GAS  C:\Users\DEVELO~1\AppData\Local\Temp\ccPNADy7.s 			page 21


 1141 009b 3B       		.uleb128 0x3b
 1142 009c 0B       		.uleb128 0xb
 1143 009d 39       		.uleb128 0x39
 1144 009e 0B       		.uleb128 0xb
 1145 009f 27       		.uleb128 0x27
 1146 00a0 19       		.uleb128 0x19
 1147 00a1 49       		.uleb128 0x49
 1148 00a2 13       		.uleb128 0x13
 1149 00a3 11       		.uleb128 0x11
 1150 00a4 01       		.uleb128 0x1
 1151 00a5 12       		.uleb128 0x12
 1152 00a6 06       		.uleb128 0x6
 1153 00a7 40       		.uleb128 0x40
 1154 00a8 18       		.uleb128 0x18
 1155 00a9 7A       		.uleb128 0x7a
 1156 00aa 19       		.uleb128 0x19
 1157 00ab 01       		.uleb128 0x1
 1158 00ac 13       		.uleb128 0x13
 1159 00ad 00       		.byte	0
 1160 00ae 00       		.byte	0
 1161 00af 0D       		.uleb128 0xd
 1162 00b0 13       		.uleb128 0x13
 1163 00b1 01       		.byte	0x1
 1164 00b2 03       		.uleb128 0x3
 1165 00b3 0E       		.uleb128 0xe
 1166 00b4 0B       		.uleb128 0xb
 1167 00b5 0B       		.uleb128 0xb
 1168 00b6 3A       		.uleb128 0x3a
 1169 00b7 0B       		.uleb128 0xb
 1170 00b8 3B       		.uleb128 0x3b
 1171 00b9 0B       		.uleb128 0xb
 1172 00ba 39       		.uleb128 0x39
 1173 00bb 21       		.uleb128 0x21
 1174 00bc 08       		.sleb128 8
 1175 00bd 01       		.uleb128 0x1
 1176 00be 13       		.uleb128 0x13
 1177 00bf 00       		.byte	0
 1178 00c0 00       		.byte	0
 1179 00c1 0E       		.uleb128 0xe
 1180 00c2 13       		.uleb128 0x13
 1181 00c3 01       		.byte	0x1
 1182 00c4 0B       		.uleb128 0xb
 1183 00c5 0B       		.uleb128 0xb
 1184 00c6 3A       		.uleb128 0x3a
 1185 00c7 0B       		.uleb128 0xb
 1186 00c8 3B       		.uleb128 0x3b
 1187 00c9 0B       		.uleb128 0xb
 1188 00ca 39       		.uleb128 0x39
 1189 00cb 21       		.uleb128 0x21
 1190 00cc 09       		.sleb128 9
 1191 00cd 01       		.uleb128 0x1
 1192 00ce 13       		.uleb128 0x13
 1193 00cf 00       		.byte	0
 1194 00d0 00       		.byte	0
 1195 00d1 0F       		.uleb128 0xf
 1196 00d2 2E       		.uleb128 0x2e
 1197 00d3 01       		.byte	0x1
ARM GAS  C:\Users\DEVELO~1\AppData\Local\Temp\ccPNADy7.s 			page 22


 1198 00d4 3F       		.uleb128 0x3f
 1199 00d5 19       		.uleb128 0x19
 1200 00d6 03       		.uleb128 0x3
 1201 00d7 0E       		.uleb128 0xe
 1202 00d8 3A       		.uleb128 0x3a
 1203 00d9 21       		.uleb128 0x21
 1204 00da 08       		.sleb128 8
 1205 00db 3B       		.uleb128 0x3b
 1206 00dc 0B       		.uleb128 0xb
 1207 00dd 39       		.uleb128 0x39
 1208 00de 21       		.uleb128 0x21
 1209 00df 09       		.sleb128 9
 1210 00e0 27       		.uleb128 0x27
 1211 00e1 19       		.uleb128 0x19
 1212 00e2 49       		.uleb128 0x49
 1213 00e3 13       		.uleb128 0x13
 1214 00e4 3C       		.uleb128 0x3c
 1215 00e5 19       		.uleb128 0x19
 1216 00e6 01       		.uleb128 0x1
 1217 00e7 13       		.uleb128 0x13
 1218 00e8 00       		.byte	0
 1219 00e9 00       		.byte	0
 1220 00ea 10       		.uleb128 0x10
 1221 00eb 05       		.uleb128 0x5
 1222 00ec 00       		.byte	0
 1223 00ed 03       		.uleb128 0x3
 1224 00ee 0E       		.uleb128 0xe
 1225 00ef 3A       		.uleb128 0x3a
 1226 00f0 21       		.uleb128 0x21
 1227 00f1 01       		.sleb128 1
 1228 00f2 3B       		.uleb128 0x3b
 1229 00f3 0B       		.uleb128 0xb
 1230 00f4 39       		.uleb128 0x39
 1231 00f5 0B       		.uleb128 0xb
 1232 00f6 49       		.uleb128 0x49
 1233 00f7 13       		.uleb128 0x13
 1234 00f8 02       		.uleb128 0x2
 1235 00f9 18       		.uleb128 0x18
 1236 00fa 00       		.byte	0
 1237 00fb 00       		.byte	0
 1238 00fc 11       		.uleb128 0x11
 1239 00fd 05       		.uleb128 0x5
 1240 00fe 00       		.byte	0
 1241 00ff 31       		.uleb128 0x31
 1242 0100 13       		.uleb128 0x13
 1243 0101 02       		.uleb128 0x2
 1244 0102 17       		.uleb128 0x17
 1245 0103 B742     		.uleb128 0x2137
 1246 0105 17       		.uleb128 0x17
 1247 0106 00       		.byte	0
 1248 0107 00       		.byte	0
 1249 0108 12       		.uleb128 0x12
 1250 0109 11       		.uleb128 0x11
 1251 010a 01       		.byte	0x1
 1252 010b 25       		.uleb128 0x25
 1253 010c 0E       		.uleb128 0xe
 1254 010d 13       		.uleb128 0x13
ARM GAS  C:\Users\DEVELO~1\AppData\Local\Temp\ccPNADy7.s 			page 23


 1255 010e 0B       		.uleb128 0xb
 1256 010f 03       		.uleb128 0x3
 1257 0110 0E       		.uleb128 0xe
 1258 0111 1B       		.uleb128 0x1b
 1259 0112 0E       		.uleb128 0xe
 1260 0113 55       		.uleb128 0x55
 1261 0114 17       		.uleb128 0x17
 1262 0115 11       		.uleb128 0x11
 1263 0116 01       		.uleb128 0x1
 1264 0117 10       		.uleb128 0x10
 1265 0118 17       		.uleb128 0x17
 1266 0119 00       		.byte	0
 1267 011a 00       		.byte	0
 1268 011b 13       		.uleb128 0x13
 1269 011c 24       		.uleb128 0x24
 1270 011d 00       		.byte	0
 1271 011e 0B       		.uleb128 0xb
 1272 011f 0B       		.uleb128 0xb
 1273 0120 3E       		.uleb128 0x3e
 1274 0121 0B       		.uleb128 0xb
 1275 0122 03       		.uleb128 0x3
 1276 0123 08       		.uleb128 0x8
 1277 0124 00       		.byte	0
 1278 0125 00       		.byte	0
 1279 0126 14       		.uleb128 0x14
 1280 0127 0F       		.uleb128 0xf
 1281 0128 00       		.byte	0
 1282 0129 0B       		.uleb128 0xb
 1283 012a 0B       		.uleb128 0xb
 1284 012b 00       		.byte	0
 1285 012c 00       		.byte	0
 1286 012d 15       		.uleb128 0x15
 1287 012e 01       		.uleb128 0x1
 1288 012f 01       		.byte	0x1
 1289 0130 49       		.uleb128 0x49
 1290 0131 13       		.uleb128 0x13
 1291 0132 01       		.uleb128 0x1
 1292 0133 13       		.uleb128 0x13
 1293 0134 00       		.byte	0
 1294 0135 00       		.byte	0
 1295 0136 16       		.uleb128 0x16
 1296 0137 21       		.uleb128 0x21
 1297 0138 00       		.byte	0
 1298 0139 49       		.uleb128 0x49
 1299 013a 13       		.uleb128 0x13
 1300 013b 2F       		.uleb128 0x2f
 1301 013c 0B       		.uleb128 0xb
 1302 013d 00       		.byte	0
 1303 013e 00       		.byte	0
 1304 013f 17       		.uleb128 0x17
 1305 0140 34       		.uleb128 0x34
 1306 0141 00       		.byte	0
 1307 0142 03       		.uleb128 0x3
 1308 0143 08       		.uleb128 0x8
 1309 0144 3A       		.uleb128 0x3a
 1310 0145 0B       		.uleb128 0xb
 1311 0146 3B       		.uleb128 0x3b
ARM GAS  C:\Users\DEVELO~1\AppData\Local\Temp\ccPNADy7.s 			page 24


 1312 0147 0B       		.uleb128 0xb
 1313 0148 39       		.uleb128 0x39
 1314 0149 0B       		.uleb128 0xb
 1315 014a 49       		.uleb128 0x49
 1316 014b 13       		.uleb128 0x13
 1317 014c 02       		.uleb128 0x2
 1318 014d 18       		.uleb128 0x18
 1319 014e 00       		.byte	0
 1320 014f 00       		.byte	0
 1321 0150 18       		.uleb128 0x18
 1322 0151 26       		.uleb128 0x26
 1323 0152 00       		.byte	0
 1324 0153 00       		.byte	0
 1325 0154 00       		.byte	0
 1326 0155 19       		.uleb128 0x19
 1327 0156 2E       		.uleb128 0x2e
 1328 0157 01       		.byte	0x1
 1329 0158 3F       		.uleb128 0x3f
 1330 0159 19       		.uleb128 0x19
 1331 015a 03       		.uleb128 0x3
 1332 015b 0E       		.uleb128 0xe
 1333 015c 3A       		.uleb128 0x3a
 1334 015d 0B       		.uleb128 0xb
 1335 015e 3B       		.uleb128 0x3b
 1336 015f 0B       		.uleb128 0xb
 1337 0160 39       		.uleb128 0x39
 1338 0161 0B       		.uleb128 0xb
 1339 0162 27       		.uleb128 0x27
 1340 0163 19       		.uleb128 0x19
 1341 0164 11       		.uleb128 0x11
 1342 0165 01       		.uleb128 0x1
 1343 0166 12       		.uleb128 0x12
 1344 0167 06       		.uleb128 0x6
 1345 0168 40       		.uleb128 0x40
 1346 0169 18       		.uleb128 0x18
 1347 016a 7A       		.uleb128 0x7a
 1348 016b 19       		.uleb128 0x19
 1349 016c 01       		.uleb128 0x1
 1350 016d 13       		.uleb128 0x13
 1351 016e 00       		.byte	0
 1352 016f 00       		.byte	0
 1353 0170 1A       		.uleb128 0x1a
 1354 0171 05       		.uleb128 0x5
 1355 0172 00       		.byte	0
 1356 0173 03       		.uleb128 0x3
 1357 0174 08       		.uleb128 0x8
 1358 0175 3A       		.uleb128 0x3a
 1359 0176 0B       		.uleb128 0xb
 1360 0177 3B       		.uleb128 0x3b
 1361 0178 0B       		.uleb128 0xb
 1362 0179 39       		.uleb128 0x39
 1363 017a 0B       		.uleb128 0xb
 1364 017b 49       		.uleb128 0x49
 1365 017c 13       		.uleb128 0x13
 1366 017d 02       		.uleb128 0x2
 1367 017e 18       		.uleb128 0x18
 1368 017f 00       		.byte	0
ARM GAS  C:\Users\DEVELO~1\AppData\Local\Temp\ccPNADy7.s 			page 25


 1369 0180 00       		.byte	0
 1370 0181 1B       		.uleb128 0x1b
 1371 0182 2E       		.uleb128 0x2e
 1372 0183 01       		.byte	0x1
 1373 0184 03       		.uleb128 0x3
 1374 0185 0E       		.uleb128 0xe
 1375 0186 3A       		.uleb128 0x3a
 1376 0187 0B       		.uleb128 0xb
 1377 0188 3B       		.uleb128 0x3b
 1378 0189 0B       		.uleb128 0xb
 1379 018a 39       		.uleb128 0x39
 1380 018b 0B       		.uleb128 0xb
 1381 018c 27       		.uleb128 0x27
 1382 018d 19       		.uleb128 0x19
 1383 018e 49       		.uleb128 0x49
 1384 018f 13       		.uleb128 0x13
 1385 0190 20       		.uleb128 0x20
 1386 0191 0B       		.uleb128 0xb
 1387 0192 01       		.uleb128 0x1
 1388 0193 13       		.uleb128 0x13
 1389 0194 00       		.byte	0
 1390 0195 00       		.byte	0
 1391 0196 1C       		.uleb128 0x1c
 1392 0197 05       		.uleb128 0x5
 1393 0198 00       		.byte	0
 1394 0199 03       		.uleb128 0x3
 1395 019a 08       		.uleb128 0x8
 1396 019b 3A       		.uleb128 0x3a
 1397 019c 0B       		.uleb128 0xb
 1398 019d 3B       		.uleb128 0x3b
 1399 019e 0B       		.uleb128 0xb
 1400 019f 39       		.uleb128 0x39
 1401 01a0 0B       		.uleb128 0xb
 1402 01a1 49       		.uleb128 0x49
 1403 01a2 13       		.uleb128 0x13
 1404 01a3 00       		.byte	0
 1405 01a4 00       		.byte	0
 1406 01a5 1D       		.uleb128 0x1d
 1407 01a6 34       		.uleb128 0x34
 1408 01a7 00       		.byte	0
 1409 01a8 03       		.uleb128 0x3
 1410 01a9 0E       		.uleb128 0xe
 1411 01aa 3A       		.uleb128 0x3a
 1412 01ab 0B       		.uleb128 0xb
 1413 01ac 3B       		.uleb128 0x3b
 1414 01ad 0B       		.uleb128 0xb
 1415 01ae 39       		.uleb128 0x39
 1416 01af 0B       		.uleb128 0xb
 1417 01b0 49       		.uleb128 0x49
 1418 01b1 13       		.uleb128 0x13
 1419 01b2 00       		.byte	0
 1420 01b3 00       		.byte	0
 1421 01b4 1E       		.uleb128 0x1e
 1422 01b5 2E       		.uleb128 0x2e
 1423 01b6 01       		.byte	0x1
 1424 01b7 03       		.uleb128 0x3
 1425 01b8 0E       		.uleb128 0xe
ARM GAS  C:\Users\DEVELO~1\AppData\Local\Temp\ccPNADy7.s 			page 26


 1426 01b9 3A       		.uleb128 0x3a
 1427 01ba 0B       		.uleb128 0xb
 1428 01bb 3B       		.uleb128 0x3b
 1429 01bc 0B       		.uleb128 0xb
 1430 01bd 39       		.uleb128 0x39
 1431 01be 0B       		.uleb128 0xb
 1432 01bf 27       		.uleb128 0x27
 1433 01c0 19       		.uleb128 0x19
 1434 01c1 49       		.uleb128 0x49
 1435 01c2 13       		.uleb128 0x13
 1436 01c3 11       		.uleb128 0x11
 1437 01c4 01       		.uleb128 0x1
 1438 01c5 12       		.uleb128 0x12
 1439 01c6 06       		.uleb128 0x6
 1440 01c7 40       		.uleb128 0x40
 1441 01c8 18       		.uleb128 0x18
 1442 01c9 01       		.uleb128 0x1
 1443 01ca 13       		.uleb128 0x13
 1444 01cb 00       		.byte	0
 1445 01cc 00       		.byte	0
 1446 01cd 1F       		.uleb128 0x1f
 1447 01ce 48       		.uleb128 0x48
 1448 01cf 01       		.byte	0x1
 1449 01d0 7D       		.uleb128 0x7d
 1450 01d1 01       		.uleb128 0x1
 1451 01d2 7F       		.uleb128 0x7f
 1452 01d3 13       		.uleb128 0x13
 1453 01d4 01       		.uleb128 0x1
 1454 01d5 13       		.uleb128 0x13
 1455 01d6 00       		.byte	0
 1456 01d7 00       		.byte	0
 1457 01d8 20       		.uleb128 0x20
 1458 01d9 48       		.uleb128 0x48
 1459 01da 01       		.byte	0x1
 1460 01db 7D       		.uleb128 0x7d
 1461 01dc 01       		.uleb128 0x1
 1462 01dd 00       		.byte	0
 1463 01de 00       		.byte	0
 1464 01df 21       		.uleb128 0x21
 1465 01e0 48       		.uleb128 0x48
 1466 01e1 01       		.byte	0x1
 1467 01e2 7D       		.uleb128 0x7d
 1468 01e3 01       		.uleb128 0x1
 1469 01e4 8201     		.uleb128 0x82
 1470 01e6 19       		.uleb128 0x19
 1471 01e7 00       		.byte	0
 1472 01e8 00       		.byte	0
 1473 01e9 22       		.uleb128 0x22
 1474 01ea 2E       		.uleb128 0x2e
 1475 01eb 01       		.byte	0x1
 1476 01ec 31       		.uleb128 0x31
 1477 01ed 13       		.uleb128 0x13
 1478 01ee 11       		.uleb128 0x11
 1479 01ef 01       		.uleb128 0x1
 1480 01f0 12       		.uleb128 0x12
 1481 01f1 06       		.uleb128 0x6
 1482 01f2 40       		.uleb128 0x40
ARM GAS  C:\Users\DEVELO~1\AppData\Local\Temp\ccPNADy7.s 			page 27


 1483 01f3 18       		.uleb128 0x18
 1484 01f4 01       		.uleb128 0x1
 1485 01f5 13       		.uleb128 0x13
 1486 01f6 00       		.byte	0
 1487 01f7 00       		.byte	0
 1488 01f8 23       		.uleb128 0x23
 1489 01f9 34       		.uleb128 0x34
 1490 01fa 00       		.byte	0
 1491 01fb 31       		.uleb128 0x31
 1492 01fc 13       		.uleb128 0x13
 1493 01fd 02       		.uleb128 0x2
 1494 01fe 17       		.uleb128 0x17
 1495 01ff B742     		.uleb128 0x2137
 1496 0201 17       		.uleb128 0x17
 1497 0202 00       		.byte	0
 1498 0203 00       		.byte	0
 1499 0204 24       		.uleb128 0x24
 1500 0205 1D       		.uleb128 0x1d
 1501 0206 01       		.byte	0x1
 1502 0207 31       		.uleb128 0x31
 1503 0208 13       		.uleb128 0x13
 1504 0209 52       		.uleb128 0x52
 1505 020a 01       		.uleb128 0x1
 1506 020b B842     		.uleb128 0x2138
 1507 020d 0B       		.uleb128 0xb
 1508 020e 11       		.uleb128 0x11
 1509 020f 01       		.uleb128 0x1
 1510 0210 12       		.uleb128 0x12
 1511 0211 06       		.uleb128 0x6
 1512 0212 58       		.uleb128 0x58
 1513 0213 0B       		.uleb128 0xb
 1514 0214 59       		.uleb128 0x59
 1515 0215 0B       		.uleb128 0xb
 1516 0216 57       		.uleb128 0x57
 1517 0217 0B       		.uleb128 0xb
 1518 0218 00       		.byte	0
 1519 0219 00       		.byte	0
 1520 021a 25       		.uleb128 0x25
 1521 021b 34       		.uleb128 0x34
 1522 021c 00       		.byte	0
 1523 021d 31       		.uleb128 0x31
 1524 021e 13       		.uleb128 0x13
 1525 021f 00       		.byte	0
 1526 0220 00       		.byte	0
 1527 0221 26       		.uleb128 0x26
 1528 0222 2E       		.uleb128 0x2e
 1529 0223 00       		.byte	0
 1530 0224 3F       		.uleb128 0x3f
 1531 0225 19       		.uleb128 0x19
 1532 0226 3C       		.uleb128 0x3c
 1533 0227 19       		.uleb128 0x19
 1534 0228 6E       		.uleb128 0x6e
 1535 0229 0E       		.uleb128 0xe
 1536 022a 03       		.uleb128 0x3
 1537 022b 0E       		.uleb128 0xe
 1538 022c 3A       		.uleb128 0x3a
 1539 022d 0B       		.uleb128 0xb
ARM GAS  C:\Users\DEVELO~1\AppData\Local\Temp\ccPNADy7.s 			page 28


 1540 022e 3B       		.uleb128 0x3b
 1541 022f 0B       		.uleb128 0xb
 1542 0230 00       		.byte	0
 1543 0231 00       		.byte	0
 1544 0232 00       		.byte	0
 1545              		.section	.debug_loclists,"",%progbits
 1546 0000 B9010000 		.4byte	.Ldebug_loc3-.Ldebug_loc2
 1547              	.Ldebug_loc2:
 1548 0004 0500     		.2byte	0x5
 1549 0006 04       		.byte	0x4
 1550 0007 00       		.byte	0
 1551 0008 00000000 		.4byte	0
 1552              	.Ldebug_loc0:
 1553              	.LVUS7:
 1554 000c 00       		.uleb128 0
 1555 000d 00       		.uleb128 .LVU25
 1556 000e 00       		.uleb128 .LVU25
 1557 000f 00       		.uleb128 .LVU28
 1558 0010 00       		.uleb128 .LVU28
 1559 0011 00       		.uleb128 .LVU29
 1560 0012 00       		.uleb128 .LVU29
 1561 0013 00       		.uleb128 0
 1562              	.LLST7:
 1563 0014 06       		.byte	0x6
 1564 0015 00000000 		.4byte	.LVL6
 1565 0019 04       		.byte	0x4
 1566 001a 00       		.uleb128 .LVL6-.LVL6
 1567 001b 0E       		.uleb128 .LVL8-.LVL6
 1568 001c 01       		.uleb128 0x1
 1569 001d 50       		.byte	0x50
 1570 001e 04       		.byte	0x4
 1571 001f 0E       		.uleb128 .LVL8-.LVL6
 1572 0020 1A       		.uleb128 .LVL9-.LVL6
 1573 0021 01       		.uleb128 0x1
 1574 0022 53       		.byte	0x53
 1575 0023 04       		.byte	0x4
 1576 0024 1A       		.uleb128 .LVL9-.LVL6
 1577 0025 1E       		.uleb128 .LVL10-.LVL6
 1578 0026 01       		.uleb128 0x1
 1579 0027 50       		.byte	0x50
 1580 0028 04       		.byte	0x4
 1581 0029 1E       		.uleb128 .LVL10-.LVL6
 1582 002a 20       		.uleb128 .LFE436-.LVL6
 1583 002b 01       		.uleb128 0x1
 1584 002c 53       		.byte	0x53
 1585 002d 00       		.byte	0
 1586              	.LVUS8:
 1587 002e 00       		.uleb128 .LVU18
 1588 002f 00       		.uleb128 .LVU25
 1589 0030 00       		.uleb128 .LVU25
 1590 0031 00       		.uleb128 .LVU28
 1591 0032 00       		.uleb128 .LVU28
 1592 0033 00       		.uleb128 .LVU29
 1593 0034 00       		.uleb128 .LVU29
 1594 0035 00       		.uleb128 0
 1595              	.LLST8:
 1596 0036 06       		.byte	0x6
ARM GAS  C:\Users\DEVELO~1\AppData\Local\Temp\ccPNADy7.s 			page 29


 1597 0037 04000000 		.4byte	.LVL7
 1598 003b 04       		.byte	0x4
 1599 003c 00       		.uleb128 .LVL7-.LVL7
 1600 003d 0A       		.uleb128 .LVL8-.LVL7
 1601 003e 01       		.uleb128 0x1
 1602 003f 50       		.byte	0x50
 1603 0040 04       		.byte	0x4
 1604 0041 0A       		.uleb128 .LVL8-.LVL7
 1605 0042 16       		.uleb128 .LVL9-.LVL7
 1606 0043 01       		.uleb128 0x1
 1607 0044 53       		.byte	0x53
 1608 0045 04       		.byte	0x4
 1609 0046 16       		.uleb128 .LVL9-.LVL7
 1610 0047 1A       		.uleb128 .LVL10-.LVL7
 1611 0048 01       		.uleb128 0x1
 1612 0049 50       		.byte	0x50
 1613 004a 04       		.byte	0x4
 1614 004b 1A       		.uleb128 .LVL10-.LVL7
 1615 004c 1C       		.uleb128 .LFE436-.LVL7
 1616 004d 01       		.uleb128 0x1
 1617 004e 53       		.byte	0x53
 1618 004f 00       		.byte	0
 1619              	.LVUS4:
 1620 0050 00       		.uleb128 0
 1621 0051 00       		.uleb128 .LVU11
 1622 0052 00       		.uleb128 .LVU11
 1623 0053 00       		.uleb128 0
 1624              	.LLST4:
 1625 0054 06       		.byte	0x6
 1626 0055 00000000 		.4byte	.LVL3
 1627 0059 04       		.byte	0x4
 1628 005a 00       		.uleb128 .LVL3-.LVL3
 1629 005b 02       		.uleb128 .LVL4-.LVL3
 1630 005c 01       		.uleb128 0x1
 1631 005d 50       		.byte	0x50
 1632 005e 04       		.byte	0x4
 1633 005f 02       		.uleb128 .LVL4-.LVL3
 1634 0060 08       		.uleb128 .LFE434-.LVL3
 1635 0061 04       		.uleb128 0x4
 1636 0062 A3       		.byte	0xa3
 1637 0063 01       		.uleb128 0x1
 1638 0064 50       		.byte	0x50
 1639 0065 9F       		.byte	0x9f
 1640 0066 00       		.byte	0
 1641              	.LVUS5:
 1642 0067 00       		.uleb128 0
 1643 0068 00       		.uleb128 .LVU13
 1644 0069 00       		.uleb128 .LVU13
 1645 006a 00       		.uleb128 0
 1646              	.LLST5:
 1647 006b 06       		.byte	0x6
 1648 006c 00000000 		.4byte	.LVL3
 1649 0070 04       		.byte	0x4
 1650 0071 00       		.uleb128 .LVL3-.LVL3
 1651 0072 07       		.uleb128 .LVL5-1-.LVL3
 1652 0073 01       		.uleb128 0x1
 1653 0074 51       		.byte	0x51
ARM GAS  C:\Users\DEVELO~1\AppData\Local\Temp\ccPNADy7.s 			page 30


 1654 0075 04       		.byte	0x4
 1655 0076 07       		.uleb128 .LVL5-1-.LVL3
 1656 0077 08       		.uleb128 .LFE434-.LVL3
 1657 0078 04       		.uleb128 0x4
 1658 0079 A3       		.byte	0xa3
 1659 007a 01       		.uleb128 0x1
 1660 007b 51       		.byte	0x51
 1661 007c 9F       		.byte	0x9f
 1662 007d 00       		.byte	0
 1663              	.LVUS6:
 1664 007e 02       		.uleb128 .LVU9
 1665 007f 00       		.uleb128 .LVU11
 1666 0080 00       		.uleb128 .LVU11
 1667 0081 00       		.uleb128 0
 1668              	.LLST6:
 1669 0082 06       		.byte	0x6
 1670 0083 00000000 		.4byte	.LVL3
 1671 0087 04       		.byte	0x4
 1672 0088 00       		.uleb128 .LVL3-.LVL3
 1673 0089 02       		.uleb128 .LVL4-.LVL3
 1674 008a 01       		.uleb128 0x1
 1675 008b 50       		.byte	0x50
 1676 008c 04       		.byte	0x4
 1677 008d 02       		.uleb128 .LVL4-.LVL3
 1678 008e 08       		.uleb128 .LFE434-.LVL3
 1679 008f 04       		.uleb128 0x4
 1680 0090 A3       		.byte	0xa3
 1681 0091 01       		.uleb128 0x1
 1682 0092 50       		.byte	0x50
 1683 0093 9F       		.byte	0x9f
 1684 0094 00       		.byte	0
 1685              	.LVUS9:
 1686 0095 00       		.uleb128 0
 1687 0096 00       		.uleb128 .LVU43
 1688 0097 00       		.uleb128 .LVU43
 1689 0098 00       		.uleb128 0
 1690              	.LLST9:
 1691 0099 06       		.byte	0x6
 1692 009a 00000000 		.4byte	.LVL11
 1693 009e 04       		.byte	0x4
 1694 009f 00       		.uleb128 .LVL11-.LVL11
 1695 00a0 1A       		.uleb128 .LVL16-.LVL11
 1696 00a1 01       		.uleb128 0x1
 1697 00a2 50       		.byte	0x50
 1698 00a3 04       		.byte	0x4
 1699 00a4 1A       		.uleb128 .LVL16-.LVL11
 1700 00a5 36       		.uleb128 .LFE433-.LVL11
 1701 00a6 01       		.uleb128 0x1
 1702 00a7 56       		.byte	0x56
 1703 00a8 00       		.byte	0
 1704              	.LVUS10:
 1705 00a9 00       		.uleb128 0
 1706 00aa 00       		.uleb128 .LVU41
 1707 00ab 00       		.uleb128 .LVU41
 1708 00ac 00       		.uleb128 .LVU44
 1709 00ad 00       		.uleb128 .LVU44
 1710 00ae 00       		.uleb128 0
ARM GAS  C:\Users\DEVELO~1\AppData\Local\Temp\ccPNADy7.s 			page 31


 1711              	.LLST10:
 1712 00af 06       		.byte	0x6
 1713 00b0 00000000 		.4byte	.LVL11
 1714 00b4 04       		.byte	0x4
 1715 00b5 00       		.uleb128 .LVL11-.LVL11
 1716 00b6 16       		.uleb128 .LVL14-.LVL11
 1717 00b7 01       		.uleb128 0x1
 1718 00b8 51       		.byte	0x51
 1719 00b9 04       		.byte	0x4
 1720 00ba 16       		.uleb128 .LVL14-.LVL11
 1721 00bb 1F       		.uleb128 .LVL17-1-.LVL11
 1722 00bc 01       		.uleb128 0x1
 1723 00bd 53       		.byte	0x53
 1724 00be 04       		.byte	0x4
 1725 00bf 1F       		.uleb128 .LVL17-1-.LVL11
 1726 00c0 36       		.uleb128 .LFE433-.LVL11
 1727 00c1 04       		.uleb128 0x4
 1728 00c2 A3       		.byte	0xa3
 1729 00c3 01       		.uleb128 0x1
 1730 00c4 51       		.byte	0x51
 1731 00c5 9F       		.byte	0x9f
 1732 00c6 00       		.byte	0
 1733              	.LVUS11:
 1734 00c7 00       		.uleb128 0
 1735 00c8 00       		.uleb128 .LVU42
 1736 00c9 00       		.uleb128 .LVU42
 1737 00ca 00       		.uleb128 0
 1738              	.LLST11:
 1739 00cb 06       		.byte	0x6
 1740 00cc 00000000 		.4byte	.LVL11
 1741 00d0 04       		.byte	0x4
 1742 00d1 00       		.uleb128 .LVL11-.LVL11
 1743 00d2 18       		.uleb128 .LVL15-.LVL11
 1744 00d3 01       		.uleb128 0x1
 1745 00d4 52       		.byte	0x52
 1746 00d5 04       		.byte	0x4
 1747 00d6 18       		.uleb128 .LVL15-.LVL11
 1748 00d7 36       		.uleb128 .LFE433-.LVL11
 1749 00d8 01       		.uleb128 0x1
 1750 00d9 55       		.byte	0x55
 1751 00da 00       		.byte	0
 1752              	.LVUS12:
 1753 00db 00       		.uleb128 .LVU35
 1754 00dc 00       		.uleb128 .LVU43
 1755 00dd 00       		.uleb128 .LVU43
 1756 00de 00       		.uleb128 0
 1757              	.LLST12:
 1758 00df 06       		.byte	0x6
 1759 00e0 08000000 		.4byte	.LVL12
 1760 00e4 04       		.byte	0x4
 1761 00e5 00       		.uleb128 .LVL12-.LVL12
 1762 00e6 12       		.uleb128 .LVL16-.LVL12
 1763 00e7 01       		.uleb128 0x1
 1764 00e8 50       		.byte	0x50
 1765 00e9 04       		.byte	0x4
 1766 00ea 12       		.uleb128 .LVL16-.LVL12
 1767 00eb 2E       		.uleb128 .LFE433-.LVL12
ARM GAS  C:\Users\DEVELO~1\AppData\Local\Temp\ccPNADy7.s 			page 32


 1768 00ec 01       		.uleb128 0x1
 1769 00ed 56       		.byte	0x56
 1770 00ee 00       		.byte	0
 1771              	.LVUS13:
 1772 00ef 00       		.uleb128 .LVU39
 1773 00f0 00       		.uleb128 0
 1774              	.LLST13:
 1775 00f1 08       		.byte	0x8
 1776 00f2 14000000 		.4byte	.LVL13
 1777 00f6 22       		.uleb128 .LFE433-.LVL13
 1778 00f7 01       		.uleb128 0x1
 1779 00f8 54       		.byte	0x54
 1780 00f9 00       		.byte	0
 1781              	.LVUS0:
 1782 00fa 00       		.uleb128 0
 1783 00fb 00       		.uleb128 .LVU4
 1784 00fc 00       		.uleb128 .LVU4
 1785 00fd 00       		.uleb128 0
 1786              	.LLST0:
 1787 00fe 06       		.byte	0x6
 1788 00ff 00000000 		.4byte	.LVL0
 1789 0103 04       		.byte	0x4
 1790 0104 00       		.uleb128 .LVL0-.LVL0
 1791 0105 02       		.uleb128 .LVL1-.LVL0
 1792 0106 01       		.uleb128 0x1
 1793 0107 50       		.byte	0x50
 1794 0108 04       		.byte	0x4
 1795 0109 02       		.uleb128 .LVL1-.LVL0
 1796 010a 08       		.uleb128 .LFE432-.LVL0
 1797 010b 04       		.uleb128 0x4
 1798 010c A3       		.byte	0xa3
 1799 010d 01       		.uleb128 0x1
 1800 010e 50       		.byte	0x50
 1801 010f 9F       		.byte	0x9f
 1802 0110 00       		.byte	0
 1803              	.LVUS1:
 1804 0111 00       		.uleb128 0
 1805 0112 00       		.uleb128 .LVU6
 1806 0113 00       		.uleb128 .LVU6
 1807 0114 00       		.uleb128 0
 1808              	.LLST1:
 1809 0115 06       		.byte	0x6
 1810 0116 00000000 		.4byte	.LVL0
 1811 011a 04       		.byte	0x4
 1812 011b 00       		.uleb128 .LVL0-.LVL0
 1813 011c 07       		.uleb128 .LVL2-1-.LVL0
 1814 011d 01       		.uleb128 0x1
 1815 011e 51       		.byte	0x51
 1816 011f 04       		.byte	0x4
 1817 0120 07       		.uleb128 .LVL2-1-.LVL0
 1818 0121 08       		.uleb128 .LFE432-.LVL0
 1819 0122 04       		.uleb128 0x4
 1820 0123 A3       		.byte	0xa3
 1821 0124 01       		.uleb128 0x1
 1822 0125 51       		.byte	0x51
 1823 0126 9F       		.byte	0x9f
 1824 0127 00       		.byte	0
ARM GAS  C:\Users\DEVELO~1\AppData\Local\Temp\ccPNADy7.s 			page 33


 1825              	.LVUS2:
 1826 0128 00       		.uleb128 0
 1827 0129 00       		.uleb128 .LVU6
 1828 012a 00       		.uleb128 .LVU6
 1829 012b 00       		.uleb128 0
 1830              	.LLST2:
 1831 012c 06       		.byte	0x6
 1832 012d 00000000 		.4byte	.LVL0
 1833 0131 04       		.byte	0x4
 1834 0132 00       		.uleb128 .LVL0-.LVL0
 1835 0133 07       		.uleb128 .LVL2-1-.LVL0
 1836 0134 01       		.uleb128 0x1
 1837 0135 52       		.byte	0x52
 1838 0136 04       		.byte	0x4
 1839 0137 07       		.uleb128 .LVL2-1-.LVL0
 1840 0138 08       		.uleb128 .LFE432-.LVL0
 1841 0139 04       		.uleb128 0x4
 1842 013a A3       		.byte	0xa3
 1843 013b 01       		.uleb128 0x1
 1844 013c 52       		.byte	0x52
 1845 013d 9F       		.byte	0x9f
 1846 013e 00       		.byte	0
 1847              	.LVUS3:
 1848 013f 02       		.uleb128 .LVU2
 1849 0140 00       		.uleb128 .LVU4
 1850 0141 00       		.uleb128 .LVU4
 1851 0142 00       		.uleb128 0
 1852              	.LLST3:
 1853 0143 06       		.byte	0x6
 1854 0144 00000000 		.4byte	.LVL0
 1855 0148 04       		.byte	0x4
 1856 0149 00       		.uleb128 .LVL0-.LVL0
 1857 014a 02       		.uleb128 .LVL1-.LVL0
 1858 014b 01       		.uleb128 0x1
 1859 014c 50       		.byte	0x50
 1860 014d 04       		.byte	0x4
 1861 014e 02       		.uleb128 .LVL1-.LVL0
 1862 014f 08       		.uleb128 .LFE432-.LVL0
 1863 0150 04       		.uleb128 0x4
 1864 0151 A3       		.byte	0xa3
 1865 0152 01       		.uleb128 0x1
 1866 0153 50       		.byte	0x50
 1867 0154 9F       		.byte	0x9f
 1868 0155 00       		.byte	0
 1869              	.LVUS14:
 1870 0156 00       		.uleb128 0
 1871 0157 00       		.uleb128 .LVU66
 1872 0158 00       		.uleb128 .LVU66
 1873 0159 00       		.uleb128 .LVU67
 1874 015a 00       		.uleb128 .LVU67
 1875 015b 00       		.uleb128 .LVU70
 1876 015c 00       		.uleb128 .LVU70
 1877 015d 00       		.uleb128 0
 1878              	.LLST14:
 1879 015e 06       		.byte	0x6
 1880 015f 00000000 		.4byte	.LVL19
 1881 0163 04       		.byte	0x4
ARM GAS  C:\Users\DEVELO~1\AppData\Local\Temp\ccPNADy7.s 			page 34


 1882 0164 00       		.uleb128 .LVL19-.LVL19
 1883 0165 0E       		.uleb128 .LVL20-.LVL19
 1884 0166 01       		.uleb128 0x1
 1885 0167 50       		.byte	0x50
 1886 0168 04       		.byte	0x4
 1887 0169 0E       		.uleb128 .LVL20-.LVL19
 1888 016a 10       		.uleb128 .LVL21-.LVL19
 1889 016b 04       		.uleb128 0x4
 1890 016c A3       		.byte	0xa3
 1891 016d 01       		.uleb128 0x1
 1892 016e 50       		.byte	0x50
 1893 016f 9F       		.byte	0x9f
 1894 0170 04       		.byte	0x4
 1895 0171 10       		.uleb128 .LVL21-.LVL19
 1896 0172 12       		.uleb128 .LVL22-.LVL19
 1897 0173 01       		.uleb128 0x1
 1898 0174 50       		.byte	0x50
 1899 0175 04       		.byte	0x4
 1900 0176 12       		.uleb128 .LVL22-.LVL19
 1901 0177 18       		.uleb128 .LFE435-.LVL19
 1902 0178 04       		.uleb128 0x4
 1903 0179 A3       		.byte	0xa3
 1904 017a 01       		.uleb128 0x1
 1905 017b 50       		.byte	0x50
 1906 017c 9F       		.byte	0x9f
 1907 017d 00       		.byte	0
 1908              	.LVUS15:
 1909 017e 02       		.uleb128 .LVU58
 1910 017f 00       		.uleb128 .LVU66
 1911 0180 00       		.uleb128 .LVU66
 1912 0181 00       		.uleb128 .LVU67
 1913 0182 00       		.uleb128 .LVU67
 1914 0183 00       		.uleb128 .LVU70
 1915 0184 00       		.uleb128 .LVU70
 1916 0185 00       		.uleb128 0
 1917              	.LLST15:
 1918 0186 06       		.byte	0x6
 1919 0187 00000000 		.4byte	.LVL19
 1920 018b 04       		.byte	0x4
 1921 018c 00       		.uleb128 .LVL19-.LVL19
 1922 018d 0E       		.uleb128 .LVL20-.LVL19
 1923 018e 01       		.uleb128 0x1
 1924 018f 50       		.byte	0x50
 1925 0190 04       		.byte	0x4
 1926 0191 0E       		.uleb128 .LVL20-.LVL19
 1927 0192 10       		.uleb128 .LVL21-.LVL19
 1928 0193 04       		.uleb128 0x4
 1929 0194 A3       		.byte	0xa3
 1930 0195 01       		.uleb128 0x1
 1931 0196 50       		.byte	0x50
 1932 0197 9F       		.byte	0x9f
 1933 0198 04       		.byte	0x4
 1934 0199 10       		.uleb128 .LVL21-.LVL19
 1935 019a 12       		.uleb128 .LVL22-.LVL19
 1936 019b 01       		.uleb128 0x1
 1937 019c 50       		.byte	0x50
 1938 019d 04       		.byte	0x4
ARM GAS  C:\Users\DEVELO~1\AppData\Local\Temp\ccPNADy7.s 			page 35


 1939 019e 12       		.uleb128 .LVL22-.LVL19
 1940 019f 18       		.uleb128 .LFE435-.LVL19
 1941 01a0 04       		.uleb128 0x4
 1942 01a1 A3       		.byte	0xa3
 1943 01a2 01       		.uleb128 0x1
 1944 01a3 50       		.byte	0x50
 1945 01a4 9F       		.byte	0x9f
 1946 01a5 00       		.byte	0
 1947              	.LVUS16:
 1948 01a6 00       		.uleb128 .LVU67
 1949 01a7 00       		.uleb128 .LVU70
 1950 01a8 00       		.uleb128 .LVU70
 1951 01a9 00       		.uleb128 0
 1952              	.LLST16:
 1953 01aa 06       		.byte	0x6
 1954 01ab 10000000 		.4byte	.LVL21
 1955 01af 04       		.byte	0x4
 1956 01b0 00       		.uleb128 .LVL21-.LVL21
 1957 01b1 02       		.uleb128 .LVL22-.LVL21
 1958 01b2 01       		.uleb128 0x1
 1959 01b3 50       		.byte	0x50
 1960 01b4 04       		.byte	0x4
 1961 01b5 02       		.uleb128 .LVL22-.LVL21
 1962 01b6 08       		.uleb128 .LFE435-.LVL21
 1963 01b7 04       		.uleb128 0x4
 1964 01b8 A3       		.byte	0xa3
 1965 01b9 01       		.uleb128 0x1
 1966 01ba 50       		.byte	0x50
 1967 01bb 9F       		.byte	0x9f
 1968 01bc 00       		.byte	0
 1969              	.Ldebug_loc3:
 1970              		.section	.debug_aranges,"",%progbits
 1971 0000 44000000 		.4byte	0x44
 1972 0004 0200     		.2byte	0x2
 1973 0006 00000000 		.4byte	.Ldebug_info0
 1974 000a 04       		.byte	0x4
 1975 000b 00       		.byte	0
 1976 000c 0000     		.2byte	0
 1977 000e 0000     		.2byte	0
 1978 0010 00000000 		.4byte	.LFB432
 1979 0014 08000000 		.4byte	.LFE432-.LFB432
 1980 0018 00000000 		.4byte	.LFB434
 1981 001c 08000000 		.4byte	.LFE434-.LFB434
 1982 0020 00000000 		.4byte	.LFB436
 1983 0024 20000000 		.4byte	.LFE436-.LFB436
 1984 0028 00000000 		.4byte	.LFB433
 1985 002c 36000000 		.4byte	.LFE433-.LFB433
 1986 0030 00000000 		.4byte	.LFB435
 1987 0034 18000000 		.4byte	.LFE435-.LFB435
 1988 0038 00000000 		.4byte	.LFB437
 1989 003c 18000000 		.4byte	.LFE437-.LFB437
 1990 0040 00000000 		.4byte	0
 1991 0044 00000000 		.4byte	0
 1992              		.section	.debug_rnglists,"",%progbits
 1993              	.Ldebug_ranges0:
 1994 0000 2D000000 		.4byte	.Ldebug_ranges3-.Ldebug_ranges2
 1995              	.Ldebug_ranges2:
ARM GAS  C:\Users\DEVELO~1\AppData\Local\Temp\ccPNADy7.s 			page 36


 1996 0004 0500     		.2byte	0x5
 1997 0006 04       		.byte	0x4
 1998 0007 00       		.byte	0
 1999 0008 00000000 		.4byte	0
 2000              	.LLRL17:
 2001 000c 07       		.byte	0x7
 2002 000d 00000000 		.4byte	.LFB432
 2003 0011 08       		.uleb128 .LFE432-.LFB432
 2004 0012 07       		.byte	0x7
 2005 0013 00000000 		.4byte	.LFB434
 2006 0017 08       		.uleb128 .LFE434-.LFB434
 2007 0018 07       		.byte	0x7
 2008 0019 00000000 		.4byte	.LFB436
 2009 001d 20       		.uleb128 .LFE436-.LFB436
 2010 001e 07       		.byte	0x7
 2011 001f 00000000 		.4byte	.LFB433
 2012 0023 36       		.uleb128 .LFE433-.LFB433
 2013 0024 07       		.byte	0x7
 2014 0025 00000000 		.4byte	.LFB435
 2015 0029 18       		.uleb128 .LFE435-.LFB435
 2016 002a 07       		.byte	0x7
 2017 002b 00000000 		.4byte	.LFB437
 2018 002f 18       		.uleb128 .LFE437-.LFB437
 2019 0030 00       		.byte	0
 2020              	.Ldebug_ranges3:
 2021              		.section	.debug_line,"",%progbits
 2022              	.Ldebug_line0:
 2023 0000 96030000 		.section	.debug_str,"MS",%progbits,1
 2023      03003A02 
 2023      00000201 
 2023      FB0E0D00 
 2023      01010101 
 2024              	.LASF5:
 2025 0000 7369676E 		.ascii	"signed char\000"
 2025      65642063 
 2025      68617200 
 2026              	.LASF6:
 2027 000c 5F5F7569 		.ascii	"__uint8_t\000"
 2027      6E74385F 
 2027      7400
 2028              	.LASF3:
 2029 0016 73697A65 		.ascii	"size_t\000"
 2029      5F7400
 2030              	.LASF43:
 2031 001d 5F5F6275 		.ascii	"__builtin_memcpy\000"
 2031      696C7469 
 2031      6E5F6D65 
 2031      6D637079 
 2031      00
 2032              	.LASF42:
 2033 002e 5F707574 		.ascii	"_put\000"
 2033      00
 2034              	.LASF10:
 2035 0033 5F5F696E 		.ascii	"__int32_t\000"
 2035      7433325F 
 2035      7400
 2036              	.LASF0:
ARM GAS  C:\Users\DEVELO~1\AppData\Local\Temp\ccPNADy7.s 			page 37


 2037 003d 756E7369 		.ascii	"unsigned int\000"
 2037      676E6564 
 2037      20696E74 
 2037      00
 2038              	.LASF32:
 2039 004a 62736170 		.ascii	"bsap\000"
 2039      00
 2040              	.LASF15:
 2041 004f 696E7438 		.ascii	"int8_t\000"
 2041      5F7400
 2042              	.LASF35:
 2043 0056 62756666 		.ascii	"buffered\000"
 2043      65726564 
 2043      00
 2044              	.LASF2:
 2045 005f 6C6F6E67 		.ascii	"long double\000"
 2045      20646F75 
 2045      626C6500 
 2046              	.LASF23:
 2047 006b 42617365 		.ascii	"BaseSequentialStream\000"
 2047      53657175 
 2047      656E7469 
 2047      616C5374 
 2047      7265616D 
 2048              	.LASF7:
 2049 0080 756E7369 		.ascii	"unsigned char\000"
 2049      676E6564 
 2049      20636861 
 2049      7200
 2050              	.LASF9:
 2051 008e 73686F72 		.ascii	"short unsigned int\000"
 2051      7420756E 
 2051      7369676E 
 2051      65642069 
 2051      6E7400
 2052              	.LASF21:
 2053 00a1 77726974 		.ascii	"write\000"
 2053      6500
 2054              	.LASF39:
 2055 00a7 433A5C50 		.ascii	"C:\\PROJET\\ChibiOS project\\ChibiOS_21.11.4\\demos"
 2055      524F4A45 
 2055      545C4368 
 2055      6962694F 
 2055      53207072 
 2056 00d6 5C53544D 		.ascii	"\\STM32\\RT-STM32H743ZI_REV_XY-NUCLEO144\000"
 2056      33325C52 
 2056      542D5354 
 2056      4D333248 
 2056      3734335A 
 2057              	.LASF40:
 2058 00fd 6273614F 		.ascii	"bsaObjectInit\000"
 2058      626A6563 
 2058      74496E69 
 2058      7400
 2059              	.LASF31:
 2060 010b 6D656D73 		.ascii	"memset\000"
 2060      657400
ARM GAS  C:\Users\DEVELO~1\AppData\Local\Temp\ccPNADy7.s 			page 38


 2061              	.LASF12:
 2062 0112 6C6F6E67 		.ascii	"long unsigned int\000"
 2062      20756E73 
 2062      69676E65 
 2062      6420696E 
 2062      7400
 2063              	.LASF20:
 2064 0124 696E7374 		.ascii	"instance_offset\000"
 2064      616E6365 
 2064      5F6F6666 
 2064      73657400 
 2065              	.LASF22:
 2066 0134 72656164 		.ascii	"read\000"
 2066      00
 2067              	.LASF41:
 2068 0139 5F676574 		.ascii	"_get\000"
 2068      00
 2069              	.LASF26:
 2070 013e 756E6765 		.ascii	"unget\000"
 2070      7400
 2071              	.LASF14:
 2072 0144 63686172 		.ascii	"char\000"
 2072      00
 2073              	.LASF16:
 2074 0149 75696E74 		.ascii	"uint8_t\000"
 2074      385F7400 
 2075              	.LASF18:
 2076 0151 6D73675F 		.ascii	"msg_t\000"
 2076      7400
 2077              	.LASF34:
 2078 0157 5F726561 		.ascii	"_reads\000"
 2078      647300
 2079              	.LASF27:
 2080 015e 62737370 		.ascii	"bssp\000"
 2080      00
 2081              	.LASF17:
 2082 0163 696E7433 		.ascii	"int32_t\000"
 2082      325F7400 
 2083              	.LASF36:
 2084 016b 5F777269 		.ascii	"_writes\000"
 2084      74657300 
 2085              	.LASF1:
 2086 0173 6C6F6E67 		.ascii	"long long int\000"
 2086      206C6F6E 
 2086      6720696E 
 2086      7400
 2087              	.LASF30:
 2088 0181 6D656D63 		.ascii	"memcpy\000"
 2088      707900
 2089              	.LASF4:
 2090 0188 5F5F696E 		.ascii	"__int8_t\000"
 2090      74385F74 
 2090      00
 2091              	.LASF29:
 2092 0191 42756666 		.ascii	"BufferedStreamAdapter\000"
 2092      65726564 
 2092      53747265 
ARM GAS  C:\Users\DEVELO~1\AppData\Local\Temp\ccPNADy7.s 			page 39


 2092      616D4164 
 2092      61707465 
 2093              	.LASF8:
 2094 01a7 73686F72 		.ascii	"short int\000"
 2094      7420696E 
 2094      7400
 2095              	.LASF28:
 2096 01b1 62756666 		.ascii	"buffer\000"
 2096      657200
 2097              	.LASF25:
 2098 01b8 42756666 		.ascii	"BufferedStreamAdapterVMT\000"
 2098      65726564 
 2098      53747265 
 2098      616D4164 
 2098      61707465 
 2099              	.LASF37:
 2100 01d1 474E5520 		.ascii	"GNU C17 11.3.1 20220712 -mcpu=cortex-m7 -mthumb -mf"
 2100      43313720 
 2100      31312E33 
 2100      2E312032 
 2100      30323230 
 2101 0204 6C6F6174 		.ascii	"loat-abi=soft -march=armv7e-m -ggdb -O2 -fomit-fram"
 2101      2D616269 
 2101      3D736F66 
 2101      74202D6D 
 2101      61726368 
 2102 0237 652D706F 		.ascii	"e-pointer -falign-functions=16 -ffunction-sections "
 2102      696E7465 
 2102      72202D66 
 2102      616C6967 
 2102      6E2D6675 
 2103 026a 2D666461 		.ascii	"-fdata-sections -fno-common\000"
 2103      74612D73 
 2103      65637469 
 2103      6F6E7320 
 2103      2D666E6F 
 2104              	.LASF11:
 2105 0286 6C6F6E67 		.ascii	"long int\000"
 2105      20696E74 
 2105      00
 2106              	.LASF38:
 2107 028f 2E2E2F2E 		.ascii	"../../../os/hal/lib/streams/bufstreams.c\000"
 2107      2E2F2E2E 
 2107      2F6F732F 
 2107      68616C2F 
 2107      6C69622F 
 2108              	.LASF33:
 2109 02b8 5F756E67 		.ascii	"_unget\000"
 2109      657400
 2110              	.LASF19:
 2111 02bf 5F426F6F 		.ascii	"_Bool\000"
 2111      6C00
 2112              	.LASF24:
 2113 02c5 42617365 		.ascii	"BaseSequentialStreamVMT\000"
 2113      53657175 
 2113      656E7469 
 2113      616C5374 
ARM GAS  C:\Users\DEVELO~1\AppData\Local\Temp\ccPNADy7.s 			page 40


 2113      7265616D 
 2114              	.LASF13:
 2115 02dd 6C6F6E67 		.ascii	"long long unsigned int\000"
 2115      206C6F6E 
 2115      6720756E 
 2115      7369676E 
 2115      65642069 
 2116              		.ident	"GCC: (Arm GNU Toolchain 11.3.Rel1) 11.3.1 20220712"
ARM GAS  C:\Users\DEVELO~1\AppData\Local\Temp\ccPNADy7.s 			page 41


DEFINED SYMBOLS
                            *ABS*:00000000 bufstreams.c
C:\Users\DEVELO~1\AppData\Local\Temp\ccPNADy7.s:18     .text._writes:00000000 $t
C:\Users\DEVELO~1\AppData\Local\Temp\ccPNADy7.s:24     .text._writes:00000000 _writes
C:\Users\DEVELO~1\AppData\Local\Temp\ccPNADy7.s:49     .text._put:00000000 $t
C:\Users\DEVELO~1\AppData\Local\Temp\ccPNADy7.s:55     .text._put:00000000 _put
C:\Users\DEVELO~1\AppData\Local\Temp\ccPNADy7.s:79     .text._unget:00000000 $t
C:\Users\DEVELO~1\AppData\Local\Temp\ccPNADy7.s:85     .text._unget:00000000 _unget
C:\Users\DEVELO~1\AppData\Local\Temp\ccPNADy7.s:130    .text._reads:00000000 $t
C:\Users\DEVELO~1\AppData\Local\Temp\ccPNADy7.s:136    .text._reads:00000000 _reads
C:\Users\DEVELO~1\AppData\Local\Temp\ccPNADy7.s:209    .text._get:00000000 $t
C:\Users\DEVELO~1\AppData\Local\Temp\ccPNADy7.s:215    .text._get:00000000 _get
C:\Users\DEVELO~1\AppData\Local\Temp\ccPNADy7.s:264    .text.bsaObjectInit:00000000 $t
C:\Users\DEVELO~1\AppData\Local\Temp\ccPNADy7.s:271    .text.bsaObjectInit:00000000 bsaObjectInit
C:\Users\DEVELO~1\AppData\Local\Temp\ccPNADy7.s:306    .text.bsaObjectInit:00000014 $d
C:\Users\DEVELO~1\AppData\Local\Temp\ccPNADy7.s:311    .rodata.vmt:00000000 $d
C:\Users\DEVELO~1\AppData\Local\Temp\ccPNADy7.s:315    .rodata.vmt:00000000 vmt

UNDEFINED SYMBOLS
memcpy
