ARM GAS  C:\Users\DEVELO~1\AppData\Local\Temp\ccPNADy7.s 			page 1


   1              		.cpu cortex-m7
   2              		.arch armv7e-m
   3              		.fpu softvfp
   4              		.eabi_attribute 20, 1
   5              		.eabi_attribute 21, 1
   6              		.eabi_attribute 23, 3
   7              		.eabi_attribute 24, 1
   8              		.eabi_attribute 25, 1
   9              		.eabi_attribute 26, 1
  10              		.eabi_attribute 30, 2
  11              		.eabi_attribute 34, 1
  12              		.eabi_attribute 18, 4
  13              		.file	"bufstreams.c"
  14              		.text
  15              	.Ltext0:
  16              		.cfi_sections	.debug_frame
  17              		.section	.text._writes,"ax",%progbits
  18              		.align	1
  19              		.p2align 4,,15
  20              		.syntax unified
  21              		.thumb
  22              		.thumb_func
  23              		.type	_writes, %function
  24              	_writes:
  25              	.LVL0:
  26              	.LFB432:
  27              		.file 1 "../../../os/hal/lib/streams/bufstreams.c"
  28              		.loc 1 51 62 view -0
  29              		.cfi_startproc
  30              		@ args = 0, pretend = 0, frame = 0
  31              		@ frame_needed = 0, uses_anonymous_args = 0
  32              		@ link register save eliminated.
  33              		.loc 1 52 3 view .LVU1
  34              		.loc 1 53 3 view .LVU2
  35              		.loc 1 53 14 is_stmt 0 view .LVU3
  36 0000 4068     		ldr	r0, [r0, #4]
  37              	.LVL1:
  38              		.loc 1 53 25 view .LVU4
  39 0002 0368     		ldr	r3, [r0]
  40              		.loc 1 53 10 view .LVU5
  41 0004 5B68     		ldr	r3, [r3, #4]
  42 0006 1847     		bx	r3
  43              	.LVL2:
  44              		.loc 1 53 10 view .LVU6
  45              		.cfi_endproc
  46              	.LFE432:
  47              		.size	_writes, .-_writes
  48              		.section	.text._put,"ax",%progbits
  49              		.align	1
  50              		.p2align 4,,15
  51              		.syntax unified
  52              		.thumb
  53              		.thumb_func
  54              		.type	_put, %function
  55              	_put:
  56              	.LVL3:
  57              	.LFB434:
ARM GAS  C:\Users\DEVELO~1\AppData\Local\Temp\ccPNADy7.s 			page 2


  58              		.loc 1 72 40 is_stmt 1 view -0
  59              		.cfi_startproc
  60              		@ args = 0, pretend = 0, frame = 0
  61              		@ frame_needed = 0, uses_anonymous_args = 0
  62              		@ link register save eliminated.
  63              		.loc 1 73 3 view .LVU8
  64              		.loc 1 74 3 view .LVU9
  65              		.loc 1 74 14 is_stmt 0 view .LVU10
  66 0000 4068     		ldr	r0, [r0, #4]
  67              	.LVL4:
  68              		.loc 1 74 25 view .LVU11
  69 0002 0368     		ldr	r3, [r0]
  70              		.loc 1 74 10 view .LVU12
  71 0004 DB68     		ldr	r3, [r3, #12]
  72 0006 1847     		bx	r3
  73              	.LVL5:
  74              		.loc 1 74 10 view .LVU13
  75              		.cfi_endproc
  76              	.LFE434:
  77              		.size	_put, .-_put
  78              		.section	.text._unget,"ax",%progbits
  79              		.align	1
  80              		.p2align 4,,15
  81              		.syntax unified
  82              		.thumb
  83              		.thumb_func
  84              		.type	_unget, %function
  85              	_unget:
  86              	.LVL6:
  87              	.LFB436:
  88              		.loc 1 87 42 is_stmt 1 view -0
  89              		.cfi_startproc
  90              		@ args = 0, pretend = 0, frame = 0
  91              		@ frame_needed = 0, uses_anonymous_args = 0
  92              		@ link register save eliminated.
  93              		.loc 1 88 3 view .LVU15
  94              		.loc 1 90 6 is_stmt 0 view .LVU16
  95 0000 FE29     		cmp	r1, #254
  96              		.loc 1 87 42 view .LVU17
  97 0002 0346     		mov	r3, r0
  98              	.LVL7:
  99              		.loc 1 90 3 is_stmt 1 view .LVU18
 100              		.loc 1 90 6 is_stmt 0 view .LVU19
 101 0004 09D0     		beq	.L7
 102              		.loc 1 90 40 discriminator 1 view .LVU20
 103 0006 C268     		ldr	r2, [r0, #12]
 104              		.loc 1 90 32 discriminator 1 view .LVU21
 105 0008 3AB1     		cbz	r2, .L7
 106              		.loc 1 94 3 is_stmt 1 view .LVU22
 107              		.loc 1 94 16 is_stmt 0 view .LVU23
 108 000a 013A     		subs	r2, r2, #1
 109              		.loc 1 96 10 view .LVU24
 110 000c 0846     		mov	r0, r1
 111              	.LVL8:
 112              		.loc 1 94 31 view .LVU25
 113 000e 03EB020C 		add	ip, r3, r2
 114 0012 DA60     		str	r2, [r3, #12]
ARM GAS  C:\Users\DEVELO~1\AppData\Local\Temp\ccPNADy7.s 			page 3


 115 0014 8CF80810 		strb	r1, [ip, #8]
 116              		.loc 1 96 3 is_stmt 1 view .LVU26
 117              		.loc 1 96 10 is_stmt 0 view .LVU27
 118 0018 7047     		bx	lr
 119              	.LVL9:
 120              	.L7:
 121              		.loc 1 91 12 view .LVU28
 122 001a 6FF00100 		mvn	r0, #1
 123              	.LVL10:
 124              		.loc 1 97 1 view .LVU29
 125 001e 7047     		bx	lr
 126              		.cfi_endproc
 127              	.LFE436:
 128              		.size	_unget, .-_unget
 129              		.section	.text._reads,"ax",%progbits
 130              		.align	1
 131              		.p2align 4,,15
 132              		.syntax unified
 133              		.thumb
 134              		.thumb_func
 135              		.type	_reads, %function
 136              	_reads:
 137              	.LVL11:
 138              	.LFB433:
 139              		.loc 1 56 55 is_stmt 1 view -0
 140              		.cfi_startproc
 141              		@ args = 0, pretend = 0, frame = 0
 142              		@ frame_needed = 0, uses_anonymous_args = 0
 143              		.loc 1 57 3 view .LVU31
 144              		.loc 1 56 55 is_stmt 0 view .LVU32
 145 0000 70B5     		push	{r4, r5, r6, lr}
 146              		.cfi_def_cfa_offset 16
 147              		.cfi_offset 4, -16
 148              		.cfi_offset 5, -12
 149              		.cfi_offset 6, -8
 150              		.cfi_offset 14, -4
 151              		.loc 1 60 34 view .LVU33
 152 0002 C468     		ldr	r4, [r0, #12]
 153              		.loc 1 56 55 view .LVU34
 154 0004 0B46     		mov	r3, r1
 155 0006 0646     		mov	r6, r0
 156              	.LVL12:
 157              		.loc 1 58 3 is_stmt 1 view .LVU35
 158              		.loc 1 60 3 view .LVU36
 159              		.loc 1 56 55 is_stmt 0 view .LVU37
 160 0008 1546     		mov	r5, r2
 161              		.loc 1 60 34 view .LVU38
 162 000a C4F10104 		rsb	r4, r4, #1
 163 000e 9442     		cmp	r4, r2
 164 0010 28BF     		it	cs
 165 0012 1446     		movcs	r4, r2
 166              	.LVL13:
 167              		.loc 1 66 3 is_stmt 1 view .LVU39
 168              		.loc 1 66 52 is_stmt 0 view .LVU40
 169 0014 011B     		subs	r1, r0, r4
 170              	.LVL14:
 171              		.loc 1 66 3 view .LVU41
ARM GAS  C:\Users\DEVELO~1\AppData\Local\Temp\ccPNADy7.s 			page 4


 172 0016 2246     		mov	r2, r4
 173              	.LVL15:
 174              		.loc 1 66 3 view .LVU42
 175 0018 1846     		mov	r0, r3
 176              	.LVL16:
 177              		.loc 1 66 3 view .LVU43
 178 001a 0931     		adds	r1, r1, #9
 179 001c FFF7FEFF 		bl	memcpy
 180              	.LVL17:
 181              		.loc 1 67 3 is_stmt 1 view .LVU44
 182              		.loc 1 67 13 is_stmt 0 view .LVU45
 183 0020 F368     		ldr	r3, [r6, #12]
 184              		.loc 1 69 21 view .LVU46
 185 0022 0119     		adds	r1, r0, r4
 186              		.loc 1 69 25 view .LVU47
 187 0024 7068     		ldr	r0, [r6, #4]
 188              		.loc 1 67 13 view .LVU48
 189 0026 2344     		add	r3, r3, r4
 190              		.loc 1 69 21 view .LVU49
 191 0028 2A1B     		subs	r2, r5, r4
 192              		.loc 1 67 13 view .LVU50
 193 002a F360     		str	r3, [r6, #12]
 194              		.loc 1 69 3 is_stmt 1 view .LVU51
 195              		.loc 1 69 36 is_stmt 0 view .LVU52
 196 002c 0368     		ldr	r3, [r0]
 197              		.loc 1 69 21 view .LVU53
 198 002e 9B68     		ldr	r3, [r3, #8]
 199 0030 9847     		blx	r3
 200              	.LVL18:
 201              		.loc 1 70 1 view .LVU54
 202 0032 2044     		add	r0, r0, r4
 203 0034 70BD     		pop	{r4, r5, r6, pc}
 204              		.loc 1 70 1 view .LVU55
 205              		.cfi_endproc
 206              	.LFE433:
 207              		.size	_reads, .-_reads
 208 0036 00BF     		.section	.text._get,"ax",%progbits
 209              		.align	1
 210              		.p2align 4,,15
 211              		.syntax unified
 212              		.thumb
 213              		.thumb_func
 214              		.type	_get, %function
 215              	_get:
 216              	.LVL19:
 217              	.LFB435:
 218              		.loc 1 77 29 is_stmt 1 view -0
 219              		.cfi_startproc
 220              		@ args = 0, pretend = 0, frame = 0
 221              		@ frame_needed = 0, uses_anonymous_args = 0
 222              		@ link register save eliminated.
 223              		.loc 1 78 3 view .LVU57
 224              		.loc 1 80 3 view .LVU58
 225              		.loc 1 80 11 is_stmt 0 view .LVU59
 226 0000 C368     		ldr	r3, [r0, #12]
 227              		.loc 1 80 6 view .LVU60
 228 0002 012B     		cmp	r3, #1
ARM GAS  C:\Users\DEVELO~1\AppData\Local\Temp\ccPNADy7.s 			page 5


 229 0004 04D0     		beq	.L12
 230              		.loc 1 84 3 is_stmt 1 view .LVU61
 231              		.loc 1 84 32 is_stmt 0 view .LVU62
 232 0006 5A1C     		adds	r2, r3, #1
 233              		.loc 1 84 22 view .LVU63
 234 0008 0344     		add	r3, r3, r0
 235              		.loc 1 84 32 view .LVU64
 236 000a C260     		str	r2, [r0, #12]
 237              		.loc 1 85 1 view .LVU65
 238 000c 187A     		ldrb	r0, [r3, #8]	@ zero_extendqisi2
 239              	.LVL20:
 240              		.loc 1 85 1 view .LVU66
 241 000e 7047     		bx	lr
 242              	.LVL21:
 243              	.L12:
 244              	.LBB4:
 245              	.LBI4:
 246              		.loc 1 77 14 is_stmt 1 view .LVU67
 247              	.LBB5:
 248              		.loc 1 81 5 view .LVU68
 249              		.loc 1 81 16 is_stmt 0 view .LVU69
 250 0010 4068     		ldr	r0, [r0, #4]
 251              	.LVL22:
 252              		.loc 1 81 27 view .LVU70
 253 0012 0368     		ldr	r3, [r0]
 254              		.loc 1 81 12 view .LVU71
 255 0014 1B69     		ldr	r3, [r3, #16]
 256 0016 1847     		bx	r3
 257              	.LVL23:
 258              	.LBE5:
 259              	.LBE4:
 260              		.cfi_endproc
 261              	.LFE435:
 262              		.size	_get, .-_get
 263              		.section	.text.bsaObjectInit,"ax",%progbits
 264              		.align	1
 265              		.p2align 4,,15
 266              		.global	bsaObjectInit
 267              		.syntax unified
 268              		.thumb
 269              		.thumb_func
 270              		.type	bsaObjectInit, %function
 271              	bsaObjectInit:
 272              	.LVL24:
 273              	.LFB437:
 274              		.loc 1 115 77 is_stmt 1 view -0
 275              		.cfi_startproc
 276              		@ args = 0, pretend = 0, frame = 0
 277              		@ frame_needed = 0, uses_anonymous_args = 0
 278              		@ link register save eliminated.
 279              		.loc 1 117 3 view .LVU73
 280              		.loc 1 115 77 is_stmt 0 view .LVU74
 281 0000 10B4     		push	{r4}
 282              		.cfi_def_cfa_offset 4
 283              		.cfi_offset 4, -4
 284              		.loc 1 119 3 view .LVU75
 285 0002 FE22     		movs	r2, #254
ARM GAS  C:\Users\DEVELO~1\AppData\Local\Temp\ccPNADy7.s 			page 6


 286              		.loc 1 117 16 view .LVU76
 287 0004 034C     		ldr	r4, .L15
 288              		.loc 1 120 16 view .LVU77
 289 0006 0123     		movs	r3, #1
 290              		.loc 1 119 3 view .LVU78
 291 0008 0272     		strb	r2, [r0, #8]
 292              		.loc 1 120 16 view .LVU79
 293 000a C360     		str	r3, [r0, #12]
 294              		.loc 1 118 16 view .LVU80
 295 000c C0E90041 		strd	r4, r1, [r0]
 296              		.loc 1 119 3 is_stmt 1 view .LVU81
 297              		.loc 1 120 3 view .LVU82
 298              		.loc 1 121 1 is_stmt 0 view .LVU83
 299 0010 10BC     		pop	{r4}
 300              		.cfi_restore 4
 301              		.cfi_def_cfa_offset 0
 302 0012 7047     		bx	lr
 303              	.L16:
 304              		.align	2
 305              	.L15:
 306 0014 00000000 		.word	.LANCHOR0
 307              		.cfi_endproc
 308              	.LFE437:
 309              		.size	bsaObjectInit, .-bsaObjectInit
 310              		.section	.rodata.vmt,"a"
 311              		.align	2
 312              		.set	.LANCHOR0,. + 0
 313              		.type	vmt, %object
 314              		.size	vmt, 24
 315              	vmt:
 316 0000 00000000 		.word	0
 317 0004 00000000 		.word	_writes
 318 0008 00000000 		.word	_reads
 319 000c 00000000 		.word	_put
 320 0010 00000000 		.word	_get
 321 0014 00000000 		.word	_unget
 322              		.text
 323              	.Letext0:
 324              		.file 2 "c:\\chibistudio\\tools\\gnu tools arm embedded\\11.3 2022.08\\lib\\gcc\\arm-none-eabi\\11
 325              		.file 3 "c:\\chibistudio\\tools\\gnu tools arm embedded\\11.3 2022.08\\arm-none-eabi\\include\\mac
 326              		.file 4 "c:\\chibistudio\\tools\\gnu tools arm embedded\\11.3 2022.08\\arm-none-eabi\\include\\sys
 327              		.file 5 "../../../os/rt/include/chearly.h"
 328              		.file 6 "../../../os/hal/include/hal_streams.h"
 329              		.file 7 "../../../os/hal/lib/streams/bufstreams.h"
 330              		.file 8 "c:\\chibistudio\\tools\\gnu tools arm embedded\\11.3 2022.08\\arm-none-eabi\\include\\str
 331              		.file 9 "<built-in>"