ARM GAS  C:\Users\DEVELO~1\AppData\Local\Temp\ccua2lkc.s 			page 1


   1              		.cpu cortex-m7
   2              		.arch armv7e-m
   3              		.fpu softvfp
   4              		.eabi_attribute 20, 1
   5              		.eabi_attribute 21, 1
   6              		.eabi_attribute 23, 3
   7              		.eabi_attribute 24, 1
   8              		.eabi_attribute 25, 1
   9              		.eabi_attribute 26, 1
  10              		.eabi_attribute 30, 2
  11              		.eabi_attribute 34, 1
  12              		.eabi_attribute 18, 4
  13              		.file	"ch_test_printf.c"
  14              		.text
  15              	.Ltext0:
  16              		.cfi_sections	.debug_frame
  17              		.section	.text.test_putchar,"ax",%progbits
  18              		.align	1
  19              		.p2align 4,,15
  20              		.global	test_putchar
  21              		.syntax unified
  22              		.thumb
  23              		.thumb_func
  24              		.type	test_putchar, %function
  25              	test_putchar:
  26              	.LVL0:
  27              	.LFB438:
  28              		.file 1 "../../../os/test/src/ch_test_printf.c"
  29              		.loc 1 98 27 view -0
  30              		.cfi_startproc
  31              		@ args = 0, pretend = 0, frame = 0
  32              		@ frame_needed = 0, uses_anonymous_args = 0
  33              		@ link register save eliminated.
  34              		.loc 1 100 3 view .LVU1
  35              		.loc 1 100 13 is_stmt 0 view .LVU2
  36 0000 024B     		ldr	r3, .L4
  37 0002 1B6A     		ldr	r3, [r3, #32]
  38              		.loc 1 100 6 view .LVU3
  39 0004 03B1     		cbz	r3, .L1
  40              		.loc 1 101 5 is_stmt 1 view .LVU4
  41 0006 1847     		bx	r3
  42              	.LVL1:
  43              	.L1:
  44              		.loc 1 103 1 is_stmt 0 view .LVU5
  45 0008 7047     		bx	lr
  46              	.L5:
  47 000a 00BF     		.align	2
  48              	.L4:
  49 000c 00000000 		.word	chtest
  50              		.cfi_endproc
  51              	.LFE438:
  52              		.size	test_putchar, .-test_putchar
  53              		.section	.rodata.test_vprintf.str1.4,"aMS",%progbits,1
  54              		.align	2
  55              	.LC0:
  56 0000 286E756C 		.ascii	"(null)\000"
  56      6C2900
ARM GAS  C:\Users\DEVELO~1\AppData\Local\Temp\ccua2lkc.s 			page 2


  57              		.section	.text.test_vprintf,"ax",%progbits
  58              		.align	1
  59              		.p2align 4,,15
  60              		.global	test_vprintf
  61              		.syntax unified
  62              		.thumb
  63              		.thumb_func
  64              		.type	test_vprintf, %function
  65              	test_vprintf:
  66              	.LVL2:
  67              	.LFB439:
  68              		.loc 1 128 47 is_stmt 1 view -0
  69              		.cfi_startproc
  70              		@ args = 0, pretend = 0, frame = 24
  71              		@ frame_needed = 0, uses_anonymous_args = 0
  72              		.loc 1 129 3 view .LVU7
  73              		.loc 1 130 3 view .LVU8
  74              		.loc 1 132 3 view .LVU9
  75              		.loc 1 133 3 view .LVU10
  76              	.LBB38:
  77              		.loc 1 134 5 view .LVU11
  78              		.loc 1 135 5 view .LVU12
  79              		.loc 1 136 5 view .LVU13
  80              		.loc 1 138 5 view .LVU14
  81              	.LBE38:
  82              		.loc 1 128 47 is_stmt 0 view .LVU15
  83 0000 2DE9F04F 		push	{r4, r5, r6, r7, r8, r9, r10, fp, lr}
  84              		.cfi_def_cfa_offset 36
  85              		.cfi_offset 4, -36
  86              		.cfi_offset 5, -32
  87              		.cfi_offset 6, -28
  88              		.cfi_offset 7, -24
  89              		.cfi_offset 8, -20
  90              		.cfi_offset 9, -16
  91              		.cfi_offset 10, -12
  92              		.cfi_offset 11, -8
  93              		.cfi_offset 14, -4
  94              	.LBB74:
  95              		.loc 1 138 13 view .LVU16
  96 0004 0746     		mov	r7, r0
  97              	.LVL3:
  98              		.loc 1 138 13 view .LVU17
  99              	.LBE74:
 100              		.loc 1 128 47 view .LVU18
 101 0006 0446     		mov	r4, r0
 102 0008 87B0     		sub	sp, sp, #28
 103              		.cfi_def_cfa_offset 64
 104              	.LBB75:
 105              		.loc 1 138 7 view .LVU19
 106 000a 17F8010B 		ldrb	r0, [r7], #1	@ zero_extendqisi2
 107              	.LVL4:
 108              		.loc 1 139 5 is_stmt 1 view .LVU20
 109              		.loc 1 139 8 is_stmt 0 view .LVU21
 110 000e 0028     		cmp	r0, #0
 111 0010 00F00182 		beq	.L77
 112              	.LBE75:
 113              		.loc 1 132 5 view .LVU22
ARM GAS  C:\Users\DEVELO~1\AppData\Local\Temp\ccua2lkc.s 			page 3


 114 0014 4FF0000B 		mov	fp, #0
 115 0018 8C4D     		ldr	r5, .L169
 116 001a 8946     		mov	r9, r1
 117              	.LVL5:
 118              		.loc 1 132 5 view .LVU23
 119 001c 0AE0     		b	.L8
 120              	.LVL6:
 121              	.L156:
 122              	.LBB76:
 123              		.loc 1 144 7 is_stmt 1 view .LVU24
 124              	.LBB39:
 125              	.LBI39:
 126              		.loc 1 98 6 view .LVU25
 127              	.LBB40:
 128              		.loc 1 100 3 view .LVU26
 129              		.loc 1 100 13 is_stmt 0 view .LVU27
 130 001e 2B6A     		ldr	r3, [r5, #32]
 131              		.loc 1 100 6 view .LVU28
 132 0020 03B1     		cbz	r3, .L10
 133              		.loc 1 101 5 is_stmt 1 view .LVU29
 134 0022 9847     		blx	r3
 135              	.LVL7:
 136              	.L10:
 137              		.loc 1 101 5 is_stmt 0 view .LVU30
 138              	.LBE40:
 139              	.LBE39:
 140              		.loc 1 145 7 is_stmt 1 view .LVU31
 141              		.loc 1 145 8 is_stmt 0 view .LVU32
 142 0024 0BF1010B 		add	fp, fp, #1
 143              	.LVL8:
 144              		.loc 1 146 7 is_stmt 1 view .LVU33
 145 0028 3C46     		mov	r4, r7
 146              	.LVL9:
 147              	.L11:
 148              		.loc 1 146 7 is_stmt 0 view .LVU34
 149              	.LBE76:
 150              		.loc 1 133 3 is_stmt 1 view .LVU35
 151              	.LBB77:
 152              		.loc 1 134 5 view .LVU36
 153              		.loc 1 135 5 view .LVU37
 154              		.loc 1 136 5 view .LVU38
 155              		.loc 1 138 5 view .LVU39
 156              		.loc 1 138 13 is_stmt 0 view .LVU40
 157 002a 2746     		mov	r7, r4
 158              	.LVL10:
 159              		.loc 1 138 7 view .LVU41
 160 002c 17F8010B 		ldrb	r0, [r7], #1	@ zero_extendqisi2
 161              	.LVL11:
 162              		.loc 1 139 5 is_stmt 1 view .LVU42
 163              		.loc 1 139 8 is_stmt 0 view .LVU43
 164 0030 0028     		cmp	r0, #0
 165 0032 6FD0     		beq	.L6
 166              	.LVL12:
 167              	.L8:
 168              		.loc 1 143 5 is_stmt 1 view .LVU44
 169              		.loc 1 143 8 is_stmt 0 view .LVU45
 170 0034 2528     		cmp	r0, #37
ARM GAS  C:\Users\DEVELO~1\AppData\Local\Temp\ccua2lkc.s 			page 4


 171 0036 F2D1     		bne	.L156
 172              		.loc 1 150 5 is_stmt 1 view .LVU46
 173              	.LVL13:
 174              		.loc 1 151 5 view .LVU47
 175              		.loc 1 154 5 view .LVU48
 176              		.loc 1 155 5 view .LVU49
 177              		.loc 1 155 8 is_stmt 0 view .LVU50
 178 0038 6378     		ldrb	r3, [r4, #1]	@ zero_extendqisi2
 179 003a 2D2B     		cmp	r3, #45
 180 003c 00F0B180 		beq	.L157
 181              		.loc 1 154 16 view .LVU51
 182 0040 4FF0000C 		mov	ip, #0
 183              	.LVL14:
 184              	.L12:
 185              		.loc 1 161 5 is_stmt 1 view .LVU52
 186              		.loc 1 162 5 view .LVU53
 187              		.loc 1 162 9 is_stmt 0 view .LVU54
 188 0044 3978     		ldrb	r1, [r7]	@ zero_extendqisi2
 189              		.loc 1 162 8 view .LVU55
 190 0046 2B29     		cmp	r1, #43
 191 0048 00F0A780 		beq	.L158
 192              		.loc 1 161 13 view .LVU56
 193 004c 0026     		movs	r6, #0
 194              	.LVL15:
 195              	.L13:
 196              		.loc 1 168 5 is_stmt 1 view .LVU57
 197              		.loc 1 169 5 view .LVU58
 198              		.loc 1 169 8 is_stmt 0 view .LVU59
 199 004e 3029     		cmp	r1, #48
 200 0050 00F09F80 		beq	.L159
 201              		.loc 1 168 12 view .LVU60
 202 0054 4FF02008 		mov	r8, #32
 203              	.LVL16:
 204              	.L14:
 205              		.loc 1 175 5 is_stmt 1 view .LVU61
 206              		.loc 1 175 8 is_stmt 0 view .LVU62
 207 0058 2A29     		cmp	r1, #42
 208 005a 4BD1     		bne	.L15
 209              		.loc 1 176 7 is_stmt 1 view .LVU63
 210              	.LVL17:
 211              		.loc 1 176 13 is_stmt 0 view .LVU64
 212 005c 59F8042B 		ldr	r2, [r9], #4
 213              	.LVL18:
 214              		.loc 1 177 7 is_stmt 1 view .LVU65
 215              		.loc 1 178 7 view .LVU66
 216              		.loc 1 178 15 is_stmt 0 view .LVU67
 217 0060 BC1C     		adds	r4, r7, #2
 218              	.LVL19:
 219              		.loc 1 178 9 view .LVU68
 220 0062 7978     		ldrb	r1, [r7, #1]	@ zero_extendqisi2
 221              	.LVL20:
 222              	.L16:
 223              		.loc 1 198 5 is_stmt 1 view .LVU69
 224              		.loc 1 199 5 view .LVU70
 225              		.loc 1 199 8 is_stmt 0 view .LVU71
 226 0064 2E29     		cmp	r1, #46
 227 0066 00F0A080 		beq	.L160
ARM GAS  C:\Users\DEVELO~1\AppData\Local\Temp\ccua2lkc.s 			page 5


 228              		.loc 1 198 15 view .LVU72
 229 006a 0020     		movs	r0, #0
 230              	.LVL21:
 231              	.L18:
 232              		.loc 1 221 5 is_stmt 1 view .LVU73
 233              		.loc 1 221 8 is_stmt 0 view .LVU74
 234 006c 01F0DF03 		and	r3, r1, #223
 235 0070 4C2B     		cmp	r3, #76
 236 0072 53D1     		bne	.L22
 237              		.loc 1 222 7 is_stmt 1 view .LVU75
 238              	.LVL22:
 239              		.loc 1 223 7 view .LVU76
 240              		.loc 1 223 9 is_stmt 0 view .LVU77
 241 0074 14F8011B 		ldrb	r1, [r4], #1	@ zero_extendqisi2
 242              	.LVL23:
 243              		.loc 1 224 7 is_stmt 1 view .LVU78
 244              		.loc 1 224 10 is_stmt 0 view .LVU79
 245 0078 0029     		cmp	r1, #0
 246 007a 4BD0     		beq	.L6
 247              		.loc 1 233 5 is_stmt 1 view .LVU80
 248 007c A1F14403 		sub	r3, r1, #68
 249 0080 342B     		cmp	r3, #52
 250 0082 00F29C80 		bhi	.L24
 251 0086 DFE813F0 		tbh	[pc, r3, lsl #1]
 252              	.L71:
 253 008a E300     		.2byte	(.L41-.L71)/2
 254 008c 9A00     		.2byte	(.L24-.L71)/2
 255 008e 9A00     		.2byte	(.L24-.L71)/2
 256 0090 9A00     		.2byte	(.L24-.L71)/2
 257 0092 9A00     		.2byte	(.L24-.L71)/2
 258 0094 E300     		.2byte	(.L41-.L71)/2
 259 0096 9A00     		.2byte	(.L24-.L71)/2
 260 0098 9A00     		.2byte	(.L24-.L71)/2
 261 009a 9A00     		.2byte	(.L24-.L71)/2
 262 009c 9A00     		.2byte	(.L24-.L71)/2
 263 009e 9A00     		.2byte	(.L24-.L71)/2
 264 00a0 6501     		.2byte	(.L73-.L71)/2
 265 00a2 1501     		.2byte	(.L88-.L71)/2
 266 00a4 9A00     		.2byte	(.L24-.L71)/2
 267 00a6 9A00     		.2byte	(.L24-.L71)/2
 268 00a8 9A00     		.2byte	(.L24-.L71)/2
 269 00aa 9A00     		.2byte	(.L24-.L71)/2
 270 00ac BB01     		.2byte	(.L72-.L71)/2
 271 00ae 9A00     		.2byte	(.L24-.L71)/2
 272 00b0 9A00     		.2byte	(.L24-.L71)/2
 273 00b2 1501     		.2byte	(.L88-.L71)/2
 274 00b4 9A00     		.2byte	(.L24-.L71)/2
 275 00b6 9A00     		.2byte	(.L24-.L71)/2
 276 00b8 9A00     		.2byte	(.L24-.L71)/2
 277 00ba 9A00     		.2byte	(.L24-.L71)/2
 278 00bc 9A00     		.2byte	(.L24-.L71)/2
 279 00be 9A00     		.2byte	(.L24-.L71)/2
 280 00c0 9A00     		.2byte	(.L24-.L71)/2
 281 00c2 9A00     		.2byte	(.L24-.L71)/2
 282 00c4 9A00     		.2byte	(.L24-.L71)/2
 283 00c6 9A00     		.2byte	(.L24-.L71)/2
 284 00c8 8501     		.2byte	(.L31-.L71)/2
ARM GAS  C:\Users\DEVELO~1\AppData\Local\Temp\ccua2lkc.s 			page 6


 285 00ca E300     		.2byte	(.L41-.L71)/2
 286 00cc 9A00     		.2byte	(.L24-.L71)/2
 287 00ce 9A00     		.2byte	(.L24-.L71)/2
 288 00d0 9A00     		.2byte	(.L24-.L71)/2
 289 00d2 9A00     		.2byte	(.L24-.L71)/2
 290 00d4 E300     		.2byte	(.L41-.L71)/2
 291 00d6 9A00     		.2byte	(.L24-.L71)/2
 292 00d8 9A00     		.2byte	(.L24-.L71)/2
 293 00da 9A00     		.2byte	(.L24-.L71)/2
 294 00dc 9A00     		.2byte	(.L24-.L71)/2
 295 00de 9A00     		.2byte	(.L24-.L71)/2
 296 00e0 6501     		.2byte	(.L73-.L71)/2
 297 00e2 1501     		.2byte	(.L88-.L71)/2
 298 00e4 9A00     		.2byte	(.L24-.L71)/2
 299 00e6 9A00     		.2byte	(.L24-.L71)/2
 300 00e8 6801     		.2byte	(.L28-.L71)/2
 301 00ea 9A00     		.2byte	(.L24-.L71)/2
 302 00ec BB01     		.2byte	(.L72-.L71)/2
 303 00ee 9A00     		.2byte	(.L24-.L71)/2
 304 00f0 9A00     		.2byte	(.L24-.L71)/2
 305 00f2 1501     		.2byte	(.L88-.L71)/2
 306              	.LVL24:
 307              		.p2align 1
 308              	.L15:
 309              		.loc 1 182 7 view .LVU81
 310              		.loc 1 183 9 view .LVU82
 311              		.loc 1 183 17 is_stmt 0 view .LVU83
 312 00f4 7C1C     		adds	r4, r7, #1
 313              	.LVL25:
 314              		.loc 1 184 9 is_stmt 1 view .LVU84
 315              		.loc 1 184 12 is_stmt 0 view .LVU85
 316 00f6 69B1     		cbz	r1, .L6
 317              		.loc 1 181 13 view .LVU86
 318 00f8 0022     		movs	r2, #0
 319              	.LVL26:
 320              	.L17:
 321              		.loc 1 187 9 is_stmt 1 view .LVU87
 322              		.loc 1 188 11 view .LVU88
 323              		.loc 1 187 24 is_stmt 0 view .LVU89
 324 00fa A1F13003 		sub	r3, r1, #48
 325              		.loc 1 189 25 view .LVU90
 326 00fe 02EB8200 		add	r0, r2, r2, lsl #2
 327              		.loc 1 187 24 view .LVU91
 328 0102 DBB2     		uxtb	r3, r3
 329              	.LVL27:
 330              		.loc 1 189 11 is_stmt 1 view .LVU92
 331              		.loc 1 187 12 is_stmt 0 view .LVU93
 332 0104 092B     		cmp	r3, #9
 333 0106 ADD8     		bhi	.L16
 334              		.loc 1 183 11 view .LVU94
 335 0108 14F8011B 		ldrb	r1, [r4], #1	@ zero_extendqisi2
 336              	.LVL28:
 337              		.loc 1 189 17 view .LVU95
 338 010c 03EB4002 		add	r2, r3, r0, lsl #1
 339              	.LVL29:
 340              		.loc 1 182 13 is_stmt 1 view .LVU96
 341              		.loc 1 182 7 view .LVU97
ARM GAS  C:\Users\DEVELO~1\AppData\Local\Temp\ccua2lkc.s 			page 7


 342              		.loc 1 183 9 view .LVU98
 343              		.loc 1 184 9 view .LVU99
 344              		.loc 1 184 12 is_stmt 0 view .LVU100
 345 0110 0029     		cmp	r1, #0
 346 0112 F2D1     		bne	.L17
 347              	.LVL30:
 348              	.L6:
 349              		.loc 1 184 12 view .LVU101
 350              	.LBE77:
 351              		.loc 1 329 1 view .LVU102
 352 0114 5846     		mov	r0, fp
 353 0116 07B0     		add	sp, sp, #28
 354              		.cfi_remember_state
 355              		.cfi_def_cfa_offset 36
 356              		@ sp needed
 357 0118 BDE8F08F 		pop	{r4, r5, r6, r7, r8, r9, r10, fp, pc}
 358              	.LVL31:
 359              	.L22:
 360              		.cfi_restore_state
 361              	.LBB78:
 362              		.loc 1 229 7 is_stmt 1 view .LVU103
 363              		.loc 1 233 5 view .LVU104
 364 011c A1F14407 		sub	r7, r1, #68
 365 0120 342F     		cmp	r7, #52
 366 0122 4CD8     		bhi	.L24
 367 0124 DFE817F0 		tbh	[pc, r7, lsl #1]
 368              	.L26:
 369 0128 9400     		.2byte	(.L41-.L26)/2
 370 012a 4B00     		.2byte	(.L24-.L26)/2
 371 012c 4B00     		.2byte	(.L24-.L26)/2
 372 012e 4B00     		.2byte	(.L24-.L26)/2
 373 0130 4B00     		.2byte	(.L24-.L26)/2
 374 0132 9400     		.2byte	(.L41-.L26)/2
 375 0134 4B00     		.2byte	(.L24-.L26)/2
 376 0136 4B00     		.2byte	(.L24-.L26)/2
 377 0138 4B00     		.2byte	(.L24-.L26)/2
 378 013a 4B00     		.2byte	(.L24-.L26)/2
 379 013c 4B00     		.2byte	(.L24-.L26)/2
 380 013e 1601     		.2byte	(.L73-.L26)/2
 381 0140 C600     		.2byte	(.L88-.L26)/2
 382 0142 4B00     		.2byte	(.L24-.L26)/2
 383 0144 4B00     		.2byte	(.L24-.L26)/2
 384 0146 4B00     		.2byte	(.L24-.L26)/2
 385 0148 4B00     		.2byte	(.L24-.L26)/2
 386 014a 6C01     		.2byte	(.L72-.L26)/2
 387 014c 4B00     		.2byte	(.L24-.L26)/2
 388 014e 4B00     		.2byte	(.L24-.L26)/2
 389 0150 C600     		.2byte	(.L88-.L26)/2
 390 0152 4B00     		.2byte	(.L24-.L26)/2
 391 0154 4B00     		.2byte	(.L24-.L26)/2
 392 0156 4B00     		.2byte	(.L24-.L26)/2
 393 0158 4B00     		.2byte	(.L24-.L26)/2
 394 015a 4B00     		.2byte	(.L24-.L26)/2
 395 015c 4B00     		.2byte	(.L24-.L26)/2
 396 015e 4B00     		.2byte	(.L24-.L26)/2
 397 0160 4B00     		.2byte	(.L24-.L26)/2
 398 0162 4B00     		.2byte	(.L24-.L26)/2
ARM GAS  C:\Users\DEVELO~1\AppData\Local\Temp\ccua2lkc.s 			page 8


 399 0164 4B00     		.2byte	(.L24-.L26)/2
 400 0166 3601     		.2byte	(.L31-.L26)/2
 401 0168 9400     		.2byte	(.L41-.L26)/2
 402 016a 4B00     		.2byte	(.L24-.L26)/2
 403 016c 4B00     		.2byte	(.L24-.L26)/2
 404 016e 4B00     		.2byte	(.L24-.L26)/2
 405 0170 4B00     		.2byte	(.L24-.L26)/2
 406 0172 9400     		.2byte	(.L41-.L26)/2
 407 0174 4B00     		.2byte	(.L24-.L26)/2
 408 0176 4B00     		.2byte	(.L24-.L26)/2
 409 0178 4B00     		.2byte	(.L24-.L26)/2
 410 017a 4B00     		.2byte	(.L24-.L26)/2
 411 017c 4B00     		.2byte	(.L24-.L26)/2
 412 017e 1601     		.2byte	(.L73-.L26)/2
 413 0180 C600     		.2byte	(.L88-.L26)/2
 414 0182 4B00     		.2byte	(.L24-.L26)/2
 415 0184 4B00     		.2byte	(.L24-.L26)/2
 416 0186 1901     		.2byte	(.L28-.L26)/2
 417 0188 4B00     		.2byte	(.L24-.L26)/2
 418 018a 6C01     		.2byte	(.L72-.L26)/2
 419 018c 4B00     		.2byte	(.L24-.L26)/2
 420 018e 4B00     		.2byte	(.L24-.L26)/2
 421 0190 C600     		.2byte	(.L88-.L26)/2
 422              	.LVL32:
 423              		.p2align 1
 424              	.L159:
 425              		.loc 1 170 7 view .LVU105
 426              		.loc 1 171 7 view .LVU106
 427              		.loc 1 170 10 is_stmt 0 view .LVU107
 428 0192 0137     		adds	r7, r7, #1
 429              	.LVL33:
 430              		.loc 1 171 14 view .LVU108
 431 0194 8846     		mov	r8, r1
 432              		.loc 1 175 10 view .LVU109
 433 0196 3978     		ldrb	r1, [r7]	@ zero_extendqisi2
 434 0198 5EE7     		b	.L14
 435              	.LVL34:
 436              	.L158:
 437              		.loc 1 163 7 is_stmt 1 view .LVU110
 438              		.loc 1 164 7 view .LVU111
 439              		.loc 1 169 9 is_stmt 0 view .LVU112
 440 019a 7978     		ldrb	r1, [r7, #1]	@ zero_extendqisi2
 441              		.loc 1 164 15 view .LVU113
 442 019c 0126     		movs	r6, #1
 443              		.loc 1 163 10 view .LVU114
 444 019e 0137     		adds	r7, r7, #1
 445              	.LVL35:
 446              		.loc 1 163 10 view .LVU115
 447 01a0 55E7     		b	.L13
 448              	.LVL36:
 449              	.L157:
 450              		.loc 1 156 7 is_stmt 1 view .LVU116
 451              		.loc 1 156 10 is_stmt 0 view .LVU117
 452 01a2 A71C     		adds	r7, r4, #2
 453              	.LVL37:
 454              		.loc 1 157 7 is_stmt 1 view .LVU118
 455              		.loc 1 157 18 is_stmt 0 view .LVU119
ARM GAS  C:\Users\DEVELO~1\AppData\Local\Temp\ccua2lkc.s 			page 9


 456 01a4 4FF0010C 		mov	ip, #1
 457 01a8 4CE7     		b	.L12
 458              	.LVL38:
 459              	.L160:
 460              		.loc 1 200 7 is_stmt 1 view .LVU120
 461              		.loc 1 200 9 is_stmt 0 view .LVU121
 462 01aa 2178     		ldrb	r1, [r4]	@ zero_extendqisi2
 463              	.LVL39:
 464              		.loc 1 201 7 is_stmt 1 view .LVU122
 465              		.loc 1 201 10 is_stmt 0 view .LVU123
 466 01ac 0029     		cmp	r1, #0
 467 01ae B1D0     		beq	.L6
 468              		.loc 1 204 7 is_stmt 1 view .LVU124
 469              		.loc 1 204 10 is_stmt 0 view .LVU125
 470 01b0 2A29     		cmp	r1, #42
 471 01b2 37D1     		bne	.L161
 472              		.loc 1 205 9 is_stmt 1 view .LVU126
 473              	.LVL40:
 474              		.loc 1 206 11 is_stmt 0 view .LVU127
 475 01b4 6178     		ldrb	r1, [r4, #1]	@ zero_extendqisi2
 476              	.LVL41:
 477              		.loc 1 206 17 view .LVU128
 478 01b6 0234     		adds	r4, r4, #2
 479              	.LVL42:
 480              		.loc 1 205 19 view .LVU129
 481 01b8 59F8040B 		ldr	r0, [r9], #4
 482              	.LVL43:
 483              		.loc 1 206 9 is_stmt 1 view .LVU130
 484              		.loc 1 206 9 is_stmt 0 view .LVU131
 485 01bc 56E7     		b	.L18
 486              	.LVL44:
 487              	.L24:
 488              	.LBB42:
 489              		.loc 1 296 7 is_stmt 1 view .LVU132
 490              		.loc 1 296 7 is_stmt 0 view .LVU133
 491 01be 013A     		subs	r2, r2, #1
 492              		.loc 1 296 12 view .LVU134
 493 01c0 8DF80C10 		strb	r1, [sp, #12]
 494              		.loc 1 297 7 is_stmt 1 view .LVU135
 495              	.LVL45:
 496              		.loc 1 297 7 is_stmt 0 view .LVU136
 497              	.LBE42:
 498              		.loc 1 299 5 is_stmt 1 view .LVU137
 499              		.loc 1 300 5 view .LVU138
 500              		.loc 1 301 5 view .LVU139
 501 01c4 22EAE277 		bic	r7, r2, r2, asr #31
 502              	.LVL46:
 503              		.loc 1 304 5 view .LVU140
 504              		.loc 1 304 8 is_stmt 0 view .LVU141
 505 01c8 BCF1000F 		cmp	ip, #0
 506 01cc 40F0EF80 		bne	.L93
 507              	.L168:
 508              		.loc 1 307 8 view .LVU142
 509 01d0 002A     		cmp	r2, #0
 510              		.loc 1 304 8 view .LVU143
 511 01d2 0DF10C0A 		add	r10, sp, #12
 512              	.LVL47:
ARM GAS  C:\Users\DEVELO~1\AppData\Local\Temp\ccua2lkc.s 			page 10


 513              		.loc 1 305 7 is_stmt 1 view .LVU144
 514              		.loc 1 305 13 is_stmt 0 view .LVU145
 515 01d6 C7F10007 		rsb	r7, r7, #0
 516              	.LVL48:
 517              		.loc 1 307 5 is_stmt 1 view .LVU146
 518              		.loc 1 304 8 is_stmt 0 view .LVU147
 519 01da CDF804C0 		str	ip, [sp, #4]
 520              		.loc 1 307 8 view .LVU148
 521 01de 00F3A080 		bgt	.L162
 522              	.LVL49:
 523              	.L56:
 524              		.loc 1 318 16 is_stmt 1 view .LVU149
 525              		.loc 1 318 16 is_stmt 0 view .LVU150
 526 01e2 019B     		ldr	r3, [sp, #4]
 527 01e4 002B     		cmp	r3, #0
 528 01e6 11DB     		blt	.L66
 529              	.LVL50:
 530              	.L67:
 531              		.loc 1 318 16 view .LVU151
 532 01e8 019B     		ldr	r3, [sp, #4]
 533              		.loc 1 304 8 view .LVU152
 534 01ea 5646     		mov	r6, r10
 535 01ec 9A44     		add	r10, r10, r3
 536              	.L65:
 537              	.LVL51:
 538              		.loc 1 319 7 is_stmt 1 view .LVU153
 539              	.LBB49:
 540              	.LBB50:
 541              		.loc 1 101 5 view .LVU154
 542              		.loc 1 100 13 is_stmt 0 view .LVU155
 543 01ee 2B6A     		ldr	r3, [r5, #32]
 544              	.LBE50:
 545              	.LBE49:
 546              		.loc 1 319 22 view .LVU156
 547 01f0 0136     		adds	r6, r6, #1
 548              	.LVL52:
 549              	.LBB53:
 550              	.LBI49:
 551              		.loc 1 98 6 is_stmt 1 view .LVU157
 552              	.LBB51:
 553              		.loc 1 100 3 view .LVU158
 554              		.loc 1 100 6 is_stmt 0 view .LVU159
 555 01f2 13B1     		cbz	r3, .L64
 556              		.loc 1 101 5 view .LVU160
 557 01f4 16F8010C 		ldrb	r0, [r6, #-1]	@ zero_extendqisi2
 558 01f8 9847     		blx	r3
 559              	.LVL53:
 560              	.L64:
 561              		.loc 1 101 5 view .LVU161
 562              	.LBE51:
 563              	.LBE53:
 564              		.loc 1 320 7 is_stmt 1 view .LVU162
 565              		.loc 1 318 16 view .LVU163
 566              		.loc 1 318 16 is_stmt 0 view .LVU164
 567 01fa AAEB0603 		sub	r3, r10, r6
 568 01fe 002B     		cmp	r3, #0
 569 0200 F5DA     		bge	.L65
ARM GAS  C:\Users\DEVELO~1\AppData\Local\Temp\ccua2lkc.s 			page 11


 570 0202 0BF1010B 		add	fp, fp, #1
 571              		.loc 1 320 8 view .LVU165
 572 0206 019B     		ldr	r3, [sp, #4]
 573 0208 5B44     		add	r3, r3, fp
 574 020a 9B46     		mov	fp, r3
 575              	.LVL54:
 576              	.L66:
 577              		.loc 1 323 12 is_stmt 1 view .LVU166
 578 020c 002F     		cmp	r7, #0
 579 020e 3FF40CAF 		beq	.L11
 580 0212 3E46     		mov	r6, r7
 581              	.LVL55:
 582              	.L69:
 583              		.loc 1 324 7 view .LVU167
 584              	.LBB54:
 585              	.LBI54:
 586              		.loc 1 98 6 view .LVU168
 587              	.LBB55:
 588              		.loc 1 100 3 view .LVU169
 589              		.loc 1 101 5 view .LVU170
 590              		.loc 1 100 13 is_stmt 0 view .LVU171
 591 0214 2B6A     		ldr	r3, [r5, #32]
 592              		.loc 1 101 5 view .LVU172
 593 0216 4046     		mov	r0, r8
 594              		.loc 1 100 6 view .LVU173
 595 0218 03B1     		cbz	r3, .L68
 596              		.loc 1 101 5 view .LVU174
 597 021a 9847     		blx	r3
 598              	.LVL56:
 599              	.L68:
 600              	.LBE55:
 601              	.LBE54:
 602              		.loc 1 325 7 is_stmt 1 view .LVU175
 603              		.loc 1 326 7 view .LVU176
 604              		.loc 1 323 12 view .LVU177
 605 021c 013E     		subs	r6, r6, #1
 606              	.LVL57:
 607              		.loc 1 323 12 is_stmt 0 view .LVU178
 608 021e F9D1     		bne	.L69
 609              		.loc 1 325 8 view .LVU179
 610 0220 BB44     		add	fp, fp, r7
 611 0222 02E7     		b	.L11
 612              	.LVL58:
 613              	.L161:
 614              		.loc 1 200 15 view .LVU180
 615 0224 0134     		adds	r4, r4, #1
 616              	.LVL59:
 617              		.loc 1 198 15 view .LVU181
 618 0226 0020     		movs	r0, #0
 619              	.LVL60:
 620              	.L20:
 621              		.loc 1 210 11 is_stmt 1 view .LVU182
 622              		.loc 1 209 27 view .LVU183
 623 0228 A1F13003 		sub	r3, r1, #48
 624              		.loc 1 211 33 is_stmt 0 view .LVU184
 625 022c 00EB8007 		add	r7, r0, r0, lsl #2
 626              		.loc 1 209 27 view .LVU185
ARM GAS  C:\Users\DEVELO~1\AppData\Local\Temp\ccua2lkc.s 			page 12


 627 0230 DBB2     		uxtb	r3, r3
 628              	.LVL61:
 629              		.loc 1 211 11 is_stmt 1 view .LVU186
 630              		.loc 1 209 27 is_stmt 0 view .LVU187
 631 0232 092B     		cmp	r3, #9
 632 0234 3FF61AAF 		bhi	.L18
 633              		.loc 1 212 13 view .LVU188
 634 0238 14F8011B 		ldrb	r1, [r4], #1	@ zero_extendqisi2
 635              	.LVL62:
 636              		.loc 1 211 21 view .LVU189
 637 023c 03EB4700 		add	r0, r3, r7, lsl #1
 638              	.LVL63:
 639              		.loc 1 212 11 is_stmt 1 view .LVU190
 640              		.loc 1 213 11 view .LVU191
 641              		.loc 1 213 14 is_stmt 0 view .LVU192
 642 0240 0029     		cmp	r1, #0
 643 0242 F1D1     		bne	.L20
 644              	.LBE78:
 645              		.loc 1 329 1 view .LVU193
 646 0244 5846     		mov	r0, fp
 647              	.LVL64:
 648              		.loc 1 329 1 view .LVU194
 649 0246 07B0     		add	sp, sp, #28
 650              		.cfi_remember_state
 651              		.cfi_def_cfa_offset 36
 652              		@ sp needed
 653 0248 BDE8F08F 		pop	{r4, r5, r6, r7, r8, r9, r10, fp, pc}
 654              	.LVL65:
 655              	.L170:
 656              		.loc 1 329 1 view .LVU195
 657              		.align	2
 658              	.L169:
 659 024c 00000000 		.word	chtest
 660              	.LVL66:
 661              	.L41:
 662              		.cfi_restore_state
 663              	.LBB79:
 664              	.LBB56:
 665              		.loc 1 261 9 is_stmt 1 view .LVU196
 666              		.loc 1 261 13 is_stmt 0 view .LVU197
 667 0250 59F8040B 		ldr	r0, [r9], #4
 668              	.LVL67:
 669              		.loc 1 263 7 is_stmt 1 view .LVU198
 670              		.loc 1 263 10 is_stmt 0 view .LVU199
 671 0254 0028     		cmp	r0, #0
 672 0256 C0F2AF80 		blt	.L163
 673              		.loc 1 268 9 is_stmt 1 view .LVU200
 674              		.loc 1 268 12 is_stmt 0 view .LVU201
 675 025a 002E     		cmp	r6, #0
 676 025c 00F0D880 		beq	.L85
 677              		.loc 1 269 11 is_stmt 1 view .LVU202
 678              	.LVL68:
 679              		.loc 1 269 16 is_stmt 0 view .LVU203
 680 0260 2B23     		movs	r3, #43
 681              		.loc 1 269 13 view .LVU204
 682 0262 0DF10D07 		add	r7, sp, #13
 683              	.LVL69:
ARM GAS  C:\Users\DEVELO~1\AppData\Local\Temp\ccua2lkc.s 			page 13


 684              		.loc 1 269 16 view .LVU205
 685 0266 8DF80C30 		strb	r3, [sp, #12]
 686 026a 03AB     		add	r3, sp, #12
 687              	.LVL70:
 688              	.L45:
 689              		.loc 1 271 7 is_stmt 1 view .LVU206
 690              	.LBB43:
 691              	.LBI43:
 692              		.loc 1 84 14 view .LVU207
 693              		.loc 1 86 3 view .LVU208
 694              	.LBB44:
 695              	.LBI44:
 696              		.loc 1 52 14 view .LVU209
 697              	.LBB45:
 698              		.loc 1 53 3 view .LVU210
 699              		.loc 1 54 3 view .LVU211
 700              		.loc 1 55 3 view .LVU212
 701              		.loc 1 57 3 view .LVU213
 702              		.loc 1 58 3 view .LVU214
 703              		.loc 1 64 3 view .LVU215
 704              		.loc 1 64 5 is_stmt 0 view .LVU216
 705 026c 07F10B01 		add	r1, r7, #11
 706              	.LVL71:
 707              		.loc 1 64 5 view .LVU217
 708 0270 0E46     		mov	r6, r1
 709              	.LVL72:
 710              		.loc 1 64 5 view .LVU218
 711 0272 0191     		str	r1, [sp, #4]
 712              	.LVL73:
 713              	.L46:
 714              		.loc 1 65 3 is_stmt 1 view .LVU219
 715              		.loc 1 66 5 view .LVU220
 716              		.loc 1 66 7 is_stmt 0 view .LVU221
 717 0274 6C49     		ldr	r1, .L171
 718 0276 A1FB00E1 		umull	lr, r1, r1, r0
 719 027a C908     		lsrs	r1, r1, #3
 720 027c 01EB810A 		add	r10, r1, r1, lsl #2
 721 0280 8E46     		mov	lr, r1
 722 0282 A0EB4A01 		sub	r1, r0, r10, lsl #1
 723              	.LVL74:
 724              		.loc 1 67 5 is_stmt 1 view .LVU222
 725              		.loc 1 68 5 view .LVU223
 726              		.loc 1 71 5 view .LVU224
 727              		.loc 1 74 15 is_stmt 0 view .LVU225
 728 0286 7046     		mov	r0, lr
 729              		.loc 1 67 7 view .LVU226
 730 0288 3031     		adds	r1, r1, #48
 731              	.LVL75:
 732              		.loc 1 71 12 view .LVU227
 733 028a C9B2     		uxtb	r1, r1
 734              	.LVL76:
 735              		.loc 1 71 10 view .LVU228
 736 028c 06F8011D 		strb	r1, [r6, #-1]!
 737              	.LVL77:
 738              		.loc 1 72 5 is_stmt 1 view .LVU229
 739              		.loc 1 73 5 view .LVU230
 740              		.loc 1 74 15 view .LVU231
ARM GAS  C:\Users\DEVELO~1\AppData\Local\Temp\ccua2lkc.s 			page 14


 741 0290 0028     		cmp	r0, #0
 742 0292 EFD1     		bne	.L46
 743              		.loc 1 76 3 view .LVU232
 744              	.LVL78:
 745              		.loc 1 76 5 is_stmt 0 view .LVU233
 746 0294 0198     		ldr	r0, [sp, #4]
 747              	.LVL79:
 748              		.loc 1 76 5 view .LVU234
 749 0296 801B     		subs	r0, r0, r6
 750 0298 3844     		add	r0, r0, r7
 751 029a 01E0     		b	.L48
 752              	.LVL80:
 753              	.L47:
 754              		.loc 1 78 12 view .LVU235
 755 029c 16F8011F 		ldrb	r1, [r6, #1]!	@ zero_extendqisi2
 756              	.L48:
 757              		.loc 1 77 3 is_stmt 1 view .LVU236
 758              		.loc 1 78 5 view .LVU237
 759              	.LVL81:
 760              		.loc 1 78 10 is_stmt 0 view .LVU238
 761 02a0 07F8011B 		strb	r1, [r7], #1
 762              	.LVL82:
 763              		.loc 1 79 12 is_stmt 1 view .LVU239
 764              		.loc 1 79 12 is_stmt 0 view .LVU240
 765 02a4 B842     		cmp	r0, r7
 766 02a6 F9D1     		bne	.L47
 767              	.LBE45:
 768              	.LBE44:
 769              	.LBE43:
 770              	.LBE56:
 771              		.loc 1 299 7 view .LVU241
 772 02a8 C01A     		subs	r0, r0, r3
 773              		.loc 1 151 7 view .LVU242
 774 02aa 9A46     		mov	r10, r3
 775              		.loc 1 311 10 view .LVU243
 776 02ac 431E     		subs	r3, r0, #1
 777              	.LVL83:
 778              		.loc 1 300 11 view .LVU244
 779 02ae 121A     		subs	r2, r2, r0
 780              		.loc 1 311 10 view .LVU245
 781 02b0 0193     		str	r3, [sp, #4]
 782              	.LVL84:
 783              		.loc 1 311 10 view .LVU246
 784 02b2 2BE0     		b	.L39
 785              	.L27:
 786              	.LVL85:
 787              	.L88:
 788              	.LBB57:
 789              		.loc 1 277 13 view .LVU247
 790 02b4 4FF0100E 		mov	lr, #16
 791              		.loc 1 288 9 is_stmt 1 view .LVU248
 792              	.LVL86:
 793              	.L49:
 794              		.loc 1 291 9 view .LVU249
 795              		.loc 1 291 13 is_stmt 0 view .LVU250
 796 02b8 59F8047B 		ldr	r7, [r9], #4
 797              	.LVL87:
ARM GAS  C:\Users\DEVELO~1\AppData\Local\Temp\ccua2lkc.s 			page 15


 798              		.loc 1 291 13 view .LVU251
 799              	.LBE57:
 800              		.loc 1 233 5 view .LVU252
 801 02bc 0DF11703 		add	r3, sp, #23
 802 02c0 00E0     		b	.L53
 803              	.LVL88:
 804              	.L86:
 805              	.LBB58:
 806              	.LBB46:
 807              	.LBB47:
 808              	.LBB48:
 809              		.loc 1 233 5 view .LVU253
 810 02c2 3346     		mov	r3, r6
 811              	.LVL89:
 812              	.L53:
 813              		.loc 1 65 3 is_stmt 1 view .LVU254
 814              		.loc 1 66 5 view .LVU255
 815              		.loc 1 69 7 view .LVU256
 816              		.loc 1 71 10 is_stmt 0 view .LVU257
 817 02c4 5E1E     		subs	r6, r3, #1
 818              		.loc 1 66 7 view .LVU258
 819 02c6 97FBFEF0 		sdiv	r0, r7, lr
 820 02ca 0EFB107A 		mls	r10, lr, r0, r7
 821              	.LVL90:
 822              		.loc 1 67 5 is_stmt 1 view .LVU259
 823              		.loc 1 72 7 is_stmt 0 view .LVU260
 824 02ce 0746     		mov	r7, r0
 825              	.LVL91:
 826              		.loc 1 67 7 view .LVU261
 827 02d0 0AF13001 		add	r1, r10, #48
 828              	.LVL92:
 829              		.loc 1 68 5 is_stmt 1 view .LVU262
 830              		.loc 1 68 8 is_stmt 0 view .LVU263
 831 02d4 3929     		cmp	r1, #57
 832              		.loc 1 69 9 view .LVU264
 833 02d6 C8BF     		it	gt
 834 02d8 0AF13701 		addgt	r1, r10, #55
 835              	.LVL93:
 836              		.loc 1 71 5 is_stmt 1 view .LVU265
 837              		.loc 1 71 12 is_stmt 0 view .LVU266
 838 02dc C9B2     		uxtb	r1, r1
 839              	.LVL94:
 840              		.loc 1 71 10 view .LVU267
 841 02de 03F8011C 		strb	r1, [r3, #-1]
 842              		.loc 1 72 5 is_stmt 1 view .LVU268
 843              	.LVL95:
 844              		.loc 1 73 5 view .LVU269
 845              		.loc 1 74 15 view .LVU270
 846 02e2 0028     		cmp	r0, #0
 847 02e4 EDD1     		bne	.L86
 848              	.LVL96:
 849              		.loc 1 76 3 view .LVU271
 850              		.loc 1 76 5 is_stmt 0 view .LVU272
 851 02e6 0DF11700 		add	r0, sp, #23
 852              	.LVL97:
 853              		.loc 1 76 5 view .LVU273
 854 02ea 0DF1170E 		add	lr, sp, #23
ARM GAS  C:\Users\DEVELO~1\AppData\Local\Temp\ccua2lkc.s 			page 16


 855 02ee 861B     		subs	r6, r0, r6
 856              	.LVL98:
 857              		.loc 1 76 5 view .LVU274
 858 02f0 1846     		mov	r0, r3
 859 02f2 03AB     		add	r3, sp, #12
 860              	.LVL99:
 861              		.loc 1 76 5 view .LVU275
 862 02f4 1F46     		mov	r7, r3
 863              	.LVL100:
 864              		.loc 1 76 5 view .LVU276
 865 02f6 01E0     		b	.L55
 866              	.LVL101:
 867              	.L54:
 868              		.loc 1 78 12 view .LVU277
 869 02f8 10F8011B 		ldrb	r1, [r0], #1	@ zero_extendqisi2
 870              	.LVL102:
 871              	.L55:
 872              		.loc 1 77 3 is_stmt 1 view .LVU278
 873              		.loc 1 78 5 view .LVU279
 874              		.loc 1 79 12 is_stmt 0 view .LVU280
 875 02fc 8645     		cmp	lr, r0
 876              		.loc 1 78 10 view .LVU281
 877 02fe 07F8011B 		strb	r1, [r7], #1
 878              	.LVL103:
 879              		.loc 1 79 12 is_stmt 1 view .LVU282
 880 0302 F9D1     		bne	.L54
 881              	.LBE48:
 882              	.LBE47:
 883              	.LBE46:
 884              	.LBE58:
 885              		.loc 1 311 10 is_stmt 0 view .LVU283
 886 0304 711E     		subs	r1, r6, #1
 887              		.loc 1 300 11 view .LVU284
 888 0306 921B     		subs	r2, r2, r6
 889              		.loc 1 151 7 view .LVU285
 890 0308 9A46     		mov	r10, r3
 891              	.LVL104:
 892              		.loc 1 311 10 view .LVU286
 893 030a 0191     		str	r1, [sp, #4]
 894              	.LVL105:
 895              	.L39:
 896              		.loc 1 299 5 is_stmt 1 view .LVU287
 897              		.loc 1 300 5 view .LVU288
 898              		.loc 1 301 5 view .LVU289
 899 030c 22EAE277 		bic	r7, r2, r2, asr #31
 900              	.LVL106:
 901              		.loc 1 304 5 view .LVU290
 902              		.loc 1 304 8 is_stmt 0 view .LVU291
 903 0310 BCF1000F 		cmp	ip, #0
 904 0314 7FF465AF 		bne	.L56
 905              		.loc 1 305 7 is_stmt 1 view .LVU292
 906              		.loc 1 307 8 is_stmt 0 view .LVU293
 907 0318 002A     		cmp	r2, #0
 908              		.loc 1 305 13 view .LVU294
 909 031a C7F10007 		rsb	r7, r7, #0
 910              	.LVL107:
 911              		.loc 1 307 5 is_stmt 1 view .LVU295
ARM GAS  C:\Users\DEVELO~1\AppData\Local\Temp\ccua2lkc.s 			page 17


 912              		.loc 1 307 8 is_stmt 0 view .LVU296
 913 031e 7FF760AF 		ble	.L56
 914              	.L162:
 915              		.loc 1 308 7 is_stmt 1 view .LVU297
 916              		.loc 1 308 13 is_stmt 0 view .LVU298
 917 0322 9AF80000 		ldrb	r0, [r10]	@ zero_extendqisi2
 918              		.loc 1 308 40 view .LVU299
 919 0326 2B28     		cmp	r0, #43
 920 0328 18BF     		it	ne
 921 032a 2D28     		cmpne	r0, #45
 922 032c 02D1     		bne	.L76
 923 032e B8F1300F 		cmp	r8, #48
 924 0332 58D0     		beq	.L164
 925              	.LVL108:
 926              	.L76:
 927              	.LBB59:
 928              	.LBB41:
 929              		.loc 1 100 13 view .LVU300
 930 0334 2A6A     		ldr	r2, [r5, #32]
 931 0336 3E46     		mov	r6, r7
 932 0338 00E0     		b	.L63
 933              	.LVL109:
 934              	.L165:
 935              		.loc 1 100 13 view .LVU301
 936              	.LBE41:
 937              	.LBE59:
 938              	.LBB60:
 939              	.LBB52:
 940 033a 2A6A     		ldr	r2, [r5, #32]
 941              	.L63:
 942              		.loc 1 100 13 view .LVU302
 943              	.LBE52:
 944              	.LBE60:
 945              		.loc 1 313 7 is_stmt 1 discriminator 1 view .LVU303
 946              		.loc 1 314 9 discriminator 1 view .LVU304
 947              	.LBB61:
 948              	.LBI61:
 949              		.loc 1 98 6 discriminator 1 view .LVU305
 950              	.LBB62:
 951              		.loc 1 100 3 discriminator 1 view .LVU306
 952              		.loc 1 101 5 discriminator 1 view .LVU307
 953 033c 4046     		mov	r0, r8
 954              		.loc 1 100 6 is_stmt 0 discriminator 1 view .LVU308
 955 033e 02B1     		cbz	r2, .L61
 956              		.loc 1 101 5 view .LVU309
 957 0340 9047     		blx	r2
 958              	.LVL110:
 959              	.L61:
 960              	.LBE62:
 961              	.LBE61:
 962              		.loc 1 315 9 is_stmt 1 view .LVU310
 963              		.loc 1 316 24 view .LVU311
 964              		.loc 1 316 24 is_stmt 0 view .LVU312
 965 0342 0137     		adds	r7, r7, #1
 966              	.LVL111:
 967              		.loc 1 316 24 view .LVU313
 968 0344 F9D1     		bne	.L165
ARM GAS  C:\Users\DEVELO~1\AppData\Local\Temp\ccua2lkc.s 			page 18


 969              		.loc 1 318 16 view .LVU314
 970 0346 019B     		ldr	r3, [sp, #4]
 971 0348 ABEB060B 		sub	fp, fp, r6
 972              	.LVL112:
 973              		.loc 1 318 16 is_stmt 1 view .LVU315
 974 034c 002B     		cmp	r3, #0
 975 034e BFF64BAF 		bge	.L67
 976 0352 6AE6     		b	.L11
 977              	.LVL113:
 978              	.L73:
 979              	.LBB64:
 980              		.loc 1 287 7 view .LVU316
 981              		.loc 1 285 13 is_stmt 0 view .LVU317
 982 0354 4FF0080E 		mov	lr, #8
 983 0358 AEE7     		b	.L49
 984              	.LVL114:
 985              	.L28:
 986              		.loc 1 242 7 is_stmt 1 view .LVU318
 987              		.loc 1 243 7 view .LVU319
 988              		.loc 1 243 14 is_stmt 0 view .LVU320
 989 035a 59F804AB 		ldr	r10, [r9], #4
 990              	.LVL115:
 991              		.loc 1 243 10 view .LVU321
 992 035e BAF1000F 		cmp	r10, #0
 993 0362 50D0     		beq	.L166
 994              		.loc 1 249 20 view .LVU322
 995 0364 9AF80010 		ldrb	r1, [r10]	@ zero_extendqisi2
 996              	.LVL116:
 997              		.loc 1 246 7 is_stmt 1 view .LVU323
 998              		.loc 1 246 10 is_stmt 0 view .LVU324
 999 0368 70BB     		cbnz	r0, .L167
 1000              	.LVL117:
 1001              		.loc 1 249 32 is_stmt 1 view .LVU325
 1002 036a 81B3     		cbz	r1, .L37
 1003              	.LVL118:
 1004              	.L91:
 1005              		.loc 1 249 32 is_stmt 0 view .LVU326
 1006 036c 47F6FE70 		movw	r0, #32766
 1007              	.L34:
 1008              		.loc 1 249 32 discriminator 4 view .LVU327
 1009 0370 5146     		mov	r1, r10
 1010 0372 01E0     		b	.L40
 1011              	.LVL119:
 1012              	.L38:
 1013              		.loc 1 249 32 discriminator 3 view .LVU328
 1014 0374 C642     		cmn	r6, r0
 1015 0376 05D4     		bmi	.L154
 1016              	.LVL120:
 1017              	.L40:
 1018              		.loc 1 251 7 is_stmt 1 discriminator 4 view .LVU329
 1019              		.loc 1 249 56 discriminator 4 view .LVU330
 1020              		.loc 1 249 32 discriminator 4 view .LVU331
 1021 0378 11F8013F 		ldrb	r3, [r1, #1]!	@ zero_extendqisi2
 1022              	.LVL121:
 1023              		.loc 1 249 32 is_stmt 0 discriminator 4 view .LVU332
 1024 037c AAEB0106 		sub	r6, r10, r1
 1025 0380 002B     		cmp	r3, #0
ARM GAS  C:\Users\DEVELO~1\AppData\Local\Temp\ccua2lkc.s 			page 19


 1026 0382 F7D1     		bne	.L38
 1027              	.L154:
 1028              	.LBE64:
 1029              		.loc 1 299 7 view .LVU333
 1030 0384 A1EB0A01 		sub	r1, r1, r10
 1031              	.LVL122:
 1032              	.LBB65:
 1033              		.loc 1 242 14 view .LVU334
 1034 0388 4FF02008 		mov	r8, #32
 1035              	.LBE65:
 1036              		.loc 1 311 10 view .LVU335
 1037 038c 4B1E     		subs	r3, r1, #1
 1038              		.loc 1 300 11 view .LVU336
 1039 038e 521A     		subs	r2, r2, r1
 1040              		.loc 1 311 10 view .LVU337
 1041 0390 0193     		str	r3, [sp, #4]
 1042 0392 BBE7     		b	.L39
 1043              	.LVL123:
 1044              	.L31:
 1045              	.LBB66:
 1046              		.loc 1 234 7 is_stmt 1 view .LVU338
 1047              		.loc 1 235 7 view .LVU339
 1048              		.loc 1 238 7 view .LVU340
 1049              		.loc 1 239 7 view .LVU341
 1050              		.loc 1 239 7 is_stmt 0 view .LVU342
 1051 0394 013A     		subs	r2, r2, #1
 1052              		.loc 1 239 12 view .LVU343
 1053 0396 59F8043B 		ldr	r3, [r9], #4
 1054              	.LVL124:
 1055              		.loc 1 238 14 view .LVU344
 1056 039a 4FF02008 		mov	r8, #32
 1057 039e 22EAE277 		bic	r7, r2, r2, asr #31
 1058              		.loc 1 239 12 view .LVU345
 1059 03a2 8DF80C30 		strb	r3, [sp, #12]
 1060              		.loc 1 240 7 is_stmt 1 view .LVU346
 1061              	.LVL125:
 1062              		.loc 1 240 7 is_stmt 0 view .LVU347
 1063              	.LBE66:
 1064              		.loc 1 299 5 is_stmt 1 view .LVU348
 1065              		.loc 1 300 5 view .LVU349
 1066              		.loc 1 301 5 view .LVU350
 1067              		.loc 1 304 5 view .LVU351
 1068              		.loc 1 304 8 is_stmt 0 view .LVU352
 1069 03a6 BCF1000F 		cmp	ip, #0
 1070 03aa 3FF411AF 		beq	.L168
 1071              	.L93:
 1072              		.loc 1 304 8 view .LVU353
 1073 03ae 0023     		movs	r3, #0
 1074 03b0 0DF10C0A 		add	r10, sp, #12
 1075              	.LVL126:
 1076              		.loc 1 304 8 view .LVU354
 1077 03b4 0193     		str	r3, [sp, #4]
 1078 03b6 17E7     		b	.L67
 1079              	.LVL127:
 1080              	.L163:
 1081              	.LBB67:
 1082              		.loc 1 264 9 is_stmt 1 view .LVU355
ARM GAS  C:\Users\DEVELO~1\AppData\Local\Temp\ccua2lkc.s 			page 20


 1083              		.loc 1 264 14 is_stmt 0 view .LVU356
 1084 03b8 2D23     		movs	r3, #45
 1085              		.loc 1 265 13 view .LVU357
 1086 03ba 4042     		rsbs	r0, r0, #0
 1087              	.LVL128:
 1088              		.loc 1 264 11 view .LVU358
 1089 03bc 0DF10D07 		add	r7, sp, #13
 1090              	.LVL129:
 1091              		.loc 1 264 14 view .LVU359
 1092 03c0 8DF80C30 		strb	r3, [sp, #12]
 1093              		.loc 1 265 9 is_stmt 1 view .LVU360
 1094              	.LVL130:
 1095              		.loc 1 265 9 is_stmt 0 view .LVU361
 1096 03c4 03AB     		add	r3, sp, #12
 1097              	.LVL131:
 1098              		.loc 1 265 9 view .LVU362
 1099 03c6 51E7     		b	.L45
 1100              	.LVL132:
 1101              	.L167:
 1102              		.loc 1 249 32 is_stmt 1 discriminator 1 view .LVU363
 1103 03c8 09B1     		cbz	r1, .L37
 1104              	.LVL133:
 1105              	.L35:
 1106              		.loc 1 249 32 is_stmt 0 view .LVU364
 1107 03ca 0138     		subs	r0, r0, #1
 1108              	.LVL134:
 1109              		.loc 1 249 32 view .LVU365
 1110 03cc D0D5     		bpl	.L34
 1111              	.LVL135:
 1112              	.L37:
 1113              		.loc 1 249 32 view .LVU366
 1114              	.LBE67:
 1115              		.loc 1 299 5 is_stmt 1 view .LVU367
 1116              		.loc 1 300 5 view .LVU368
 1117              		.loc 1 301 5 view .LVU369
 1118 03ce 22EAE277 		bic	r7, r2, r2, asr #31
 1119              	.LVL136:
 1120              		.loc 1 304 5 view .LVU370
 1121              		.loc 1 304 8 is_stmt 0 view .LVU371
 1122 03d2 BCF1000F 		cmp	ip, #0
 1123 03d6 03D1     		bne	.L92
 1124              		.loc 1 305 7 is_stmt 1 view .LVU372
 1125              		.loc 1 307 8 is_stmt 0 view .LVU373
 1126 03d8 002A     		cmp	r2, #0
 1127              		.loc 1 305 13 view .LVU374
 1128 03da C7F10007 		rsb	r7, r7, #0
 1129              	.LVL137:
 1130              		.loc 1 307 5 is_stmt 1 view .LVU375
 1131              		.loc 1 307 8 is_stmt 0 view .LVU376
 1132 03de 1CDC     		bgt	.L94
 1133              	.L92:
 1134              		.loc 1 304 8 view .LVU377
 1135 03e0 4FF02008 		mov	r8, #32
 1136 03e4 12E7     		b	.L66
 1137              	.LVL138:
 1138              	.L164:
 1139              		.loc 1 309 9 is_stmt 1 view .LVU378
ARM GAS  C:\Users\DEVELO~1\AppData\Local\Temp\ccua2lkc.s 			page 21


 1140              	.LBB68:
 1141              	.LBB69:
 1142              		.loc 1 100 13 is_stmt 0 view .LVU379
 1143 03e6 2A6A     		ldr	r2, [r5, #32]
 1144              	.LBE69:
 1145              	.LBE68:
 1146              		.loc 1 309 24 view .LVU380
 1147 03e8 0AF1010A 		add	r10, r10, #1
 1148              	.LVL139:
 1149              	.LBB71:
 1150              	.LBI68:
 1151              		.loc 1 98 6 is_stmt 1 view .LVU381
 1152              	.LBB70:
 1153              		.loc 1 100 3 view .LVU382
 1154              		.loc 1 100 6 is_stmt 0 view .LVU383
 1155 03ec 0AB1     		cbz	r2, .L60
 1156              		.loc 1 101 5 is_stmt 1 view .LVU384
 1157 03ee 9047     		blx	r2
 1158              	.LVL140:
 1159              		.loc 1 101 5 is_stmt 0 view .LVU385
 1160              	.LBE70:
 1161              	.LBE71:
 1162              	.LBB72:
 1163              	.LBB63:
 1164              		.loc 1 100 13 view .LVU386
 1165 03f0 2A6A     		ldr	r2, [r5, #32]
 1166              	.L60:
 1167              		.loc 1 100 13 view .LVU387
 1168              	.LBE63:
 1169              	.LBE72:
 1170              		.loc 1 310 9 is_stmt 1 view .LVU388
 1171              		.loc 1 318 16 is_stmt 0 view .LVU389
 1172 03f2 019B     		ldr	r3, [sp, #4]
 1173              		.loc 1 310 10 view .LVU390
 1174 03f4 0BF1010B 		add	fp, fp, #1
 1175              	.LVL141:
 1176              		.loc 1 311 9 is_stmt 1 view .LVU391
 1177              		.loc 1 305 13 is_stmt 0 view .LVU392
 1178 03f8 3E46     		mov	r6, r7
 1179              		.loc 1 318 16 view .LVU393
 1180 03fa 013B     		subs	r3, r3, #1
 1181 03fc 0193     		str	r3, [sp, #4]
 1182 03fe 9DE7     		b	.L63
 1183              	.LVL142:
 1184              	.L72:
 1185              		.loc 1 233 5 view .LVU394
 1186 0400 4FF00A0E 		mov	lr, #10
 1187 0404 58E7     		b	.L49
 1188              	.LVL143:
 1189              	.L166:
 1190              	.LBB73:
 1191              		.loc 1 246 7 is_stmt 1 view .LVU395
 1192              		.loc 1 244 11 is_stmt 0 view .LVU396
 1193 0406 DFF824A0 		ldr	r10, .L171+4
 1194              		.loc 1 246 10 view .LVU397
 1195 040a 0028     		cmp	r0, #0
 1196 040c AED0     		beq	.L91
ARM GAS  C:\Users\DEVELO~1\AppData\Local\Temp\ccua2lkc.s 			page 22


 1197 040e DCE7     		b	.L35
 1198              	.LVL144:
 1199              	.L85:
 1200              		.loc 1 246 10 view .LVU398
 1201              	.LBE73:
 1202              		.loc 1 150 7 view .LVU399
 1203 0410 03AB     		add	r3, sp, #12
 1204              	.LVL145:
 1205              		.loc 1 150 7 view .LVU400
 1206 0412 1F46     		mov	r7, r3
 1207 0414 2AE7     		b	.L45
 1208              	.LVL146:
 1209              	.L77:
 1210              		.loc 1 150 7 view .LVU401
 1211              	.LBE79:
 1212              		.loc 1 132 5 view .LVU402
 1213 0416 8346     		mov	fp, r0
 1214 0418 7CE6     		b	.L6
 1215              	.LVL147:
 1216              	.L94:
 1217              	.LBB80:
 1218              		.loc 1 307 8 view .LVU403
 1219 041a 4FF0FF33 		mov	r3, #-1
 1220 041e 4FF02008 		mov	r8, #32
 1221 0422 0193     		str	r3, [sp, #4]
 1222 0424 86E7     		b	.L76
 1223              	.L172:
 1224 0426 00BF     		.align	2
 1225              	.L171:
 1226 0428 CDCCCCCC 		.word	-858993459
 1227 042c 00000000 		.word	.LC0
 1228              	.LBE80:
 1229              		.cfi_endproc
 1230              	.LFE439:
 1231              		.size	test_vprintf, .-test_vprintf
 1232              		.section	.text.test_printf,"ax",%progbits
 1233              		.align	1
 1234              		.p2align 4,,15
 1235              		.global	test_printf
 1236              		.syntax unified
 1237              		.thumb
 1238              		.thumb_func
 1239              		.type	test_printf, %function
 1240              	test_printf:
 1241              	.LVL148:
 1242              	.LFB440:
 1243              		.loc 1 353 39 is_stmt 1 view -0
 1244              		.cfi_startproc
 1245              		@ args = 4, pretend = 16, frame = 8
 1246              		@ frame_needed = 0, uses_anonymous_args = 1
 1247              		.loc 1 354 3 view .LVU405
 1248              		.loc 1 355 3 view .LVU406
 1249              		.loc 1 357 3 view .LVU407
 1250              		.loc 1 353 39 is_stmt 0 view .LVU408
 1251 0000 0FB4     		push	{r0, r1, r2, r3}
 1252              		.cfi_def_cfa_offset 16
 1253              		.cfi_offset 0, -16
ARM GAS  C:\Users\DEVELO~1\AppData\Local\Temp\ccua2lkc.s 			page 23


 1254              		.cfi_offset 1, -12
 1255              		.cfi_offset 2, -8
 1256              		.cfi_offset 3, -4
 1257 0002 00B5     		push	{lr}
 1258              		.cfi_def_cfa_offset 20
 1259              		.cfi_offset 14, -20
 1260 0004 83B0     		sub	sp, sp, #12
 1261              		.cfi_def_cfa_offset 32
 1262              		.loc 1 353 39 view .LVU409
 1263 0006 04A9     		add	r1, sp, #16
 1264 0008 51F8040B 		ldr	r0, [r1], #4
 1265              		.loc 1 357 3 view .LVU410
 1266 000c 0191     		str	r1, [sp, #4]
 1267              		.loc 1 358 3 is_stmt 1 view .LVU411
 1268              		.loc 1 358 21 is_stmt 0 view .LVU412
 1269 000e FFF7FEFF 		bl	test_vprintf
 1270              	.LVL149:
 1271              		.loc 1 359 3 is_stmt 1 view .LVU413
 1272              		.loc 1 361 3 view .LVU414
 1273              		.loc 1 362 1 is_stmt 0 view .LVU415
 1274 0012 03B0     		add	sp, sp, #12
 1275              		.cfi_def_cfa_offset 20
 1276              		@ sp needed
 1277 0014 5DF804EB 		ldr	lr, [sp], #4
 1278              		.cfi_restore 14
 1279              		.cfi_def_cfa_offset 16
 1280 0018 04B0     		add	sp, sp, #16
 1281              		.cfi_restore 3
 1282              		.cfi_restore 2
 1283              		.cfi_restore 1
 1284              		.cfi_restore 0
 1285              		.cfi_def_cfa_offset 0
 1286 001a 7047     		bx	lr
 1287              		.cfi_endproc
 1288              	.LFE440:
 1289              		.size	test_printf, .-test_printf
 1290              		.text
 1291              	.Letext0:
 1292              		.file 2 "c:\\chibistudio\\tools\\gnu tools arm embedded\\11.3 2022.08\\lib\\gcc\\arm-none-eabi\\11
 1293              		.file 3 "c:\\chibistudio\\tools\\gnu tools arm embedded\\11.3 2022.08\\lib\\gcc\\arm-none-eabi\\11
 1294              		.file 4 "c:\\chibistudio\\tools\\gnu tools arm embedded\\11.3 2022.08\\arm-none-eabi\\include\\mac
 1295              		.file 5 "c:\\chibistudio\\tools\\gnu tools arm embedded\\11.3 2022.08\\arm-none-eabi\\include\\sys
 1296              		.file 6 "../../../os/rt/include/chearly.h"
 1297              		.file 7 "../../../os/hal/include/hal_streams.h"
 1298              		.file 8 "../../../os/test/include/ch_test.h"
 1299              		.file 9 "<built-in>"