ARM GAS  C:\Users\DEVELO~1\AppData\Local\Temp\ccFUw92r.s 			page 1


   1              		.cpu cortex-m7
   2              		.arch armv7e-m
   3              		.fpu softvfp
   4              		.eabi_attribute 20, 1
   5              		.eabi_attribute 21, 1
   6              		.eabi_attribute 23, 3
   7              		.eabi_attribute 24, 1
   8              		.eabi_attribute 25, 1
   9              		.eabi_attribute 26, 1
  10              		.eabi_attribute 30, 2
  11              		.eabi_attribute 34, 1
  12              		.eabi_attribute 18, 4
  13              		.file	"chmboxes.c"
  14              		.text
  15              	.Ltext0:
  16              		.cfi_sections	.debug_frame
  17              		.section	.text.chMBObjectInit,"ax",%progbits
  18              		.align	1
  19              		.p2align 4,,15
  20              		.global	chMBObjectInit
  21              		.syntax unified
  22              		.thumb
  23              		.thumb_func
  24              		.type	chMBObjectInit, %function
  25              	chMBObjectInit:
  26              	.LVL0:
  27              	.LFB346:
  28              		.file 1 "../../../os/oslib/src/chmboxes.c"
  29              		.loc 1 87 59 view -0
  30              		.cfi_startproc
  31              		@ args = 0, pretend = 0, frame = 0
  32              		@ frame_needed = 0, uses_anonymous_args = 0
  33              		@ link register save eliminated.
  34              		.loc 1 89 3 view .LVU1
  35              		.loc 1 89 3 view .LVU2
  36              		.loc 1 89 3 view .LVU3
  37              		.loc 1 91 3 view .LVU4
  38              		.loc 1 87 59 is_stmt 0 view .LVU5
  39 0000 30B4     		push	{r4, r5}
  40              		.cfi_def_cfa_offset 8
  41              		.cfi_offset 4, -8
  42              		.cfi_offset 5, -4
  43              		.loc 1 94 17 view .LVU6
  44 0002 01EB8202 		add	r2, r1, r2, lsl #2
  45              	.LVL1:
  46              		.loc 1 95 15 view .LVU7
  47 0006 0025     		movs	r5, #0
  48              	.LBB96:
  49              	.LBB97:
  50              		.file 2 "../../../os/rt/include/chthreads.h"
  51              		.loc 2 463 3 view .LVU8
  52 0008 00F11804 		add	r4, r0, #24
  53              	.LBE97:
  54              	.LBE96:
  55              	.LBB104:
  56              	.LBB105:
  57 000c 00F12003 		add	r3, r0, #32
ARM GAS  C:\Users\DEVELO~1\AppData\Local\Temp\ccFUw92r.s 			page 2


  58              	.LBE105:
  59              	.LBE104:
  60              		.loc 1 95 15 view .LVU9
  61 0010 0561     		str	r5, [r0, #16]
  62              		.loc 1 96 15 view .LVU10
  63 0012 0575     		strb	r5, [r0, #20]
  64              		.loc 1 91 15 view .LVU11
  65 0014 0160     		str	r1, [r0]
  66              		.loc 1 92 3 is_stmt 1 view .LVU12
  67              		.loc 1 94 15 is_stmt 0 view .LVU13
  68 0016 4260     		str	r2, [r0, #4]
  69              	.LBB112:
  70              	.LBB102:
  71              	.LBB98:
  72              	.LBB99:
  73              		.file 3 "../../../os/rt/include/chlists.h"
  74              		.loc 3 225 12 view .LVU14
  75 0018 C0E90644 		strd	r4, r4, [r0, #24]
  76              	.LBE99:
  77              	.LBE98:
  78              	.LBE102:
  79              	.LBE112:
  80              		.loc 1 93 15 view .LVU15
  81 001c C0E90211 		strd	r1, r1, [r0, #8]
  82              		.loc 1 94 3 is_stmt 1 view .LVU16
  83              		.loc 1 95 3 view .LVU17
  84              		.loc 1 96 3 view .LVU18
  85              		.loc 1 97 3 view .LVU19
  86              	.LVL2:
  87              	.LBB113:
  88              	.LBI96:
  89              		.loc 2 461 20 view .LVU20
  90              	.LBB103:
  91              		.loc 2 463 3 view .LVU21
  92              	.LBB101:
  93              	.LBI98:
  94              		.loc 3 222 20 view .LVU22
  95              	.LBB100:
  96              		.loc 3 224 3 view .LVU23
  97              		.loc 3 224 3 is_stmt 0 view .LVU24
  98              	.LBE100:
  99              	.LBE101:
 100              	.LBE103:
 101              	.LBE113:
 102              		.loc 1 98 3 is_stmt 1 view .LVU25
 103              	.LBB114:
 104              	.LBI104:
 105              		.loc 2 461 20 view .LVU26
 106              	.LBB110:
 107              		.loc 2 463 3 view .LVU27
 108              	.LBB106:
 109              	.LBI106:
 110              		.loc 3 222 20 view .LVU28
 111              	.LBB107:
 112              		.loc 3 224 3 view .LVU29
 113              	.LBE107:
 114              	.LBE106:
ARM GAS  C:\Users\DEVELO~1\AppData\Local\Temp\ccFUw92r.s 			page 3


 115              	.LBE110:
 116              	.LBE114:
 117              		.loc 1 99 1 is_stmt 0 view .LVU30
 118 0020 30BC     		pop	{r4, r5}
 119              		.cfi_restore 5
 120              		.cfi_restore 4
 121              		.cfi_def_cfa_offset 0
 122              	.LBB115:
 123              	.LBB111:
 124              	.LBB109:
 125              	.LBB108:
 126              		.loc 3 225 12 view .LVU31
 127 0022 C0E90833 		strd	r3, r3, [r0, #32]
 128              	.LVL3:
 129              		.loc 3 225 12 view .LVU32
 130              	.LBE108:
 131              	.LBE109:
 132              	.LBE111:
 133              	.LBE115:
 134              		.loc 1 99 1 view .LVU33
 135 0026 7047     		bx	lr
 136              		.cfi_endproc
 137              	.LFE346:
 138              		.size	chMBObjectInit, .-chMBObjectInit
 139              		.section	.text.chMBReset,"ax",%progbits
 140              		.align	1
 141              		.p2align 4,,15
 142              		.global	chMBReset
 143              		.syntax unified
 144              		.thumb
 145              		.thumb_func
 146              		.type	chMBReset, %function
 147              	chMBReset:
 148              	.LVL4:
 149              	.LFB347:
 150              		.loc 1 113 32 is_stmt 1 view -0
 151              		.cfi_startproc
 152              		@ args = 0, pretend = 0, frame = 0
 153              		@ frame_needed = 0, uses_anonymous_args = 0
 154              		.loc 1 115 3 view .LVU35
 155              	.LBB127:
 156              	.LBI127:
 157              		.file 4 "../../../os/rt/include/chsys.h"
 158              		.loc 4 407 20 view .LVU36
 159              		.loc 4 409 3 view .LVU37
 160              	.LBB128:
 161              	.LBI128:
 162              		.file 5 "../../../os/common/ports/ARMv7-M/chcore.h"
 163              		.loc 5 823 27 view .LVU38
 164              		.loc 5 831 3 view .LVU39
 165              	.LBB129:
 166              	.LBI129:
 167              		.file 6 "../../../os/common/ext/ARM/CMSIS/Core/Include/cmsis_gcc.h"
 168              		.loc 6 491 27 view .LVU40
 169              	.LBB130:
 170              		.loc 6 493 3 view .LVU41
 171              	.LBE130:
ARM GAS  C:\Users\DEVELO~1\AppData\Local\Temp\ccFUw92r.s 			page 4


 172              	.LBE129:
 173              	.LBE128:
 174              	.LBE127:
 175              		.loc 1 113 32 is_stmt 0 view .LVU42
 176 0000 38B5     		push	{r3, r4, r5, lr}
 177              		.cfi_def_cfa_offset 16
 178              		.cfi_offset 3, -16
 179              		.cfi_offset 4, -12
 180              		.cfi_offset 5, -8
 181              		.cfi_offset 14, -4
 182              	.LBB137:
 183              	.LBB135:
 184              	.LBB133:
 185              	.LBB131:
 186              		.loc 6 493 3 view .LVU43
 187 0002 3023     		movs	r3, #48
 188              	.LBE131:
 189              	.LBE133:
 190              	.LBE135:
 191              	.LBE137:
 192              		.loc 1 113 32 view .LVU44
 193 0004 0446     		mov	r4, r0
 194              	.LBB138:
 195              	.LBB136:
 196              	.LBB134:
 197              	.LBB132:
 198              		.loc 6 493 3 view .LVU45
 199              		.syntax unified
 200              	@ 493 "../../../os/common/ext/ARM/CMSIS/Core/Include/cmsis_gcc.h" 1
 201 0006 83F31188 		MSR basepri, r3
 202              	@ 0 "" 2
 203              	.LVL5:
 204              		.loc 6 493 3 view .LVU46
 205              		.thumb
 206              		.syntax unified
 207              	.LBE132:
 208              	.LBE134:
 209              	.LBE136:
 210              		.loc 4 410 35 is_stmt 1 view .LVU47
 211              		.loc 4 411 21 view .LVU48
 212              	.LBE138:
 213              		.loc 1 116 3 view .LVU49
 214              	.LBB139:
 215              	.LBI139:
 216              		.loc 1 133 6 view .LVU50
 217              	.LBB140:
 218              		.loc 1 135 21 view .LVU51
 219              		.loc 1 136 3 view .LVU52
 220              		.loc 1 136 3 view .LVU53
 221              		.loc 1 136 3 view .LVU54
 222              		.loc 1 138 3 view .LVU55
 223              		.loc 1 141 14 is_stmt 0 view .LVU56
 224 000a 0122     		movs	r2, #1
 225              		.loc 1 138 19 view .LVU57
 226 000c 0368     		ldr	r3, [r0]
 227              		.loc 1 140 14 view .LVU58
 228 000e 0025     		movs	r5, #0
ARM GAS  C:\Users\DEVELO~1\AppData\Local\Temp\ccFUw92r.s 			page 5


 229              		.loc 1 142 3 view .LVU59
 230 0010 1830     		adds	r0, r0, #24
 231              	.LVL6:
 232              		.loc 1 141 14 view .LVU60
 233 0012 2275     		strb	r2, [r4, #20]
 234              		.loc 1 142 3 view .LVU61
 235 0014 6FF00101 		mvn	r1, #1
 236              		.loc 1 140 14 view .LVU62
 237 0018 2561     		str	r5, [r4, #16]
 238              		.loc 1 139 14 view .LVU63
 239 001a C4E90233 		strd	r3, r3, [r4, #8]
 240              		.loc 1 140 3 is_stmt 1 view .LVU64
 241              		.loc 1 141 3 view .LVU65
 242              		.loc 1 142 3 view .LVU66
 243 001e FFF7FEFF 		bl	chThdDequeueAllI
 244              	.LVL7:
 245              		.loc 1 143 3 view .LVU67
 246 0022 6FF00101 		mvn	r1, #1
 247 0026 04F12000 		add	r0, r4, #32
 248 002a FFF7FEFF 		bl	chThdDequeueAllI
 249              	.LVL8:
 250              		.loc 1 143 3 is_stmt 0 view .LVU68
 251              	.LBE140:
 252              	.LBE139:
 253              		.loc 1 117 3 is_stmt 1 view .LVU69
 254 002e FFF7FEFF 		bl	chSchRescheduleS
 255              	.LVL9:
 256              		.loc 1 118 3 view .LVU70
 257              	.LBB141:
 258              	.LBI141:
 259              		.loc 4 421 20 view .LVU71
 260              	.LBB142:
 261              		.loc 4 423 23 view .LVU72
 262              		.loc 4 424 34 view .LVU73
 263              		.loc 4 430 3 view .LVU74
 264              		.loc 4 430 3 view .LVU75
 265              		.loc 4 430 3 view .LVU76
 266              		.loc 4 434 3 view .LVU77
 267              	.LBB143:
 268              	.LBI143:
 269              		.loc 5 847 27 view .LVU78
 270              		.loc 5 850 3 view .LVU79
 271              	.LBB144:
 272              	.LBI144:
 273              		.loc 6 491 27 view .LVU80
 274              	.LBB145:
 275              		.loc 6 493 3 view .LVU81
 276              		.syntax unified
 277              	@ 493 "../../../os/common/ext/ARM/CMSIS/Core/Include/cmsis_gcc.h" 1
 278 0032 85F31188 		MSR basepri, r5
 279              	@ 0 "" 2
 280              	.LVL10:
 281              		.loc 6 493 3 is_stmt 0 view .LVU82
 282              		.thumb
 283              		.syntax unified
 284              	.LBE145:
 285              	.LBE144:
ARM GAS  C:\Users\DEVELO~1\AppData\Local\Temp\ccFUw92r.s 			page 6


 286              	.LBE143:
 287              	.LBE142:
 288              	.LBE141:
 289              		.loc 1 119 1 view .LVU83
 290 0036 38BD     		pop	{r3, r4, r5, pc}
 291              		.loc 1 119 1 view .LVU84
 292              		.cfi_endproc
 293              	.LFE347:
 294              		.size	chMBReset, .-chMBReset
 295              		.section	.text.chMBResetI,"ax",%progbits
 296              		.align	1
 297              		.p2align 4,,15
 298              		.global	chMBResetI
 299              		.syntax unified
 300              		.thumb
 301              		.thumb_func
 302              		.type	chMBResetI, %function
 303              	chMBResetI:
 304              	.LVL11:
 305              	.LFB348:
 306              		.loc 1 133 33 is_stmt 1 view -0
 307              		.cfi_startproc
 308              		@ args = 0, pretend = 0, frame = 0
 309              		@ frame_needed = 0, uses_anonymous_args = 0
 310              		.loc 1 135 21 view .LVU86
 311              		.loc 1 136 3 view .LVU87
 312              		.loc 1 136 3 view .LVU88
 313              		.loc 1 136 3 view .LVU89
 314              		.loc 1 138 3 view .LVU90
 315              		.loc 1 133 33 is_stmt 0 view .LVU91
 316 0000 38B5     		push	{r3, r4, r5, lr}
 317              		.cfi_def_cfa_offset 16
 318              		.cfi_offset 3, -16
 319              		.cfi_offset 4, -12
 320              		.cfi_offset 5, -8
 321              		.cfi_offset 14, -4
 322              		.loc 1 141 14 view .LVU92
 323 0002 0122     		movs	r2, #1
 324              		.loc 1 138 19 view .LVU93
 325 0004 0368     		ldr	r3, [r0]
 326              		.loc 1 133 33 view .LVU94
 327 0006 0446     		mov	r4, r0
 328              		.loc 1 140 14 view .LVU95
 329 0008 0025     		movs	r5, #0
 330              		.loc 1 142 3 view .LVU96
 331 000a 6FF00101 		mvn	r1, #1
 332 000e 1830     		adds	r0, r0, #24
 333              	.LVL12:
 334              		.loc 1 140 14 view .LVU97
 335 0010 40F8085C 		str	r5, [r0, #-8]
 336              		.loc 1 141 14 view .LVU98
 337 0014 2275     		strb	r2, [r4, #20]
 338              		.loc 1 139 14 view .LVU99
 339 0016 C4E90233 		strd	r3, r3, [r4, #8]
 340              		.loc 1 140 3 is_stmt 1 view .LVU100
 341              		.loc 1 141 3 view .LVU101
 342              		.loc 1 142 3 view .LVU102
ARM GAS  C:\Users\DEVELO~1\AppData\Local\Temp\ccFUw92r.s 			page 7


 343 001a FFF7FEFF 		bl	chThdDequeueAllI
 344              	.LVL13:
 345              		.loc 1 143 3 view .LVU103
 346 001e 04F12000 		add	r0, r4, #32
 347 0022 6FF00101 		mvn	r1, #1
 348              		.loc 1 144 1 is_stmt 0 view .LVU104
 349 0026 BDE83840 		pop	{r3, r4, r5, lr}
 350              		.cfi_restore 14
 351              		.cfi_restore 5
 352              		.cfi_restore 4
 353              		.cfi_restore 3
 354              		.cfi_def_cfa_offset 0
 355              	.LVL14:
 356              		.loc 1 143 3 view .LVU105
 357 002a FFF7FEBF 		b	chThdDequeueAllI
 358              	.LVL15:
 359              		.loc 1 143 3 view .LVU106
 360              		.cfi_endproc
 361              	.LFE348:
 362              		.size	chMBResetI, .-chMBResetI
 363 002e 00BF     		.section	.text.chMBPostTimeoutS,"ax",%progbits
 364              		.align	1
 365              		.p2align 4,,15
 366              		.global	chMBPostTimeoutS
 367              		.syntax unified
 368              		.thumb
 369              		.thumb_func
 370              		.type	chMBPostTimeoutS, %function
 371              	chMBPostTimeoutS:
 372              	.LVL16:
 373              	.LFB350:
 374              		.loc 1 194 74 is_stmt 1 view -0
 375              		.cfi_startproc
 376              		@ args = 0, pretend = 0, frame = 0
 377              		@ frame_needed = 0, uses_anonymous_args = 0
 378              		.loc 1 195 3 view .LVU108
 379              		.loc 1 197 21 view .LVU109
 380              		.loc 1 198 3 view .LVU110
 381              		.loc 1 198 3 view .LVU111
 382              		.loc 1 194 74 is_stmt 0 view .LVU112
 383 0000 2DE9F843 		push	{r3, r4, r5, r6, r7, r8, r9, lr}
 384              		.cfi_def_cfa_offset 32
 385              		.cfi_offset 3, -32
 386              		.cfi_offset 4, -28
 387              		.cfi_offset 5, -24
 388              		.cfi_offset 6, -20
 389              		.cfi_offset 7, -16
 390              		.cfi_offset 8, -12
 391              		.cfi_offset 9, -8
 392              		.cfi_offset 14, -4
 393              		.loc 1 194 74 view .LVU113
 394 0004 0446     		mov	r4, r0
 395 0006 0F46     		mov	r7, r1
 396 0008 9046     		mov	r8, r2
 397              		.loc 1 222 14 view .LVU114
 398 000a 00F11809 		add	r9, r0, #24
 399 000e 09E0     		b	.L12
ARM GAS  C:\Users\DEVELO~1\AppData\Local\Temp\ccFUw92r.s 			page 8


 400              	.LVL17:
 401              	.L18:
 402              	.LBB146:
 403              	.LBB147:
 404              	.LBB148:
 405              		.file 7 "../../../os/oslib/include/chmboxes.h"
 406              		.loc 7 140 33 view .LVU115
 407 0010 D4E90056 		ldrd	r5, r6, [r4]
 408              	.LVL18:
 409              		.loc 7 140 33 view .LVU116
 410              	.LBE148:
 411              	.LBE147:
 412              	.LBB151:
 413              	.LBI151:
 414              		.loc 7 152 22 is_stmt 1 view .LVU117
 415              	.LBB152:
 416              		.loc 7 154 21 view .LVU118
 417              		.loc 7 156 3 view .LVU119
 418              		.loc 7 156 13 is_stmt 0 view .LVU120
 419 0014 2369     		ldr	r3, [r4, #16]
 420              	.LVL19:
 421              		.loc 7 156 13 view .LVU121
 422              	.LBE152:
 423              	.LBE151:
 424              	.LBB153:
 425              	.LBB149:
 426              		.loc 7 140 28 view .LVU122
 427 0016 721B     		subs	r2, r6, r5
 428              	.LBE149:
 429              	.LBE153:
 430              	.LBE146:
 431              		.loc 1 207 8 view .LVU123
 432 0018 B3EBA20F 		cmp	r3, r2, asr #2
 433 001c 0BD1     		bne	.L17
 434              		.loc 1 222 14 view .LVU124
 435 001e FFF7FEFF 		bl	chThdEnqueueTimeoutS
 436              	.LVL20:
 437              		.loc 1 223 19 is_stmt 1 view .LVU125
 438 0022 30B9     		cbnz	r0, .L8
 439              	.LVL21:
 440              	.L12:
 441              		.loc 1 198 3 discriminator 5 view .LVU126
 442              		.loc 1 200 3 discriminator 5 view .LVU127
 443              		.loc 1 202 5 discriminator 5 view .LVU128
 444              		.loc 1 207 5 discriminator 5 view .LVU129
 445              	.LBB155:
 446              	.LBI146:
 447              		.loc 7 167 22 discriminator 5 view .LVU130
 448              		.loc 7 169 21 discriminator 5 view .LVU131
 449              		.loc 7 171 3 discriminator 5 view .LVU132
 450              	.LBB154:
 451              	.LBI147:
 452              		.loc 7 136 22 discriminator 5 view .LVU133
 453              	.LBB150:
 454              		.loc 7 140 3 discriminator 5 view .LVU134
 455              	.LBE150:
 456              	.LBE154:
ARM GAS  C:\Users\DEVELO~1\AppData\Local\Temp\ccFUw92r.s 			page 9


 457              	.LBE155:
 458              		.loc 1 222 5 discriminator 5 view .LVU135
 459              		.loc 1 202 8 is_stmt 0 discriminator 5 view .LVU136
 460 0024 237D     		ldrb	r3, [r4, #20]	@ zero_extendqisi2
 461              		.loc 1 222 14 discriminator 5 view .LVU137
 462 0026 4146     		mov	r1, r8
 463 0028 4846     		mov	r0, r9
 464              		.loc 1 202 8 discriminator 5 view .LVU138
 465 002a 002B     		cmp	r3, #0
 466 002c F0D0     		beq	.L18
 467              	.LVL22:
 468              		.loc 1 203 14 view .LVU139
 469 002e 6FF00100 		mvn	r0, #1
 470              	.LVL23:
 471              	.L8:
 472              		.loc 1 226 1 view .LVU140
 473 0032 BDE8F883 		pop	{r3, r4, r5, r6, r7, r8, r9, pc}
 474              	.LVL24:
 475              	.L17:
 476              		.loc 1 208 7 is_stmt 1 view .LVU141
 477              		.loc 1 208 11 is_stmt 0 view .LVU142
 478 0036 A168     		ldr	r1, [r4, #8]
 479              	.LVL25:
 480              		.loc 1 212 15 view .LVU143
 481 0038 0133     		adds	r3, r3, #1
 482              		.loc 1 215 7 view .LVU144
 483 003a 04F12000 		add	r0, r4, #32
 484              		.loc 1 208 18 view .LVU145
 485 003e 0A1D     		adds	r2, r1, #4
 486              		.loc 1 209 10 view .LVU146
 487 0040 B242     		cmp	r2, r6
 488              		.loc 1 208 18 view .LVU147
 489 0042 A260     		str	r2, [r4, #8]
 490              		.loc 1 208 21 view .LVU148
 491 0044 0F60     		str	r7, [r1]
 492              		.loc 1 209 7 is_stmt 1 view .LVU149
 493              		.loc 1 215 7 is_stmt 0 view .LVU150
 494 0046 4FF00001 		mov	r1, #0
 495              		.loc 1 210 20 view .LVU151
 496 004a 38BF     		it	cc
 497 004c A568     		ldrcc	r5, [r4, #8]
 498              		.loc 1 212 15 view .LVU152
 499 004e 2361     		str	r3, [r4, #16]
 500 0050 A560     		str	r5, [r4, #8]
 501              		.loc 1 212 7 is_stmt 1 view .LVU153
 502              		.loc 1 215 7 view .LVU154
 503 0052 FFF7FEFF 		bl	chThdDequeueNextI
 504              	.LVL26:
 505              		.loc 1 216 7 view .LVU155
 506 0056 FFF7FEFF 		bl	chSchRescheduleS
 507              	.LVL27:
 508              		.loc 1 218 7 view .LVU156
 509              		.loc 1 218 14 is_stmt 0 view .LVU157
 510 005a 0020     		movs	r0, #0
 511              		.loc 1 226 1 view .LVU158
 512 005c BDE8F883 		pop	{r3, r4, r5, r6, r7, r8, r9, pc}
 513              		.loc 1 226 1 view .LVU159
ARM GAS  C:\Users\DEVELO~1\AppData\Local\Temp\ccFUw92r.s 			page 10


 514              		.cfi_endproc
 515              	.LFE350:
 516              		.size	chMBPostTimeoutS, .-chMBPostTimeoutS
 517              		.section	.text.chMBPostTimeout,"ax",%progbits
 518              		.align	1
 519              		.p2align 4,,15
 520              		.global	chMBPostTimeout
 521              		.syntax unified
 522              		.thumb
 523              		.thumb_func
 524              		.type	chMBPostTimeout, %function
 525              	chMBPostTimeout:
 526              	.LVL28:
 527              	.LFB349:
 528              		.loc 1 165 73 is_stmt 1 view -0
 529              		.cfi_startproc
 530              		@ args = 0, pretend = 0, frame = 0
 531              		@ frame_needed = 0, uses_anonymous_args = 0
 532              		.loc 1 166 3 view .LVU161
 533              		.loc 1 168 3 view .LVU162
 534              	.LBB156:
 535              	.LBI156:
 536              		.loc 4 407 20 view .LVU163
 537              		.loc 4 409 3 view .LVU164
 538              	.LBB157:
 539              	.LBI157:
 540              		.loc 5 823 27 view .LVU165
 541              		.loc 5 831 3 view .LVU166
 542              	.LBB158:
 543              	.LBI158:
 544              		.loc 6 491 27 view .LVU167
 545              	.LBB159:
 546              		.loc 6 493 3 view .LVU168
 547              	.LBE159:
 548              	.LBE158:
 549              	.LBE157:
 550              	.LBE156:
 551              		.loc 1 165 73 is_stmt 0 view .LVU169
 552 0000 08B5     		push	{r3, lr}
 553              		.cfi_def_cfa_offset 8
 554              		.cfi_offset 3, -8
 555              		.cfi_offset 14, -4
 556              	.LBB163:
 557              	.LBB162:
 558              	.LBB161:
 559              	.LBB160:
 560              		.loc 6 493 3 view .LVU170
 561 0002 3023     		movs	r3, #48
 562              		.syntax unified
 563              	@ 493 "../../../os/common/ext/ARM/CMSIS/Core/Include/cmsis_gcc.h" 1
 564 0004 83F31188 		MSR basepri, r3
 565              	@ 0 "" 2
 566              	.LVL29:
 567              		.loc 6 493 3 view .LVU171
 568              		.thumb
 569              		.syntax unified
 570              	.LBE160:
ARM GAS  C:\Users\DEVELO~1\AppData\Local\Temp\ccFUw92r.s 			page 11


 571              	.LBE161:
 572              	.LBE162:
 573              		.loc 4 410 35 is_stmt 1 view .LVU172
 574              		.loc 4 411 21 view .LVU173
 575              	.LBE163:
 576              		.loc 1 169 3 view .LVU174
 577              		.loc 1 169 12 is_stmt 0 view .LVU175
 578 0008 FFF7FEFF 		bl	chMBPostTimeoutS
 579              	.LVL30:
 580              		.loc 1 170 3 is_stmt 1 view .LVU176
 581              	.LBB164:
 582              	.LBI164:
 583              		.loc 4 421 20 view .LVU177
 584              	.LBB165:
 585              		.loc 4 423 23 view .LVU178
 586              		.loc 4 424 34 view .LVU179
 587              		.loc 4 430 3 view .LVU180
 588              		.loc 4 430 3 view .LVU181
 589              		.loc 4 430 3 view .LVU182
 590              		.loc 4 434 3 view .LVU183
 591              	.LBB166:
 592              	.LBI166:
 593              		.loc 5 847 27 view .LVU184
 594              		.loc 5 850 3 view .LVU185
 595              	.LBB167:
 596              	.LBI167:
 597              		.loc 6 491 27 view .LVU186
 598              	.LBB168:
 599              		.loc 6 493 3 view .LVU187
 600 000c 0023     		movs	r3, #0
 601              		.syntax unified
 602              	@ 493 "../../../os/common/ext/ARM/CMSIS/Core/Include/cmsis_gcc.h" 1
 603 000e 83F31188 		MSR basepri, r3
 604              	@ 0 "" 2
 605              	.LVL31:
 606              		.loc 6 493 3 is_stmt 0 view .LVU188
 607              		.thumb
 608              		.syntax unified
 609              	.LBE168:
 610              	.LBE167:
 611              	.LBE166:
 612              	.LBE165:
 613              	.LBE164:
 614              		.loc 1 172 3 is_stmt 1 view .LVU189
 615              		.loc 1 173 1 is_stmt 0 view .LVU190
 616 0012 08BD     		pop	{r3, pc}
 617              		.cfi_endproc
 618              	.LFE349:
 619              		.size	chMBPostTimeout, .-chMBPostTimeout
 620              		.section	.text.chMBPostI,"ax",%progbits
 621              		.align	1
 622              		.p2align 4,,15
 623              		.global	chMBPostI
 624              		.syntax unified
 625              		.thumb
 626              		.thumb_func
 627              		.type	chMBPostI, %function
ARM GAS  C:\Users\DEVELO~1\AppData\Local\Temp\ccFUw92r.s 			page 12


 628              	chMBPostI:
 629              	.LVL32:
 630              	.LFB351:
 631              		.loc 1 243 44 is_stmt 1 view -0
 632              		.cfi_startproc
 633              		@ args = 0, pretend = 0, frame = 0
 634              		@ frame_needed = 0, uses_anonymous_args = 0
 635              		.loc 1 245 21 view .LVU192
 636              		.loc 1 246 3 view .LVU193
 637              		.loc 1 246 3 view .LVU194
 638              		.loc 1 246 3 view .LVU195
 639              		.loc 1 249 3 view .LVU196
 640              		.loc 1 249 6 is_stmt 0 view .LVU197
 641 0000 027D     		ldrb	r2, [r0, #20]	@ zero_extendqisi2
 642 0002 E2B9     		cbnz	r2, .L24
 643              		.loc 1 254 3 is_stmt 1 view .LVU198
 644              	.LVL33:
 645              	.LBB169:
 646              	.LBI169:
 647              		.loc 7 167 22 view .LVU199
 648              		.loc 7 169 21 view .LVU200
 649              		.loc 7 171 3 view .LVU201
 650              	.LBB170:
 651              	.LBI170:
 652              		.loc 7 136 22 view .LVU202
 653              	.LBB171:
 654              		.loc 7 140 3 view .LVU203
 655 0004 0346     		mov	r3, r0
 656              	.LBE171:
 657              	.LBE170:
 658              	.LBE169:
 659              		.loc 1 243 44 is_stmt 0 view .LVU204
 660 0006 70B5     		push	{r4, r5, r6, lr}
 661              		.cfi_def_cfa_offset 16
 662              		.cfi_offset 4, -16
 663              		.cfi_offset 5, -12
 664              		.cfi_offset 6, -8
 665              		.cfi_offset 14, -4
 666              	.LBB178:
 667              	.LBB174:
 668              	.LBB172:
 669              		.loc 7 140 33 view .LVU205
 670 0008 D0E90040 		ldrd	r4, r0, [r0]
 671              	.LVL34:
 672              		.loc 7 140 33 view .LVU206
 673              	.LBE172:
 674              	.LBE174:
 675              	.LBB175:
 676              	.LBI175:
 677              		.loc 7 152 22 is_stmt 1 view .LVU207
 678              	.LBB176:
 679              		.loc 7 154 21 view .LVU208
 680              		.loc 7 156 3 view .LVU209
 681              		.loc 7 156 13 is_stmt 0 view .LVU210
 682 000c 1A69     		ldr	r2, [r3, #16]
 683              	.LVL35:
 684              		.loc 7 156 13 view .LVU211
ARM GAS  C:\Users\DEVELO~1\AppData\Local\Temp\ccFUw92r.s 			page 13


 685              	.LBE176:
 686              	.LBE175:
 687              	.LBB177:
 688              	.LBB173:
 689              		.loc 7 140 28 view .LVU212
 690 000e 051B     		subs	r5, r0, r4
 691              	.LBE173:
 692              	.LBE177:
 693              	.LBE178:
 694              		.loc 1 254 6 view .LVU213
 695 0010 B2EBA50F 		cmp	r2, r5, asr #2
 696 0014 10D0     		beq	.L25
 697              		.loc 1 255 5 is_stmt 1 view .LVU214
 698              		.loc 1 255 9 is_stmt 0 view .LVU215
 699 0016 9E68     		ldr	r6, [r3, #8]
 700              		.loc 1 259 13 view .LVU216
 701 0018 0132     		adds	r2, r2, #1
 702              		.loc 1 255 16 view .LVU217
 703 001a 351D     		adds	r5, r6, #4
 704              		.loc 1 256 8 view .LVU218
 705 001c 8542     		cmp	r5, r0
 706              		.loc 1 255 16 view .LVU219
 707 001e 9D60     		str	r5, [r3, #8]
 708              		.loc 1 255 19 view .LVU220
 709 0020 3160     		str	r1, [r6]
 710              		.loc 1 256 5 is_stmt 1 view .LVU221
 711              		.loc 1 262 5 is_stmt 0 view .LVU222
 712 0022 03F12000 		add	r0, r3, #32
 713              		.loc 1 257 18 view .LVU223
 714 0026 38BF     		it	cc
 715 0028 9C68     		ldrcc	r4, [r3, #8]
 716              		.loc 1 262 5 view .LVU224
 717 002a 0021     		movs	r1, #0
 718              	.LVL36:
 719              		.loc 1 259 13 view .LVU225
 720 002c 1A61     		str	r2, [r3, #16]
 721 002e 9C60     		str	r4, [r3, #8]
 722              	.LVL37:
 723              		.loc 1 259 5 is_stmt 1 view .LVU226
 724              		.loc 1 262 5 view .LVU227
 725 0030 FFF7FEFF 		bl	chThdDequeueNextI
 726              	.LVL38:
 727              		.loc 1 264 5 view .LVU228
 728              		.loc 1 264 12 is_stmt 0 view .LVU229
 729 0034 0020     		movs	r0, #0
 730              		.loc 1 269 1 view .LVU230
 731 0036 70BD     		pop	{r4, r5, r6, pc}
 732              	.LVL39:
 733              	.L25:
 734              		.loc 1 268 10 view .LVU231
 735 0038 4FF0FF30 		mov	r0, #-1
 736              		.loc 1 269 1 view .LVU232
 737 003c 70BD     		pop	{r4, r5, r6, pc}
 738              	.LVL40:
 739              	.L24:
 740              		.cfi_def_cfa_offset 0
 741              		.cfi_restore 4
ARM GAS  C:\Users\DEVELO~1\AppData\Local\Temp\ccFUw92r.s 			page 14


 742              		.cfi_restore 5
 743              		.cfi_restore 6
 744              		.cfi_restore 14
 745              		.loc 1 250 12 view .LVU233
 746 003e 6FF00100 		mvn	r0, #1
 747              	.LVL41:
 748              		.loc 1 269 1 view .LVU234
 749 0042 7047     		bx	lr
 750              		.cfi_endproc
 751              	.LFE351:
 752              		.size	chMBPostI, .-chMBPostI
 753              		.section	.text.chMBPostAheadTimeoutS,"ax",%progbits
 754              		.align	1
 755              		.p2align 4,,15
 756              		.global	chMBPostAheadTimeoutS
 757              		.syntax unified
 758              		.thumb
 759              		.thumb_func
 760              		.type	chMBPostAheadTimeoutS, %function
 761              	chMBPostAheadTimeoutS:
 762              	.LVL42:
 763              	.LFB353:
 764              		.loc 1 319 79 is_stmt 1 view -0
 765              		.cfi_startproc
 766              		@ args = 0, pretend = 0, frame = 0
 767              		@ frame_needed = 0, uses_anonymous_args = 0
 768              		.loc 1 320 3 view .LVU236
 769              		.loc 1 322 21 view .LVU237
 770              		.loc 1 323 3 view .LVU238
 771              		.loc 1 323 3 view .LVU239
 772              		.loc 1 319 79 is_stmt 0 view .LVU240
 773 0000 2DE9F843 		push	{r3, r4, r5, r6, r7, r8, r9, lr}
 774              		.cfi_def_cfa_offset 32
 775              		.cfi_offset 3, -32
 776              		.cfi_offset 4, -28
 777              		.cfi_offset 5, -24
 778              		.cfi_offset 6, -20
 779              		.cfi_offset 7, -16
 780              		.cfi_offset 8, -12
 781              		.cfi_offset 9, -8
 782              		.cfi_offset 14, -4
 783              		.loc 1 319 79 view .LVU241
 784 0004 0446     		mov	r4, r0
 785 0006 0E46     		mov	r6, r1
 786 0008 9046     		mov	r8, r2
 787              		.loc 1 347 14 view .LVU242
 788 000a 00F11809 		add	r9, r0, #24
 789 000e 09E0     		b	.L35
 790              	.LVL43:
 791              	.L42:
 792              	.LBB179:
 793              	.LBB180:
 794              	.LBB181:
 795              		.loc 7 140 33 view .LVU243
 796 0010 D4E90057 		ldrd	r5, r7, [r4]
 797              	.LVL44:
 798              		.loc 7 140 33 view .LVU244
ARM GAS  C:\Users\DEVELO~1\AppData\Local\Temp\ccFUw92r.s 			page 15


 799              	.LBE181:
 800              	.LBE180:
 801              	.LBB184:
 802              	.LBI184:
 803              		.loc 7 152 22 is_stmt 1 view .LVU245
 804              	.LBB185:
 805              		.loc 7 154 21 view .LVU246
 806              		.loc 7 156 3 view .LVU247
 807              		.loc 7 156 13 is_stmt 0 view .LVU248
 808 0014 2369     		ldr	r3, [r4, #16]
 809              	.LVL45:
 810              		.loc 7 156 13 view .LVU249
 811              	.LBE185:
 812              	.LBE184:
 813              	.LBB186:
 814              	.LBB182:
 815              		.loc 7 140 28 view .LVU250
 816 0016 7A1B     		subs	r2, r7, r5
 817              	.LBE182:
 818              	.LBE186:
 819              	.LBE179:
 820              		.loc 1 332 8 view .LVU251
 821 0018 B3EBA20F 		cmp	r3, r2, asr #2
 822 001c 0BD1     		bne	.L41
 823              		.loc 1 347 14 view .LVU252
 824 001e FFF7FEFF 		bl	chThdEnqueueTimeoutS
 825              	.LVL46:
 826              		.loc 1 348 19 is_stmt 1 view .LVU253
 827 0022 30B9     		cbnz	r0, .L30
 828              	.LVL47:
 829              	.L35:
 830              		.loc 1 323 3 discriminator 5 view .LVU254
 831              		.loc 1 325 3 discriminator 5 view .LVU255
 832              		.loc 1 327 5 discriminator 5 view .LVU256
 833              		.loc 1 332 5 discriminator 5 view .LVU257
 834              	.LBB188:
 835              	.LBI179:
 836              		.loc 7 167 22 discriminator 5 view .LVU258
 837              		.loc 7 169 21 discriminator 5 view .LVU259
 838              		.loc 7 171 3 discriminator 5 view .LVU260
 839              	.LBB187:
 840              	.LBI180:
 841              		.loc 7 136 22 discriminator 5 view .LVU261
 842              	.LBB183:
 843              		.loc 7 140 3 discriminator 5 view .LVU262
 844              	.LBE183:
 845              	.LBE187:
 846              	.LBE188:
 847              		.loc 1 347 5 discriminator 5 view .LVU263
 848              		.loc 1 327 8 is_stmt 0 discriminator 5 view .LVU264
 849 0024 237D     		ldrb	r3, [r4, #20]	@ zero_extendqisi2
 850              		.loc 1 347 14 discriminator 5 view .LVU265
 851 0026 4146     		mov	r1, r8
 852 0028 4846     		mov	r0, r9
 853              		.loc 1 327 8 discriminator 5 view .LVU266
 854 002a 002B     		cmp	r3, #0
 855 002c F0D0     		beq	.L42
ARM GAS  C:\Users\DEVELO~1\AppData\Local\Temp\ccFUw92r.s 			page 16


 856              	.LVL48:
 857              		.loc 1 328 14 view .LVU267
 858 002e 6FF00100 		mvn	r0, #1
 859              	.LVL49:
 860              	.L30:
 861              		.loc 1 351 1 view .LVU268
 862 0032 BDE8F883 		pop	{r3, r4, r5, r6, r7, r8, r9, pc}
 863              	.LVL50:
 864              	.L41:
 865              		.loc 1 333 7 is_stmt 1 view .LVU269
 866              		.loc 1 333 11 is_stmt 0 view .LVU270
 867 0036 E268     		ldr	r2, [r4, #12]
 868              		.loc 1 337 15 view .LVU271
 869 0038 0133     		adds	r3, r3, #1
 870              		.loc 1 340 7 view .LVU272
 871 003a 04F12000 		add	r0, r4, #32
 872 003e 0021     		movs	r1, #0
 873              	.LVL51:
 874              		.loc 1 333 11 view .LVU273
 875 0040 043A     		subs	r2, r2, #4
 876              		.loc 1 333 10 view .LVU274
 877 0042 AA42     		cmp	r2, r5
 878              		.loc 1 334 9 is_stmt 1 view .LVU275
 879              		.loc 1 336 7 view .LVU276
 880              		.loc 1 334 31 is_stmt 0 view .LVU277
 881 0044 38BF     		it	cc
 882 0046 3A1F     		subcc	r2, r7, #4
 883              		.loc 1 334 20 view .LVU278
 884 0048 E260     		str	r2, [r4, #12]
 885              		.loc 1 336 19 view .LVU279
 886 004a 1660     		str	r6, [r2]
 887              		.loc 1 337 7 is_stmt 1 view .LVU280
 888              		.loc 1 337 15 is_stmt 0 view .LVU281
 889 004c 2361     		str	r3, [r4, #16]
 890              		.loc 1 340 7 is_stmt 1 view .LVU282
 891 004e FFF7FEFF 		bl	chThdDequeueNextI
 892              	.LVL52:
 893              		.loc 1 341 7 view .LVU283
 894 0052 FFF7FEFF 		bl	chSchRescheduleS
 895              	.LVL53:
 896              		.loc 1 343 7 view .LVU284
 897              		.loc 1 343 14 is_stmt 0 view .LVU285
 898 0056 0020     		movs	r0, #0
 899              		.loc 1 351 1 view .LVU286
 900 0058 BDE8F883 		pop	{r3, r4, r5, r6, r7, r8, r9, pc}
 901              		.loc 1 351 1 view .LVU287
 902              		.cfi_endproc
 903              	.LFE353:
 904              		.size	chMBPostAheadTimeoutS, .-chMBPostAheadTimeoutS
 905              		.section	.text.chMBPostAheadTimeout,"ax",%progbits
 906              		.align	1
 907              		.p2align 4,,15
 908              		.global	chMBPostAheadTimeout
 909              		.syntax unified
 910              		.thumb
 911              		.thumb_func
 912              		.type	chMBPostAheadTimeout, %function
ARM GAS  C:\Users\DEVELO~1\AppData\Local\Temp\ccFUw92r.s 			page 17


 913              	chMBPostAheadTimeout:
 914              	.LVL54:
 915              	.LFB352:
 916              		.loc 1 290 78 is_stmt 1 view -0
 917              		.cfi_startproc
 918              		@ args = 0, pretend = 0, frame = 0
 919              		@ frame_needed = 0, uses_anonymous_args = 0
 920              		.loc 1 291 3 view .LVU289
 921              		.loc 1 293 3 view .LVU290
 922              	.LBB189:
 923              	.LBI189:
 924              		.loc 4 407 20 view .LVU291
 925              		.loc 4 409 3 view .LVU292
 926              	.LBB190:
 927              	.LBI190:
 928              		.loc 5 823 27 view .LVU293
 929              		.loc 5 831 3 view .LVU294
 930              	.LBB191:
 931              	.LBI191:
 932              		.loc 6 491 27 view .LVU295
 933              	.LBB192:
 934              		.loc 6 493 3 view .LVU296
 935              	.LBE192:
 936              	.LBE191:
 937              	.LBE190:
 938              	.LBE189:
 939              		.loc 1 290 78 is_stmt 0 view .LVU297
 940 0000 08B5     		push	{r3, lr}
 941              		.cfi_def_cfa_offset 8
 942              		.cfi_offset 3, -8
 943              		.cfi_offset 14, -4
 944              	.LBB196:
 945              	.LBB195:
 946              	.LBB194:
 947              	.LBB193:
 948              		.loc 6 493 3 view .LVU298
 949 0002 3023     		movs	r3, #48
 950              		.syntax unified
 951              	@ 493 "../../../os/common/ext/ARM/CMSIS/Core/Include/cmsis_gcc.h" 1
 952 0004 83F31188 		MSR basepri, r3
 953              	@ 0 "" 2
 954              	.LVL55:
 955              		.loc 6 493 3 view .LVU299
 956              		.thumb
 957              		.syntax unified
 958              	.LBE193:
 959              	.LBE194:
 960              	.LBE195:
 961              		.loc 4 410 35 is_stmt 1 view .LVU300
 962              		.loc 4 411 21 view .LVU301
 963              	.LBE196:
 964              		.loc 1 294 3 view .LVU302
 965              		.loc 1 294 12 is_stmt 0 view .LVU303
 966 0008 FFF7FEFF 		bl	chMBPostAheadTimeoutS
 967              	.LVL56:
 968              		.loc 1 295 3 is_stmt 1 view .LVU304
 969              	.LBB197:
ARM GAS  C:\Users\DEVELO~1\AppData\Local\Temp\ccFUw92r.s 			page 18


 970              	.LBI197:
 971              		.loc 4 421 20 view .LVU305
 972              	.LBB198:
 973              		.loc 4 423 23 view .LVU306
 974              		.loc 4 424 34 view .LVU307
 975              		.loc 4 430 3 view .LVU308
 976              		.loc 4 430 3 view .LVU309
 977              		.loc 4 430 3 view .LVU310
 978              		.loc 4 434 3 view .LVU311
 979              	.LBB199:
 980              	.LBI199:
 981              		.loc 5 847 27 view .LVU312
 982              		.loc 5 850 3 view .LVU313
 983              	.LBB200:
 984              	.LBI200:
 985              		.loc 6 491 27 view .LVU314
 986              	.LBB201:
 987              		.loc 6 493 3 view .LVU315
 988 000c 0023     		movs	r3, #0
 989              		.syntax unified
 990              	@ 493 "../../../os/common/ext/ARM/CMSIS/Core/Include/cmsis_gcc.h" 1
 991 000e 83F31188 		MSR basepri, r3
 992              	@ 0 "" 2
 993              	.LVL57:
 994              		.loc 6 493 3 is_stmt 0 view .LVU316
 995              		.thumb
 996              		.syntax unified
 997              	.LBE201:
 998              	.LBE200:
 999              	.LBE199:
 1000              	.LBE198:
 1001              	.LBE197:
 1002              		.loc 1 297 3 is_stmt 1 view .LVU317
 1003              		.loc 1 298 1 is_stmt 0 view .LVU318
 1004 0012 08BD     		pop	{r3, pc}
 1005              		.cfi_endproc
 1006              	.LFE352:
 1007              		.size	chMBPostAheadTimeout, .-chMBPostAheadTimeout
 1008              		.section	.text.chMBPostAheadI,"ax",%progbits
 1009              		.align	1
 1010              		.p2align 4,,15
 1011              		.global	chMBPostAheadI
 1012              		.syntax unified
 1013              		.thumb
 1014              		.thumb_func
 1015              		.type	chMBPostAheadI, %function
 1016              	chMBPostAheadI:
 1017              	.LVL58:
 1018              	.LFB354:
 1019              		.loc 1 368 49 is_stmt 1 view -0
 1020              		.cfi_startproc
 1021              		@ args = 0, pretend = 0, frame = 0
 1022              		@ frame_needed = 0, uses_anonymous_args = 0
 1023              		.loc 1 370 21 view .LVU320
 1024              		.loc 1 371 3 view .LVU321
 1025              		.loc 1 371 3 view .LVU322
 1026              		.loc 1 371 3 view .LVU323
ARM GAS  C:\Users\DEVELO~1\AppData\Local\Temp\ccFUw92r.s 			page 19


 1027              		.loc 1 374 3 view .LVU324
 1028              		.loc 1 374 6 is_stmt 0 view .LVU325
 1029 0000 027D     		ldrb	r2, [r0, #20]	@ zero_extendqisi2
 1030 0002 E2B9     		cbnz	r2, .L49
 1031              		.loc 1 379 3 is_stmt 1 view .LVU326
 1032              	.LVL59:
 1033              	.LBB202:
 1034              	.LBI202:
 1035              		.loc 7 167 22 view .LVU327
 1036              		.loc 7 169 21 view .LVU328
 1037              		.loc 7 171 3 view .LVU329
 1038              	.LBB203:
 1039              	.LBI203:
 1040              		.loc 7 136 22 view .LVU330
 1041              	.LBB204:
 1042              		.loc 7 140 3 view .LVU331
 1043              	.LBE204:
 1044              	.LBE203:
 1045              	.LBE202:
 1046              		.loc 1 368 49 is_stmt 0 view .LVU332
 1047 0004 38B5     		push	{r3, r4, r5, lr}
 1048              		.cfi_def_cfa_offset 16
 1049              		.cfi_offset 3, -16
 1050              		.cfi_offset 4, -12
 1051              		.cfi_offset 5, -8
 1052              		.cfi_offset 14, -4
 1053              	.LBB211:
 1054              	.LBB207:
 1055              	.LBB205:
 1056              		.loc 7 140 33 view .LVU333
 1057 0006 D0E90045 		ldrd	r4, r5, [r0]
 1058              	.LVL60:
 1059              		.loc 7 140 33 view .LVU334
 1060              	.LBE205:
 1061              	.LBE207:
 1062              	.LBB208:
 1063              	.LBI208:
 1064              		.loc 7 152 22 is_stmt 1 view .LVU335
 1065              	.LBB209:
 1066              		.loc 7 154 21 view .LVU336
 1067              		.loc 7 156 3 view .LVU337
 1068 000a 0346     		mov	r3, r0
 1069              		.loc 7 156 13 is_stmt 0 view .LVU338
 1070 000c 0069     		ldr	r0, [r0, #16]
 1071              	.LVL61:
 1072              		.loc 7 156 13 view .LVU339
 1073              	.LBE209:
 1074              	.LBE208:
 1075              	.LBB210:
 1076              	.LBB206:
 1077              		.loc 7 140 28 view .LVU340
 1078 000e 2A1B     		subs	r2, r5, r4
 1079              	.LBE206:
 1080              	.LBE210:
 1081              	.LBE211:
 1082              		.loc 1 379 6 view .LVU341
 1083 0010 B0EBA20F 		cmp	r0, r2, asr #2
ARM GAS  C:\Users\DEVELO~1\AppData\Local\Temp\ccFUw92r.s 			page 20


 1084 0014 10D0     		beq	.L50
 1085              		.loc 1 380 5 is_stmt 1 view .LVU342
 1086              		.loc 1 380 9 is_stmt 0 view .LVU343
 1087 0016 DA68     		ldr	r2, [r3, #12]
 1088 0018 043A     		subs	r2, r2, #4
 1089              		.loc 1 380 8 view .LVU344
 1090 001a A242     		cmp	r2, r4
 1091              		.loc 1 381 7 is_stmt 1 view .LVU345
 1092              		.loc 1 383 5 view .LVU346
 1093              		.loc 1 384 13 is_stmt 0 view .LVU347
 1094 001c 00F10104 		add	r4, r0, #1
 1095              		.loc 1 387 5 view .LVU348
 1096 0020 03F12000 		add	r0, r3, #32
 1097              		.loc 1 381 29 view .LVU349
 1098 0024 38BF     		it	cc
 1099 0026 2A1F     		subcc	r2, r5, #4
 1100              		.loc 1 381 18 view .LVU350
 1101 0028 DA60     		str	r2, [r3, #12]
 1102              		.loc 1 383 17 view .LVU351
 1103 002a 1160     		str	r1, [r2]
 1104              		.loc 1 384 5 is_stmt 1 view .LVU352
 1105              		.loc 1 387 5 is_stmt 0 view .LVU353
 1106 002c 0021     		movs	r1, #0
 1107              	.LVL62:
 1108              		.loc 1 384 13 view .LVU354
 1109 002e 1C61     		str	r4, [r3, #16]
 1110              		.loc 1 387 5 is_stmt 1 view .LVU355
 1111 0030 FFF7FEFF 		bl	chThdDequeueNextI
 1112              	.LVL63:
 1113              		.loc 1 389 5 view .LVU356
 1114              		.loc 1 389 12 is_stmt 0 view .LVU357
 1115 0034 0020     		movs	r0, #0
 1116              		.loc 1 394 1 view .LVU358
 1117 0036 38BD     		pop	{r3, r4, r5, pc}
 1118              	.LVL64:
 1119              	.L50:
 1120              		.loc 1 393 10 view .LVU359
 1121 0038 4FF0FF30 		mov	r0, #-1
 1122              		.loc 1 394 1 view .LVU360
 1123 003c 38BD     		pop	{r3, r4, r5, pc}
 1124              	.LVL65:
 1125              	.L49:
 1126              		.cfi_def_cfa_offset 0
 1127              		.cfi_restore 3
 1128              		.cfi_restore 4
 1129              		.cfi_restore 5
 1130              		.cfi_restore 14
 1131              		.loc 1 375 12 view .LVU361
 1132 003e 6FF00100 		mvn	r0, #1
 1133              	.LVL66:
 1134              		.loc 1 394 1 view .LVU362
 1135 0042 7047     		bx	lr
 1136              		.cfi_endproc
 1137              	.LFE354:
 1138              		.size	chMBPostAheadI, .-chMBPostAheadI
 1139              		.section	.text.chMBFetchTimeoutS,"ax",%progbits
 1140              		.align	1
ARM GAS  C:\Users\DEVELO~1\AppData\Local\Temp\ccFUw92r.s 			page 21


 1141              		.p2align 4,,15
 1142              		.global	chMBFetchTimeoutS
 1143              		.syntax unified
 1144              		.thumb
 1145              		.thumb_func
 1146              		.type	chMBFetchTimeoutS, %function
 1147              	chMBFetchTimeoutS:
 1148              	.LVL67:
 1149              	.LFB356:
 1150              		.loc 1 444 77 is_stmt 1 view -0
 1151              		.cfi_startproc
 1152              		@ args = 0, pretend = 0, frame = 0
 1153              		@ frame_needed = 0, uses_anonymous_args = 0
 1154              		.loc 1 445 3 view .LVU364
 1155              		.loc 1 447 21 view .LVU365
 1156              		.loc 1 448 3 view .LVU366
 1157              		.loc 1 448 3 view .LVU367
 1158              		.loc 1 444 77 is_stmt 0 view .LVU368
 1159 0000 F8B5     		push	{r3, r4, r5, r6, r7, lr}
 1160              		.cfi_def_cfa_offset 24
 1161              		.cfi_offset 3, -24
 1162              		.cfi_offset 4, -20
 1163              		.cfi_offset 5, -16
 1164              		.cfi_offset 6, -12
 1165              		.cfi_offset 7, -8
 1166              		.cfi_offset 14, -4
 1167              		.loc 1 444 77 view .LVU369
 1168 0002 0446     		mov	r4, r0
 1169 0004 0E46     		mov	r6, r1
 1170 0006 1546     		mov	r5, r2
 1171              		.loc 1 472 14 view .LVU370
 1172 0008 00F12007 		add	r7, r0, #32
 1173 000c 04E0     		b	.L60
 1174              	.LVL68:
 1175              	.L66:
 1176              	.LBB212:
 1177              	.LBB213:
 1178              		.loc 7 156 13 view .LVU371
 1179 000e 2369     		ldr	r3, [r4, #16]
 1180              	.LVL69:
 1181              		.loc 7 156 13 view .LVU372
 1182              	.LBE213:
 1183              	.LBE212:
 1184              		.loc 1 457 8 view .LVU373
 1185 0010 53B9     		cbnz	r3, .L65
 1186              		.loc 1 472 14 view .LVU374
 1187 0012 FFF7FEFF 		bl	chThdEnqueueTimeoutS
 1188              	.LVL70:
 1189              		.loc 1 473 19 is_stmt 1 view .LVU375
 1190 0016 30B9     		cbnz	r0, .L56
 1191              	.LVL71:
 1192              	.L60:
 1193              		.loc 1 448 3 discriminator 5 view .LVU376
 1194              		.loc 1 450 3 discriminator 5 view .LVU377
 1195              		.loc 1 452 5 discriminator 5 view .LVU378
 1196              		.loc 1 457 5 discriminator 5 view .LVU379
 1197              	.LBB215:
ARM GAS  C:\Users\DEVELO~1\AppData\Local\Temp\ccFUw92r.s 			page 22


 1198              	.LBI212:
 1199              		.loc 7 152 22 discriminator 5 view .LVU380
 1200              	.LBB214:
 1201              		.loc 7 154 21 discriminator 5 view .LVU381
 1202              		.loc 7 156 3 discriminator 5 view .LVU382
 1203              	.LBE214:
 1204              	.LBE215:
 1205              		.loc 1 472 5 discriminator 5 view .LVU383
 1206              		.loc 1 452 8 is_stmt 0 discriminator 5 view .LVU384
 1207 0018 237D     		ldrb	r3, [r4, #20]	@ zero_extendqisi2
 1208              		.loc 1 472 14 discriminator 5 view .LVU385
 1209 001a 2946     		mov	r1, r5
 1210 001c 3846     		mov	r0, r7
 1211              		.loc 1 452 8 discriminator 5 view .LVU386
 1212 001e 002B     		cmp	r3, #0
 1213 0020 F5D0     		beq	.L66
 1214              	.LVL72:
 1215              		.loc 1 453 14 view .LVU387
 1216 0022 6FF00100 		mvn	r0, #1
 1217              	.LVL73:
 1218              	.L56:
 1219              		.loc 1 476 1 view .LVU388
 1220 0026 F8BD     		pop	{r3, r4, r5, r6, r7, pc}
 1221              	.LVL74:
 1222              	.L65:
 1223              		.loc 1 458 7 is_stmt 1 view .LVU389
 1224              		.loc 1 458 19 is_stmt 0 view .LVU390
 1225 0028 E168     		ldr	r1, [r4, #12]
 1226              	.LVL75:
 1227              		.loc 1 458 26 view .LVU391
 1228 002a 0A1D     		adds	r2, r1, #4
 1229              		.loc 1 458 15 view .LVU392
 1230 002c 0968     		ldr	r1, [r1]
 1231              		.loc 1 458 26 view .LVU393
 1232 002e E260     		str	r2, [r4, #12]
 1233              		.loc 1 458 13 view .LVU394
 1234 0030 3160     		str	r1, [r6]
 1235              		.loc 1 459 7 is_stmt 1 view .LVU395
 1236              		.loc 1 459 10 is_stmt 0 view .LVU396
 1237 0032 6168     		ldr	r1, [r4, #4]
 1238 0034 8A42     		cmp	r2, r1
 1239 0036 01D3     		bcc	.L59
 1240              		.loc 1 460 9 is_stmt 1 view .LVU397
 1241              		.loc 1 460 20 is_stmt 0 view .LVU398
 1242 0038 2268     		ldr	r2, [r4]
 1243 003a E260     		str	r2, [r4, #12]
 1244              	.L59:
 1245              		.loc 1 462 7 is_stmt 1 view .LVU399
 1246              		.loc 1 462 15 is_stmt 0 view .LVU400
 1247 003c 013B     		subs	r3, r3, #1
 1248              		.loc 1 465 7 view .LVU401
 1249 003e 04F11800 		add	r0, r4, #24
 1250 0042 0021     		movs	r1, #0
 1251              		.loc 1 462 15 view .LVU402
 1252 0044 2361     		str	r3, [r4, #16]
 1253              		.loc 1 465 7 is_stmt 1 view .LVU403
 1254 0046 FFF7FEFF 		bl	chThdDequeueNextI
ARM GAS  C:\Users\DEVELO~1\AppData\Local\Temp\ccFUw92r.s 			page 23


 1255              	.LVL76:
 1256              		.loc 1 466 7 view .LVU404
 1257 004a FFF7FEFF 		bl	chSchRescheduleS
 1258              	.LVL77:
 1259              		.loc 1 468 7 view .LVU405
 1260              		.loc 1 468 14 is_stmt 0 view .LVU406
 1261 004e 0020     		movs	r0, #0
 1262              		.loc 1 476 1 view .LVU407
 1263 0050 F8BD     		pop	{r3, r4, r5, r6, r7, pc}
 1264              		.loc 1 476 1 view .LVU408
 1265              		.cfi_endproc
 1266              	.LFE356:
 1267              		.size	chMBFetchTimeoutS, .-chMBFetchTimeoutS
 1268 0052 00BF     		.section	.text.chMBFetchTimeout,"ax",%progbits
 1269              		.align	1
 1270              		.p2align 4,,15
 1271              		.global	chMBFetchTimeout
 1272              		.syntax unified
 1273              		.thumb
 1274              		.thumb_func
 1275              		.type	chMBFetchTimeout, %function
 1276              	chMBFetchTimeout:
 1277              	.LVL78:
 1278              	.LFB355:
 1279              		.loc 1 415 76 is_stmt 1 view -0
 1280              		.cfi_startproc
 1281              		@ args = 0, pretend = 0, frame = 0
 1282              		@ frame_needed = 0, uses_anonymous_args = 0
 1283              		.loc 1 416 3 view .LVU410
 1284              		.loc 1 418 3 view .LVU411
 1285              	.LBB216:
 1286              	.LBI216:
 1287              		.loc 4 407 20 view .LVU412
 1288              		.loc 4 409 3 view .LVU413
 1289              	.LBB217:
 1290              	.LBI217:
 1291              		.loc 5 823 27 view .LVU414
 1292              		.loc 5 831 3 view .LVU415
 1293              	.LBB218:
 1294              	.LBI218:
 1295              		.loc 6 491 27 view .LVU416
 1296              	.LBB219:
 1297              		.loc 6 493 3 view .LVU417
 1298              	.LBE219:
 1299              	.LBE218:
 1300              	.LBE217:
 1301              	.LBE216:
 1302              		.loc 1 415 76 is_stmt 0 view .LVU418
 1303 0000 08B5     		push	{r3, lr}
 1304              		.cfi_def_cfa_offset 8
 1305              		.cfi_offset 3, -8
 1306              		.cfi_offset 14, -4
 1307              	.LBB223:
 1308              	.LBB222:
 1309              	.LBB221:
 1310              	.LBB220:
 1311              		.loc 6 493 3 view .LVU419
ARM GAS  C:\Users\DEVELO~1\AppData\Local\Temp\ccFUw92r.s 			page 24


 1312 0002 3023     		movs	r3, #48
 1313              		.syntax unified
 1314              	@ 493 "../../../os/common/ext/ARM/CMSIS/Core/Include/cmsis_gcc.h" 1
 1315 0004 83F31188 		MSR basepri, r3
 1316              	@ 0 "" 2
 1317              	.LVL79:
 1318              		.loc 6 493 3 view .LVU420
 1319              		.thumb
 1320              		.syntax unified
 1321              	.LBE220:
 1322              	.LBE221:
 1323              	.LBE222:
 1324              		.loc 4 410 35 is_stmt 1 view .LVU421
 1325              		.loc 4 411 21 view .LVU422
 1326              	.LBE223:
 1327              		.loc 1 419 3 view .LVU423
 1328              		.loc 1 419 12 is_stmt 0 view .LVU424
 1329 0008 FFF7FEFF 		bl	chMBFetchTimeoutS
 1330              	.LVL80:
 1331              		.loc 1 420 3 is_stmt 1 view .LVU425
 1332              	.LBB224:
 1333              	.LBI224:
 1334              		.loc 4 421 20 view .LVU426
 1335              	.LBB225:
 1336              		.loc 4 423 23 view .LVU427
 1337              		.loc 4 424 34 view .LVU428
 1338              		.loc 4 430 3 view .LVU429
 1339              		.loc 4 430 3 view .LVU430
 1340              		.loc 4 430 3 view .LVU431
 1341              		.loc 4 434 3 view .LVU432
 1342              	.LBB226:
 1343              	.LBI226:
 1344              		.loc 5 847 27 view .LVU433
 1345              		.loc 5 850 3 view .LVU434
 1346              	.LBB227:
 1347              	.LBI227:
 1348              		.loc 6 491 27 view .LVU435
 1349              	.LBB228:
 1350              		.loc 6 493 3 view .LVU436
 1351 000c 0023     		movs	r3, #0
 1352              		.syntax unified
 1353              	@ 493 "../../../os/common/ext/ARM/CMSIS/Core/Include/cmsis_gcc.h" 1
 1354 000e 83F31188 		MSR basepri, r3
 1355              	@ 0 "" 2
 1356              	.LVL81:
 1357              		.loc 6 493 3 is_stmt 0 view .LVU437
 1358              		.thumb
 1359              		.syntax unified
 1360              	.LBE228:
 1361              	.LBE227:
 1362              	.LBE226:
 1363              	.LBE225:
 1364              	.LBE224:
 1365              		.loc 1 422 3 is_stmt 1 view .LVU438
 1366              		.loc 1 423 1 is_stmt 0 view .LVU439
 1367 0012 08BD     		pop	{r3, pc}
 1368              		.cfi_endproc
ARM GAS  C:\Users\DEVELO~1\AppData\Local\Temp\ccFUw92r.s 			page 25


 1369              	.LFE355:
 1370              		.size	chMBFetchTimeout, .-chMBFetchTimeout
 1371              		.section	.text.chMBFetchI,"ax",%progbits
 1372              		.align	1
 1373              		.p2align 4,,15
 1374              		.global	chMBFetchI
 1375              		.syntax unified
 1376              		.thumb
 1377              		.thumb_func
 1378              		.type	chMBFetchI, %function
 1379              	chMBFetchI:
 1380              	.LVL82:
 1381              	.LFB357:
 1382              		.loc 1 493 47 is_stmt 1 view -0
 1383              		.cfi_startproc
 1384              		@ args = 0, pretend = 0, frame = 0
 1385              		@ frame_needed = 0, uses_anonymous_args = 0
 1386              		.loc 1 495 21 view .LVU441
 1387              		.loc 1 496 3 view .LVU442
 1388              		.loc 1 496 3 view .LVU443
 1389              		.loc 1 496 3 view .LVU444
 1390              		.loc 1 499 3 view .LVU445
 1391              		.loc 1 499 6 is_stmt 0 view .LVU446
 1392 0000 027D     		ldrb	r2, [r0, #20]	@ zero_extendqisi2
 1393 0002 CAB9     		cbnz	r2, .L72
 1394              		.loc 1 504 3 is_stmt 1 view .LVU447
 1395              	.LVL83:
 1396              	.LBB229:
 1397              	.LBI229:
 1398              		.loc 7 152 22 view .LVU448
 1399              	.LBB230:
 1400              		.loc 7 154 21 view .LVU449
 1401              		.loc 7 156 3 view .LVU450
 1402              		.loc 7 156 13 is_stmt 0 view .LVU451
 1403 0004 0269     		ldr	r2, [r0, #16]
 1404              	.LVL84:
 1405              		.loc 7 156 13 view .LVU452
 1406 0006 0346     		mov	r3, r0
 1407              	.LBE230:
 1408              	.LBE229:
 1409              		.loc 1 504 6 view .LVU453
 1410 0008 9AB1     		cbz	r2, .L73
 1411              		.loc 1 505 5 is_stmt 1 view .LVU454
 1412              		.loc 1 493 47 is_stmt 0 view .LVU455
 1413 000a 10B5     		push	{r4, lr}
 1414              		.cfi_def_cfa_offset 8
 1415              		.cfi_offset 4, -8
 1416              		.cfi_offset 14, -4
 1417              		.loc 1 505 17 view .LVU456
 1418 000c C468     		ldr	r4, [r0, #12]
 1419              		.loc 1 505 24 view .LVU457
 1420 000e 201D     		adds	r0, r4, #4
 1421              	.LVL85:
 1422              		.loc 1 505 13 view .LVU458
 1423 0010 2468     		ldr	r4, [r4]
 1424              		.loc 1 505 24 view .LVU459
 1425 0012 D860     		str	r0, [r3, #12]
ARM GAS  C:\Users\DEVELO~1\AppData\Local\Temp\ccFUw92r.s 			page 26


 1426              		.loc 1 505 11 view .LVU460
 1427 0014 0C60     		str	r4, [r1]
 1428              		.loc 1 506 5 is_stmt 1 view .LVU461
 1429              		.loc 1 506 8 is_stmt 0 view .LVU462
 1430 0016 5968     		ldr	r1, [r3, #4]
 1431              	.LVL86:
 1432              		.loc 1 506 8 view .LVU463
 1433 0018 8842     		cmp	r0, r1
 1434 001a 01D3     		bcc	.L71
 1435              		.loc 1 507 7 is_stmt 1 view .LVU464
 1436              		.loc 1 507 18 is_stmt 0 view .LVU465
 1437 001c 1968     		ldr	r1, [r3]
 1438 001e D960     		str	r1, [r3, #12]
 1439              	.L71:
 1440              		.loc 1 509 5 is_stmt 1 view .LVU466
 1441              		.loc 1 509 13 is_stmt 0 view .LVU467
 1442 0020 013A     		subs	r2, r2, #1
 1443              		.loc 1 512 5 view .LVU468
 1444 0022 03F11800 		add	r0, r3, #24
 1445 0026 0021     		movs	r1, #0
 1446              		.loc 1 509 13 view .LVU469
 1447 0028 1A61     		str	r2, [r3, #16]
 1448              		.loc 1 512 5 is_stmt 1 view .LVU470
 1449 002a FFF7FEFF 		bl	chThdDequeueNextI
 1450              	.LVL87:
 1451              		.loc 1 514 5 view .LVU471
 1452              		.loc 1 514 12 is_stmt 0 view .LVU472
 1453 002e 0020     		movs	r0, #0
 1454              		.loc 1 519 1 view .LVU473
 1455 0030 10BD     		pop	{r4, pc}
 1456              	.LVL88:
 1457              	.L73:
 1458              		.cfi_def_cfa_offset 0
 1459              		.cfi_restore 4
 1460              		.cfi_restore 14
 1461              		.loc 1 518 10 view .LVU474
 1462 0032 4FF0FF30 		mov	r0, #-1
 1463              	.LVL89:
 1464              		.loc 1 519 1 view .LVU475
 1465 0036 7047     		bx	lr
 1466              	.LVL90:
 1467              	.L72:
 1468              		.loc 1 500 12 view .LVU476
 1469 0038 6FF00100 		mvn	r0, #1
 1470              	.LVL91:
 1471              		.loc 1 500 12 view .LVU477
 1472 003c 7047     		bx	lr
 1473              		.cfi_endproc
 1474              	.LFE357:
 1475              		.size	chMBFetchI, .-chMBFetchI
 1476 003e 00BF     		.text
 1477              	.Letext0:
 1478              		.file 8 "c:\\chibistudio\\tools\\gnu tools arm embedded\\11.3 2022.08\\lib\\gcc\\arm-none-eabi\\11
 1479              		.file 9 "c:\\chibistudio\\tools\\gnu tools arm embedded\\11.3 2022.08\\arm-none-eabi\\include\\mac
 1480              		.file 10 "c:\\chibistudio\\tools\\gnu tools arm embedded\\11.3 2022.08\\arm-none-eabi\\include\\sy
 1481              		.file 11 "../../../os/rt/include/chearly.h"
 1482              		.file 12 "../../../os/rt/include/chtime.h"
ARM GAS  C:\Users\DEVELO~1\AppData\Local\Temp\ccFUw92r.s 			page 27


 1483              		.file 13 "../../../os/rt/include/chobjects.h"
 1484              		.file 14 "../../../os/rt/include/chschd.h"