ARM GAS  C:\Users\DEVELO~1\AppData\Local\Temp\ccPrsKAx.s 			page 1


   1              		.cpu cortex-m7
   2              		.arch armv7e-m
   3              		.fpu softvfp
   4              		.eabi_attribute 20, 1
   5              		.eabi_attribute 21, 1
   6              		.eabi_attribute 23, 3
   7              		.eabi_attribute 24, 1
   8              		.eabi_attribute 25, 1
   9              		.eabi_attribute 26, 1
  10              		.eabi_attribute 30, 2
  11              		.eabi_attribute 34, 1
  12              		.eabi_attribute 18, 4
  13              		.file	"chmempools.c"
  14              		.text
  15              	.Ltext0:
  16              		.cfi_sections	.debug_frame
  17              		.section	.text.chPoolObjectInitAligned,"ax",%progbits
  18              		.align	1
  19              		.p2align 4,,15
  20              		.global	chPoolObjectInitAligned
  21              		.syntax unified
  22              		.thumb
  23              		.thumb_func
  24              		.type	chPoolObjectInitAligned, %function
  25              	chPoolObjectInitAligned:
  26              	.LVL0:
  27              	.LFB346:
  28              		.file 1 "../../../os/oslib/src/chmempools.c"
  29              		.loc 1 78 69 view -0
  30              		.cfi_startproc
  31              		@ args = 0, pretend = 0, frame = 0
  32              		@ frame_needed = 0, uses_anonymous_args = 0
  33              		@ link register save eliminated.
  34              		.loc 1 80 3 view .LVU1
  35              		.loc 1 80 3 view .LVU2
  36              		.loc 1 80 3 view .LVU3
  37              		.loc 1 85 3 view .LVU4
  38              		.loc 1 78 69 is_stmt 0 view .LVU5
  39 0000 10B4     		push	{r4}
  40              		.cfi_def_cfa_offset 4
  41              		.cfi_offset 4, -4
  42              		.loc 1 85 12 view .LVU6
  43 0002 0024     		movs	r4, #0
  44              		.loc 1 88 16 view .LVU7
  45 0004 C0E90223 		strd	r2, r3, [r0, #8]
  46              		.loc 1 85 12 view .LVU8
  47 0008 C0E90041 		strd	r4, r1, [r0]
  48              		.loc 1 86 3 is_stmt 1 view .LVU9
  49              		.loc 1 87 3 view .LVU10
  50              		.loc 1 89 1 is_stmt 0 view .LVU11
  51 000c 10BC     		pop	{r4}
  52              		.cfi_restore 4
  53              		.cfi_def_cfa_offset 0
  54 000e 7047     		bx	lr
  55              		.cfi_endproc
  56              	.LFE346:
  57              		.size	chPoolObjectInitAligned, .-chPoolObjectInitAligned
ARM GAS  C:\Users\DEVELO~1\AppData\Local\Temp\ccPrsKAx.s 			page 2


  58              		.section	.text.chPoolLoadArray,"ax",%progbits
  59              		.align	1
  60              		.p2align 4,,15
  61              		.global	chPoolLoadArray
  62              		.syntax unified
  63              		.thumb
  64              		.thumb_func
  65              		.type	chPoolLoadArray, %function
  66              	chPoolLoadArray:
  67              	.LVL1:
  68              	.LFB347:
  69              		.loc 1 106 60 is_stmt 1 view -0
  70              		.cfi_startproc
  71              		@ args = 0, pretend = 0, frame = 0
  72              		@ frame_needed = 0, uses_anonymous_args = 0
  73              		.loc 1 108 3 view .LVU13
  74              		.loc 1 108 3 view .LVU14
  75              		.loc 1 108 3 view .LVU15
  76              		.loc 1 110 3 view .LVU16
  77              		.loc 1 110 12 view .LVU17
  78 0000 8AB1     		cbz	r2, .L12
  79              	.LBB93:
  80              	.LBB94:
  81              	.LBB95:
  82              	.LBB96:
  83              	.LBB97:
  84              	.LBB98:
  85              	.LBB99:
  86              		.file 2 "../../../os/common/ext/ARM/CMSIS/Core/Include/cmsis_gcc.h"
  87              		.loc 2 493 3 is_stmt 0 view .LVU18
  88 0002 4FF0000C 		mov	ip, #0
  89              	.LBE99:
  90              	.LBE98:
  91              	.LBE97:
  92              	.LBE96:
  93              	.LBE95:
  94              	.LBE94:
  95              	.LBE93:
  96              		.loc 1 106 60 view .LVU19
  97 0006 00B5     		push	{lr}
  98              		.cfi_def_cfa_offset 4
  99              		.cfi_offset 14, -4
 100              	.LBB117:
 101              	.LBB115:
 102              	.LBB104:
 103              	.LBB105:
 104              	.LBB106:
 105              	.LBB107:
 106              		.loc 2 493 3 view .LVU20
 107 0008 4FF0300E 		mov	lr, #48
 108              	.LVL2:
 109              	.L6:
 110              		.loc 2 493 3 view .LVU21
 111              	.LBE107:
 112              	.LBE106:
 113              	.LBE105:
 114              	.LBE104:
ARM GAS  C:\Users\DEVELO~1\AppData\Local\Temp\ccPrsKAx.s 			page 3


 115              	.LBE115:
 116              	.LBE117:
 117              		.loc 1 111 5 is_stmt 1 view .LVU22
 118              	.LBB118:
 119              	.LBI93:
 120              		.file 3 "../../../os/oslib/include/chmempools.h"
 121              		.loc 3 210 20 view .LVU23
 122              		.loc 3 212 3 view .LVU24
 123              	.LBB116:
 124              	.LBI94:
 125              		.loc 1 207 6 view .LVU25
 126              		.loc 1 209 3 view .LVU26
 127              	.LBB111:
 128              	.LBI104:
 129              		.file 4 "../../../os/rt/include/chsys.h"
 130              		.loc 4 407 20 view .LVU27
 131              		.loc 4 409 3 view .LVU28
 132              	.LBB110:
 133              	.LBI105:
 134              		.file 5 "../../../os/common/ports/ARMv7-M/chcore.h"
 135              		.loc 5 823 27 view .LVU29
 136              		.loc 5 831 3 view .LVU30
 137              	.LBB109:
 138              	.LBI106:
 139              		.loc 2 491 27 view .LVU31
 140              	.LBB108:
 141              		.loc 2 493 3 view .LVU32
 142              		.syntax unified
 143              	@ 493 "../../../os/common/ext/ARM/CMSIS/Core/Include/cmsis_gcc.h" 1
 144 000c 8EF31188 		MSR basepri, lr
 145              	@ 0 "" 2
 146              	.LVL3:
 147              		.loc 2 493 3 is_stmt 0 view .LVU33
 148              		.thumb
 149              		.syntax unified
 150              	.LBE108:
 151              	.LBE109:
 152              	.LBE110:
 153              		.loc 4 410 35 is_stmt 1 view .LVU34
 154              		.loc 4 411 21 view .LVU35
 155              	.LBE111:
 156              		.loc 1 210 3 view .LVU36
 157              	.LBB112:
 158              	.LBI112:
 159              		.loc 1 183 6 view .LVU37
 160              	.LBB113:
 161              		.loc 1 184 3 view .LVU38
 162              		.loc 1 186 21 view .LVU39
 163              		.loc 1 187 3 view .LVU40
 164              		.loc 1 187 3 view .LVU41
 165              		.loc 1 187 3 view .LVU42
 166              		.loc 1 191 3 view .LVU43
 167              		.loc 1 191 13 is_stmt 0 view .LVU44
 168 0010 0368     		ldr	r3, [r0]
 169 0012 0B60     		str	r3, [r1]
 170              		.loc 1 192 3 is_stmt 1 view .LVU45
 171              		.loc 1 192 12 is_stmt 0 view .LVU46
ARM GAS  C:\Users\DEVELO~1\AppData\Local\Temp\ccPrsKAx.s 			page 4


 172 0014 0160     		str	r1, [r0]
 173              	.LVL4:
 174              		.loc 1 192 12 view .LVU47
 175              	.LBE113:
 176              	.LBE112:
 177              		.loc 1 211 3 is_stmt 1 view .LVU48
 178              	.LBB114:
 179              	.LBI95:
 180              		.loc 4 421 20 view .LVU49
 181              	.LBB103:
 182              		.loc 4 423 23 view .LVU50
 183              		.loc 4 424 34 view .LVU51
 184              		.loc 4 430 3 view .LVU52
 185              		.loc 4 430 3 view .LVU53
 186              		.loc 4 430 3 view .LVU54
 187              		.loc 4 434 3 view .LVU55
 188              	.LBB102:
 189              	.LBI97:
 190              		.loc 5 847 27 view .LVU56
 191              		.loc 5 850 3 view .LVU57
 192              	.LBB101:
 193              	.LBI98:
 194              		.loc 2 491 27 view .LVU58
 195              	.LBB100:
 196              		.loc 2 493 3 view .LVU59
 197              		.syntax unified
 198              	@ 493 "../../../os/common/ext/ARM/CMSIS/Core/Include/cmsis_gcc.h" 1
 199 0016 8CF31188 		MSR basepri, ip
 200              	@ 0 "" 2
 201              	.LVL5:
 202              		.loc 2 493 3 is_stmt 0 view .LVU60
 203              		.thumb
 204              		.syntax unified
 205              	.LBE100:
 206              	.LBE101:
 207              	.LBE102:
 208              	.LBE103:
 209              	.LBE114:
 210              	.LBE116:
 211              	.LBE118:
 212              		.loc 1 113 5 is_stmt 1 view .LVU61
 213              		.loc 1 113 7 is_stmt 0 view .LVU62
 214 001a 4368     		ldr	r3, [r0, #4]
 215              		.loc 1 110 12 view .LVU63
 216 001c 013A     		subs	r2, r2, #1
 217              	.LVL6:
 218              		.loc 1 113 7 view .LVU64
 219 001e 1944     		add	r1, r1, r3
 220              	.LVL7:
 221              		.loc 1 115 5 is_stmt 1 view .LVU65
 222              		.loc 1 110 12 view .LVU66
 223 0020 F4D1     		bne	.L6
 224              		.loc 1 117 1 is_stmt 0 view .LVU67
 225 0022 5DF804FB 		ldr	pc, [sp], #4
 226              	.LVL8:
 227              	.L12:
 228              		.cfi_def_cfa_offset 0
ARM GAS  C:\Users\DEVELO~1\AppData\Local\Temp\ccPrsKAx.s 			page 5


 229              		.cfi_restore 14
 230              		.loc 1 117 1 view .LVU68
 231 0026 7047     		bx	lr
 232              		.cfi_endproc
 233              	.LFE347:
 234              		.size	chPoolLoadArray, .-chPoolLoadArray
 235              		.section	.text.chPoolAllocI,"ax",%progbits
 236              		.align	1
 237              		.p2align 4,,15
 238              		.global	chPoolAllocI
 239              		.syntax unified
 240              		.thumb
 241              		.thumb_func
 242              		.type	chPoolAllocI, %function
 243              	chPoolAllocI:
 244              	.LVL9:
 245              	.LFB348:
 246              		.loc 1 129 39 is_stmt 1 view -0
 247              		.cfi_startproc
 248              		@ args = 0, pretend = 0, frame = 0
 249              		@ frame_needed = 0, uses_anonymous_args = 0
 250              		@ link register save eliminated.
 251              		.loc 1 130 3 view .LVU70
 252              		.loc 1 132 21 view .LVU71
 253              		.loc 1 133 3 view .LVU72
 254              		.loc 1 133 3 view .LVU73
 255              		.loc 1 133 3 view .LVU74
 256              		.loc 1 135 3 view .LVU75
 257              		.loc 1 129 39 is_stmt 0 view .LVU76
 258 0000 0346     		mov	r3, r0
 259              		.loc 1 135 8 view .LVU77
 260 0002 0068     		ldr	r0, [r0]
 261              	.LVL10:
 262              		.loc 1 137 3 is_stmt 1 view .LVU78
 263              		.loc 1 137 6 is_stmt 0 view .LVU79
 264 0004 10B1     		cbz	r0, .L16
 265              		.loc 1 138 5 is_stmt 1 view .LVU80
 266              		.loc 1 138 14 is_stmt 0 view .LVU81
 267 0006 0268     		ldr	r2, [r0]
 268 0008 1A60     		str	r2, [r3]
 269 000a 7047     		bx	lr
 270              	.L16:
 271              	.LVL11:
 272              	.LBB121:
 273              	.LBI121:
 274              		.loc 1 129 7 is_stmt 1 view .LVU82
 275              	.LBB122:
 276              		.loc 1 140 8 view .LVU83
 277              		.loc 1 140 14 is_stmt 0 view .LVU84
 278 000c DA68     		ldr	r2, [r3, #12]
 279              		.loc 1 140 11 view .LVU85
 280 000e 12B1     		cbz	r2, .L15
 281              		.loc 1 141 5 is_stmt 1 view .LVU86
 282              		.loc 1 141 12 is_stmt 0 view .LVU87
 283 0010 D3E90101 		ldrd	r0, r1, [r3, #4]
 284              	.LVL12:
 285              		.loc 1 141 12 view .LVU88
ARM GAS  C:\Users\DEVELO~1\AppData\Local\Temp\ccPrsKAx.s 			page 6


 286 0014 1047     		bx	r2
 287              	.LVL13:
 288              	.L15:
 289              		.loc 1 141 12 view .LVU89
 290              	.LBE122:
 291              	.LBE121:
 292              		.loc 1 149 1 view .LVU90
 293 0016 7047     		bx	lr
 294              		.cfi_endproc
 295              	.LFE348:
 296              		.size	chPoolAllocI, .-chPoolAllocI
 297              		.section	.text.chPoolAlloc,"ax",%progbits
 298              		.align	1
 299              		.p2align 4,,15
 300              		.global	chPoolAlloc
 301              		.syntax unified
 302              		.thumb
 303              		.thumb_func
 304              		.type	chPoolAlloc, %function
 305              	chPoolAlloc:
 306              	.LVL14:
 307              	.LFB349:
 308              		.loc 1 161 38 is_stmt 1 view -0
 309              		.cfi_startproc
 310              		@ args = 0, pretend = 0, frame = 0
 311              		@ frame_needed = 0, uses_anonymous_args = 0
 312              		.loc 1 162 3 view .LVU92
 313              		.loc 1 164 3 view .LVU93
 314              	.LBB136:
 315              	.LBI136:
 316              		.loc 4 407 20 view .LVU94
 317              		.loc 4 409 3 view .LVU95
 318              	.LBB137:
 319              	.LBI137:
 320              		.loc 5 823 27 view .LVU96
 321              		.loc 5 831 3 view .LVU97
 322              	.LBB138:
 323              	.LBI138:
 324              		.loc 2 491 27 view .LVU98
 325              	.LBB139:
 326              		.loc 2 493 3 view .LVU99
 327              	.LBE139:
 328              	.LBE138:
 329              	.LBE137:
 330              	.LBE136:
 331              		.loc 1 161 38 is_stmt 0 view .LVU100
 332 0000 08B5     		push	{r3, lr}
 333              		.cfi_def_cfa_offset 8
 334              		.cfi_offset 3, -8
 335              		.cfi_offset 14, -4
 336              	.LBB146:
 337              	.LBB144:
 338              	.LBB142:
 339              	.LBB140:
 340              		.loc 2 493 3 view .LVU101
 341 0002 3022     		movs	r2, #48
 342              	.LBE140:
ARM GAS  C:\Users\DEVELO~1\AppData\Local\Temp\ccPrsKAx.s 			page 7


 343              	.LBE142:
 344              	.LBE144:
 345              	.LBE146:
 346              		.loc 1 161 38 view .LVU102
 347 0004 0346     		mov	r3, r0
 348              	.LBB147:
 349              	.LBB145:
 350              	.LBB143:
 351              	.LBB141:
 352              		.loc 2 493 3 view .LVU103
 353              		.syntax unified
 354              	@ 493 "../../../os/common/ext/ARM/CMSIS/Core/Include/cmsis_gcc.h" 1
 355 0006 82F31188 		MSR basepri, r2
 356              	@ 0 "" 2
 357              	.LVL15:
 358              		.loc 2 493 3 view .LVU104
 359              		.thumb
 360              		.syntax unified
 361              	.LBE141:
 362              	.LBE143:
 363              	.LBE145:
 364              		.loc 4 410 35 is_stmt 1 view .LVU105
 365              		.loc 4 411 21 view .LVU106
 366              	.LBE147:
 367              		.loc 1 165 3 view .LVU107
 368              	.LBB148:
 369              	.LBI148:
 370              		.loc 1 129 7 view .LVU108
 371              	.LBB149:
 372              		.loc 1 130 3 view .LVU109
 373              		.loc 1 132 21 view .LVU110
 374              		.loc 1 133 3 view .LVU111
 375              		.loc 1 133 3 view .LVU112
 376              		.loc 1 133 3 view .LVU113
 377              		.loc 1 135 3 view .LVU114
 378              		.loc 1 135 8 is_stmt 0 view .LVU115
 379 000a 0068     		ldr	r0, [r0]
 380              	.LVL16:
 381              		.loc 1 137 3 is_stmt 1 view .LVU116
 382              		.loc 1 137 6 is_stmt 0 view .LVU117
 383 000c 28B1     		cbz	r0, .L22
 384              		.loc 1 138 5 is_stmt 1 view .LVU118
 385              		.loc 1 138 14 is_stmt 0 view .LVU119
 386 000e 0268     		ldr	r2, [r0]
 387 0010 1A60     		str	r2, [r3]
 388              	.L23:
 389              		.loc 1 143 5 is_stmt 1 view .LVU120
 390              		.loc 1 148 3 view .LVU121
 391              	.LVL17:
 392              		.loc 1 148 3 is_stmt 0 view .LVU122
 393              	.LBE149:
 394              	.LBE148:
 395              		.loc 1 166 3 is_stmt 1 view .LVU123
 396              	.LBB153:
 397              	.LBI153:
 398              		.loc 4 421 20 view .LVU124
 399              	.LBB154:
ARM GAS  C:\Users\DEVELO~1\AppData\Local\Temp\ccPrsKAx.s 			page 8


 400              		.loc 4 423 23 view .LVU125
 401              		.loc 4 424 34 view .LVU126
 402              		.loc 4 430 3 view .LVU127
 403              		.loc 4 430 3 view .LVU128
 404              		.loc 4 430 3 view .LVU129
 405              		.loc 4 434 3 view .LVU130
 406              	.LBB155:
 407              	.LBI155:
 408              		.loc 5 847 27 view .LVU131
 409              		.loc 5 850 3 view .LVU132
 410              	.LBB156:
 411              	.LBI156:
 412              		.loc 2 491 27 view .LVU133
 413              	.LBB157:
 414              		.loc 2 493 3 view .LVU134
 415 0012 0023     		movs	r3, #0
 416              	.LVL18:
 417              		.loc 2 493 3 is_stmt 0 view .LVU135
 418              		.syntax unified
 419              	@ 493 "../../../os/common/ext/ARM/CMSIS/Core/Include/cmsis_gcc.h" 1
 420 0014 83F31188 		MSR basepri, r3
 421              	@ 0 "" 2
 422              	.LVL19:
 423              		.loc 2 493 3 view .LVU136
 424              		.thumb
 425              		.syntax unified
 426              	.LBE157:
 427              	.LBE156:
 428              	.LBE155:
 429              	.LBE154:
 430              	.LBE153:
 431              		.loc 1 168 3 is_stmt 1 view .LVU137
 432              		.loc 1 169 1 is_stmt 0 view .LVU138
 433 0018 08BD     		pop	{r3, pc}
 434              	.LVL20:
 435              	.L22:
 436              	.LBB162:
 437              	.LBB152:
 438              	.LBB150:
 439              	.LBI150:
 440              		.loc 1 129 7 is_stmt 1 view .LVU139
 441              	.LBB151:
 442              		.loc 1 140 8 view .LVU140
 443              		.loc 1 140 14 is_stmt 0 view .LVU141
 444 001a DA68     		ldr	r2, [r3, #12]
 445              		.loc 1 140 11 view .LVU142
 446 001c 002A     		cmp	r2, #0
 447 001e F8D0     		beq	.L23
 448              		.loc 1 141 5 is_stmt 1 view .LVU143
 449              		.loc 1 141 12 is_stmt 0 view .LVU144
 450 0020 D3E90101 		ldrd	r0, r1, [r3, #4]
 451              	.LVL21:
 452              		.loc 1 141 12 view .LVU145
 453 0024 9047     		blx	r2
 454              	.LVL22:
 455              		.loc 1 143 5 is_stmt 1 view .LVU146
 456              		.loc 1 143 5 view .LVU147
ARM GAS  C:\Users\DEVELO~1\AppData\Local\Temp\ccPrsKAx.s 			page 9


 457              		.loc 1 143 5 is_stmt 0 view .LVU148
 458              	.LBE151:
 459              	.LBE150:
 460              		.loc 1 143 5 is_stmt 1 view .LVU149
 461              		.loc 1 148 3 view .LVU150
 462              		.loc 1 148 3 is_stmt 0 view .LVU151
 463              	.LBE152:
 464              	.LBE162:
 465              		.loc 1 166 3 is_stmt 1 view .LVU152
 466              	.LBB163:
 467              		.loc 4 421 20 view .LVU153
 468              	.LBB161:
 469              		.loc 4 423 23 view .LVU154
 470              		.loc 4 424 34 view .LVU155
 471              		.loc 4 430 3 view .LVU156
 472              		.loc 4 430 3 view .LVU157
 473              		.loc 4 430 3 view .LVU158
 474              		.loc 4 434 3 view .LVU159
 475              	.LBB160:
 476              		.loc 5 847 27 view .LVU160
 477              		.loc 5 850 3 view .LVU161
 478              	.LBB159:
 479              		.loc 2 491 27 view .LVU162
 480              	.LBB158:
 481              		.loc 2 493 3 view .LVU163
 482 0026 0023     		movs	r3, #0
 483              		.syntax unified
 484              	@ 493 "../../../os/common/ext/ARM/CMSIS/Core/Include/cmsis_gcc.h" 1
 485 0028 83F31188 		MSR basepri, r3
 486              	@ 0 "" 2
 487              	.LVL23:
 488              		.loc 2 493 3 is_stmt 0 view .LVU164
 489              		.thumb
 490              		.syntax unified
 491              	.LBE158:
 492              	.LBE159:
 493              	.LBE160:
 494              	.LBE161:
 495              	.LBE163:
 496              		.loc 1 168 3 is_stmt 1 view .LVU165
 497              		.loc 1 169 1 is_stmt 0 view .LVU166
 498 002c 08BD     		pop	{r3, pc}
 499              		.cfi_endproc
 500              	.LFE349:
 501              		.size	chPoolAlloc, .-chPoolAlloc
 502 002e 00BF     		.section	.text.chPoolFreeI,"ax",%progbits
 503              		.align	1
 504              		.p2align 4,,15
 505              		.global	chPoolFreeI
 506              		.syntax unified
 507              		.thumb
 508              		.thumb_func
 509              		.type	chPoolFreeI, %function
 510              	chPoolFreeI:
 511              	.LVL24:
 512              	.LFB350:
 513              		.loc 1 183 49 is_stmt 1 view -0
ARM GAS  C:\Users\DEVELO~1\AppData\Local\Temp\ccPrsKAx.s 			page 10


 514              		.cfi_startproc
 515              		@ args = 0, pretend = 0, frame = 0
 516              		@ frame_needed = 0, uses_anonymous_args = 0
 517              		@ link register save eliminated.
 518              		.loc 1 184 3 view .LVU168
 519              		.loc 1 186 21 view .LVU169
 520              		.loc 1 187 3 view .LVU170
 521              		.loc 1 187 3 view .LVU171
 522              		.loc 1 187 3 view .LVU172
 523              		.loc 1 191 3 view .LVU173
 524              		.loc 1 191 13 is_stmt 0 view .LVU174
 525 0000 0368     		ldr	r3, [r0]
 526 0002 0B60     		str	r3, [r1]
 527              		.loc 1 192 3 is_stmt 1 view .LVU175
 528              		.loc 1 192 12 is_stmt 0 view .LVU176
 529 0004 0160     		str	r1, [r0]
 530              		.loc 1 193 1 view .LVU177
 531 0006 7047     		bx	lr
 532              		.cfi_endproc
 533              	.LFE350:
 534              		.size	chPoolFreeI, .-chPoolFreeI
 535              		.section	.text.chPoolFree,"ax",%progbits
 536              		.align	1
 537              		.p2align 4,,15
 538              		.global	chPoolFree
 539              		.syntax unified
 540              		.thumb
 541              		.thumb_func
 542              		.type	chPoolFree, %function
 543              	chPoolFree:
 544              	.LVL25:
 545              	.LFB351:
 546              		.loc 1 207 48 is_stmt 1 view -0
 547              		.cfi_startproc
 548              		@ args = 0, pretend = 0, frame = 0
 549              		@ frame_needed = 0, uses_anonymous_args = 0
 550              		@ link register save eliminated.
 551              		.loc 1 209 3 view .LVU179
 552              	.LBB164:
 553              	.LBI164:
 554              		.loc 4 407 20 view .LVU180
 555              		.loc 4 409 3 view .LVU181
 556              	.LBB165:
 557              	.LBI165:
 558              		.loc 5 823 27 view .LVU182
 559              		.loc 5 831 3 view .LVU183
 560              	.LBB166:
 561              	.LBI166:
 562              		.loc 2 491 27 view .LVU184
 563              	.LBB167:
 564              		.loc 2 493 3 view .LVU185
 565 0000 3023     		movs	r3, #48
 566              		.syntax unified
 567              	@ 493 "../../../os/common/ext/ARM/CMSIS/Core/Include/cmsis_gcc.h" 1
 568 0002 83F31188 		MSR basepri, r3
 569              	@ 0 "" 2
 570              	.LVL26:
ARM GAS  C:\Users\DEVELO~1\AppData\Local\Temp\ccPrsKAx.s 			page 11


 571              		.loc 2 493 3 is_stmt 0 view .LVU186
 572              		.thumb
 573              		.syntax unified
 574              	.LBE167:
 575              	.LBE166:
 576              	.LBE165:
 577              		.loc 4 410 35 is_stmt 1 view .LVU187
 578              		.loc 4 411 21 view .LVU188
 579              	.LBE164:
 580              		.loc 1 210 3 view .LVU189
 581              	.LBB168:
 582              	.LBI168:
 583              		.loc 1 183 6 view .LVU190
 584              	.LBB169:
 585              		.loc 1 184 3 view .LVU191
 586              		.loc 1 186 21 view .LVU192
 587              		.loc 1 187 3 view .LVU193
 588              		.loc 1 187 3 view .LVU194
 589              		.loc 1 187 3 view .LVU195
 590              		.loc 1 191 3 view .LVU196
 591              		.loc 1 191 13 is_stmt 0 view .LVU197
 592 0006 0268     		ldr	r2, [r0]
 593              	.LBE169:
 594              	.LBE168:
 595              	.LBB171:
 596              	.LBB172:
 597              	.LBB173:
 598              	.LBB174:
 599              	.LBB175:
 600              		.loc 2 493 3 view .LVU198
 601 0008 0023     		movs	r3, #0
 602              	.LBE175:
 603              	.LBE174:
 604              	.LBE173:
 605              	.LBE172:
 606              	.LBE171:
 607              	.LBB180:
 608              	.LBB170:
 609              		.loc 1 191 13 view .LVU199
 610 000a 0A60     		str	r2, [r1]
 611              		.loc 1 192 3 is_stmt 1 view .LVU200
 612              		.loc 1 192 12 is_stmt 0 view .LVU201
 613 000c 0160     		str	r1, [r0]
 614              	.LVL27:
 615              		.loc 1 192 12 view .LVU202
 616              	.LBE170:
 617              	.LBE180:
 618              		.loc 1 211 3 is_stmt 1 view .LVU203
 619              	.LBB181:
 620              	.LBI171:
 621              		.loc 4 421 20 view .LVU204
 622              	.LBB179:
 623              		.loc 4 423 23 view .LVU205
 624              		.loc 4 424 34 view .LVU206
 625              		.loc 4 430 3 view .LVU207
 626              		.loc 4 430 3 view .LVU208
 627              		.loc 4 430 3 view .LVU209
ARM GAS  C:\Users\DEVELO~1\AppData\Local\Temp\ccPrsKAx.s 			page 12


 628              		.loc 4 434 3 view .LVU210
 629              	.LBB178:
 630              	.LBI173:
 631              		.loc 5 847 27 view .LVU211
 632              		.loc 5 850 3 view .LVU212
 633              	.LBB177:
 634              	.LBI174:
 635              		.loc 2 491 27 view .LVU213
 636              	.LBB176:
 637              		.loc 2 493 3 view .LVU214
 638              		.syntax unified
 639              	@ 493 "../../../os/common/ext/ARM/CMSIS/Core/Include/cmsis_gcc.h" 1
 640 000e 83F31188 		MSR basepri, r3
 641              	@ 0 "" 2
 642              	.LVL28:
 643              		.loc 2 493 3 is_stmt 0 view .LVU215
 644              		.thumb
 645              		.syntax unified
 646              	.LBE176:
 647              	.LBE177:
 648              	.LBE178:
 649              	.LBE179:
 650              	.LBE181:
 651              		.loc 1 212 1 view .LVU216
 652 0012 7047     		bx	lr
 653              		.cfi_endproc
 654              	.LFE351:
 655              		.size	chPoolFree, .-chPoolFree
 656              		.section	.text.chGuardedPoolObjectInitAligned,"ax",%progbits
 657              		.align	1
 658              		.p2align 4,,15
 659              		.global	chGuardedPoolObjectInitAligned
 660              		.syntax unified
 661              		.thumb
 662              		.thumb_func
 663              		.type	chGuardedPoolObjectInitAligned, %function
 664              	chGuardedPoolObjectInitAligned:
 665              	.LVL29:
 666              	.LFB352:
 667              		.loc 1 228 53 is_stmt 1 view -0
 668              		.cfi_startproc
 669              		@ args = 0, pretend = 0, frame = 0
 670              		@ frame_needed = 0, uses_anonymous_args = 0
 671              		@ link register save eliminated.
 672              		.loc 1 230 3 view .LVU218
 673              		.loc 1 228 53 is_stmt 0 view .LVU219
 674 0000 10B4     		push	{r4}
 675              		.cfi_def_cfa_offset 4
 676              		.cfi_offset 4, -4
 677              	.LBB182:
 678              	.LBB183:
 679              		.loc 1 85 12 view .LVU220
 680 0002 0024     		movs	r4, #0
 681              	.LVL30:
 682              		.loc 1 85 12 view .LVU221
 683              	.LBE183:
 684              	.LBI182:
ARM GAS  C:\Users\DEVELO~1\AppData\Local\Temp\ccPrsKAx.s 			page 13


 685              		.loc 1 77 6 is_stmt 1 view .LVU222
 686              	.LBB184:
 687              		.loc 1 80 3 view .LVU223
 688              		.loc 1 80 3 view .LVU224
 689              		.loc 1 80 3 view .LVU225
 690              		.loc 1 85 3 view .LVU226
 691              		.loc 1 86 19 is_stmt 0 view .LVU227
 692 0004 C0E90341 		strd	r4, r1, [r0, #12]
 693              		.loc 1 87 3 is_stmt 1 view .LVU228
 694              		.loc 1 88 16 is_stmt 0 view .LVU229
 695 0008 C0E90524 		strd	r2, r4, [r0, #20]
 696              	.LVL31:
 697              		.loc 1 88 16 view .LVU230
 698              	.LBE184:
 699              	.LBE182:
 700              		.loc 1 231 3 is_stmt 1 view .LVU231
 701 000c 2146     		mov	r1, r4
 702              	.LVL32:
 703              		.loc 1 232 1 is_stmt 0 view .LVU232
 704 000e 10BC     		pop	{r4}
 705              		.cfi_restore 4
 706              		.cfi_def_cfa_offset 0
 707              		.loc 1 231 3 view .LVU233
 708 0010 FFF7FEBF 		b	chSemObjectInit
 709              	.LVL33:
 710              		.loc 1 231 3 view .LVU234
 711              		.cfi_endproc
 712              	.LFE352:
 713              		.size	chGuardedPoolObjectInitAligned, .-chGuardedPoolObjectInitAligned
 714              		.section	.text.chGuardedPoolLoadArray,"ax",%progbits
 715              		.align	1
 716              		.p2align 4,,15
 717              		.global	chGuardedPoolLoadArray
 718              		.syntax unified
 719              		.thumb
 720              		.thumb_func
 721              		.type	chGuardedPoolLoadArray, %function
 722              	chGuardedPoolLoadArray:
 723              	.LVL34:
 724              	.LFB353:
 725              		.loc 1 247 76 is_stmt 1 view -0
 726              		.cfi_startproc
 727              		@ args = 0, pretend = 0, frame = 0
 728              		@ frame_needed = 0, uses_anonymous_args = 0
 729              		.loc 1 249 3 view .LVU236
 730              		.loc 1 249 3 view .LVU237
 731              		.loc 1 249 3 view .LVU238
 732              		.loc 1 251 3 view .LVU239
 733              		.loc 1 251 12 view .LVU240
 734 0000 CAB1     		cbz	r2, .L38
 735              		.loc 1 247 76 is_stmt 0 view .LVU241
 736 0002 2DE9F041 		push	{r4, r5, r6, r7, r8, lr}
 737              		.cfi_def_cfa_offset 24
 738              		.cfi_offset 4, -24
 739              		.cfi_offset 5, -20
 740              		.cfi_offset 6, -16
 741              		.cfi_offset 7, -12
ARM GAS  C:\Users\DEVELO~1\AppData\Local\Temp\ccPrsKAx.s 			page 14


 742              		.cfi_offset 8, -8
 743              		.cfi_offset 14, -4
 744 0006 0446     		mov	r4, r0
 745 0008 0D46     		mov	r5, r1
 746 000a 1646     		mov	r6, r2
 747              	.LBB202:
 748              	.LBB203:
 749              	.LBB204:
 750              	.LBB205:
 751              	.LBB206:
 752              	.LBB207:
 753              	.LBB208:
 754              		.loc 2 493 3 view .LVU242
 755 000c 4FF03008 		mov	r8, #48
 756              	.LBE208:
 757              	.LBE207:
 758              	.LBE206:
 759              	.LBE205:
 760              	.LBB212:
 761              	.LBB213:
 762              	.LBB214:
 763              	.LBB215:
 764              	.LBB216:
 765 0010 0027     		movs	r7, #0
 766              	.LVL35:
 767              	.L34:
 768              		.loc 2 493 3 view .LVU243
 769              	.LBE216:
 770              	.LBE215:
 771              	.LBE214:
 772              	.LBE213:
 773              	.LBE212:
 774              	.LBE204:
 775              	.LBE203:
 776              	.LBE202:
 777              		.loc 1 252 5 is_stmt 1 view .LVU244
 778              	.LBB231:
 779              	.LBI202:
 780              		.loc 3 340 20 view .LVU245
 781              		.loc 3 342 3 view .LVU246
 782              	.LBB230:
 783              	.LBI203:
 784              		.loc 1 325 6 view .LVU247
 785              	.LBB229:
 786              		.loc 1 327 3 view .LVU248
 787              	.LBB221:
 788              	.LBI205:
 789              		.loc 4 407 20 view .LVU249
 790              		.loc 4 409 3 view .LVU250
 791              	.LBB211:
 792              	.LBI206:
 793              		.loc 5 823 27 view .LVU251
 794              		.loc 5 831 3 view .LVU252
 795              	.LBB210:
 796              	.LBI207:
 797              		.loc 2 491 27 view .LVU253
 798              	.LBB209:
ARM GAS  C:\Users\DEVELO~1\AppData\Local\Temp\ccPrsKAx.s 			page 15


 799              		.loc 2 493 3 view .LVU254
 800              		.syntax unified
 801              	@ 493 "../../../os/common/ext/ARM/CMSIS/Core/Include/cmsis_gcc.h" 1
 802 0012 88F31188 		MSR basepri, r8
 803              	@ 0 "" 2
 804              	.LVL36:
 805              		.loc 2 493 3 is_stmt 0 view .LVU255
 806              		.thumb
 807              		.syntax unified
 808              	.LBE209:
 809              	.LBE210:
 810              	.LBE211:
 811              		.loc 4 410 35 is_stmt 1 view .LVU256
 812              		.loc 4 411 21 view .LVU257
 813              	.LBE221:
 814              		.loc 1 328 3 view .LVU258
 815              	.LBB222:
 816              	.LBI222:
 817              		.loc 3 302 20 view .LVU259
 818              	.LBB223:
 819              		.loc 3 304 3 view .LVU260
 820              	.LBB224:
 821              	.LBI224:
 822              		.loc 1 183 6 view .LVU261
 823              	.LBB225:
 824              		.loc 1 184 3 view .LVU262
 825              		.loc 1 186 21 view .LVU263
 826              		.loc 1 187 3 view .LVU264
 827              		.loc 1 187 3 view .LVU265
 828              		.loc 1 187 3 view .LVU266
 829              		.loc 1 191 3 view .LVU267
 830              		.loc 1 191 13 is_stmt 0 view .LVU268
 831 0016 E368     		ldr	r3, [r4, #12]
 832              	.LBE225:
 833              	.LBE224:
 834              		.loc 3 305 3 view .LVU269
 835 0018 2046     		mov	r0, r4
 836              	.LBB227:
 837              	.LBB226:
 838              		.loc 1 191 13 view .LVU270
 839 001a 2B60     		str	r3, [r5]
 840              		.loc 1 192 3 is_stmt 1 view .LVU271
 841              		.loc 1 192 12 is_stmt 0 view .LVU272
 842 001c E560     		str	r5, [r4, #12]
 843              	.LVL37:
 844              		.loc 1 192 12 view .LVU273
 845              	.LBE226:
 846              	.LBE227:
 847              		.loc 3 305 3 is_stmt 1 view .LVU274
 848 001e FFF7FEFF 		bl	chSemSignalI
 849              	.LVL38:
 850              		.loc 3 305 3 is_stmt 0 view .LVU275
 851              	.LBE223:
 852              	.LBE222:
 853              		.loc 1 329 3 is_stmt 1 view .LVU276
 854 0022 FFF7FEFF 		bl	chSchRescheduleS
 855              	.LVL39:
ARM GAS  C:\Users\DEVELO~1\AppData\Local\Temp\ccPrsKAx.s 			page 16


 856              		.loc 1 330 3 view .LVU277
 857              	.LBB228:
 858              	.LBI212:
 859              		.loc 4 421 20 view .LVU278
 860              	.LBB220:
 861              		.loc 4 423 23 view .LVU279
 862              		.loc 4 424 34 view .LVU280
 863              		.loc 4 430 3 view .LVU281
 864              		.loc 4 430 3 view .LVU282
 865              		.loc 4 430 3 view .LVU283
 866              		.loc 4 434 3 view .LVU284
 867              	.LBB219:
 868              	.LBI214:
 869              		.loc 5 847 27 view .LVU285
 870              		.loc 5 850 3 view .LVU286
 871              	.LBB218:
 872              	.LBI215:
 873              		.loc 2 491 27 view .LVU287
 874              	.LBB217:
 875              		.loc 2 493 3 view .LVU288
 876              		.syntax unified
 877              	@ 493 "../../../os/common/ext/ARM/CMSIS/Core/Include/cmsis_gcc.h" 1
 878 0026 87F31188 		MSR basepri, r7
 879              	@ 0 "" 2
 880              	.LVL40:
 881              		.loc 2 493 3 is_stmt 0 view .LVU289
 882              		.thumb
 883              		.syntax unified
 884              	.LBE217:
 885              	.LBE218:
 886              	.LBE219:
 887              	.LBE220:
 888              	.LBE228:
 889              	.LBE229:
 890              	.LBE230:
 891              	.LBE231:
 892              		.loc 1 254 5 is_stmt 1 view .LVU290
 893              		.loc 1 254 7 is_stmt 0 view .LVU291
 894 002a 2369     		ldr	r3, [r4, #16]
 895              		.loc 1 251 12 view .LVU292
 896 002c 013E     		subs	r6, r6, #1
 897              	.LVL41:
 898              		.loc 1 254 7 view .LVU293
 899 002e 1D44     		add	r5, r5, r3
 900              	.LVL42:
 901              		.loc 1 256 5 is_stmt 1 view .LVU294
 902              		.loc 1 251 12 view .LVU295
 903 0030 EFD1     		bne	.L34
 904              		.loc 1 258 1 is_stmt 0 view .LVU296
 905 0032 BDE8F081 		pop	{r4, r5, r6, r7, r8, pc}
 906              	.LVL43:
 907              	.L38:
 908              		.cfi_def_cfa_offset 0
 909              		.cfi_restore 4
 910              		.cfi_restore 5
 911              		.cfi_restore 6
 912              		.cfi_restore 7
ARM GAS  C:\Users\DEVELO~1\AppData\Local\Temp\ccPrsKAx.s 			page 17


 913              		.cfi_restore 8
 914              		.cfi_restore 14
 915              		.loc 1 258 1 view .LVU297
 916 0036 7047     		bx	lr
 917              		.cfi_endproc
 918              	.LFE353:
 919              		.size	chGuardedPoolLoadArray, .-chGuardedPoolLoadArray
 920              		.section	.text.chGuardedPoolAllocTimeoutS,"ax",%progbits
 921              		.align	1
 922              		.p2align 4,,15
 923              		.global	chGuardedPoolAllocTimeoutS
 924              		.syntax unified
 925              		.thumb
 926              		.thumb_func
 927              		.type	chGuardedPoolAllocTimeoutS, %function
 928              	chGuardedPoolAllocTimeoutS:
 929              	.LVL44:
 930              	.LFB354:
 931              		.loc 1 276 57 is_stmt 1 view -0
 932              		.cfi_startproc
 933              		@ args = 0, pretend = 0, frame = 0
 934              		@ frame_needed = 0, uses_anonymous_args = 0
 935              		.loc 1 277 3 view .LVU299
 936              		.loc 1 279 3 view .LVU300
 937              		.loc 1 276 57 is_stmt 0 view .LVU301
 938 0000 10B5     		push	{r4, lr}
 939              		.cfi_def_cfa_offset 8
 940              		.cfi_offset 4, -8
 941              		.cfi_offset 14, -4
 942              		.loc 1 276 57 view .LVU302
 943 0002 0446     		mov	r4, r0
 944              		.loc 1 279 9 view .LVU303
 945 0004 FFF7FEFF 		bl	chSemWaitTimeoutS
 946              	.LVL45:
 947              		.loc 1 280 3 is_stmt 1 view .LVU304
 948              		.loc 1 280 6 is_stmt 0 view .LVU305
 949 0008 60B9     		cbnz	r0, .L44
 950              		.loc 1 284 3 is_stmt 1 view .LVU306
 951              	.LVL46:
 952              	.LBB236:
 953              	.LBI236:
 954              		.loc 1 129 7 view .LVU307
 955              	.LBB237:
 956              		.loc 1 130 3 view .LVU308
 957              		.loc 1 132 21 view .LVU309
 958              		.loc 1 133 3 view .LVU310
 959              		.loc 1 133 3 view .LVU311
 960              		.loc 1 133 3 view .LVU312
 961              		.loc 1 135 3 view .LVU313
 962              		.loc 1 135 8 is_stmt 0 view .LVU314
 963 000a E068     		ldr	r0, [r4, #12]
 964              	.LVL47:
 965              		.loc 1 137 3 is_stmt 1 view .LVU315
 966              		.loc 1 137 6 is_stmt 0 view .LVU316
 967 000c 10B1     		cbz	r0, .L43
 968              		.loc 1 138 5 is_stmt 1 view .LVU317
 969              		.loc 1 138 14 is_stmt 0 view .LVU318
ARM GAS  C:\Users\DEVELO~1\AppData\Local\Temp\ccPrsKAx.s 			page 18


 970 000e 0368     		ldr	r3, [r0]
 971 0010 E360     		str	r3, [r4, #12]
 972              	.L41:
 973              	.LBE237:
 974              	.LBE236:
 975              		.loc 1 285 1 view .LVU319
 976 0012 10BD     		pop	{r4, pc}
 977              	.LVL48:
 978              	.L43:
 979              	.LBB244:
 980              	.LBB242:
 981              	.LBB238:
 982              	.LBI238:
 983              		.loc 1 129 7 is_stmt 1 view .LVU320
 984              	.LBB239:
 985              		.loc 1 140 8 view .LVU321
 986              		.loc 1 140 14 is_stmt 0 view .LVU322
 987 0014 A369     		ldr	r3, [r4, #24]
 988              		.loc 1 140 11 view .LVU323
 989 0016 002B     		cmp	r3, #0
 990 0018 FBD0     		beq	.L41
 991              		.loc 1 141 5 is_stmt 1 view .LVU324
 992              		.loc 1 141 12 is_stmt 0 view .LVU325
 993 001a D4E90401 		ldrd	r0, r1, [r4, #16]
 994              	.LVL49:
 995              		.loc 1 141 12 view .LVU326
 996              	.LBE239:
 997              	.LBE238:
 998              	.LBE242:
 999              	.LBE244:
 1000              		.loc 1 285 1 view .LVU327
 1001 001e BDE81040 		pop	{r4, lr}
 1002              		.cfi_remember_state
 1003              		.cfi_restore 14
 1004              		.cfi_restore 4
 1005              		.cfi_def_cfa_offset 0
 1006              	.LVL50:
 1007              	.LBB245:
 1008              	.LBB243:
 1009              	.LBB241:
 1010              	.LBB240:
 1011              		.loc 1 141 12 view .LVU328
 1012 0022 1847     		bx	r3
 1013              	.LVL51:
 1014              	.L44:
 1015              		.cfi_restore_state
 1016              		.loc 1 141 12 view .LVU329
 1017              	.LBE240:
 1018              	.LBE241:
 1019              	.LBE243:
 1020              	.LBE245:
 1021              		.loc 1 281 12 view .LVU330
 1022 0024 0020     		movs	r0, #0
 1023              	.LVL52:
 1024              		.loc 1 285 1 view .LVU331
 1025 0026 10BD     		pop	{r4, pc}
 1026              		.loc 1 285 1 view .LVU332
ARM GAS  C:\Users\DEVELO~1\AppData\Local\Temp\ccPrsKAx.s 			page 19


 1027              		.cfi_endproc
 1028              	.LFE354:
 1029              		.size	chGuardedPoolAllocTimeoutS, .-chGuardedPoolAllocTimeoutS
 1030              		.section	.text.chGuardedPoolAllocTimeout,"ax",%progbits
 1031              		.align	1
 1032              		.p2align 4,,15
 1033              		.global	chGuardedPoolAllocTimeout
 1034              		.syntax unified
 1035              		.thumb
 1036              		.thumb_func
 1037              		.type	chGuardedPoolAllocTimeout, %function
 1038              	chGuardedPoolAllocTimeout:
 1039              	.LVL53:
 1040              	.LFB355:
 1041              		.loc 1 303 56 is_stmt 1 view -0
 1042              		.cfi_startproc
 1043              		@ args = 0, pretend = 0, frame = 0
 1044              		@ frame_needed = 0, uses_anonymous_args = 0
 1045              		.loc 1 303 56 is_stmt 0 view .LVU334
 1046 0000 10B5     		push	{r4, lr}
 1047              		.cfi_def_cfa_offset 8
 1048              		.cfi_offset 4, -8
 1049              		.cfi_offset 14, -4
 1050              	.LBB261:
 1051              	.LBB262:
 1052              	.LBB263:
 1053              	.LBB264:
 1054              		.loc 2 493 3 view .LVU335
 1055 0002 3023     		movs	r3, #48
 1056              	.LBE264:
 1057              	.LBE263:
 1058              	.LBE262:
 1059              	.LBE261:
 1060              		.loc 1 303 56 view .LVU336
 1061 0004 0446     		mov	r4, r0
 1062              		.loc 1 304 3 is_stmt 1 view .LVU337
 1063              		.loc 1 306 3 view .LVU338
 1064              	.LBB268:
 1065              	.LBI261:
 1066              		.loc 4 407 20 view .LVU339
 1067              		.loc 4 409 3 view .LVU340
 1068              	.LBB267:
 1069              	.LBI262:
 1070              		.loc 5 823 27 view .LVU341
 1071              		.loc 5 831 3 view .LVU342
 1072              	.LVL54:
 1073              	.LBB266:
 1074              	.LBI263:
 1075              		.loc 2 491 27 view .LVU343
 1076              	.LBB265:
 1077              		.loc 2 493 3 view .LVU344
 1078              		.syntax unified
 1079              	@ 493 "../../../os/common/ext/ARM/CMSIS/Core/Include/cmsis_gcc.h" 1
 1080 0006 83F31188 		MSR basepri, r3
 1081              	@ 0 "" 2
 1082              	.LVL55:
 1083              		.loc 2 493 3 is_stmt 0 view .LVU345
ARM GAS  C:\Users\DEVELO~1\AppData\Local\Temp\ccPrsKAx.s 			page 20


 1084              		.thumb
 1085              		.syntax unified
 1086              	.LBE265:
 1087              	.LBE266:
 1088              	.LBE267:
 1089              		.loc 4 410 35 is_stmt 1 view .LVU346
 1090              		.loc 4 411 21 view .LVU347
 1091              	.LBE268:
 1092              		.loc 1 307 3 view .LVU348
 1093              	.LBB269:
 1094              	.LBI269:
 1095              		.loc 1 275 7 view .LVU349
 1096              	.LBB270:
 1097              		.loc 1 277 3 view .LVU350
 1098              		.loc 1 279 3 view .LVU351
 1099              		.loc 1 279 9 is_stmt 0 view .LVU352
 1100 000a FFF7FEFF 		bl	chSemWaitTimeoutS
 1101              	.LVL56:
 1102              		.loc 1 280 3 is_stmt 1 view .LVU353
 1103              		.loc 1 280 6 is_stmt 0 view .LVU354
 1104 000e 88B9     		cbnz	r0, .L52
 1105              		.loc 1 284 3 is_stmt 1 view .LVU355
 1106              	.LVL57:
 1107              	.LBB271:
 1108              	.LBI271:
 1109              		.loc 1 129 7 view .LVU356
 1110              	.LBB272:
 1111              		.loc 1 130 3 view .LVU357
 1112              		.loc 1 132 21 view .LVU358
 1113              		.loc 1 133 3 view .LVU359
 1114              		.loc 1 133 3 view .LVU360
 1115              		.loc 1 133 3 view .LVU361
 1116              		.loc 1 135 3 view .LVU362
 1117              		.loc 1 135 8 is_stmt 0 view .LVU363
 1118 0010 E068     		ldr	r0, [r4, #12]
 1119              	.LVL58:
 1120              		.loc 1 137 3 is_stmt 1 view .LVU364
 1121              		.loc 1 137 6 is_stmt 0 view .LVU365
 1122 0012 28B1     		cbz	r0, .L51
 1123              		.loc 1 138 5 is_stmt 1 view .LVU366
 1124              		.loc 1 138 14 is_stmt 0 view .LVU367
 1125 0014 0368     		ldr	r3, [r0]
 1126 0016 E360     		str	r3, [r4, #12]
 1127              	.L50:
 1128              	.LVL59:
 1129              		.loc 1 138 14 view .LVU368
 1130              	.LBE272:
 1131              	.LBE271:
 1132              	.LBE270:
 1133              	.LBE269:
 1134              		.loc 1 308 3 is_stmt 1 view .LVU369
 1135              	.LBB279:
 1136              	.LBI279:
 1137              		.loc 4 421 20 view .LVU370
 1138              	.LBB280:
 1139              		.loc 4 423 23 view .LVU371
 1140              		.loc 4 424 34 view .LVU372
ARM GAS  C:\Users\DEVELO~1\AppData\Local\Temp\ccPrsKAx.s 			page 21


 1141              		.loc 4 430 3 view .LVU373
 1142              		.loc 4 430 3 view .LVU374
 1143              		.loc 4 430 3 view .LVU375
 1144              		.loc 4 434 3 view .LVU376
 1145              	.LBB281:
 1146              	.LBI281:
 1147              		.loc 5 847 27 view .LVU377
 1148              		.loc 5 850 3 view .LVU378
 1149              	.LBB282:
 1150              	.LBI282:
 1151              		.loc 2 491 27 view .LVU379
 1152              	.LBB283:
 1153              		.loc 2 493 3 view .LVU380
 1154 0018 0023     		movs	r3, #0
 1155              		.syntax unified
 1156              	@ 493 "../../../os/common/ext/ARM/CMSIS/Core/Include/cmsis_gcc.h" 1
 1157 001a 83F31188 		MSR basepri, r3
 1158              	@ 0 "" 2
 1159              	.LVL60:
 1160              		.loc 2 493 3 is_stmt 0 view .LVU381
 1161              		.thumb
 1162              		.syntax unified
 1163              	.LBE283:
 1164              	.LBE282:
 1165              	.LBE281:
 1166              	.LBE280:
 1167              	.LBE279:
 1168              		.loc 1 310 3 is_stmt 1 view .LVU382
 1169              		.loc 1 311 1 is_stmt 0 view .LVU383
 1170 001e 10BD     		pop	{r4, pc}
 1171              	.LVL61:
 1172              	.L51:
 1173              	.LBB292:
 1174              	.LBB277:
 1175              	.LBB276:
 1176              	.LBB275:
 1177              	.LBB273:
 1178              	.LBI273:
 1179              		.loc 1 129 7 is_stmt 1 view .LVU384
 1180              	.LBB274:
 1181              		.loc 1 140 8 view .LVU385
 1182              		.loc 1 140 14 is_stmt 0 view .LVU386
 1183 0020 A369     		ldr	r3, [r4, #24]
 1184              		.loc 1 140 11 view .LVU387
 1185 0022 002B     		cmp	r3, #0
 1186 0024 F8D0     		beq	.L50
 1187              		.loc 1 141 5 is_stmt 1 view .LVU388
 1188              		.loc 1 141 12 is_stmt 0 view .LVU389
 1189 0026 D4E90401 		ldrd	r0, r1, [r4, #16]
 1190              	.LVL62:
 1191              		.loc 1 141 12 view .LVU390
 1192 002a 9847     		blx	r3
 1193              	.LVL63:
 1194              		.loc 1 143 5 is_stmt 1 view .LVU391
 1195              		.loc 1 143 5 view .LVU392
 1196              		.loc 1 143 5 is_stmt 0 view .LVU393
 1197              	.LBE274:
ARM GAS  C:\Users\DEVELO~1\AppData\Local\Temp\ccPrsKAx.s 			page 22


 1198              	.LBE273:
 1199              	.LBE275:
 1200              	.LBE276:
 1201              	.LBE277:
 1202              	.LBE292:
 1203              		.loc 1 308 3 is_stmt 1 view .LVU394
 1204              	.LBB293:
 1205              		.loc 4 421 20 view .LVU395
 1206              	.LBB290:
 1207              		.loc 4 423 23 view .LVU396
 1208              		.loc 4 424 34 view .LVU397
 1209              		.loc 4 430 3 view .LVU398
 1210              		.loc 4 430 3 view .LVU399
 1211              		.loc 4 430 3 view .LVU400
 1212              		.loc 4 434 3 view .LVU401
 1213              	.LBB288:
 1214              		.loc 5 847 27 view .LVU402
 1215              		.loc 5 850 3 view .LVU403
 1216              	.LBB286:
 1217              		.loc 2 491 27 view .LVU404
 1218              	.LBB284:
 1219              		.loc 2 493 3 view .LVU405
 1220 002c 0023     		movs	r3, #0
 1221              		.syntax unified
 1222              	@ 493 "../../../os/common/ext/ARM/CMSIS/Core/Include/cmsis_gcc.h" 1
 1223 002e 83F31188 		MSR basepri, r3
 1224              	@ 0 "" 2
 1225              	.LVL64:
 1226              		.loc 2 493 3 is_stmt 0 view .LVU406
 1227              		.thumb
 1228              		.syntax unified
 1229              	.LBE284:
 1230              	.LBE286:
 1231              	.LBE288:
 1232              	.LBE290:
 1233              	.LBE293:
 1234              		.loc 1 310 3 is_stmt 1 view .LVU407
 1235              		.loc 1 311 1 is_stmt 0 view .LVU408
 1236 0032 10BD     		pop	{r4, pc}
 1237              	.LVL65:
 1238              	.L52:
 1239              	.LBB294:
 1240              	.LBB278:
 1241              		.loc 1 281 12 view .LVU409
 1242 0034 0020     		movs	r0, #0
 1243              	.LVL66:
 1244              		.loc 1 281 12 view .LVU410
 1245              	.LBE278:
 1246              	.LBE294:
 1247              		.loc 1 308 3 is_stmt 1 view .LVU411
 1248              	.LBB295:
 1249              		.loc 4 421 20 view .LVU412
 1250              	.LBB291:
 1251              		.loc 4 423 23 view .LVU413
 1252              		.loc 4 424 34 view .LVU414
 1253              		.loc 4 430 3 view .LVU415
 1254              		.loc 4 430 3 view .LVU416
ARM GAS  C:\Users\DEVELO~1\AppData\Local\Temp\ccPrsKAx.s 			page 23


 1255              		.loc 4 430 3 view .LVU417
 1256              		.loc 4 434 3 view .LVU418
 1257              	.LBB289:
 1258              		.loc 5 847 27 view .LVU419
 1259              		.loc 5 850 3 view .LVU420
 1260              	.LBB287:
 1261              		.loc 2 491 27 view .LVU421
 1262              	.LBB285:
 1263              		.loc 2 493 3 view .LVU422
 1264 0036 0023     		movs	r3, #0
 1265              		.syntax unified
 1266              	@ 493 "../../../os/common/ext/ARM/CMSIS/Core/Include/cmsis_gcc.h" 1
 1267 0038 83F31188 		MSR basepri, r3
 1268              	@ 0 "" 2
 1269              	.LVL67:
 1270              		.loc 2 493 3 is_stmt 0 view .LVU423
 1271              		.thumb
 1272              		.syntax unified
 1273              	.LBE285:
 1274              	.LBE287:
 1275              	.LBE289:
 1276              	.LBE291:
 1277              	.LBE295:
 1278              		.loc 1 310 3 is_stmt 1 view .LVU424
 1279              		.loc 1 311 1 is_stmt 0 view .LVU425
 1280 003c 10BD     		pop	{r4, pc}
 1281              		.loc 1 311 1 view .LVU426
 1282              		.cfi_endproc
 1283              	.LFE355:
 1284              		.size	chGuardedPoolAllocTimeout, .-chGuardedPoolAllocTimeout
 1285 003e 00BF     		.section	.text.chGuardedPoolFree,"ax",%progbits
 1286              		.align	1
 1287              		.p2align 4,,15
 1288              		.global	chGuardedPoolFree
 1289              		.syntax unified
 1290              		.thumb
 1291              		.thumb_func
 1292              		.type	chGuardedPoolFree, %function
 1293              	chGuardedPoolFree:
 1294              	.LVL68:
 1295              	.LFB356:
 1296              		.loc 1 325 64 is_stmt 1 view -0
 1297              		.cfi_startproc
 1298              		@ args = 0, pretend = 0, frame = 0
 1299              		@ frame_needed = 0, uses_anonymous_args = 0
 1300              		.loc 1 327 3 view .LVU428
 1301              	.LBB296:
 1302              	.LBI296:
 1303              		.loc 4 407 20 view .LVU429
 1304              		.loc 4 409 3 view .LVU430
 1305              	.LBB297:
 1306              	.LBI297:
 1307              		.loc 5 823 27 view .LVU431
 1308              		.loc 5 831 3 view .LVU432
 1309              	.LBB298:
 1310              	.LBI298:
 1311              		.loc 2 491 27 view .LVU433
ARM GAS  C:\Users\DEVELO~1\AppData\Local\Temp\ccPrsKAx.s 			page 24


 1312              	.LBB299:
 1313              		.loc 2 493 3 view .LVU434
 1314 0000 3022     		movs	r2, #48
 1315              	.LBE299:
 1316              	.LBE298:
 1317              	.LBE297:
 1318              	.LBE296:
 1319              		.loc 1 325 64 is_stmt 0 view .LVU435
 1320 0002 08B5     		push	{r3, lr}
 1321              		.cfi_def_cfa_offset 8
 1322              		.cfi_offset 3, -8
 1323              		.cfi_offset 14, -4
 1324              	.LBB303:
 1325              	.LBB302:
 1326              	.LBB301:
 1327              	.LBB300:
 1328              		.loc 2 493 3 view .LVU436
 1329              		.syntax unified
 1330              	@ 493 "../../../os/common/ext/ARM/CMSIS/Core/Include/cmsis_gcc.h" 1
 1331 0004 82F31188 		MSR basepri, r2
 1332              	@ 0 "" 2
 1333              	.LVL69:
 1334              		.loc 2 493 3 view .LVU437
 1335              		.thumb
 1336              		.syntax unified
 1337              	.LBE300:
 1338              	.LBE301:
 1339              	.LBE302:
 1340              		.loc 4 410 35 is_stmt 1 view .LVU438
 1341              		.loc 4 411 21 view .LVU439
 1342              	.LBE303:
 1343              		.loc 1 328 3 view .LVU440
 1344              	.LBB304:
 1345              	.LBI304:
 1346              		.loc 3 302 20 view .LVU441
 1347              	.LBB305:
 1348              		.loc 3 304 3 view .LVU442
 1349              	.LBB306:
 1350              	.LBI306:
 1351              		.loc 1 183 6 view .LVU443
 1352              	.LBB307:
 1353              		.loc 1 184 3 view .LVU444
 1354              		.loc 1 186 21 view .LVU445
 1355              		.loc 1 187 3 view .LVU446
 1356              		.loc 1 187 3 view .LVU447
 1357              		.loc 1 187 3 view .LVU448
 1358              		.loc 1 191 3 view .LVU449
 1359              		.loc 1 191 13 is_stmt 0 view .LVU450
 1360 0008 C268     		ldr	r2, [r0, #12]
 1361 000a 0A60     		str	r2, [r1]
 1362              		.loc 1 192 3 is_stmt 1 view .LVU451
 1363              		.loc 1 192 12 is_stmt 0 view .LVU452
 1364 000c C160     		str	r1, [r0, #12]
 1365              	.LVL70:
 1366              		.loc 1 192 12 view .LVU453
 1367              	.LBE307:
 1368              	.LBE306:
ARM GAS  C:\Users\DEVELO~1\AppData\Local\Temp\ccPrsKAx.s 			page 25


 1369              		.loc 3 305 3 is_stmt 1 view .LVU454
 1370 000e FFF7FEFF 		bl	chSemSignalI
 1371              	.LVL71:
 1372              		.loc 3 305 3 is_stmt 0 view .LVU455
 1373              	.LBE305:
 1374              	.LBE304:
 1375              		.loc 1 329 3 is_stmt 1 view .LVU456
 1376 0012 FFF7FEFF 		bl	chSchRescheduleS
 1377              	.LVL72:
 1378              		.loc 1 330 3 view .LVU457
 1379              	.LBB308:
 1380              	.LBI308:
 1381              		.loc 4 421 20 view .LVU458
 1382              	.LBB309:
 1383              		.loc 4 423 23 view .LVU459
 1384              		.loc 4 424 34 view .LVU460
 1385              		.loc 4 430 3 view .LVU461
 1386              		.loc 4 430 3 view .LVU462
 1387              		.loc 4 430 3 view .LVU463
 1388              		.loc 4 434 3 view .LVU464
 1389              	.LBB310:
 1390              	.LBI310:
 1391              		.loc 5 847 27 view .LVU465
 1392              		.loc 5 850 3 view .LVU466
 1393              	.LBB311:
 1394              	.LBI311:
 1395              		.loc 2 491 27 view .LVU467
 1396              	.LBB312:
 1397              		.loc 2 493 3 view .LVU468
 1398 0016 0023     		movs	r3, #0
 1399              		.syntax unified
 1400              	@ 493 "../../../os/common/ext/ARM/CMSIS/Core/Include/cmsis_gcc.h" 1
 1401 0018 83F31188 		MSR basepri, r3
 1402              	@ 0 "" 2
 1403              	.LVL73:
 1404              		.loc 2 493 3 is_stmt 0 view .LVU469
 1405              		.thumb
 1406              		.syntax unified
 1407              	.LBE312:
 1408              	.LBE311:
 1409              	.LBE310:
 1410              	.LBE309:
 1411              	.LBE308:
 1412              		.loc 1 331 1 view .LVU470
 1413 001c 08BD     		pop	{r3, pc}
 1414              		.cfi_endproc
 1415              	.LFE356:
 1416              		.size	chGuardedPoolFree, .-chGuardedPoolFree
 1417 001e 00BF     		.text
 1418              	.Letext0:
 1419              		.file 6 "c:\\chibistudio\\tools\\gnu tools arm embedded\\11.3 2022.08\\lib\\gcc\\arm-none-eabi\\11
 1420              		.file 7 "c:\\chibistudio\\tools\\gnu tools arm embedded\\11.3 2022.08\\arm-none-eabi\\include\\mac
 1421              		.file 8 "c:\\chibistudio\\tools\\gnu tools arm embedded\\11.3 2022.08\\arm-none-eabi\\include\\sys
 1422              		.file 9 "../../../os/rt/include/chearly.h"
 1423              		.file 10 "../../../os/rt/include/chtime.h"
 1424              		.file 11 "../../../os/rt/include/chlists.h"
 1425              		.file 12 "../../../os/rt/include/chsem.h"
ARM GAS  C:\Users\DEVELO~1\AppData\Local\Temp\ccPrsKAx.s 			page 26


 1426              		.file 13 "../../../os/oslib/include/chmemcore.h"
 1427              		.file 14 "../../../os/rt/include/chschd.h"