ARM GAS  C:\Users\DEVELO~1\AppData\Local\Temp\ccceJRvr.s 			page 1


   1              		.cpu cortex-m7
   2              		.arch armv7e-m
   3              		.fpu softvfp
   4              		.eabi_attribute 20, 1
   5              		.eabi_attribute 21, 1
   6              		.eabi_attribute 23, 3
   7              		.eabi_attribute 24, 1
   8              		.eabi_attribute 25, 1
   9              		.eabi_attribute 26, 1
  10              		.eabi_attribute 30, 2
  11              		.eabi_attribute 34, 1
  12              		.eabi_attribute 18, 4
  13              		.file	"chmsg.c"
  14              		.text
  15              	.Ltext0:
  16              		.cfi_sections	.debug_frame
  17              		.section	.text.chMsgSend,"ax",%progbits
  18              		.align	1
  19              		.p2align 4,,15
  20              		.global	chMsgSend
  21              		.syntax unified
  22              		.thumb
  23              		.thumb_func
  24              		.type	chMsgSend, %function
  25              	chMsgSend:
  26              	.LVL0:
  27              	.LFB346:
  28              		.file 1 "../../../os/rt/src/chmsg.c"
  29              		.loc 1 81 42 view -0
  30              		.cfi_startproc
  31              		@ args = 0, pretend = 0, frame = 0
  32              		@ frame_needed = 0, uses_anonymous_args = 0
  33              		.loc 1 82 3 view .LVU1
  34              	.LBB58:
  35              	.LBI58:
  36              		.file 2 "../../../os/rt/include/chthreads.h"
  37              		.loc 2 341 25 view .LVU2
  38              	.LBB59:
  39              		.loc 2 343 3 view .LVU3
  40              	.LBE59:
  41              	.LBE58:
  42              		.loc 1 81 42 is_stmt 0 view .LVU4
  43 0000 38B5     		push	{r3, r4, r5, lr}
  44              		.cfi_def_cfa_offset 16
  45              		.cfi_offset 3, -16
  46              		.cfi_offset 4, -12
  47              		.cfi_offset 5, -8
  48              		.cfi_offset 14, -4
  49              	.LBB62:
  50              	.LBB60:
  51              		.loc 2 343 10 view .LVU5
  52 0002 0E4C     		ldr	r4, .L6
  53              	.LBE60:
  54              	.LBE62:
  55              	.LBB63:
  56              	.LBB64:
  57              	.LBB65:
ARM GAS  C:\Users\DEVELO~1\AppData\Local\Temp\ccceJRvr.s 			page 2


  58              	.LBB66:
  59              		.file 3 "../../../os/common/ext/ARM/CMSIS/Core/Include/cmsis_gcc.h"
  60              		.loc 3 493 3 view .LVU6
  61 0004 3022     		movs	r2, #48
  62              	.LBE66:
  63              	.LBE65:
  64              	.LBE64:
  65              	.LBE63:
  66              	.LBB70:
  67              	.LBB61:
  68              		.loc 2 343 10 view .LVU7
  69 0006 E468     		ldr	r4, [r4, #12]
  70              	.LVL1:
  71              		.loc 2 343 10 view .LVU8
  72              	.LBE61:
  73              	.LBE70:
  74              		.loc 1 84 3 is_stmt 1 view .LVU9
  75              		.loc 1 84 3 view .LVU10
  76              		.loc 1 84 3 view .LVU11
  77              		.loc 1 86 3 view .LVU12
  78              	.LBB71:
  79              	.LBI63:
  80              		.file 4 "../../../os/rt/include/chsys.h"
  81              		.loc 4 407 20 view .LVU13
  82              		.loc 4 409 3 view .LVU14
  83              	.LBB69:
  84              	.LBI64:
  85              		.file 5 "../../../os/common/ports/ARMv7-M/chcore.h"
  86              		.loc 5 823 27 view .LVU15
  87              		.loc 5 831 3 view .LVU16
  88              	.LBB68:
  89              	.LBI65:
  90              		.loc 3 491 27 view .LVU17
  91              	.LBB67:
  92              		.loc 3 493 3 view .LVU18
  93              		.syntax unified
  94              	@ 493 "../../../os/common/ext/ARM/CMSIS/Core/Include/cmsis_gcc.h" 1
  95 0008 82F31188 		MSR basepri, r2
  96              	@ 0 "" 2
  97              	.LVL2:
  98              		.loc 3 493 3 is_stmt 0 view .LVU19
  99              		.thumb
 100              		.syntax unified
 101              	.LBE67:
 102              	.LBE68:
 103              	.LBE69:
 104              		.loc 4 410 35 is_stmt 1 view .LVU20
 105              		.loc 4 411 21 view .LVU21
 106              	.LBE71:
 107              		.loc 1 87 3 view .LVU22
 108              	.LBB72:
 109              	.LBB73:
 110              		.file 6 "../../../os/rt/include/chlists.h"
 111              		.loc 6 265 21 is_stmt 0 view .LVU23
 112 000c 426B     		ldr	r2, [r0, #52]
 113              	.LBE73:
 114              	.LBE72:
ARM GAS  C:\Users\DEVELO~1\AppData\Local\Temp\ccceJRvr.s 			page 3


 115              		.loc 1 88 3 view .LVU24
 116 000e 00F13005 		add	r5, r0, #48
 117              		.loc 1 87 21 view .LVU25
 118 0012 A162     		str	r1, [r4, #40]
 119              		.loc 1 88 3 is_stmt 1 view .LVU26
 120              	.LVL3:
 121              	.LBB76:
 122              	.LBI72:
 123              		.loc 6 262 20 view .LVU27
 124              	.LBB74:
 125              		.loc 6 264 3 view .LVU28
 126              		.loc 6 265 3 view .LVU29
 127              		.loc 6 264 17 is_stmt 0 view .LVU30
 128 0014 2560     		str	r5, [r4]
 129              		.loc 6 265 17 view .LVU31
 130 0016 6260     		str	r2, [r4, #4]
 131              		.loc 6 266 3 is_stmt 1 view .LVU32
 132              		.loc 6 266 17 is_stmt 0 view .LVU33
 133 0018 1460     		str	r4, [r2]
 134              		.loc 6 267 3 is_stmt 1 view .LVU34
 135              	.LBE74:
 136              	.LBE76:
 137              		.loc 1 89 6 is_stmt 0 view .LVU35
 138 001a 90F82420 		ldrb	r2, [r0, #36]	@ zero_extendqisi2
 139              	.LBB77:
 140              	.LBB75:
 141              		.loc 6 267 17 view .LVU36
 142 001e 4463     		str	r4, [r0, #52]
 143              	.LVL4:
 144              		.loc 6 267 17 view .LVU37
 145              	.LBE75:
 146              	.LBE77:
 147              		.loc 1 89 3 is_stmt 1 view .LVU38
 148              		.loc 1 89 6 is_stmt 0 view .LVU39
 149 0020 0E2A     		cmp	r2, #14
 150 0022 07D0     		beq	.L5
 151              	.LVL5:
 152              	.L2:
 153              		.loc 1 92 3 is_stmt 1 view .LVU40
 154 0024 0C20     		movs	r0, #12
 155 0026 FFF7FEFF 		bl	chSchGoSleepS
 156              	.LVL6:
 157              		.loc 1 93 3 view .LVU41
 158              		.loc 1 93 7 is_stmt 0 view .LVU42
 159 002a A06A     		ldr	r0, [r4, #40]
 160              	.LVL7:
 161              		.loc 1 94 3 is_stmt 1 view .LVU43
 162              	.LBB78:
 163              	.LBI78:
 164              		.loc 4 421 20 view .LVU44
 165              	.LBB79:
 166              		.loc 4 423 23 view .LVU45
 167              		.loc 4 424 34 view .LVU46
 168              		.loc 4 430 3 view .LVU47
 169              		.loc 4 430 3 view .LVU48
 170              		.loc 4 430 3 view .LVU49
 171              		.loc 4 434 3 view .LVU50
ARM GAS  C:\Users\DEVELO~1\AppData\Local\Temp\ccceJRvr.s 			page 4


 172              	.LBB80:
 173              	.LBI80:
 174              		.loc 5 847 27 view .LVU51
 175              		.loc 5 850 3 view .LVU52
 176              	.LBB81:
 177              	.LBI81:
 178              		.loc 3 491 27 view .LVU53
 179              	.LBB82:
 180              		.loc 3 493 3 view .LVU54
 181 002c 0023     		movs	r3, #0
 182              		.syntax unified
 183              	@ 493 "../../../os/common/ext/ARM/CMSIS/Core/Include/cmsis_gcc.h" 1
 184 002e 83F31188 		MSR basepri, r3
 185              	@ 0 "" 2
 186              	.LVL8:
 187              		.loc 3 493 3 is_stmt 0 view .LVU55
 188              		.thumb
 189              		.syntax unified
 190              	.LBE82:
 191              	.LBE81:
 192              	.LBE80:
 193              	.LBE79:
 194              	.LBE78:
 195              		.loc 1 96 3 is_stmt 1 view .LVU56
 196              		.loc 1 97 1 is_stmt 0 view .LVU57
 197 0032 38BD     		pop	{r3, r4, r5, pc}
 198              	.LVL9:
 199              	.L5:
 200              		.loc 1 90 5 is_stmt 1 view .LVU58
 201              		.loc 1 90 12 is_stmt 0 view .LVU59
 202 0034 FFF7FEFF 		bl	chSchReadyI
 203              	.LVL10:
 204              		.loc 1 90 12 view .LVU60
 205 0038 F4E7     		b	.L2
 206              	.L7:
 207 003a 00BF     		.align	2
 208              	.L6:
 209 003c 00000000 		.word	ch0
 210              		.cfi_endproc
 211              	.LFE346:
 212              		.size	chMsgSend, .-chMsgSend
 213              		.section	.text.chMsgWaitS,"ax",%progbits
 214              		.align	1
 215              		.p2align 4,,15
 216              		.global	chMsgWaitS
 217              		.syntax unified
 218              		.thumb
 219              		.thumb_func
 220              		.type	chMsgWaitS, %function
 221              	chMsgWaitS:
 222              	.LFB347:
 223              		.loc 1 115 28 is_stmt 1 view -0
 224              		.cfi_startproc
 225              		@ args = 0, pretend = 0, frame = 0
 226              		@ frame_needed = 0, uses_anonymous_args = 0
 227              		.loc 1 116 3 view .LVU62
 228              	.LBB83:
ARM GAS  C:\Users\DEVELO~1\AppData\Local\Temp\ccceJRvr.s 			page 5


 229              	.LBI83:
 230              		.loc 2 341 25 view .LVU63
 231              	.LBB84:
 232              		.loc 2 343 3 view .LVU64
 233              	.LBE84:
 234              	.LBE83:
 235              		.loc 1 115 28 is_stmt 0 view .LVU65
 236 0000 38B5     		push	{r3, r4, r5, lr}
 237              		.cfi_def_cfa_offset 16
 238              		.cfi_offset 3, -16
 239              		.cfi_offset 4, -12
 240              		.cfi_offset 5, -8
 241              		.cfi_offset 14, -4
 242              	.LBB86:
 243              	.LBB85:
 244              		.loc 2 343 10 view .LVU66
 245 0002 094B     		ldr	r3, .L12
 246 0004 DD68     		ldr	r5, [r3, #12]
 247              	.LVL11:
 248              		.loc 2 343 10 view .LVU67
 249              	.LBE85:
 250              	.LBE86:
 251              		.loc 1 117 3 is_stmt 1 view .LVU68
 252              		.loc 1 119 21 view .LVU69
 253              		.loc 1 121 3 view .LVU70
 254              	.LBB87:
 255              	.LBI87:
 256              		.file 7 "../../../os/rt/include/chmsg.h"
 257              		.loc 7 173 20 view .LVU71
 258              	.LBB88:
 259              		.loc 7 175 21 view .LVU72
 260              		.loc 7 177 3 view .LVU73
 261              		.loc 7 177 29 is_stmt 0 view .LVU74
 262 0006 2C46     		mov	r4, r5
 263 0008 54F8300F 		ldr	r0, [r4, #48]!
 264              	.LVL12:
 265              		.loc 7 177 29 view .LVU75
 266              	.LBE88:
 267              	.LBE87:
 268              		.loc 1 121 6 view .LVU76
 269 000c 8442     		cmp	r4, r0
 270 000e 06D0     		beq	.L11
 271              	.L9:
 272              		.loc 1 124 3 is_stmt 1 view .LVU77
 273              	.LVL13:
 274              	.LBB89:
 275              	.LBI89:
 276              		.loc 6 280 27 view .LVU78
 277              	.LBB90:
 278              		.loc 6 281 3 view .LVU79
 279              		.loc 6 283 3 view .LVU80
 280              		.loc 6 283 21 is_stmt 0 view .LVU81
 281 0010 0368     		ldr	r3, [r0]
 282              	.LBE90:
 283              	.LBE89:
 284              		.loc 1 125 13 view .LVU82
 285 0012 0D22     		movs	r2, #13
ARM GAS  C:\Users\DEVELO~1\AppData\Local\Temp\ccceJRvr.s 			page 6


 286              	.LBB93:
 287              	.LBB91:
 288              		.loc 6 283 18 view .LVU83
 289 0014 2B63     		str	r3, [r5, #48]
 290              	.LVL14:
 291              		.loc 6 284 3 is_stmt 1 view .LVU84
 292              		.loc 6 284 18 is_stmt 0 view .LVU85
 293 0016 5C60     		str	r4, [r3, #4]
 294              		.loc 6 286 3 is_stmt 1 view .LVU86
 295              	.LVL15:
 296              		.loc 6 286 3 is_stmt 0 view .LVU87
 297              	.LBE91:
 298              	.LBE93:
 299              		.loc 1 125 3 is_stmt 1 view .LVU88
 300              		.loc 1 125 13 is_stmt 0 view .LVU89
 301 0018 80F82420 		strb	r2, [r0, #36]
 302              		.loc 1 127 3 is_stmt 1 view .LVU90
 303              		.loc 1 128 1 is_stmt 0 view .LVU91
 304 001c 38BD     		pop	{r3, r4, r5, pc}
 305              	.LVL16:
 306              	.L11:
 307              		.loc 1 122 5 is_stmt 1 view .LVU92
 308 001e 0E20     		movs	r0, #14
 309 0020 FFF7FEFF 		bl	chSchGoSleepS
 310              	.LVL17:
 311              	.LBB94:
 312              	.LBB92:
 313              		.loc 6 281 15 is_stmt 0 view .LVU93
 314 0024 286B     		ldr	r0, [r5, #48]
 315 0026 F3E7     		b	.L9
 316              	.L13:
 317              		.align	2
 318              	.L12:
 319 0028 00000000 		.word	ch0
 320              	.LBE92:
 321              	.LBE94:
 322              		.cfi_endproc
 323              	.LFE347:
 324              		.size	chMsgWaitS, .-chMsgWaitS
 325              		.section	.text.chMsgWaitTimeoutS,"ax",%progbits
 326              		.align	1
 327              		.p2align 4,,15
 328              		.global	chMsgWaitTimeoutS
 329              		.syntax unified
 330              		.thumb
 331              		.thumb_func
 332              		.type	chMsgWaitTimeoutS, %function
 333              	chMsgWaitTimeoutS:
 334              	.LVL18:
 335              	.LFB348:
 336              		.loc 1 152 52 is_stmt 1 view -0
 337              		.cfi_startproc
 338              		@ args = 0, pretend = 0, frame = 0
 339              		@ frame_needed = 0, uses_anonymous_args = 0
 340              		.loc 1 153 3 view .LVU95
 341              	.LBB95:
 342              	.LBI95:
ARM GAS  C:\Users\DEVELO~1\AppData\Local\Temp\ccceJRvr.s 			page 7


 343              		.loc 2 341 25 view .LVU96
 344              	.LBB96:
 345              		.loc 2 343 3 view .LVU97
 346              	.LBE96:
 347              	.LBE95:
 348              		.loc 1 152 52 is_stmt 0 view .LVU98
 349 0000 38B5     		push	{r3, r4, r5, lr}
 350              		.cfi_def_cfa_offset 16
 351              		.cfi_offset 3, -16
 352              		.cfi_offset 4, -12
 353              		.cfi_offset 5, -8
 354              		.cfi_offset 14, -4
 355              	.LBB99:
 356              	.LBB97:
 357              		.loc 2 343 10 view .LVU99
 358 0002 0B4B     		ldr	r3, .L20
 359              	.LBE97:
 360              	.LBE99:
 361              		.loc 1 152 52 view .LVU100
 362 0004 0146     		mov	r1, r0
 363              	.LBB100:
 364              	.LBB98:
 365              		.loc 2 343 10 view .LVU101
 366 0006 DD68     		ldr	r5, [r3, #12]
 367              	.LVL19:
 368              		.loc 2 343 10 view .LVU102
 369              	.LBE98:
 370              	.LBE100:
 371              		.loc 1 154 3 is_stmt 1 view .LVU103
 372              		.loc 1 156 21 view .LVU104
 373              		.loc 1 158 3 view .LVU105
 374              	.LBB101:
 375              	.LBI101:
 376              		.loc 7 173 20 view .LVU106
 377              	.LBB102:
 378              		.loc 7 175 21 view .LVU107
 379              		.loc 7 177 3 view .LVU108
 380              		.loc 7 177 29 is_stmt 0 view .LVU109
 381 0008 2C46     		mov	r4, r5
 382 000a 54F8300F 		ldr	r0, [r4, #48]!
 383              	.LVL20:
 384              		.loc 7 177 29 view .LVU110
 385              	.LBE102:
 386              	.LBE101:
 387              		.loc 1 158 6 view .LVU111
 388 000e 8442     		cmp	r4, r0
 389 0010 06D0     		beq	.L19
 390              	.LVL21:
 391              	.L15:
 392              		.loc 1 163 3 is_stmt 1 view .LVU112
 393              	.LBB103:
 394              	.LBI103:
 395              		.loc 6 280 27 view .LVU113
 396              	.LBB104:
 397              		.loc 6 281 3 view .LVU114
 398              		.loc 6 283 3 view .LVU115
 399              		.loc 6 283 21 is_stmt 0 view .LVU116
ARM GAS  C:\Users\DEVELO~1\AppData\Local\Temp\ccceJRvr.s 			page 8


 400 0012 0368     		ldr	r3, [r0]
 401              	.LBE104:
 402              	.LBE103:
 403              		.loc 1 164 13 view .LVU117
 404 0014 0D22     		movs	r2, #13
 405              	.LBB107:
 406              	.LBB105:
 407              		.loc 6 283 18 view .LVU118
 408 0016 2B63     		str	r3, [r5, #48]
 409              	.LVL22:
 410              		.loc 6 284 3 is_stmt 1 view .LVU119
 411              		.loc 6 284 18 is_stmt 0 view .LVU120
 412 0018 5C60     		str	r4, [r3, #4]
 413              		.loc 6 286 3 is_stmt 1 view .LVU121
 414              	.LVL23:
 415              		.loc 6 286 3 is_stmt 0 view .LVU122
 416              	.LBE105:
 417              	.LBE107:
 418              		.loc 1 164 3 is_stmt 1 view .LVU123
 419              		.loc 1 164 13 is_stmt 0 view .LVU124
 420 001a 80F82420 		strb	r2, [r0, #36]
 421              		.loc 1 166 3 is_stmt 1 view .LVU125
 422              		.loc 1 167 1 is_stmt 0 view .LVU126
 423 001e 38BD     		pop	{r3, r4, r5, pc}
 424              	.LVL24:
 425              	.L19:
 426              		.loc 1 159 5 is_stmt 1 view .LVU127
 427              		.loc 1 159 9 is_stmt 0 view .LVU128
 428 0020 0E20     		movs	r0, #14
 429 0022 FFF7FEFF 		bl	chSchGoSleepTimeoutS
 430              	.LVL25:
 431              		.loc 1 159 8 view .LVU129
 432 0026 08B9     		cbnz	r0, .L17
 433              	.LBB108:
 434              	.LBB106:
 435              		.loc 6 281 15 view .LVU130
 436 0028 286B     		ldr	r0, [r5, #48]
 437 002a F2E7     		b	.L15
 438              	.L17:
 439              		.loc 6 281 15 view .LVU131
 440              	.LBE106:
 441              	.LBE108:
 442              		.loc 1 160 14 view .LVU132
 443 002c 0020     		movs	r0, #0
 444              		.loc 1 167 1 view .LVU133
 445 002e 38BD     		pop	{r3, r4, r5, pc}
 446              	.LVL26:
 447              	.L21:
 448              		.loc 1 167 1 view .LVU134
 449              		.align	2
 450              	.L20:
 451 0030 00000000 		.word	ch0
 452              		.cfi_endproc
 453              	.LFE348:
 454              		.size	chMsgWaitTimeoutS, .-chMsgWaitTimeoutS
 455              		.section	.text.chMsgPollS,"ax",%progbits
 456              		.align	1
ARM GAS  C:\Users\DEVELO~1\AppData\Local\Temp\ccceJRvr.s 			page 9


 457              		.p2align 4,,15
 458              		.global	chMsgPollS
 459              		.syntax unified
 460              		.thumb
 461              		.thumb_func
 462              		.type	chMsgPollS, %function
 463              	chMsgPollS:
 464              	.LFB349:
 465              		.loc 1 186 28 is_stmt 1 view -0
 466              		.cfi_startproc
 467              		@ args = 0, pretend = 0, frame = 0
 468              		@ frame_needed = 0, uses_anonymous_args = 0
 469              		@ link register save eliminated.
 470              		.loc 1 187 3 view .LVU136
 471              	.LBB109:
 472              	.LBI109:
 473              		.loc 2 341 25 view .LVU137
 474              	.LBB110:
 475              		.loc 2 343 3 view .LVU138
 476              		.loc 2 343 10 is_stmt 0 view .LVU139
 477 0000 084B     		ldr	r3, .L25
 478 0002 DA68     		ldr	r2, [r3, #12]
 479              	.LVL27:
 480              		.loc 2 343 10 view .LVU140
 481              	.LBE110:
 482              	.LBE109:
 483              		.loc 1 188 3 is_stmt 1 view .LVU141
 484              		.loc 1 190 3 view .LVU142
 485              	.LBB111:
 486              	.LBI111:
 487              		.loc 7 173 20 view .LVU143
 488              	.LBB112:
 489              		.loc 7 175 21 view .LVU144
 490              		.loc 7 177 3 view .LVU145
 491              		.loc 7 177 29 is_stmt 0 view .LVU146
 492 0004 1346     		mov	r3, r2
 493 0006 53F8300F 		ldr	r0, [r3, #48]!
 494              	.LVL28:
 495              		.loc 7 177 29 view .LVU147
 496              	.LBE112:
 497              	.LBE111:
 498              		.loc 1 190 6 view .LVU148
 499 000a 8342     		cmp	r3, r0
 500 000c 07D0     		beq	.L24
 501              		.loc 1 191 5 is_stmt 1 view .LVU149
 502              	.LVL29:
 503              	.LBB113:
 504              	.LBI113:
 505              		.loc 6 280 27 view .LVU150
 506              	.LBB114:
 507              		.loc 6 281 3 view .LVU151
 508              		.loc 6 283 3 view .LVU152
 509              		.loc 6 283 21 is_stmt 0 view .LVU153
 510 000e 0168     		ldr	r1, [r0]
 511              	.LBE114:
 512              	.LBE113:
 513              		.loc 1 192 15 view .LVU154
ARM GAS  C:\Users\DEVELO~1\AppData\Local\Temp\ccceJRvr.s 			page 10


 514 0010 4FF00D0C 		mov	ip, #13
 515              	.LBB116:
 516              	.LBB115:
 517              		.loc 6 283 18 view .LVU155
 518 0014 1163     		str	r1, [r2, #48]
 519              		.loc 6 284 3 is_stmt 1 view .LVU156
 520              		.loc 6 284 18 is_stmt 0 view .LVU157
 521 0016 4B60     		str	r3, [r1, #4]
 522              		.loc 6 286 3 is_stmt 1 view .LVU158
 523              	.LVL30:
 524              		.loc 6 286 3 is_stmt 0 view .LVU159
 525              	.LBE115:
 526              	.LBE116:
 527              		.loc 1 192 5 is_stmt 1 view .LVU160
 528              		.loc 1 192 15 is_stmt 0 view .LVU161
 529 0018 80F824C0 		strb	ip, [r0, #36]
 530 001c 7047     		bx	lr
 531              	.LVL31:
 532              	.L24:
 533              		.loc 1 188 13 view .LVU162
 534 001e 0020     		movs	r0, #0
 535              		.loc 1 195 3 is_stmt 1 view .LVU163
 536              		.loc 1 196 1 is_stmt 0 view .LVU164
 537 0020 7047     		bx	lr
 538              	.L26:
 539 0022 00BF     		.align	2
 540              	.L25:
 541 0024 00000000 		.word	ch0
 542              		.cfi_endproc
 543              	.LFE349:
 544              		.size	chMsgPollS, .-chMsgPollS
 545              		.section	.text.chMsgRelease,"ax",%progbits
 546              		.align	1
 547              		.p2align 4,,15
 548              		.global	chMsgRelease
 549              		.syntax unified
 550              		.thumb
 551              		.thumb_func
 552              		.type	chMsgRelease, %function
 553              	chMsgRelease:
 554              	.LVL32:
 555              	.LFB350:
 556              		.loc 1 208 44 is_stmt 1 view -0
 557              		.cfi_startproc
 558              		@ args = 0, pretend = 0, frame = 0
 559              		@ frame_needed = 0, uses_anonymous_args = 0
 560              		.loc 1 210 3 view .LVU166
 561              	.LBB117:
 562              	.LBI117:
 563              		.loc 4 407 20 view .LVU167
 564              		.loc 4 409 3 view .LVU168
 565              	.LBB118:
 566              	.LBI118:
 567              		.loc 5 823 27 view .LVU169
 568              		.loc 5 831 3 view .LVU170
 569              	.LBB119:
 570              	.LBI119:
ARM GAS  C:\Users\DEVELO~1\AppData\Local\Temp\ccceJRvr.s 			page 11


 571              		.loc 3 491 27 view .LVU171
 572              	.LBB120:
 573              		.loc 3 493 3 view .LVU172
 574              	.LBE120:
 575              	.LBE119:
 576              	.LBE118:
 577              	.LBE117:
 578              		.loc 1 208 44 is_stmt 0 view .LVU173
 579 0000 08B5     		push	{r3, lr}
 580              		.cfi_def_cfa_offset 8
 581              		.cfi_offset 3, -8
 582              		.cfi_offset 14, -4
 583              	.LBB124:
 584              	.LBB123:
 585              	.LBB122:
 586              	.LBB121:
 587              		.loc 3 493 3 view .LVU174
 588 0002 3023     		movs	r3, #48
 589              		.syntax unified
 590              	@ 493 "../../../os/common/ext/ARM/CMSIS/Core/Include/cmsis_gcc.h" 1
 591 0004 83F31188 		MSR basepri, r3
 592              	@ 0 "" 2
 593              	.LVL33:
 594              		.loc 3 493 3 view .LVU175
 595              		.thumb
 596              		.syntax unified
 597              	.LBE121:
 598              	.LBE122:
 599              	.LBE123:
 600              		.loc 4 410 35 is_stmt 1 view .LVU176
 601              		.loc 4 411 21 view .LVU177
 602              	.LBE124:
 603              		.loc 1 211 3 view .LVU178
 604              		.loc 1 211 3 view .LVU179
 605              		.loc 1 211 3 view .LVU180
 606              		.loc 1 212 3 view .LVU181
 607              	.LBB125:
 608              	.LBI125:
 609              		.loc 7 207 20 view .LVU182
 610              	.LBB126:
 611              		.loc 7 209 21 view .LVU183
 612              		.loc 7 211 3 view .LVU184
 613 0008 FFF7FEFF 		bl	chSchWakeupS
 614              	.LVL34:
 615              		.loc 7 211 3 is_stmt 0 view .LVU185
 616              	.LBE126:
 617              	.LBE125:
 618              		.loc 1 213 3 is_stmt 1 view .LVU186
 619              	.LBB127:
 620              	.LBI127:
 621              		.loc 4 421 20 view .LVU187
 622              	.LBB128:
 623              		.loc 4 423 23 view .LVU188
 624              		.loc 4 424 34 view .LVU189
 625              		.loc 4 430 3 view .LVU190
 626              		.loc 4 430 3 view .LVU191
 627              		.loc 4 430 3 view .LVU192
ARM GAS  C:\Users\DEVELO~1\AppData\Local\Temp\ccceJRvr.s 			page 12


 628              		.loc 4 434 3 view .LVU193
 629              	.LBB129:
 630              	.LBI129:
 631              		.loc 5 847 27 view .LVU194
 632              		.loc 5 850 3 view .LVU195
 633              	.LBB130:
 634              	.LBI130:
 635              		.loc 3 491 27 view .LVU196
 636              	.LBB131:
 637              		.loc 3 493 3 view .LVU197
 638 000c 0023     		movs	r3, #0
 639              		.syntax unified
 640              	@ 493 "../../../os/common/ext/ARM/CMSIS/Core/Include/cmsis_gcc.h" 1
 641 000e 83F31188 		MSR basepri, r3
 642              	@ 0 "" 2
 643              	.LVL35:
 644              		.loc 3 493 3 is_stmt 0 view .LVU198
 645              		.thumb
 646              		.syntax unified
 647              	.LBE131:
 648              	.LBE130:
 649              	.LBE129:
 650              	.LBE128:
 651              	.LBE127:
 652              		.loc 1 214 1 view .LVU199
 653 0012 08BD     		pop	{r3, pc}
 654              		.cfi_endproc
 655              	.LFE350:
 656              		.size	chMsgRelease, .-chMsgRelease
 657              		.text
 658              	.Letext0:
 659              		.file 8 "c:\\chibistudio\\tools\\gnu tools arm embedded\\11.3 2022.08\\arm-none-eabi\\include\\mac
 660              		.file 9 "c:\\chibistudio\\tools\\gnu tools arm embedded\\11.3 2022.08\\arm-none-eabi\\include\\sys
 661              		.file 10 "../../../os/common/ports/ARM-common/chtypes.h"
 662              		.file 11 "../../../os/rt/include/chearly.h"
 663              		.file 12 "../../../os/rt/include/chobjects.h"
 664              		.file 13 "../../../os/rt/include/chrfcu.h"
 665              		.file 14 "../../../os/rt/include/chdebug.h"
 666              		.file 15 "../../../os/rt/include/chtime.h"
 667              		.file 16 "../../../os/rt/include/chtrace.h"
 668              		.file 17 "../../../os/rt/include/chsem.h"
 669              		.file 18 "../../../os/rt/include/chmtx.h"
 670              		.file 19 "../../../os/rt/include/chschd.h"
 671              		.section	.debug_info,"",%progbits
 672              	.Ldebug_info0:
 673 0000 CB0E0000 		.4byte	0xecb
 674 0004 0500     		.2byte	0x5
 675 0006 01       		.byte	0x1
 676 0007 04       		.byte	0x4
 677 0008 00000000 		.4byte	.Ldebug_abbrev0
 678 000c 2B       		.uleb128 0x2b
 679 000d 62020000 		.4byte	.LASF142
 680 0011 1D       		.byte	0x1d
 681 0012 E5060000 		.4byte	.LASF143
 682 0016 36000000 		.4byte	.LASF144
 683 001a 87000000 		.4byte	.LLRL36
 684 001e 00000000 		.4byte	0
ARM GAS  C:\Users\DEVELO~1\AppData\Local\Temp\ccceJRvr.s 			page 13


 685 0022 00000000 		.4byte	.Ldebug_line0
 686 0026 2C       		.uleb128 0x2c
 687 0027 04       		.byte	0x4
 688 0028 05       		.byte	0x5
 689 0029 696E7400 		.ascii	"int\000"
 690 002d 06       		.uleb128 0x6
 691 002e 04       		.byte	0x4
 692 002f 07       		.byte	0x7
 693 0030 03020000 		.4byte	.LASF0
 694 0034 06       		.uleb128 0x6
 695 0035 08       		.byte	0x8
 696 0036 05       		.byte	0x5
 697 0037 E7000000 		.4byte	.LASF1
 698 003b 06       		.uleb128 0x6
 699 003c 08       		.byte	0x8
 700 003d 04       		.byte	0x4
 701 003e A3050000 		.4byte	.LASF2
 702 0042 06       		.uleb128 0x6
 703 0043 01       		.byte	0x1
 704 0044 06       		.byte	0x6
 705 0045 F5000000 		.4byte	.LASF3
 706 0049 01       		.uleb128 0x1
 707 004a 2C000000 		.4byte	.LASF6
 708 004e 08       		.byte	0x8
 709 004f 2B       		.byte	0x2b
 710 0050 18       		.byte	0x18
 711 0051 55000000 		.4byte	0x55
 712 0055 06       		.uleb128 0x6
 713 0056 01       		.byte	0x1
 714 0057 08       		.byte	0x8
 715 0058 C8040000 		.4byte	.LASF4
 716 005c 06       		.uleb128 0x6
 717 005d 02       		.byte	0x2
 718 005e 05       		.byte	0x5
 719 005f 95030000 		.4byte	.LASF5
 720 0063 01       		.uleb128 0x1
 721 0064 C2050000 		.4byte	.LASF7
 722 0068 08       		.byte	0x8
 723 0069 39       		.byte	0x39
 724 006a 19       		.byte	0x19
 725 006b 6F000000 		.4byte	0x6f
 726 006f 06       		.uleb128 0x6
 727 0070 02       		.byte	0x2
 728 0071 07       		.byte	0x7
 729 0072 38030000 		.4byte	.LASF8
 730 0076 01       		.uleb128 0x1
 731 0077 9F030000 		.4byte	.LASF9
 732 007b 08       		.byte	0x8
 733 007c 4D       		.byte	0x4d
 734 007d 18       		.byte	0x18
 735 007e 82000000 		.4byte	0x82
 736 0082 06       		.uleb128 0x6
 737 0083 04       		.byte	0x4
 738 0084 05       		.byte	0x5
 739 0085 34010000 		.4byte	.LASF10
 740 0089 01       		.uleb128 0x1
 741 008a B6010000 		.4byte	.LASF11
ARM GAS  C:\Users\DEVELO~1\AppData\Local\Temp\ccceJRvr.s 			page 14


 742 008e 08       		.byte	0x8
 743 008f 4F       		.byte	0x4f
 744 0090 19       		.byte	0x19
 745 0091 95000000 		.4byte	0x95
 746 0095 06       		.uleb128 0x6
 747 0096 04       		.byte	0x4
 748 0097 07       		.byte	0x7
 749 0098 36020000 		.4byte	.LASF12
 750 009c 01       		.uleb128 0x1
 751 009d 7B040000 		.4byte	.LASF13
 752 00a1 08       		.byte	0x8
 753 00a2 69       		.byte	0x69
 754 00a3 19       		.byte	0x19
 755 00a4 A8000000 		.4byte	0xa8
 756 00a8 06       		.uleb128 0x6
 757 00a9 08       		.byte	0x8
 758 00aa 07       		.byte	0x7
 759 00ab 0F010000 		.4byte	.LASF14
 760 00af 01       		.uleb128 0x1
 761 00b0 B5060000 		.4byte	.LASF15
 762 00b4 09       		.byte	0x9
 763 00b5 18       		.byte	0x18
 764 00b6 13       		.byte	0x13
 765 00b7 49000000 		.4byte	0x49
 766 00bb 01       		.uleb128 0x1
 767 00bc 6D010000 		.4byte	.LASF16
 768 00c0 09       		.byte	0x9
 769 00c1 24       		.byte	0x24
 770 00c2 14       		.byte	0x14
 771 00c3 63000000 		.4byte	0x63
 772 00c7 01       		.uleb128 0x1
 773 00c8 C0040000 		.4byte	.LASF17
 774 00cc 09       		.byte	0x9
 775 00cd 2C       		.byte	0x2c
 776 00ce 13       		.byte	0x13
 777 00cf 76000000 		.4byte	0x76
 778 00d3 01       		.uleb128 0x1
 779 00d4 7D050000 		.4byte	.LASF18
 780 00d8 09       		.byte	0x9
 781 00d9 30       		.byte	0x30
 782 00da 14       		.byte	0x14
 783 00db 89000000 		.4byte	0x89
 784 00df 01       		.uleb128 0x1
 785 00e0 3D040000 		.4byte	.LASF19
 786 00e4 09       		.byte	0x9
 787 00e5 3C       		.byte	0x3c
 788 00e6 14       		.byte	0x14
 789 00e7 9C000000 		.4byte	0x9c
 790 00eb 25       		.uleb128 0x25
 791 00ec DF000000 		.4byte	0xdf
 792 00f0 01       		.uleb128 0x1
 793 00f1 8D050000 		.4byte	.LASF20
 794 00f5 0A       		.byte	0xa
 795 00f6 48       		.byte	0x48
 796 00f7 1D       		.byte	0x1d
 797 00f8 DF000000 		.4byte	0xdf
 798 00fc 01       		.uleb128 0x1
ARM GAS  C:\Users\DEVELO~1\AppData\Local\Temp\ccceJRvr.s 			page 15


 799 00fd BF030000 		.4byte	.LASF21
 800 0101 0B       		.byte	0xb
 801 0102 50       		.byte	0x50
 802 0103 19       		.byte	0x19
 803 0104 F0000000 		.4byte	0xf0
 804 0108 01       		.uleb128 0x1
 805 0109 6B030000 		.4byte	.LASF22
 806 010d 0B       		.byte	0xb
 807 010e 53       		.byte	0x53
 808 010f 19       		.byte	0x19
 809 0110 AF000000 		.4byte	0xaf
 810 0114 01       		.uleb128 0x1
 811 0115 47010000 		.4byte	.LASF23
 812 0119 0B       		.byte	0xb
 813 011a 54       		.byte	0x54
 814 011b 19       		.byte	0x19
 815 011c AF000000 		.4byte	0xaf
 816 0120 01       		.uleb128 0x1
 817 0121 90040000 		.4byte	.LASF24
 818 0125 0B       		.byte	0xb
 819 0126 55       		.byte	0x55
 820 0127 19       		.byte	0x19
 821 0128 AF000000 		.4byte	0xaf
 822 012c 01       		.uleb128 0x1
 823 012d A2040000 		.4byte	.LASF25
 824 0131 0B       		.byte	0xb
 825 0132 57       		.byte	0x57
 826 0133 19       		.byte	0x19
 827 0134 D3000000 		.4byte	0xd3
 828 0138 01       		.uleb128 0x1
 829 0139 5C030000 		.4byte	.LASF26
 830 013d 0B       		.byte	0xb
 831 013e 58       		.byte	0x58
 832 013f 19       		.byte	0x19
 833 0140 C7000000 		.4byte	0xc7
 834 0144 01       		.uleb128 0x1
 835 0145 89030000 		.4byte	.LASF27
 836 0149 0B       		.byte	0xb
 837 014a 5A       		.byte	0x5a
 838 014b 19       		.byte	0x19
 839 014c D3000000 		.4byte	0xd3
 840 0150 01       		.uleb128 0x1
 841 0151 F4010000 		.4byte	.LASF28
 842 0155 0B       		.byte	0xb
 843 0156 5C       		.byte	0x5c
 844 0157 19       		.byte	0x19
 845 0158 C7000000 		.4byte	0xc7
 846 015c 01       		.uleb128 0x1
 847 015d 86040000 		.4byte	.LASF29
 848 0161 0B       		.byte	0xb
 849 0162 80       		.byte	0x80
 850 0163 12       		.byte	0x12
 851 0164 2D000000 		.4byte	0x2d
 852 0168 01       		.uleb128 0x1
 853 0169 D9050000 		.4byte	.LASF30
 854 016d 0B       		.byte	0xb
 855 016e 85       		.byte	0x85
ARM GAS  C:\Users\DEVELO~1\AppData\Local\Temp\ccceJRvr.s 			page 16


 856 016f 1A       		.byte	0x1a
 857 0170 74010000 		.4byte	0x174
 858 0174 08       		.uleb128 0x8
 859 0175 4B030000 		.4byte	.LASF45
 860 0179 48       		.byte	0x48
 861 017a 0C       		.byte	0xc
 862 017b 9C       		.byte	0x9c
 863 017c 08       		.byte	0x8
 864 017d 51020000 		.4byte	0x251
 865 0181 09       		.uleb128 0x9
 866 0182 68647200 		.ascii	"hdr\000"
 867 0186 0C       		.byte	0xc
 868 0187 AD       		.byte	0xad
 869 0188 05       		.byte	0x5
 870 0189 01070000 		.4byte	0x701
 871 018d 00       		.byte	0
 872 018e 09       		.uleb128 0x9
 873 018f 63747800 		.ascii	"ctx\000"
 874 0193 0C       		.byte	0xc
 875 0194 B1       		.byte	0xb1
 876 0195 21       		.byte	0x21
 877 0196 6C060000 		.4byte	0x66c
 878 019a 0C       		.byte	0xc
 879 019b 02       		.uleb128 0x2
 880 019c 48020000 		.4byte	.LASF31
 881 01a0 0C       		.byte	0xc
 882 01a1 B6       		.byte	0xb6
 883 01a2 21       		.byte	0x21
 884 01a3 97030000 		.4byte	0x397
 885 01a7 10       		.byte	0x10
 886 01a8 02       		.uleb128 0x2
 887 01a9 9D050000 		.4byte	.LASF32
 888 01ad 0C       		.byte	0xc
 889 01ae BB       		.byte	0xbb
 890 01af 22       		.byte	0x22
 891 01b0 03080000 		.4byte	0x803
 892 01b4 18       		.byte	0x18
 893 01b5 02       		.uleb128 0x2
 894 01b6 17030000 		.4byte	.LASF33
 895 01ba 0C       		.byte	0xc
 896 01bb C0       		.byte	0xc0
 897 01bc 22       		.byte	0x22
 898 01bd 31030000 		.4byte	0x331
 899 01c1 1C       		.byte	0x1c
 900 01c2 02       		.uleb128 0x2
 901 01c3 AF050000 		.4byte	.LASF34
 902 01c7 0C       		.byte	0xc
 903 01c8 C9       		.byte	0xc9
 904 01c9 22       		.byte	0x22
 905 01ca 08080000 		.4byte	0x808
 906 01ce 20       		.byte	0x20
 907 01cf 02       		.uleb128 0x2
 908 01d0 2E010000 		.4byte	.LASF35
 909 01d4 0C       		.byte	0xc
 910 01d5 CE       		.byte	0xce
 911 01d6 21       		.byte	0x21
 912 01d7 14010000 		.4byte	0x114
ARM GAS  C:\Users\DEVELO~1\AppData\Local\Temp\ccceJRvr.s 			page 17


 913 01db 24       		.byte	0x24
 914 01dc 02       		.uleb128 0x2
 915 01dd BD060000 		.4byte	.LASF36
 916 01e1 0C       		.byte	0xc
 917 01e2 D2       		.byte	0xd2
 918 01e3 21       		.byte	0x21
 919 01e4 08010000 		.4byte	0x108
 920 01e8 25       		.byte	0x25
 921 01e9 02       		.uleb128 0x2
 922 01ea 98040000 		.4byte	.LASF37
 923 01ee 0C       		.byte	0xc
 924 01ef D7       		.byte	0xd7
 925 01f0 21       		.byte	0x21
 926 01f1 20010000 		.4byte	0x120
 927 01f5 26       		.byte	0x26
 928 01f6 07       		.uleb128 0x7
 929 01f7 7500     		.ascii	"u\000"
 930 01f9 0C       		.byte	0xc
 931 01fa 2801     		.2byte	0x128
 932 01fc 21       		.byte	0x21
 933 01fd 2E070000 		.4byte	0x72e
 934 0201 28       		.byte	0x28
 935 0202 03       		.uleb128 0x3
 936 0203 C6010000 		.4byte	.LASF38
 937 0207 2D01     		.2byte	0x12d
 938 0209 21       		.byte	0x21
 939 020a 6B030000 		.4byte	0x36b
 940 020e 2C       		.byte	0x2c
 941 020f 03       		.uleb128 0x3
 942 0210 FA010000 		.4byte	.LASF39
 943 0214 3301     		.2byte	0x133
 944 0216 21       		.byte	0x21
 945 0217 97030000 		.4byte	0x397
 946 021b 30       		.byte	0x30
 947 021c 03       		.uleb128 0x3
 948 021d 62030000 		.4byte	.LASF40
 949 0221 3901     		.2byte	0x139
 950 0223 21       		.byte	0x21
 951 0224 44010000 		.4byte	0x144
 952 0228 38       		.byte	0x38
 953 0229 03       		.uleb128 0x3
 954 022a 1E070000 		.4byte	.LASF41
 955 022e 4001     		.2byte	0x140
 956 0230 22       		.byte	0x22
 957 0231 FE070000 		.4byte	0x7fe
 958 0235 3C       		.byte	0x3c
 959 0236 03       		.uleb128 0x3
 960 0237 DC030000 		.4byte	.LASF42
 961 023b 4401     		.2byte	0x144
 962 023d 21       		.byte	0x21
 963 023e 2C010000 		.4byte	0x12c
 964 0242 40       		.byte	0x40
 965 0243 03       		.uleb128 0x3
 966 0244 22030000 		.4byte	.LASF43
 967 0248 4B01     		.2byte	0x14b
 968 024a 22       		.byte	0x22
 969 024b 84040000 		.4byte	0x484
ARM GAS  C:\Users\DEVELO~1\AppData\Local\Temp\ccceJRvr.s 			page 18


 970 024f 44       		.byte	0x44
 971 0250 00       		.byte	0
 972 0251 01       		.uleb128 0x1
 973 0252 2D060000 		.4byte	.LASF44
 974 0256 0B       		.byte	0xb
 975 0257 8A       		.byte	0x8a
 976 0258 1F       		.byte	0x1f
 977 0259 5D020000 		.4byte	0x25d
 978 025d 2D       		.uleb128 0x2d
 979 025e 1E060000 		.4byte	.LASF46
 980 0262 9008     		.2byte	0x890
 981 0264 0C       		.byte	0xc
 982 0265 8A01     		.2byte	0x18a
 983 0267 08       		.byte	0x8
 984 0268 E3020000 		.4byte	0x2e3
 985 026c 03       		.uleb128 0x3
 986 026d A1060000 		.4byte	.LASF47
 987 0271 8E01     		.2byte	0x18e
 988 0273 21       		.byte	0x21
 989 0274 36080000 		.4byte	0x836
 990 0278 00       		.byte	0
 991 0279 03       		.uleb128 0x3
 992 027a 98000000 		.4byte	.LASF48
 993 027e 9201     		.2byte	0x192
 994 0280 21       		.byte	0x21
 995 0281 C2060000 		.4byte	0x6c2
 996 0285 10       		.byte	0x10
 997 0286 03       		.uleb128 0x3
 998 0287 3B060000 		.4byte	.LASF49
 999 028b 9901     		.2byte	0x199
 1000 028d 21       		.byte	0x21
 1001 028e E9060000 		.4byte	0x6e9
 1002 0292 28       		.byte	0x28
 1003 0293 03       		.uleb128 0x3
 1004 0294 05000000 		.4byte	.LASF50
 1005 0298 9E01     		.2byte	0x19e
 1006 029a 21       		.byte	0x21
 1007 029b 5C010000 		.4byte	0x15c
 1008 029f 30       		.byte	0x30
 1009 02a0 03       		.uleb128 0x3
 1010 02a1 27000000 		.4byte	.LASF51
 1011 02a5 A401     		.2byte	0x1a4
 1012 02a7 21       		.byte	0x21
 1013 02a8 0A030000 		.4byte	0x30a
 1014 02ac 34       		.byte	0x34
 1015 02ad 03       		.uleb128 0x3
 1016 02ae BB050000 		.4byte	.LASF52
 1017 02b2 A901     		.2byte	0x1a9
 1018 02b4 22       		.byte	0x22
 1019 02b5 A1080000 		.4byte	0x8a1
 1020 02b9 38       		.byte	0x38
 1021 02ba 03       		.uleb128 0x3
 1022 02bb C9000000 		.4byte	.LASF53
 1023 02bf AD01     		.2byte	0x1ad
 1024 02c1 21       		.byte	0x21
 1025 02c2 68010000 		.4byte	0x168
 1026 02c6 3C       		.byte	0x3c
ARM GAS  C:\Users\DEVELO~1\AppData\Local\Temp\ccceJRvr.s 			page 19


 1027 02c7 07       		.uleb128 0x7
 1028 02c8 64626700 		.ascii	"dbg\000"
 1029 02cc 0C       		.byte	0xc
 1030 02cd B101     		.2byte	0x1b1
 1031 02cf 21       		.byte	0x21
 1032 02d0 47030000 		.4byte	0x347
 1033 02d4 84       		.byte	0x84
 1034 02d5 03       		.uleb128 0x3
 1035 02d6 CC060000 		.4byte	.LASF54
 1036 02da B601     		.2byte	0x1b6
 1037 02dc 21       		.byte	0x21
 1038 02dd DA050000 		.4byte	0x5da
 1039 02e1 88       		.byte	0x88
 1040 02e2 00       		.byte	0
 1041 02e3 01       		.uleb128 0x1
 1042 02e4 E5030000 		.4byte	.LASF55
 1043 02e8 0D       		.byte	0xd
 1044 02e9 3F       		.byte	0x3f
 1045 02ea 12       		.byte	0x12
 1046 02eb D3000000 		.4byte	0xd3
 1047 02ef 08       		.uleb128 0x8
 1048 02f0 50010000 		.4byte	.LASF56
 1049 02f4 04       		.byte	0x4
 1050 02f5 0D       		.byte	0xd
 1051 02f6 44       		.byte	0x44
 1052 02f7 10       		.byte	0x10
 1053 02f8 0A030000 		.4byte	0x30a
 1054 02fc 02       		.uleb128 0x2
 1055 02fd C1010000 		.4byte	.LASF57
 1056 0301 0D       		.byte	0xd
 1057 0302 48       		.byte	0x48
 1058 0303 21       		.byte	0x21
 1059 0304 E3020000 		.4byte	0x2e3
 1060 0308 00       		.byte	0
 1061 0309 00       		.byte	0
 1062 030a 01       		.uleb128 0x1
 1063 030b D6040000 		.4byte	.LASF58
 1064 030f 0D       		.byte	0xd
 1065 0310 49       		.byte	0x49
 1066 0311 03       		.byte	0x3
 1067 0312 EF020000 		.4byte	0x2ef
 1068 0316 08       		.uleb128 0x8
 1069 0317 AA040000 		.4byte	.LASF59
 1070 031b 04       		.byte	0x4
 1071 031c 0E       		.byte	0xe
 1072 031d 3E       		.byte	0x3e
 1073 031e 10       		.byte	0x10
 1074 031f 31030000 		.4byte	0x331
 1075 0323 02       		.uleb128 0x2
 1076 0324 0D060000 		.4byte	.LASF60
 1077 0328 0E       		.byte	0xe
 1078 0329 46       		.byte	0x46
 1079 032a 24       		.byte	0x24
 1080 032b 36030000 		.4byte	0x336
 1081 032f 00       		.byte	0
 1082 0330 00       		.byte	0
 1083 0331 04       		.uleb128 0x4
ARM GAS  C:\Users\DEVELO~1\AppData\Local\Temp\ccceJRvr.s 			page 20


 1084 0332 42030000 		.4byte	0x342
 1085 0336 25       		.uleb128 0x25
 1086 0337 31030000 		.4byte	0x331
 1087 033b 06       		.uleb128 0x6
 1088 033c 01       		.byte	0x1
 1089 033d 08       		.byte	0x8
 1090 033e B6050000 		.4byte	.LASF61
 1091 0342 0E       		.uleb128 0xe
 1092 0343 3B030000 		.4byte	0x33b
 1093 0347 01       		.uleb128 0x1
 1094 0348 27020000 		.4byte	.LASF62
 1095 034c 0E       		.byte	0xe
 1096 034d 51       		.byte	0x51
 1097 034e 03       		.byte	0x3
 1098 034f 16030000 		.4byte	0x316
 1099 0353 01       		.uleb128 0x1
 1100 0354 E8050000 		.4byte	.LASF63
 1101 0358 0F       		.byte	0xf
 1102 0359 6D       		.byte	0x6d
 1103 035a 12       		.byte	0x12
 1104 035b D3000000 		.4byte	0xd3
 1105 035f 01       		.uleb128 0x1
 1106 0360 E6010000 		.4byte	.LASF64
 1107 0364 0F       		.byte	0xf
 1108 0365 79       		.byte	0x79
 1109 0366 12       		.byte	0x12
 1110 0367 D3000000 		.4byte	0xd3
 1111 036b 01       		.uleb128 0x1
 1112 036c 29040000 		.4byte	.LASF65
 1113 0370 06       		.byte	0x6
 1114 0371 32       		.byte	0x32
 1115 0372 18       		.byte	0x18
 1116 0373 77030000 		.4byte	0x377
 1117 0377 08       		.uleb128 0x8
 1118 0378 73030000 		.4byte	.LASF66
 1119 037c 04       		.byte	0x4
 1120 037d 06       		.byte	0x6
 1121 037e 38       		.byte	0x38
 1122 037f 08       		.byte	0x8
 1123 0380 92030000 		.4byte	0x392
 1124 0384 02       		.uleb128 0x2
 1125 0385 E2000000 		.4byte	.LASF67
 1126 0389 06       		.byte	0x6
 1127 038a 39       		.byte	0x39
 1128 038b 1A       		.byte	0x1a
 1129 038c 92030000 		.4byte	0x392
 1130 0390 00       		.byte	0
 1131 0391 00       		.byte	0
 1132 0392 04       		.uleb128 0x4
 1133 0393 6B030000 		.4byte	0x36b
 1134 0397 01       		.uleb128 0x1
 1135 0398 4F020000 		.4byte	.LASF68
 1136 039c 06       		.byte	0x6
 1137 039d 3F       		.byte	0x3f
 1138 039e 19       		.byte	0x19
 1139 039f A3030000 		.4byte	0x3a3
 1140 03a3 08       		.uleb128 0x8
ARM GAS  C:\Users\DEVELO~1\AppData\Local\Temp\ccceJRvr.s 			page 21


 1141 03a4 64010000 		.4byte	.LASF69
 1142 03a8 08       		.byte	0x8
 1143 03a9 06       		.byte	0x6
 1144 03aa 45       		.byte	0x45
 1145 03ab 08       		.byte	0x8
 1146 03ac CB030000 		.4byte	0x3cb
 1147 03b0 02       		.uleb128 0x2
 1148 03b1 E2000000 		.4byte	.LASF67
 1149 03b5 06       		.byte	0x6
 1150 03b6 46       		.byte	0x46
 1151 03b7 1A       		.byte	0x1a
 1152 03b8 CB030000 		.4byte	0x3cb
 1153 03bc 00       		.byte	0
 1154 03bd 02       		.uleb128 0x2
 1155 03be 00000000 		.4byte	.LASF70
 1156 03c2 06       		.byte	0x6
 1157 03c3 47       		.byte	0x47
 1158 03c4 1A       		.byte	0x1a
 1159 03c5 CB030000 		.4byte	0x3cb
 1160 03c9 04       		.byte	0x4
 1161 03ca 00       		.byte	0
 1162 03cb 04       		.uleb128 0x4
 1163 03cc 97030000 		.4byte	0x397
 1164 03d0 01       		.uleb128 0x1
 1165 03d1 F9050000 		.4byte	.LASF71
 1166 03d5 06       		.byte	0x6
 1167 03d6 4E       		.byte	0x4e
 1168 03d7 22       		.byte	0x22
 1169 03d8 DC030000 		.4byte	0x3dc
 1170 03dc 08       		.uleb128 0x8
 1171 03dd 43060000 		.4byte	.LASF72
 1172 03e1 0C       		.byte	0xc
 1173 03e2 06       		.byte	0x6
 1174 03e3 55       		.byte	0x55
 1175 03e4 08       		.byte	0x8
 1176 03e5 11040000 		.4byte	0x411
 1177 03e9 02       		.uleb128 0x2
 1178 03ea E2000000 		.4byte	.LASF67
 1179 03ee 06       		.byte	0x6
 1180 03ef 56       		.byte	0x56
 1181 03f0 1A       		.byte	0x1a
 1182 03f1 11040000 		.4byte	0x411
 1183 03f5 00       		.byte	0
 1184 03f6 02       		.uleb128 0x2
 1185 03f7 00000000 		.4byte	.LASF70
 1186 03fb 06       		.byte	0x6
 1187 03fc 57       		.byte	0x57
 1188 03fd 1A       		.byte	0x1a
 1189 03fe 11040000 		.4byte	0x411
 1190 0402 04       		.byte	0x4
 1191 0403 02       		.uleb128 0x2
 1192 0404 6E040000 		.4byte	.LASF73
 1193 0408 06       		.byte	0x6
 1194 0409 58       		.byte	0x58
 1195 040a 19       		.byte	0x19
 1196 040b 2C010000 		.4byte	0x12c
 1197 040f 08       		.byte	0x8
ARM GAS  C:\Users\DEVELO~1\AppData\Local\Temp\ccceJRvr.s 			page 22


 1198 0410 00       		.byte	0
 1199 0411 04       		.uleb128 0x4
 1200 0412 D0030000 		.4byte	0x3d0
 1201 0416 01       		.uleb128 0x1
 1202 0417 60060000 		.4byte	.LASF74
 1203 041b 06       		.byte	0x6
 1204 041c 5F       		.byte	0x5f
 1205 041d 1E       		.byte	0x1e
 1206 041e 22040000 		.4byte	0x422
 1207 0422 08       		.uleb128 0x8
 1208 0423 01010000 		.4byte	.LASF75
 1209 0427 0C       		.byte	0xc
 1210 0428 06       		.byte	0x6
 1211 0429 64       		.byte	0x64
 1212 042a 08       		.byte	0x8
 1213 042b 57040000 		.4byte	0x457
 1214 042f 02       		.uleb128 0x2
 1215 0430 E2000000 		.4byte	.LASF67
 1216 0434 06       		.byte	0x6
 1217 0435 65       		.byte	0x65
 1218 0436 1A       		.byte	0x1a
 1219 0437 57040000 		.4byte	0x457
 1220 043b 00       		.byte	0
 1221 043c 02       		.uleb128 0x2
 1222 043d 00000000 		.4byte	.LASF70
 1223 0441 06       		.byte	0x6
 1224 0442 66       		.byte	0x66
 1225 0443 1A       		.byte	0x1a
 1226 0444 57040000 		.4byte	0x457
 1227 0448 04       		.byte	0x4
 1228 0449 02       		.uleb128 0x2
 1229 044a DC000000 		.4byte	.LASF76
 1230 044e 06       		.byte	0x6
 1231 044f 67       		.byte	0x67
 1232 0450 19       		.byte	0x19
 1233 0451 5F030000 		.4byte	0x35f
 1234 0455 08       		.byte	0x8
 1235 0456 00       		.byte	0
 1236 0457 04       		.uleb128 0x4
 1237 0458 16040000 		.4byte	0x416
 1238 045c 0B       		.uleb128 0xb
 1239 045d 08       		.byte	0x8
 1240 045e 83       		.byte	0x83
 1241 045f 05       		.byte	0x5
 1242 0460 7F040000 		.4byte	0x47f
 1243 0464 09       		.uleb128 0x9
 1244 0465 6E747000 		.ascii	"ntp\000"
 1245 0469 10       		.byte	0x10
 1246 046a 87       		.byte	0x87
 1247 046b 1E       		.byte	0x1e
 1248 046c 7F040000 		.4byte	0x47f
 1249 0470 00       		.byte	0
 1250 0471 02       		.uleb128 0x2
 1251 0472 10050000 		.4byte	.LASF77
 1252 0476 10       		.byte	0x10
 1253 0477 8B       		.byte	0x8b
 1254 0478 1E       		.byte	0x1e
ARM GAS  C:\Users\DEVELO~1\AppData\Local\Temp\ccceJRvr.s 			page 23


 1255 0479 84040000 		.4byte	0x484
 1256 047d 04       		.byte	0x4
 1257 047e 00       		.byte	0
 1258 047f 04       		.uleb128 0x4
 1259 0480 68010000 		.4byte	0x168
 1260 0484 2E       		.uleb128 0x2e
 1261 0485 04       		.byte	0x4
 1262 0486 0B       		.uleb128 0xb
 1263 0487 08       		.byte	0x8
 1264 0488 90       		.byte	0x90
 1265 0489 05       		.byte	0x5
 1266 048a A8040000 		.4byte	0x4a8
 1267 048e 09       		.uleb128 0x9
 1268 048f 747000   		.ascii	"tp\000"
 1269 0492 10       		.byte	0x10
 1270 0493 94       		.byte	0x94
 1271 0494 1E       		.byte	0x1e
 1272 0495 7F040000 		.4byte	0x47f
 1273 0499 00       		.byte	0
 1274 049a 09       		.uleb128 0x9
 1275 049b 6D736700 		.ascii	"msg\000"
 1276 049f 10       		.byte	0x10
 1277 04a0 98       		.byte	0x98
 1278 04a1 1D       		.byte	0x1d
 1279 04a2 38010000 		.4byte	0x138
 1280 04a6 04       		.byte	0x4
 1281 04a7 00       		.byte	0
 1282 04a8 0B       		.uleb128 0xb
 1283 04a9 04       		.byte	0x4
 1284 04aa 9D       		.byte	0x9d
 1285 04ab 05       		.byte	0x5
 1286 04ac BE040000 		.4byte	0x4be
 1287 04b0 02       		.uleb128 0x2
 1288 04b1 17030000 		.4byte	.LASF33
 1289 04b5 10       		.byte	0x10
 1290 04b6 A1       		.byte	0xa1
 1291 04b7 1E       		.byte	0x1e
 1292 04b8 31030000 		.4byte	0x331
 1293 04bc 00       		.byte	0
 1294 04bd 00       		.byte	0
 1295 04be 0B       		.uleb128 0xb
 1296 04bf 04       		.byte	0x4
 1297 04c0 A6       		.byte	0xa6
 1298 04c1 05       		.byte	0x5
 1299 04c2 D4040000 		.4byte	0x4d4
 1300 04c6 02       		.uleb128 0x2
 1301 04c7 43050000 		.4byte	.LASF78
 1302 04cb 10       		.byte	0x10
 1303 04cc AA       		.byte	0xaa
 1304 04cd 1E       		.byte	0x1e
 1305 04ce 31030000 		.4byte	0x331
 1306 04d2 00       		.byte	0
 1307 04d3 00       		.byte	0
 1308 04d4 0B       		.uleb128 0xb
 1309 04d5 08       		.byte	0x8
 1310 04d6 AF       		.byte	0xaf
 1311 04d7 05       		.byte	0x5
ARM GAS  C:\Users\DEVELO~1\AppData\Local\Temp\ccceJRvr.s 			page 24


 1312 04d8 F7040000 		.4byte	0x4f7
 1313 04dc 09       		.uleb128 0x9
 1314 04dd 75703100 		.ascii	"up1\000"
 1315 04e1 10       		.byte	0x10
 1316 04e2 B3       		.byte	0xb3
 1317 04e3 1E       		.byte	0x1e
 1318 04e4 84040000 		.4byte	0x484
 1319 04e8 00       		.byte	0
 1320 04e9 09       		.uleb128 0x9
 1321 04ea 75703200 		.ascii	"up2\000"
 1322 04ee 10       		.byte	0x10
 1323 04ef B7       		.byte	0xb7
 1324 04f0 1E       		.byte	0x1e
 1325 04f1 84040000 		.4byte	0x484
 1326 04f5 04       		.byte	0x4
 1327 04f6 00       		.byte	0
 1328 04f7 1A       		.uleb128 0x1a
 1329 04f8 08       		.byte	0x8
 1330 04f9 10       		.byte	0x10
 1331 04fa 7F       		.byte	0x7f
 1332 04fb 35050000 		.4byte	0x535
 1333 04ff 1B       		.uleb128 0x1b
 1334 0500 737700   		.ascii	"sw\000"
 1335 0503 8C       		.byte	0x8c
 1336 0504 5C040000 		.4byte	0x45c
 1337 0508 1B       		.uleb128 0x1b
 1338 0509 72647900 		.ascii	"rdy\000"
 1339 050d 99       		.byte	0x99
 1340 050e 86040000 		.4byte	0x486
 1341 0512 1B       		.uleb128 0x1b
 1342 0513 69737200 		.ascii	"isr\000"
 1343 0517 A2       		.byte	0xa2
 1344 0518 A8040000 		.4byte	0x4a8
 1345 051c 0A       		.uleb128 0xa
 1346 051d 0B050000 		.4byte	.LASF79
 1347 0521 10       		.byte	0x10
 1348 0522 AB       		.byte	0xab
 1349 0523 07       		.byte	0x7
 1350 0524 BE040000 		.4byte	0x4be
 1351 0528 0A       		.uleb128 0xa
 1352 0529 9D040000 		.4byte	.LASF80
 1353 052d 10       		.byte	0x10
 1354 052e B8       		.byte	0xb8
 1355 052f 07       		.byte	0x7
 1356 0530 D4040000 		.4byte	0x4d4
 1357 0534 00       		.byte	0
 1358 0535 0B       		.uleb128 0xb
 1359 0536 10       		.byte	0x10
 1360 0537 6C       		.byte	0x6c
 1361 0538 09       		.byte	0x9
 1362 0539 7A050000 		.4byte	0x57a
 1363 053d 1C       		.uleb128 0x1c
 1364 053e 9F000000 		.4byte	.LASF81
 1365 0542 70       		.byte	0x70
 1366 0543 D3000000 		.4byte	0xd3
 1367 0547 03       		.byte	0x3
 1368 0548 00       		.byte	0
ARM GAS  C:\Users\DEVELO~1\AppData\Local\Temp\ccceJRvr.s 			page 25


 1369 0549 1C       		.uleb128 0x1c
 1370 054a 2E010000 		.4byte	.LASF35
 1371 054e 74       		.byte	0x74
 1372 054f D3000000 		.4byte	0xd3
 1373 0553 05       		.byte	0x5
 1374 0554 03       		.byte	0x3
 1375 0555 1C       		.uleb128 0x1c
 1376 0556 CA030000 		.4byte	.LASF82
 1377 055a 7A       		.byte	0x7a
 1378 055b D3000000 		.4byte	0xd3
 1379 055f 18       		.byte	0x18
 1380 0560 08       		.byte	0x8
 1381 0561 02       		.uleb128 0x2
 1382 0562 69040000 		.4byte	.LASF83
 1383 0566 10       		.byte	0x10
 1384 0567 7E       		.byte	0x7e
 1385 0568 19       		.byte	0x19
 1386 0569 53030000 		.4byte	0x353
 1387 056d 04       		.byte	0x4
 1388 056e 09       		.uleb128 0x9
 1389 056f 7500     		.ascii	"u\000"
 1390 0571 10       		.byte	0x10
 1391 0572 B9       		.byte	0xb9
 1392 0573 05       		.byte	0x5
 1393 0574 F7040000 		.4byte	0x4f7
 1394 0578 08       		.byte	0x8
 1395 0579 00       		.byte	0
 1396 057a 01       		.uleb128 0x1
 1397 057b A4000000 		.4byte	.LASF84
 1398 057f 10       		.byte	0x10
 1399 0580 BA       		.byte	0xba
 1400 0581 03       		.byte	0x3
 1401 0582 35050000 		.4byte	0x535
 1402 0586 2F       		.uleb128 0x2f
 1403 0587 0808     		.2byte	0x808
 1404 0589 10       		.byte	0x10
 1405 058a C0       		.byte	0xc0
 1406 058b 09       		.byte	0x9
 1407 058c C5050000 		.4byte	0x5c5
 1408 0590 02       		.uleb128 0x2
 1409 0591 33040000 		.4byte	.LASF85
 1410 0595 10       		.byte	0x10
 1411 0596 C4       		.byte	0xc4
 1412 0597 19       		.byte	0x19
 1413 0598 BB000000 		.4byte	0xbb
 1414 059c 00       		.byte	0
 1415 059d 02       		.uleb128 0x2
 1416 059e 33030000 		.4byte	.LASF86
 1417 05a2 10       		.byte	0x10
 1418 05a3 C8       		.byte	0xc8
 1419 05a4 19       		.byte	0x19
 1420 05a5 BB000000 		.4byte	0xbb
 1421 05a9 02       		.byte	0x2
 1422 05aa 09       		.uleb128 0x9
 1423 05ab 70747200 		.ascii	"ptr\000"
 1424 05af 10       		.byte	0x10
 1425 05b0 CC       		.byte	0xcc
ARM GAS  C:\Users\DEVELO~1\AppData\Local\Temp\ccceJRvr.s 			page 26


 1426 05b1 1A       		.byte	0x1a
 1427 05b2 C5050000 		.4byte	0x5c5
 1428 05b6 04       		.byte	0x4
 1429 05b7 02       		.uleb128 0x2
 1430 05b8 F2050000 		.4byte	.LASF87
 1431 05bc 10       		.byte	0x10
 1432 05bd D0       		.byte	0xd0
 1433 05be 19       		.byte	0x19
 1434 05bf CA050000 		.4byte	0x5ca
 1435 05c3 08       		.byte	0x8
 1436 05c4 00       		.byte	0
 1437 05c5 04       		.uleb128 0x4
 1438 05c6 7A050000 		.4byte	0x57a
 1439 05ca 12       		.uleb128 0x12
 1440 05cb 7A050000 		.4byte	0x57a
 1441 05cf DA050000 		.4byte	0x5da
 1442 05d3 13       		.uleb128 0x13
 1443 05d4 2D000000 		.4byte	0x2d
 1444 05d8 7F       		.byte	0x7f
 1445 05d9 00       		.byte	0
 1446 05da 01       		.uleb128 0x1
 1447 05db 8B010000 		.4byte	.LASF88
 1448 05df 10       		.byte	0x10
 1449 05e0 D1       		.byte	0xd1
 1450 05e1 03       		.byte	0x3
 1451 05e2 86050000 		.4byte	0x586
 1452 05e6 14       		.uleb128 0x14
 1453 05e7 8C000000 		.4byte	.LASF89
 1454 05eb 24       		.byte	0x24
 1455 05ec 05       		.byte	0x5
 1456 05ed E001     		.2byte	0x1e0
 1457 05ef 08       		.byte	0x8
 1458 05f0 6C060000 		.4byte	0x66c
 1459 05f4 07       		.uleb128 0x7
 1460 05f5 723400   		.ascii	"r4\000"
 1461 05f8 05       		.byte	0x5
 1462 05f9 F901     		.2byte	0x1f9
 1463 05fb 11       		.byte	0x11
 1464 05fc D3000000 		.4byte	0xd3
 1465 0600 00       		.byte	0
 1466 0601 07       		.uleb128 0x7
 1467 0602 723500   		.ascii	"r5\000"
 1468 0605 05       		.byte	0x5
 1469 0606 FA01     		.2byte	0x1fa
 1470 0608 11       		.byte	0x11
 1471 0609 D3000000 		.4byte	0xd3
 1472 060d 04       		.byte	0x4
 1473 060e 07       		.uleb128 0x7
 1474 060f 723600   		.ascii	"r6\000"
 1475 0612 05       		.byte	0x5
 1476 0613 FB01     		.2byte	0x1fb
 1477 0615 11       		.byte	0x11
 1478 0616 D3000000 		.4byte	0xd3
 1479 061a 08       		.byte	0x8
 1480 061b 07       		.uleb128 0x7
 1481 061c 723700   		.ascii	"r7\000"
 1482 061f 05       		.byte	0x5
ARM GAS  C:\Users\DEVELO~1\AppData\Local\Temp\ccceJRvr.s 			page 27


 1483 0620 FC01     		.2byte	0x1fc
 1484 0622 11       		.byte	0x11
 1485 0623 D3000000 		.4byte	0xd3
 1486 0627 0C       		.byte	0xc
 1487 0628 07       		.uleb128 0x7
 1488 0629 723800   		.ascii	"r8\000"
 1489 062c 05       		.byte	0x5
 1490 062d FD01     		.2byte	0x1fd
 1491 062f 11       		.byte	0x11
 1492 0630 D3000000 		.4byte	0xd3
 1493 0634 10       		.byte	0x10
 1494 0635 07       		.uleb128 0x7
 1495 0636 723900   		.ascii	"r9\000"
 1496 0639 05       		.byte	0x5
 1497 063a FE01     		.2byte	0x1fe
 1498 063c 11       		.byte	0x11
 1499 063d D3000000 		.4byte	0xd3
 1500 0641 14       		.byte	0x14
 1501 0642 07       		.uleb128 0x7
 1502 0643 72313000 		.ascii	"r10\000"
 1503 0647 05       		.byte	0x5
 1504 0648 FF01     		.2byte	0x1ff
 1505 064a 11       		.byte	0x11
 1506 064b D3000000 		.4byte	0xd3
 1507 064f 18       		.byte	0x18
 1508 0650 07       		.uleb128 0x7
 1509 0651 72313100 		.ascii	"r11\000"
 1510 0655 05       		.byte	0x5
 1511 0656 0002     		.2byte	0x200
 1512 0658 11       		.byte	0x11
 1513 0659 D3000000 		.4byte	0xd3
 1514 065d 1C       		.byte	0x1c
 1515 065e 07       		.uleb128 0x7
 1516 065f 6C7200   		.ascii	"lr\000"
 1517 0662 05       		.byte	0x5
 1518 0663 0102     		.2byte	0x201
 1519 0665 11       		.byte	0x11
 1520 0666 D3000000 		.4byte	0xd3
 1521 066a 20       		.byte	0x20
 1522 066b 00       		.byte	0
 1523 066c 14       		.uleb128 0x14
 1524 066d 5C040000 		.4byte	.LASF90
 1525 0671 04       		.byte	0x4
 1526 0672 05       		.byte	0x5
 1527 0673 0A02     		.2byte	0x20a
 1528 0675 08       		.byte	0x8
 1529 0676 88060000 		.4byte	0x688
 1530 067a 07       		.uleb128 0x7
 1531 067b 737000   		.ascii	"sp\000"
 1532 067e 05       		.byte	0x5
 1533 067f 0B02     		.2byte	0x20b
 1534 0681 1A       		.byte	0x1a
 1535 0682 88060000 		.4byte	0x688
 1536 0686 00       		.byte	0
 1537 0687 00       		.byte	0
 1538 0688 04       		.uleb128 0x4
 1539 0689 E6050000 		.4byte	0x5e6
ARM GAS  C:\Users\DEVELO~1\AppData\Local\Temp\ccceJRvr.s 			page 28


 1540 068d 08       		.uleb128 0x8
 1541 068e 04040000 		.4byte	.LASF91
 1542 0692 18       		.byte	0x18
 1543 0693 0C       		.byte	0xc
 1544 0694 64       		.byte	0x64
 1545 0695 10       		.byte	0x10
 1546 0696 C2060000 		.4byte	0x6c2
 1547 069a 02       		.uleb128 0x2
 1548 069b E2050000 		.4byte	.LASF92
 1549 069f 0C       		.byte	0xc
 1550 06a0 68       		.byte	0x68
 1551 06a1 21       		.byte	0x21
 1552 06a2 16040000 		.4byte	0x416
 1553 06a6 00       		.byte	0
 1554 06a7 02       		.uleb128 0x2
 1555 06a8 02050000 		.4byte	.LASF93
 1556 06ac 0C       		.byte	0xc
 1557 06ad 73       		.byte	0x73
 1558 06ae 21       		.byte	0x21
 1559 06af 53030000 		.4byte	0x353
 1560 06b3 0C       		.byte	0xc
 1561 06b4 02       		.uleb128 0x2
 1562 06b5 D2030000 		.4byte	.LASF94
 1563 06b9 0C       		.byte	0xc
 1564 06ba 79       		.byte	0x79
 1565 06bb 21       		.byte	0x21
 1566 06bc EB000000 		.4byte	0xeb
 1567 06c0 10       		.byte	0x10
 1568 06c1 00       		.byte	0
 1569 06c2 01       		.uleb128 0x1
 1570 06c3 A9030000 		.4byte	.LASF95
 1571 06c7 0C       		.byte	0xc
 1572 06c8 7B       		.byte	0x7b
 1573 06c9 03       		.byte	0x3
 1574 06ca 8D060000 		.4byte	0x68d
 1575 06ce 08       		.uleb128 0x8
 1576 06cf AA010000 		.4byte	.LASF96
 1577 06d3 08       		.byte	0x8
 1578 06d4 0C       		.byte	0xc
 1579 06d5 80       		.byte	0x80
 1580 06d6 10       		.byte	0x10
 1581 06d7 E9060000 		.4byte	0x6e9
 1582 06db 02       		.uleb128 0x2
 1583 06dc 1C030000 		.4byte	.LASF97
 1584 06e0 0C       		.byte	0xc
 1585 06e1 84       		.byte	0x84
 1586 06e2 21       		.byte	0x21
 1587 06e3 97030000 		.4byte	0x397
 1588 06e7 00       		.byte	0
 1589 06e8 00       		.byte	0
 1590 06e9 01       		.uleb128 0x1
 1591 06ea 72050000 		.4byte	.LASF98
 1592 06ee 0C       		.byte	0xc
 1593 06ef 85       		.byte	0x85
 1594 06f0 03       		.byte	0x3
 1595 06f1 CE060000 		.4byte	0x6ce
 1596 06f5 01       		.uleb128 0x1
ARM GAS  C:\Users\DEVELO~1\AppData\Local\Temp\ccceJRvr.s 			page 29


 1597 06f6 F1030000 		.4byte	.LASF99
 1598 06fa 0C       		.byte	0xc
 1599 06fb 8A       		.byte	0x8a
 1600 06fc 14       		.byte	0x14
 1601 06fd 7F040000 		.4byte	0x47f
 1602 0701 1A       		.uleb128 0x1a
 1603 0702 0C       		.byte	0xc
 1604 0703 0C       		.byte	0xc
 1605 0704 A0       		.byte	0xa0
 1606 0705 2E070000 		.4byte	0x72e
 1607 0709 0A       		.uleb128 0xa
 1608 070a 00070000 		.4byte	.LASF100
 1609 070e 0C       		.byte	0xc
 1610 070f A4       		.byte	0xa4
 1611 0710 21       		.byte	0x21
 1612 0711 6B030000 		.4byte	0x36b
 1613 0715 0A       		.uleb128 0xa
 1614 0716 1C030000 		.4byte	.LASF97
 1615 071a 0C       		.byte	0xc
 1616 071b A8       		.byte	0xa8
 1617 071c 21       		.byte	0x21
 1618 071d 97030000 		.4byte	0x397
 1619 0721 0A       		.uleb128 0xa
 1620 0722 17060000 		.4byte	.LASF101
 1621 0726 0C       		.byte	0xc
 1622 0727 AC       		.byte	0xac
 1623 0728 21       		.byte	0x21
 1624 0729 D0030000 		.4byte	0x3d0
 1625 072d 00       		.byte	0
 1626 072e 1A       		.uleb128 0x1a
 1627 072f 04       		.byte	0x4
 1628 0730 0C       		.byte	0xc
 1629 0731 EB       		.byte	0xeb
 1630 0732 97070000 		.4byte	0x797
 1631 0736 0A       		.uleb128 0xa
 1632 0737 20000000 		.4byte	.LASF102
 1633 073b 0C       		.byte	0xc
 1634 073c F2       		.byte	0xf2
 1635 073d 21       		.byte	0x21
 1636 073e 38010000 		.4byte	0x138
 1637 0742 0A       		.uleb128 0xa
 1638 0743 C0000000 		.4byte	.LASF103
 1639 0747 0C       		.byte	0xc
 1640 0748 F9       		.byte	0xf9
 1641 0749 21       		.byte	0x21
 1642 074a 38010000 		.4byte	0x138
 1643 074e 0C       		.uleb128 0xc
 1644 074f 10050000 		.4byte	.LASF77
 1645 0753 0001     		.2byte	0x100
 1646 0755 22       		.byte	0x22
 1647 0756 84040000 		.4byte	0x484
 1648 075a 0C       		.uleb128 0xc
 1649 075b 1A000000 		.4byte	.LASF104
 1650 075f 0701     		.2byte	0x107
 1651 0761 22       		.byte	0x22
 1652 0762 97070000 		.4byte	0x797
 1653 0766 0C       		.uleb128 0xc
ARM GAS  C:\Users\DEVELO~1\AppData\Local\Temp\ccceJRvr.s 			page 30


 1654 0767 D4000000 		.4byte	.LASF105
 1655 076b 0C01     		.2byte	0x10c
 1656 076d 21       		.byte	0x21
 1657 076e 38010000 		.4byte	0x138
 1658 0772 0C       		.uleb128 0xc
 1659 0773 20020000 		.4byte	.LASF106
 1660 0777 1501     		.2byte	0x115
 1661 0779 22       		.byte	0x22
 1662 077a C4070000 		.4byte	0x7c4
 1663 077e 0C       		.uleb128 0xc
 1664 077f 86050000 		.4byte	.LASF107
 1665 0783 1E01     		.2byte	0x11e
 1666 0785 22       		.byte	0x22
 1667 0786 FE070000 		.4byte	0x7fe
 1668 078a 0C       		.uleb128 0xc
 1669 078b 17050000 		.4byte	.LASF108
 1670 078f 2601     		.2byte	0x126
 1671 0791 21       		.byte	0x21
 1672 0792 44010000 		.4byte	0x144
 1673 0796 00       		.byte	0
 1674 0797 04       		.uleb128 0x4
 1675 0798 F5060000 		.4byte	0x6f5
 1676 079c 08       		.uleb128 0x8
 1677 079d 57050000 		.4byte	.LASF109
 1678 07a1 0C       		.byte	0xc
 1679 07a2 11       		.byte	0x11
 1680 07a3 34       		.byte	0x34
 1681 07a4 10       		.byte	0x10
 1682 07a5 C4070000 		.4byte	0x7c4
 1683 07a9 02       		.uleb128 0x2
 1684 07aa 1C030000 		.4byte	.LASF97
 1685 07ae 11       		.byte	0x11
 1686 07af 35       		.byte	0x35
 1687 07b0 19       		.byte	0x19
 1688 07b1 97030000 		.4byte	0x397
 1689 07b5 00       		.byte	0
 1690 07b6 09       		.uleb128 0x9
 1691 07b7 636E7400 		.ascii	"cnt\000"
 1692 07bb 11       		.byte	0x11
 1693 07bc 37       		.byte	0x37
 1694 07bd 19       		.byte	0x19
 1695 07be 50010000 		.4byte	0x150
 1696 07c2 08       		.byte	0x8
 1697 07c3 00       		.byte	0
 1698 07c4 04       		.uleb128 0x4
 1699 07c5 9C070000 		.4byte	0x79c
 1700 07c9 08       		.uleb128 0x8
 1701 07ca C3060000 		.4byte	.LASF110
 1702 07ce 10       		.byte	0x10
 1703 07cf 12       		.byte	0x12
 1704 07d0 39       		.byte	0x39
 1705 07d1 08       		.byte	0x8
 1706 07d2 FE070000 		.4byte	0x7fe
 1707 07d6 02       		.uleb128 0x2
 1708 07d7 1C030000 		.4byte	.LASF97
 1709 07db 12       		.byte	0x12
 1710 07dc 3A       		.byte	0x3a
ARM GAS  C:\Users\DEVELO~1\AppData\Local\Temp\ccceJRvr.s 			page 31


 1711 07dd 19       		.byte	0x19
 1712 07de 97030000 		.4byte	0x397
 1713 07e2 00       		.byte	0
 1714 07e3 02       		.uleb128 0x2
 1715 07e4 9D050000 		.4byte	.LASF32
 1716 07e8 12       		.byte	0x12
 1717 07e9 3C       		.byte	0x3c
 1718 07ea 1A       		.byte	0x1a
 1719 07eb 7F040000 		.4byte	0x47f
 1720 07ef 08       		.byte	0x8
 1721 07f0 02       		.uleb128 0x2
 1722 07f1 E2000000 		.4byte	.LASF67
 1723 07f5 12       		.byte	0x12
 1724 07f6 3E       		.byte	0x3e
 1725 07f7 1A       		.byte	0x1a
 1726 07f8 BF080000 		.4byte	0x8bf
 1727 07fc 0C       		.byte	0xc
 1728 07fd 00       		.byte	0
 1729 07fe 04       		.uleb128 0x4
 1730 07ff C9070000 		.4byte	0x7c9
 1731 0803 04       		.uleb128 0x4
 1732 0804 51020000 		.4byte	0x251
 1733 0808 04       		.uleb128 0x4
 1734 0809 FC000000 		.4byte	0xfc
 1735 080d 14       		.uleb128 0x14
 1736 080e 7B030000 		.4byte	.LASF111
 1737 0812 10       		.byte	0x10
 1738 0813 0C       		.byte	0xc
 1739 0814 5C01     		.2byte	0x15c
 1740 0816 10       		.byte	0x10
 1741 0817 36080000 		.4byte	0x836
 1742 081b 03       		.uleb128 0x3
 1743 081c 17060000 		.4byte	.LASF101
 1744 0820 6101     		.2byte	0x161
 1745 0822 21       		.byte	0x21
 1746 0823 D0030000 		.4byte	0x3d0
 1747 0827 00       		.byte	0
 1748 0828 03       		.uleb128 0x3
 1749 0829 73040000 		.4byte	.LASF112
 1750 082d 6501     		.2byte	0x165
 1751 082f 22       		.byte	0x22
 1752 0830 7F040000 		.4byte	0x47f
 1753 0834 0C       		.byte	0xc
 1754 0835 00       		.byte	0
 1755 0836 26       		.uleb128 0x26
 1756 0837 0D000000 		.4byte	.LASF113
 1757 083b 6601     		.2byte	0x166
 1758 083d 0D080000 		.4byte	0x80d
 1759 0841 14       		.uleb128 0x14
 1760 0842 46040000 		.4byte	.LASF114
 1761 0846 14       		.byte	0x14
 1762 0847 0C       		.byte	0xc
 1763 0848 6B01     		.2byte	0x16b
 1764 084a 10       		.byte	0x10
 1765 084b 91080000 		.4byte	0x891
 1766 084f 03       		.uleb128 0x3
 1767 0850 17030000 		.4byte	.LASF33
ARM GAS  C:\Users\DEVELO~1\AppData\Local\Temp\ccceJRvr.s 			page 32


 1768 0854 6F01     		.2byte	0x16f
 1769 0856 22       		.byte	0x22
 1770 0857 31030000 		.4byte	0x331
 1771 085b 00       		.byte	0
 1772 085c 03       		.uleb128 0x3
 1773 085d CE010000 		.4byte	.LASF115
 1774 0861 7501     		.2byte	0x175
 1775 0863 22       		.byte	0x22
 1776 0864 08080000 		.4byte	0x808
 1777 0868 04       		.byte	0x4
 1778 0869 03       		.uleb128 0x3
 1779 086a 70060000 		.4byte	.LASF116
 1780 086e 7901     		.2byte	0x179
 1781 0870 22       		.byte	0x22
 1782 0871 08080000 		.4byte	0x808
 1783 0875 08       		.byte	0x8
 1784 0876 03       		.uleb128 0x3
 1785 0877 10020000 		.4byte	.LASF117
 1786 087b 7F01     		.2byte	0x17f
 1787 087d 22       		.byte	0x22
 1788 087e 08080000 		.4byte	0x808
 1789 0882 0C       		.byte	0xc
 1790 0883 03       		.uleb128 0x3
 1791 0884 0F070000 		.4byte	.LASF118
 1792 0888 8301     		.2byte	0x183
 1793 088a 22       		.byte	0x22
 1794 088b 08080000 		.4byte	0x808
 1795 088f 10       		.byte	0x10
 1796 0890 00       		.byte	0
 1797 0891 26       		.uleb128 0x26
 1798 0892 8C060000 		.4byte	.LASF119
 1799 0896 8501     		.2byte	0x185
 1800 0898 41080000 		.4byte	0x841
 1801 089c 0E       		.uleb128 0xe
 1802 089d 91080000 		.4byte	0x891
 1803 08a1 04       		.uleb128 0x4
 1804 08a2 9C080000 		.4byte	0x89c
 1805 08a6 30       		.uleb128 0x30
 1806 08a7 63683000 		.ascii	"ch0\000"
 1807 08ab 04       		.byte	0x4
 1808 08ac 4101     		.2byte	0x141
 1809 08ae 16       		.byte	0x16
 1810 08af 51020000 		.4byte	0x251
 1811 08b3 01       		.uleb128 0x1
 1812 08b4 DE010000 		.4byte	.LASF120
 1813 08b8 12       		.byte	0x12
 1814 08b9 34       		.byte	0x34
 1815 08ba 19       		.byte	0x19
 1816 08bb C9070000 		.4byte	0x7c9
 1817 08bf 04       		.uleb128 0x4
 1818 08c0 B3080000 		.4byte	0x8b3
 1819 08c4 06       		.uleb128 0x6
 1820 08c5 01       		.byte	0x1
 1821 08c6 02       		.byte	0x2
 1822 08c7 BA040000 		.4byte	.LASF121
 1823 08cb 27       		.uleb128 0x27
 1824 08cc 7F060000 		.4byte	.LASF122
ARM GAS  C:\Users\DEVELO~1\AppData\Local\Temp\ccceJRvr.s 			page 33


 1825 08d0 9A       		.byte	0x9a
 1826 08d1 E0080000 		.4byte	0x8e0
 1827 08d5 0D       		.uleb128 0xd
 1828 08d6 7F040000 		.4byte	0x47f
 1829 08da 0D       		.uleb128 0xd
 1830 08db 38010000 		.4byte	0x138
 1831 08df 00       		.byte	0
 1832 08e0 28       		.uleb128 0x28
 1833 08e1 ED040000 		.4byte	.LASF124
 1834 08e5 99       		.byte	0x99
 1835 08e6 09       		.byte	0x9
 1836 08e7 38010000 		.4byte	0x138
 1837 08eb FA080000 		.4byte	0x8fa
 1838 08ef 0D       		.uleb128 0xd
 1839 08f0 14010000 		.4byte	0x114
 1840 08f4 0D       		.uleb128 0xd
 1841 08f5 5F030000 		.4byte	0x35f
 1842 08f9 00       		.byte	0
 1843 08fa 27       		.uleb128 0x27
 1844 08fb 64050000 		.4byte	.LASF123
 1845 08ff 98       		.byte	0x98
 1846 0900 0A090000 		.4byte	0x90a
 1847 0904 0D       		.uleb128 0xd
 1848 0905 14010000 		.4byte	0x114
 1849 0909 00       		.byte	0
 1850 090a 28       		.uleb128 0x28
 1851 090b CD050000 		.4byte	.LASF125
 1852 090f 97       		.byte	0x97
 1853 0910 0D       		.byte	0xd
 1854 0911 7F040000 		.4byte	0x47f
 1855 0915 1F090000 		.4byte	0x91f
 1856 0919 0D       		.uleb128 0xd
 1857 091a 7F040000 		.4byte	0x47f
 1858 091e 00       		.byte	0
 1859 091f 31       		.uleb128 0x31
 1860 0920 4A050000 		.4byte	.LASF145
 1861 0924 01       		.byte	0x1
 1862 0925 D0       		.byte	0xd0
 1863 0926 06       		.byte	0x6
 1864 0927 00000000 		.4byte	.LFB350
 1865 092b 14000000 		.4byte	.LFE350-.LFB350
 1866 092f 01       		.uleb128 0x1
 1867 0930 9C       		.byte	0x9c
 1868 0931 440A0000 		.4byte	0xa44
 1869 0935 15       		.uleb128 0x15
 1870 0936 747000   		.ascii	"tp\000"
 1871 0939 D0       		.byte	0xd0
 1872 093a 1D       		.byte	0x1d
 1873 093b 7F040000 		.4byte	0x47f
 1874 093f 10000000 		.4byte	.LLST29
 1875 0943 0C000000 		.4byte	.LVUS29
 1876 0947 15       		.uleb128 0x15
 1877 0948 6D736700 		.ascii	"msg\000"
 1878 094c D0       		.byte	0xd0
 1879 094d 27       		.byte	0x27
 1880 094e 38010000 		.4byte	0x138
 1881 0952 27000000 		.4byte	.LLST30
ARM GAS  C:\Users\DEVELO~1\AppData\Local\Temp\ccceJRvr.s 			page 34


 1882 0956 23000000 		.4byte	.LVUS30
 1883 095a 1D       		.uleb128 0x1d
 1884 095b 30050000 		.4byte	.LASF132
 1885 095f 540A0000 		.4byte	0xa54
 1886 0963 0F       		.uleb128 0xf
 1887 0964 4F0E0000 		.4byte	0xe4f
 1888 0968 00000000 		.4byte	.LBI117
 1889 096c 02       		.byte	.LVU167
 1890 096d 7B000000 		.4byte	.LLRL31
 1891 0971 D2       		.byte	0xd2
 1892 0972 03       		.byte	0x3
 1893 0973 A9090000 		.4byte	0x9a9
 1894 0977 16       		.uleb128 0x16
 1895 0978 610E0000 		.4byte	0xe61
 1896 097c 00000000 		.4byte	.LBI118
 1897 0980 04       		.byte	.LVU169
 1898 0981 7B000000 		.4byte	.LLRL31
 1899 0985 04       		.byte	0x4
 1900 0986 9901     		.2byte	0x199
 1901 0988 16       		.uleb128 0x16
 1902 0989 6A0E0000 		.4byte	0xe6a
 1903 098d 00000000 		.4byte	.LBI119
 1904 0991 06       		.byte	.LVU171
 1905 0992 7B000000 		.4byte	.LLRL31
 1906 0996 05       		.byte	0x5
 1907 0997 3F03     		.2byte	0x33f
 1908 0999 05       		.uleb128 0x5
 1909 099a 770E0000 		.4byte	0xe77
 1910 099e 3C000000 		.4byte	.LLST32
 1911 09a2 3A000000 		.4byte	.LVUS32
 1912 09a6 00       		.byte	0
 1913 09a7 00       		.byte	0
 1914 09a8 00       		.byte	0
 1915 09a9 10       		.uleb128 0x10
 1916 09aa D60D0000 		.4byte	0xdd6
 1917 09ae 08000000 		.4byte	.LBI125
 1918 09b2 07       		.byte	.LVU182
 1919 09b3 08000000 		.4byte	.LBB125
 1920 09b7 04000000 		.4byte	.LBE125-.LBB125
 1921 09bb D4       		.byte	0xd4
 1922 09bc 03       		.byte	0x3
 1923 09bd F4090000 		.4byte	0x9f4
 1924 09c1 05       		.uleb128 0x5
 1925 09c2 ED0D0000 		.4byte	0xded
 1926 09c6 4B000000 		.4byte	.LLST33
 1927 09ca 47000000 		.4byte	.LVUS33
 1928 09ce 05       		.uleb128 0x5
 1929 09cf E30D0000 		.4byte	0xde3
 1930 09d3 62000000 		.4byte	.LLST34
 1931 09d7 5E000000 		.4byte	.LVUS34
 1932 09db 1E       		.uleb128 0x1e
 1933 09dc 0C000000 		.4byte	.LVL34
 1934 09e0 CB080000 		.4byte	0x8cb
 1935 09e4 11       		.uleb128 0x11
 1936 09e5 01       		.uleb128 0x1
 1937 09e6 50       		.byte	0x50
 1938 09e7 03       		.uleb128 0x3
ARM GAS  C:\Users\DEVELO~1\AppData\Local\Temp\ccceJRvr.s 			page 35


 1939 09e8 A3       		.byte	0xa3
 1940 09e9 01       		.uleb128 0x1
 1941 09ea 50       		.byte	0x50
 1942 09eb 11       		.uleb128 0x11
 1943 09ec 01       		.uleb128 0x1
 1944 09ed 51       		.byte	0x51
 1945 09ee 03       		.uleb128 0x3
 1946 09ef A3       		.byte	0xa3
 1947 09f0 01       		.uleb128 0x1
 1948 09f1 51       		.byte	0x51
 1949 09f2 00       		.byte	0
 1950 09f3 00       		.byte	0
 1951 09f4 32       		.uleb128 0x32
 1952 09f5 230E0000 		.4byte	0xe23
 1953 09f9 0C000000 		.4byte	.LBI127
 1954 09fd 02       		.byte	.LVU187
 1955 09fe 0C000000 		.4byte	.LBB127
 1956 0a02 06000000 		.4byte	.LBE127-.LBB127
 1957 0a06 01       		.byte	0x1
 1958 0a07 D5       		.byte	0xd5
 1959 0a08 03       		.byte	0x3
 1960 0a09 17       		.uleb128 0x17
 1961 0a0a 580E0000 		.4byte	0xe58
 1962 0a0e 0C000000 		.4byte	.LBI129
 1963 0a12 09       		.byte	.LVU194
 1964 0a13 0C000000 		.4byte	.LBB129
 1965 0a17 06000000 		.4byte	.LBE129-.LBB129
 1966 0a1b 04       		.byte	0x4
 1967 0a1c B201     		.2byte	0x1b2
 1968 0a1e 17       		.uleb128 0x17
 1969 0a1f 6A0E0000 		.4byte	0xe6a
 1970 0a23 0C000000 		.4byte	.LBI130
 1971 0a27 0B       		.byte	.LVU196
 1972 0a28 0C000000 		.4byte	.LBB130
 1973 0a2c 06000000 		.4byte	.LBE130-.LBB130
 1974 0a30 05       		.byte	0x5
 1975 0a31 5203     		.2byte	0x352
 1976 0a33 05       		.uleb128 0x5
 1977 0a34 770E0000 		.4byte	0xe77
 1978 0a38 77000000 		.4byte	.LLST35
 1979 0a3c 75000000 		.4byte	.LVUS35
 1980 0a40 00       		.byte	0
 1981 0a41 00       		.byte	0
 1982 0a42 00       		.byte	0
 1983 0a43 00       		.byte	0
 1984 0a44 12       		.uleb128 0x12
 1985 0a45 42030000 		.4byte	0x342
 1986 0a49 540A0000 		.4byte	0xa54
 1987 0a4d 13       		.uleb128 0x13
 1988 0a4e 2D000000 		.4byte	0x2d
 1989 0a52 0C       		.byte	0xc
 1990 0a53 00       		.byte	0
 1991 0a54 0E       		.uleb128 0xe
 1992 0a55 440A0000 		.4byte	0xa44
 1993 0a59 18       		.uleb128 0x18
 1994 0a5a 55060000 		.4byte	.LASF127
 1995 0a5e BA       		.byte	0xba
ARM GAS  C:\Users\DEVELO~1\AppData\Local\Temp\ccceJRvr.s 			page 36


 1996 0a5f 0B       		.byte	0xb
 1997 0a60 7F040000 		.4byte	0x47f
 1998 0a64 00000000 		.4byte	.LFB349
 1999 0a68 28000000 		.4byte	.LFE349-.LFB349
 2000 0a6c 01       		.uleb128 0x1
 2001 0a6d 9C       		.byte	0x9c
 2002 0a6e 050B0000 		.4byte	0xb05
 2003 0a72 19       		.uleb128 0x19
 2004 0a73 55030000 		.4byte	.LASF126
 2005 0a77 BB       		.byte	0xbb
 2006 0a78 7F040000 		.4byte	0x47f
 2007 0a7c 83000000 		.4byte	.LLST23
 2008 0a80 81000000 		.4byte	.LVUS23
 2009 0a84 33       		.uleb128 0x33
 2010 0a85 747000   		.ascii	"tp\000"
 2011 0a88 01       		.byte	0x1
 2012 0a89 BC       		.byte	0xbc
 2013 0a8a 0D       		.byte	0xd
 2014 0a8b 7F040000 		.4byte	0x47f
 2015 0a8f 92000000 		.4byte	.LLST24
 2016 0a93 8C000000 		.4byte	.LVUS24
 2017 0a97 34       		.uleb128 0x34
 2018 0a98 150E0000 		.4byte	0xe15
 2019 0a9c 00000000 		.4byte	.LBI109
 2020 0aa0 02       		.byte	.LVU137
 2021 0aa1 00000000 		.4byte	.LBB109
 2022 0aa5 04000000 		.4byte	.LBE109-.LBB109
 2023 0aa9 01       		.byte	0x1
 2024 0aaa BB       		.byte	0xbb
 2025 0aab 16       		.byte	0x16
 2026 0aac 10       		.uleb128 0x10
 2027 0aad F90D0000 		.4byte	0xdf9
 2028 0ab1 04000000 		.4byte	.LBI111
 2029 0ab5 03       		.byte	.LVU143
 2030 0ab6 04000000 		.4byte	.LBB111
 2031 0aba 06000000 		.4byte	.LBE111-.LBB111
 2032 0abe BE       		.byte	0xbe
 2033 0abf 07       		.byte	0x7
 2034 0ac0 D20A0000 		.4byte	0xad2
 2035 0ac4 05       		.uleb128 0x5
 2036 0ac5 0A0E0000 		.4byte	0xe0a
 2037 0ac9 AB000000 		.4byte	.LLST25
 2038 0acd A9000000 		.4byte	.LVUS25
 2039 0ad1 00       		.byte	0
 2040 0ad2 35       		.uleb128 0x35
 2041 0ad3 850E0000 		.4byte	0xe85
 2042 0ad7 0E000000 		.4byte	.LBI113
 2043 0adb 01       		.byte	.LVU150
 2044 0adc 6F000000 		.4byte	.LLRL26
 2045 0ae0 01       		.byte	0x1
 2046 0ae1 BF       		.byte	0xbf
 2047 0ae2 0A       		.byte	0xa
 2048 0ae3 05       		.uleb128 0x5
 2049 0ae4 970E0000 		.4byte	0xe97
 2050 0ae8 B6000000 		.4byte	.LLST27
 2051 0aec B4000000 		.4byte	.LVUS27
 2052 0af0 1F       		.uleb128 0x1f
ARM GAS  C:\Users\DEVELO~1\AppData\Local\Temp\ccceJRvr.s 			page 37


 2053 0af1 6F000000 		.4byte	.LLRL26
 2054 0af5 20       		.uleb128 0x20
 2055 0af6 A20E0000 		.4byte	0xea2
 2056 0afa C1000000 		.4byte	.LLST28
 2057 0afe BF000000 		.4byte	.LVUS28
 2058 0b02 00       		.byte	0
 2059 0b03 00       		.byte	0
 2060 0b04 00       		.byte	0
 2061 0b05 18       		.uleb128 0x18
 2062 0b06 1E050000 		.4byte	.LASF128
 2063 0b0a 98       		.byte	0x98
 2064 0b0b 0B       		.byte	0xb
 2065 0b0c 7F040000 		.4byte	0x47f
 2066 0b10 00000000 		.4byte	.LFB348
 2067 0b14 34000000 		.4byte	.LFE348-.LFB348
 2068 0b18 01       		.uleb128 0x1
 2069 0b19 9C       		.byte	0x9c
 2070 0b1a C70B0000 		.4byte	0xbc7
 2071 0b1e 36       		.uleb128 0x36
 2072 0b1f 5A020000 		.4byte	.LASF129
 2073 0b23 01       		.byte	0x1
 2074 0b24 98       		.byte	0x98
 2075 0b25 2B       		.byte	0x2b
 2076 0b26 5F030000 		.4byte	0x35f
 2077 0b2a D4000000 		.4byte	.LLST16
 2078 0b2e CA000000 		.4byte	.LVUS16
 2079 0b32 19       		.uleb128 0x19
 2080 0b33 55030000 		.4byte	.LASF126
 2081 0b37 99       		.byte	0x99
 2082 0b38 7F040000 		.4byte	0x47f
 2083 0b3c FB000000 		.4byte	.LLST17
 2084 0b40 F9000000 		.4byte	.LVUS17
 2085 0b44 29       		.uleb128 0x29
 2086 0b45 747000   		.ascii	"tp\000"
 2087 0b48 9A       		.byte	0x9a
 2088 0b49 7F040000 		.4byte	0x47f
 2089 0b4d 21       		.uleb128 0x21
 2090 0b4e 150E0000 		.4byte	0xe15
 2091 0b52 00000000 		.4byte	.LBI95
 2092 0b56 02       		.byte	.LVU96
 2093 0b57 51000000 		.4byte	.LLRL18
 2094 0b5b 99       		.byte	0x99
 2095 0b5c 10       		.uleb128 0x10
 2096 0b5d F90D0000 		.4byte	0xdf9
 2097 0b61 08000000 		.4byte	.LBI101
 2098 0b65 04       		.byte	.LVU106
 2099 0b66 08000000 		.4byte	.LBB101
 2100 0b6a 06000000 		.4byte	.LBE101-.LBB101
 2101 0b6e 9E       		.byte	0x9e
 2102 0b6f 08       		.byte	0x8
 2103 0b70 820B0000 		.4byte	0xb82
 2104 0b74 05       		.uleb128 0x5
 2105 0b75 0A0E0000 		.4byte	0xe0a
 2106 0b79 06010000 		.4byte	.LLST19
 2107 0b7d 04010000 		.4byte	.LVUS19
 2108 0b81 00       		.byte	0
 2109 0b82 0F       		.uleb128 0xf
ARM GAS  C:\Users\DEVELO~1\AppData\Local\Temp\ccceJRvr.s 			page 38


 2110 0b83 850E0000 		.4byte	0xe85
 2111 0b87 12000000 		.4byte	.LBI103
 2112 0b8b 01       		.byte	.LVU113
 2113 0b8c 60000000 		.4byte	.LLRL20
 2114 0b90 A3       		.byte	0xa3
 2115 0b91 08       		.byte	0x8
 2116 0b92 B70B0000 		.4byte	0xbb7
 2117 0b96 05       		.uleb128 0x5
 2118 0b97 970E0000 		.4byte	0xe97
 2119 0b9b 11010000 		.4byte	.LLST21
 2120 0b9f 0F010000 		.4byte	.LVUS21
 2121 0ba3 1F       		.uleb128 0x1f
 2122 0ba4 60000000 		.4byte	.LLRL20
 2123 0ba8 20       		.uleb128 0x20
 2124 0ba9 A20E0000 		.4byte	0xea2
 2125 0bad 1C010000 		.4byte	.LLST22
 2126 0bb1 1A010000 		.4byte	.LVUS22
 2127 0bb5 00       		.byte	0
 2128 0bb6 00       		.byte	0
 2129 0bb7 1E       		.uleb128 0x1e
 2130 0bb8 26000000 		.4byte	.LVL25
 2131 0bbc E0080000 		.4byte	0x8e0
 2132 0bc0 11       		.uleb128 0x11
 2133 0bc1 01       		.uleb128 0x1
 2134 0bc2 50       		.byte	0x50
 2135 0bc3 01       		.uleb128 0x1
 2136 0bc4 3E       		.byte	0x3e
 2137 0bc5 00       		.byte	0
 2138 0bc6 00       		.byte	0
 2139 0bc7 18       		.uleb128 0x18
 2140 0bc8 28030000 		.4byte	.LASF130
 2141 0bcc 73       		.byte	0x73
 2142 0bcd 0B       		.byte	0xb
 2143 0bce 7F040000 		.4byte	0x47f
 2144 0bd2 00000000 		.4byte	.LFB347
 2145 0bd6 2C000000 		.4byte	.LFE347-.LFB347
 2146 0bda 01       		.uleb128 0x1
 2147 0bdb 9C       		.byte	0x9c
 2148 0bdc 750C0000 		.4byte	0xc75
 2149 0be0 19       		.uleb128 0x19
 2150 0be1 55030000 		.4byte	.LASF126
 2151 0be5 74       		.byte	0x74
 2152 0be6 7F040000 		.4byte	0x47f
 2153 0bea 28010000 		.4byte	.LLST10
 2154 0bee 26010000 		.4byte	.LVUS10
 2155 0bf2 29       		.uleb128 0x29
 2156 0bf3 747000   		.ascii	"tp\000"
 2157 0bf6 75       		.byte	0x75
 2158 0bf7 7F040000 		.4byte	0x47f
 2159 0bfb 21       		.uleb128 0x21
 2160 0bfc 150E0000 		.4byte	0xe15
 2161 0c00 00000000 		.4byte	.LBI83
 2162 0c04 02       		.byte	.LVU63
 2163 0c05 36000000 		.4byte	.LLRL11
 2164 0c09 74       		.byte	0x74
 2165 0c0a 10       		.uleb128 0x10
 2166 0c0b F90D0000 		.4byte	0xdf9
ARM GAS  C:\Users\DEVELO~1\AppData\Local\Temp\ccceJRvr.s 			page 39


 2167 0c0f 06000000 		.4byte	.LBI87
 2168 0c13 04       		.byte	.LVU71
 2169 0c14 06000000 		.4byte	.LBB87
 2170 0c18 06000000 		.4byte	.LBE87-.LBB87
 2171 0c1c 79       		.byte	0x79
 2172 0c1d 08       		.byte	0x8
 2173 0c1e 300C0000 		.4byte	0xc30
 2174 0c22 05       		.uleb128 0x5
 2175 0c23 0A0E0000 		.4byte	0xe0a
 2176 0c27 33010000 		.4byte	.LLST12
 2177 0c2b 31010000 		.4byte	.LVUS12
 2178 0c2f 00       		.byte	0
 2179 0c30 0F       		.uleb128 0xf
 2180 0c31 850E0000 		.4byte	0xe85
 2181 0c35 10000000 		.4byte	.LBI89
 2182 0c39 01       		.byte	.LVU78
 2183 0c3a 42000000 		.4byte	.LLRL13
 2184 0c3e 7C       		.byte	0x7c
 2185 0c3f 08       		.byte	0x8
 2186 0c40 650C0000 		.4byte	0xc65
 2187 0c44 05       		.uleb128 0x5
 2188 0c45 970E0000 		.4byte	0xe97
 2189 0c49 3E010000 		.4byte	.LLST14
 2190 0c4d 3C010000 		.4byte	.LVUS14
 2191 0c51 1F       		.uleb128 0x1f
 2192 0c52 42000000 		.4byte	.LLRL13
 2193 0c56 20       		.uleb128 0x20
 2194 0c57 A20E0000 		.4byte	0xea2
 2195 0c5b 49010000 		.4byte	.LLST15
 2196 0c5f 47010000 		.4byte	.LVUS15
 2197 0c63 00       		.byte	0
 2198 0c64 00       		.byte	0
 2199 0c65 1E       		.uleb128 0x1e
 2200 0c66 24000000 		.4byte	.LVL17
 2201 0c6a FA080000 		.4byte	0x8fa
 2202 0c6e 11       		.uleb128 0x11
 2203 0c6f 01       		.uleb128 0x1
 2204 0c70 50       		.byte	0x50
 2205 0c71 01       		.uleb128 0x1
 2206 0c72 3E       		.byte	0x3e
 2207 0c73 00       		.byte	0
 2208 0c74 00       		.byte	0
 2209 0c75 18       		.uleb128 0x18
 2210 0c76 3D010000 		.4byte	.LASF131
 2211 0c7a 51       		.byte	0x51
 2212 0c7b 07       		.byte	0x7
 2213 0c7c 38010000 		.4byte	0x138
 2214 0c80 00000000 		.4byte	.LFB346
 2215 0c84 40000000 		.4byte	.LFE346-.LFB346
 2216 0c88 01       		.uleb128 0x1
 2217 0c89 9C       		.byte	0x9c
 2218 0c8a C10D0000 		.4byte	0xdc1
 2219 0c8e 15       		.uleb128 0x15
 2220 0c8f 747000   		.ascii	"tp\000"
 2221 0c92 51       		.byte	0x51
 2222 0c93 1B       		.byte	0x1b
 2223 0c94 7F040000 		.4byte	0x47f
ARM GAS  C:\Users\DEVELO~1\AppData\Local\Temp\ccceJRvr.s 			page 40


 2224 0c98 5B010000 		.4byte	.LLST0
 2225 0c9c 53010000 		.4byte	.LVUS0
 2226 0ca0 15       		.uleb128 0x15
 2227 0ca1 6D736700 		.ascii	"msg\000"
 2228 0ca5 51       		.byte	0x51
 2229 0ca6 25       		.byte	0x25
 2230 0ca7 38010000 		.4byte	0x138
 2231 0cab 83010000 		.4byte	.LLST1
 2232 0caf 79010000 		.4byte	.LVUS1
 2233 0cb3 19       		.uleb128 0x19
 2234 0cb4 55030000 		.4byte	.LASF126
 2235 0cb8 52       		.byte	0x52
 2236 0cb9 7F040000 		.4byte	0x47f
 2237 0cbd AA010000 		.4byte	.LLST2
 2238 0cc1 A8010000 		.4byte	.LVUS2
 2239 0cc5 1D       		.uleb128 0x1d
 2240 0cc6 30050000 		.4byte	.LASF132
 2241 0cca D10D0000 		.4byte	0xdd1
 2242 0cce 21       		.uleb128 0x21
 2243 0ccf 150E0000 		.4byte	0xe15
 2244 0cd3 00000000 		.4byte	.LBI58
 2245 0cd7 02       		.byte	.LVU2
 2246 0cd8 0C000000 		.4byte	.LLRL3
 2247 0cdc 52       		.byte	0x52
 2248 0cdd 0F       		.uleb128 0xf
 2249 0cde 4F0E0000 		.4byte	0xe4f
 2250 0ce2 08000000 		.4byte	.LBI63
 2251 0ce6 05       		.byte	.LVU13
 2252 0ce7 1B000000 		.4byte	.LLRL4
 2253 0ceb 56       		.byte	0x56
 2254 0cec 03       		.byte	0x3
 2255 0ced 230D0000 		.4byte	0xd23
 2256 0cf1 16       		.uleb128 0x16
 2257 0cf2 610E0000 		.4byte	0xe61
 2258 0cf6 08000000 		.4byte	.LBI64
 2259 0cfa 07       		.byte	.LVU15
 2260 0cfb 1B000000 		.4byte	.LLRL4
 2261 0cff 04       		.byte	0x4
 2262 0d00 9901     		.2byte	0x199
 2263 0d02 16       		.uleb128 0x16
 2264 0d03 6A0E0000 		.4byte	0xe6a
 2265 0d07 08000000 		.4byte	.LBI65
 2266 0d0b 09       		.byte	.LVU17
 2267 0d0c 1B000000 		.4byte	.LLRL4
 2268 0d10 05       		.byte	0x5
 2269 0d11 3F03     		.2byte	0x33f
 2270 0d13 05       		.uleb128 0x5
 2271 0d14 770E0000 		.4byte	0xe77
 2272 0d18 B5010000 		.4byte	.LLST5
 2273 0d1c B3010000 		.4byte	.LVUS5
 2274 0d20 00       		.byte	0
 2275 0d21 00       		.byte	0
 2276 0d22 00       		.byte	0
 2277 0d23 0F       		.uleb128 0xf
 2278 0d24 AE0E0000 		.4byte	0xeae
 2279 0d28 14000000 		.4byte	.LBI72
 2280 0d2c 01       		.byte	.LVU27
ARM GAS  C:\Users\DEVELO~1\AppData\Local\Temp\ccceJRvr.s 			page 41


 2281 0d2d 27000000 		.4byte	.LLRL6
 2282 0d31 58       		.byte	0x58
 2283 0d32 03       		.byte	0x3
 2284 0d33 520D0000 		.4byte	0xd52
 2285 0d37 05       		.uleb128 0x5
 2286 0d38 C30E0000 		.4byte	0xec3
 2287 0d3c C2010000 		.4byte	.LLST7
 2288 0d40 C0010000 		.4byte	.LVUS7
 2289 0d44 05       		.uleb128 0x5
 2290 0d45 B80E0000 		.4byte	0xeb8
 2291 0d49 CD010000 		.4byte	.LLST8
 2292 0d4d CB010000 		.4byte	.LVUS8
 2293 0d51 00       		.byte	0
 2294 0d52 10       		.uleb128 0x10
 2295 0d53 230E0000 		.4byte	0xe23
 2296 0d57 2C000000 		.4byte	.LBI78
 2297 0d5b 01       		.byte	.LVU44
 2298 0d5c 2C000000 		.4byte	.LBB78
 2299 0d60 06000000 		.4byte	.LBE78-.LBB78
 2300 0d64 5E       		.byte	0x5e
 2301 0d65 03       		.byte	0x3
 2302 0d66 A40D0000 		.4byte	0xda4
 2303 0d6a 17       		.uleb128 0x17
 2304 0d6b 580E0000 		.4byte	0xe58
 2305 0d6f 2C000000 		.4byte	.LBI80
 2306 0d73 08       		.byte	.LVU51
 2307 0d74 2C000000 		.4byte	.LBB80
 2308 0d78 06000000 		.4byte	.LBE80-.LBB80
 2309 0d7c 04       		.byte	0x4
 2310 0d7d B201     		.2byte	0x1b2
 2311 0d7f 17       		.uleb128 0x17
 2312 0d80 6A0E0000 		.4byte	0xe6a
 2313 0d84 2C000000 		.4byte	.LBI81
 2314 0d88 0A       		.byte	.LVU53
 2315 0d89 2C000000 		.4byte	.LBB81
 2316 0d8d 06000000 		.4byte	.LBE81-.LBB81
 2317 0d91 05       		.byte	0x5
 2318 0d92 5203     		.2byte	0x352
 2319 0d94 05       		.uleb128 0x5
 2320 0d95 770E0000 		.4byte	0xe77
 2321 0d99 DA010000 		.4byte	.LLST9
 2322 0d9d D8010000 		.4byte	.LVUS9
 2323 0da1 00       		.byte	0
 2324 0da2 00       		.byte	0
 2325 0da3 00       		.byte	0
 2326 0da4 37       		.uleb128 0x37
 2327 0da5 2A000000 		.4byte	.LVL6
 2328 0da9 FA080000 		.4byte	0x8fa
 2329 0dad B70D0000 		.4byte	0xdb7
 2330 0db1 11       		.uleb128 0x11
 2331 0db2 01       		.uleb128 0x1
 2332 0db3 50       		.byte	0x50
 2333 0db4 01       		.uleb128 0x1
 2334 0db5 3C       		.byte	0x3c
 2335 0db6 00       		.byte	0
 2336 0db7 38       		.uleb128 0x38
 2337 0db8 38000000 		.4byte	.LVL10
ARM GAS  C:\Users\DEVELO~1\AppData\Local\Temp\ccceJRvr.s 			page 42


 2338 0dbc 0A090000 		.4byte	0x90a
 2339 0dc0 00       		.byte	0
 2340 0dc1 12       		.uleb128 0x12
 2341 0dc2 42030000 		.4byte	0x342
 2342 0dc6 D10D0000 		.4byte	0xdd1
 2343 0dca 13       		.uleb128 0x13
 2344 0dcb 2D000000 		.4byte	0x2d
 2345 0dcf 09       		.byte	0x9
 2346 0dd0 00       		.byte	0
 2347 0dd1 0E       		.uleb128 0xe
 2348 0dd2 C10D0000 		.4byte	0xdc1
 2349 0dd6 39       		.uleb128 0x39
 2350 0dd7 B2000000 		.4byte	.LASF133
 2351 0ddb 07       		.byte	0x7
 2352 0ddc CF       		.byte	0xcf
 2353 0ddd 14       		.byte	0x14
 2354 0dde 03       		.byte	0x3
 2355 0ddf F90D0000 		.4byte	0xdf9
 2356 0de3 22       		.uleb128 0x22
 2357 0de4 747000   		.ascii	"tp\000"
 2358 0de7 CF       		.byte	0xcf
 2359 0de8 2C       		.byte	0x2c
 2360 0de9 7F040000 		.4byte	0x47f
 2361 0ded 22       		.uleb128 0x22
 2362 0dee 6D736700 		.ascii	"msg\000"
 2363 0df2 CF       		.byte	0xcf
 2364 0df3 36       		.byte	0x36
 2365 0df4 38010000 		.4byte	0x138
 2366 0df8 00       		.byte	0
 2367 0df9 3A       		.uleb128 0x3a
 2368 0dfa 9A010000 		.4byte	.LASF140
 2369 0dfe 07       		.byte	0x7
 2370 0dff AD       		.byte	0xad
 2371 0e00 14       		.byte	0x14
 2372 0e01 C4080000 		.4byte	0x8c4
 2373 0e05 03       		.byte	0x3
 2374 0e06 150E0000 		.4byte	0xe15
 2375 0e0a 22       		.uleb128 0x22
 2376 0e0b 747000   		.ascii	"tp\000"
 2377 0e0e AD       		.byte	0xad
 2378 0e0f 2E       		.byte	0x2e
 2379 0e10 7F040000 		.4byte	0x47f
 2380 0e14 00       		.byte	0
 2381 0e15 3B       		.uleb128 0x3b
 2382 0e16 A7060000 		.4byte	.LASF146
 2383 0e1a 02       		.byte	0x2
 2384 0e1b 5501     		.2byte	0x155
 2385 0e1d 19       		.byte	0x19
 2386 0e1e 7F040000 		.4byte	0x47f
 2387 0e22 03       		.byte	0x3
 2388 0e23 2A       		.uleb128 0x2a
 2389 0e24 D9060000 		.4byte	.LASF134
 2390 0e28 04       		.byte	0x4
 2391 0e29 A501     		.2byte	0x1a5
 2392 0e2b 14       		.byte	0x14
 2393 0e2c 3A0E0000 		.4byte	0xe3a
 2394 0e30 1D       		.uleb128 0x1d
ARM GAS  C:\Users\DEVELO~1\AppData\Local\Temp\ccceJRvr.s 			page 43


 2395 0e31 30050000 		.4byte	.LASF132
 2396 0e35 4A0E0000 		.4byte	0xe4a
 2397 0e39 00       		.byte	0
 2398 0e3a 12       		.uleb128 0x12
 2399 0e3b 42030000 		.4byte	0x342
 2400 0e3f 4A0E0000 		.4byte	0xe4a
 2401 0e43 13       		.uleb128 0x13
 2402 0e44 2D000000 		.4byte	0x2d
 2403 0e48 0B       		.byte	0xb
 2404 0e49 00       		.byte	0
 2405 0e4a 0E       		.uleb128 0xe
 2406 0e4b 3A0E0000 		.4byte	0xe3a
 2407 0e4f 23       		.uleb128 0x23
 2408 0e50 39050000 		.4byte	.LASF135
 2409 0e54 04       		.byte	0x4
 2410 0e55 9701     		.2byte	0x197
 2411 0e57 14       		.byte	0x14
 2412 0e58 23       		.uleb128 0x23
 2413 0e59 58010000 		.4byte	.LASF136
 2414 0e5d 05       		.byte	0x5
 2415 0e5e 4F03     		.2byte	0x34f
 2416 0e60 1B       		.byte	0x1b
 2417 0e61 23       		.uleb128 0x23
 2418 0e62 05070000 		.4byte	.LASF137
 2419 0e66 05       		.byte	0x5
 2420 0e67 3703     		.2byte	0x337
 2421 0e69 1B       		.byte	0x1b
 2422 0e6a 2A       		.uleb128 0x2a
 2423 0e6b 1B040000 		.4byte	.LASF138
 2424 0e6f 03       		.byte	0x3
 2425 0e70 EB01     		.2byte	0x1eb
 2426 0e72 1B       		.byte	0x1b
 2427 0e73 850E0000 		.4byte	0xe85
 2428 0e77 3C       		.uleb128 0x3c
 2429 0e78 26010000 		.4byte	.LASF139
 2430 0e7c 03       		.byte	0x3
 2431 0e7d EB01     		.2byte	0x1eb
 2432 0e7f 32       		.byte	0x32
 2433 0e80 D3000000 		.4byte	0xd3
 2434 0e84 00       		.byte	0
 2435 0e85 3D       		.uleb128 0x3d
 2436 0e86 76010000 		.4byte	.LASF141
 2437 0e8a 06       		.byte	0x6
 2438 0e8b 1801     		.2byte	0x118
 2439 0e8d 1B       		.byte	0x1b
 2440 0e8e CB030000 		.4byte	0x3cb
 2441 0e92 03       		.byte	0x3
 2442 0e93 AE0E0000 		.4byte	0xeae
 2443 0e97 24       		.uleb128 0x24
 2444 0e98 717000   		.ascii	"qp\000"
 2445 0e9b 1801     		.2byte	0x118
 2446 0e9d 3C       		.byte	0x3c
 2447 0e9e CB030000 		.4byte	0x3cb
 2448 0ea2 3E       		.uleb128 0x3e
 2449 0ea3 7000     		.ascii	"p\000"
 2450 0ea5 06       		.byte	0x6
 2451 0ea6 1901     		.2byte	0x119
ARM GAS  C:\Users\DEVELO~1\AppData\Local\Temp\ccceJRvr.s 			page 44


 2452 0ea8 0F       		.byte	0xf
 2453 0ea9 CB030000 		.4byte	0x3cb
 2454 0ead 00       		.byte	0
 2455 0eae 3F       		.uleb128 0x3f
 2456 0eaf DD040000 		.4byte	.LASF147
 2457 0eb3 06       		.byte	0x6
 2458 0eb4 0601     		.2byte	0x106
 2459 0eb6 14       		.byte	0x14
 2460 0eb7 03       		.byte	0x3
 2461 0eb8 24       		.uleb128 0x24
 2462 0eb9 717000   		.ascii	"qp\000"
 2463 0ebc 0601     		.2byte	0x106
 2464 0ebe 30       		.byte	0x30
 2465 0ebf CB030000 		.4byte	0x3cb
 2466 0ec3 24       		.uleb128 0x24
 2467 0ec4 7000     		.ascii	"p\000"
 2468 0ec6 0601     		.2byte	0x106
 2469 0ec8 40       		.byte	0x40
 2470 0ec9 CB030000 		.4byte	0x3cb
 2471 0ecd 00       		.byte	0
 2472 0ece 00       		.byte	0
 2473              		.section	.debug_abbrev,"",%progbits
 2474              	.Ldebug_abbrev0:
 2475 0000 01       		.uleb128 0x1
 2476 0001 16       		.uleb128 0x16
 2477 0002 00       		.byte	0
 2478 0003 03       		.uleb128 0x3
 2479 0004 0E       		.uleb128 0xe
 2480 0005 3A       		.uleb128 0x3a
 2481 0006 0B       		.uleb128 0xb
 2482 0007 3B       		.uleb128 0x3b
 2483 0008 0B       		.uleb128 0xb
 2484 0009 39       		.uleb128 0x39
 2485 000a 0B       		.uleb128 0xb
 2486 000b 49       		.uleb128 0x49
 2487 000c 13       		.uleb128 0x13
 2488 000d 00       		.byte	0
 2489 000e 00       		.byte	0
 2490 000f 02       		.uleb128 0x2
 2491 0010 0D       		.uleb128 0xd
 2492 0011 00       		.byte	0
 2493 0012 03       		.uleb128 0x3
 2494 0013 0E       		.uleb128 0xe
 2495 0014 3A       		.uleb128 0x3a
 2496 0015 0B       		.uleb128 0xb
 2497 0016 3B       		.uleb128 0x3b
 2498 0017 0B       		.uleb128 0xb
 2499 0018 39       		.uleb128 0x39
 2500 0019 0B       		.uleb128 0xb
 2501 001a 49       		.uleb128 0x49
 2502 001b 13       		.uleb128 0x13
 2503 001c 38       		.uleb128 0x38
 2504 001d 0B       		.uleb128 0xb
 2505 001e 00       		.byte	0
 2506 001f 00       		.byte	0
 2507 0020 03       		.uleb128 0x3
 2508 0021 0D       		.uleb128 0xd
ARM GAS  C:\Users\DEVELO~1\AppData\Local\Temp\ccceJRvr.s 			page 45


 2509 0022 00       		.byte	0
 2510 0023 03       		.uleb128 0x3
 2511 0024 0E       		.uleb128 0xe
 2512 0025 3A       		.uleb128 0x3a
 2513 0026 21       		.uleb128 0x21
 2514 0027 0C       		.sleb128 12
 2515 0028 3B       		.uleb128 0x3b
 2516 0029 05       		.uleb128 0x5
 2517 002a 39       		.uleb128 0x39
 2518 002b 0B       		.uleb128 0xb
 2519 002c 49       		.uleb128 0x49
 2520 002d 13       		.uleb128 0x13
 2521 002e 38       		.uleb128 0x38
 2522 002f 0B       		.uleb128 0xb
 2523 0030 00       		.byte	0
 2524 0031 00       		.byte	0
 2525 0032 04       		.uleb128 0x4
 2526 0033 0F       		.uleb128 0xf
 2527 0034 00       		.byte	0
 2528 0035 0B       		.uleb128 0xb
 2529 0036 21       		.uleb128 0x21
 2530 0037 04       		.sleb128 4
 2531 0038 49       		.uleb128 0x49
 2532 0039 13       		.uleb128 0x13
 2533 003a 00       		.byte	0
 2534 003b 00       		.byte	0
 2535 003c 05       		.uleb128 0x5
 2536 003d 05       		.uleb128 0x5
 2537 003e 00       		.byte	0
 2538 003f 31       		.uleb128 0x31
 2539 0040 13       		.uleb128 0x13
 2540 0041 02       		.uleb128 0x2
 2541 0042 17       		.uleb128 0x17
 2542 0043 B742     		.uleb128 0x2137
 2543 0045 17       		.uleb128 0x17
 2544 0046 00       		.byte	0
 2545 0047 00       		.byte	0
 2546 0048 06       		.uleb128 0x6
 2547 0049 24       		.uleb128 0x24
 2548 004a 00       		.byte	0
 2549 004b 0B       		.uleb128 0xb
 2550 004c 0B       		.uleb128 0xb
 2551 004d 3E       		.uleb128 0x3e
 2552 004e 0B       		.uleb128 0xb
 2553 004f 03       		.uleb128 0x3
 2554 0050 0E       		.uleb128 0xe
 2555 0051 00       		.byte	0
 2556 0052 00       		.byte	0
 2557 0053 07       		.uleb128 0x7
 2558 0054 0D       		.uleb128 0xd
 2559 0055 00       		.byte	0
 2560 0056 03       		.uleb128 0x3
 2561 0057 08       		.uleb128 0x8
 2562 0058 3A       		.uleb128 0x3a
 2563 0059 0B       		.uleb128 0xb
 2564 005a 3B       		.uleb128 0x3b
 2565 005b 05       		.uleb128 0x5
ARM GAS  C:\Users\DEVELO~1\AppData\Local\Temp\ccceJRvr.s 			page 46


 2566 005c 39       		.uleb128 0x39
 2567 005d 0B       		.uleb128 0xb
 2568 005e 49       		.uleb128 0x49
 2569 005f 13       		.uleb128 0x13
 2570 0060 38       		.uleb128 0x38
 2571 0061 0B       		.uleb128 0xb
 2572 0062 00       		.byte	0
 2573 0063 00       		.byte	0
 2574 0064 08       		.uleb128 0x8
 2575 0065 13       		.uleb128 0x13
 2576 0066 01       		.byte	0x1
 2577 0067 03       		.uleb128 0x3
 2578 0068 0E       		.uleb128 0xe
 2579 0069 0B       		.uleb128 0xb
 2580 006a 0B       		.uleb128 0xb
 2581 006b 3A       		.uleb128 0x3a
 2582 006c 0B       		.uleb128 0xb
 2583 006d 3B       		.uleb128 0x3b
 2584 006e 0B       		.uleb128 0xb
 2585 006f 39       		.uleb128 0x39
 2586 0070 0B       		.uleb128 0xb
 2587 0071 01       		.uleb128 0x1
 2588 0072 13       		.uleb128 0x13
 2589 0073 00       		.byte	0
 2590 0074 00       		.byte	0
 2591 0075 09       		.uleb128 0x9
 2592 0076 0D       		.uleb128 0xd
 2593 0077 00       		.byte	0
 2594 0078 03       		.uleb128 0x3
 2595 0079 08       		.uleb128 0x8
 2596 007a 3A       		.uleb128 0x3a
 2597 007b 0B       		.uleb128 0xb
 2598 007c 3B       		.uleb128 0x3b
 2599 007d 0B       		.uleb128 0xb
 2600 007e 39       		.uleb128 0x39
 2601 007f 0B       		.uleb128 0xb
 2602 0080 49       		.uleb128 0x49
 2603 0081 13       		.uleb128 0x13
 2604 0082 38       		.uleb128 0x38
 2605 0083 0B       		.uleb128 0xb
 2606 0084 00       		.byte	0
 2607 0085 00       		.byte	0
 2608 0086 0A       		.uleb128 0xa
 2609 0087 0D       		.uleb128 0xd
 2610 0088 00       		.byte	0
 2611 0089 03       		.uleb128 0x3
 2612 008a 0E       		.uleb128 0xe
 2613 008b 3A       		.uleb128 0x3a
 2614 008c 0B       		.uleb128 0xb
 2615 008d 3B       		.uleb128 0x3b
 2616 008e 0B       		.uleb128 0xb
 2617 008f 39       		.uleb128 0x39
 2618 0090 0B       		.uleb128 0xb
 2619 0091 49       		.uleb128 0x49
 2620 0092 13       		.uleb128 0x13
 2621 0093 00       		.byte	0
 2622 0094 00       		.byte	0
ARM GAS  C:\Users\DEVELO~1\AppData\Local\Temp\ccceJRvr.s 			page 47


 2623 0095 0B       		.uleb128 0xb
 2624 0096 13       		.uleb128 0x13
 2625 0097 01       		.byte	0x1
 2626 0098 0B       		.uleb128 0xb
 2627 0099 0B       		.uleb128 0xb
 2628 009a 3A       		.uleb128 0x3a
 2629 009b 21       		.uleb128 0x21
 2630 009c 10       		.sleb128 16
 2631 009d 3B       		.uleb128 0x3b
 2632 009e 0B       		.uleb128 0xb
 2633 009f 39       		.uleb128 0x39
 2634 00a0 0B       		.uleb128 0xb
 2635 00a1 01       		.uleb128 0x1
 2636 00a2 13       		.uleb128 0x13
 2637 00a3 00       		.byte	0
 2638 00a4 00       		.byte	0
 2639 00a5 0C       		.uleb128 0xc
 2640 00a6 0D       		.uleb128 0xd
 2641 00a7 00       		.byte	0
 2642 00a8 03       		.uleb128 0x3
 2643 00a9 0E       		.uleb128 0xe
 2644 00aa 3A       		.uleb128 0x3a
 2645 00ab 21       		.uleb128 0x21
 2646 00ac 0C       		.sleb128 12
 2647 00ad 3B       		.uleb128 0x3b
 2648 00ae 05       		.uleb128 0x5
 2649 00af 39       		.uleb128 0x39
 2650 00b0 0B       		.uleb128 0xb
 2651 00b1 49       		.uleb128 0x49
 2652 00b2 13       		.uleb128 0x13
 2653 00b3 00       		.byte	0
 2654 00b4 00       		.byte	0
 2655 00b5 0D       		.uleb128 0xd
 2656 00b6 05       		.uleb128 0x5
 2657 00b7 00       		.byte	0
 2658 00b8 49       		.uleb128 0x49
 2659 00b9 13       		.uleb128 0x13
 2660 00ba 00       		.byte	0
 2661 00bb 00       		.byte	0
 2662 00bc 0E       		.uleb128 0xe
 2663 00bd 26       		.uleb128 0x26
 2664 00be 00       		.byte	0
 2665 00bf 49       		.uleb128 0x49
 2666 00c0 13       		.uleb128 0x13
 2667 00c1 00       		.byte	0
 2668 00c2 00       		.byte	0
 2669 00c3 0F       		.uleb128 0xf
 2670 00c4 1D       		.uleb128 0x1d
 2671 00c5 01       		.byte	0x1
 2672 00c6 31       		.uleb128 0x31
 2673 00c7 13       		.uleb128 0x13
 2674 00c8 52       		.uleb128 0x52
 2675 00c9 01       		.uleb128 0x1
 2676 00ca B842     		.uleb128 0x2138
 2677 00cc 0B       		.uleb128 0xb
 2678 00cd 55       		.uleb128 0x55
 2679 00ce 17       		.uleb128 0x17
ARM GAS  C:\Users\DEVELO~1\AppData\Local\Temp\ccceJRvr.s 			page 48


 2680 00cf 58       		.uleb128 0x58
 2681 00d0 21       		.uleb128 0x21
 2682 00d1 01       		.sleb128 1
 2683 00d2 59       		.uleb128 0x59
 2684 00d3 0B       		.uleb128 0xb
 2685 00d4 57       		.uleb128 0x57
 2686 00d5 0B       		.uleb128 0xb
 2687 00d6 01       		.uleb128 0x1
 2688 00d7 13       		.uleb128 0x13
 2689 00d8 00       		.byte	0
 2690 00d9 00       		.byte	0
 2691 00da 10       		.uleb128 0x10
 2692 00db 1D       		.uleb128 0x1d
 2693 00dc 01       		.byte	0x1
 2694 00dd 31       		.uleb128 0x31
 2695 00de 13       		.uleb128 0x13
 2696 00df 52       		.uleb128 0x52
 2697 00e0 01       		.uleb128 0x1
 2698 00e1 B842     		.uleb128 0x2138
 2699 00e3 0B       		.uleb128 0xb
 2700 00e4 11       		.uleb128 0x11
 2701 00e5 01       		.uleb128 0x1
 2702 00e6 12       		.uleb128 0x12
 2703 00e7 06       		.uleb128 0x6
 2704 00e8 58       		.uleb128 0x58
 2705 00e9 21       		.uleb128 0x21
 2706 00ea 01       		.sleb128 1
 2707 00eb 59       		.uleb128 0x59
 2708 00ec 0B       		.uleb128 0xb
 2709 00ed 57       		.uleb128 0x57
 2710 00ee 0B       		.uleb128 0xb
 2711 00ef 01       		.uleb128 0x1
 2712 00f0 13       		.uleb128 0x13
 2713 00f1 00       		.byte	0
 2714 00f2 00       		.byte	0
 2715 00f3 11       		.uleb128 0x11
 2716 00f4 49       		.uleb128 0x49
 2717 00f5 00       		.byte	0
 2718 00f6 02       		.uleb128 0x2
 2719 00f7 18       		.uleb128 0x18
 2720 00f8 7E       		.uleb128 0x7e
 2721 00f9 18       		.uleb128 0x18
 2722 00fa 00       		.byte	0
 2723 00fb 00       		.byte	0
 2724 00fc 12       		.uleb128 0x12
 2725 00fd 01       		.uleb128 0x1
 2726 00fe 01       		.byte	0x1
 2727 00ff 49       		.uleb128 0x49
 2728 0100 13       		.uleb128 0x13
 2729 0101 01       		.uleb128 0x1
 2730 0102 13       		.uleb128 0x13
 2731 0103 00       		.byte	0
 2732 0104 00       		.byte	0
 2733 0105 13       		.uleb128 0x13
 2734 0106 21       		.uleb128 0x21
 2735 0107 00       		.byte	0
 2736 0108 49       		.uleb128 0x49
ARM GAS  C:\Users\DEVELO~1\AppData\Local\Temp\ccceJRvr.s 			page 49


 2737 0109 13       		.uleb128 0x13
 2738 010a 2F       		.uleb128 0x2f
 2739 010b 0B       		.uleb128 0xb
 2740 010c 00       		.byte	0
 2741 010d 00       		.byte	0
 2742 010e 14       		.uleb128 0x14
 2743 010f 13       		.uleb128 0x13
 2744 0110 01       		.byte	0x1
 2745 0111 03       		.uleb128 0x3
 2746 0112 0E       		.uleb128 0xe
 2747 0113 0B       		.uleb128 0xb
 2748 0114 0B       		.uleb128 0xb
 2749 0115 3A       		.uleb128 0x3a
 2750 0116 0B       		.uleb128 0xb
 2751 0117 3B       		.uleb128 0x3b
 2752 0118 05       		.uleb128 0x5
 2753 0119 39       		.uleb128 0x39
 2754 011a 0B       		.uleb128 0xb
 2755 011b 01       		.uleb128 0x1
 2756 011c 13       		.uleb128 0x13
 2757 011d 00       		.byte	0
 2758 011e 00       		.byte	0
 2759 011f 15       		.uleb128 0x15
 2760 0120 05       		.uleb128 0x5
 2761 0121 00       		.byte	0
 2762 0122 03       		.uleb128 0x3
 2763 0123 08       		.uleb128 0x8
 2764 0124 3A       		.uleb128 0x3a
 2765 0125 21       		.uleb128 0x21
 2766 0126 01       		.sleb128 1
 2767 0127 3B       		.uleb128 0x3b
 2768 0128 0B       		.uleb128 0xb
 2769 0129 39       		.uleb128 0x39
 2770 012a 0B       		.uleb128 0xb
 2771 012b 49       		.uleb128 0x49
 2772 012c 13       		.uleb128 0x13
 2773 012d 02       		.uleb128 0x2
 2774 012e 17       		.uleb128 0x17
 2775 012f B742     		.uleb128 0x2137
 2776 0131 17       		.uleb128 0x17
 2777 0132 00       		.byte	0
 2778 0133 00       		.byte	0
 2779 0134 16       		.uleb128 0x16
 2780 0135 1D       		.uleb128 0x1d
 2781 0136 01       		.byte	0x1
 2782 0137 31       		.uleb128 0x31
 2783 0138 13       		.uleb128 0x13
 2784 0139 52       		.uleb128 0x52
 2785 013a 01       		.uleb128 0x1
 2786 013b B842     		.uleb128 0x2138
 2787 013d 0B       		.uleb128 0xb
 2788 013e 55       		.uleb128 0x55
 2789 013f 17       		.uleb128 0x17
 2790 0140 58       		.uleb128 0x58
 2791 0141 0B       		.uleb128 0xb
 2792 0142 59       		.uleb128 0x59
 2793 0143 05       		.uleb128 0x5
ARM GAS  C:\Users\DEVELO~1\AppData\Local\Temp\ccceJRvr.s 			page 50


 2794 0144 57       		.uleb128 0x57
 2795 0145 21       		.uleb128 0x21
 2796 0146 03       		.sleb128 3
 2797 0147 00       		.byte	0
 2798 0148 00       		.byte	0
 2799 0149 17       		.uleb128 0x17
 2800 014a 1D       		.uleb128 0x1d
 2801 014b 01       		.byte	0x1
 2802 014c 31       		.uleb128 0x31
 2803 014d 13       		.uleb128 0x13
 2804 014e 52       		.uleb128 0x52
 2805 014f 01       		.uleb128 0x1
 2806 0150 B842     		.uleb128 0x2138
 2807 0152 0B       		.uleb128 0xb
 2808 0153 11       		.uleb128 0x11
 2809 0154 01       		.uleb128 0x1
 2810 0155 12       		.uleb128 0x12
 2811 0156 06       		.uleb128 0x6
 2812 0157 58       		.uleb128 0x58
 2813 0158 0B       		.uleb128 0xb
 2814 0159 59       		.uleb128 0x59
 2815 015a 05       		.uleb128 0x5
 2816 015b 57       		.uleb128 0x57
 2817 015c 21       		.uleb128 0x21
 2818 015d 03       		.sleb128 3
 2819 015e 00       		.byte	0
 2820 015f 00       		.byte	0
 2821 0160 18       		.uleb128 0x18
 2822 0161 2E       		.uleb128 0x2e
 2823 0162 01       		.byte	0x1
 2824 0163 3F       		.uleb128 0x3f
 2825 0164 19       		.uleb128 0x19
 2826 0165 03       		.uleb128 0x3
 2827 0166 0E       		.uleb128 0xe
 2828 0167 3A       		.uleb128 0x3a
 2829 0168 21       		.uleb128 0x21
 2830 0169 01       		.sleb128 1
 2831 016a 3B       		.uleb128 0x3b
 2832 016b 0B       		.uleb128 0xb
 2833 016c 39       		.uleb128 0x39
 2834 016d 0B       		.uleb128 0xb
 2835 016e 27       		.uleb128 0x27
 2836 016f 19       		.uleb128 0x19
 2837 0170 49       		.uleb128 0x49
 2838 0171 13       		.uleb128 0x13
 2839 0172 11       		.uleb128 0x11
 2840 0173 01       		.uleb128 0x1
 2841 0174 12       		.uleb128 0x12
 2842 0175 06       		.uleb128 0x6
 2843 0176 40       		.uleb128 0x40
 2844 0177 18       		.uleb128 0x18
 2845 0178 7A       		.uleb128 0x7a
 2846 0179 19       		.uleb128 0x19
 2847 017a 01       		.uleb128 0x1
 2848 017b 13       		.uleb128 0x13
 2849 017c 00       		.byte	0
 2850 017d 00       		.byte	0
ARM GAS  C:\Users\DEVELO~1\AppData\Local\Temp\ccceJRvr.s 			page 51


 2851 017e 19       		.uleb128 0x19
 2852 017f 34       		.uleb128 0x34
 2853 0180 00       		.byte	0
 2854 0181 03       		.uleb128 0x3
 2855 0182 0E       		.uleb128 0xe
 2856 0183 3A       		.uleb128 0x3a
 2857 0184 21       		.uleb128 0x21
 2858 0185 01       		.sleb128 1
 2859 0186 3B       		.uleb128 0x3b
 2860 0187 0B       		.uleb128 0xb
 2861 0188 39       		.uleb128 0x39
 2862 0189 21       		.uleb128 0x21
 2863 018a 0D       		.sleb128 13
 2864 018b 49       		.uleb128 0x49
 2865 018c 13       		.uleb128 0x13
 2866 018d 02       		.uleb128 0x2
 2867 018e 17       		.uleb128 0x17
 2868 018f B742     		.uleb128 0x2137
 2869 0191 17       		.uleb128 0x17
 2870 0192 00       		.byte	0
 2871 0193 00       		.byte	0
 2872 0194 1A       		.uleb128 0x1a
 2873 0195 17       		.uleb128 0x17
 2874 0196 01       		.byte	0x1
 2875 0197 0B       		.uleb128 0xb
 2876 0198 0B       		.uleb128 0xb
 2877 0199 3A       		.uleb128 0x3a
 2878 019a 0B       		.uleb128 0xb
 2879 019b 3B       		.uleb128 0x3b
 2880 019c 0B       		.uleb128 0xb
 2881 019d 39       		.uleb128 0x39
 2882 019e 21       		.uleb128 0x21
 2883 019f 03       		.sleb128 3
 2884 01a0 01       		.uleb128 0x1
 2885 01a1 13       		.uleb128 0x13
 2886 01a2 00       		.byte	0
 2887 01a3 00       		.byte	0
 2888 01a4 1B       		.uleb128 0x1b
 2889 01a5 0D       		.uleb128 0xd
 2890 01a6 00       		.byte	0
 2891 01a7 03       		.uleb128 0x3
 2892 01a8 08       		.uleb128 0x8
 2893 01a9 3A       		.uleb128 0x3a
 2894 01aa 21       		.uleb128 0x21
 2895 01ab 10       		.sleb128 16
 2896 01ac 3B       		.uleb128 0x3b
 2897 01ad 0B       		.uleb128 0xb
 2898 01ae 39       		.uleb128 0x39
 2899 01af 21       		.uleb128 0x21
 2900 01b0 07       		.sleb128 7
 2901 01b1 49       		.uleb128 0x49
 2902 01b2 13       		.uleb128 0x13
 2903 01b3 00       		.byte	0
 2904 01b4 00       		.byte	0
 2905 01b5 1C       		.uleb128 0x1c
 2906 01b6 0D       		.uleb128 0xd
 2907 01b7 00       		.byte	0
ARM GAS  C:\Users\DEVELO~1\AppData\Local\Temp\ccceJRvr.s 			page 52


 2908 01b8 03       		.uleb128 0x3
 2909 01b9 0E       		.uleb128 0xe
 2910 01ba 3A       		.uleb128 0x3a
 2911 01bb 21       		.uleb128 0x21
 2912 01bc 10       		.sleb128 16
 2913 01bd 3B       		.uleb128 0x3b
 2914 01be 0B       		.uleb128 0xb
 2915 01bf 39       		.uleb128 0x39
 2916 01c0 21       		.uleb128 0x21
 2917 01c1 19       		.sleb128 25
 2918 01c2 49       		.uleb128 0x49
 2919 01c3 13       		.uleb128 0x13
 2920 01c4 0D       		.uleb128 0xd
 2921 01c5 0B       		.uleb128 0xb
 2922 01c6 6B       		.uleb128 0x6b
 2923 01c7 0B       		.uleb128 0xb
 2924 01c8 00       		.byte	0
 2925 01c9 00       		.byte	0
 2926 01ca 1D       		.uleb128 0x1d
 2927 01cb 34       		.uleb128 0x34
 2928 01cc 00       		.byte	0
 2929 01cd 03       		.uleb128 0x3
 2930 01ce 0E       		.uleb128 0xe
 2931 01cf 49       		.uleb128 0x49
 2932 01d0 13       		.uleb128 0x13
 2933 01d1 34       		.uleb128 0x34
 2934 01d2 19       		.uleb128 0x19
 2935 01d3 00       		.byte	0
 2936 01d4 00       		.byte	0
 2937 01d5 1E       		.uleb128 0x1e
 2938 01d6 48       		.uleb128 0x48
 2939 01d7 01       		.byte	0x1
 2940 01d8 7D       		.uleb128 0x7d
 2941 01d9 01       		.uleb128 0x1
 2942 01da 7F       		.uleb128 0x7f
 2943 01db 13       		.uleb128 0x13
 2944 01dc 00       		.byte	0
 2945 01dd 00       		.byte	0
 2946 01de 1F       		.uleb128 0x1f
 2947 01df 0B       		.uleb128 0xb
 2948 01e0 01       		.byte	0x1
 2949 01e1 55       		.uleb128 0x55
 2950 01e2 17       		.uleb128 0x17
 2951 01e3 00       		.byte	0
 2952 01e4 00       		.byte	0
 2953 01e5 20       		.uleb128 0x20
 2954 01e6 34       		.uleb128 0x34
 2955 01e7 00       		.byte	0
 2956 01e8 31       		.uleb128 0x31
 2957 01e9 13       		.uleb128 0x13
 2958 01ea 02       		.uleb128 0x2
 2959 01eb 17       		.uleb128 0x17
 2960 01ec B742     		.uleb128 0x2137
 2961 01ee 17       		.uleb128 0x17
 2962 01ef 00       		.byte	0
 2963 01f0 00       		.byte	0
 2964 01f1 21       		.uleb128 0x21
ARM GAS  C:\Users\DEVELO~1\AppData\Local\Temp\ccceJRvr.s 			page 53


 2965 01f2 1D       		.uleb128 0x1d
 2966 01f3 00       		.byte	0
 2967 01f4 31       		.uleb128 0x31
 2968 01f5 13       		.uleb128 0x13
 2969 01f6 52       		.uleb128 0x52
 2970 01f7 01       		.uleb128 0x1
 2971 01f8 B842     		.uleb128 0x2138
 2972 01fa 0B       		.uleb128 0xb
 2973 01fb 55       		.uleb128 0x55
 2974 01fc 17       		.uleb128 0x17
 2975 01fd 58       		.uleb128 0x58
 2976 01fe 21       		.uleb128 0x21
 2977 01ff 01       		.sleb128 1
 2978 0200 59       		.uleb128 0x59
 2979 0201 0B       		.uleb128 0xb
 2980 0202 57       		.uleb128 0x57
 2981 0203 21       		.uleb128 0x21
 2982 0204 16       		.sleb128 22
 2983 0205 00       		.byte	0
 2984 0206 00       		.byte	0
 2985 0207 22       		.uleb128 0x22
 2986 0208 05       		.uleb128 0x5
 2987 0209 00       		.byte	0
 2988 020a 03       		.uleb128 0x3
 2989 020b 08       		.uleb128 0x8
 2990 020c 3A       		.uleb128 0x3a
 2991 020d 21       		.uleb128 0x21
 2992 020e 07       		.sleb128 7
 2993 020f 3B       		.uleb128 0x3b
 2994 0210 0B       		.uleb128 0xb
 2995 0211 39       		.uleb128 0x39
 2996 0212 0B       		.uleb128 0xb
 2997 0213 49       		.uleb128 0x49
 2998 0214 13       		.uleb128 0x13
 2999 0215 00       		.byte	0
 3000 0216 00       		.byte	0
 3001 0217 23       		.uleb128 0x23
 3002 0218 2E       		.uleb128 0x2e
 3003 0219 00       		.byte	0
 3004 021a 03       		.uleb128 0x3
 3005 021b 0E       		.uleb128 0xe
 3006 021c 3A       		.uleb128 0x3a
 3007 021d 0B       		.uleb128 0xb
 3008 021e 3B       		.uleb128 0x3b
 3009 021f 05       		.uleb128 0x5
 3010 0220 39       		.uleb128 0x39
 3011 0221 0B       		.uleb128 0xb
 3012 0222 27       		.uleb128 0x27
 3013 0223 19       		.uleb128 0x19
 3014 0224 20       		.uleb128 0x20
 3015 0225 21       		.uleb128 0x21
 3016 0226 03       		.sleb128 3
 3017 0227 00       		.byte	0
 3018 0228 00       		.byte	0
 3019 0229 24       		.uleb128 0x24
 3020 022a 05       		.uleb128 0x5
 3021 022b 00       		.byte	0
ARM GAS  C:\Users\DEVELO~1\AppData\Local\Temp\ccceJRvr.s 			page 54


 3022 022c 03       		.uleb128 0x3
 3023 022d 08       		.uleb128 0x8
 3024 022e 3A       		.uleb128 0x3a
 3025 022f 21       		.uleb128 0x21
 3026 0230 06       		.sleb128 6
 3027 0231 3B       		.uleb128 0x3b
 3028 0232 05       		.uleb128 0x5
 3029 0233 39       		.uleb128 0x39
 3030 0234 0B       		.uleb128 0xb
 3031 0235 49       		.uleb128 0x49
 3032 0236 13       		.uleb128 0x13
 3033 0237 00       		.byte	0
 3034 0238 00       		.byte	0
 3035 0239 25       		.uleb128 0x25
 3036 023a 35       		.uleb128 0x35
 3037 023b 00       		.byte	0
 3038 023c 49       		.uleb128 0x49
 3039 023d 13       		.uleb128 0x13
 3040 023e 00       		.byte	0
 3041 023f 00       		.byte	0
 3042 0240 26       		.uleb128 0x26
 3043 0241 16       		.uleb128 0x16
 3044 0242 00       		.byte	0
 3045 0243 03       		.uleb128 0x3
 3046 0244 0E       		.uleb128 0xe
 3047 0245 3A       		.uleb128 0x3a
 3048 0246 21       		.uleb128 0x21
 3049 0247 0C       		.sleb128 12
 3050 0248 3B       		.uleb128 0x3b
 3051 0249 05       		.uleb128 0x5
 3052 024a 39       		.uleb128 0x39
 3053 024b 21       		.uleb128 0x21
 3054 024c 03       		.sleb128 3
 3055 024d 49       		.uleb128 0x49
 3056 024e 13       		.uleb128 0x13
 3057 024f 00       		.byte	0
 3058 0250 00       		.byte	0
 3059 0251 27       		.uleb128 0x27
 3060 0252 2E       		.uleb128 0x2e
 3061 0253 01       		.byte	0x1
 3062 0254 3F       		.uleb128 0x3f
 3063 0255 19       		.uleb128 0x19
 3064 0256 03       		.uleb128 0x3
 3065 0257 0E       		.uleb128 0xe
 3066 0258 3A       		.uleb128 0x3a
 3067 0259 21       		.uleb128 0x21
 3068 025a 13       		.sleb128 19
 3069 025b 3B       		.uleb128 0x3b
 3070 025c 0B       		.uleb128 0xb
 3071 025d 39       		.uleb128 0x39
 3072 025e 21       		.uleb128 0x21
 3073 025f 08       		.sleb128 8
 3074 0260 27       		.uleb128 0x27
 3075 0261 19       		.uleb128 0x19
 3076 0262 3C       		.uleb128 0x3c
 3077 0263 19       		.uleb128 0x19
 3078 0264 01       		.uleb128 0x1
ARM GAS  C:\Users\DEVELO~1\AppData\Local\Temp\ccceJRvr.s 			page 55


 3079 0265 13       		.uleb128 0x13
 3080 0266 00       		.byte	0
 3081 0267 00       		.byte	0
 3082 0268 28       		.uleb128 0x28
 3083 0269 2E       		.uleb128 0x2e
 3084 026a 01       		.byte	0x1
 3085 026b 3F       		.uleb128 0x3f
 3086 026c 19       		.uleb128 0x19
 3087 026d 03       		.uleb128 0x3
 3088 026e 0E       		.uleb128 0xe
 3089 026f 3A       		.uleb128 0x3a
 3090 0270 21       		.uleb128 0x21
 3091 0271 13       		.sleb128 19
 3092 0272 3B       		.uleb128 0x3b
 3093 0273 0B       		.uleb128 0xb
 3094 0274 39       		.uleb128 0x39
 3095 0275 0B       		.uleb128 0xb
 3096 0276 27       		.uleb128 0x27
 3097 0277 19       		.uleb128 0x19
 3098 0278 49       		.uleb128 0x49
 3099 0279 13       		.uleb128 0x13
 3100 027a 3C       		.uleb128 0x3c
 3101 027b 19       		.uleb128 0x19
 3102 027c 01       		.uleb128 0x1
 3103 027d 13       		.uleb128 0x13
 3104 027e 00       		.byte	0
 3105 027f 00       		.byte	0
 3106 0280 29       		.uleb128 0x29
 3107 0281 34       		.uleb128 0x34
 3108 0282 00       		.byte	0
 3109 0283 03       		.uleb128 0x3
 3110 0284 08       		.uleb128 0x8
 3111 0285 3A       		.uleb128 0x3a
 3112 0286 21       		.uleb128 0x21
 3113 0287 01       		.sleb128 1
 3114 0288 3B       		.uleb128 0x3b
 3115 0289 0B       		.uleb128 0xb
 3116 028a 39       		.uleb128 0x39
 3117 028b 21       		.uleb128 0x21
 3118 028c 0D       		.sleb128 13
 3119 028d 49       		.uleb128 0x49
 3120 028e 13       		.uleb128 0x13
 3121 028f 00       		.byte	0
 3122 0290 00       		.byte	0
 3123 0291 2A       		.uleb128 0x2a
 3124 0292 2E       		.uleb128 0x2e
 3125 0293 01       		.byte	0x1
 3126 0294 03       		.uleb128 0x3
 3127 0295 0E       		.uleb128 0xe
 3128 0296 3A       		.uleb128 0x3a
 3129 0297 0B       		.uleb128 0xb
 3130 0298 3B       		.uleb128 0x3b
 3131 0299 05       		.uleb128 0x5
 3132 029a 39       		.uleb128 0x39
 3133 029b 0B       		.uleb128 0xb
 3134 029c 27       		.uleb128 0x27
 3135 029d 19       		.uleb128 0x19
ARM GAS  C:\Users\DEVELO~1\AppData\Local\Temp\ccceJRvr.s 			page 56


 3136 029e 20       		.uleb128 0x20
 3137 029f 21       		.uleb128 0x21
 3138 02a0 03       		.sleb128 3
 3139 02a1 01       		.uleb128 0x1
 3140 02a2 13       		.uleb128 0x13
 3141 02a3 00       		.byte	0
 3142 02a4 00       		.byte	0
 3143 02a5 2B       		.uleb128 0x2b
 3144 02a6 11       		.uleb128 0x11
 3145 02a7 01       		.byte	0x1
 3146 02a8 25       		.uleb128 0x25
 3147 02a9 0E       		.uleb128 0xe
 3148 02aa 13       		.uleb128 0x13
 3149 02ab 0B       		.uleb128 0xb
 3150 02ac 03       		.uleb128 0x3
 3151 02ad 0E       		.uleb128 0xe
 3152 02ae 1B       		.uleb128 0x1b
 3153 02af 0E       		.uleb128 0xe
 3154 02b0 55       		.uleb128 0x55
 3155 02b1 17       		.uleb128 0x17
 3156 02b2 11       		.uleb128 0x11
 3157 02b3 01       		.uleb128 0x1
 3158 02b4 10       		.uleb128 0x10
 3159 02b5 17       		.uleb128 0x17
 3160 02b6 00       		.byte	0
 3161 02b7 00       		.byte	0
 3162 02b8 2C       		.uleb128 0x2c
 3163 02b9 24       		.uleb128 0x24
 3164 02ba 00       		.byte	0
 3165 02bb 0B       		.uleb128 0xb
 3166 02bc 0B       		.uleb128 0xb
 3167 02bd 3E       		.uleb128 0x3e
 3168 02be 0B       		.uleb128 0xb
 3169 02bf 03       		.uleb128 0x3
 3170 02c0 08       		.uleb128 0x8
 3171 02c1 00       		.byte	0
 3172 02c2 00       		.byte	0
 3173 02c3 2D       		.uleb128 0x2d
 3174 02c4 13       		.uleb128 0x13
 3175 02c5 01       		.byte	0x1
 3176 02c6 03       		.uleb128 0x3
 3177 02c7 0E       		.uleb128 0xe
 3178 02c8 0B       		.uleb128 0xb
 3179 02c9 05       		.uleb128 0x5
 3180 02ca 3A       		.uleb128 0x3a
 3181 02cb 0B       		.uleb128 0xb
 3182 02cc 3B       		.uleb128 0x3b
 3183 02cd 05       		.uleb128 0x5
 3184 02ce 39       		.uleb128 0x39
 3185 02cf 0B       		.uleb128 0xb
 3186 02d0 01       		.uleb128 0x1
 3187 02d1 13       		.uleb128 0x13
 3188 02d2 00       		.byte	0
 3189 02d3 00       		.byte	0
 3190 02d4 2E       		.uleb128 0x2e
 3191 02d5 0F       		.uleb128 0xf
 3192 02d6 00       		.byte	0
ARM GAS  C:\Users\DEVELO~1\AppData\Local\Temp\ccceJRvr.s 			page 57


 3193 02d7 0B       		.uleb128 0xb
 3194 02d8 0B       		.uleb128 0xb
 3195 02d9 00       		.byte	0
 3196 02da 00       		.byte	0
 3197 02db 2F       		.uleb128 0x2f
 3198 02dc 13       		.uleb128 0x13
 3199 02dd 01       		.byte	0x1
 3200 02de 0B       		.uleb128 0xb
 3201 02df 05       		.uleb128 0x5
 3202 02e0 3A       		.uleb128 0x3a
 3203 02e1 0B       		.uleb128 0xb
 3204 02e2 3B       		.uleb128 0x3b
 3205 02e3 0B       		.uleb128 0xb
 3206 02e4 39       		.uleb128 0x39
 3207 02e5 0B       		.uleb128 0xb
 3208 02e6 01       		.uleb128 0x1
 3209 02e7 13       		.uleb128 0x13
 3210 02e8 00       		.byte	0
 3211 02e9 00       		.byte	0
 3212 02ea 30       		.uleb128 0x30
 3213 02eb 34       		.uleb128 0x34
 3214 02ec 00       		.byte	0
 3215 02ed 03       		.uleb128 0x3
 3216 02ee 08       		.uleb128 0x8
 3217 02ef 3A       		.uleb128 0x3a
 3218 02f0 0B       		.uleb128 0xb
 3219 02f1 3B       		.uleb128 0x3b
 3220 02f2 05       		.uleb128 0x5
 3221 02f3 39       		.uleb128 0x39
 3222 02f4 0B       		.uleb128 0xb
 3223 02f5 49       		.uleb128 0x49
 3224 02f6 13       		.uleb128 0x13
 3225 02f7 3F       		.uleb128 0x3f
 3226 02f8 19       		.uleb128 0x19
 3227 02f9 3C       		.uleb128 0x3c
 3228 02fa 19       		.uleb128 0x19
 3229 02fb 00       		.byte	0
 3230 02fc 00       		.byte	0
 3231 02fd 31       		.uleb128 0x31
 3232 02fe 2E       		.uleb128 0x2e
 3233 02ff 01       		.byte	0x1
 3234 0300 3F       		.uleb128 0x3f
 3235 0301 19       		.uleb128 0x19
 3236 0302 03       		.uleb128 0x3
 3237 0303 0E       		.uleb128 0xe
 3238 0304 3A       		.uleb128 0x3a
 3239 0305 0B       		.uleb128 0xb
 3240 0306 3B       		.uleb128 0x3b
 3241 0307 0B       		.uleb128 0xb
 3242 0308 39       		.uleb128 0x39
 3243 0309 0B       		.uleb128 0xb
 3244 030a 27       		.uleb128 0x27
 3245 030b 19       		.uleb128 0x19
 3246 030c 11       		.uleb128 0x11
 3247 030d 01       		.uleb128 0x1
 3248 030e 12       		.uleb128 0x12
 3249 030f 06       		.uleb128 0x6
ARM GAS  C:\Users\DEVELO~1\AppData\Local\Temp\ccceJRvr.s 			page 58


 3250 0310 40       		.uleb128 0x40
 3251 0311 18       		.uleb128 0x18
 3252 0312 7A       		.uleb128 0x7a
 3253 0313 19       		.uleb128 0x19
 3254 0314 01       		.uleb128 0x1
 3255 0315 13       		.uleb128 0x13
 3256 0316 00       		.byte	0
 3257 0317 00       		.byte	0
 3258 0318 32       		.uleb128 0x32
 3259 0319 1D       		.uleb128 0x1d
 3260 031a 01       		.byte	0x1
 3261 031b 31       		.uleb128 0x31
 3262 031c 13       		.uleb128 0x13
 3263 031d 52       		.uleb128 0x52
 3264 031e 01       		.uleb128 0x1
 3265 031f B842     		.uleb128 0x2138
 3266 0321 0B       		.uleb128 0xb
 3267 0322 11       		.uleb128 0x11
 3268 0323 01       		.uleb128 0x1
 3269 0324 12       		.uleb128 0x12
 3270 0325 06       		.uleb128 0x6
 3271 0326 58       		.uleb128 0x58
 3272 0327 0B       		.uleb128 0xb
 3273 0328 59       		.uleb128 0x59
 3274 0329 0B       		.uleb128 0xb
 3275 032a 57       		.uleb128 0x57
 3276 032b 0B       		.uleb128 0xb
 3277 032c 00       		.byte	0
 3278 032d 00       		.byte	0
 3279 032e 33       		.uleb128 0x33
 3280 032f 34       		.uleb128 0x34
 3281 0330 00       		.byte	0
 3282 0331 03       		.uleb128 0x3
 3283 0332 08       		.uleb128 0x8
 3284 0333 3A       		.uleb128 0x3a
 3285 0334 0B       		.uleb128 0xb
 3286 0335 3B       		.uleb128 0x3b
 3287 0336 0B       		.uleb128 0xb
 3288 0337 39       		.uleb128 0x39
 3289 0338 0B       		.uleb128 0xb
 3290 0339 49       		.uleb128 0x49
 3291 033a 13       		.uleb128 0x13
 3292 033b 02       		.uleb128 0x2
 3293 033c 17       		.uleb128 0x17
 3294 033d B742     		.uleb128 0x2137
 3295 033f 17       		.uleb128 0x17
 3296 0340 00       		.byte	0
 3297 0341 00       		.byte	0
 3298 0342 34       		.uleb128 0x34
 3299 0343 1D       		.uleb128 0x1d
 3300 0344 00       		.byte	0
 3301 0345 31       		.uleb128 0x31
 3302 0346 13       		.uleb128 0x13
 3303 0347 52       		.uleb128 0x52
 3304 0348 01       		.uleb128 0x1
 3305 0349 B842     		.uleb128 0x2138
 3306 034b 0B       		.uleb128 0xb
ARM GAS  C:\Users\DEVELO~1\AppData\Local\Temp\ccceJRvr.s 			page 59


 3307 034c 11       		.uleb128 0x11
 3308 034d 01       		.uleb128 0x1
 3309 034e 12       		.uleb128 0x12
 3310 034f 06       		.uleb128 0x6
 3311 0350 58       		.uleb128 0x58
 3312 0351 0B       		.uleb128 0xb
 3313 0352 59       		.uleb128 0x59
 3314 0353 0B       		.uleb128 0xb
 3315 0354 57       		.uleb128 0x57
 3316 0355 0B       		.uleb128 0xb
 3317 0356 00       		.byte	0
 3318 0357 00       		.byte	0
 3319 0358 35       		.uleb128 0x35
 3320 0359 1D       		.uleb128 0x1d
 3321 035a 01       		.byte	0x1
 3322 035b 31       		.uleb128 0x31
 3323 035c 13       		.uleb128 0x13
 3324 035d 52       		.uleb128 0x52
 3325 035e 01       		.uleb128 0x1
 3326 035f B842     		.uleb128 0x2138
 3327 0361 0B       		.uleb128 0xb
 3328 0362 55       		.uleb128 0x55
 3329 0363 17       		.uleb128 0x17
 3330 0364 58       		.uleb128 0x58
 3331 0365 0B       		.uleb128 0xb
 3332 0366 59       		.uleb128 0x59
 3333 0367 0B       		.uleb128 0xb
 3334 0368 57       		.uleb128 0x57
 3335 0369 0B       		.uleb128 0xb
 3336 036a 00       		.byte	0
 3337 036b 00       		.byte	0
 3338 036c 36       		.uleb128 0x36
 3339 036d 05       		.uleb128 0x5
 3340 036e 00       		.byte	0
 3341 036f 03       		.uleb128 0x3
 3342 0370 0E       		.uleb128 0xe
 3343 0371 3A       		.uleb128 0x3a
 3344 0372 0B       		.uleb128 0xb
 3345 0373 3B       		.uleb128 0x3b
 3346 0374 0B       		.uleb128 0xb
 3347 0375 39       		.uleb128 0x39
 3348 0376 0B       		.uleb128 0xb
 3349 0377 49       		.uleb128 0x49
 3350 0378 13       		.uleb128 0x13
 3351 0379 02       		.uleb128 0x2
 3352 037a 17       		.uleb128 0x17
 3353 037b B742     		.uleb128 0x2137
 3354 037d 17       		.uleb128 0x17
 3355 037e 00       		.byte	0
 3356 037f 00       		.byte	0
 3357 0380 37       		.uleb128 0x37
 3358 0381 48       		.uleb128 0x48
 3359 0382 01       		.byte	0x1
 3360 0383 7D       		.uleb128 0x7d
 3361 0384 01       		.uleb128 0x1
 3362 0385 7F       		.uleb128 0x7f
 3363 0386 13       		.uleb128 0x13
ARM GAS  C:\Users\DEVELO~1\AppData\Local\Temp\ccceJRvr.s 			page 60


 3364 0387 01       		.uleb128 0x1
 3365 0388 13       		.uleb128 0x13
 3366 0389 00       		.byte	0
 3367 038a 00       		.byte	0
 3368 038b 38       		.uleb128 0x38
 3369 038c 48       		.uleb128 0x48
 3370 038d 00       		.byte	0
 3371 038e 7D       		.uleb128 0x7d
 3372 038f 01       		.uleb128 0x1
 3373 0390 7F       		.uleb128 0x7f
 3374 0391 13       		.uleb128 0x13
 3375 0392 00       		.byte	0
 3376 0393 00       		.byte	0
 3377 0394 39       		.uleb128 0x39
 3378 0395 2E       		.uleb128 0x2e
 3379 0396 01       		.byte	0x1
 3380 0397 03       		.uleb128 0x3
 3381 0398 0E       		.uleb128 0xe
 3382 0399 3A       		.uleb128 0x3a
 3383 039a 0B       		.uleb128 0xb
 3384 039b 3B       		.uleb128 0x3b
 3385 039c 0B       		.uleb128 0xb
 3386 039d 39       		.uleb128 0x39
 3387 039e 0B       		.uleb128 0xb
 3388 039f 27       		.uleb128 0x27
 3389 03a0 19       		.uleb128 0x19
 3390 03a1 20       		.uleb128 0x20
 3391 03a2 0B       		.uleb128 0xb
 3392 03a3 01       		.uleb128 0x1
 3393 03a4 13       		.uleb128 0x13
 3394 03a5 00       		.byte	0
 3395 03a6 00       		.byte	0
 3396 03a7 3A       		.uleb128 0x3a
 3397 03a8 2E       		.uleb128 0x2e
 3398 03a9 01       		.byte	0x1
 3399 03aa 03       		.uleb128 0x3
 3400 03ab 0E       		.uleb128 0xe
 3401 03ac 3A       		.uleb128 0x3a
 3402 03ad 0B       		.uleb128 0xb
 3403 03ae 3B       		.uleb128 0x3b
 3404 03af 0B       		.uleb128 0xb
 3405 03b0 39       		.uleb128 0x39
 3406 03b1 0B       		.uleb128 0xb
 3407 03b2 27       		.uleb128 0x27
 3408 03b3 19       		.uleb128 0x19
 3409 03b4 49       		.uleb128 0x49
 3410 03b5 13       		.uleb128 0x13
 3411 03b6 20       		.uleb128 0x20
 3412 03b7 0B       		.uleb128 0xb
 3413 03b8 01       		.uleb128 0x1
 3414 03b9 13       		.uleb128 0x13
 3415 03ba 00       		.byte	0
 3416 03bb 00       		.byte	0
 3417 03bc 3B       		.uleb128 0x3b
 3418 03bd 2E       		.uleb128 0x2e
 3419 03be 00       		.byte	0
 3420 03bf 03       		.uleb128 0x3
ARM GAS  C:\Users\DEVELO~1\AppData\Local\Temp\ccceJRvr.s 			page 61


 3421 03c0 0E       		.uleb128 0xe
 3422 03c1 3A       		.uleb128 0x3a
 3423 03c2 0B       		.uleb128 0xb
 3424 03c3 3B       		.uleb128 0x3b
 3425 03c4 05       		.uleb128 0x5
 3426 03c5 39       		.uleb128 0x39
 3427 03c6 0B       		.uleb128 0xb
 3428 03c7 27       		.uleb128 0x27
 3429 03c8 19       		.uleb128 0x19
 3430 03c9 49       		.uleb128 0x49
 3431 03ca 13       		.uleb128 0x13
 3432 03cb 20       		.uleb128 0x20
 3433 03cc 0B       		.uleb128 0xb
 3434 03cd 00       		.byte	0
 3435 03ce 00       		.byte	0
 3436 03cf 3C       		.uleb128 0x3c
 3437 03d0 05       		.uleb128 0x5
 3438 03d1 00       		.byte	0
 3439 03d2 03       		.uleb128 0x3
 3440 03d3 0E       		.uleb128 0xe
 3441 03d4 3A       		.uleb128 0x3a
 3442 03d5 0B       		.uleb128 0xb
 3443 03d6 3B       		.uleb128 0x3b
 3444 03d7 05       		.uleb128 0x5
 3445 03d8 39       		.uleb128 0x39
 3446 03d9 0B       		.uleb128 0xb
 3447 03da 49       		.uleb128 0x49
 3448 03db 13       		.uleb128 0x13
 3449 03dc 00       		.byte	0
 3450 03dd 00       		.byte	0
 3451 03de 3D       		.uleb128 0x3d
 3452 03df 2E       		.uleb128 0x2e
 3453 03e0 01       		.byte	0x1
 3454 03e1 03       		.uleb128 0x3
 3455 03e2 0E       		.uleb128 0xe
 3456 03e3 3A       		.uleb128 0x3a
 3457 03e4 0B       		.uleb128 0xb
 3458 03e5 3B       		.uleb128 0x3b
 3459 03e6 05       		.uleb128 0x5
 3460 03e7 39       		.uleb128 0x39
 3461 03e8 0B       		.uleb128 0xb
 3462 03e9 27       		.uleb128 0x27
 3463 03ea 19       		.uleb128 0x19
 3464 03eb 49       		.uleb128 0x49
 3465 03ec 13       		.uleb128 0x13
 3466 03ed 20       		.uleb128 0x20
 3467 03ee 0B       		.uleb128 0xb
 3468 03ef 01       		.uleb128 0x1
 3469 03f0 13       		.uleb128 0x13
 3470 03f1 00       		.byte	0
 3471 03f2 00       		.byte	0
 3472 03f3 3E       		.uleb128 0x3e
 3473 03f4 34       		.uleb128 0x34
 3474 03f5 00       		.byte	0
 3475 03f6 03       		.uleb128 0x3
 3476 03f7 08       		.uleb128 0x8
 3477 03f8 3A       		.uleb128 0x3a
ARM GAS  C:\Users\DEVELO~1\AppData\Local\Temp\ccceJRvr.s 			page 62


 3478 03f9 0B       		.uleb128 0xb
 3479 03fa 3B       		.uleb128 0x3b
 3480 03fb 05       		.uleb128 0x5
 3481 03fc 39       		.uleb128 0x39
 3482 03fd 0B       		.uleb128 0xb
 3483 03fe 49       		.uleb128 0x49
 3484 03ff 13       		.uleb128 0x13
 3485 0400 00       		.byte	0
 3486 0401 00       		.byte	0
 3487 0402 3F       		.uleb128 0x3f
 3488 0403 2E       		.uleb128 0x2e
 3489 0404 01       		.byte	0x1
 3490 0405 03       		.uleb128 0x3
 3491 0406 0E       		.uleb128 0xe
 3492 0407 3A       		.uleb128 0x3a
 3493 0408 0B       		.uleb128 0xb
 3494 0409 3B       		.uleb128 0x3b
 3495 040a 05       		.uleb128 0x5
 3496 040b 39       		.uleb128 0x39
 3497 040c 0B       		.uleb128 0xb
 3498 040d 27       		.uleb128 0x27
 3499 040e 19       		.uleb128 0x19
 3500 040f 20       		.uleb128 0x20
 3501 0410 0B       		.uleb128 0xb
 3502 0411 00       		.byte	0
 3503 0412 00       		.byte	0
 3504 0413 00       		.byte	0
 3505              		.section	.debug_loclists,"",%progbits
 3506 0000 E0010000 		.4byte	.Ldebug_loc3-.Ldebug_loc2
 3507              	.Ldebug_loc2:
 3508 0004 0500     		.2byte	0x5
 3509 0006 04       		.byte	0x4
 3510 0007 00       		.byte	0
 3511 0008 00000000 		.4byte	0
 3512              	.Ldebug_loc0:
 3513              	.LVUS29:
 3514 000c 00       		.uleb128 0
 3515 000d 00       		.uleb128 .LVU185
 3516 000e 00       		.uleb128 .LVU185
 3517 000f 00       		.uleb128 0
 3518              	.LLST29:
 3519 0010 06       		.byte	0x6
 3520 0011 00000000 		.4byte	.LVL32
 3521 0015 04       		.byte	0x4
 3522 0016 00       		.uleb128 .LVL32-.LVL32
 3523 0017 0B       		.uleb128 .LVL34-1-.LVL32
 3524 0018 01       		.uleb128 0x1
 3525 0019 50       		.byte	0x50
 3526 001a 04       		.byte	0x4
 3527 001b 0B       		.uleb128 .LVL34-1-.LVL32
 3528 001c 14       		.uleb128 .LFE350-.LVL32
 3529 001d 04       		.uleb128 0x4
 3530 001e A3       		.byte	0xa3
 3531 001f 01       		.uleb128 0x1
 3532 0020 50       		.byte	0x50
 3533 0021 9F       		.byte	0x9f
 3534 0022 00       		.byte	0
ARM GAS  C:\Users\DEVELO~1\AppData\Local\Temp\ccceJRvr.s 			page 63


 3535              	.LVUS30:
 3536 0023 00       		.uleb128 0
 3537 0024 00       		.uleb128 .LVU185
 3538 0025 00       		.uleb128 .LVU185
 3539 0026 00       		.uleb128 0
 3540              	.LLST30:
 3541 0027 06       		.byte	0x6
 3542 0028 00000000 		.4byte	.LVL32
 3543 002c 04       		.byte	0x4
 3544 002d 00       		.uleb128 .LVL32-.LVL32
 3545 002e 0B       		.uleb128 .LVL34-1-.LVL32
 3546 002f 01       		.uleb128 0x1
 3547 0030 51       		.byte	0x51
 3548 0031 04       		.byte	0x4
 3549 0032 0B       		.uleb128 .LVL34-1-.LVL32
 3550 0033 14       		.uleb128 .LFE350-.LVL32
 3551 0034 04       		.uleb128 0x4
 3552 0035 A3       		.byte	0xa3
 3553 0036 01       		.uleb128 0x1
 3554 0037 51       		.byte	0x51
 3555 0038 9F       		.byte	0x9f
 3556 0039 00       		.byte	0
 3557              	.LVUS32:
 3558 003a 06       		.uleb128 .LVU171
 3559 003b 00       		.uleb128 .LVU175
 3560              	.LLST32:
 3561 003c 08       		.byte	0x8
 3562 003d 00000000 		.4byte	.LVL32
 3563 0041 08       		.uleb128 .LVL33-.LVL32
 3564 0042 03       		.uleb128 0x3
 3565 0043 08       		.byte	0x8
 3566 0044 30       		.byte	0x30
 3567 0045 9F       		.byte	0x9f
 3568 0046 00       		.byte	0
 3569              	.LVUS33:
 3570 0047 07       		.uleb128 .LVU182
 3571 0048 00       		.uleb128 .LVU185
 3572 0049 00       		.uleb128 .LVU185
 3573 004a 00       		.uleb128 .LVU185
 3574              	.LLST33:
 3575 004b 06       		.byte	0x6
 3576 004c 08000000 		.4byte	.LVL33
 3577 0050 04       		.byte	0x4
 3578 0051 00       		.uleb128 .LVL33-.LVL33
 3579 0052 03       		.uleb128 .LVL34-1-.LVL33
 3580 0053 01       		.uleb128 0x1
 3581 0054 51       		.byte	0x51
 3582 0055 04       		.byte	0x4
 3583 0056 03       		.uleb128 .LVL34-1-.LVL33
 3584 0057 04       		.uleb128 .LVL34-.LVL33
 3585 0058 04       		.uleb128 0x4
 3586 0059 A3       		.byte	0xa3
 3587 005a 01       		.uleb128 0x1
 3588 005b 51       		.byte	0x51
 3589 005c 9F       		.byte	0x9f
 3590 005d 00       		.byte	0
 3591              	.LVUS34:
ARM GAS  C:\Users\DEVELO~1\AppData\Local\Temp\ccceJRvr.s 			page 64


 3592 005e 07       		.uleb128 .LVU182
 3593 005f 00       		.uleb128 .LVU185
 3594 0060 00       		.uleb128 .LVU185
 3595 0061 00       		.uleb128 .LVU185
 3596              	.LLST34:
 3597 0062 06       		.byte	0x6
 3598 0063 08000000 		.4byte	.LVL33
 3599 0067 04       		.byte	0x4
 3600 0068 00       		.uleb128 .LVL33-.LVL33
 3601 0069 03       		.uleb128 .LVL34-1-.LVL33
 3602 006a 01       		.uleb128 0x1
 3603 006b 50       		.byte	0x50
 3604 006c 04       		.byte	0x4
 3605 006d 03       		.uleb128 .LVL34-1-.LVL33
 3606 006e 04       		.uleb128 .LVL34-.LVL33
 3607 006f 04       		.uleb128 0x4
 3608 0070 A3       		.byte	0xa3
 3609 0071 01       		.uleb128 0x1
 3610 0072 50       		.byte	0x50
 3611 0073 9F       		.byte	0x9f
 3612 0074 00       		.byte	0
 3613              	.LVUS35:
 3614 0075 0B       		.uleb128 .LVU196
 3615 0076 00       		.uleb128 .LVU198
 3616              	.LLST35:
 3617 0077 08       		.byte	0x8
 3618 0078 0C000000 		.4byte	.LVL34
 3619 007c 06       		.uleb128 .LVL35-.LVL34
 3620 007d 02       		.uleb128 0x2
 3621 007e 30       		.byte	0x30
 3622 007f 9F       		.byte	0x9f
 3623 0080 00       		.byte	0
 3624              	.LVUS23:
 3625 0081 00       		.uleb128 .LVU140
 3626 0082 00       		.uleb128 0
 3627              	.LLST23:
 3628 0083 08       		.byte	0x8
 3629 0084 04000000 		.4byte	.LVL27
 3630 0088 24       		.uleb128 .LFE349-.LVL27
 3631 0089 01       		.uleb128 0x1
 3632 008a 52       		.byte	0x52
 3633 008b 00       		.byte	0
 3634              	.LVUS24:
 3635 008c 02       		.uleb128 .LVU142
 3636 008d 01       		.uleb128 .LVU159
 3637 008e 01       		.uleb128 .LVU159
 3638 008f 00       		.uleb128 .LVU162
 3639 0090 00       		.uleb128 .LVU162
 3640 0091 00       		.uleb128 0
 3641              	.LLST24:
 3642 0092 06       		.byte	0x6
 3643 0093 04000000 		.4byte	.LVL27
 3644 0097 04       		.byte	0x4
 3645 0098 00       		.uleb128 .LVL27-.LVL27
 3646 0099 14       		.uleb128 .LVL30-.LVL27
 3647 009a 02       		.uleb128 0x2
 3648 009b 30       		.byte	0x30
ARM GAS  C:\Users\DEVELO~1\AppData\Local\Temp\ccceJRvr.s 			page 65


 3649 009c 9F       		.byte	0x9f
 3650 009d 04       		.byte	0x4
 3651 009e 14       		.uleb128 .LVL30-.LVL27
 3652 009f 1A       		.uleb128 .LVL31-.LVL27
 3653 00a0 01       		.uleb128 0x1
 3654 00a1 50       		.byte	0x50
 3655 00a2 04       		.byte	0x4
 3656 00a3 1A       		.uleb128 .LVL31-.LVL27
 3657 00a4 24       		.uleb128 .LFE349-.LVL27
 3658 00a5 02       		.uleb128 0x2
 3659 00a6 30       		.byte	0x30
 3660 00a7 9F       		.byte	0x9f
 3661 00a8 00       		.byte	0
 3662              	.LVUS25:
 3663 00a9 03       		.uleb128 .LVU143
 3664 00aa 00       		.uleb128 .LVU147
 3665              	.LLST25:
 3666 00ab 08       		.byte	0x8
 3667 00ac 04000000 		.4byte	.LVL27
 3668 00b0 06       		.uleb128 .LVL28-.LVL27
 3669 00b1 01       		.uleb128 0x1
 3670 00b2 52       		.byte	0x52
 3671 00b3 00       		.byte	0
 3672              	.LVUS27:
 3673 00b4 01       		.uleb128 .LVU150
 3674 00b5 01       		.uleb128 .LVU159
 3675              	.LLST27:
 3676 00b6 08       		.byte	0x8
 3677 00b7 0E000000 		.4byte	.LVL29
 3678 00bb 0A       		.uleb128 .LVL30-.LVL29
 3679 00bc 01       		.uleb128 0x1
 3680 00bd 53       		.byte	0x53
 3681 00be 00       		.byte	0
 3682              	.LVUS28:
 3683 00bf 03       		.uleb128 .LVU152
 3684 00c0 01       		.uleb128 .LVU159
 3685              	.LLST28:
 3686 00c1 08       		.byte	0x8
 3687 00c2 0E000000 		.4byte	.LVL29
 3688 00c6 0A       		.uleb128 .LVL30-.LVL29
 3689 00c7 01       		.uleb128 0x1
 3690 00c8 50       		.byte	0x50
 3691 00c9 00       		.byte	0
 3692              	.LVUS16:
 3693 00ca 00       		.uleb128 0
 3694 00cb 00       		.uleb128 .LVU110
 3695 00cc 00       		.uleb128 .LVU110
 3696 00cd 00       		.uleb128 .LVU112
 3697 00ce 00       		.uleb128 .LVU112
 3698 00cf 00       		.uleb128 .LVU127
 3699 00d0 00       		.uleb128 .LVU127
 3700 00d1 00       		.uleb128 .LVU129
 3701 00d2 00       		.uleb128 .LVU129
 3702 00d3 00       		.uleb128 0
 3703              	.LLST16:
 3704 00d4 06       		.byte	0x6
 3705 00d5 00000000 		.4byte	.LVL18
ARM GAS  C:\Users\DEVELO~1\AppData\Local\Temp\ccceJRvr.s 			page 66


 3706 00d9 04       		.byte	0x4
 3707 00da 00       		.uleb128 .LVL18-.LVL18
 3708 00db 0E       		.uleb128 .LVL20-.LVL18
 3709 00dc 01       		.uleb128 0x1
 3710 00dd 50       		.byte	0x50
 3711 00de 04       		.byte	0x4
 3712 00df 0E       		.uleb128 .LVL20-.LVL18
 3713 00e0 12       		.uleb128 .LVL21-.LVL18
 3714 00e1 01       		.uleb128 0x1
 3715 00e2 51       		.byte	0x51
 3716 00e3 04       		.byte	0x4
 3717 00e4 12       		.uleb128 .LVL21-.LVL18
 3718 00e5 20       		.uleb128 .LVL24-.LVL18
 3719 00e6 04       		.uleb128 0x4
 3720 00e7 A3       		.byte	0xa3
 3721 00e8 01       		.uleb128 0x1
 3722 00e9 50       		.byte	0x50
 3723 00ea 9F       		.byte	0x9f
 3724 00eb 04       		.byte	0x4
 3725 00ec 20       		.uleb128 .LVL24-.LVL18
 3726 00ed 25       		.uleb128 .LVL25-1-.LVL18
 3727 00ee 01       		.uleb128 0x1
 3728 00ef 51       		.byte	0x51
 3729 00f0 04       		.byte	0x4
 3730 00f1 25       		.uleb128 .LVL25-1-.LVL18
 3731 00f2 34       		.uleb128 .LFE348-.LVL18
 3732 00f3 04       		.uleb128 0x4
 3733 00f4 A3       		.byte	0xa3
 3734 00f5 01       		.uleb128 0x1
 3735 00f6 50       		.byte	0x50
 3736 00f7 9F       		.byte	0x9f
 3737 00f8 00       		.byte	0
 3738              	.LVUS17:
 3739 00f9 00       		.uleb128 .LVU102
 3740 00fa 00       		.uleb128 .LVU134
 3741              	.LLST17:
 3742 00fb 08       		.byte	0x8
 3743 00fc 08000000 		.4byte	.LVL19
 3744 0100 28       		.uleb128 .LVL26-.LVL19
 3745 0101 01       		.uleb128 0x1
 3746 0102 55       		.byte	0x55
 3747 0103 00       		.byte	0
 3748              	.LVUS19:
 3749 0104 04       		.uleb128 .LVU106
 3750 0105 00       		.uleb128 .LVU110
 3751              	.LLST19:
 3752 0106 08       		.byte	0x8
 3753 0107 08000000 		.4byte	.LVL19
 3754 010b 06       		.uleb128 .LVL20-.LVL19
 3755 010c 01       		.uleb128 0x1
 3756 010d 55       		.byte	0x55
 3757 010e 00       		.byte	0
 3758              	.LVUS21:
 3759 010f 01       		.uleb128 .LVU113
 3760 0110 01       		.uleb128 .LVU122
 3761              	.LLST21:
 3762 0111 08       		.byte	0x8
ARM GAS  C:\Users\DEVELO~1\AppData\Local\Temp\ccceJRvr.s 			page 67


 3763 0112 12000000 		.4byte	.LVL21
 3764 0116 08       		.uleb128 .LVL23-.LVL21
 3765 0117 01       		.uleb128 0x1
 3766 0118 54       		.byte	0x54
 3767 0119 00       		.byte	0
 3768              	.LVUS22:
 3769 011a 03       		.uleb128 .LVU115
 3770 011b 00       		.uleb128 .LVU119
 3771              	.LLST22:
 3772 011c 08       		.byte	0x8
 3773 011d 12000000 		.4byte	.LVL21
 3774 0121 06       		.uleb128 .LVL22-.LVL21
 3775 0122 02       		.uleb128 0x2
 3776 0123 75       		.byte	0x75
 3777 0124 30       		.sleb128 48
 3778 0125 00       		.byte	0
 3779              	.LVUS10:
 3780 0126 00       		.uleb128 .LVU67
 3781 0127 00       		.uleb128 0
 3782              	.LLST10:
 3783 0128 08       		.byte	0x8
 3784 0129 06000000 		.4byte	.LVL11
 3785 012d 26       		.uleb128 .LFE347-.LVL11
 3786 012e 01       		.uleb128 0x1
 3787 012f 55       		.byte	0x55
 3788 0130 00       		.byte	0
 3789              	.LVUS12:
 3790 0131 04       		.uleb128 .LVU71
 3791 0132 00       		.uleb128 .LVU75
 3792              	.LLST12:
 3793 0133 08       		.byte	0x8
 3794 0134 06000000 		.4byte	.LVL11
 3795 0138 06       		.uleb128 .LVL12-.LVL11
 3796 0139 01       		.uleb128 0x1
 3797 013a 55       		.byte	0x55
 3798 013b 00       		.byte	0
 3799              	.LVUS14:
 3800 013c 01       		.uleb128 .LVU78
 3801 013d 01       		.uleb128 .LVU87
 3802              	.LLST14:
 3803 013e 08       		.byte	0x8
 3804 013f 10000000 		.4byte	.LVL13
 3805 0143 08       		.uleb128 .LVL15-.LVL13
 3806 0144 01       		.uleb128 0x1
 3807 0145 54       		.byte	0x54
 3808 0146 00       		.byte	0
 3809              	.LVUS15:
 3810 0147 03       		.uleb128 .LVU80
 3811 0148 00       		.uleb128 .LVU84
 3812              	.LLST15:
 3813 0149 08       		.byte	0x8
 3814 014a 10000000 		.4byte	.LVL13
 3815 014e 06       		.uleb128 .LVL14-.LVL13
 3816 014f 02       		.uleb128 0x2
 3817 0150 75       		.byte	0x75
 3818 0151 30       		.sleb128 48
 3819 0152 00       		.byte	0
ARM GAS  C:\Users\DEVELO~1\AppData\Local\Temp\ccceJRvr.s 			page 68


 3820              	.LVUS0:
 3821 0153 00       		.uleb128 0
 3822 0154 00       		.uleb128 .LVU40
 3823 0155 00       		.uleb128 .LVU40
 3824 0156 00       		.uleb128 .LVU58
 3825 0157 00       		.uleb128 .LVU58
 3826 0158 00       		.uleb128 .LVU60
 3827 0159 00       		.uleb128 .LVU60
 3828 015a 00       		.uleb128 0
 3829              	.LLST0:
 3830 015b 06       		.byte	0x6
 3831 015c 00000000 		.4byte	.LVL0
 3832 0160 04       		.byte	0x4
 3833 0161 00       		.uleb128 .LVL0-.LVL0
 3834 0162 24       		.uleb128 .LVL5-.LVL0
 3835 0163 01       		.uleb128 0x1
 3836 0164 50       		.byte	0x50
 3837 0165 04       		.byte	0x4
 3838 0166 24       		.uleb128 .LVL5-.LVL0
 3839 0167 34       		.uleb128 .LVL9-.LVL0
 3840 0168 03       		.uleb128 0x3
 3841 0169 75       		.byte	0x75
 3842 016a 50       		.sleb128 -48
 3843 016b 9F       		.byte	0x9f
 3844 016c 04       		.byte	0x4
 3845 016d 34       		.uleb128 .LVL9-.LVL0
 3846 016e 37       		.uleb128 .LVL10-1-.LVL0
 3847 016f 01       		.uleb128 0x1
 3848 0170 50       		.byte	0x50
 3849 0171 04       		.byte	0x4
 3850 0172 37       		.uleb128 .LVL10-1-.LVL0
 3851 0173 40       		.uleb128 .LFE346-.LVL0
 3852 0174 03       		.uleb128 0x3
 3853 0175 75       		.byte	0x75
 3854 0176 50       		.sleb128 -48
 3855 0177 9F       		.byte	0x9f
 3856 0178 00       		.byte	0
 3857              	.LVUS1:
 3858 0179 00       		.uleb128 0
 3859 017a 00       		.uleb128 .LVU40
 3860 017b 00       		.uleb128 .LVU40
 3861 017c 00       		.uleb128 .LVU43
 3862 017d 00       		.uleb128 .LVU43
 3863 017e 00       		.uleb128 .LVU58
 3864 017f 00       		.uleb128 .LVU58
 3865 0180 00       		.uleb128 .LVU60
 3866 0181 00       		.uleb128 .LVU60
 3867 0182 00       		.uleb128 0
 3868              	.LLST1:
 3869 0183 06       		.byte	0x6
 3870 0184 00000000 		.4byte	.LVL0
 3871 0188 04       		.byte	0x4
 3872 0189 00       		.uleb128 .LVL0-.LVL0
 3873 018a 24       		.uleb128 .LVL5-.LVL0
 3874 018b 01       		.uleb128 0x1
 3875 018c 51       		.byte	0x51
 3876 018d 04       		.byte	0x4
ARM GAS  C:\Users\DEVELO~1\AppData\Local\Temp\ccceJRvr.s 			page 69


 3877 018e 24       		.uleb128 .LVL5-.LVL0
 3878 018f 2C       		.uleb128 .LVL7-.LVL0
 3879 0190 04       		.uleb128 0x4
 3880 0191 A3       		.byte	0xa3
 3881 0192 01       		.uleb128 0x1
 3882 0193 51       		.byte	0x51
 3883 0194 9F       		.byte	0x9f
 3884 0195 04       		.byte	0x4
 3885 0196 2C       		.uleb128 .LVL7-.LVL0
 3886 0197 34       		.uleb128 .LVL9-.LVL0
 3887 0198 01       		.uleb128 0x1
 3888 0199 50       		.byte	0x50
 3889 019a 04       		.byte	0x4
 3890 019b 34       		.uleb128 .LVL9-.LVL0
 3891 019c 37       		.uleb128 .LVL10-1-.LVL0
 3892 019d 01       		.uleb128 0x1
 3893 019e 51       		.byte	0x51
 3894 019f 04       		.byte	0x4
 3895 01a0 37       		.uleb128 .LVL10-1-.LVL0
 3896 01a1 40       		.uleb128 .LFE346-.LVL0
 3897 01a2 04       		.uleb128 0x4
 3898 01a3 A3       		.byte	0xa3
 3899 01a4 01       		.uleb128 0x1
 3900 01a5 51       		.byte	0x51
 3901 01a6 9F       		.byte	0x9f
 3902 01a7 00       		.byte	0
 3903              	.LVUS2:
 3904 01a8 00       		.uleb128 .LVU8
 3905 01a9 00       		.uleb128 0
 3906              	.LLST2:
 3907 01aa 08       		.byte	0x8
 3908 01ab 08000000 		.4byte	.LVL1
 3909 01af 38       		.uleb128 .LFE346-.LVL1
 3910 01b0 01       		.uleb128 0x1
 3911 01b1 54       		.byte	0x54
 3912 01b2 00       		.byte	0
 3913              	.LVUS5:
 3914 01b3 09       		.uleb128 .LVU17
 3915 01b4 00       		.uleb128 .LVU19
 3916              	.LLST5:
 3917 01b5 08       		.byte	0x8
 3918 01b6 08000000 		.4byte	.LVL1
 3919 01ba 04       		.uleb128 .LVL2-.LVL1
 3920 01bb 03       		.uleb128 0x3
 3921 01bc 08       		.byte	0x8
 3922 01bd 30       		.byte	0x30
 3923 01be 9F       		.byte	0x9f
 3924 01bf 00       		.byte	0
 3925              	.LVUS7:
 3926 01c0 01       		.uleb128 .LVU27
 3927 01c1 00       		.uleb128 .LVU37
 3928              	.LLST7:
 3929 01c2 08       		.byte	0x8
 3930 01c3 14000000 		.4byte	.LVL3
 3931 01c7 0C       		.uleb128 .LVL4-.LVL3
 3932 01c8 01       		.uleb128 0x1
 3933 01c9 54       		.byte	0x54
ARM GAS  C:\Users\DEVELO~1\AppData\Local\Temp\ccceJRvr.s 			page 70


 3934 01ca 00       		.byte	0
 3935              	.LVUS8:
 3936 01cb 01       		.uleb128 .LVU27
 3937 01cc 00       		.uleb128 .LVU37
 3938              	.LLST8:
 3939 01cd 08       		.byte	0x8
 3940 01ce 14000000 		.4byte	.LVL3
 3941 01d2 0C       		.uleb128 .LVL4-.LVL3
 3942 01d3 03       		.uleb128 0x3
 3943 01d4 73       		.byte	0x73
 3944 01d5 30       		.sleb128 48
 3945 01d6 9F       		.byte	0x9f
 3946 01d7 00       		.byte	0
 3947              	.LVUS9:
 3948 01d8 0A       		.uleb128 .LVU53
 3949 01d9 00       		.uleb128 .LVU55
 3950              	.LLST9:
 3951 01da 08       		.byte	0x8
 3952 01db 2C000000 		.4byte	.LVL7
 3953 01df 06       		.uleb128 .LVL8-.LVL7
 3954 01e0 02       		.uleb128 0x2
 3955 01e1 30       		.byte	0x30
 3956 01e2 9F       		.byte	0x9f
 3957 01e3 00       		.byte	0
 3958              	.Ldebug_loc3:
 3959              		.section	.debug_aranges,"",%progbits
 3960 0000 3C000000 		.4byte	0x3c
 3961 0004 0200     		.2byte	0x2
 3962 0006 00000000 		.4byte	.Ldebug_info0
 3963 000a 04       		.byte	0x4
 3964 000b 00       		.byte	0
 3965 000c 0000     		.2byte	0
 3966 000e 0000     		.2byte	0
 3967 0010 00000000 		.4byte	.LFB346
 3968 0014 40000000 		.4byte	.LFE346-.LFB346
 3969 0018 00000000 		.4byte	.LFB347
 3970 001c 2C000000 		.4byte	.LFE347-.LFB347
 3971 0020 00000000 		.4byte	.LFB348
 3972 0024 34000000 		.4byte	.LFE348-.LFB348
 3973 0028 00000000 		.4byte	.LFB349
 3974 002c 28000000 		.4byte	.LFE349-.LFB349
 3975 0030 00000000 		.4byte	.LFB350
 3976 0034 14000000 		.4byte	.LFE350-.LFB350
 3977 0038 00000000 		.4byte	0
 3978 003c 00000000 		.4byte	0
 3979              		.section	.debug_rnglists,"",%progbits
 3980              	.Ldebug_ranges0:
 3981 0000 A2000000 		.4byte	.Ldebug_ranges3-.Ldebug_ranges2
 3982              	.Ldebug_ranges2:
 3983 0004 0500     		.2byte	0x5
 3984 0006 04       		.byte	0x4
 3985 0007 00       		.byte	0
 3986 0008 00000000 		.4byte	0
 3987              	.LLRL3:
 3988 000c 05       		.byte	0x5
 3989 000d 00000000 		.4byte	.LBB58
 3990 0011 04       		.byte	0x4
ARM GAS  C:\Users\DEVELO~1\AppData\Local\Temp\ccceJRvr.s 			page 71


 3991 0012 00       		.uleb128 .LBB58-.LBB58
 3992 0013 00       		.uleb128 .LBE58-.LBB58
 3993 0014 04       		.byte	0x4
 3994 0015 02       		.uleb128 .LBB62-.LBB58
 3995 0016 04       		.uleb128 .LBE62-.LBB58
 3996 0017 04       		.byte	0x4
 3997 0018 06       		.uleb128 .LBB70-.LBB58
 3998 0019 08       		.uleb128 .LBE70-.LBB58
 3999 001a 00       		.byte	0
 4000              	.LLRL4:
 4001 001b 05       		.byte	0x5
 4002 001c 04000000 		.4byte	.LBB63
 4003 0020 04       		.byte	0x4
 4004 0021 00       		.uleb128 .LBB63-.LBB63
 4005 0022 02       		.uleb128 .LBE63-.LBB63
 4006 0023 04       		.byte	0x4
 4007 0024 04       		.uleb128 .LBB71-.LBB63
 4008 0025 08       		.uleb128 .LBE71-.LBB63
 4009 0026 00       		.byte	0
 4010              	.LLRL6:
 4011 0027 05       		.byte	0x5
 4012 0028 0C000000 		.4byte	.LBB72
 4013 002c 04       		.byte	0x4
 4014 002d 00       		.uleb128 .LBB72-.LBB72
 4015 002e 02       		.uleb128 .LBE72-.LBB72
 4016 002f 04       		.byte	0x4
 4017 0030 08       		.uleb128 .LBB76-.LBB72
 4018 0031 0E       		.uleb128 .LBE76-.LBB72
 4019 0032 04       		.byte	0x4
 4020 0033 12       		.uleb128 .LBB77-.LBB72
 4021 0034 14       		.uleb128 .LBE77-.LBB72
 4022 0035 00       		.byte	0
 4023              	.LLRL11:
 4024 0036 05       		.byte	0x5
 4025 0037 00000000 		.4byte	.LBB83
 4026 003b 04       		.byte	0x4
 4027 003c 00       		.uleb128 .LBB83-.LBB83
 4028 003d 00       		.uleb128 .LBE83-.LBB83
 4029 003e 04       		.byte	0x4
 4030 003f 02       		.uleb128 .LBB86-.LBB83
 4031 0040 06       		.uleb128 .LBE86-.LBB83
 4032 0041 00       		.byte	0
 4033              	.LLRL13:
 4034 0042 05       		.byte	0x5
 4035 0043 10000000 		.4byte	.LBB89
 4036 0047 04       		.byte	0x4
 4037 0048 00       		.uleb128 .LBB89-.LBB89
 4038 0049 02       		.uleb128 .LBE89-.LBB89
 4039 004a 04       		.byte	0x4
 4040 004b 04       		.uleb128 .LBB93-.LBB89
 4041 004c 08       		.uleb128 .LBE93-.LBB89
 4042 004d 04       		.byte	0x4
 4043 004e 14       		.uleb128 .LBB94-.LBB89
 4044 004f 1C       		.uleb128 .LBE94-.LBB89
 4045 0050 00       		.byte	0
 4046              	.LLRL18:
 4047 0051 05       		.byte	0x5
ARM GAS  C:\Users\DEVELO~1\AppData\Local\Temp\ccceJRvr.s 			page 72


 4048 0052 00000000 		.4byte	.LBB95
 4049 0056 04       		.byte	0x4
 4050 0057 00       		.uleb128 .LBB95-.LBB95
 4051 0058 00       		.uleb128 .LBE95-.LBB95
 4052 0059 04       		.byte	0x4
 4053 005a 02       		.uleb128 .LBB99-.LBB95
 4054 005b 04       		.uleb128 .LBE99-.LBB95
 4055 005c 04       		.byte	0x4
 4056 005d 06       		.uleb128 .LBB100-.LBB95
 4057 005e 08       		.uleb128 .LBE100-.LBB95
 4058 005f 00       		.byte	0
 4059              	.LLRL20:
 4060 0060 05       		.byte	0x5
 4061 0061 12000000 		.4byte	.LBB103
 4062 0065 04       		.byte	0x4
 4063 0066 00       		.uleb128 .LBB103-.LBB103
 4064 0067 02       		.uleb128 .LBE103-.LBB103
 4065 0068 04       		.byte	0x4
 4066 0069 04       		.uleb128 .LBB107-.LBB103
 4067 006a 08       		.uleb128 .LBE107-.LBB103
 4068 006b 04       		.byte	0x4
 4069 006c 16       		.uleb128 .LBB108-.LBB103
 4070 006d 1A       		.uleb128 .LBE108-.LBB103
 4071 006e 00       		.byte	0
 4072              	.LLRL26:
 4073 006f 05       		.byte	0x5
 4074 0070 0E000000 		.4byte	.LBB113
 4075 0074 04       		.byte	0x4
 4076 0075 00       		.uleb128 .LBB113-.LBB113
 4077 0076 02       		.uleb128 .LBE113-.LBB113
 4078 0077 04       		.byte	0x4
 4079 0078 06       		.uleb128 .LBB116-.LBB113
 4080 0079 0A       		.uleb128 .LBE116-.LBB113
 4081 007a 00       		.byte	0
 4082              	.LLRL31:
 4083 007b 05       		.byte	0x5
 4084 007c 00000000 		.4byte	.LBB117
 4085 0080 04       		.byte	0x4
 4086 0081 00       		.uleb128 .LBB117-.LBB117
 4087 0082 00       		.uleb128 .LBE117-.LBB117
 4088 0083 04       		.byte	0x4
 4089 0084 02       		.uleb128 .LBB124-.LBB117
 4090 0085 08       		.uleb128 .LBE124-.LBB117
 4091 0086 00       		.byte	0
 4092              	.LLRL36:
 4093 0087 07       		.byte	0x7
 4094 0088 00000000 		.4byte	.LFB346
 4095 008c 40       		.uleb128 .LFE346-.LFB346
 4096 008d 07       		.byte	0x7
 4097 008e 00000000 		.4byte	.LFB347
 4098 0092 2C       		.uleb128 .LFE347-.LFB347
 4099 0093 07       		.byte	0x7
 4100 0094 00000000 		.4byte	.LFB348
 4101 0098 34       		.uleb128 .LFE348-.LFB348
 4102 0099 07       		.byte	0x7
 4103 009a 00000000 		.4byte	.LFB349
 4104 009e 28       		.uleb128 .LFE349-.LFB349
ARM GAS  C:\Users\DEVELO~1\AppData\Local\Temp\ccceJRvr.s 			page 73


 4105 009f 07       		.byte	0x7
 4106 00a0 00000000 		.4byte	.LFB350
 4107 00a4 14       		.uleb128 .LFE350-.LFB350
 4108 00a5 00       		.byte	0
 4109              	.Ldebug_ranges3:
 4110              		.section	.debug_line,"",%progbits
 4111              	.Ldebug_line0:
 4112 0000 33060000 		.section	.debug_str,"MS",%progbits,1
 4112      03005002 
 4112      00000201 
 4112      FB0E0D00 
 4112      01010101 
 4113              	.LASF70:
 4114 0000 70726576 		.ascii	"prev\000"
 4114      00
 4115              	.LASF50:
 4116 0005 636F7265 		.ascii	"core_id\000"
 4116      5F696400 
 4117              	.LASF113:
 4118 000d 72656164 		.ascii	"ready_list_t\000"
 4118      795F6C69 
 4118      73745F74 
 4118      00
 4119              	.LASF104:
 4120 001a 77747472 		.ascii	"wttrp\000"
 4120      7000
 4121              	.LASF102:
 4122 0020 7264796D 		.ascii	"rdymsg\000"
 4122      736700
 4123              	.LASF51:
 4124 0027 72666375 		.ascii	"rfcu\000"
 4124      00
 4125              	.LASF6:
 4126 002c 5F5F7569 		.ascii	"__uint8_t\000"
 4126      6E74385F 
 4126      7400
 4127              	.LASF144:
 4128 0036 433A5C50 		.ascii	"C:\\PROJET\\ChibiOS project\\ChibiOS_21.11.4\\demos"
 4128      524F4A45 
 4128      545C4368 
 4128      6962694F 
 4128      53207072 
 4129 0065 5C53544D 		.ascii	"\\STM32\\RT-STM32H743ZI_REV_XY-NUCLEO144\000"
 4129      33325C52 
 4129      542D5354 
 4129      4D333248 
 4129      3734335A 
 4130              	.LASF89:
 4131 008c 706F7274 		.ascii	"port_intctx\000"
 4131      5F696E74 
 4131      63747800 
 4132              	.LASF48:
 4133 0098 76746C69 		.ascii	"vtlist\000"
 4133      737400
 4134              	.LASF81:
 4135 009f 74797065 		.ascii	"type\000"
 4135      00
ARM GAS  C:\Users\DEVELO~1\AppData\Local\Temp\ccceJRvr.s 			page 74


 4136              	.LASF84:
 4137 00a4 74726163 		.ascii	"trace_event_t\000"
 4137      655F6576 
 4137      656E745F 
 4137      7400
 4138              	.LASF133:
 4139 00b2 63684D73 		.ascii	"chMsgReleaseS\000"
 4139      6752656C 
 4139      65617365 
 4139      5300
 4140              	.LASF103:
 4141 00c0 65786974 		.ascii	"exitcode\000"
 4141      636F6465 
 4141      00
 4142              	.LASF53:
 4143 00c9 6D61696E 		.ascii	"mainthread\000"
 4143      74687265 
 4143      616400
 4144              	.LASF105:
 4145 00d4 73656E74 		.ascii	"sentmsg\000"
 4145      6D736700 
 4146              	.LASF76:
 4147 00dc 64656C74 		.ascii	"delta\000"
 4147      6100
 4148              	.LASF67:
 4149 00e2 6E657874 		.ascii	"next\000"
 4149      00
 4150              	.LASF1:
 4151 00e7 6C6F6E67 		.ascii	"long long int\000"
 4151      206C6F6E 
 4151      6720696E 
 4151      7400
 4152              	.LASF3:
 4153 00f5 7369676E 		.ascii	"signed char\000"
 4153      65642063 
 4153      68617200 
 4154              	.LASF75:
 4155 0101 63685F64 		.ascii	"ch_delta_list\000"
 4155      656C7461 
 4155      5F6C6973 
 4155      7400
 4156              	.LASF14:
 4157 010f 6C6F6E67 		.ascii	"long long unsigned int\000"
 4157      206C6F6E 
 4157      6720756E 
 4157      7369676E 
 4157      65642069 
 4158              	.LASF139:
 4159 0126 62617365 		.ascii	"basePri\000"
 4159      50726900 
 4160              	.LASF35:
 4161 012e 73746174 		.ascii	"state\000"
 4161      6500
 4162              	.LASF10:
 4163 0134 6C6F6E67 		.ascii	"long int\000"
 4163      20696E74 
 4163      00
ARM GAS  C:\Users\DEVELO~1\AppData\Local\Temp\ccceJRvr.s 			page 75


 4164              	.LASF131:
 4165 013d 63684D73 		.ascii	"chMsgSend\000"
 4165      6753656E 
 4165      6400
 4166              	.LASF23:
 4167 0147 74737461 		.ascii	"tstate_t\000"
 4167      74655F74 
 4167      00
 4168              	.LASF56:
 4169 0150 63685F72 		.ascii	"ch_rfcu\000"
 4169      66637500 
 4170              	.LASF136:
 4171 0158 706F7274 		.ascii	"port_unlock\000"
 4171      5F756E6C 
 4171      6F636B00 
 4172              	.LASF69:
 4173 0164 63685F71 		.ascii	"ch_queue\000"
 4173      75657565 
 4173      00
 4174              	.LASF16:
 4175 016d 75696E74 		.ascii	"uint16_t\000"
 4175      31365F74 
 4175      00
 4176              	.LASF141:
 4177 0176 63685F71 		.ascii	"ch_queue_fifo_remove\000"
 4177      75657565 
 4177      5F666966 
 4177      6F5F7265 
 4177      6D6F7665 
 4178              	.LASF88:
 4179 018b 74726163 		.ascii	"trace_buffer_t\000"
 4179      655F6275 
 4179      66666572 
 4179      5F7400
 4180              	.LASF140:
 4181 019a 63684D73 		.ascii	"chMsgIsPendingI\000"
 4181      67497350 
 4181      656E6469 
 4181      6E674900 
 4182              	.LASF96:
 4183 01aa 63685F72 		.ascii	"ch_registry\000"
 4183      65676973 
 4183      74727900 
 4184              	.LASF11:
 4185 01b6 5F5F7569 		.ascii	"__uint32_t\000"
 4185      6E743332 
 4185      5F7400
 4186              	.LASF57:
 4187 01c1 6D61736B 		.ascii	"mask\000"
 4187      00
 4188              	.LASF38:
 4189 01c6 77616974 		.ascii	"waiting\000"
 4189      696E6700 
 4190              	.LASF115:
 4191 01ce 6D61696E 		.ascii	"mainthread_base\000"
 4191      74687265 
 4191      61645F62 
ARM GAS  C:\Users\DEVELO~1\AppData\Local\Temp\ccceJRvr.s 			page 76


 4191      61736500 
 4192              	.LASF120:
 4193 01de 6D757465 		.ascii	"mutex_t\000"
 4193      785F7400 
 4194              	.LASF64:
 4195 01e6 73797369 		.ascii	"sysinterval_t\000"
 4195      6E746572 
 4195      76616C5F 
 4195      7400
 4196              	.LASF28:
 4197 01f4 636E745F 		.ascii	"cnt_t\000"
 4197      7400
 4198              	.LASF39:
 4199 01fa 6D736771 		.ascii	"msgqueue\000"
 4199      75657565 
 4199      00
 4200              	.LASF0:
 4201 0203 756E7369 		.ascii	"unsigned int\000"
 4201      676E6564 
 4201      20696E74 
 4201      00
 4202              	.LASF117:
 4203 0210 69646C65 		.ascii	"idlethread_base\000"
 4203      74687265 
 4203      61645F62 
 4203      61736500 
 4204              	.LASF106:
 4205 0220 77747365 		.ascii	"wtsemp\000"
 4205      6D7000
 4206              	.LASF62:
 4207 0227 73797374 		.ascii	"system_debug_t\000"
 4207      656D5F64 
 4207      65627567 
 4207      5F7400
 4208              	.LASF12:
 4209 0236 6C6F6E67 		.ascii	"long unsigned int\000"
 4209      20756E73 
 4209      69676E65 
 4209      6420696E 
 4209      7400
 4210              	.LASF31:
 4211 0248 72717565 		.ascii	"rqueue\000"
 4211      756500
 4212              	.LASF68:
 4213 024f 63685F71 		.ascii	"ch_queue_t\000"
 4213      75657565 
 4213      5F7400
 4214              	.LASF129:
 4215 025a 74696D65 		.ascii	"timeout\000"
 4215      6F757400 
 4216              	.LASF142:
 4217 0262 474E5520 		.ascii	"GNU C17 11.3.1 20220712 -mcpu=cortex-m7 -mthumb -mf"
 4217      43313720 
 4217      31312E33 
 4217      2E312032 
 4217      30323230 
 4218 0295 6C6F6174 		.ascii	"loat-abi=soft -march=armv7e-m -ggdb -O2 -fomit-fram"
ARM GAS  C:\Users\DEVELO~1\AppData\Local\Temp\ccceJRvr.s 			page 77


 4218      2D616269 
 4218      3D736F66 
 4218      74202D6D 
 4218      61726368 
 4219 02c8 652D706F 		.ascii	"e-pointer -falign-functions=16 -ffunction-sections "
 4219      696E7465 
 4219      72202D66 
 4219      616C6967 
 4219      6E2D6675 
 4220 02fb 2D666461 		.ascii	"-fdata-sections -fno-common\000"
 4220      74612D73 
 4220      65637469 
 4220      6F6E7320 
 4220      2D666E6F 
 4221              	.LASF33:
 4222 0317 6E616D65 		.ascii	"name\000"
 4222      00
 4223              	.LASF97:
 4224 031c 71756575 		.ascii	"queue\000"
 4224      6500
 4225              	.LASF43:
 4226 0322 6D706F6F 		.ascii	"mpool\000"
 4226      6C00
 4227              	.LASF130:
 4228 0328 63684D73 		.ascii	"chMsgWaitS\000"
 4228      67576169 
 4228      745300
 4229              	.LASF86:
 4230 0333 73697A65 		.ascii	"size\000"
 4230      00
 4231              	.LASF8:
 4232 0338 73686F72 		.ascii	"short unsigned int\000"
 4232      7420756E 
 4232      7369676E 
 4232      65642069 
 4232      6E7400
 4233              	.LASF45:
 4234 034b 63685F74 		.ascii	"ch_thread\000"
 4234      68726561 
 4234      6400
 4235              	.LASF126:
 4236 0355 63757272 		.ascii	"currtp\000"
 4236      747000
 4237              	.LASF26:
 4238 035c 6D73675F 		.ascii	"msg_t\000"
 4238      7400
 4239              	.LASF40:
 4240 0362 6570656E 		.ascii	"epending\000"
 4240      64696E67 
 4240      00
 4241              	.LASF22:
 4242 036b 746D6F64 		.ascii	"tmode_t\000"
 4242      655F7400 
 4243              	.LASF66:
 4244 0373 63685F6C 		.ascii	"ch_list\000"
 4244      69737400 
 4245              	.LASF111:
ARM GAS  C:\Users\DEVELO~1\AppData\Local\Temp\ccceJRvr.s 			page 78


 4246 037b 63685F72 		.ascii	"ch_ready_list\000"
 4246      65616479 
 4246      5F6C6973 
 4246      7400
 4247              	.LASF27:
 4248 0389 6576656E 		.ascii	"eventmask_t\000"
 4248      746D6173 
 4248      6B5F7400 
 4249              	.LASF5:
 4250 0395 73686F72 		.ascii	"short int\000"
 4250      7420696E 
 4250      7400
 4251              	.LASF9:
 4252 039f 5F5F696E 		.ascii	"__int32_t\000"
 4252      7433325F 
 4252      7400
 4253              	.LASF95:
 4254 03a9 76697274 		.ascii	"virtual_timers_list_t\000"
 4254      75616C5F 
 4254      74696D65 
 4254      72735F6C 
 4254      6973745F 
 4255              	.LASF21:
 4256 03bf 73746B61 		.ascii	"stkalign_t\000"
 4256      6C69676E 
 4256      5F7400
 4257              	.LASF82:
 4258 03ca 72747374 		.ascii	"rtstamp\000"
 4258      616D7000 
 4259              	.LASF94:
 4260 03d2 6C617374 		.ascii	"laststamp\000"
 4260      7374616D 
 4260      7000
 4261              	.LASF42:
 4262 03dc 7265616C 		.ascii	"realprio\000"
 4262      7072696F 
 4262      00
 4263              	.LASF55:
 4264 03e5 72666375 		.ascii	"rfcu_mask_t\000"
 4264      5F6D6173 
 4264      6B5F7400 
 4265              	.LASF99:
 4266 03f1 74687265 		.ascii	"thread_reference_t\000"
 4266      61645F72 
 4266      65666572 
 4266      656E6365 
 4266      5F7400
 4267              	.LASF91:
 4268 0404 63685F76 		.ascii	"ch_virtual_timers_list\000"
 4268      69727475 
 4268      616C5F74 
 4268      696D6572 
 4268      735F6C69 
 4269              	.LASF138:
 4270 041b 5F5F7365 		.ascii	"__set_BASEPRI\000"
 4270      745F4241 
 4270      53455052 
ARM GAS  C:\Users\DEVELO~1\AppData\Local\Temp\ccceJRvr.s 			page 79


 4270      4900
 4271              	.LASF65:
 4272 0429 63685F6C 		.ascii	"ch_list_t\000"
 4272      6973745F 
 4272      7400
 4273              	.LASF85:
 4274 0433 73757370 		.ascii	"suspended\000"
 4274      656E6465 
 4274      6400
 4275              	.LASF19:
 4276 043d 75696E74 		.ascii	"uint64_t\000"
 4276      36345F74 
 4276      00
 4277              	.LASF114:
 4278 0446 63685F6F 		.ascii	"ch_os_instance_config\000"
 4278      735F696E 
 4278      7374616E 
 4278      63655F63 
 4278      6F6E6669 
 4279              	.LASF90:
 4280 045c 706F7274 		.ascii	"port_context\000"
 4280      5F636F6E 
 4280      74657874 
 4280      00
 4281              	.LASF83:
 4282 0469 74696D65 		.ascii	"time\000"
 4282      00
 4283              	.LASF73:
 4284 046e 7072696F 		.ascii	"prio\000"
 4284      00
 4285              	.LASF112:
 4286 0473 63757272 		.ascii	"current\000"
 4286      656E7400 
 4287              	.LASF13:
 4288 047b 5F5F7569 		.ascii	"__uint64_t\000"
 4288      6E743634 
 4288      5F7400
 4289              	.LASF29:
 4290 0486 636F7265 		.ascii	"core_id_t\000"
 4290      5F69645F 
 4290      7400
 4291              	.LASF24:
 4292 0490 74726566 		.ascii	"trefs_t\000"
 4292      735F7400 
 4293              	.LASF37:
 4294 0498 72656673 		.ascii	"refs\000"
 4294      00
 4295              	.LASF80:
 4296 049d 75736572 		.ascii	"user\000"
 4296      00
 4297              	.LASF25:
 4298 04a2 74707269 		.ascii	"tprio_t\000"
 4298      6F5F7400 
 4299              	.LASF59:
 4300 04aa 63685F73 		.ascii	"ch_system_debug\000"
 4300      79737465 
 4300      6D5F6465 
ARM GAS  C:\Users\DEVELO~1\AppData\Local\Temp\ccceJRvr.s 			page 80


 4300      62756700 
 4301              	.LASF121:
 4302 04ba 5F426F6F 		.ascii	"_Bool\000"
 4302      6C00
 4303              	.LASF17:
 4304 04c0 696E7433 		.ascii	"int32_t\000"
 4304      325F7400 
 4305              	.LASF4:
 4306 04c8 756E7369 		.ascii	"unsigned char\000"
 4306      676E6564 
 4306      20636861 
 4306      7200
 4307              	.LASF58:
 4308 04d6 72666375 		.ascii	"rfcu_t\000"
 4308      5F7400
 4309              	.LASF147:
 4310 04dd 63685F71 		.ascii	"ch_queue_insert\000"
 4310      75657565 
 4310      5F696E73 
 4310      65727400 
 4311              	.LASF124:
 4312 04ed 63685363 		.ascii	"chSchGoSleepTimeoutS\000"
 4312      68476F53 
 4312      6C656570 
 4312      54696D65 
 4312      6F757453 
 4313              	.LASF93:
 4314 0502 6C617374 		.ascii	"lasttime\000"
 4314      74696D65 
 4314      00
 4315              	.LASF79:
 4316 050b 68616C74 		.ascii	"halt\000"
 4316      00
 4317              	.LASF77:
 4318 0510 77746F62 		.ascii	"wtobjp\000"
 4318      6A7000
 4319              	.LASF108:
 4320 0517 65776D61 		.ascii	"ewmask\000"
 4320      736B00
 4321              	.LASF128:
 4322 051e 63684D73 		.ascii	"chMsgWaitTimeoutS\000"
 4322      67576169 
 4322      7454696D 
 4322      656F7574 
 4322      5300
 4323              	.LASF132:
 4324 0530 5F5F6675 		.ascii	"__func__\000"
 4324      6E635F5F 
 4324      00
 4325              	.LASF135:
 4326 0539 63685379 		.ascii	"chSysLock\000"
 4326      734C6F63 
 4326      6B00
 4327              	.LASF78:
 4328 0543 72656173 		.ascii	"reason\000"
 4328      6F6E00
 4329              	.LASF145:
ARM GAS  C:\Users\DEVELO~1\AppData\Local\Temp\ccceJRvr.s 			page 81


 4330 054a 63684D73 		.ascii	"chMsgRelease\000"
 4330      6752656C 
 4330      65617365 
 4330      00
 4331              	.LASF109:
 4332 0557 63685F73 		.ascii	"ch_semaphore\000"
 4332      656D6170 
 4332      686F7265 
 4332      00
 4333              	.LASF123:
 4334 0564 63685363 		.ascii	"chSchGoSleepS\000"
 4334      68476F53 
 4334      6C656570 
 4334      5300
 4335              	.LASF98:
 4336 0572 72656769 		.ascii	"registry_t\000"
 4336      73747279 
 4336      5F7400
 4337              	.LASF18:
 4338 057d 75696E74 		.ascii	"uint32_t\000"
 4338      33325F74 
 4338      00
 4339              	.LASF107:
 4340 0586 77746D74 		.ascii	"wtmtxp\000"
 4340      787000
 4341              	.LASF20:
 4342 058d 706F7274 		.ascii	"port_stkalign_t\000"
 4342      5F73746B 
 4342      616C6967 
 4342      6E5F7400 
 4343              	.LASF32:
 4344 059d 6F776E65 		.ascii	"owner\000"
 4344      7200
 4345              	.LASF2:
 4346 05a3 6C6F6E67 		.ascii	"long double\000"
 4346      20646F75 
 4346      626C6500 
 4347              	.LASF34:
 4348 05af 77616261 		.ascii	"wabase\000"
 4348      736500
 4349              	.LASF61:
 4350 05b6 63686172 		.ascii	"char\000"
 4350      00
 4351              	.LASF52:
 4352 05bb 636F6E66 		.ascii	"config\000"
 4352      696700
 4353              	.LASF7:
 4354 05c2 5F5F7569 		.ascii	"__uint16_t\000"
 4354      6E743136 
 4354      5F7400
 4355              	.LASF125:
 4356 05cd 63685363 		.ascii	"chSchReadyI\000"
 4356      68526561 
 4356      64794900 
 4357              	.LASF30:
 4358 05d9 74687265 		.ascii	"thread_t\000"
 4358      61645F74 
ARM GAS  C:\Users\DEVELO~1\AppData\Local\Temp\ccceJRvr.s 			page 82


 4358      00
 4359              	.LASF92:
 4360 05e2 646C6973 		.ascii	"dlist\000"
 4360      7400
 4361              	.LASF63:
 4362 05e8 73797374 		.ascii	"systime_t\000"
 4362      696D655F 
 4362      7400
 4363              	.LASF87:
 4364 05f2 62756666 		.ascii	"buffer\000"
 4364      657200
 4365              	.LASF71:
 4366 05f9 63685F70 		.ascii	"ch_priority_queue_t\000"
 4366      72696F72 
 4366      6974795F 
 4366      71756575 
 4366      655F7400 
 4367              	.LASF60:
 4368 060d 70616E69 		.ascii	"panic_msg\000"
 4368      635F6D73 
 4368      6700
 4369              	.LASF101:
 4370 0617 70717565 		.ascii	"pqueue\000"
 4370      756500
 4371              	.LASF46:
 4372 061e 63685F6F 		.ascii	"ch_os_instance\000"
 4372      735F696E 
 4372      7374616E 
 4372      636500
 4373              	.LASF44:
 4374 062d 6F735F69 		.ascii	"os_instance_t\000"
 4374      6E737461 
 4374      6E63655F 
 4374      7400
 4375              	.LASF49:
 4376 063b 7265676C 		.ascii	"reglist\000"
 4376      69737400 
 4377              	.LASF72:
 4378 0643 63685F70 		.ascii	"ch_priority_queue\000"
 4378      72696F72 
 4378      6974795F 
 4378      71756575 
 4378      6500
 4379              	.LASF127:
 4380 0655 63684D73 		.ascii	"chMsgPollS\000"
 4380      67506F6C 
 4380      6C5300
 4381              	.LASF74:
 4382 0660 63685F64 		.ascii	"ch_delta_list_t\000"
 4382      656C7461 
 4382      5F6C6973 
 4382      745F7400 
 4383              	.LASF116:
 4384 0670 6D61696E 		.ascii	"mainthread_end\000"
 4384      74687265 
 4384      61645F65 
 4384      6E6400
ARM GAS  C:\Users\DEVELO~1\AppData\Local\Temp\ccceJRvr.s 			page 83


 4385              	.LASF122:
 4386 067f 63685363 		.ascii	"chSchWakeupS\000"
 4386      6857616B 
 4386      65757053 
 4386      00
 4387              	.LASF119:
 4388 068c 6F735F69 		.ascii	"os_instance_config_t\000"
 4388      6E737461 
 4388      6E63655F 
 4388      636F6E66 
 4388      69675F74 
 4389              	.LASF47:
 4390 06a1 726C6973 		.ascii	"rlist\000"
 4390      7400
 4391              	.LASF146:
 4392 06a7 63685468 		.ascii	"chThdGetSelfX\000"
 4392      64476574 
 4392      53656C66 
 4392      5800
 4393              	.LASF15:
 4394 06b5 75696E74 		.ascii	"uint8_t\000"
 4394      385F7400 
 4395              	.LASF36:
 4396 06bd 666C6167 		.ascii	"flags\000"
 4396      7300
 4397              	.LASF110:
 4398 06c3 63685F6D 		.ascii	"ch_mutex\000"
 4398      75746578 
 4398      00
 4399              	.LASF54:
 4400 06cc 74726163 		.ascii	"trace_buffer\000"
 4400      655F6275 
 4400      66666572 
 4400      00
 4401              	.LASF134:
 4402 06d9 63685379 		.ascii	"chSysUnlock\000"
 4402      73556E6C 
 4402      6F636B00 
 4403              	.LASF143:
 4404 06e5 2E2E2F2E 		.ascii	"../../../os/rt/src/chmsg.c\000"
 4404      2E2F2E2E 
 4404      2F6F732F 
 4404      72742F73 
 4404      72632F63 
 4405              	.LASF100:
 4406 0700 6C697374 		.ascii	"list\000"
 4406      00
 4407              	.LASF137:
 4408 0705 706F7274 		.ascii	"port_lock\000"
 4408      5F6C6F63 
 4408      6B00
 4409              	.LASF118:
 4410 070f 69646C65 		.ascii	"idlethread_end\000"
 4410      74687265 
 4410      61645F65 
 4410      6E6400
 4411              	.LASF41:
ARM GAS  C:\Users\DEVELO~1\AppData\Local\Temp\ccceJRvr.s 			page 84


 4412 071e 6D74786C 		.ascii	"mtxlist\000"
 4412      69737400 
 4413              		.ident	"GCC: (Arm GNU Toolchain 11.3.Rel1) 11.3.1 20220712"
ARM GAS  C:\Users\DEVELO~1\AppData\Local\Temp\ccceJRvr.s 			page 85


DEFINED SYMBOLS
                            *ABS*:00000000 chmsg.c
C:\Users\DEVELO~1\AppData\Local\Temp\ccceJRvr.s:18     .text.chMsgSend:00000000 $t
C:\Users\DEVELO~1\AppData\Local\Temp\ccceJRvr.s:25     .text.chMsgSend:00000000 chMsgSend
C:\Users\DEVELO~1\AppData\Local\Temp\ccceJRvr.s:209    .text.chMsgSend:0000003c $d
C:\Users\DEVELO~1\AppData\Local\Temp\ccceJRvr.s:214    .text.chMsgWaitS:00000000 $t
C:\Users\DEVELO~1\AppData\Local\Temp\ccceJRvr.s:221    .text.chMsgWaitS:00000000 chMsgWaitS
C:\Users\DEVELO~1\AppData\Local\Temp\ccceJRvr.s:319    .text.chMsgWaitS:00000028 $d
C:\Users\DEVELO~1\AppData\Local\Temp\ccceJRvr.s:326    .text.chMsgWaitTimeoutS:00000000 $t
C:\Users\DEVELO~1\AppData\Local\Temp\ccceJRvr.s:333    .text.chMsgWaitTimeoutS:00000000 chMsgWaitTimeoutS
C:\Users\DEVELO~1\AppData\Local\Temp\ccceJRvr.s:451    .text.chMsgWaitTimeoutS:00000030 $d
C:\Users\DEVELO~1\AppData\Local\Temp\ccceJRvr.s:456    .text.chMsgPollS:00000000 $t
C:\Users\DEVELO~1\AppData\Local\Temp\ccceJRvr.s:463    .text.chMsgPollS:00000000 chMsgPollS
C:\Users\DEVELO~1\AppData\Local\Temp\ccceJRvr.s:541    .text.chMsgPollS:00000024 $d
C:\Users\DEVELO~1\AppData\Local\Temp\ccceJRvr.s:546    .text.chMsgRelease:00000000 $t
C:\Users\DEVELO~1\AppData\Local\Temp\ccceJRvr.s:553    .text.chMsgRelease:00000000 chMsgRelease

UNDEFINED SYMBOLS
chSchGoSleepS
chSchReadyI
ch0
chSchGoSleepTimeoutS
chSchWakeupS
