ARM GAS  C:\Users\DEVELO~1\AppData\Local\Temp\ccceJRvr.s 			page 1


   1              		.cpu cortex-m7
   2              		.arch armv7e-m
   3              		.fpu softvfp
   4              		.eabi_attribute 20, 1
   5              		.eabi_attribute 21, 1
   6              		.eabi_attribute 23, 3
   7              		.eabi_attribute 24, 1
   8              		.eabi_attribute 25, 1
   9              		.eabi_attribute 26, 1
  10              		.eabi_attribute 30, 2
  11              		.eabi_attribute 34, 1
  12              		.eabi_attribute 18, 4
  13              		.file	"chmsg.c"
  14              		.text
  15              	.Ltext0:
  16              		.cfi_sections	.debug_frame
  17              		.section	.text.chMsgSend,"ax",%progbits
  18              		.align	1
  19              		.p2align 4,,15
  20              		.global	chMsgSend
  21              		.syntax unified
  22              		.thumb
  23              		.thumb_func
  24              		.type	chMsgSend, %function
  25              	chMsgSend:
  26              	.LVL0:
  27              	.LFB346:
  28              		.file 1 "../../../os/rt/src/chmsg.c"
  29              		.loc 1 81 42 view -0
  30              		.cfi_startproc
  31              		@ args = 0, pretend = 0, frame = 0
  32              		@ frame_needed = 0, uses_anonymous_args = 0
  33              		.loc 1 82 3 view .LVU1
  34              	.LBB58:
  35              	.LBI58:
  36              		.file 2 "../../../os/rt/include/chthreads.h"
  37              		.loc 2 341 25 view .LVU2
  38              	.LBB59:
  39              		.loc 2 343 3 view .LVU3
  40              	.LBE59:
  41              	.LBE58:
  42              		.loc 1 81 42 is_stmt 0 view .LVU4
  43 0000 38B5     		push	{r3, r4, r5, lr}
  44              		.cfi_def_cfa_offset 16
  45              		.cfi_offset 3, -16
  46              		.cfi_offset 4, -12
  47              		.cfi_offset 5, -8
  48              		.cfi_offset 14, -4
  49              	.LBB62:
  50              	.LBB60:
  51              		.loc 2 343 10 view .LVU5
  52 0002 0E4C     		ldr	r4, .L6
  53              	.LBE60:
  54              	.LBE62:
  55              	.LBB63:
  56              	.LBB64:
  57              	.LBB65:
ARM GAS  C:\Users\DEVELO~1\AppData\Local\Temp\ccceJRvr.s 			page 2


  58              	.LBB66:
  59              		.file 3 "../../../os/common/ext/ARM/CMSIS/Core/Include/cmsis_gcc.h"
  60              		.loc 3 493 3 view .LVU6
  61 0004 3022     		movs	r2, #48
  62              	.LBE66:
  63              	.LBE65:
  64              	.LBE64:
  65              	.LBE63:
  66              	.LBB70:
  67              	.LBB61:
  68              		.loc 2 343 10 view .LVU7
  69 0006 E468     		ldr	r4, [r4, #12]
  70              	.LVL1:
  71              		.loc 2 343 10 view .LVU8
  72              	.LBE61:
  73              	.LBE70:
  74              		.loc 1 84 3 is_stmt 1 view .LVU9
  75              		.loc 1 84 3 view .LVU10
  76              		.loc 1 84 3 view .LVU11
  77              		.loc 1 86 3 view .LVU12
  78              	.LBB71:
  79              	.LBI63:
  80              		.file 4 "../../../os/rt/include/chsys.h"
  81              		.loc 4 407 20 view .LVU13
  82              		.loc 4 409 3 view .LVU14
  83              	.LBB69:
  84              	.LBI64:
  85              		.file 5 "../../../os/common/ports/ARMv7-M/chcore.h"
  86              		.loc 5 823 27 view .LVU15
  87              		.loc 5 831 3 view .LVU16
  88              	.LBB68:
  89              	.LBI65:
  90              		.loc 3 491 27 view .LVU17
  91              	.LBB67:
  92              		.loc 3 493 3 view .LVU18
  93              		.syntax unified
  94              	@ 493 "../../../os/common/ext/ARM/CMSIS/Core/Include/cmsis_gcc.h" 1
  95 0008 82F31188 		MSR basepri, r2
  96              	@ 0 "" 2
  97              	.LVL2:
  98              		.loc 3 493 3 is_stmt 0 view .LVU19
  99              		.thumb
 100              		.syntax unified
 101              	.LBE67:
 102              	.LBE68:
 103              	.LBE69:
 104              		.loc 4 410 35 is_stmt 1 view .LVU20
 105              		.loc 4 411 21 view .LVU21
 106              	.LBE71:
 107              		.loc 1 87 3 view .LVU22
 108              	.LBB72:
 109              	.LBB73:
 110              		.file 6 "../../../os/rt/include/chlists.h"
 111              		.loc 6 265 21 is_stmt 0 view .LVU23
 112 000c 426B     		ldr	r2, [r0, #52]
 113              	.LBE73:
 114              	.LBE72:
ARM GAS  C:\Users\DEVELO~1\AppData\Local\Temp\ccceJRvr.s 			page 3


 115              		.loc 1 88 3 view .LVU24
 116 000e 00F13005 		add	r5, r0, #48
 117              		.loc 1 87 21 view .LVU25
 118 0012 A162     		str	r1, [r4, #40]
 119              		.loc 1 88 3 is_stmt 1 view .LVU26
 120              	.LVL3:
 121              	.LBB76:
 122              	.LBI72:
 123              		.loc 6 262 20 view .LVU27
 124              	.LBB74:
 125              		.loc 6 264 3 view .LVU28
 126              		.loc 6 265 3 view .LVU29
 127              		.loc 6 264 17 is_stmt 0 view .LVU30
 128 0014 2560     		str	r5, [r4]
 129              		.loc 6 265 17 view .LVU31
 130 0016 6260     		str	r2, [r4, #4]
 131              		.loc 6 266 3 is_stmt 1 view .LVU32
 132              		.loc 6 266 17 is_stmt 0 view .LVU33
 133 0018 1460     		str	r4, [r2]
 134              		.loc 6 267 3 is_stmt 1 view .LVU34
 135              	.LBE74:
 136              	.LBE76:
 137              		.loc 1 89 6 is_stmt 0 view .LVU35
 138 001a 90F82420 		ldrb	r2, [r0, #36]	@ zero_extendqisi2
 139              	.LBB77:
 140              	.LBB75:
 141              		.loc 6 267 17 view .LVU36
 142 001e 4463     		str	r4, [r0, #52]
 143              	.LVL4:
 144              		.loc 6 267 17 view .LVU37
 145              	.LBE75:
 146              	.LBE77:
 147              		.loc 1 89 3 is_stmt 1 view .LVU38
 148              		.loc 1 89 6 is_stmt 0 view .LVU39
 149 0020 0E2A     		cmp	r2, #14
 150 0022 07D0     		beq	.L5
 151              	.LVL5:
 152              	.L2:
 153              		.loc 1 92 3 is_stmt 1 view .LVU40
 154 0024 0C20     		movs	r0, #12
 155 0026 FFF7FEFF 		bl	chSchGoSleepS
 156              	.LVL6:
 157              		.loc 1 93 3 view .LVU41
 158              		.loc 1 93 7 is_stmt 0 view .LVU42
 159 002a A06A     		ldr	r0, [r4, #40]
 160              	.LVL7:
 161              		.loc 1 94 3 is_stmt 1 view .LVU43
 162              	.LBB78:
 163              	.LBI78:
 164              		.loc 4 421 20 view .LVU44
 165              	.LBB79:
 166              		.loc 4 423 23 view .LVU45
 167              		.loc 4 424 34 view .LVU46
 168              		.loc 4 430 3 view .LVU47
 169              		.loc 4 430 3 view .LVU48
 170              		.loc 4 430 3 view .LVU49
 171              		.loc 4 434 3 view .LVU50
ARM GAS  C:\Users\DEVELO~1\AppData\Local\Temp\ccceJRvr.s 			page 4


 172              	.LBB80:
 173              	.LBI80:
 174              		.loc 5 847 27 view .LVU51
 175              		.loc 5 850 3 view .LVU52
 176              	.LBB81:
 177              	.LBI81:
 178              		.loc 3 491 27 view .LVU53
 179              	.LBB82:
 180              		.loc 3 493 3 view .LVU54
 181 002c 0023     		movs	r3, #0
 182              		.syntax unified
 183              	@ 493 "../../../os/common/ext/ARM/CMSIS/Core/Include/cmsis_gcc.h" 1
 184 002e 83F31188 		MSR basepri, r3
 185              	@ 0 "" 2
 186              	.LVL8:
 187              		.loc 3 493 3 is_stmt 0 view .LVU55
 188              		.thumb
 189              		.syntax unified
 190              	.LBE82:
 191              	.LBE81:
 192              	.LBE80:
 193              	.LBE79:
 194              	.LBE78:
 195              		.loc 1 96 3 is_stmt 1 view .LVU56
 196              		.loc 1 97 1 is_stmt 0 view .LVU57
 197 0032 38BD     		pop	{r3, r4, r5, pc}
 198              	.LVL9:
 199              	.L5:
 200              		.loc 1 90 5 is_stmt 1 view .LVU58
 201              		.loc 1 90 12 is_stmt 0 view .LVU59
 202 0034 FFF7FEFF 		bl	chSchReadyI
 203              	.LVL10:
 204              		.loc 1 90 12 view .LVU60
 205 0038 F4E7     		b	.L2
 206              	.L7:
 207 003a 00BF     		.align	2
 208              	.L6:
 209 003c 00000000 		.word	ch0
 210              		.cfi_endproc
 211              	.LFE346:
 212              		.size	chMsgSend, .-chMsgSend
 213              		.section	.text.chMsgWaitS,"ax",%progbits
 214              		.align	1
 215              		.p2align 4,,15
 216              		.global	chMsgWaitS
 217              		.syntax unified
 218              		.thumb
 219              		.thumb_func
 220              		.type	chMsgWaitS, %function
 221              	chMsgWaitS:
 222              	.LFB347:
 223              		.loc 1 115 28 is_stmt 1 view -0
 224              		.cfi_startproc
 225              		@ args = 0, pretend = 0, frame = 0
 226              		@ frame_needed = 0, uses_anonymous_args = 0
 227              		.loc 1 116 3 view .LVU62
 228              	.LBB83:
ARM GAS  C:\Users\DEVELO~1\AppData\Local\Temp\ccceJRvr.s 			page 5


 229              	.LBI83:
 230              		.loc 2 341 25 view .LVU63
 231              	.LBB84:
 232              		.loc 2 343 3 view .LVU64
 233              	.LBE84:
 234              	.LBE83:
 235              		.loc 1 115 28 is_stmt 0 view .LVU65
 236 0000 38B5     		push	{r3, r4, r5, lr}
 237              		.cfi_def_cfa_offset 16
 238              		.cfi_offset 3, -16
 239              		.cfi_offset 4, -12
 240              		.cfi_offset 5, -8
 241              		.cfi_offset 14, -4
 242              	.LBB86:
 243              	.LBB85:
 244              		.loc 2 343 10 view .LVU66
 245 0002 094B     		ldr	r3, .L12
 246 0004 DD68     		ldr	r5, [r3, #12]
 247              	.LVL11:
 248              		.loc 2 343 10 view .LVU67
 249              	.LBE85:
 250              	.LBE86:
 251              		.loc 1 117 3 is_stmt 1 view .LVU68
 252              		.loc 1 119 21 view .LVU69
 253              		.loc 1 121 3 view .LVU70
 254              	.LBB87:
 255              	.LBI87:
 256              		.file 7 "../../../os/rt/include/chmsg.h"
 257              		.loc 7 173 20 view .LVU71
 258              	.LBB88:
 259              		.loc 7 175 21 view .LVU72
 260              		.loc 7 177 3 view .LVU73
 261              		.loc 7 177 29 is_stmt 0 view .LVU74
 262 0006 2C46     		mov	r4, r5
 263 0008 54F8300F 		ldr	r0, [r4, #48]!
 264              	.LVL12:
 265              		.loc 7 177 29 view .LVU75
 266              	.LBE88:
 267              	.LBE87:
 268              		.loc 1 121 6 view .LVU76
 269 000c 8442     		cmp	r4, r0
 270 000e 06D0     		beq	.L11
 271              	.L9:
 272              		.loc 1 124 3 is_stmt 1 view .LVU77
 273              	.LVL13:
 274              	.LBB89:
 275              	.LBI89:
 276              		.loc 6 280 27 view .LVU78
 277              	.LBB90:
 278              		.loc 6 281 3 view .LVU79
 279              		.loc 6 283 3 view .LVU80
 280              		.loc 6 283 21 is_stmt 0 view .LVU81
 281 0010 0368     		ldr	r3, [r0]
 282              	.LBE90:
 283              	.LBE89:
 284              		.loc 1 125 13 view .LVU82
 285 0012 0D22     		movs	r2, #13
ARM GAS  C:\Users\DEVELO~1\AppData\Local\Temp\ccceJRvr.s 			page 6


 286              	.LBB93:
 287              	.LBB91:
 288              		.loc 6 283 18 view .LVU83
 289 0014 2B63     		str	r3, [r5, #48]
 290              	.LVL14:
 291              		.loc 6 284 3 is_stmt 1 view .LVU84
 292              		.loc 6 284 18 is_stmt 0 view .LVU85
 293 0016 5C60     		str	r4, [r3, #4]
 294              		.loc 6 286 3 is_stmt 1 view .LVU86
 295              	.LVL15:
 296              		.loc 6 286 3 is_stmt 0 view .LVU87
 297              	.LBE91:
 298              	.LBE93:
 299              		.loc 1 125 3 is_stmt 1 view .LVU88
 300              		.loc 1 125 13 is_stmt 0 view .LVU89
 301 0018 80F82420 		strb	r2, [r0, #36]
 302              		.loc 1 127 3 is_stmt 1 view .LVU90
 303              		.loc 1 128 1 is_stmt 0 view .LVU91
 304 001c 38BD     		pop	{r3, r4, r5, pc}
 305              	.LVL16:
 306              	.L11:
 307              		.loc 1 122 5 is_stmt 1 view .LVU92
 308 001e 0E20     		movs	r0, #14
 309 0020 FFF7FEFF 		bl	chSchGoSleepS
 310              	.LVL17:
 311              	.LBB94:
 312              	.LBB92:
 313              		.loc 6 281 15 is_stmt 0 view .LVU93
 314 0024 286B     		ldr	r0, [r5, #48]
 315 0026 F3E7     		b	.L9
 316              	.L13:
 317              		.align	2
 318              	.L12:
 319 0028 00000000 		.word	ch0
 320              	.LBE92:
 321              	.LBE94:
 322              		.cfi_endproc
 323              	.LFE347:
 324              		.size	chMsgWaitS, .-chMsgWaitS
 325              		.section	.text.chMsgWaitTimeoutS,"ax",%progbits
 326              		.align	1
 327              		.p2align 4,,15
 328              		.global	chMsgWaitTimeoutS
 329              		.syntax unified
 330              		.thumb
 331              		.thumb_func
 332              		.type	chMsgWaitTimeoutS, %function
 333              	chMsgWaitTimeoutS:
 334              	.LVL18:
 335              	.LFB348:
 336              		.loc 1 152 52 is_stmt 1 view -0
 337              		.cfi_startproc
 338              		@ args = 0, pretend = 0, frame = 0
 339              		@ frame_needed = 0, uses_anonymous_args = 0
 340              		.loc 1 153 3 view .LVU95
 341              	.LBB95:
 342              	.LBI95:
ARM GAS  C:\Users\DEVELO~1\AppData\Local\Temp\ccceJRvr.s 			page 7


 343              		.loc 2 341 25 view .LVU96
 344              	.LBB96:
 345              		.loc 2 343 3 view .LVU97
 346              	.LBE96:
 347              	.LBE95:
 348              		.loc 1 152 52 is_stmt 0 view .LVU98
 349 0000 38B5     		push	{r3, r4, r5, lr}
 350              		.cfi_def_cfa_offset 16
 351              		.cfi_offset 3, -16
 352              		.cfi_offset 4, -12
 353              		.cfi_offset 5, -8
 354              		.cfi_offset 14, -4
 355              	.LBB99:
 356              	.LBB97:
 357              		.loc 2 343 10 view .LVU99
 358 0002 0B4B     		ldr	r3, .L20
 359              	.LBE97:
 360              	.LBE99:
 361              		.loc 1 152 52 view .LVU100
 362 0004 0146     		mov	r1, r0
 363              	.LBB100:
 364              	.LBB98:
 365              		.loc 2 343 10 view .LVU101
 366 0006 DD68     		ldr	r5, [r3, #12]
 367              	.LVL19:
 368              		.loc 2 343 10 view .LVU102
 369              	.LBE98:
 370              	.LBE100:
 371              		.loc 1 154 3 is_stmt 1 view .LVU103
 372              		.loc 1 156 21 view .LVU104
 373              		.loc 1 158 3 view .LVU105
 374              	.LBB101:
 375              	.LBI101:
 376              		.loc 7 173 20 view .LVU106
 377              	.LBB102:
 378              		.loc 7 175 21 view .LVU107
 379              		.loc 7 177 3 view .LVU108
 380              		.loc 7 177 29 is_stmt 0 view .LVU109
 381 0008 2C46     		mov	r4, r5
 382 000a 54F8300F 		ldr	r0, [r4, #48]!
 383              	.LVL20:
 384              		.loc 7 177 29 view .LVU110
 385              	.LBE102:
 386              	.LBE101:
 387              		.loc 1 158 6 view .LVU111
 388 000e 8442     		cmp	r4, r0
 389 0010 06D0     		beq	.L19
 390              	.LVL21:
 391              	.L15:
 392              		.loc 1 163 3 is_stmt 1 view .LVU112
 393              	.LBB103:
 394              	.LBI103:
 395              		.loc 6 280 27 view .LVU113
 396              	.LBB104:
 397              		.loc 6 281 3 view .LVU114
 398              		.loc 6 283 3 view .LVU115
 399              		.loc 6 283 21 is_stmt 0 view .LVU116
ARM GAS  C:\Users\DEVELO~1\AppData\Local\Temp\ccceJRvr.s 			page 8


 400 0012 0368     		ldr	r3, [r0]
 401              	.LBE104:
 402              	.LBE103:
 403              		.loc 1 164 13 view .LVU117
 404 0014 0D22     		movs	r2, #13
 405              	.LBB107:
 406              	.LBB105:
 407              		.loc 6 283 18 view .LVU118
 408 0016 2B63     		str	r3, [r5, #48]
 409              	.LVL22:
 410              		.loc 6 284 3 is_stmt 1 view .LVU119
 411              		.loc 6 284 18 is_stmt 0 view .LVU120
 412 0018 5C60     		str	r4, [r3, #4]
 413              		.loc 6 286 3 is_stmt 1 view .LVU121
 414              	.LVL23:
 415              		.loc 6 286 3 is_stmt 0 view .LVU122
 416              	.LBE105:
 417              	.LBE107:
 418              		.loc 1 164 3 is_stmt 1 view .LVU123
 419              		.loc 1 164 13 is_stmt 0 view .LVU124
 420 001a 80F82420 		strb	r2, [r0, #36]
 421              		.loc 1 166 3 is_stmt 1 view .LVU125
 422              		.loc 1 167 1 is_stmt 0 view .LVU126
 423 001e 38BD     		pop	{r3, r4, r5, pc}
 424              	.LVL24:
 425              	.L19:
 426              		.loc 1 159 5 is_stmt 1 view .LVU127
 427              		.loc 1 159 9 is_stmt 0 view .LVU128
 428 0020 0E20     		movs	r0, #14
 429 0022 FFF7FEFF 		bl	chSchGoSleepTimeoutS
 430              	.LVL25:
 431              		.loc 1 159 8 view .LVU129
 432 0026 08B9     		cbnz	r0, .L17
 433              	.LBB108:
 434              	.LBB106:
 435              		.loc 6 281 15 view .LVU130
 436 0028 286B     		ldr	r0, [r5, #48]
 437 002a F2E7     		b	.L15
 438              	.L17:
 439              		.loc 6 281 15 view .LVU131
 440              	.LBE106:
 441              	.LBE108:
 442              		.loc 1 160 14 view .LVU132
 443 002c 0020     		movs	r0, #0
 444              		.loc 1 167 1 view .LVU133
 445 002e 38BD     		pop	{r3, r4, r5, pc}
 446              	.LVL26:
 447              	.L21:
 448              		.loc 1 167 1 view .LVU134
 449              		.align	2
 450              	.L20:
 451 0030 00000000 		.word	ch0
 452              		.cfi_endproc
 453              	.LFE348:
 454              		.size	chMsgWaitTimeoutS, .-chMsgWaitTimeoutS
 455              		.section	.text.chMsgPollS,"ax",%progbits
 456              		.align	1
ARM GAS  C:\Users\DEVELO~1\AppData\Local\Temp\ccceJRvr.s 			page 9


 457              		.p2align 4,,15
 458              		.global	chMsgPollS
 459              		.syntax unified
 460              		.thumb
 461              		.thumb_func
 462              		.type	chMsgPollS, %function
 463              	chMsgPollS:
 464              	.LFB349:
 465              		.loc 1 186 28 is_stmt 1 view -0
 466              		.cfi_startproc
 467              		@ args = 0, pretend = 0, frame = 0
 468              		@ frame_needed = 0, uses_anonymous_args = 0
 469              		@ link register save eliminated.
 470              		.loc 1 187 3 view .LVU136
 471              	.LBB109:
 472              	.LBI109:
 473              		.loc 2 341 25 view .LVU137
 474              	.LBB110:
 475              		.loc 2 343 3 view .LVU138
 476              		.loc 2 343 10 is_stmt 0 view .LVU139
 477 0000 084B     		ldr	r3, .L25
 478 0002 DA68     		ldr	r2, [r3, #12]
 479              	.LVL27:
 480              		.loc 2 343 10 view .LVU140
 481              	.LBE110:
 482              	.LBE109:
 483              		.loc 1 188 3 is_stmt 1 view .LVU141
 484              		.loc 1 190 3 view .LVU142
 485              	.LBB111:
 486              	.LBI111:
 487              		.loc 7 173 20 view .LVU143
 488              	.LBB112:
 489              		.loc 7 175 21 view .LVU144
 490              		.loc 7 177 3 view .LVU145
 491              		.loc 7 177 29 is_stmt 0 view .LVU146
 492 0004 1346     		mov	r3, r2
 493 0006 53F8300F 		ldr	r0, [r3, #48]!
 494              	.LVL28:
 495              		.loc 7 177 29 view .LVU147
 496              	.LBE112:
 497              	.LBE111:
 498              		.loc 1 190 6 view .LVU148
 499 000a 8342     		cmp	r3, r0
 500 000c 07D0     		beq	.L24
 501              		.loc 1 191 5 is_stmt 1 view .LVU149
 502              	.LVL29:
 503              	.LBB113:
 504              	.LBI113:
 505              		.loc 6 280 27 view .LVU150
 506              	.LBB114:
 507              		.loc 6 281 3 view .LVU151
 508              		.loc 6 283 3 view .LVU152
 509              		.loc 6 283 21 is_stmt 0 view .LVU153
 510 000e 0168     		ldr	r1, [r0]
 511              	.LBE114:
 512              	.LBE113:
 513              		.loc 1 192 15 view .LVU154
ARM GAS  C:\Users\DEVELO~1\AppData\Local\Temp\ccceJRvr.s 			page 10


 514 0010 4FF00D0C 		mov	ip, #13
 515              	.LBB116:
 516              	.LBB115:
 517              		.loc 6 283 18 view .LVU155
 518 0014 1163     		str	r1, [r2, #48]
 519              		.loc 6 284 3 is_stmt 1 view .LVU156
 520              		.loc 6 284 18 is_stmt 0 view .LVU157
 521 0016 4B60     		str	r3, [r1, #4]
 522              		.loc 6 286 3 is_stmt 1 view .LVU158
 523              	.LVL30:
 524              		.loc 6 286 3 is_stmt 0 view .LVU159
 525              	.LBE115:
 526              	.LBE116:
 527              		.loc 1 192 5 is_stmt 1 view .LVU160
 528              		.loc 1 192 15 is_stmt 0 view .LVU161
 529 0018 80F824C0 		strb	ip, [r0, #36]
 530 001c 7047     		bx	lr
 531              	.LVL31:
 532              	.L24:
 533              		.loc 1 188 13 view .LVU162
 534 001e 0020     		movs	r0, #0
 535              		.loc 1 195 3 is_stmt 1 view .LVU163
 536              		.loc 1 196 1 is_stmt 0 view .LVU164
 537 0020 7047     		bx	lr
 538              	.L26:
 539 0022 00BF     		.align	2
 540              	.L25:
 541 0024 00000000 		.word	ch0
 542              		.cfi_endproc
 543              	.LFE349:
 544              		.size	chMsgPollS, .-chMsgPollS
 545              		.section	.text.chMsgRelease,"ax",%progbits
 546              		.align	1
 547              		.p2align 4,,15
 548              		.global	chMsgRelease
 549              		.syntax unified
 550              		.thumb
 551              		.thumb_func
 552              		.type	chMsgRelease, %function
 553              	chMsgRelease:
 554              	.LVL32:
 555              	.LFB350:
 556              		.loc 1 208 44 is_stmt 1 view -0
 557              		.cfi_startproc
 558              		@ args = 0, pretend = 0, frame = 0
 559              		@ frame_needed = 0, uses_anonymous_args = 0
 560              		.loc 1 210 3 view .LVU166
 561              	.LBB117:
 562              	.LBI117:
 563              		.loc 4 407 20 view .LVU167
 564              		.loc 4 409 3 view .LVU168
 565              	.LBB118:
 566              	.LBI118:
 567              		.loc 5 823 27 view .LVU169
 568              		.loc 5 831 3 view .LVU170
 569              	.LBB119:
 570              	.LBI119:
ARM GAS  C:\Users\DEVELO~1\AppData\Local\Temp\ccceJRvr.s 			page 11


 571              		.loc 3 491 27 view .LVU171
 572              	.LBB120:
 573              		.loc 3 493 3 view .LVU172
 574              	.LBE120:
 575              	.LBE119:
 576              	.LBE118:
 577              	.LBE117:
 578              		.loc 1 208 44 is_stmt 0 view .LVU173
 579 0000 08B5     		push	{r3, lr}
 580              		.cfi_def_cfa_offset 8
 581              		.cfi_offset 3, -8
 582              		.cfi_offset 14, -4
 583              	.LBB124:
 584              	.LBB123:
 585              	.LBB122:
 586              	.LBB121:
 587              		.loc 3 493 3 view .LVU174
 588 0002 3023     		movs	r3, #48
 589              		.syntax unified
 590              	@ 493 "../../../os/common/ext/ARM/CMSIS/Core/Include/cmsis_gcc.h" 1
 591 0004 83F31188 		MSR basepri, r3
 592              	@ 0 "" 2
 593              	.LVL33:
 594              		.loc 3 493 3 view .LVU175
 595              		.thumb
 596              		.syntax unified
 597              	.LBE121:
 598              	.LBE122:
 599              	.LBE123:
 600              		.loc 4 410 35 is_stmt 1 view .LVU176
 601              		.loc 4 411 21 view .LVU177
 602              	.LBE124:
 603              		.loc 1 211 3 view .LVU178
 604              		.loc 1 211 3 view .LVU179
 605              		.loc 1 211 3 view .LVU180
 606              		.loc 1 212 3 view .LVU181
 607              	.LBB125:
 608              	.LBI125:
 609              		.loc 7 207 20 view .LVU182
 610              	.LBB126:
 611              		.loc 7 209 21 view .LVU183
 612              		.loc 7 211 3 view .LVU184
 613 0008 FFF7FEFF 		bl	chSchWakeupS
 614              	.LVL34:
 615              		.loc 7 211 3 is_stmt 0 view .LVU185
 616              	.LBE126:
 617              	.LBE125:
 618              		.loc 1 213 3 is_stmt 1 view .LVU186
 619              	.LBB127:
 620              	.LBI127:
 621              		.loc 4 421 20 view .LVU187
 622              	.LBB128:
 623              		.loc 4 423 23 view .LVU188
 624              		.loc 4 424 34 view .LVU189
 625              		.loc 4 430 3 view .LVU190
 626              		.loc 4 430 3 view .LVU191
 627              		.loc 4 430 3 view .LVU192
ARM GAS  C:\Users\DEVELO~1\AppData\Local\Temp\ccceJRvr.s 			page 12


 628              		.loc 4 434 3 view .LVU193
 629              	.LBB129:
 630              	.LBI129:
 631              		.loc 5 847 27 view .LVU194
 632              		.loc 5 850 3 view .LVU195
 633              	.LBB130:
 634              	.LBI130:
 635              		.loc 3 491 27 view .LVU196
 636              	.LBB131:
 637              		.loc 3 493 3 view .LVU197
 638 000c 0023     		movs	r3, #0
 639              		.syntax unified
 640              	@ 493 "../../../os/common/ext/ARM/CMSIS/Core/Include/cmsis_gcc.h" 1
 641 000e 83F31188 		MSR basepri, r3
 642              	@ 0 "" 2
 643              	.LVL35:
 644              		.loc 3 493 3 is_stmt 0 view .LVU198
 645              		.thumb
 646              		.syntax unified
 647              	.LBE131:
 648              	.LBE130:
 649              	.LBE129:
 650              	.LBE128:
 651              	.LBE127:
 652              		.loc 1 214 1 view .LVU199
 653 0012 08BD     		pop	{r3, pc}
 654              		.cfi_endproc
 655              	.LFE350:
 656              		.size	chMsgRelease, .-chMsgRelease
 657              		.text
 658              	.Letext0:
 659              		.file 8 "c:\\chibistudio\\tools\\gnu tools arm embedded\\11.3 2022.08\\arm-none-eabi\\include\\mac
 660              		.file 9 "c:\\chibistudio\\tools\\gnu tools arm embedded\\11.3 2022.08\\arm-none-eabi\\include\\sys
 661              		.file 10 "../../../os/common/ports/ARM-common/chtypes.h"
 662              		.file 11 "../../../os/rt/include/chearly.h"
 663              		.file 12 "../../../os/rt/include/chobjects.h"
 664              		.file 13 "../../../os/rt/include/chrfcu.h"
 665              		.file 14 "../../../os/rt/include/chdebug.h"
 666              		.file 15 "../../../os/rt/include/chtime.h"
 667              		.file 16 "../../../os/rt/include/chtrace.h"
 668              		.file 17 "../../../os/rt/include/chsem.h"
 669              		.file 18 "../../../os/rt/include/chmtx.h"
 670              		.file 19 "../../../os/rt/include/chschd.h"