ARM GAS  C:\Users\DEVELO~1\AppData\Local\Temp\ccXwYvnb.s 			page 1


   1              		.cpu cortex-m7
   2              		.arch armv7e-m
   3              		.fpu softvfp
   4              		.eabi_attribute 20, 1
   5              		.eabi_attribute 21, 1
   6              		.eabi_attribute 23, 3
   7              		.eabi_attribute 24, 1
   8              		.eabi_attribute 25, 1
   9              		.eabi_attribute 26, 1
  10              		.eabi_attribute 30, 2
  11              		.eabi_attribute 34, 1
  12              		.eabi_attribute 18, 4
  13              		.file	"chmtx.c"
  14              		.text
  15              	.Ltext0:
  16              		.cfi_sections	.debug_frame
  17              		.section	.text.chMtxObjectInit,"ax",%progbits
  18              		.align	1
  19              		.p2align 4,,15
  20              		.global	chMtxObjectInit
  21              		.syntax unified
  22              		.thumb
  23              		.thumb_func
  24              		.type	chMtxObjectInit, %function
  25              	chMtxObjectInit:
  26              	.LVL0:
  27              	.LFB346:
  28              		.file 1 "../../../os/rt/src/chmtx.c"
  29              		.loc 1 103 35 view -0
  30              		.cfi_startproc
  31              		@ args = 0, pretend = 0, frame = 0
  32              		@ frame_needed = 0, uses_anonymous_args = 0
  33              		@ link register save eliminated.
  34              		.loc 1 105 3 view .LVU1
  35              		.loc 1 105 3 view .LVU2
  36              		.loc 1 105 3 view .LVU3
  37              		.loc 1 107 3 view .LVU4
  38              		.loc 1 108 13 is_stmt 0 view .LVU5
  39 0000 0023     		movs	r3, #0
  40              	.LVL1:
  41              	.LBB109:
  42              	.LBI109:
  43              		.file 2 "../../../os/rt/include/chlists.h"
  44              		.loc 2 222 20 is_stmt 1 view .LVU6
  45              	.LBB110:
  46              		.loc 2 224 3 view .LVU7
  47              		.loc 2 225 12 is_stmt 0 view .LVU8
  48 0002 C0E90000 		strd	r0, r0, [r0]
  49              	.LVL2:
  50              		.loc 2 225 12 view .LVU9
  51              	.LBE110:
  52              	.LBE109:
  53              		.loc 1 108 3 is_stmt 1 view .LVU10
  54              		.loc 1 108 13 is_stmt 0 view .LVU11
  55 0006 8360     		str	r3, [r0, #8]
  56              		.loc 1 112 1 view .LVU12
  57 0008 7047     		bx	lr
ARM GAS  C:\Users\DEVELO~1\AppData\Local\Temp\ccXwYvnb.s 			page 2


  58              		.cfi_endproc
  59              	.LFE346:
  60              		.size	chMtxObjectInit, .-chMtxObjectInit
  61 000a 00BF     		.section	.text.chMtxLockS,"ax",%progbits
  62              		.align	1
  63              		.p2align 4,,15
  64              		.global	chMtxLockS
  65              		.syntax unified
  66              		.thumb
  67              		.thumb_func
  68              		.type	chMtxLockS, %function
  69              	chMtxLockS:
  70              	.LVL3:
  71              	.LFB348:
  72              		.loc 1 139 30 is_stmt 1 view -0
  73              		.cfi_startproc
  74              		@ args = 0, pretend = 0, frame = 0
  75              		@ frame_needed = 0, uses_anonymous_args = 0
  76              		.loc 1 140 3 view .LVU14
  77              	.LBB126:
  78              	.LBI126:
  79              		.file 3 "../../../os/rt/include/chthreads.h"
  80              		.loc 3 341 25 view .LVU15
  81              	.LBB127:
  82              		.loc 3 343 3 view .LVU16
  83              	.LBE127:
  84              	.LBE126:
  85              		.loc 1 139 30 is_stmt 0 view .LVU17
  86 0000 70B5     		push	{r4, r5, r6, lr}
  87              		.cfi_def_cfa_offset 16
  88              		.cfi_offset 4, -16
  89              		.cfi_offset 5, -12
  90              		.cfi_offset 6, -8
  91              		.cfi_offset 14, -4
  92              	.LBB130:
  93              	.LBB128:
  94              		.loc 3 343 10 view .LVU18
  95 0002 2F4B     		ldr	r3, .L30
  96              	.LBE128:
  97              	.LBE130:
  98              		.loc 1 139 30 view .LVU19
  99 0004 0446     		mov	r4, r0
 100              		.loc 1 146 9 view .LVU20
 101 0006 8068     		ldr	r0, [r0, #8]
 102              	.LVL4:
 103              	.LBB131:
 104              	.LBB129:
 105              		.loc 3 343 10 view .LVU21
 106 0008 DD68     		ldr	r5, [r3, #12]
 107              	.LVL5:
 108              		.loc 3 343 10 view .LVU22
 109              	.LBE129:
 110              	.LBE131:
 111              		.loc 1 142 21 is_stmt 1 view .LVU23
 112              		.loc 1 143 3 view .LVU24
 113              		.loc 1 143 3 view .LVU25
 114              		.loc 1 143 3 view .LVU26
ARM GAS  C:\Users\DEVELO~1\AppData\Local\Temp\ccXwYvnb.s 			page 3


 115              		.loc 1 146 3 view .LVU27
 116              		.loc 1 146 6 is_stmt 0 view .LVU28
 117 000a 30B3     		cbz	r0, .L25
 118              	.LVL6:
 119              	.LBB132:
 120              		.loc 1 165 34 is_stmt 1 view .LVU29
 121              		.loc 1 165 54 is_stmt 0 view .LVU30
 122 000c AA68     		ldr	r2, [r5, #8]
 123              		.loc 1 165 34 view .LVU31
 124 000e 8368     		ldr	r3, [r0, #8]
 125 0010 9342     		cmp	r3, r2
 126 0012 07D2     		bcs	.L9
 127              	.L12:
 128              		.loc 1 167 9 is_stmt 1 view .LVU32
 129              		.loc 1 170 19 is_stmt 0 view .LVU33
 130 0014 90F82430 		ldrb	r3, [r0, #36]	@ zero_extendqisi2
 131              		.loc 1 167 29 view .LVU34
 132 0018 8260     		str	r2, [r0, #8]
 133              		.loc 1 170 9 is_stmt 1 view .LVU35
 134 001a 062B     		cmp	r3, #6
 135 001c 36D0     		beq	.L6
 136              		.loc 1 170 9 is_stmt 0 view .LVU36
 137 001e 072B     		cmp	r3, #7
 138 0020 20D0     		beq	.L7
 139 0022 9BB1     		cbz	r3, .L26
 140              	.LVL7:
 141              	.L9:
 142              		.loc 1 214 7 is_stmt 1 view .LVU37
 143              	.LBB133:
 144              	.LBI133:
 145              		.file 4 "../../../os/rt/include/chschd.h"
 146              		.loc 4 175 20 view .LVU38
 147              	.LBB134:
 148              		.loc 4 177 3 view .LVU39
 149              		.loc 4 177 15 is_stmt 0 view .LVU40
 150 0024 2346     		mov	r3, r4
 151 0026 03E0     		b	.L17
 152              	.LVL8:
 153              	.L27:
 154              		.loc 4 180 23 view .LVU41
 155 0028 9968     		ldr	r1, [r3, #8]
 156 002a AA68     		ldr	r2, [r5, #8]
 157 002c 9142     		cmp	r1, r2
 158 002e 02D3     		bcc	.L16
 159              	.L17:
 160              		.loc 4 178 3 is_stmt 1 view .LVU42
 161              		.loc 4 179 5 view .LVU43
 162              		.loc 4 179 8 is_stmt 0 view .LVU44
 163 0030 1B68     		ldr	r3, [r3]
 164              	.LVL9:
 165              		.loc 4 180 23 is_stmt 1 view .LVU45
 166 0032 9C42     		cmp	r4, r3
 167 0034 F8D1     		bne	.L27
 168              	.L16:
 169              		.loc 4 182 3 view .LVU46
 170              		.loc 4 183 22 is_stmt 0 view .LVU47
 171 0036 5A68     		ldr	r2, [r3, #4]
ARM GAS  C:\Users\DEVELO~1\AppData\Local\Temp\ccXwYvnb.s 			page 4


 172              	.LBE134:
 173              	.LBE133:
 174              		.loc 1 216 7 view .LVU48
 175 0038 0620     		movs	r0, #6
 176              	.LBB136:
 177              	.LBB135:
 178              		.loc 4 182 18 view .LVU49
 179 003a 2B60     		str	r3, [r5]
 180              		.loc 4 183 3 is_stmt 1 view .LVU50
 181              		.loc 4 183 18 is_stmt 0 view .LVU51
 182 003c 6A60     		str	r2, [r5, #4]
 183              		.loc 4 184 3 is_stmt 1 view .LVU52
 184              		.loc 4 184 18 is_stmt 0 view .LVU53
 185 003e 1560     		str	r5, [r2]
 186              		.loc 4 185 3 is_stmt 1 view .LVU54
 187              		.loc 4 185 18 is_stmt 0 view .LVU55
 188 0040 5D60     		str	r5, [r3, #4]
 189              	.LVL10:
 190              		.loc 4 185 18 view .LVU56
 191              	.LBE135:
 192              	.LBE136:
 193              		.loc 1 215 7 is_stmt 1 view .LVU57
 194              		.loc 1 215 24 is_stmt 0 view .LVU58
 195 0042 AC62     		str	r4, [r5, #40]
 196              		.loc 1 216 7 is_stmt 1 view .LVU59
 197              	.LBE132:
 198              		.loc 1 238 1 is_stmt 0 view .LVU60
 199 0044 BDE87040 		pop	{r4, r5, r6, lr}
 200              		.cfi_remember_state
 201              		.cfi_restore 14
 202              		.cfi_restore 6
 203              		.cfi_restore 5
 204              		.cfi_restore 4
 205              		.cfi_def_cfa_offset 0
 206              	.LVL11:
 207              	.LBB147:
 208              		.loc 1 216 7 view .LVU61
 209 0048 FFF7FEBF 		b	chSchGoSleepS
 210              	.LVL12:
 211              	.L26:
 212              		.cfi_restore_state
 213              		.loc 1 204 11 is_stmt 1 view .LVU62
 214              	.LBB137:
 215              	.LBI137:
 216              		.loc 2 318 27 view .LVU63
 217              	.LBB138:
 218              		.loc 2 320 3 view .LVU64
 219              		.loc 2 320 20 is_stmt 0 view .LVU65
 220 004c D0E90032 		ldrd	r3, r2, [r0]
 221              		.loc 2 320 17 view .LVU66
 222 0050 1360     		str	r3, [r2]
 223              		.loc 2 321 3 is_stmt 1 view .LVU67
 224              		.loc 2 321 17 is_stmt 0 view .LVU68
 225 0052 5A60     		str	r2, [r3, #4]
 226              		.loc 2 323 3 is_stmt 1 view .LVU69
 227              	.LVL13:
 228              		.loc 2 323 3 is_stmt 0 view .LVU70
ARM GAS  C:\Users\DEVELO~1\AppData\Local\Temp\ccXwYvnb.s 			page 5


 229              	.LBE138:
 230              	.LBE137:
 231              		.loc 1 204 18 view .LVU71
 232 0054 FFF7FEFF 		bl	chSchReadyI
 233              	.LVL14:
 234              		.loc 1 205 11 is_stmt 1 view .LVU72
 235 0058 E4E7     		b	.L9
 236              	.L25:
 237              		.loc 1 205 11 is_stmt 0 view .LVU73
 238              	.LBE147:
 239              		.loc 1 234 5 is_stmt 1 view .LVU74
 240              		.loc 1 235 14 is_stmt 0 view .LVU75
 241 005a EB6B     		ldr	r3, [r5, #60]
 242 005c C4E90253 		strd	r5, r3, [r4, #8]
 243              		.loc 1 236 5 is_stmt 1 view .LVU76
 244              		.loc 1 236 21 is_stmt 0 view .LVU77
 245 0060 EC63     		str	r4, [r5, #60]
 246              		.loc 1 238 1 view .LVU78
 247 0062 70BD     		pop	{r4, r5, r6, pc}
 248              	.LVL15:
 249              	.L7:
 250              	.LBB148:
 251              		.loc 1 194 11 is_stmt 1 view .LVU79
 252 0064 866A     		ldr	r6, [r0, #40]
 253              	.LVL16:
 254              	.LBB139:
 255              	.LBI139:
 256              		.loc 2 318 27 view .LVU80
 257              	.LBB140:
 258              		.loc 2 320 3 view .LVU81
 259              		.loc 2 320 20 is_stmt 0 view .LVU82
 260 0066 D0E90032 		ldrd	r3, r2, [r0]
 261              		.loc 2 320 17 view .LVU83
 262 006a 1360     		str	r3, [r2]
 263              		.loc 2 321 3 is_stmt 1 view .LVU84
 264              		.loc 2 321 17 is_stmt 0 view .LVU85
 265 006c 5A60     		str	r2, [r3, #4]
 266              		.loc 2 323 3 is_stmt 1 view .LVU86
 267              	.LVL17:
 268              		.loc 2 323 3 is_stmt 0 view .LVU87
 269              	.LBE140:
 270              	.LBE139:
 271              	.LBB141:
 272              	.LBI141:
 273              		.loc 4 175 20 is_stmt 1 view .LVU88
 274              	.LBB142:
 275              		.loc 4 177 3 view .LVU89
 276              		.loc 4 177 15 is_stmt 0 view .LVU90
 277 006e 3346     		mov	r3, r6
 278 0070 03E0     		b	.L14
 279              	.LVL18:
 280              	.L28:
 281              		.loc 4 180 23 view .LVU91
 282 0072 9968     		ldr	r1, [r3, #8]
 283 0074 8268     		ldr	r2, [r0, #8]
 284 0076 9142     		cmp	r1, r2
 285 0078 02D3     		bcc	.L13
ARM GAS  C:\Users\DEVELO~1\AppData\Local\Temp\ccXwYvnb.s 			page 6


 286              	.L14:
 287              		.loc 4 178 3 is_stmt 1 view .LVU92
 288              		.loc 4 179 5 view .LVU93
 289              		.loc 4 179 8 is_stmt 0 view .LVU94
 290 007a 1B68     		ldr	r3, [r3]
 291              	.LVL19:
 292              		.loc 4 180 23 is_stmt 1 view .LVU95
 293 007c 9E42     		cmp	r6, r3
 294 007e F8D1     		bne	.L28
 295              	.L13:
 296              		.loc 4 182 3 view .LVU96
 297              		.loc 4 183 22 is_stmt 0 view .LVU97
 298 0080 5A68     		ldr	r2, [r3, #4]
 299              		.loc 4 183 18 view .LVU98
 300 0082 C0E90032 		strd	r3, r2, [r0]
 301              		.loc 4 184 3 is_stmt 1 view .LVU99
 302              		.loc 4 184 18 is_stmt 0 view .LVU100
 303 0086 1060     		str	r0, [r2]
 304              		.loc 4 185 3 is_stmt 1 view .LVU101
 305              		.loc 4 185 18 is_stmt 0 view .LVU102
 306 0088 5860     		str	r0, [r3, #4]
 307              		.loc 4 186 1 view .LVU103
 308 008a CBE7     		b	.L9
 309              	.LVL20:
 310              	.L6:
 311              		.loc 4 186 1 view .LVU104
 312              	.LBE142:
 313              	.LBE141:
 314              		.loc 1 173 11 is_stmt 1 discriminator 1 view .LVU105
 315              		.loc 1 173 36 is_stmt 0 discriminator 1 view .LVU106
 316 008c 866A     		ldr	r6, [r0, #40]
 317              	.LVL21:
 318              	.LBB143:
 319              	.LBI143:
 320              		.loc 2 318 27 is_stmt 1 discriminator 1 view .LVU107
 321              	.LBB144:
 322              		.loc 2 320 3 discriminator 1 view .LVU108
 323              		.loc 2 320 20 is_stmt 0 discriminator 1 view .LVU109
 324 008e D0E90032 		ldrd	r3, r2, [r0]
 325              		.loc 2 320 17 discriminator 1 view .LVU110
 326 0092 1360     		str	r3, [r2]
 327              		.loc 2 321 3 is_stmt 1 discriminator 1 view .LVU111
 328              		.loc 2 321 17 is_stmt 0 discriminator 1 view .LVU112
 329 0094 5A60     		str	r2, [r3, #4]
 330              		.loc 2 323 3 is_stmt 1 discriminator 1 view .LVU113
 331              	.LVL22:
 332              		.loc 2 323 3 is_stmt 0 discriminator 1 view .LVU114
 333              	.LBE144:
 334              	.LBE143:
 335              	.LBB145:
 336              	.LBI145:
 337              		.loc 4 175 20 is_stmt 1 discriminator 1 view .LVU115
 338              	.LBB146:
 339              		.loc 4 177 3 discriminator 1 view .LVU116
 340              		.loc 4 177 15 is_stmt 0 discriminator 1 view .LVU117
 341 0096 3346     		mov	r3, r6
 342 0098 03E0     		b	.L11
ARM GAS  C:\Users\DEVELO~1\AppData\Local\Temp\ccXwYvnb.s 			page 7


 343              	.LVL23:
 344              	.L29:
 345              		.loc 4 180 23 view .LVU118
 346 009a 9968     		ldr	r1, [r3, #8]
 347 009c 8268     		ldr	r2, [r0, #8]
 348 009e 9142     		cmp	r1, r2
 349 00a0 02D3     		bcc	.L10
 350              	.L11:
 351              		.loc 4 178 3 is_stmt 1 view .LVU119
 352              		.loc 4 179 5 view .LVU120
 353              		.loc 4 179 8 is_stmt 0 view .LVU121
 354 00a2 1B68     		ldr	r3, [r3]
 355              	.LVL24:
 356              		.loc 4 180 23 is_stmt 1 view .LVU122
 357 00a4 9E42     		cmp	r6, r3
 358 00a6 F8D1     		bne	.L29
 359              	.L10:
 360              		.loc 4 182 3 view .LVU123
 361              		.loc 4 183 22 is_stmt 0 view .LVU124
 362 00a8 5A68     		ldr	r2, [r3, #4]
 363              		.loc 4 182 18 view .LVU125
 364 00aa 0360     		str	r3, [r0]
 365              		.loc 4 183 3 is_stmt 1 view .LVU126
 366              		.loc 4 183 18 is_stmt 0 view .LVU127
 367 00ac 4260     		str	r2, [r0, #4]
 368              		.loc 4 184 3 is_stmt 1 view .LVU128
 369              		.loc 4 184 18 is_stmt 0 view .LVU129
 370 00ae 1060     		str	r0, [r2]
 371              		.loc 4 185 3 is_stmt 1 view .LVU130
 372              		.loc 4 185 18 is_stmt 0 view .LVU131
 373 00b0 5860     		str	r0, [r3, #4]
 374              	.LVL25:
 375              		.loc 4 185 18 view .LVU132
 376              	.LBE146:
 377              	.LBE145:
 378              		.loc 1 175 11 is_stmt 1 view .LVU133
 379              		.loc 1 175 14 is_stmt 0 view .LVU134
 380 00b2 B068     		ldr	r0, [r6, #8]
 381              	.LVL26:
 382              		.loc 1 177 11 is_stmt 1 view .LVU135
 383              		.loc 1 165 34 view .LVU136
 384              		.loc 1 165 54 is_stmt 0 view .LVU137
 385 00b4 AA68     		ldr	r2, [r5, #8]
 386              		.loc 1 165 34 view .LVU138
 387 00b6 8368     		ldr	r3, [r0, #8]
 388 00b8 9342     		cmp	r3, r2
 389 00ba ABD3     		bcc	.L12
 390 00bc B2E7     		b	.L9
 391              	.L31:
 392 00be 00BF     		.align	2
 393              	.L30:
 394 00c0 00000000 		.word	ch0
 395              	.LBE148:
 396              		.cfi_endproc
 397              	.LFE348:
 398              		.size	chMtxLockS, .-chMtxLockS
 399              		.section	.text.chMtxLock,"ax",%progbits
ARM GAS  C:\Users\DEVELO~1\AppData\Local\Temp\ccXwYvnb.s 			page 8


 400              		.align	1
 401              		.p2align 4,,15
 402              		.global	chMtxLock
 403              		.syntax unified
 404              		.thumb
 405              		.thumb_func
 406              		.type	chMtxLock, %function
 407              	chMtxLock:
 408              	.LVL27:
 409              	.LFB347:
 410              		.loc 1 123 29 is_stmt 1 view -0
 411              		.cfi_startproc
 412              		@ args = 0, pretend = 0, frame = 0
 413              		@ frame_needed = 0, uses_anonymous_args = 0
 414              		.loc 1 125 3 view .LVU140
 415              	.LBB149:
 416              	.LBI149:
 417              		.file 5 "../../../os/rt/include/chsys.h"
 418              		.loc 5 407 20 view .LVU141
 419              		.loc 5 409 3 view .LVU142
 420              	.LBB150:
 421              	.LBI150:
 422              		.file 6 "../../../os/common/ports/ARMv7-M/chcore.h"
 423              		.loc 6 823 27 view .LVU143
 424              		.loc 6 831 3 view .LVU144
 425              	.LBB151:
 426              	.LBI151:
 427              		.file 7 "../../../os/common/ext/ARM/CMSIS/Core/Include/cmsis_gcc.h"
 428              		.loc 7 491 27 view .LVU145
 429              	.LBB152:
 430              		.loc 7 493 3 view .LVU146
 431              	.LBE152:
 432              	.LBE151:
 433              	.LBE150:
 434              	.LBE149:
 435              		.loc 1 123 29 is_stmt 0 view .LVU147
 436 0000 08B5     		push	{r3, lr}
 437              		.cfi_def_cfa_offset 8
 438              		.cfi_offset 3, -8
 439              		.cfi_offset 14, -4
 440              	.LBB156:
 441              	.LBB155:
 442              	.LBB154:
 443              	.LBB153:
 444              		.loc 7 493 3 view .LVU148
 445 0002 3023     		movs	r3, #48
 446              		.syntax unified
 447              	@ 493 "../../../os/common/ext/ARM/CMSIS/Core/Include/cmsis_gcc.h" 1
 448 0004 83F31188 		MSR basepri, r3
 449              	@ 0 "" 2
 450              	.LVL28:
 451              		.loc 7 493 3 view .LVU149
 452              		.thumb
 453              		.syntax unified
 454              	.LBE153:
 455              	.LBE154:
 456              	.LBE155:
ARM GAS  C:\Users\DEVELO~1\AppData\Local\Temp\ccXwYvnb.s 			page 9


 457              		.loc 5 410 35 is_stmt 1 view .LVU150
 458              		.loc 5 411 21 view .LVU151
 459              	.LBE156:
 460              		.loc 1 126 3 view .LVU152
 461 0008 FFF7FEFF 		bl	chMtxLockS
 462              	.LVL29:
 463              		.loc 1 127 3 view .LVU153
 464              	.LBB157:
 465              	.LBI157:
 466              		.loc 5 421 20 view .LVU154
 467              	.LBB158:
 468              		.loc 5 423 23 view .LVU155
 469              		.loc 5 424 34 view .LVU156
 470              		.loc 5 430 3 view .LVU157
 471              		.loc 5 430 3 view .LVU158
 472              		.loc 5 430 3 view .LVU159
 473              		.loc 5 434 3 view .LVU160
 474              	.LBB159:
 475              	.LBI159:
 476              		.loc 6 847 27 view .LVU161
 477              		.loc 6 850 3 view .LVU162
 478              	.LBB160:
 479              	.LBI160:
 480              		.loc 7 491 27 view .LVU163
 481              	.LBB161:
 482              		.loc 7 493 3 view .LVU164
 483 000c 0023     		movs	r3, #0
 484              		.syntax unified
 485              	@ 493 "../../../os/common/ext/ARM/CMSIS/Core/Include/cmsis_gcc.h" 1
 486 000e 83F31188 		MSR basepri, r3
 487              	@ 0 "" 2
 488              	.LVL30:
 489              		.loc 7 493 3 is_stmt 0 view .LVU165
 490              		.thumb
 491              		.syntax unified
 492              	.LBE161:
 493              	.LBE160:
 494              	.LBE159:
 495              	.LBE158:
 496              	.LBE157:
 497              		.loc 1 128 1 view .LVU166
 498 0012 08BD     		pop	{r3, pc}
 499              		.cfi_endproc
 500              	.LFE347:
 501              		.size	chMtxLock, .-chMtxLock
 502              		.section	.text.chMtxTryLock,"ax",%progbits
 503              		.align	1
 504              		.p2align 4,,15
 505              		.global	chMtxTryLock
 506              		.syntax unified
 507              		.thumb
 508              		.thumb_func
 509              		.type	chMtxTryLock, %function
 510              	chMtxTryLock:
 511              	.LVL31:
 512              	.LFB349:
 513              		.loc 1 257 32 is_stmt 1 view -0
ARM GAS  C:\Users\DEVELO~1\AppData\Local\Temp\ccXwYvnb.s 			page 10


 514              		.cfi_startproc
 515              		@ args = 0, pretend = 0, frame = 0
 516              		@ frame_needed = 0, uses_anonymous_args = 0
 517              		@ link register save eliminated.
 518              		.loc 1 258 3 view .LVU168
 519              		.loc 1 260 3 view .LVU169
 520              	.LBB162:
 521              	.LBI162:
 522              		.loc 5 407 20 view .LVU170
 523              		.loc 5 409 3 view .LVU171
 524              	.LBB163:
 525              	.LBI163:
 526              		.loc 6 823 27 view .LVU172
 527              		.loc 6 831 3 view .LVU173
 528              	.LBB164:
 529              	.LBI164:
 530              		.loc 7 491 27 view .LVU174
 531              	.LBB165:
 532              		.loc 7 493 3 view .LVU175
 533 0000 3022     		movs	r2, #48
 534              	.LBE165:
 535              	.LBE164:
 536              	.LBE163:
 537              	.LBE162:
 538              		.loc 1 257 32 is_stmt 0 view .LVU176
 539 0002 0346     		mov	r3, r0
 540              	.LBB169:
 541              	.LBB168:
 542              	.LBB167:
 543              	.LBB166:
 544              		.loc 7 493 3 view .LVU177
 545              		.syntax unified
 546              	@ 493 "../../../os/common/ext/ARM/CMSIS/Core/Include/cmsis_gcc.h" 1
 547 0004 82F31188 		MSR basepri, r2
 548              	@ 0 "" 2
 549              	.LVL32:
 550              		.loc 7 493 3 view .LVU178
 551              		.thumb
 552              		.syntax unified
 553              	.LBE166:
 554              	.LBE167:
 555              	.LBE168:
 556              		.loc 5 410 35 is_stmt 1 view .LVU179
 557              		.loc 5 411 21 view .LVU180
 558              	.LBE169:
 559              		.loc 1 261 3 view .LVU181
 560              	.LBB170:
 561              	.LBI170:
 562              		.loc 1 284 6 view .LVU182
 563              	.LBB171:
 564              		.loc 1 285 3 view .LVU183
 565              	.LBB172:
 566              	.LBI172:
 567              		.loc 3 341 25 view .LVU184
 568              	.LBB173:
 569              		.loc 3 343 3 view .LVU185
 570              		.loc 3 343 3 is_stmt 0 view .LVU186
ARM GAS  C:\Users\DEVELO~1\AppData\Local\Temp\ccXwYvnb.s 			page 11


 571              	.LBE173:
 572              	.LBE172:
 573              		.loc 1 287 21 is_stmt 1 view .LVU187
 574              		.loc 1 288 3 view .LVU188
 575              		.loc 1 288 3 view .LVU189
 576              		.loc 1 288 3 view .LVU190
 577              		.loc 1 290 3 view .LVU191
 578              		.loc 1 290 6 is_stmt 0 view .LVU192
 579 0008 8268     		ldr	r2, [r0, #8]
 580 000a 22B1     		cbz	r2, .L37
 581              		.loc 1 300 12 view .LVU193
 582 000c 0020     		movs	r0, #0
 583              	.LVL33:
 584              		.loc 1 300 12 view .LVU194
 585              	.LBE171:
 586              	.LBE170:
 587              		.loc 1 262 3 is_stmt 1 view .LVU195
 588              	.LBB179:
 589              	.LBI179:
 590              		.loc 5 421 20 view .LVU196
 591              	.LBB180:
 592              		.loc 5 423 23 view .LVU197
 593              		.loc 5 424 34 view .LVU198
 594              		.loc 5 430 3 view .LVU199
 595              		.loc 5 430 3 view .LVU200
 596              		.loc 5 430 3 view .LVU201
 597              		.loc 5 434 3 view .LVU202
 598              	.LBB181:
 599              	.LBI181:
 600              		.loc 6 847 27 view .LVU203
 601              		.loc 6 850 3 view .LVU204
 602              	.LBB182:
 603              	.LBI182:
 604              		.loc 7 491 27 view .LVU205
 605              	.LBB183:
 606              		.loc 7 493 3 view .LVU206
 607 000e 0023     		movs	r3, #0
 608              	.LVL34:
 609              		.loc 7 493 3 is_stmt 0 view .LVU207
 610              		.syntax unified
 611              	@ 493 "../../../os/common/ext/ARM/CMSIS/Core/Include/cmsis_gcc.h" 1
 612 0010 83F31188 		MSR basepri, r3
 613              	@ 0 "" 2
 614              	.LVL35:
 615              		.loc 7 493 3 view .LVU208
 616              		.thumb
 617              		.syntax unified
 618              	.LBE183:
 619              	.LBE182:
 620              	.LBE181:
 621              	.LBE180:
 622              	.LBE179:
 623              		.loc 1 264 3 is_stmt 1 view .LVU209
 624              		.loc 1 265 1 is_stmt 0 view .LVU210
 625 0014 7047     		bx	lr
 626              	.LVL36:
 627              	.L37:
ARM GAS  C:\Users\DEVELO~1\AppData\Local\Temp\ccXwYvnb.s 			page 12


 628              	.LBB188:
 629              	.LBB178:
 630              	.LBB176:
 631              	.LBB174:
 632              		.loc 3 343 10 view .LVU211
 633 0016 054A     		ldr	r2, .L38
 634              	.LBE174:
 635              	.LBE176:
 636              		.loc 1 311 10 view .LVU212
 637 0018 0120     		movs	r0, #1
 638              	.LVL37:
 639              	.LBB177:
 640              	.LBB175:
 641              		.loc 3 343 10 view .LVU213
 642 001a D268     		ldr	r2, [r2, #12]
 643              	.LBE175:
 644              	.LBE177:
 645              		.loc 1 308 3 is_stmt 1 view .LVU214
 646              		.loc 1 309 12 is_stmt 0 view .LVU215
 647 001c D16B     		ldr	r1, [r2, #60]
 648 001e C3E90221 		strd	r2, r1, [r3, #8]
 649              		.loc 1 310 3 is_stmt 1 view .LVU216
 650              		.loc 1 310 19 is_stmt 0 view .LVU217
 651 0022 D363     		str	r3, [r2, #60]
 652              		.loc 1 311 3 is_stmt 1 view .LVU218
 653              	.LVL38:
 654              		.loc 1 311 3 is_stmt 0 view .LVU219
 655              	.LBE178:
 656              	.LBE188:
 657              		.loc 1 262 3 is_stmt 1 view .LVU220
 658              	.LBB189:
 659              		.loc 5 421 20 view .LVU221
 660              	.LBB187:
 661              		.loc 5 423 23 view .LVU222
 662              		.loc 5 424 34 view .LVU223
 663              		.loc 5 430 3 view .LVU224
 664              		.loc 5 430 3 view .LVU225
 665              		.loc 5 430 3 view .LVU226
 666              		.loc 5 434 3 view .LVU227
 667              	.LBB186:
 668              		.loc 6 847 27 view .LVU228
 669              		.loc 6 850 3 view .LVU229
 670              	.LBB185:
 671              		.loc 7 491 27 view .LVU230
 672              	.LBB184:
 673              		.loc 7 493 3 view .LVU231
 674 0024 0023     		movs	r3, #0
 675              	.LVL39:
 676              		.loc 7 493 3 is_stmt 0 view .LVU232
 677              		.syntax unified
 678              	@ 493 "../../../os/common/ext/ARM/CMSIS/Core/Include/cmsis_gcc.h" 1
 679 0026 83F31188 		MSR basepri, r3
 680              	@ 0 "" 2
 681              	.LVL40:
 682              		.loc 7 493 3 view .LVU233
 683              		.thumb
 684              		.syntax unified
ARM GAS  C:\Users\DEVELO~1\AppData\Local\Temp\ccXwYvnb.s 			page 13


 685              	.LBE184:
 686              	.LBE185:
 687              	.LBE186:
 688              	.LBE187:
 689              	.LBE189:
 690              		.loc 1 264 3 is_stmt 1 view .LVU234
 691              		.loc 1 265 1 is_stmt 0 view .LVU235
 692 002a 7047     		bx	lr
 693              	.L39:
 694              		.align	2
 695              	.L38:
 696 002c 00000000 		.word	ch0
 697              		.cfi_endproc
 698              	.LFE349:
 699              		.size	chMtxTryLock, .-chMtxTryLock
 700              		.section	.text.chMtxTryLockS,"ax",%progbits
 701              		.align	1
 702              		.p2align 4,,15
 703              		.global	chMtxTryLockS
 704              		.syntax unified
 705              		.thumb
 706              		.thumb_func
 707              		.type	chMtxTryLockS, %function
 708              	chMtxTryLockS:
 709              	.LVL41:
 710              	.LFB350:
 711              		.loc 1 284 33 is_stmt 1 view -0
 712              		.cfi_startproc
 713              		@ args = 0, pretend = 0, frame = 0
 714              		@ frame_needed = 0, uses_anonymous_args = 0
 715              		@ link register save eliminated.
 716              		.loc 1 285 3 view .LVU237
 717              	.LBB190:
 718              	.LBI190:
 719              		.loc 3 341 25 view .LVU238
 720              	.LBB191:
 721              		.loc 3 343 3 view .LVU239
 722              		.loc 3 343 3 is_stmt 0 view .LVU240
 723              	.LBE191:
 724              	.LBE190:
 725              		.loc 1 287 21 is_stmt 1 view .LVU241
 726              		.loc 1 288 3 view .LVU242
 727              		.loc 1 288 3 view .LVU243
 728              		.loc 1 288 3 view .LVU244
 729              		.loc 1 290 3 view .LVU245
 730              		.loc 1 290 6 is_stmt 0 view .LVU246
 731 0000 8268     		ldr	r2, [r0, #8]
 732              		.loc 1 284 33 view .LVU247
 733 0002 0346     		mov	r3, r0
 734              		.loc 1 290 6 view .LVU248
 735 0004 0AB1     		cbz	r2, .L43
 736              		.loc 1 300 12 view .LVU249
 737 0006 0020     		movs	r0, #0
 738              	.LVL42:
 739              		.loc 1 312 1 view .LVU250
 740 0008 7047     		bx	lr
 741              	.LVL43:
ARM GAS  C:\Users\DEVELO~1\AppData\Local\Temp\ccXwYvnb.s 			page 14


 742              	.L43:
 743              	.LBB194:
 744              	.LBB192:
 745              		.loc 3 343 10 view .LVU251
 746 000a 044A     		ldr	r2, .L44
 747              	.LBE192:
 748              	.LBE194:
 749              		.loc 1 311 10 view .LVU252
 750 000c 0120     		movs	r0, #1
 751              	.LVL44:
 752              	.LBB195:
 753              	.LBB193:
 754              		.loc 3 343 10 view .LVU253
 755 000e D268     		ldr	r2, [r2, #12]
 756              	.LBE193:
 757              	.LBE195:
 758              		.loc 1 308 3 is_stmt 1 view .LVU254
 759              		.loc 1 309 12 is_stmt 0 view .LVU255
 760 0010 D16B     		ldr	r1, [r2, #60]
 761 0012 C3E90221 		strd	r2, r1, [r3, #8]
 762              		.loc 1 310 3 is_stmt 1 view .LVU256
 763              		.loc 1 310 19 is_stmt 0 view .LVU257
 764 0016 D363     		str	r3, [r2, #60]
 765              		.loc 1 311 3 is_stmt 1 view .LVU258
 766              		.loc 1 311 10 is_stmt 0 view .LVU259
 767 0018 7047     		bx	lr
 768              	.L45:
 769 001a 00BF     		.align	2
 770              	.L44:
 771 001c 00000000 		.word	ch0
 772              		.cfi_endproc
 773              	.LFE350:
 774              		.size	chMtxTryLockS, .-chMtxTryLockS
 775              		.section	.text.chMtxUnlock,"ax",%progbits
 776              		.align	1
 777              		.p2align 4,,15
 778              		.global	chMtxUnlock
 779              		.syntax unified
 780              		.thumb
 781              		.thumb_func
 782              		.type	chMtxUnlock, %function
 783              	chMtxUnlock:
 784              	.LVL45:
 785              	.LFB351:
 786              		.loc 1 326 31 is_stmt 1 view -0
 787              		.cfi_startproc
 788              		@ args = 0, pretend = 0, frame = 0
 789              		@ frame_needed = 0, uses_anonymous_args = 0
 790              		.loc 1 327 3 view .LVU261
 791              	.LBB196:
 792              	.LBI196:
 793              		.loc 3 341 25 view .LVU262
 794              	.LBB197:
 795              		.loc 3 343 3 view .LVU263
 796              		.loc 3 343 10 is_stmt 0 view .LVU264
 797 0000 174A     		ldr	r2, .L57
 798              	.LBE197:
ARM GAS  C:\Users\DEVELO~1\AppData\Local\Temp\ccXwYvnb.s 			page 15


 799              	.LBE196:
 800              	.LBB199:
 801              	.LBB200:
 802              	.LBB201:
 803              	.LBB202:
 804              		.loc 7 493 3 view .LVU265
 805 0002 3023     		movs	r3, #48
 806              	.LBE202:
 807              	.LBE201:
 808              	.LBE200:
 809              	.LBE199:
 810              		.loc 1 326 31 view .LVU266
 811 0004 10B5     		push	{r4, lr}
 812              		.cfi_def_cfa_offset 8
 813              		.cfi_offset 4, -8
 814              		.cfi_offset 14, -4
 815              	.LBB206:
 816              	.LBB198:
 817              		.loc 3 343 10 view .LVU267
 818 0006 D468     		ldr	r4, [r2, #12]
 819              	.LVL46:
 820              		.loc 3 343 10 view .LVU268
 821              	.LBE198:
 822              	.LBE206:
 823              		.loc 1 328 3 is_stmt 1 view .LVU269
 824              		.loc 1 330 3 view .LVU270
 825              		.loc 1 330 3 view .LVU271
 826              		.loc 1 330 3 view .LVU272
 827              		.loc 1 332 3 view .LVU273
 828              	.LBB207:
 829              	.LBI199:
 830              		.loc 5 407 20 view .LVU274
 831              		.loc 5 409 3 view .LVU275
 832              	.LBB205:
 833              	.LBI200:
 834              		.loc 6 823 27 view .LVU276
 835              		.loc 6 831 3 view .LVU277
 836              	.LBB204:
 837              	.LBI201:
 838              		.loc 7 491 27 view .LVU278
 839              	.LBB203:
 840              		.loc 7 493 3 view .LVU279
 841              		.syntax unified
 842              	@ 493 "../../../os/common/ext/ARM/CMSIS/Core/Include/cmsis_gcc.h" 1
 843 0008 83F31188 		MSR basepri, r3
 844              	@ 0 "" 2
 845              	.LVL47:
 846              		.loc 7 493 3 is_stmt 0 view .LVU280
 847              		.thumb
 848              		.syntax unified
 849              	.LBE203:
 850              	.LBE204:
 851              	.LBE205:
 852              		.loc 5 410 35 is_stmt 1 view .LVU281
 853              		.loc 5 411 21 view .LVU282
 854              	.LBE207:
 855              		.loc 1 334 3 view .LVU283
ARM GAS  C:\Users\DEVELO~1\AppData\Local\Temp\ccXwYvnb.s 			page 16


 856              		.loc 1 334 3 view .LVU284
 857              		.loc 1 334 3 view .LVU285
 858              		.loc 1 335 3 view .LVU286
 859              		.loc 1 335 3 view .LVU287
 860              		.loc 1 335 3 view .LVU288
 861              		.loc 1 342 5 view .LVU289
 862              		.loc 1 342 5 view .LVU290
 863              		.loc 1 342 5 view .LVU291
 864              		.loc 1 347 5 view .LVU292
 865              		.loc 1 350 8 is_stmt 0 view .LVU293
 866 000c 0268     		ldr	r2, [r0]
 867              		.loc 1 347 25 view .LVU294
 868 000e C368     		ldr	r3, [r0, #12]
 869              		.loc 1 350 8 view .LVU295
 870 0010 8242     		cmp	r2, r0
 871              		.loc 1 347 21 view .LVU296
 872 0012 E363     		str	r3, [r4, #60]
 873              		.loc 1 350 5 is_stmt 1 view .LVU297
 874              	.LVL48:
 875              	.LBB208:
 876              	.LBI208:
 877              		.file 8 "../../../os/rt/include/chmtx.h"
 878              		.loc 8 128 20 view .LVU298
 879              	.LBB209:
 880              		.loc 8 130 21 view .LVU299
 881              		.loc 8 132 3 view .LVU300
 882              	.LBB210:
 883              	.LBI210:
 884              		.loc 2 249 20 view .LVU301
 885              	.LBB211:
 886              		.loc 2 251 3 view .LVU302
 887              		.loc 2 251 3 is_stmt 0 view .LVU303
 888              	.LBE211:
 889              	.LBE210:
 890              	.LBE209:
 891              	.LBE208:
 892              		.loc 1 350 8 view .LVU304
 893 0014 1DD0     		beq	.L47
 894              	.LBB212:
 895              		.loc 1 351 7 is_stmt 1 view .LVU305
 896              		.loc 1 355 7 view .LVU306
 897 0016 0146     		mov	r1, r0
 898              		.loc 1 355 15 is_stmt 0 view .LVU307
 899 0018 206C     		ldr	r0, [r4, #64]
 900              	.LVL49:
 901              		.loc 1 356 7 is_stmt 1 view .LVU308
 902              		.loc 1 357 7 view .LVU309
 903              		.loc 1 357 18 view .LVU310
 904 001a 4BB1     		cbz	r3, .L48
 905              	.L50:
 906              		.loc 1 361 9 view .LVU311
 907              	.LVL50:
 908              	.LBB213:
 909              	.LBI213:
 910              		.loc 8 128 20 view .LVU312
 911              	.LBB214:
 912              		.loc 8 130 21 view .LVU313
ARM GAS  C:\Users\DEVELO~1\AppData\Local\Temp\ccXwYvnb.s 			page 17


 913              		.loc 8 132 3 view .LVU314
 914              	.LBB215:
 915              	.LBI215:
 916              		.loc 2 249 20 view .LVU315
 917              	.LBB216:
 918              		.loc 2 251 3 view .LVU316
 919              		.loc 2 251 19 is_stmt 0 view .LVU317
 920 001c 1A68     		ldr	r2, [r3]
 921              	.LVL51:
 922              		.loc 2 251 19 view .LVU318
 923              	.LBE216:
 924              	.LBE215:
 925              	.LBE214:
 926              	.LBE213:
 927              		.loc 1 361 12 view .LVU319
 928 001e 9342     		cmp	r3, r2
 929 0020 03D0     		beq	.L49
 930              		.loc 1 361 12 view .LVU320
 931 0022 9268     		ldr	r2, [r2, #8]
 932 0024 9042     		cmp	r0, r2
 933 0026 38BF     		it	cc
 934 0028 1046     		movcc	r0, r2
 935              	.LVL52:
 936              	.L49:
 937              		.loc 1 365 9 is_stmt 1 view .LVU321
 938              		.loc 1 365 13 is_stmt 0 view .LVU322
 939 002a DB68     		ldr	r3, [r3, #12]
 940              	.LVL53:
 941              		.loc 1 357 18 is_stmt 1 view .LVU323
 942 002c 002B     		cmp	r3, #0
 943 002e F5D1     		bne	.L50
 944              	.L48:
 945              		.loc 1 370 7 view .LVU324
 946              		.loc 1 370 31 is_stmt 0 view .LVU325
 947 0030 A060     		str	r0, [r4, #8]
 948              		.loc 1 377 7 is_stmt 1 view .LVU326
 949              	.LVL54:
 950              	.LBB217:
 951              	.LBI217:
 952              		.loc 2 280 27 view .LVU327
 953              	.LBB218:
 954              		.loc 2 281 3 view .LVU328
 955              		.loc 2 281 15 is_stmt 0 view .LVU329
 956 0032 0868     		ldr	r0, [r1]
 957              	.LVL55:
 958              		.loc 2 283 3 is_stmt 1 view .LVU330
 959              	.LBE218:
 960              	.LBE217:
 961              		.loc 1 379 16 is_stmt 0 view .LVU331
 962 0034 C26B     		ldr	r2, [r0, #60]
 963              	.LBB220:
 964              	.LBB219:
 965              		.loc 2 283 21 view .LVU332
 966 0036 0368     		ldr	r3, [r0]
 967              	.LVL56:
 968              		.loc 2 283 18 view .LVU333
 969 0038 0B60     		str	r3, [r1]
ARM GAS  C:\Users\DEVELO~1\AppData\Local\Temp\ccXwYvnb.s 			page 18


 970              	.LVL57:
 971              		.loc 2 284 3 is_stmt 1 view .LVU334
 972              		.loc 2 284 18 is_stmt 0 view .LVU335
 973 003a 5960     		str	r1, [r3, #4]
 974              		.loc 2 286 3 is_stmt 1 view .LVU336
 975              	.LVL58:
 976              		.loc 2 286 3 is_stmt 0 view .LVU337
 977              	.LBE219:
 978              	.LBE220:
 979              		.loc 1 378 7 is_stmt 1 view .LVU338
 980              		.loc 1 379 16 is_stmt 0 view .LVU339
 981 003c C1E90202 		strd	r0, r2, [r1, #8]
 982              		.loc 1 380 7 is_stmt 1 view .LVU340
 983              		.loc 1 380 19 is_stmt 0 view .LVU341
 984 0040 C163     		str	r1, [r0, #60]
 985              		.loc 1 386 7 is_stmt 1 view .LVU342
 986              		.loc 1 386 14 is_stmt 0 view .LVU343
 987 0042 FFF7FEFF 		bl	chSchReadyI
 988              	.LVL59:
 989              		.loc 1 387 7 is_stmt 1 view .LVU344
 990 0046 FFF7FEFF 		bl	chSchRescheduleS
 991              	.LVL60:
 992              	.LBE212:
 993              		.loc 1 396 3 view .LVU345
 994              	.LBB221:
 995              	.LBI221:
 996              		.loc 5 421 20 view .LVU346
 997              	.LBB222:
 998              		.loc 5 423 23 view .LVU347
 999              		.loc 5 424 34 view .LVU348
 1000              		.loc 5 430 3 view .LVU349
 1001              		.loc 5 430 3 view .LVU350
 1002              		.loc 5 430 3 view .LVU351
 1003              		.loc 5 434 3 view .LVU352
 1004              	.LBB223:
 1005              	.LBI223:
 1006              		.loc 6 847 27 view .LVU353
 1007              		.loc 6 850 3 view .LVU354
 1008              	.LBB224:
 1009              	.LBI224:
 1010              		.loc 7 491 27 view .LVU355
 1011              	.LBB225:
 1012              		.loc 7 493 3 view .LVU356
 1013 004a 0023     		movs	r3, #0
 1014              		.syntax unified
 1015              	@ 493 "../../../os/common/ext/ARM/CMSIS/Core/Include/cmsis_gcc.h" 1
 1016 004c 83F31188 		MSR basepri, r3
 1017              	@ 0 "" 2
 1018              	.LVL61:
 1019              		.loc 7 493 3 is_stmt 0 view .LVU357
 1020              		.thumb
 1021              		.syntax unified
 1022              	.LBE225:
 1023              	.LBE224:
 1024              	.LBE223:
 1025              	.LBE222:
 1026              	.LBE221:
ARM GAS  C:\Users\DEVELO~1\AppData\Local\Temp\ccXwYvnb.s 			page 19


 1027              		.loc 1 397 1 view .LVU358
 1028 0050 10BD     		pop	{r4, pc}
 1029              	.LVL62:
 1030              	.L47:
 1031              		.loc 1 390 7 is_stmt 1 view .LVU359
 1032              		.loc 1 390 17 is_stmt 0 view .LVU360
 1033 0052 0023     		movs	r3, #0
 1034 0054 9360     		str	r3, [r2, #8]
 1035              		.loc 1 396 3 is_stmt 1 view .LVU361
 1036              	.LBB230:
 1037              		.loc 5 421 20 view .LVU362
 1038              	.LBB229:
 1039              		.loc 5 423 23 view .LVU363
 1040              		.loc 5 424 34 view .LVU364
 1041              		.loc 5 430 3 view .LVU365
 1042              		.loc 5 430 3 view .LVU366
 1043              		.loc 5 430 3 view .LVU367
 1044              		.loc 5 434 3 view .LVU368
 1045              	.LBB228:
 1046              		.loc 6 847 27 view .LVU369
 1047              		.loc 6 850 3 view .LVU370
 1048              	.LVL63:
 1049              	.LBB227:
 1050              		.loc 7 491 27 view .LVU371
 1051              	.LBB226:
 1052              		.loc 7 493 3 view .LVU372
 1053 0056 0023     		movs	r3, #0
 1054              		.syntax unified
 1055              	@ 493 "../../../os/common/ext/ARM/CMSIS/Core/Include/cmsis_gcc.h" 1
 1056 0058 83F31188 		MSR basepri, r3
 1057              	@ 0 "" 2
 1058              	.LVL64:
 1059              		.loc 7 493 3 is_stmt 0 view .LVU373
 1060              		.thumb
 1061              		.syntax unified
 1062              	.LBE226:
 1063              	.LBE227:
 1064              	.LBE228:
 1065              	.LBE229:
 1066              	.LBE230:
 1067              		.loc 1 397 1 view .LVU374
 1068 005c 10BD     		pop	{r4, pc}
 1069              	.LVL65:
 1070              	.L58:
 1071              		.loc 1 397 1 view .LVU375
 1072 005e 00BF     		.align	2
 1073              	.L57:
 1074 0060 00000000 		.word	ch0
 1075              		.cfi_endproc
 1076              	.LFE351:
 1077              		.size	chMtxUnlock, .-chMtxUnlock
 1078              		.section	.text.chMtxUnlockS,"ax",%progbits
 1079              		.align	1
 1080              		.p2align 4,,15
 1081              		.global	chMtxUnlockS
 1082              		.syntax unified
 1083              		.thumb
ARM GAS  C:\Users\DEVELO~1\AppData\Local\Temp\ccXwYvnb.s 			page 20


 1084              		.thumb_func
 1085              		.type	chMtxUnlockS, %function
 1086              	chMtxUnlockS:
 1087              	.LVL66:
 1088              	.LFB352:
 1089              		.loc 1 413 32 is_stmt 1 view -0
 1090              		.cfi_startproc
 1091              		@ args = 0, pretend = 0, frame = 0
 1092              		@ frame_needed = 0, uses_anonymous_args = 0
 1093              		@ link register save eliminated.
 1094              		.loc 1 414 3 view .LVU377
 1095              	.LBB231:
 1096              	.LBI231:
 1097              		.loc 3 341 25 view .LVU378
 1098              	.LBB232:
 1099              		.loc 3 343 3 view .LVU379
 1100              		.loc 3 343 10 is_stmt 0 view .LVU380
 1101 0000 124B     		ldr	r3, .L69
 1102              	.LBE232:
 1103              	.LBE231:
 1104              		.loc 1 436 8 view .LVU381
 1105 0002 0268     		ldr	r2, [r0]
 1106              		.loc 1 413 32 view .LVU382
 1107 0004 10B4     		push	{r4}
 1108              		.cfi_def_cfa_offset 4
 1109              		.cfi_offset 4, -4
 1110              		.loc 1 436 8 view .LVU383
 1111 0006 8242     		cmp	r2, r0
 1112              	.LBB234:
 1113              	.LBB233:
 1114              		.loc 3 343 10 view .LVU384
 1115 0008 DC68     		ldr	r4, [r3, #12]
 1116              	.LVL67:
 1117              		.loc 3 343 10 view .LVU385
 1118              	.LBE233:
 1119              	.LBE234:
 1120              		.loc 1 415 3 is_stmt 1 view .LVU386
 1121              		.loc 1 417 21 view .LVU387
 1122              		.loc 1 418 3 view .LVU388
 1123              		.loc 1 418 3 view .LVU389
 1124              		.loc 1 418 3 view .LVU390
 1125              		.loc 1 420 3 view .LVU391
 1126              		.loc 1 420 3 view .LVU392
 1127              		.loc 1 420 3 view .LVU393
 1128              		.loc 1 421 3 view .LVU394
 1129              		.loc 1 421 3 view .LVU395
 1130              		.loc 1 421 3 view .LVU396
 1131              		.loc 1 428 5 view .LVU397
 1132              		.loc 1 428 5 view .LVU398
 1133              		.loc 1 428 5 view .LVU399
 1134              		.loc 1 433 5 view .LVU400
 1135              		.loc 1 433 25 is_stmt 0 view .LVU401
 1136 000a C368     		ldr	r3, [r0, #12]
 1137              		.loc 1 433 21 view .LVU402
 1138 000c E363     		str	r3, [r4, #60]
 1139              		.loc 1 436 5 is_stmt 1 view .LVU403
 1140              	.LVL68:
ARM GAS  C:\Users\DEVELO~1\AppData\Local\Temp\ccXwYvnb.s 			page 21


 1141              	.LBB235:
 1142              	.LBI235:
 1143              		.loc 8 128 20 view .LVU404
 1144              	.LBB236:
 1145              		.loc 8 130 21 view .LVU405
 1146              		.loc 8 132 3 view .LVU406
 1147              	.LBB237:
 1148              	.LBI237:
 1149              		.loc 2 249 20 view .LVU407
 1150              	.LBB238:
 1151              		.loc 2 251 3 view .LVU408
 1152              		.loc 2 251 3 is_stmt 0 view .LVU409
 1153              	.LBE238:
 1154              	.LBE237:
 1155              	.LBE236:
 1156              	.LBE235:
 1157              		.loc 1 436 8 view .LVU410
 1158 000e 18D0     		beq	.L60
 1159              	.LBB239:
 1160              		.loc 1 437 7 is_stmt 1 view .LVU411
 1161              		.loc 1 441 7 view .LVU412
 1162 0010 0146     		mov	r1, r0
 1163              		.loc 1 441 15 is_stmt 0 view .LVU413
 1164 0012 206C     		ldr	r0, [r4, #64]
 1165              	.LVL69:
 1166              		.loc 1 442 7 is_stmt 1 view .LVU414
 1167              		.loc 1 443 7 view .LVU415
 1168              		.loc 1 443 18 view .LVU416
 1169 0014 4BB1     		cbz	r3, .L61
 1170              	.L63:
 1171              		.loc 1 447 9 view .LVU417
 1172              	.LVL70:
 1173              	.LBB240:
 1174              	.LBI240:
 1175              		.loc 8 128 20 view .LVU418
 1176              	.LBB241:
 1177              		.loc 8 130 21 view .LVU419
 1178              		.loc 8 132 3 view .LVU420
 1179              	.LBB242:
 1180              	.LBI242:
 1181              		.loc 2 249 20 view .LVU421
 1182              	.LBB243:
 1183              		.loc 2 251 3 view .LVU422
 1184              		.loc 2 251 19 is_stmt 0 view .LVU423
 1185 0016 1A68     		ldr	r2, [r3]
 1186              	.LVL71:
 1187              		.loc 2 251 19 view .LVU424
 1188              	.LBE243:
 1189              	.LBE242:
 1190              	.LBE241:
 1191              	.LBE240:
 1192              		.loc 1 447 12 view .LVU425
 1193 0018 9342     		cmp	r3, r2
 1194 001a 03D0     		beq	.L62
 1195              		.loc 1 447 12 view .LVU426
 1196 001c 9268     		ldr	r2, [r2, #8]
 1197 001e 9042     		cmp	r0, r2
ARM GAS  C:\Users\DEVELO~1\AppData\Local\Temp\ccXwYvnb.s 			page 22


 1198 0020 38BF     		it	cc
 1199 0022 1046     		movcc	r0, r2
 1200              	.LVL72:
 1201              	.L62:
 1202              		.loc 1 451 9 is_stmt 1 view .LVU427
 1203              		.loc 1 451 13 is_stmt 0 view .LVU428
 1204 0024 DB68     		ldr	r3, [r3, #12]
 1205              	.LVL73:
 1206              		.loc 1 443 18 is_stmt 1 view .LVU429
 1207 0026 002B     		cmp	r3, #0
 1208 0028 F5D1     		bne	.L63
 1209              	.L61:
 1210              		.loc 1 456 7 view .LVU430
 1211              		.loc 1 456 31 is_stmt 0 view .LVU431
 1212 002a A060     		str	r0, [r4, #8]
 1213              		.loc 1 463 7 is_stmt 1 view .LVU432
 1214              	.LVL74:
 1215              	.LBB244:
 1216              	.LBI244:
 1217              		.loc 2 280 27 view .LVU433
 1218              	.LBB245:
 1219              		.loc 2 281 3 view .LVU434
 1220              		.loc 2 281 15 is_stmt 0 view .LVU435
 1221 002c 0868     		ldr	r0, [r1]
 1222              	.LVL75:
 1223              		.loc 2 283 3 is_stmt 1 view .LVU436
 1224              	.LBE245:
 1225              	.LBE244:
 1226              	.LBE239:
 1227              		.loc 1 475 1 is_stmt 0 view .LVU437
 1228 002e 10BC     		pop	{r4}
 1229              		.cfi_remember_state
 1230              		.cfi_restore 4
 1231              		.cfi_def_cfa_offset 0
 1232              	.LVL76:
 1233              	.LBB248:
 1234              		.loc 1 465 16 view .LVU438
 1235 0030 C26B     		ldr	r2, [r0, #60]
 1236              	.LBB247:
 1237              	.LBB246:
 1238              		.loc 2 283 21 view .LVU439
 1239 0032 0368     		ldr	r3, [r0]
 1240              	.LVL77:
 1241              		.loc 2 283 18 view .LVU440
 1242 0034 0B60     		str	r3, [r1]
 1243              	.LVL78:
 1244              		.loc 2 284 3 is_stmt 1 view .LVU441
 1245              		.loc 2 284 18 is_stmt 0 view .LVU442
 1246 0036 5960     		str	r1, [r3, #4]
 1247              		.loc 2 286 3 is_stmt 1 view .LVU443
 1248              	.LVL79:
 1249              		.loc 2 286 3 is_stmt 0 view .LVU444
 1250              	.LBE246:
 1251              	.LBE247:
 1252              		.loc 1 464 7 is_stmt 1 view .LVU445
 1253              		.loc 1 465 16 is_stmt 0 view .LVU446
 1254 0038 C1E90202 		strd	r0, r2, [r1, #8]
ARM GAS  C:\Users\DEVELO~1\AppData\Local\Temp\ccXwYvnb.s 			page 23


 1255              		.loc 1 466 7 is_stmt 1 view .LVU447
 1256              		.loc 1 466 19 is_stmt 0 view .LVU448
 1257 003c C163     		str	r1, [r0, #60]
 1258              		.loc 1 467 7 is_stmt 1 view .LVU449
 1259              		.loc 1 467 14 is_stmt 0 view .LVU450
 1260 003e FFF7FEBF 		b	chSchReadyI
 1261              	.LVL80:
 1262              	.L60:
 1263              		.cfi_restore_state
 1264              		.loc 1 467 14 view .LVU451
 1265              	.LBE248:
 1266              		.loc 1 470 7 is_stmt 1 view .LVU452
 1267              		.loc 1 470 17 is_stmt 0 view .LVU453
 1268 0042 0023     		movs	r3, #0
 1269              		.loc 1 475 1 view .LVU454
 1270 0044 10BC     		pop	{r4}
 1271              		.cfi_restore 4
 1272              		.cfi_def_cfa_offset 0
 1273              	.LVL81:
 1274              		.loc 1 470 17 view .LVU455
 1275 0046 9360     		str	r3, [r2, #8]
 1276              		.loc 1 475 1 view .LVU456
 1277 0048 7047     		bx	lr
 1278              	.L70:
 1279 004a 00BF     		.align	2
 1280              	.L69:
 1281 004c 00000000 		.word	ch0
 1282              		.cfi_endproc
 1283              	.LFE352:
 1284              		.size	chMtxUnlockS, .-chMtxUnlockS
 1285              		.section	.text.chMtxUnlockAllS,"ax",%progbits
 1286              		.align	1
 1287              		.p2align 4,,15
 1288              		.global	chMtxUnlockAllS
 1289              		.syntax unified
 1290              		.thumb
 1291              		.thumb_func
 1292              		.type	chMtxUnlockAllS, %function
 1293              	chMtxUnlockAllS:
 1294              	.LFB353:
 1295              		.loc 1 490 28 is_stmt 1 view -0
 1296              		.cfi_startproc
 1297              		@ args = 0, pretend = 0, frame = 0
 1298              		@ frame_needed = 0, uses_anonymous_args = 0
 1299              		.loc 1 491 3 view .LVU458
 1300              	.LBB249:
 1301              	.LBI249:
 1302              		.loc 3 341 25 view .LVU459
 1303              	.LBB250:
 1304              		.loc 3 343 3 view .LVU460
 1305              		.loc 3 343 10 is_stmt 0 view .LVU461
 1306 0000 114B     		ldr	r3, .L79
 1307              	.LBE250:
 1308              	.LBE249:
 1309              		.loc 1 490 28 view .LVU462
 1310 0002 70B5     		push	{r4, r5, r6, lr}
 1311              		.cfi_def_cfa_offset 16
ARM GAS  C:\Users\DEVELO~1\AppData\Local\Temp\ccXwYvnb.s 			page 24


 1312              		.cfi_offset 4, -16
 1313              		.cfi_offset 5, -12
 1314              		.cfi_offset 6, -8
 1315              		.cfi_offset 14, -4
 1316              	.LBB252:
 1317              	.LBB251:
 1318              		.loc 3 343 10 view .LVU463
 1319 0004 DC68     		ldr	r4, [r3, #12]
 1320              	.LVL82:
 1321              		.loc 3 343 10 view .LVU464
 1322              	.LBE251:
 1323              	.LBE252:
 1324              		.loc 1 493 3 is_stmt 1 view .LVU465
 1325              		.loc 1 493 13 is_stmt 0 view .LVU466
 1326 0006 E36B     		ldr	r3, [r4, #60]
 1327              		.loc 1 493 6 view .LVU467
 1328 0008 EBB1     		cbz	r3, .L71
 1329              	.LBB253:
 1330              		.loc 1 512 19 view .LVU468
 1331 000a 0026     		movs	r6, #0
 1332              	.L75:
 1333              		.loc 1 512 19 view .LVU469
 1334              	.LBE253:
 1335              		.loc 1 494 5 is_stmt 1 view .LVU470
 1336              	.LBB272:
 1337              		.loc 1 495 7 view .LVU471
 1338              	.LVL83:
 1339              		.loc 1 496 7 view .LVU472
 1340              	.LBB254:
 1341              		.loc 1 498 9 view .LVU473
 1342              		.loc 1 502 9 view .LVU474
 1343              	.LBB255:
 1344              	.LBI255:
 1345              		.loc 2 280 27 view .LVU475
 1346              	.LBB256:
 1347              		.loc 2 281 3 view .LVU476
 1348              	.LBE256:
 1349              	.LBE255:
 1350              	.LBE254:
 1351              		.loc 1 512 9 view .LVU477
 1352              	.LBB261:
 1353              	.LBB262:
 1354              	.LBB263:
 1355              	.LBB264:
 1356              		.loc 2 251 19 is_stmt 0 view .LVU478
 1357 000c 1A68     		ldr	r2, [r3]
 1358              	.LVL84:
 1359              		.loc 2 251 19 view .LVU479
 1360              	.LBE264:
 1361              	.LBE263:
 1362              	.LBE262:
 1363              	.LBE261:
 1364              	.LBB268:
 1365              	.LBB259:
 1366              	.LBB257:
 1367              		.loc 2 283 3 is_stmt 1 view .LVU480
 1368              	.LBE257:
ARM GAS  C:\Users\DEVELO~1\AppData\Local\Temp\ccXwYvnb.s 			page 25


 1369              	.LBE259:
 1370              	.LBE268:
 1371              		.loc 1 496 27 is_stmt 0 view .LVU481
 1372 000e D968     		ldr	r1, [r3, #12]
 1373              		.loc 1 497 10 view .LVU482
 1374 0010 9342     		cmp	r3, r2
 1375              	.LBB269:
 1376              		.loc 1 506 16 view .LVU483
 1377 0012 1046     		mov	r0, r2
 1378              	.LBE269:
 1379              		.loc 1 496 23 view .LVU484
 1380 0014 E163     		str	r1, [r4, #60]
 1381              	.LVL85:
 1382              		.loc 1 497 7 is_stmt 1 view .LVU485
 1383              	.LBB270:
 1384              	.LBI261:
 1385              		.loc 8 128 20 view .LVU486
 1386              	.LBB267:
 1387              		.loc 8 130 21 view .LVU487
 1388              		.loc 8 132 3 view .LVU488
 1389              	.LBB266:
 1390              	.LBI263:
 1391              		.loc 2 249 20 view .LVU489
 1392              	.LBB265:
 1393              		.loc 2 251 3 view .LVU490
 1394              		.loc 2 251 3 is_stmt 0 view .LVU491
 1395              	.LBE265:
 1396              	.LBE266:
 1397              	.LBE267:
 1398              	.LBE270:
 1399              		.loc 1 497 10 view .LVU492
 1400 0016 11D0     		beq	.L73
 1401              	.LBB271:
 1402              		.loc 1 504 21 view .LVU493
 1403 0018 D56B     		ldr	r5, [r2, #60]
 1404              	.LBB260:
 1405              	.LBB258:
 1406              		.loc 2 283 21 view .LVU494
 1407 001a 1168     		ldr	r1, [r2]
 1408              		.loc 2 283 18 view .LVU495
 1409 001c 1960     		str	r1, [r3]
 1410              		.loc 2 284 3 is_stmt 1 view .LVU496
 1411              		.loc 2 284 18 is_stmt 0 view .LVU497
 1412 001e 4B60     		str	r3, [r1, #4]
 1413              		.loc 2 286 3 is_stmt 1 view .LVU498
 1414              	.LVL86:
 1415              		.loc 2 286 3 is_stmt 0 view .LVU499
 1416              	.LBE258:
 1417              	.LBE260:
 1418              		.loc 1 503 9 is_stmt 1 view .LVU500
 1419              		.loc 1 504 21 is_stmt 0 view .LVU501
 1420 0020 C3E90225 		strd	r2, r5, [r3, #8]
 1421              		.loc 1 505 9 is_stmt 1 view .LVU502
 1422              		.loc 1 505 21 is_stmt 0 view .LVU503
 1423 0024 D363     		str	r3, [r2, #60]
 1424              		.loc 1 506 9 is_stmt 1 view .LVU504
 1425              		.loc 1 506 16 is_stmt 0 view .LVU505
ARM GAS  C:\Users\DEVELO~1\AppData\Local\Temp\ccXwYvnb.s 			page 26


 1426 0026 FFF7FEFF 		bl	chSchReadyI
 1427              	.LVL87:
 1428              		.loc 1 506 16 view .LVU506
 1429              	.LBE271:
 1430              	.LBE272:
 1431              		.loc 1 514 30 is_stmt 1 view .LVU507
 1432              		.loc 1 514 20 is_stmt 0 view .LVU508
 1433 002a E36B     		ldr	r3, [r4, #60]
 1434              		.loc 1 514 30 view .LVU509
 1435 002c 002B     		cmp	r3, #0
 1436 002e EDD1     		bne	.L75
 1437              	.L78:
 1438              		.loc 1 515 5 is_stmt 1 view .LVU510
 1439              		.loc 1 515 29 is_stmt 0 view .LVU511
 1440 0030 236C     		ldr	r3, [r4, #64]
 1441 0032 A360     		str	r3, [r4, #8]
 1442              		.loc 1 516 5 is_stmt 1 view .LVU512
 1443              		.loc 1 518 1 is_stmt 0 view .LVU513
 1444 0034 BDE87040 		pop	{r4, r5, r6, lr}
 1445              		.cfi_remember_state
 1446              		.cfi_restore 14
 1447              		.cfi_restore 6
 1448              		.cfi_restore 5
 1449              		.cfi_restore 4
 1450              		.cfi_def_cfa_offset 0
 1451              	.LVL88:
 1452              		.loc 1 516 5 view .LVU514
 1453 0038 FFF7FEBF 		b	chSchRescheduleS
 1454              	.LVL89:
 1455              	.L73:
 1456              		.cfi_restore_state
 1457              	.LBB273:
 1458              		.loc 1 512 19 view .LVU515
 1459 003c 9E60     		str	r6, [r3, #8]
 1460 003e 0B46     		mov	r3, r1
 1461              	.LVL90:
 1462              		.loc 1 512 19 view .LVU516
 1463              	.LBE273:
 1464              		.loc 1 514 30 is_stmt 1 view .LVU517
 1465 0040 002B     		cmp	r3, #0
 1466 0042 E3D1     		bne	.L75
 1467 0044 F4E7     		b	.L78
 1468              	.LVL91:
 1469              	.L71:
 1470              		.loc 1 518 1 is_stmt 0 view .LVU518
 1471 0046 70BD     		pop	{r4, r5, r6, pc}
 1472              	.LVL92:
 1473              	.L80:
 1474              		.loc 1 518 1 view .LVU519
 1475              		.align	2
 1476              	.L79:
 1477 0048 00000000 		.word	ch0
 1478              		.cfi_endproc
 1479              	.LFE353:
 1480              		.size	chMtxUnlockAllS, .-chMtxUnlockAllS
 1481              		.section	.text.chMtxUnlockAll,"ax",%progbits
 1482              		.align	1
ARM GAS  C:\Users\DEVELO~1\AppData\Local\Temp\ccXwYvnb.s 			page 27


 1483              		.p2align 4,,15
 1484              		.global	chMtxUnlockAll
 1485              		.syntax unified
 1486              		.thumb
 1487              		.thumb_func
 1488              		.type	chMtxUnlockAll, %function
 1489              	chMtxUnlockAll:
 1490              	.LFB354:
 1491              		.loc 1 531 27 is_stmt 1 view -0
 1492              		.cfi_startproc
 1493              		@ args = 0, pretend = 0, frame = 0
 1494              		@ frame_needed = 0, uses_anonymous_args = 0
 1495              		.loc 1 533 3 view .LVU521
 1496              	.LBB274:
 1497              	.LBI274:
 1498              		.loc 5 407 20 view .LVU522
 1499              		.loc 5 409 3 view .LVU523
 1500              	.LBB275:
 1501              	.LBI275:
 1502              		.loc 6 823 27 view .LVU524
 1503              		.loc 6 831 3 view .LVU525
 1504              	.LVL93:
 1505              	.LBB276:
 1506              	.LBI276:
 1507              		.loc 7 491 27 view .LVU526
 1508              	.LBB277:
 1509              		.loc 7 493 3 view .LVU527
 1510              	.LBE277:
 1511              	.LBE276:
 1512              	.LBE275:
 1513              	.LBE274:
 1514              		.loc 1 531 27 is_stmt 0 view .LVU528
 1515 0000 08B5     		push	{r3, lr}
 1516              		.cfi_def_cfa_offset 8
 1517              		.cfi_offset 3, -8
 1518              		.cfi_offset 14, -4
 1519              	.LBB281:
 1520              	.LBB280:
 1521              	.LBB279:
 1522              	.LBB278:
 1523              		.loc 7 493 3 view .LVU529
 1524 0002 3023     		movs	r3, #48
 1525              		.syntax unified
 1526              	@ 493 "../../../os/common/ext/ARM/CMSIS/Core/Include/cmsis_gcc.h" 1
 1527 0004 83F31188 		MSR basepri, r3
 1528              	@ 0 "" 2
 1529              	.LVL94:
 1530              		.loc 7 493 3 view .LVU530
 1531              		.thumb
 1532              		.syntax unified
 1533              	.LBE278:
 1534              	.LBE279:
 1535              	.LBE280:
 1536              		.loc 5 410 35 is_stmt 1 view .LVU531
 1537              		.loc 5 411 21 view .LVU532
 1538              	.LBE281:
 1539              		.loc 1 534 3 view .LVU533
ARM GAS  C:\Users\DEVELO~1\AppData\Local\Temp\ccXwYvnb.s 			page 28


 1540 0008 FFF7FEFF 		bl	chMtxUnlockAllS
 1541              	.LVL95:
 1542              		.loc 1 535 3 view .LVU534
 1543              	.LBB282:
 1544              	.LBI282:
 1545              		.loc 5 421 20 view .LVU535
 1546              	.LBB283:
 1547              		.loc 5 423 23 view .LVU536
 1548              		.loc 5 424 34 view .LVU537
 1549              		.loc 5 430 3 view .LVU538
 1550              		.loc 5 430 3 view .LVU539
 1551              		.loc 5 430 3 view .LVU540
 1552              		.loc 5 434 3 view .LVU541
 1553              	.LBB284:
 1554              	.LBI284:
 1555              		.loc 6 847 27 view .LVU542
 1556              		.loc 6 850 3 view .LVU543
 1557              	.LBB285:
 1558              	.LBI285:
 1559              		.loc 7 491 27 view .LVU544
 1560              	.LBB286:
 1561              		.loc 7 493 3 view .LVU545
 1562 000c 0023     		movs	r3, #0
 1563              		.syntax unified
 1564              	@ 493 "../../../os/common/ext/ARM/CMSIS/Core/Include/cmsis_gcc.h" 1
 1565 000e 83F31188 		MSR basepri, r3
 1566              	@ 0 "" 2
 1567              	.LVL96:
 1568              		.loc 7 493 3 is_stmt 0 view .LVU546
 1569              		.thumb
 1570              		.syntax unified
 1571              	.LBE286:
 1572              	.LBE285:
 1573              	.LBE284:
 1574              	.LBE283:
 1575              	.LBE282:
 1576              		.loc 1 536 1 view .LVU547
 1577 0012 08BD     		pop	{r3, pc}
 1578              		.cfi_endproc
 1579              	.LFE354:
 1580              		.size	chMtxUnlockAll, .-chMtxUnlockAll
 1581              		.text
 1582              	.Letext0:
 1583              		.file 9 "c:\\chibistudio\\tools\\gnu tools arm embedded\\11.3 2022.08\\arm-none-eabi\\include\\mac
 1584              		.file 10 "c:\\chibistudio\\tools\\gnu tools arm embedded\\11.3 2022.08\\arm-none-eabi\\include\\sy
 1585              		.file 11 "../../../os/common/ports/ARM-common/chtypes.h"
 1586              		.file 12 "../../../os/rt/include/chearly.h"
 1587              		.file 13 "../../../os/rt/include/chobjects.h"
 1588              		.file 14 "../../../os/rt/include/chrfcu.h"
 1589              		.file 15 "../../../os/rt/include/chdebug.h"
 1590              		.file 16 "../../../os/rt/include/chtime.h"
 1591              		.file 17 "../../../os/rt/include/chtrace.h"
 1592              		.file 18 "../../../os/rt/include/chsem.h"