ARM GAS  C:\Users\DEVELO~1\AppData\Local\Temp\ccxLywSW.s 			page 1


   1              		.cpu cortex-m7
   2              		.arch armv7e-m
   3              		.fpu softvfp
   4              		.eabi_attribute 20, 1
   5              		.eabi_attribute 21, 1
   6              		.eabi_attribute 23, 3
   7              		.eabi_attribute 24, 1
   8              		.eabi_attribute 25, 1
   9              		.eabi_attribute 26, 1
  10              		.eabi_attribute 30, 2
  11              		.eabi_attribute 34, 1
  12              		.eabi_attribute 18, 4
  13              		.file	"chobjcaches.c"
  14              		.text
  15              	.Ltext0:
  16              		.cfi_sections	.debug_frame
  17              		.section	.text.chCacheObjectInit,"ax",%progbits
  18              		.align	1
  19              		.p2align 4,,15
  20              		.global	chCacheObjectInit
  21              		.syntax unified
  22              		.thumb
  23              		.thumb_func
  24              		.type	chCacheObjectInit, %function
  25              	chCacheObjectInit:
  26              	.LVL0:
  27              	.LFB348:
  28              		.file 1 "../../../os/oslib/src/chobjcaches.c"
  29              		.loc 1 247 44 view -0
  30              		.cfi_startproc
  31              		@ args = 16, pretend = 0, frame = 0
  32              		@ frame_needed = 0, uses_anonymous_args = 0
  33              		.loc 1 249 3 view .LVU1
  34              		.loc 1 249 3 view .LVU2
  35              		.loc 1 249 3 view .LVU3
  36              		.loc 1 255 3 view .LVU4
  37              		.loc 1 247 44 is_stmt 0 view .LVU5
  38 0000 2DE9F047 		push	{r4, r5, r6, r7, r8, r9, r10, lr}
  39              		.cfi_def_cfa_offset 32
  40              		.cfi_offset 4, -32
  41              		.cfi_offset 5, -28
  42              		.cfi_offset 6, -24
  43              		.cfi_offset 7, -20
  44              		.cfi_offset 8, -16
  45              		.cfi_offset 9, -12
  46              		.cfi_offset 10, -8
  47              		.cfi_offset 14, -4
  48              		.loc 1 247 44 view .LVU6
  49 0004 0646     		mov	r6, r0
  50 0006 1F46     		mov	r7, r3
  51 0008 8946     		mov	r9, r1
  52              		.loc 1 255 3 view .LVU7
  53 000a 2430     		adds	r0, r0, #36
  54              	.LVL1:
  55              		.loc 1 255 3 view .LVU8
  56 000c 0121     		movs	r1, #1
  57              	.LVL2:
ARM GAS  C:\Users\DEVELO~1\AppData\Local\Temp\ccxLywSW.s 			page 2


  58              		.loc 1 247 44 view .LVU9
  59 000e 1546     		mov	r5, r2
  60 0010 099C     		ldr	r4, [sp, #36]
  61 0012 DDF82080 		ldr	r8, [sp, #32]
  62              		.loc 1 255 3 view .LVU10
  63 0016 FFF7FEFF 		bl	chSemObjectInit
  64              	.LVL3:
  65              		.loc 1 256 3 is_stmt 1 view .LVU11
  66 001a 3946     		mov	r1, r7
  67 001c 06F13000 		add	r0, r6, #48
  68 0020 FFF7FEFF 		bl	chSemObjectInit
  69              	.LVL4:
  70              		.loc 1 257 3 view .LVU12
  71              		.loc 1 261 25 is_stmt 0 view .LVU13
  72 0024 0A9B     		ldr	r3, [sp, #40]
  73              		.loc 1 273 20 view .LVU14
  74 0026 05EBC901 		add	r1, r5, r9, lsl #3
  75              		.loc 1 257 25 view .LVU15
  76 002a C6F80090 		str	r9, [r6]
  77              		.loc 1 258 3 is_stmt 1 view .LVU16
  78              		.loc 1 261 25 is_stmt 0 view .LVU17
  79 002e F363     		str	r3, [r6, #60]
  80              		.loc 1 265 42 view .LVU18
  81 0030 06F11409 		add	r9, r6, #20
  82              	.LVL5:
  83              		.loc 1 262 25 view .LVU19
  84 0034 0B9B     		ldr	r3, [sp, #44]
  85              		.loc 1 260 25 view .LVU20
  86 0036 3461     		str	r4, [r6, #16]
  87              		.loc 1 262 25 view .LVU21
  88 0038 3364     		str	r3, [r6, #64]
  89              		.loc 1 263 25 view .LVU22
  90 003a 0023     		movs	r3, #0
  91              		.loc 1 259 25 view .LVU23
  92 003c C6E90157 		strd	r5, r7, [r6, #4]
  93              		.loc 1 260 3 is_stmt 1 view .LVU24
  94              		.loc 1 261 3 view .LVU25
  95              		.loc 1 262 3 view .LVU26
  96              		.loc 1 263 3 view .LVU27
  97              		.loc 1 264 25 is_stmt 0 view .LVU28
  98 0040 C6E90533 		strd	r3, r3, [r6, #20]
  99              		.loc 1 265 3 is_stmt 1 view .LVU29
 100              		.loc 1 266 25 is_stmt 0 view .LVU30
 101 0044 C6E90799 		strd	r9, r9, [r6, #28]
 102              	.L2:
 103              		.loc 1 269 3 is_stmt 1 discriminator 1 view .LVU31
 104              		.loc 1 270 5 discriminator 1 view .LVU32
 105              		.loc 1 271 22 is_stmt 0 discriminator 1 view .LVU33
 106 0048 C5E90055 		strd	r5, r5, [r5]
 107              		.loc 1 272 5 is_stmt 1 discriminator 1 view .LVU34
 108              		.loc 1 272 10 is_stmt 0 discriminator 1 view .LVU35
 109 004c 0835     		adds	r5, r5, #8
 110              	.LVL6:
 111              		.loc 1 273 18 is_stmt 1 discriminator 1 view .LVU36
 112 004e A942     		cmp	r1, r5
 113 0050 FAD8     		bhi	.L2
 114              	.LBB45:
ARM GAS  C:\Users\DEVELO~1\AppData\Local\Temp\ccxLywSW.s 			page 3


 115              		.loc 1 279 5 is_stmt 0 view .LVU37
 116 0052 4FF0010A 		mov	r10, #1
 117              		.loc 1 281 21 view .LVU38
 118 0056 0025     		movs	r5, #0
 119              	.LVL7:
 120              	.L3:
 121              		.loc 1 281 21 view .LVU39
 122              	.LBE45:
 123              		.loc 1 276 3 is_stmt 1 discriminator 1 view .LVU40
 124              	.LBB46:
 125              		.loc 1 277 5 discriminator 1 view .LVU41
 126              		.loc 1 279 5 discriminator 1 view .LVU42
 127 0058 04F11800 		add	r0, r4, #24
 128 005c 0121     		movs	r1, #1
 129 005e FFF7FEFF 		bl	chSemObjectInit
 130              	.LVL8:
 131              		.loc 1 280 5 discriminator 1 view .LVU43
 132 0062 F369     		ldr	r3, [r6, #28]
 133              	.LBE46:
 134              		.loc 1 287 17 is_stmt 0 discriminator 1 view .LVU44
 135 0064 013F     		subs	r7, r7, #1
 136              	.LVL9:
 137              	.LBB47:
 138              		.loc 1 280 5 discriminator 1 view .LVU45
 139 0066 C4E90239 		strd	r3, r9, [r4, #8]
 140              		.loc 1 280 5 is_stmt 1 discriminator 1 view .LVU46
 141              		.loc 1 280 5 discriminator 1 view .LVU47
 142 006a DC60     		str	r4, [r3, #12]
 143              		.loc 1 280 5 discriminator 1 view .LVU48
 144 006c F461     		str	r4, [r6, #28]
 145              		.loc 1 280 31 discriminator 1 view .LVU49
 146              		.loc 1 281 5 discriminator 1 view .LVU50
 147              		.loc 1 282 21 is_stmt 0 discriminator 1 view .LVU51
 148 006e C4E90455 		strd	r5, r5, [r4, #16]
 149              		.loc 1 283 5 is_stmt 1 discriminator 1 view .LVU52
 150              		.loc 1 284 21 is_stmt 0 discriminator 1 view .LVU53
 151 0072 C4E909A5 		strd	r10, r5, [r4, #36]
 152              		.loc 1 285 5 is_stmt 1 discriminator 1 view .LVU54
 153              		.loc 1 285 11 is_stmt 0 discriminator 1 view .LVU55
 154 0076 4444     		add	r4, r4, r8
 155              	.LVL10:
 156              		.loc 1 286 5 is_stmt 1 discriminator 1 view .LVU56
 157              		.loc 1 286 5 is_stmt 0 discriminator 1 view .LVU57
 158              	.LBE47:
 159              		.loc 1 287 17 is_stmt 1 discriminator 1 view .LVU58
 160 0078 EED1     		bne	.L3
 161              		.loc 1 288 1 is_stmt 0 view .LVU59
 162 007a BDE8F087 		pop	{r4, r5, r6, r7, r8, r9, r10, pc}
 163              		.loc 1 288 1 view .LVU60
 164              		.cfi_endproc
 165              	.LFE348:
 166              		.size	chCacheObjectInit, .-chCacheObjectInit
 167 007e 00BF     		.section	.text.chCacheGetObject,"ax",%progbits
 168              		.align	1
 169              		.p2align 4,,15
 170              		.global	chCacheGetObject
 171              		.syntax unified
ARM GAS  C:\Users\DEVELO~1\AppData\Local\Temp\ccxLywSW.s 			page 4


 172              		.thumb
 173              		.thumb_func
 174              		.type	chCacheGetObject, %function
 175              	chCacheGetObject:
 176              	.LVL11:
 177              	.LFB349:
 178              		.loc 1 305 45 is_stmt 1 view -0
 179              		.cfi_startproc
 180              		@ args = 0, pretend = 0, frame = 0
 181              		@ frame_needed = 0, uses_anonymous_args = 0
 182              		.loc 1 306 3 view .LVU62
 183              		.loc 1 309 3 view .LVU63
 184              	.LBB78:
 185              	.LBI78:
 186              		.file 2 "../../../os/rt/include/chsys.h"
 187              		.loc 2 407 20 view .LVU64
 188              		.loc 2 409 3 view .LVU65
 189              	.LBB79:
 190              	.LBI79:
 191              		.file 3 "../../../os/common/ports/ARMv7-M/chcore.h"
 192              		.loc 3 823 27 view .LVU66
 193              		.loc 3 831 3 view .LVU67
 194              	.LBB80:
 195              	.LBI80:
 196              		.file 4 "../../../os/common/ext/ARM/CMSIS/Core/Include/cmsis_gcc.h"
 197              		.loc 4 491 27 view .LVU68
 198              	.LBB81:
 199              		.loc 4 493 3 view .LVU69
 200              	.LBE81:
 201              	.LBE80:
 202              	.LBE79:
 203              	.LBE78:
 204              		.loc 1 305 45 is_stmt 0 view .LVU70
 205 0000 2DE9F84F 		push	{r3, r4, r5, r6, r7, r8, r9, r10, fp, lr}
 206              		.cfi_def_cfa_offset 40
 207              		.cfi_offset 3, -40
 208              		.cfi_offset 4, -36
 209              		.cfi_offset 5, -32
 210              		.cfi_offset 6, -28
 211              		.cfi_offset 7, -24
 212              		.cfi_offset 8, -20
 213              		.cfi_offset 9, -16
 214              		.cfi_offset 10, -12
 215              		.cfi_offset 11, -8
 216              		.cfi_offset 14, -4
 217              	.LBB88:
 218              	.LBB86:
 219              	.LBB84:
 220              	.LBB82:
 221              		.loc 4 493 3 view .LVU71
 222 0004 3023     		movs	r3, #48
 223              	.LBE82:
 224              	.LBE84:
 225              	.LBE86:
 226              	.LBE88:
 227              		.loc 1 305 45 view .LVU72
 228 0006 0646     		mov	r6, r0
ARM GAS  C:\Users\DEVELO~1\AppData\Local\Temp\ccxLywSW.s 			page 5


 229 0008 0F46     		mov	r7, r1
 230 000a 1546     		mov	r5, r2
 231              	.LBB89:
 232              	.LBB87:
 233              	.LBB85:
 234              	.LBB83:
 235              		.loc 4 493 3 view .LVU73
 236              		.syntax unified
 237              	@ 493 "../../../os/common/ext/ARM/CMSIS/Core/Include/cmsis_gcc.h" 1
 238 000c 83F31188 		MSR basepri, r3
 239              	@ 0 "" 2
 240              	.LVL12:
 241              		.loc 4 493 3 view .LVU74
 242              		.thumb
 243              		.syntax unified
 244              	.LBE83:
 245              	.LBE85:
 246              	.LBE87:
 247              		.loc 2 410 35 is_stmt 1 view .LVU75
 248              		.loc 2 411 21 view .LVU76
 249              	.LBE89:
 250              		.loc 1 312 3 view .LVU77
 251              	.LBB90:
 252              	.LBI90:
 253              		.loc 1 134 21 view .LVU78
 254              	.LBB91:
 255              		.loc 1 137 3 view .LVU79
 256              		.loc 1 138 3 view .LVU80
 257              		.loc 1 141 3 view .LVU81
 258              		.loc 1 141 22 is_stmt 0 view .LVU82
 259 0010 0368     		ldr	r3, [r0]
 260 0012 01EB0208 		add	r8, r1, r2
 261              		.loc 1 141 8 view .LVU83
 262 0016 4168     		ldr	r1, [r0, #4]
 263              	.LVL13:
 264              		.loc 1 141 22 view .LVU84
 265 0018 013B     		subs	r3, r3, #1
 266 001a 03EA0803 		and	r3, r3, r8
 267              		.loc 1 141 8 view .LVU85
 268 001e 01EBC302 		add	r2, r1, r3, lsl #3
 269              	.LVL14:
 270              		.loc 1 142 3 is_stmt 1 view .LVU86
 271              		.loc 1 142 8 is_stmt 0 view .LVU87
 272 0022 51F83340 		ldr	r4, [r1, r3, lsl #3]
 273              	.LVL15:
 274              		.loc 1 145 3 is_stmt 1 view .LVU88
 275              		.loc 1 145 15 view .LVU89
 276 0026 A242     		cmp	r2, r4
 277 0028 03D1     		bne	.L12
 278 002a 1BE0     		b	.L9
 279              	.L10:
 280              		.loc 1 151 10 is_stmt 0 view .LVU90
 281 002c 2468     		ldr	r4, [r4]
 282              	.LVL16:
 283              		.loc 1 145 15 is_stmt 1 view .LVU91
 284 002e A242     		cmp	r2, r4
 285 0030 18D0     		beq	.L9
ARM GAS  C:\Users\DEVELO~1\AppData\Local\Temp\ccxLywSW.s 			page 6


 286              	.L12:
 287              		.loc 1 146 5 view .LVU92
 288              		.loc 1 151 5 view .LVU93
 289              		.loc 1 146 8 is_stmt 0 view .LVU94
 290 0032 6369     		ldr	r3, [r4, #20]
 291 0034 9D42     		cmp	r5, r3
 292 0036 F9D1     		bne	.L10
 293              		.loc 1 146 32 view .LVU95
 294 0038 2369     		ldr	r3, [r4, #16]
 295 003a 9F42     		cmp	r7, r3
 296 003c F6D1     		bne	.L10
 297              	.LVL17:
 298              		.loc 1 146 32 view .LVU96
 299              	.LBE91:
 300              	.LBE90:
 301              		.loc 1 313 3 is_stmt 1 view .LVU97
 302              		.loc 1 315 5 view .LVU98
 303              		.loc 1 315 5 view .LVU99
 304              		.loc 1 315 5 view .LVU100
 305              		.loc 1 320 5 view .LVU101
 306              	.LBB92:
 307              	.LBI92:
 308              		.file 5 "../../../os/rt/include/chsem.h"
 309              		.loc 5 189 21 view .LVU102
 310              	.LBB93:
 311              		.loc 5 191 21 view .LVU103
 312              		.loc 5 193 3 view .LVU104
 313              		.loc 5 193 12 is_stmt 0 view .LVU105
 314 003e 236A     		ldr	r3, [r4, #32]
 315              	.LVL18:
 316              		.loc 5 193 12 view .LVU106
 317              	.LBE93:
 318              	.LBE92:
 319              		.loc 1 320 8 view .LVU107
 320 0040 002B     		cmp	r3, #0
 321 0042 52DD     		ble	.L26
 322              		.loc 1 323 7 is_stmt 1 discriminator 5 view .LVU108
 323              		.loc 1 323 7 discriminator 5 view .LVU109
 324              		.loc 1 323 7 discriminator 5 view .LVU110
 325              		.loc 1 327 7 discriminator 5 view .LVU111
 326              		.loc 1 328 23 is_stmt 0 discriminator 5 view .LVU112
 327 0044 626A     		ldr	r2, [r4, #36]
 328              	.LBB94:
 329              	.LBB95:
 330              		.loc 5 162 10 discriminator 5 view .LVU113
 331 0046 013B     		subs	r3, r3, #1
 332              	.LBE95:
 333              	.LBE94:
 334              		.loc 1 327 7 discriminator 5 view .LVU114
 335 0048 D4E90210 		ldrd	r1, r0, [r4, #8]
 336              	.LVL19:
 337              		.loc 1 328 23 discriminator 5 view .LVU115
 338 004c 22F00102 		bic	r2, r2, #1
 339              		.loc 1 327 7 discriminator 5 view .LVU116
 340 0050 8160     		str	r1, [r0, #8]
 341              		.loc 1 327 7 is_stmt 1 discriminator 5 view .LVU117
 342 0052 C860     		str	r0, [r1, #12]
ARM GAS  C:\Users\DEVELO~1\AppData\Local\Temp\ccxLywSW.s 			page 7


 343              		.loc 1 327 23 discriminator 5 view .LVU118
 344              		.loc 1 328 7 discriminator 5 view .LVU119
 345              	.LBB97:
 346              	.LBB96:
 347              		.loc 5 162 10 is_stmt 0 discriminator 5 view .LVU120
 348 0054 C4E90832 		strd	r3, r2, [r4, #32]
 349              		.loc 5 162 10 discriminator 5 view .LVU121
 350              	.LBE96:
 351              	.LBE97:
 352              		.loc 1 352 39 is_stmt 1 discriminator 5 view .LVU122
 353              		.loc 1 356 3 discriminator 5 view .LVU123
 354              	.LBB98:
 355              	.LBI98:
 356              		.loc 2 421 20 discriminator 5 view .LVU124
 357              	.LBB99:
 358              		.loc 2 423 23 discriminator 5 view .LVU125
 359              		.loc 2 424 34 discriminator 5 view .LVU126
 360              		.loc 2 430 3 discriminator 5 view .LVU127
 361              		.loc 2 430 3 discriminator 5 view .LVU128
 362              		.loc 2 430 3 discriminator 5 view .LVU129
 363              		.loc 2 434 3 discriminator 5 view .LVU130
 364              	.LBB100:
 365              	.LBI100:
 366              		.loc 3 847 27 discriminator 5 view .LVU131
 367              		.loc 3 850 3 discriminator 5 view .LVU132
 368              	.LVL20:
 369              	.LBB101:
 370              	.LBI101:
 371              		.loc 4 491 27 discriminator 5 view .LVU133
 372              	.LBB102:
 373              		.loc 4 493 3 discriminator 5 view .LVU134
 374 0058 0023     		movs	r3, #0
 375              		.syntax unified
 376              	@ 493 "../../../os/common/ext/ARM/CMSIS/Core/Include/cmsis_gcc.h" 1
 377 005a 83F31188 		MSR basepri, r3
 378              	@ 0 "" 2
 379              	.LVL21:
 380              		.loc 4 493 3 is_stmt 0 discriminator 5 view .LVU135
 381              		.thumb
 382              		.syntax unified
 383              	.LBE102:
 384              	.LBE101:
 385              	.LBE100:
 386              	.LBE99:
 387              	.LBE98:
 388              		.loc 1 358 3 is_stmt 1 discriminator 5 view .LVU136
 389              		.loc 1 359 1 is_stmt 0 discriminator 5 view .LVU137
 390 005e 2046     		mov	r0, r4
 391 0060 BDE8F88F 		pop	{r3, r4, r5, r6, r7, r8, r9, r10, fp, pc}
 392              	.LVL22:
 393              	.L9:
 394              	.LBB111:
 395              	.LBB112:
 396              		.loc 1 170 12 view .LVU138
 397 0064 06F13009 		add	r9, r6, #48
 398              	.LBB113:
 399              	.LBB114:
ARM GAS  C:\Users\DEVELO~1\AppData\Local\Temp\ccxLywSW.s 			page 8


 400              	.LBB115:
 401              	.LBB116:
 402              	.LBB117:
 403              		.loc 4 493 3 view .LVU139
 404 0068 4FF0000B 		mov	fp, #0
 405              	.LBE117:
 406              	.LBE116:
 407              	.LBE115:
 408              	.LBE114:
 409              	.LBE113:
 410              		.loc 1 209 21 view .LVU140
 411 006c 4FF0220A 		mov	r10, #34
 412 0070 0BE0     		b	.L13
 413              	.LVL23:
 414              	.L15:
 415              	.LBB126:
 416              	.LBB124:
 417              	.LBB122:
 418              	.LBB120:
 419              	.LBB118:
 420              		.loc 4 493 3 view .LVU141
 421              		.syntax unified
 422              	@ 493 "../../../os/common/ext/ARM/CMSIS/Core/Include/cmsis_gcc.h" 1
 423 0072 8BF31188 		MSR basepri, fp
 424              	@ 0 "" 2
 425              	.LVL24:
 426              		.loc 4 493 3 view .LVU142
 427              		.thumb
 428              		.syntax unified
 429              	.LBE118:
 430              	.LBE120:
 431              	.LBE122:
 432              	.LBE124:
 433              	.LBE126:
 434              		.loc 1 209 5 is_stmt 1 view .LVU143
 435              		.loc 1 210 12 is_stmt 0 view .LVU144
 436 0076 0122     		movs	r2, #1
 437 0078 336C     		ldr	r3, [r6, #64]
 438 007a 2146     		mov	r1, r4
 439 007c 3046     		mov	r0, r6
 440              		.loc 1 209 21 view .LVU145
 441 007e C4F824A0 		str	r10, [r4, #36]
 442              		.loc 1 210 5 is_stmt 1 view .LVU146
 443              		.loc 1 210 12 is_stmt 0 view .LVU147
 444 0082 9847     		blx	r3
 445              	.LVL25:
 446              		.loc 1 213 5 is_stmt 1 view .LVU148
 447              	.LBB127:
 448              	.LBI127:
 449              		.loc 2 407 20 view .LVU149
 450              	.LBB128:
 451              		.loc 2 409 3 view .LVU150
 452              	.LBB129:
 453              	.LBI129:
 454              		.loc 3 823 27 view .LVU151
 455              		.loc 3 831 3 view .LVU152
 456              	.LBB130:
ARM GAS  C:\Users\DEVELO~1\AppData\Local\Temp\ccxLywSW.s 			page 9


 457              	.LBI130:
 458              		.loc 4 491 27 view .LVU153
 459              	.LBB131:
 460              		.loc 4 493 3 view .LVU154
 461 0084 3023     		movs	r3, #48
 462              		.syntax unified
 463              	@ 493 "../../../os/common/ext/ARM/CMSIS/Core/Include/cmsis_gcc.h" 1
 464 0086 83F31188 		MSR basepri, r3
 465              	@ 0 "" 2
 466              	.LVL26:
 467              		.loc 4 493 3 is_stmt 0 view .LVU155
 468              		.thumb
 469              		.syntax unified
 470              	.LBE131:
 471              	.LBE130:
 472              	.LBE129:
 473              		.loc 2 410 35 is_stmt 1 view .LVU156
 474              		.loc 2 411 21 view .LVU157
 475              	.L13:
 476              		.loc 2 411 21 is_stmt 0 view .LVU158
 477              	.LBE128:
 478              	.LBE127:
 479              		.loc 1 166 3 is_stmt 1 view .LVU159
 480              		.loc 1 168 3 view .LVU160
 481              		.loc 1 170 5 view .LVU161
 482              		.loc 1 170 12 is_stmt 0 view .LVU162
 483 008a 4846     		mov	r0, r9
 484 008c FFF7FEFF 		bl	chSemWaitS
 485              	.LVL27:
 486              		.loc 1 174 5 is_stmt 1 view .LVU163
 487              		.loc 1 204 5 view .LVU164
 488              	.LBB132:
 489              	.LBI113:
 490              		.loc 2 421 20 view .LVU165
 491              	.LBB125:
 492              		.loc 2 423 23 view .LVU166
 493              		.loc 2 424 34 view .LVU167
 494              		.loc 2 430 3 view .LVU168
 495              		.loc 2 430 3 view .LVU169
 496              		.loc 2 430 3 view .LVU170
 497              		.loc 2 434 3 view .LVU171
 498              	.LBB123:
 499              	.LBI115:
 500              		.loc 3 847 27 view .LVU172
 501              		.loc 3 850 3 view .LVU173
 502              	.LBB121:
 503              	.LBI116:
 504              		.loc 4 491 27 view .LVU174
 505              	.LBB119:
 506              		.loc 4 493 3 view .LVU175
 507              	.LBE119:
 508              	.LBE121:
 509              	.LBE123:
 510              	.LBE125:
 511              	.LBE132:
 512              		.loc 1 174 10 is_stmt 0 view .LVU176
 513 0090 346A     		ldr	r4, [r6, #32]
ARM GAS  C:\Users\DEVELO~1\AppData\Local\Temp\ccxLywSW.s 			page 10


 514              	.LVL28:
 515              		.loc 1 176 5 is_stmt 1 view .LVU177
 516              		.loc 1 176 5 view .LVU178
 517              		.loc 1 176 5 view .LVU179
 518              		.loc 1 178 5 view .LVU180
 519              		.loc 1 178 5 view .LVU181
 520              		.loc 1 178 5 view .LVU182
 521              		.loc 1 181 5 view .LVU183
 522              	.LBB133:
 523              	.LBB134:
 524              		.loc 5 162 10 is_stmt 0 view .LVU184
 525 0092 D4E90832 		ldrd	r3, r2, [r4, #32]
 526              	.LBE134:
 527              	.LBE133:
 528              		.loc 1 181 5 view .LVU185
 529 0096 D4E90210 		ldrd	r1, r0, [r4, #8]
 530              	.LBB137:
 531              	.LBB135:
 532              		.loc 5 162 10 view .LVU186
 533 009a 013B     		subs	r3, r3, #1
 534              	.LBE135:
 535              	.LBE137:
 536              		.loc 1 181 5 view .LVU187
 537 009c 8160     		str	r1, [r0, #8]
 538              		.loc 1 181 5 is_stmt 1 view .LVU188
 539 009e C860     		str	r0, [r1, #12]
 540              		.loc 1 181 21 view .LVU189
 541              		.loc 1 182 5 view .LVU190
 542              		.loc 1 182 21 is_stmt 0 view .LVU191
 543 00a0 22F00101 		bic	r1, r2, #1
 544 00a4 C4E90831 		strd	r3, r1, [r4, #32]
 545              		.loc 1 186 5 is_stmt 1 view .LVU192
 546              	.LVL29:
 547              	.LBB138:
 548              	.LBI133:
 549              		.loc 5 158 20 view .LVU193
 550              	.LBB136:
 551              		.loc 5 160 21 view .LVU194
 552              		.loc 5 162 3 view .LVU195
 553              		.loc 5 162 3 is_stmt 0 view .LVU196
 554              	.LBE136:
 555              	.LBE138:
 556              		.loc 1 190 5 is_stmt 1 view .LVU197
 557              		.loc 1 190 8 is_stmt 0 view .LVU198
 558 00a8 D106     		lsls	r1, r2, #27
 559 00aa E2D4     		bmi	.L15
 560              		.loc 1 193 7 is_stmt 1 view .LVU199
 561              		.loc 1 193 10 is_stmt 0 view .LVU200
 562 00ac 9307     		lsls	r3, r2, #30
 563 00ae 04D5     		bpl	.L16
 564              		.loc 1 194 9 is_stmt 1 view .LVU201
 565 00b0 D4E90023 		ldrd	r2, r3, [r4]
 566 00b4 1A60     		str	r2, [r3]
 567              		.loc 1 194 9 view .LVU202
 568 00b6 2268     		ldr	r2, [r4]
 569 00b8 5360     		str	r3, [r2, #4]
 570              	.L16:
ARM GAS  C:\Users\DEVELO~1\AppData\Local\Temp\ccxLywSW.s 			page 11


 571              		.loc 1 194 26 view .LVU203
 572              		.loc 1 198 7 view .LVU204
 573              		.loc 1 200 7 view .LVU205
 574              	.LVL30:
 575              		.loc 1 200 7 is_stmt 0 view .LVU206
 576              	.LBE112:
 577              	.LBE111:
 578              		.loc 1 349 5 is_stmt 1 view .LVU207
 579              		.loc 1 351 21 is_stmt 0 view .LVU208
 580 00ba 0A21     		movs	r1, #10
 581              		.loc 1 349 21 view .LVU209
 582 00bc 2761     		str	r7, [r4, #16]
 583              		.loc 1 350 5 is_stmt 1 view .LVU210
 584              	.LBB139:
 585              		.loc 1 352 5 is_stmt 0 view .LVU211
 586 00be D6E90032 		ldrd	r3, r2, [r6]
 587              	.LBE139:
 588              		.loc 1 351 21 view .LVU212
 589 00c2 6162     		str	r1, [r4, #36]
 590              	.LBB140:
 591              		.loc 1 352 5 view .LVU213
 592 00c4 013B     		subs	r3, r3, #1
 593              	.LBE140:
 594              		.loc 1 350 21 view .LVU214
 595 00c6 6561     		str	r5, [r4, #20]
 596              		.loc 1 351 5 is_stmt 1 view .LVU215
 597              	.LBB141:
 598              		.loc 1 352 5 view .LVU216
 599              		.loc 1 352 5 view .LVU217
 600 00c8 03EA0803 		and	r3, r3, r8
 601 00cc 52F83310 		ldr	r1, [r2, r3, lsl #3]
 602 00d0 02EBC300 		add	r0, r2, r3, lsl #3
 603              	.LVL31:
 604              		.loc 1 352 5 view .LVU218
 605 00d4 C4E90010 		strd	r1, r0, [r4]
 606              		.loc 1 352 5 view .LVU219
 607 00d8 4C60     		str	r4, [r1, #4]
 608              		.loc 1 352 5 view .LVU220
 609 00da 42F83340 		str	r4, [r2, r3, lsl #3]
 610              		.loc 1 352 5 is_stmt 0 view .LVU221
 611              	.LBE141:
 612              		.loc 1 352 39 is_stmt 1 view .LVU222
 613              		.loc 1 356 3 view .LVU223
 614              	.LBB142:
 615              		.loc 2 421 20 view .LVU224
 616              	.LBB109:
 617              		.loc 2 423 23 view .LVU225
 618              		.loc 2 424 34 view .LVU226
 619              		.loc 2 430 3 view .LVU227
 620              		.loc 2 430 3 view .LVU228
 621              		.loc 2 430 3 view .LVU229
 622              		.loc 2 434 3 view .LVU230
 623              	.LBB107:
 624              		.loc 3 847 27 view .LVU231
 625              		.loc 3 850 3 view .LVU232
 626              	.LVL32:
 627              	.LBB105:
ARM GAS  C:\Users\DEVELO~1\AppData\Local\Temp\ccxLywSW.s 			page 12


 628              		.loc 4 491 27 view .LVU233
 629              	.LBB103:
 630              		.loc 4 493 3 view .LVU234
 631 00de 0023     		movs	r3, #0
 632              		.syntax unified
 633              	@ 493 "../../../os/common/ext/ARM/CMSIS/Core/Include/cmsis_gcc.h" 1
 634 00e0 83F31188 		MSR basepri, r3
 635              	@ 0 "" 2
 636              	.LVL33:
 637              		.loc 4 493 3 is_stmt 0 view .LVU235
 638              		.thumb
 639              		.syntax unified
 640              	.LBE103:
 641              	.LBE105:
 642              	.LBE107:
 643              	.LBE109:
 644              	.LBE142:
 645              		.loc 1 358 3 is_stmt 1 view .LVU236
 646              		.loc 1 359 1 is_stmt 0 view .LVU237
 647 00e4 2046     		mov	r0, r4
 648              	.LVL34:
 649              		.loc 1 359 1 view .LVU238
 650 00e6 BDE8F88F 		pop	{r3, r4, r5, r6, r7, r8, r9, r10, fp, pc}
 651              	.LVL35:
 652              	.L26:
 653              		.loc 1 338 7 is_stmt 1 discriminator 5 view .LVU239
 654              		.loc 1 338 7 discriminator 5 view .LVU240
 655              		.loc 1 338 7 discriminator 5 view .LVU241
 656              		.loc 1 341 7 discriminator 5 view .LVU242
 657              		.loc 1 341 14 is_stmt 0 discriminator 5 view .LVU243
 658 00ea 04F11800 		add	r0, r4, #24
 659              	.LVL36:
 660              		.loc 1 341 14 discriminator 5 view .LVU244
 661 00ee FFF7FEFF 		bl	chSemWaitS
 662              	.LVL37:
 663              		.loc 1 352 39 is_stmt 1 discriminator 5 view .LVU245
 664              		.loc 1 356 3 discriminator 5 view .LVU246
 665              	.LBB143:
 666              		.loc 2 421 20 discriminator 5 view .LVU247
 667              	.LBB110:
 668              		.loc 2 423 23 discriminator 5 view .LVU248
 669              		.loc 2 424 34 discriminator 5 view .LVU249
 670              		.loc 2 430 3 discriminator 5 view .LVU250
 671              		.loc 2 430 3 discriminator 5 view .LVU251
 672              		.loc 2 430 3 discriminator 5 view .LVU252
 673              		.loc 2 434 3 discriminator 5 view .LVU253
 674              	.LBB108:
 675              		.loc 3 847 27 discriminator 5 view .LVU254
 676              		.loc 3 850 3 discriminator 5 view .LVU255
 677              	.LBB106:
 678              		.loc 4 491 27 discriminator 5 view .LVU256
 679              	.LBB104:
 680              		.loc 4 493 3 discriminator 5 view .LVU257
 681 00f2 0023     		movs	r3, #0
 682              		.syntax unified
 683              	@ 493 "../../../os/common/ext/ARM/CMSIS/Core/Include/cmsis_gcc.h" 1
 684 00f4 83F31188 		MSR basepri, r3
ARM GAS  C:\Users\DEVELO~1\AppData\Local\Temp\ccxLywSW.s 			page 13


 685              	@ 0 "" 2
 686              	.LVL38:
 687              		.loc 4 493 3 is_stmt 0 discriminator 5 view .LVU258
 688              		.thumb
 689              		.syntax unified
 690              	.LBE104:
 691              	.LBE106:
 692              	.LBE108:
 693              	.LBE110:
 694              	.LBE143:
 695              		.loc 1 358 3 is_stmt 1 discriminator 5 view .LVU259
 696              		.loc 1 359 1 is_stmt 0 discriminator 5 view .LVU260
 697 00f8 2046     		mov	r0, r4
 698 00fa BDE8F88F 		pop	{r3, r4, r5, r6, r7, r8, r9, r10, fp, pc}
 699              		.loc 1 359 1 discriminator 5 view .LVU261
 700              		.cfi_endproc
 701              	.LFE349:
 702              		.size	chCacheGetObject, .-chCacheGetObject
 703 00fe 00BF     		.section	.text.chCacheReleaseObjectI,"ax",%progbits
 704              		.align	1
 705              		.p2align 4,,15
 706              		.global	chCacheReleaseObjectI
 707              		.syntax unified
 708              		.thumb
 709              		.thumb_func
 710              		.type	chCacheReleaseObjectI, %function
 711              	chCacheReleaseObjectI:
 712              	.LVL39:
 713              	.LFB350:
 714              		.loc 1 379 47 is_stmt 1 view -0
 715              		.cfi_startproc
 716              		@ args = 0, pretend = 0, frame = 0
 717              		@ frame_needed = 0, uses_anonymous_args = 0
 718              		.loc 1 382 3 view .LVU263
 719              		.loc 1 382 3 view .LVU264
 720              		.loc 1 382 3 view .LVU265
 721              		.loc 1 386 3 view .LVU266
 722              		.loc 1 386 3 view .LVU267
 723              		.loc 1 386 3 view .LVU268
 724              		.loc 1 391 3 view .LVU269
 725              		.loc 1 391 6 is_stmt 0 view .LVU270
 726 0000 0B6A     		ldr	r3, [r1, #32]
 727 0002 002B     		cmp	r3, #0
 728              		.loc 1 395 21 view .LVU271
 729 0004 4B6A     		ldr	r3, [r1, #36]
 730              		.loc 1 379 47 view .LVU272
 731 0006 10B5     		push	{r4, lr}
 732              		.cfi_def_cfa_offset 8
 733              		.cfi_offset 4, -8
 734              		.cfi_offset 14, -4
 735              		.loc 1 379 47 view .LVU273
 736 0008 0C46     		mov	r4, r1
 737              	.LVL40:
 738              	.LBB144:
 739              	.LBI144:
 740              		.loc 5 189 21 is_stmt 1 view .LVU274
 741              	.LBB145:
ARM GAS  C:\Users\DEVELO~1\AppData\Local\Temp\ccxLywSW.s 			page 14


 742              		.loc 5 191 21 view .LVU275
 743              		.loc 5 193 3 view .LVU276
 744              		.loc 5 193 3 is_stmt 0 view .LVU277
 745              	.LBE145:
 746              	.LBE144:
 747              		.loc 1 391 6 view .LVU278
 748 000a 2EDB     		blt	.L34
 749              		.loc 1 402 3 is_stmt 1 view .LVU279
 750              		.loc 1 402 6 is_stmt 0 view .LVU280
 751 000c 1907     		lsls	r1, r3, #28
 752              	.LVL41:
 753              		.loc 1 402 6 view .LVU281
 754 000e 14D4     		bmi	.L35
 755              		.loc 1 411 5 is_stmt 1 view .LVU282
 756              		.loc 1 411 8 is_stmt 0 view .LVU283
 757 0010 9A06     		lsls	r2, r3, #26
 758 0012 22D4     		bmi	.L31
 759              		.loc 1 413 7 is_stmt 1 view .LVU284
 760 0014 C269     		ldr	r2, [r0, #28]
 761 0016 00F11401 		add	r1, r0, #20
 762 001a C4E90221 		strd	r2, r1, [r4, #8]
 763              		.loc 1 413 7 view .LVU285
 764 001e D460     		str	r4, [r2, #12]
 765              		.loc 1 413 7 view .LVU286
 766 0020 C461     		str	r4, [r0, #28]
 767              		.loc 1 413 33 view .LVU287
 768              	.L32:
 769              		.loc 1 417 33 discriminator 1 view .LVU288
 770              		.loc 1 419 5 discriminator 1 view .LVU289
 771              		.loc 1 420 5 discriminator 1 view .LVU290
 772              		.loc 1 419 21 is_stmt 0 discriminator 1 view .LVU291
 773 0022 03F01203 		and	r3, r3, #18
 774              		.loc 1 420 21 discriminator 1 view .LVU292
 775 0026 43F00103 		orr	r3, r3, #1
 776              	.L30:
 777              		.loc 1 407 21 view .LVU293
 778 002a 6362     		str	r3, [r4, #36]
 779              		.loc 1 424 3 is_stmt 1 view .LVU294
 780 002c 3030     		adds	r0, r0, #48
 781              	.LVL42:
 782              		.loc 1 424 3 is_stmt 0 view .LVU295
 783 002e FFF7FEFF 		bl	chSemSignalI
 784              	.LVL43:
 785              		.loc 1 428 3 is_stmt 1 view .LVU296
 786              	.LBB146:
 787              	.LBI146:
 788              		.loc 5 174 20 view .LVU297
 789              	.LBB147:
 790              		.loc 5 176 21 view .LVU298
 791              		.loc 5 178 3 view .LVU299
 792              		.loc 5 178 10 is_stmt 0 view .LVU300
 793 0032 236A     		ldr	r3, [r4, #32]
 794 0034 0133     		adds	r3, r3, #1
 795 0036 2362     		str	r3, [r4, #32]
 796              	.LVL44:
 797              		.loc 5 178 10 view .LVU301
 798              	.LBE147:
ARM GAS  C:\Users\DEVELO~1\AppData\Local\Temp\ccxLywSW.s 			page 15


 799              	.LBE146:
 800              		.loc 1 429 1 view .LVU302
 801 0038 10BD     		pop	{r4, pc}
 802              	.LVL45:
 803              	.L35:
 804              		.loc 1 403 5 is_stmt 1 view .LVU303
 805 003a D4E90032 		ldrd	r3, r2, [r4]
 806              		.loc 1 404 5 is_stmt 0 view .LVU304
 807 003e 016A     		ldr	r1, [r0, #32]
 808              		.loc 1 403 5 view .LVU305
 809 0040 1360     		str	r3, [r2]
 810              		.loc 1 403 5 is_stmt 1 view .LVU306
 811 0042 5A60     		str	r2, [r3, #4]
 812              		.loc 1 403 22 view .LVU307
 813              		.loc 1 404 5 view .LVU308
 814 0044 00F11403 		add	r3, r0, #20
 815              		.loc 1 405 21 is_stmt 0 view .LVU309
 816 0048 0022     		movs	r2, #0
 817              		.loc 1 404 5 view .LVU310
 818 004a C4E90231 		strd	r3, r1, [r4, #8]
 819              		.loc 1 404 5 is_stmt 1 view .LVU311
 820 004e 8C60     		str	r4, [r1, #8]
 821              		.loc 1 404 5 view .LVU312
 822 0050 0123     		movs	r3, #1
 823 0052 0462     		str	r4, [r0, #32]
 824              		.loc 1 404 31 view .LVU313
 825              		.loc 1 405 5 view .LVU314
 826              		.loc 1 406 21 is_stmt 0 view .LVU315
 827 0054 C4E90422 		strd	r2, r2, [r4, #16]
 828              		.loc 1 407 5 is_stmt 1 view .LVU316
 829 0058 E7E7     		b	.L30
 830              	.L31:
 831              		.loc 1 417 7 view .LVU317
 832 005a 026A     		ldr	r2, [r0, #32]
 833 005c 00F11401 		add	r1, r0, #20
 834 0060 C4E90212 		strd	r1, r2, [r4, #8]
 835              		.loc 1 417 7 view .LVU318
 836 0064 9460     		str	r4, [r2, #8]
 837              		.loc 1 417 7 view .LVU319
 838 0066 0462     		str	r4, [r0, #32]
 839 0068 DBE7     		b	.L32
 840              	.LVL46:
 841              	.L34:
 842              		.loc 1 395 5 view .LVU320
 843              		.loc 1 395 21 is_stmt 0 view .LVU321
 844 006a 03F01A03 		and	r3, r3, #26
 845              		.loc 1 396 5 view .LVU322
 846 006e 01F11800 		add	r0, r1, #24
 847              	.LVL47:
 848              		.loc 1 429 1 view .LVU323
 849 0072 BDE81040 		pop	{r4, lr}
 850              		.cfi_restore 14
 851              		.cfi_restore 4
 852              		.cfi_def_cfa_offset 0
 853              		.loc 1 395 21 view .LVU324
 854 0076 4B62     		str	r3, [r1, #36]
 855              		.loc 1 396 5 is_stmt 1 view .LVU325
ARM GAS  C:\Users\DEVELO~1\AppData\Local\Temp\ccxLywSW.s 			page 16


 856 0078 FFF7FEBF 		b	chSemSignalI
 857              	.LVL48:
 858              		.loc 1 396 5 is_stmt 0 view .LVU326
 859              		.cfi_endproc
 860              	.LFE350:
 861              		.size	chCacheReleaseObjectI, .-chCacheReleaseObjectI
 862              		.section	.text.chCacheReadObject,"ax",%progbits
 863              		.align	1
 864              		.p2align 4,,15
 865              		.global	chCacheReadObject
 866              		.syntax unified
 867              		.thumb
 868              		.thumb_func
 869              		.type	chCacheReadObject, %function
 870              	chCacheReadObject:
 871              	.LVL49:
 872              	.LFB351:
 873              		.loc 1 450 36 is_stmt 1 view -0
 874              		.cfi_startproc
 875              		@ args = 0, pretend = 0, frame = 0
 876              		@ frame_needed = 0, uses_anonymous_args = 0
 877              		@ link register save eliminated.
 878              		.loc 1 455 3 view .LVU328
 879              		.loc 1 450 36 is_stmt 0 view .LVU329
 880 0000 30B4     		push	{r4, r5}
 881              		.cfi_def_cfa_offset 8
 882              		.cfi_offset 4, -8
 883              		.cfi_offset 5, -4
 884              		.loc 1 455 19 view .LVU330
 885 0002 4C6A     		ldr	r4, [r1, #36]
 886              		.loc 1 457 10 view .LVU331
 887 0004 C56B     		ldr	r5, [r0, #60]
 888              		.loc 1 455 19 view .LVU332
 889 0006 44F00804 		orr	r4, r4, #8
 890              		.loc 1 457 10 view .LVU333
 891 000a 2B46     		mov	r3, r5
 892              		.loc 1 455 19 view .LVU334
 893 000c 4C62     		str	r4, [r1, #36]
 894              		.loc 1 457 3 is_stmt 1 view .LVU335
 895              		.loc 1 458 1 is_stmt 0 view .LVU336
 896 000e 30BC     		pop	{r4, r5}
 897              		.cfi_restore 5
 898              		.cfi_restore 4
 899              		.cfi_def_cfa_offset 0
 900              		.loc 1 457 10 view .LVU337
 901 0010 1847     		bx	r3
 902              	.LVL50:
 903              		.loc 1 457 10 view .LVU338
 904              		.cfi_endproc
 905              	.LFE351:
 906              		.size	chCacheReadObject, .-chCacheReadObject
 907 0012 00BF     		.section	.text.chCacheWriteObject,"ax",%progbits
 908              		.align	1
 909              		.p2align 4,,15
 910              		.global	chCacheWriteObject
 911              		.syntax unified
 912              		.thumb
ARM GAS  C:\Users\DEVELO~1\AppData\Local\Temp\ccxLywSW.s 			page 17


 913              		.thumb_func
 914              		.type	chCacheWriteObject, %function
 915              	chCacheWriteObject:
 916              	.LVL51:
 917              	.LFB352:
 918              		.loc 1 479 37 is_stmt 1 view -0
 919              		.cfi_startproc
 920              		@ args = 0, pretend = 0, frame = 0
 921              		@ frame_needed = 0, uses_anonymous_args = 0
 922              		@ link register save eliminated.
 923              		.loc 1 483 3 view .LVU340
 924              		.loc 1 479 37 is_stmt 0 view .LVU341
 925 0000 30B4     		push	{r4, r5}
 926              		.cfi_def_cfa_offset 8
 927              		.cfi_offset 4, -8
 928              		.cfi_offset 5, -4
 929              		.loc 1 483 19 view .LVU342
 930 0002 4C6A     		ldr	r4, [r1, #36]
 931              		.loc 1 485 10 view .LVU343
 932 0004 056C     		ldr	r5, [r0, #64]
 933              		.loc 1 483 19 view .LVU344
 934 0006 24F01004 		bic	r4, r4, #16
 935              		.loc 1 485 10 view .LVU345
 936 000a 2B46     		mov	r3, r5
 937              		.loc 1 483 19 view .LVU346
 938 000c 4C62     		str	r4, [r1, #36]
 939              		.loc 1 485 3 is_stmt 1 view .LVU347
 940              		.loc 1 486 1 is_stmt 0 view .LVU348
 941 000e 30BC     		pop	{r4, r5}
 942              		.cfi_restore 5
 943              		.cfi_restore 4
 944              		.cfi_def_cfa_offset 0
 945              		.loc 1 485 10 view .LVU349
 946 0010 1847     		bx	r3
 947              	.LVL52:
 948              		.loc 1 485 10 view .LVU350
 949              		.cfi_endproc
 950              	.LFE352:
 951              		.size	chCacheWriteObject, .-chCacheWriteObject
 952 0012 00BF     		.text
 953              	.Letext0:
 954              		.file 6 "c:\\chibistudio\\tools\\gnu tools arm embedded\\11.3 2022.08\\lib\\gcc\\arm-none-eabi\\11
 955              		.file 7 "c:\\chibistudio\\tools\\gnu tools arm embedded\\11.3 2022.08\\arm-none-eabi\\include\\mac
 956              		.file 8 "c:\\chibistudio\\tools\\gnu tools arm embedded\\11.3 2022.08\\arm-none-eabi\\include\\sys
 957              		.file 9 "../../../os/rt/include/chearly.h"
 958              		.file 10 "../../../os/rt/include/chlists.h"
 959              		.file 11 "../../../os/oslib/include/chobjcaches.h"