ARM GAS  C:\Users\DEVELO~1\AppData\Local\Temp\ccDT4N4n.s 			page 1


   1              		.cpu cortex-m7
   2              		.arch armv7e-m
   3              		.fpu softvfp
   4              		.eabi_attribute 20, 1
   5              		.eabi_attribute 21, 1
   6              		.eabi_attribute 23, 3
   7              		.eabi_attribute 24, 1
   8              		.eabi_attribute 25, 1
   9              		.eabi_attribute 26, 1
  10              		.eabi_attribute 30, 2
  11              		.eabi_attribute 34, 1
  12              		.eabi_attribute 18, 4
  13              		.file	"chprintf.c"
  14              		.text
  15              	.Ltext0:
  16              		.cfi_sections	.debug_frame
  17              		.section	.rodata.chvprintf.str1.4,"aMS",%progbits,1
  18              		.align	2
  19              	.LC0:
  20 0000 286E756C 		.ascii	"(null)\000"
  20      6C2900
  21              		.section	.text.chvprintf,"ax",%progbits
  22              		.align	1
  23              		.p2align 4,,15
  24              		.global	chvprintf
  25              		.syntax unified
  26              		.thumb
  27              		.thumb_func
  28              		.type	chvprintf, %function
  29              	chvprintf:
  30              	.LVL0:
  31              	.LFB434:
  32              		.file 1 "../../../os/hal/lib/streams/chprintf.c"
  33              		.loc 1 124 71 view -0
  34              		.cfi_startproc
  35              		@ args = 0, pretend = 0, frame = 24
  36              		@ frame_needed = 0, uses_anonymous_args = 0
  37              		.loc 1 138 13 is_stmt 0 view .LVU1
  38 0000 0B46     		mov	r3, r1
  39              		.loc 1 124 71 view .LVU2
  40 0002 2DE9F04F 		push	{r4, r5, r6, r7, r8, r9, r10, fp, lr}
  41              		.cfi_def_cfa_offset 36
  42              		.cfi_offset 4, -36
  43              		.cfi_offset 5, -32
  44              		.cfi_offset 6, -28
  45              		.cfi_offset 7, -24
  46              		.cfi_offset 8, -20
  47              		.cfi_offset 9, -16
  48              		.cfi_offset 10, -12
  49              		.cfi_offset 11, -8
  50              		.cfi_offset 14, -4
  51 0006 0E46     		mov	r6, r1
  52 0008 87B0     		sub	sp, sp, #28
  53              		.cfi_def_cfa_offset 64
  54              		.loc 1 138 7 view .LVU3
  55 000a 13F8011B 		ldrb	r1, [r3], #1	@ zero_extendqisi2
  56              	.LVL1:
ARM GAS  C:\Users\DEVELO~1\AppData\Local\Temp\ccDT4N4n.s 			page 2


  57              		.loc 1 124 71 view .LVU4
  58 000e 0192     		str	r2, [sp, #4]
  59              	.LVL2:
  60              		.loc 1 125 3 is_stmt 1 view .LVU5
  61              		.loc 1 126 3 view .LVU6
  62              		.loc 1 127 3 view .LVU7
  63              		.loc 1 128 3 view .LVU8
  64              		.loc 1 129 3 view .LVU9
  65              		.loc 1 134 3 view .LVU10
  66              		.loc 1 137 3 view .LVU11
  67              		.loc 1 138 5 view .LVU12
  68              		.loc 1 139 5 view .LVU13
  69              		.loc 1 139 8 is_stmt 0 view .LVU14
  70 0010 0029     		cmp	r1, #0
  71 0012 00F00F82 		beq	.L64
  72 0016 0446     		mov	r4, r0
  73              		.loc 1 127 7 view .LVU15
  74 0018 4FF00009 		mov	r9, #0
  75 001c 0CE0     		b	.L3
  76              	.LVL3:
  77              	.L133:
  78              		.loc 1 144 7 is_stmt 1 discriminator 1 view .LVU16
  79 001e 2268     		ldr	r2, [r4]
  80              	.LVL4:
  81              		.loc 1 144 7 is_stmt 0 discriminator 1 view .LVU17
  82 0020 2046     		mov	r0, r4
  83              		.loc 1 145 8 discriminator 1 view .LVU18
  84 0022 09F10109 		add	r9, r9, #1
  85              	.LVL5:
  86              		.loc 1 146 7 discriminator 1 view .LVU19
  87 0026 1E46     		mov	r6, r3
  88              		.loc 1 144 7 discriminator 1 view .LVU20
  89 0028 D268     		ldr	r2, [r2, #12]
  90 002a 9047     		blx	r2
  91              	.LVL6:
  92              		.loc 1 145 7 is_stmt 1 discriminator 1 view .LVU21
  93              		.loc 1 146 7 discriminator 1 view .LVU22
  94              	.L5:
  95              		.loc 1 128 3 view .LVU23
  96              		.loc 1 129 3 view .LVU24
  97              		.loc 1 134 3 view .LVU25
  98              		.loc 1 137 3 view .LVU26
  99              		.loc 1 138 5 view .LVU27
 100              		.loc 1 138 13 is_stmt 0 view .LVU28
 101 002c 3346     		mov	r3, r6
 102              	.LVL7:
 103              		.loc 1 138 7 view .LVU29
 104 002e 13F8011B 		ldrb	r1, [r3], #1	@ zero_extendqisi2
 105              	.LVL8:
 106              		.loc 1 139 5 is_stmt 1 view .LVU30
 107              		.loc 1 139 8 is_stmt 0 view .LVU31
 108 0032 0029     		cmp	r1, #0
 109 0034 00F0DF80 		beq	.L1
 110              	.LVL9:
 111              	.L3:
 112              		.loc 1 143 5 is_stmt 1 view .LVU32
 113              		.loc 1 143 8 is_stmt 0 view .LVU33
ARM GAS  C:\Users\DEVELO~1\AppData\Local\Temp\ccDT4N4n.s 			page 3


 114 0038 2529     		cmp	r1, #37
 115 003a F0D1     		bne	.L133
 116              		.loc 1 149 5 is_stmt 1 view .LVU34
 117              	.LVL10:
 118              		.loc 1 150 5 view .LVU35
 119              		.loc 1 153 5 view .LVU36
 120              		.loc 1 154 5 view .LVU37
 121              		.loc 1 154 8 is_stmt 0 view .LVU38
 122 003c 7278     		ldrb	r2, [r6, #1]	@ zero_extendqisi2
 123              	.LVL11:
 124              		.loc 1 154 8 view .LVU39
 125 003e 2D2A     		cmp	r2, #45
 126 0040 00F0C580 		beq	.L134
 127              		.loc 1 153 16 view .LVU40
 128 0044 4FF0000E 		mov	lr, #0
 129              	.LVL12:
 130              	.L6:
 131              		.loc 1 160 5 is_stmt 1 view .LVU41
 132              		.loc 1 161 5 view .LVU42
 133              		.loc 1 161 9 is_stmt 0 view .LVU43
 134 0048 1978     		ldrb	r1, [r3]	@ zero_extendqisi2
 135              	.LVL13:
 136              		.loc 1 161 8 view .LVU44
 137 004a 2B29     		cmp	r1, #43
 138 004c 00F0BB80 		beq	.L135
 139              		.loc 1 160 13 view .LVU45
 140 0050 0025     		movs	r5, #0
 141              	.LVL14:
 142              	.L7:
 143              		.loc 1 167 5 is_stmt 1 view .LVU46
 144              		.loc 1 168 5 view .LVU47
 145              		.loc 1 168 8 is_stmt 0 view .LVU48
 146 0052 3029     		cmp	r1, #48
 147 0054 00F0B380 		beq	.L136
 148              		.loc 1 167 12 view .LVU49
 149 0058 2027     		movs	r7, #32
 150              	.LVL15:
 151              	.L8:
 152              		.loc 1 174 5 is_stmt 1 view .LVU50
 153              		.loc 1 174 8 is_stmt 0 view .LVU51
 154 005a 2A29     		cmp	r1, #42
 155 005c 4DD1     		bne	.L9
 156              		.loc 1 175 7 is_stmt 1 view .LVU52
 157              		.loc 1 177 9 is_stmt 0 view .LVU53
 158 005e 5978     		ldrb	r1, [r3, #1]	@ zero_extendqisi2
 159              		.loc 1 177 15 view .LVU54
 160 0060 9E1C     		adds	r6, r3, #2
 161              		.loc 1 175 13 view .LVU55
 162 0062 DDF804A0 		ldr	r10, [sp, #4]
 163              	.LVL16:
 164              		.loc 1 198 8 view .LVU56
 165 0066 2E29     		cmp	r1, #46
 166              		.loc 1 175 13 view .LVU57
 167 0068 5AF8042B 		ldr	r2, [r10], #4
 168              	.LVL17:
 169              		.loc 1 176 7 is_stmt 1 view .LVU58
 170              		.loc 1 177 7 view .LVU59
ARM GAS  C:\Users\DEVELO~1\AppData\Local\Temp\ccDT4N4n.s 			page 4


 171              		.loc 1 197 5 view .LVU60
 172              		.loc 1 198 5 view .LVU61
 173              		.loc 1 198 8 is_stmt 0 view .LVU62
 174 006c 5BD0     		beq	.L137
 175              	.LVL18:
 176              	.L69:
 177              		.loc 1 197 15 view .LVU63
 178 006e 0020     		movs	r0, #0
 179              	.LVL19:
 180              	.L12:
 181              		.loc 1 220 5 is_stmt 1 view .LVU64
 182              		.loc 1 220 8 is_stmt 0 view .LVU65
 183 0070 01F0DF03 		and	r3, r1, #223
 184 0074 4C2B     		cmp	r3, #76
 185 0076 63D1     		bne	.L16
 186              	.L140:
 187              		.loc 1 221 7 is_stmt 1 view .LVU66
 188              	.LVL20:
 189              		.loc 1 222 7 view .LVU67
 190              		.loc 1 222 9 is_stmt 0 view .LVU68
 191 0078 16F8011B 		ldrb	r1, [r6], #1	@ zero_extendqisi2
 192              	.LVL21:
 193              		.loc 1 223 7 is_stmt 1 view .LVU69
 194              		.loc 1 223 10 is_stmt 0 view .LVU70
 195 007c 0029     		cmp	r1, #0
 196 007e 00F0BA80 		beq	.L1
 197              		.loc 1 232 5 is_stmt 1 view .LVU71
 198 0082 A1F14403 		sub	r3, r1, #68
 199 0086 342B     		cmp	r3, #52
 200 0088 00F2B980 		bhi	.L18
 201 008c DFE813F0 		tbh	[pc, r3, lsl #1]
 202              	.L59:
 203 0090 A001     		.2byte	(.L36-.L59)/2
 204 0092 B700     		.2byte	(.L18-.L59)/2
 205 0094 B700     		.2byte	(.L18-.L59)/2
 206 0096 B700     		.2byte	(.L18-.L59)/2
 207 0098 B700     		.2byte	(.L18-.L59)/2
 208 009a A001     		.2byte	(.L36-.L59)/2
 209 009c B700     		.2byte	(.L18-.L59)/2
 210 009e B700     		.2byte	(.L18-.L59)/2
 211 00a0 B700     		.2byte	(.L18-.L59)/2
 212 00a2 B700     		.2byte	(.L18-.L59)/2
 213 00a4 B700     		.2byte	(.L18-.L59)/2
 214 00a6 3601     		.2byte	(.L61-.L59)/2
 215 00a8 E700     		.2byte	(.L76-.L59)/2
 216 00aa B700     		.2byte	(.L18-.L59)/2
 217 00ac B700     		.2byte	(.L18-.L59)/2
 218 00ae B700     		.2byte	(.L18-.L59)/2
 219 00b0 B700     		.2byte	(.L18-.L59)/2
 220 00b2 C601     		.2byte	(.L60-.L59)/2
 221 00b4 B700     		.2byte	(.L18-.L59)/2
 222 00b6 B700     		.2byte	(.L18-.L59)/2
 223 00b8 E700     		.2byte	(.L76-.L59)/2
 224 00ba B700     		.2byte	(.L18-.L59)/2
 225 00bc B700     		.2byte	(.L18-.L59)/2
 226 00be B700     		.2byte	(.L18-.L59)/2
 227 00c0 B700     		.2byte	(.L18-.L59)/2
ARM GAS  C:\Users\DEVELO~1\AppData\Local\Temp\ccDT4N4n.s 			page 5


 228 00c2 B700     		.2byte	(.L18-.L59)/2
 229 00c4 B700     		.2byte	(.L18-.L59)/2
 230 00c6 B700     		.2byte	(.L18-.L59)/2
 231 00c8 B700     		.2byte	(.L18-.L59)/2
 232 00ca B700     		.2byte	(.L18-.L59)/2
 233 00cc B700     		.2byte	(.L18-.L59)/2
 234 00ce 5901     		.2byte	(.L25-.L59)/2
 235 00d0 A001     		.2byte	(.L36-.L59)/2
 236 00d2 B700     		.2byte	(.L18-.L59)/2
 237 00d4 B700     		.2byte	(.L18-.L59)/2
 238 00d6 B700     		.2byte	(.L18-.L59)/2
 239 00d8 B700     		.2byte	(.L18-.L59)/2
 240 00da A001     		.2byte	(.L36-.L59)/2
 241 00dc B700     		.2byte	(.L18-.L59)/2
 242 00de B700     		.2byte	(.L18-.L59)/2
 243 00e0 B700     		.2byte	(.L18-.L59)/2
 244 00e2 B700     		.2byte	(.L18-.L59)/2
 245 00e4 B700     		.2byte	(.L18-.L59)/2
 246 00e6 3601     		.2byte	(.L61-.L59)/2
 247 00e8 E700     		.2byte	(.L76-.L59)/2
 248 00ea B700     		.2byte	(.L18-.L59)/2
 249 00ec B700     		.2byte	(.L18-.L59)/2
 250 00ee 3901     		.2byte	(.L22-.L59)/2
 251 00f0 B700     		.2byte	(.L18-.L59)/2
 252 00f2 C601     		.2byte	(.L60-.L59)/2
 253 00f4 B700     		.2byte	(.L18-.L59)/2
 254 00f6 B700     		.2byte	(.L18-.L59)/2
 255 00f8 E700     		.2byte	(.L76-.L59)/2
 256              	.LVL22:
 257              		.p2align 1
 258              	.L9:
 259              		.loc 1 181 7 view .LVU72
 260              		.loc 1 182 9 view .LVU73
 261              		.loc 1 182 17 is_stmt 0 view .LVU74
 262 00fa 5E1C     		adds	r6, r3, #1
 263              	.LVL23:
 264              		.loc 1 183 9 is_stmt 1 view .LVU75
 265              		.loc 1 183 12 is_stmt 0 view .LVU76
 266 00fc 0029     		cmp	r1, #0
 267 00fe 7AD0     		beq	.L1
 268              		.loc 1 180 13 view .LVU77
 269 0100 0022     		movs	r2, #0
 270 0102 05E0     		b	.L11
 271              	.LVL24:
 272              	.L138:
 273              		.loc 1 182 11 view .LVU78
 274 0104 16F8011B 		ldrb	r1, [r6], #1	@ zero_extendqisi2
 275              	.LVL25:
 276              		.loc 1 188 17 view .LVU79
 277 0108 03EB4002 		add	r2, r3, r0, lsl #1
 278              		.loc 1 181 13 is_stmt 1 view .LVU80
 279              	.LVL26:
 280              		.loc 1 181 7 view .LVU81
 281              		.loc 1 182 9 view .LVU82
 282              		.loc 1 183 9 view .LVU83
 283              		.loc 1 183 12 is_stmt 0 view .LVU84
 284 010c 0029     		cmp	r1, #0
ARM GAS  C:\Users\DEVELO~1\AppData\Local\Temp\ccDT4N4n.s 			page 6


 285 010e 72D0     		beq	.L1
 286              	.LVL27:
 287              	.L11:
 288              		.loc 1 186 9 is_stmt 1 view .LVU85
 289              		.loc 1 187 11 view .LVU86
 290              		.loc 1 186 22 is_stmt 0 view .LVU87
 291 0110 A1F13003 		sub	r3, r1, #48
 292              		.loc 1 188 25 view .LVU88
 293 0114 02EB8200 		add	r0, r2, r2, lsl #2
 294              		.loc 1 186 22 view .LVU89
 295 0118 DBB2     		uxtb	r3, r3
 296              	.LVL28:
 297              		.loc 1 188 11 is_stmt 1 view .LVU90
 298              		.loc 1 186 12 is_stmt 0 view .LVU91
 299 011a 092B     		cmp	r3, #9
 300 011c F2D9     		bls	.L138
 301              		.loc 1 198 8 view .LVU92
 302 011e 2E29     		cmp	r1, #46
 303 0120 DDF804A0 		ldr	r10, [sp, #4]
 304              	.LVL29:
 305              		.loc 1 197 5 is_stmt 1 view .LVU93
 306              		.loc 1 198 5 view .LVU94
 307              		.loc 1 198 8 is_stmt 0 view .LVU95
 308 0124 A3D1     		bne	.L69
 309              	.LVL30:
 310              	.L137:
 311              		.loc 1 199 7 is_stmt 1 view .LVU96
 312              		.loc 1 199 9 is_stmt 0 view .LVU97
 313 0126 3178     		ldrb	r1, [r6]	@ zero_extendqisi2
 314              	.LVL31:
 315              		.loc 1 200 7 is_stmt 1 view .LVU98
 316              		.loc 1 200 10 is_stmt 0 view .LVU99
 317 0128 0029     		cmp	r1, #0
 318 012a 64D0     		beq	.L1
 319              		.loc 1 203 7 is_stmt 1 view .LVU100
 320              		.loc 1 203 10 is_stmt 0 view .LVU101
 321 012c 2A29     		cmp	r1, #42
 322 012e 52D1     		bne	.L139
 323              		.loc 1 204 9 is_stmt 1 view .LVU102
 324              	.LVL32:
 325              		.loc 1 205 11 is_stmt 0 view .LVU103
 326 0130 7178     		ldrb	r1, [r6, #1]	@ zero_extendqisi2
 327              	.LVL33:
 328              		.loc 1 205 17 view .LVU104
 329 0132 0236     		adds	r6, r6, #2
 330              	.LVL34:
 331              		.loc 1 204 19 view .LVU105
 332 0134 5AF8040B 		ldr	r0, [r10], #4
 333              	.LVL35:
 334              		.loc 1 205 9 is_stmt 1 view .LVU106
 335              		.loc 1 220 5 view .LVU107
 336              		.loc 1 220 8 is_stmt 0 view .LVU108
 337 0138 01F0DF03 		and	r3, r1, #223
 338 013c 4C2B     		cmp	r3, #76
 339 013e 9BD0     		beq	.L140
 340              	.L16:
 341              		.loc 1 228 7 is_stmt 1 view .LVU109
ARM GAS  C:\Users\DEVELO~1\AppData\Local\Temp\ccDT4N4n.s 			page 7


 342              		.loc 1 228 28 is_stmt 0 view .LVU110
 343 0140 A1F14103 		sub	r3, r1, #65
 344              		.loc 1 232 5 view .LVU111
 345 0144 A1F1440C 		sub	ip, r1, #68
 346              		.loc 1 228 28 view .LVU112
 347 0148 DBB2     		uxtb	r3, r3
 348              	.LVL36:
 349              		.loc 1 232 5 is_stmt 1 view .LVU113
 350 014a BCF1340F 		cmp	ip, #52
 351 014e 56D8     		bhi	.L18
 352 0150 DFE81CF0 		tbh	[pc, ip, lsl #1]
 353              	.L20:
 354 0154 0901     		.2byte	(.L24-.L20)/2
 355 0156 5500     		.2byte	(.L18-.L20)/2
 356 0158 5500     		.2byte	(.L18-.L20)/2
 357 015a 5500     		.2byte	(.L18-.L20)/2
 358 015c 5500     		.2byte	(.L18-.L20)/2
 359 015e 0901     		.2byte	(.L24-.L20)/2
 360 0160 5500     		.2byte	(.L18-.L20)/2
 361 0162 5500     		.2byte	(.L18-.L20)/2
 362 0164 5500     		.2byte	(.L18-.L20)/2
 363 0166 5500     		.2byte	(.L18-.L20)/2
 364 0168 5500     		.2byte	(.L18-.L20)/2
 365 016a D400     		.2byte	(.L61-.L20)/2
 366 016c 8500     		.2byte	(.L76-.L20)/2
 367 016e 5500     		.2byte	(.L18-.L20)/2
 368 0170 5500     		.2byte	(.L18-.L20)/2
 369 0172 5500     		.2byte	(.L18-.L20)/2
 370 0174 5500     		.2byte	(.L18-.L20)/2
 371 0176 6401     		.2byte	(.L60-.L20)/2
 372 0178 5500     		.2byte	(.L18-.L20)/2
 373 017a 5500     		.2byte	(.L18-.L20)/2
 374 017c 8500     		.2byte	(.L76-.L20)/2
 375 017e 5500     		.2byte	(.L18-.L20)/2
 376 0180 5500     		.2byte	(.L18-.L20)/2
 377 0182 5500     		.2byte	(.L18-.L20)/2
 378 0184 5500     		.2byte	(.L18-.L20)/2
 379 0186 5500     		.2byte	(.L18-.L20)/2
 380 0188 5500     		.2byte	(.L18-.L20)/2
 381 018a 5500     		.2byte	(.L18-.L20)/2
 382 018c 5500     		.2byte	(.L18-.L20)/2
 383 018e 5500     		.2byte	(.L18-.L20)/2
 384 0190 5500     		.2byte	(.L18-.L20)/2
 385 0192 F700     		.2byte	(.L25-.L20)/2
 386 0194 0901     		.2byte	(.L24-.L20)/2
 387 0196 5500     		.2byte	(.L18-.L20)/2
 388 0198 5500     		.2byte	(.L18-.L20)/2
 389 019a 5500     		.2byte	(.L18-.L20)/2
 390 019c 5500     		.2byte	(.L18-.L20)/2
 391 019e 0901     		.2byte	(.L24-.L20)/2
 392 01a0 5500     		.2byte	(.L18-.L20)/2
 393 01a2 5500     		.2byte	(.L18-.L20)/2
 394 01a4 5500     		.2byte	(.L18-.L20)/2
 395 01a6 5500     		.2byte	(.L18-.L20)/2
 396 01a8 5500     		.2byte	(.L18-.L20)/2
 397 01aa D400     		.2byte	(.L61-.L20)/2
 398 01ac 8500     		.2byte	(.L76-.L20)/2
ARM GAS  C:\Users\DEVELO~1\AppData\Local\Temp\ccDT4N4n.s 			page 8


 399 01ae 5500     		.2byte	(.L18-.L20)/2
 400 01b0 5500     		.2byte	(.L18-.L20)/2
 401 01b2 D700     		.2byte	(.L22-.L20)/2
 402 01b4 5500     		.2byte	(.L18-.L20)/2
 403 01b6 6401     		.2byte	(.L60-.L20)/2
 404 01b8 5500     		.2byte	(.L18-.L20)/2
 405 01ba 5500     		.2byte	(.L18-.L20)/2
 406 01bc 8500     		.2byte	(.L76-.L20)/2
 407              	.LVL37:
 408              		.p2align 1
 409              	.L136:
 410              		.loc 1 169 7 view .LVU114
 411              		.loc 1 170 7 view .LVU115
 412              		.loc 1 169 10 is_stmt 0 view .LVU116
 413 01be 0133     		adds	r3, r3, #1
 414              	.LVL38:
 415              		.loc 1 170 14 view .LVU117
 416 01c0 0F46     		mov	r7, r1
 417              		.loc 1 174 10 view .LVU118
 418 01c2 1978     		ldrb	r1, [r3]	@ zero_extendqisi2
 419 01c4 49E7     		b	.L8
 420              	.LVL39:
 421              	.L135:
 422              		.loc 1 162 7 is_stmt 1 view .LVU119
 423              		.loc 1 163 7 view .LVU120
 424              		.loc 1 168 9 is_stmt 0 view .LVU121
 425 01c6 5978     		ldrb	r1, [r3, #1]	@ zero_extendqisi2
 426              		.loc 1 163 15 view .LVU122
 427 01c8 0125     		movs	r5, #1
 428              		.loc 1 162 10 view .LVU123
 429 01ca 0133     		adds	r3, r3, #1
 430              	.LVL40:
 431              		.loc 1 162 10 view .LVU124
 432 01cc 41E7     		b	.L7
 433              	.LVL41:
 434              	.L134:
 435              		.loc 1 155 7 is_stmt 1 view .LVU125
 436              		.loc 1 155 10 is_stmt 0 view .LVU126
 437 01ce B31C     		adds	r3, r6, #2
 438              	.LVL42:
 439              		.loc 1 156 7 is_stmt 1 view .LVU127
 440              		.loc 1 156 18 is_stmt 0 view .LVU128
 441 01d0 4FF0010E 		mov	lr, #1
 442 01d4 38E7     		b	.L6
 443              	.LVL43:
 444              	.L139:
 445              		.loc 1 199 15 view .LVU129
 446 01d6 0136     		adds	r6, r6, #1
 447              	.LVL44:
 448              		.loc 1 197 15 view .LVU130
 449 01d8 0020     		movs	r0, #0
 450              	.LVL45:
 451              	.L14:
 452              		.loc 1 209 11 is_stmt 1 view .LVU131
 453              		.loc 1 208 25 view .LVU132
 454 01da A1F13003 		sub	r3, r1, #48
 455              		.loc 1 210 33 is_stmt 0 view .LVU133
ARM GAS  C:\Users\DEVELO~1\AppData\Local\Temp\ccDT4N4n.s 			page 9


 456 01de 00EB800C 		add	ip, r0, r0, lsl #2
 457              		.loc 1 208 25 view .LVU134
 458 01e2 DBB2     		uxtb	r3, r3
 459              	.LVL46:
 460              		.loc 1 210 11 is_stmt 1 view .LVU135
 461              		.loc 1 208 25 is_stmt 0 view .LVU136
 462 01e4 092B     		cmp	r3, #9
 463 01e6 3FF643AF 		bhi	.L12
 464              		.loc 1 211 13 view .LVU137
 465 01ea 16F8011B 		ldrb	r1, [r6], #1	@ zero_extendqisi2
 466              	.LVL47:
 467              		.loc 1 210 21 view .LVU138
 468 01ee 03EB4C00 		add	r0, r3, ip, lsl #1
 469              	.LVL48:
 470              		.loc 1 211 11 is_stmt 1 view .LVU139
 471              		.loc 1 212 11 view .LVU140
 472              		.loc 1 212 14 is_stmt 0 view .LVU141
 473 01f2 0029     		cmp	r1, #0
 474 01f4 F1D1     		bne	.L14
 475              	.LVL49:
 476              	.L1:
 477              		.loc 1 338 1 view .LVU142
 478 01f6 4846     		mov	r0, r9
 479 01f8 07B0     		add	sp, sp, #28
 480              		.cfi_remember_state
 481              		.cfi_def_cfa_offset 36
 482              		@ sp needed
 483 01fa BDE8F08F 		pop	{r4, r5, r6, r7, r8, r9, r10, fp, pc}
 484              	.LVL50:
 485              	.L18:
 486              		.cfi_restore_state
 487              		.loc 1 306 7 is_stmt 1 view .LVU143
 488              		.loc 1 306 7 is_stmt 0 view .LVU144
 489 01fe 013A     		subs	r2, r2, #1
 490              		.loc 1 306 12 view .LVU145
 491 0200 8DF80C10 		strb	r1, [sp, #12]
 492              		.loc 1 307 7 is_stmt 1 view .LVU146
 493              	.LVL51:
 494              		.loc 1 309 5 view .LVU147
 495              		.loc 1 310 5 view .LVU148
 496              		.loc 1 307 7 is_stmt 0 view .LVU149
 497 0204 CDF804A0 		str	r10, [sp, #4]
 498              	.LVL52:
 499              		.loc 1 307 7 view .LVU150
 500 0208 22EAE27B 		bic	fp, r2, r2, asr #31
 501              	.LVL53:
 502              		.loc 1 313 5 is_stmt 1 view .LVU151
 503              		.loc 1 313 8 is_stmt 0 view .LVU152
 504 020c BEF1000F 		cmp	lr, #0
 505 0210 40F0A580 		bne	.L81
 506              	.L145:
 507              		.loc 1 316 8 view .LVU153
 508 0214 002A     		cmp	r2, #0
 509              		.loc 1 313 8 view .LVU154
 510 0216 7546     		mov	r5, lr
 511              	.LVL54:
 512              		.loc 1 313 8 view .LVU155
ARM GAS  C:\Users\DEVELO~1\AppData\Local\Temp\ccDT4N4n.s 			page 10


 513 0218 0DF10C0A 		add	r10, sp, #12
 514              	.LVL55:
 515              		.loc 1 314 7 is_stmt 1 view .LVU156
 516              		.loc 1 314 13 is_stmt 0 view .LVU157
 517 021c CBF1000B 		rsb	fp, fp, #0
 518              	.LVL56:
 519              		.loc 1 316 5 is_stmt 1 view .LVU158
 520              		.loc 1 316 8 is_stmt 0 view .LVU159
 521 0220 53DC     		bgt	.L141
 522              	.LVL57:
 523              	.L50:
 524              		.loc 1 327 16 is_stmt 1 view .LVU160
 525 0222 002D     		cmp	r5, #0
 526 0224 0DDB     		blt	.L55
 527              	.LVL58:
 528              	.L56:
 529              		.loc 1 327 16 is_stmt 0 view .LVU161
 530 0226 05F10108 		add	r8, r5, #1
 531 022a D044     		add	r8, r8, r10
 532              	.L54:
 533              	.LVL59:
 534              		.loc 1 328 7 is_stmt 1 view .LVU162
 535              		.loc 1 328 7 is_stmt 0 view .LVU163
 536 022c 2368     		ldr	r3, [r4]
 537 022e 2046     		mov	r0, r4
 538 0230 1AF8011B 		ldrb	r1, [r10], #1	@ zero_extendqisi2
 539              	.LVL60:
 540              		.loc 1 328 7 view .LVU164
 541 0234 DB68     		ldr	r3, [r3, #12]
 542 0236 9847     		blx	r3
 543              	.LVL61:
 544              		.loc 1 329 7 is_stmt 1 view .LVU165
 545              		.loc 1 327 16 view .LVU166
 546              		.loc 1 327 16 is_stmt 0 view .LVU167
 547 0238 C245     		cmp	r10, r8
 548 023a F7D1     		bne	.L54
 549 023c 09F10109 		add	r9, r9, #1
 550              		.loc 1 329 8 view .LVU168
 551 0240 A944     		add	r9, r9, r5
 552              	.L55:
 553              	.LVL62:
 554              		.loc 1 332 12 is_stmt 1 view .LVU169
 555 0242 BBF1000F 		cmp	fp, #0
 556 0246 3FF4F1AE 		beq	.L5
 557 024a 5D46     		mov	r5, fp
 558              	.LVL63:
 559              	.L57:
 560              		.loc 1 333 7 view .LVU170
 561 024c 2368     		ldr	r3, [r4]
 562 024e 3946     		mov	r1, r7
 563 0250 2046     		mov	r0, r4
 564 0252 DB68     		ldr	r3, [r3, #12]
 565 0254 9847     		blx	r3
 566              	.LVL64:
 567              		.loc 1 334 7 view .LVU171
 568              		.loc 1 335 7 view .LVU172
 569              		.loc 1 332 12 view .LVU173
ARM GAS  C:\Users\DEVELO~1\AppData\Local\Temp\ccDT4N4n.s 			page 11


 570 0256 013D     		subs	r5, r5, #1
 571              	.LVL65:
 572              		.loc 1 332 12 is_stmt 0 view .LVU174
 573 0258 F8D1     		bne	.L57
 574              		.loc 1 334 8 view .LVU175
 575 025a D944     		add	r9, r9, fp
 576 025c E6E6     		b	.L5
 577              	.L21:
 578              	.LVL66:
 579              	.L76:
 580              		.loc 1 232 5 view .LVU176
 581 025e 4FF01008 		mov	r8, #16
 582              	.LVL67:
 583              		.loc 1 298 9 is_stmt 1 view .LVU177
 584              	.L43:
 585              		.loc 1 301 9 view .LVU178
 586              		.loc 1 301 13 is_stmt 0 view .LVU179
 587 0262 5346     		mov	r3, r10
 588              	.LVL68:
 589              		.loc 1 301 11 view .LVU180
 590 0264 53F8040B 		ldr	r0, [r3], #4
 591              	.LVL69:
 592              		.loc 1 301 11 view .LVU181
 593 0268 0193     		str	r3, [sp, #4]
 594              	.LVL70:
 595              		.loc 1 303 7 is_stmt 1 view .LVU182
 596              	.LBB14:
 597              	.LBI14:
 598              		.loc 1 72 14 view .LVU183
 599              		.loc 1 74 3 view .LVU184
 600              	.LBB15:
 601              	.LBI15:
 602              		.loc 1 38 14 view .LVU185
 603              	.LBB16:
 604              		.loc 1 42 3 view .LVU186
 605              		.loc 1 43 3 view .LVU187
 606              		.loc 1 44 3 view .LVU188
 607              		.loc 1 46 3 view .LVU189
 608              		.loc 1 47 3 view .LVU190
 609              		.loc 1 53 3 view .LVU191
 610              		.loc 1 53 5 is_stmt 0 view .LVU192
 611 026a 0DF11703 		add	r3, sp, #23
 612              	.LVL71:
 613              		.loc 1 53 5 view .LVU193
 614 026e 00E0     		b	.L47
 615              	.LVL72:
 616              	.L73:
 617              		.loc 1 53 5 view .LVU194
 618 0270 2B46     		mov	r3, r5
 619              	.LVL73:
 620              	.L47:
 621              		.loc 1 54 3 is_stmt 1 view .LVU195
 622              		.loc 1 55 5 view .LVU196
 623              		.loc 1 58 7 view .LVU197
 624              		.loc 1 55 17 is_stmt 0 view .LVU198
 625 0272 8446     		mov	ip, r0
 626              		.loc 1 60 10 view .LVU199
ARM GAS  C:\Users\DEVELO~1\AppData\Local\Temp\ccDT4N4n.s 			page 12


 627 0274 5D1E     		subs	r5, r3, #1
 628              		.loc 1 55 17 view .LVU200
 629 0276 B0FBF8F0 		udiv	r0, r0, r8
 630              	.LVL74:
 631              		.loc 1 55 17 view .LVU201
 632 027a 08FB10CA 		mls	r10, r8, r0, ip
 633              	.LVL75:
 634              		.loc 1 56 5 is_stmt 1 view .LVU202
 635              		.loc 1 56 7 is_stmt 0 view .LVU203
 636 027e 0AF13001 		add	r1, r10, #48
 637              	.LVL76:
 638              		.loc 1 57 5 is_stmt 1 view .LVU204
 639              		.loc 1 57 8 is_stmt 0 view .LVU205
 640 0282 3929     		cmp	r1, #57
 641              		.loc 1 58 9 view .LVU206
 642 0284 C8BF     		it	gt
 643 0286 0AF13701 		addgt	r1, r10, #55
 644              	.LVL77:
 645              		.loc 1 60 5 is_stmt 1 view .LVU207
 646              		.loc 1 62 26 is_stmt 0 view .LVU208
 647 028a C445     		cmp	ip, r8
 648              		.loc 1 60 10 view .LVU209
 649 028c C9B2     		uxtb	r1, r1
 650              	.LVL78:
 651              		.loc 1 60 10 view .LVU210
 652 028e 03F8011C 		strb	r1, [r3, #-1]
 653              		.loc 1 61 5 is_stmt 1 view .LVU211
 654              	.LVL79:
 655              		.loc 1 62 26 view .LVU212
 656              		.loc 1 62 26 is_stmt 0 view .LVU213
 657 0292 EDD2     		bcs	.L73
 658              		.loc 1 64 3 is_stmt 1 view .LVU214
 659              		.loc 1 64 5 is_stmt 0 view .LVU215
 660 0294 0DF11700 		add	r0, sp, #23
 661              	.LVL80:
 662              		.loc 1 64 5 view .LVU216
 663 0298 0DF11708 		add	r8, sp, #23
 664              	.LVL81:
 665              		.loc 1 64 5 view .LVU217
 666 029c 451B     		subs	r5, r0, r5
 667              	.LVL82:
 668              		.loc 1 64 5 view .LVU218
 669 029e 1846     		mov	r0, r3
 670 02a0 03AB     		add	r3, sp, #12
 671              	.LVL83:
 672              		.loc 1 64 5 view .LVU219
 673 02a2 9C46     		mov	ip, r3
 674              		.loc 1 64 5 view .LVU220
 675 02a4 01E0     		b	.L49
 676              	.LVL84:
 677              	.L48:
 678              		.loc 1 66 12 view .LVU221
 679 02a6 10F8011B 		ldrb	r1, [r0], #1	@ zero_extendqisi2
 680              	.L49:
 681              		.loc 1 65 3 is_stmt 1 view .LVU222
 682              		.loc 1 66 5 view .LVU223
 683              	.LVL85:
ARM GAS  C:\Users\DEVELO~1\AppData\Local\Temp\ccDT4N4n.s 			page 13


 684              		.loc 1 67 10 is_stmt 0 view .LVU224
 685 02aa 4045     		cmp	r0, r8
 686              		.loc 1 66 10 view .LVU225
 687 02ac 0CF8011B 		strb	r1, [ip], #1
 688              	.LVL86:
 689              		.loc 1 67 10 is_stmt 1 view .LVU226
 690 02b0 F9D1     		bne	.L48
 691              	.LBE16:
 692              	.LBE15:
 693              	.LBE14:
 694              		.loc 1 310 16 is_stmt 0 view .LVU227
 695 02b2 521B     		subs	r2, r2, r5
 696              		.loc 1 150 7 view .LVU228
 697 02b4 9A46     		mov	r10, r3
 698              		.loc 1 320 10 view .LVU229
 699 02b6 013D     		subs	r5, r5, #1
 700              	.LVL87:
 701              	.L33:
 702              		.loc 1 309 5 is_stmt 1 view .LVU230
 703              		.loc 1 310 5 view .LVU231
 704              		.loc 1 310 5 is_stmt 0 view .LVU232
 705 02b8 22EAE27B 		bic	fp, r2, r2, asr #31
 706              	.LVL88:
 707              		.loc 1 313 5 is_stmt 1 view .LVU233
 708              		.loc 1 313 8 is_stmt 0 view .LVU234
 709 02bc BEF1000F 		cmp	lr, #0
 710 02c0 AFD1     		bne	.L50
 711              		.loc 1 314 7 is_stmt 1 view .LVU235
 712              		.loc 1 316 8 is_stmt 0 view .LVU236
 713 02c2 002A     		cmp	r2, #0
 714              		.loc 1 314 13 view .LVU237
 715 02c4 CBF1000B 		rsb	fp, fp, #0
 716              	.LVL89:
 717              		.loc 1 316 5 is_stmt 1 view .LVU238
 718              		.loc 1 316 8 is_stmt 0 view .LVU239
 719 02c8 ABDD     		ble	.L50
 720              	.LVL90:
 721              	.L141:
 722              		.loc 1 317 7 is_stmt 1 view .LVU240
 723              		.loc 1 317 12 is_stmt 0 view .LVU241
 724 02ca 9AF80010 		ldrb	r1, [r10]	@ zero_extendqisi2
 725              		.loc 1 317 36 view .LVU242
 726 02ce 2B29     		cmp	r1, #43
 727 02d0 18BF     		it	ne
 728 02d2 2D29     		cmpne	r1, #45
 729 02d4 02D1     		bne	.L51
 730              		.loc 1 317 36 view .LVU243
 731 02d6 302F     		cmp	r7, #48
 732 02d8 00F09680 		beq	.L142
 733              	.LVL91:
 734              	.L51:
 735              		.loc 1 316 8 discriminator 1 view .LVU244
 736 02dc D846     		mov	r8, fp
 737              	.LVL92:
 738              	.L52:
 739              		.loc 1 322 7 is_stmt 1 discriminator 1 view .LVU245
 740              		.loc 1 323 9 discriminator 1 view .LVU246
ARM GAS  C:\Users\DEVELO~1\AppData\Local\Temp\ccDT4N4n.s 			page 14


 741 02de 2368     		ldr	r3, [r4]
 742 02e0 3946     		mov	r1, r7
 743 02e2 2046     		mov	r0, r4
 744 02e4 DB68     		ldr	r3, [r3, #12]
 745 02e6 9847     		blx	r3
 746              	.LVL93:
 747              		.loc 1 324 9 discriminator 1 view .LVU247
 748              		.loc 1 325 24 discriminator 1 view .LVU248
 749              		.loc 1 325 24 is_stmt 0 discriminator 1 view .LVU249
 750 02e8 18F10108 		adds	r8, r8, #1
 751              	.LVL94:
 752              		.loc 1 325 24 discriminator 1 view .LVU250
 753 02ec F7D1     		bne	.L52
 754              		.loc 1 327 16 view .LVU251
 755 02ee 002D     		cmp	r5, #0
 756 02f0 A9EB0B09 		sub	r9, r9, fp
 757              	.LVL95:
 758              		.loc 1 327 16 is_stmt 1 view .LVU252
 759 02f4 FFF69AAE 		blt	.L5
 760              		.loc 1 325 24 is_stmt 0 view .LVU253
 761 02f8 C346     		mov	fp, r8
 762 02fa 94E7     		b	.L56
 763              	.LVL96:
 764              	.L61:
 765              		.loc 1 297 7 is_stmt 1 view .LVU254
 766              		.loc 1 232 5 is_stmt 0 view .LVU255
 767 02fc 4FF00808 		mov	r8, #8
 768 0300 AFE7     		b	.L43
 769              	.LVL97:
 770              	.L22:
 771              		.loc 1 238 7 is_stmt 1 view .LVU256
 772              		.loc 1 239 7 view .LVU257
 773              		.loc 1 239 14 is_stmt 0 view .LVU258
 774 0302 5346     		mov	r3, r10
 775              	.LVL98:
 776              		.loc 1 239 14 view .LVU259
 777 0304 53F804AB 		ldr	r10, [r3], #4
 778              	.LVL99:
 779              		.loc 1 239 14 view .LVU260
 780 0308 0193     		str	r3, [sp, #4]
 781              	.LVL100:
 782              		.loc 1 239 10 view .LVU261
 783 030a BAF1000F 		cmp	r10, #0
 784 030e 00F08880 		beq	.L143
 785              		.loc 1 245 19 view .LVU262
 786 0312 9AF80010 		ldrb	r1, [r10]	@ zero_extendqisi2
 787              	.LVL101:
 788              		.loc 1 242 7 is_stmt 1 view .LVU263
 789              		.loc 1 242 10 is_stmt 0 view .LVU264
 790 0316 0028     		cmp	r0, #0
 791 0318 68D1     		bne	.L144
 792              	.LVL102:
 793              		.loc 1 245 22 is_stmt 1 view .LVU265
 794 031a 0029     		cmp	r1, #0
 795 031c 69D0     		beq	.L31
 796              	.LVL103:
 797              	.L79:
ARM GAS  C:\Users\DEVELO~1\AppData\Local\Temp\ccDT4N4n.s 			page 15


 798              		.loc 1 245 22 is_stmt 0 view .LVU266
 799 031e 47F6FE70 		movw	r0, #32766
 800              	.L28:
 801              		.loc 1 245 22 discriminator 4 view .LVU267
 802 0322 5146     		mov	r1, r10
 803 0324 01E0     		b	.L34
 804              	.LVL104:
 805              	.L32:
 806              		.loc 1 245 22 discriminator 3 view .LVU268
 807 0326 C542     		cmn	r5, r0
 808 0328 05D4     		bmi	.L131
 809              	.LVL105:
 810              	.L34:
 811              		.loc 1 245 46 is_stmt 1 discriminator 4 view .LVU269
 812              		.loc 1 245 22 discriminator 4 view .LVU270
 813 032a 11F8013F 		ldrb	r3, [r1, #1]!	@ zero_extendqisi2
 814              	.LVL106:
 815              		.loc 1 245 22 is_stmt 0 discriminator 4 view .LVU271
 816 032e AAEB0105 		sub	r5, r10, r1
 817 0332 002B     		cmp	r3, #0
 818 0334 F7D1     		bne	.L32
 819              	.L131:
 820              		.loc 1 309 7 view .LVU272
 821 0336 A1EB0A01 		sub	r1, r1, r10
 822              	.LVL107:
 823              		.loc 1 238 14 view .LVU273
 824 033a 2027     		movs	r7, #32
 825              		.loc 1 310 16 view .LVU274
 826 033c 521A     		subs	r2, r2, r1
 827              		.loc 1 320 10 view .LVU275
 828 033e 4D1E     		subs	r5, r1, #1
 829 0340 BAE7     		b	.L33
 830              	.LVL108:
 831              	.L25:
 832              		.loc 1 234 7 is_stmt 1 view .LVU276
 833              		.loc 1 235 7 view .LVU277
 834              		.loc 1 235 12 is_stmt 0 view .LVU278
 835 0342 5AF8043B 		ldr	r3, [r10], #4
 836              	.LVL109:
 837              		.loc 1 235 12 view .LVU279
 838 0346 013A     		subs	r2, r2, #1
 839              		.loc 1 234 14 view .LVU280
 840 0348 2027     		movs	r7, #32
 841 034a 22EAE27B 		bic	fp, r2, r2, asr #31
 842              		.loc 1 235 12 view .LVU281
 843 034e CDF804A0 		str	r10, [sp, #4]
 844 0352 8DF80C30 		strb	r3, [sp, #12]
 845              		.loc 1 236 7 is_stmt 1 view .LVU282
 846              	.LVL110:
 847              		.loc 1 309 5 view .LVU283
 848              		.loc 1 310 5 view .LVU284
 849              		.loc 1 313 5 view .LVU285
 850              		.loc 1 313 8 is_stmt 0 view .LVU286
 851 0356 BEF1000F 		cmp	lr, #0
 852 035a 3FF45BAF 		beq	.L145
 853              	.LVL111:
 854              	.L81:
ARM GAS  C:\Users\DEVELO~1\AppData\Local\Temp\ccDT4N4n.s 			page 16


 855              		.loc 1 313 8 view .LVU287
 856 035e 0025     		movs	r5, #0
 857              	.LVL112:
 858              		.loc 1 313 8 view .LVU288
 859 0360 0DF10C0A 		add	r10, sp, #12
 860              	.LVL113:
 861              		.loc 1 313 8 view .LVU289
 862 0364 5FE7     		b	.L56
 863              	.LVL114:
 864              	.L24:
 865              		.loc 1 252 7 is_stmt 1 view .LVU290
 866              		.loc 1 252 10 is_stmt 0 view .LVU291
 867 0366 192B     		cmp	r3, #25
 868 0368 32D9     		bls	.L36
 869              		.loc 1 256 9 is_stmt 1 view .LVU292
 870              		.loc 1 256 11 is_stmt 0 view .LVU293
 871 036a 5346     		mov	r3, r10
 872              	.LVL115:
 873              		.loc 1 256 11 view .LVU294
 874 036c 53F8040B 		ldr	r0, [r3], #4
 875              	.LVL116:
 876              		.loc 1 258 10 view .LVU295
 877 0370 0028     		cmp	r0, #0
 878              		.loc 1 256 11 view .LVU296
 879 0372 0193     		str	r3, [sp, #4]
 880              	.LVL117:
 881              		.loc 1 258 7 is_stmt 1 view .LVU297
 882              		.loc 1 258 10 is_stmt 0 view .LVU298
 883 0374 32DB     		blt	.L146
 884              	.LVL118:
 885              	.L38:
 886              		.loc 1 263 9 is_stmt 1 view .LVU299
 887              		.loc 1 263 12 is_stmt 0 view .LVU300
 888 0376 002D     		cmp	r5, #0
 889 0378 59D0     		beq	.L72
 890              		.loc 1 264 11 is_stmt 1 view .LVU301
 891              	.LVL119:
 892              		.loc 1 264 16 is_stmt 0 view .LVU302
 893 037a 2B23     		movs	r3, #43
 894              		.loc 1 264 13 view .LVU303
 895 037c 0DF10D0C 		add	ip, sp, #13
 896              	.LVL120:
 897              		.loc 1 264 16 view .LVU304
 898 0380 8DF80C30 		strb	r3, [sp, #12]
 899 0384 03AB     		add	r3, sp, #12
 900              	.LVL121:
 901              	.L39:
 902              		.loc 1 266 7 is_stmt 1 view .LVU305
 903              	.LBB17:
 904              	.LBI17:
 905              		.loc 1 72 14 view .LVU306
 906              		.loc 1 74 3 view .LVU307
 907              	.LBB18:
 908              	.LBI18:
 909              		.loc 1 38 14 view .LVU308
 910              	.LBB19:
 911              		.loc 1 42 3 view .LVU309
ARM GAS  C:\Users\DEVELO~1\AppData\Local\Temp\ccDT4N4n.s 			page 17


 912              		.loc 1 43 3 view .LVU310
 913              		.loc 1 44 3 view .LVU311
 914              		.loc 1 46 3 view .LVU312
 915              		.loc 1 47 3 view .LVU313
 916              		.loc 1 53 3 view .LVU314
 917              		.loc 1 53 5 is_stmt 0 view .LVU315
 918 0386 0CF10B0A 		add	r10, ip, #11
 919              	.LVL122:
 920              		.loc 1 53 5 view .LVU316
 921 038a 5546     		mov	r5, r10
 922              	.LVL123:
 923              	.L40:
 924              		.loc 1 54 3 is_stmt 1 view .LVU317
 925              		.loc 1 55 5 view .LVU318
 926              		.loc 1 55 17 is_stmt 0 view .LVU319
 927 038c 2C49     		ldr	r1, .L147
 928 038e A1FB0081 		umull	r8, r1, r1, r0
 929 0392 8046     		mov	r8, r0
 930 0394 C908     		lsrs	r1, r1, #3
 931              		.loc 1 62 26 view .LVU320
 932 0396 B8F1090F 		cmp	r8, #9
 933              		.loc 1 55 17 view .LVU321
 934 039a 01EB810B 		add	fp, r1, r1, lsl #2
 935 039e 0846     		mov	r0, r1
 936 03a0 A8EB4B01 		sub	r1, r8, fp, lsl #1
 937              	.LVL124:
 938              		.loc 1 56 5 is_stmt 1 view .LVU322
 939              		.loc 1 57 5 view .LVU323
 940              		.loc 1 60 5 view .LVU324
 941              		.loc 1 56 7 is_stmt 0 view .LVU325
 942 03a4 01F13001 		add	r1, r1, #48
 943              	.LVL125:
 944              		.loc 1 60 10 view .LVU326
 945 03a8 C9B2     		uxtb	r1, r1
 946              	.LVL126:
 947              		.loc 1 60 10 view .LVU327
 948 03aa 05F8011D 		strb	r1, [r5, #-1]!
 949              	.LVL127:
 950              		.loc 1 61 5 is_stmt 1 view .LVU328
 951              		.loc 1 62 26 view .LVU329
 952              		.loc 1 62 26 is_stmt 0 view .LVU330
 953 03ae EDDC     		bgt	.L40
 954              		.loc 1 64 3 is_stmt 1 view .LVU331
 955              	.LVL128:
 956              		.loc 1 64 5 is_stmt 0 view .LVU332
 957 03b0 AAEB0500 		sub	r0, r10, r5
 958              	.LVL129:
 959              		.loc 1 64 5 view .LVU333
 960 03b4 6044     		add	r0, r0, ip
 961 03b6 01E0     		b	.L42
 962              	.LVL130:
 963              	.L41:
 964              		.loc 1 66 12 view .LVU334
 965 03b8 15F8011F 		ldrb	r1, [r5, #1]!	@ zero_extendqisi2
 966              	.L42:
 967              		.loc 1 65 3 is_stmt 1 view .LVU335
 968              		.loc 1 66 5 view .LVU336
ARM GAS  C:\Users\DEVELO~1\AppData\Local\Temp\ccDT4N4n.s 			page 18


 969              	.LVL131:
 970              		.loc 1 66 10 is_stmt 0 view .LVU337
 971 03bc 0CF8011B 		strb	r1, [ip], #1
 972              	.LVL132:
 973              		.loc 1 67 10 is_stmt 1 view .LVU338
 974              		.loc 1 67 10 is_stmt 0 view .LVU339
 975 03c0 8445     		cmp	ip, r0
 976 03c2 F9D1     		bne	.L41
 977              	.LBE19:
 978              	.LBE18:
 979              	.LBE17:
 980              		.loc 1 309 7 view .LVU340
 981 03c4 ACEB0305 		sub	r5, ip, r3
 982              		.loc 1 150 7 view .LVU341
 983 03c8 9A46     		mov	r10, r3
 984              	.LVL133:
 985              		.loc 1 310 16 view .LVU342
 986 03ca 521B     		subs	r2, r2, r5
 987              		.loc 1 320 10 view .LVU343
 988 03cc 013D     		subs	r5, r5, #1
 989 03ce 73E7     		b	.L33
 990              	.LVL134:
 991              	.L36:
 992              		.loc 1 253 9 is_stmt 1 view .LVU344
 993              		.loc 1 253 11 is_stmt 0 view .LVU345
 994 03d0 5AF8040B 		ldr	r0, [r10], #4
 995              	.LVL135:
 996              		.loc 1 258 10 view .LVU346
 997 03d4 0028     		cmp	r0, #0
 998              		.loc 1 253 11 view .LVU347
 999 03d6 CDF804A0 		str	r10, [sp, #4]
 1000              	.LVL136:
 1001              		.loc 1 258 7 is_stmt 1 view .LVU348
 1002              		.loc 1 258 10 is_stmt 0 view .LVU349
 1003 03da CCDA     		bge	.L38
 1004              	.LVL137:
 1005              	.L146:
 1006              		.loc 1 259 9 is_stmt 1 view .LVU350
 1007              		.loc 1 259 14 is_stmt 0 view .LVU351
 1008 03dc 2D23     		movs	r3, #45
 1009              		.loc 1 260 11 view .LVU352
 1010 03de 4042     		rsbs	r0, r0, #0
 1011              	.LVL138:
 1012              		.loc 1 259 11 view .LVU353
 1013 03e0 0DF10D0C 		add	ip, sp, #13
 1014              	.LVL139:
 1015              		.loc 1 259 14 view .LVU354
 1016 03e4 8DF80C30 		strb	r3, [sp, #12]
 1017              		.loc 1 260 9 is_stmt 1 view .LVU355
 1018              	.LVL140:
 1019              		.loc 1 260 9 is_stmt 0 view .LVU356
 1020 03e8 03AB     		add	r3, sp, #12
 1021              	.LVL141:
 1022              		.loc 1 260 9 view .LVU357
 1023 03ea CCE7     		b	.L39
 1024              	.LVL142:
 1025              	.L144:
ARM GAS  C:\Users\DEVELO~1\AppData\Local\Temp\ccDT4N4n.s 			page 19


 1026              		.loc 1 245 22 is_stmt 1 discriminator 1 view .LVU358
 1027 03ec 09B1     		cbz	r1, .L31
 1028              	.LVL143:
 1029              	.L29:
 1030              		.loc 1 245 22 is_stmt 0 view .LVU359
 1031 03ee 0138     		subs	r0, r0, #1
 1032              	.LVL144:
 1033              		.loc 1 245 22 view .LVU360
 1034 03f0 97D5     		bpl	.L28
 1035              	.LVL145:
 1036              	.L31:
 1037              		.loc 1 309 5 is_stmt 1 view .LVU361
 1038              		.loc 1 310 5 view .LVU362
 1039              		.loc 1 310 5 is_stmt 0 view .LVU363
 1040 03f2 22EAE27B 		bic	fp, r2, r2, asr #31
 1041              	.LVL146:
 1042              		.loc 1 313 5 is_stmt 1 view .LVU364
 1043              		.loc 1 313 8 is_stmt 0 view .LVU365
 1044 03f6 BEF1000F 		cmp	lr, #0
 1045 03fa 03D1     		bne	.L80
 1046              		.loc 1 314 7 is_stmt 1 view .LVU366
 1047              		.loc 1 316 8 is_stmt 0 view .LVU367
 1048 03fc 002A     		cmp	r2, #0
 1049              		.loc 1 314 13 view .LVU368
 1050 03fe CBF1000B 		rsb	fp, fp, #0
 1051              	.LVL147:
 1052              		.loc 1 316 5 is_stmt 1 view .LVU369
 1053              		.loc 1 316 8 is_stmt 0 view .LVU370
 1054 0402 19DC     		bgt	.L82
 1055              	.L80:
 1056              		.loc 1 313 8 view .LVU371
 1057 0404 2027     		movs	r7, #32
 1058 0406 1CE7     		b	.L55
 1059              	.LVL148:
 1060              	.L142:
 1061              		.loc 1 318 9 is_stmt 1 view .LVU372
 1062 0408 2268     		ldr	r2, [r4]
 1063 040a 2046     		mov	r0, r4
 1064 040c 0AF1010A 		add	r10, r10, #1
 1065              	.LVL149:
 1066              		.loc 1 319 10 is_stmt 0 view .LVU373
 1067 0410 09F10109 		add	r9, r9, #1
 1068              	.LVL150:
 1069              		.loc 1 318 9 view .LVU374
 1070 0414 D268     		ldr	r2, [r2, #12]
 1071              		.loc 1 327 16 view .LVU375
 1072 0416 013D     		subs	r5, r5, #1
 1073              		.loc 1 318 9 view .LVU376
 1074 0418 9047     		blx	r2
 1075              	.LVL151:
 1076              		.loc 1 319 9 is_stmt 1 view .LVU377
 1077              		.loc 1 320 9 view .LVU378
 1078              		.loc 1 320 9 is_stmt 0 view .LVU379
 1079 041a 5FE7     		b	.L51
 1080              	.LVL152:
 1081              	.L60:
 1082              		.loc 1 232 5 view .LVU380
ARM GAS  C:\Users\DEVELO~1\AppData\Local\Temp\ccDT4N4n.s 			page 20


 1083 041c 4FF00A08 		mov	r8, #10
 1084 0420 1FE7     		b	.L43
 1085              	.LVL153:
 1086              	.L143:
 1087              		.loc 1 242 7 is_stmt 1 view .LVU381
 1088              		.loc 1 240 11 is_stmt 0 view .LVU382
 1089 0422 DFF820A0 		ldr	r10, .L147+4
 1090              		.loc 1 242 10 view .LVU383
 1091 0426 0028     		cmp	r0, #0
 1092 0428 3FF479AF 		beq	.L79
 1093 042c DFE7     		b	.L29
 1094              	.LVL154:
 1095              	.L72:
 1096              		.loc 1 149 7 view .LVU384
 1097 042e 03AB     		add	r3, sp, #12
 1098              	.LVL155:
 1099              		.loc 1 149 7 view .LVU385
 1100 0430 9C46     		mov	ip, r3
 1101 0432 A8E7     		b	.L39
 1102              	.LVL156:
 1103              	.L64:
 1104              		.loc 1 127 7 view .LVU386
 1105 0434 8946     		mov	r9, r1
 1106 0436 DEE6     		b	.L1
 1107              	.LVL157:
 1108              	.L82:
 1109              		.loc 1 316 8 view .LVU387
 1110 0438 2027     		movs	r7, #32
 1111 043a 4FF0FF35 		mov	r5, #-1
 1112              	.LVL158:
 1113              		.loc 1 316 8 view .LVU388
 1114 043e 4DE7     		b	.L51
 1115              	.L148:
 1116              		.align	2
 1117              	.L147:
 1118 0440 CDCCCCCC 		.word	-858993459
 1119 0444 00000000 		.word	.LC0
 1120              		.cfi_endproc
 1121              	.LFE434:
 1122              		.size	chvprintf, .-chvprintf
 1123              		.section	.text.chprintf,"ax",%progbits
 1124              		.align	1
 1125              		.p2align 4,,15
 1126              		.global	chprintf
 1127              		.syntax unified
 1128              		.thumb
 1129              		.thumb_func
 1130              		.type	chprintf, %function
 1131              	chprintf:
 1132              	.LVL159:
 1133              	.LFB435:
 1134              		.loc 1 365 63 is_stmt 1 view -0
 1135              		.cfi_startproc
 1136              		@ args = 4, pretend = 12, frame = 8
 1137              		@ frame_needed = 0, uses_anonymous_args = 1
 1138              		.loc 1 366 3 view .LVU390
 1139              		.loc 1 367 3 view .LVU391
ARM GAS  C:\Users\DEVELO~1\AppData\Local\Temp\ccDT4N4n.s 			page 21


 1140              		.loc 1 369 3 view .LVU392
 1141              		.loc 1 365 63 is_stmt 0 view .LVU393
 1142 0000 0EB4     		push	{r1, r2, r3}
 1143              		.cfi_def_cfa_offset 12
 1144              		.cfi_offset 1, -12
 1145              		.cfi_offset 2, -8
 1146              		.cfi_offset 3, -4
 1147 0002 00B5     		push	{lr}
 1148              		.cfi_def_cfa_offset 16
 1149              		.cfi_offset 14, -16
 1150 0004 82B0     		sub	sp, sp, #8
 1151              		.cfi_def_cfa_offset 24
 1152              		.loc 1 365 63 view .LVU394
 1153 0006 03AA     		add	r2, sp, #12
 1154 0008 52F8041B 		ldr	r1, [r2], #4
 1155              		.loc 1 369 3 view .LVU395
 1156 000c 0192     		str	r2, [sp, #4]
 1157              		.loc 1 370 3 is_stmt 1 view .LVU396
 1158              		.loc 1 370 21 is_stmt 0 view .LVU397
 1159 000e FFF7FEFF 		bl	chvprintf
 1160              	.LVL160:
 1161              		.loc 1 371 3 is_stmt 1 view .LVU398
 1162              		.loc 1 373 3 view .LVU399
 1163              		.loc 1 374 1 is_stmt 0 view .LVU400
 1164 0012 02B0     		add	sp, sp, #8
 1165              		.cfi_def_cfa_offset 16
 1166              		@ sp needed
 1167 0014 5DF804EB 		ldr	lr, [sp], #4
 1168              		.cfi_restore 14
 1169              		.cfi_def_cfa_offset 12
 1170 0018 03B0     		add	sp, sp, #12
 1171              		.cfi_restore 3
 1172              		.cfi_restore 2
 1173              		.cfi_restore 1
 1174              		.cfi_def_cfa_offset 0
 1175 001a 7047     		bx	lr
 1176              		.cfi_endproc
 1177              	.LFE435:
 1178              		.size	chprintf, .-chprintf
 1179              		.section	.text.chsnprintf,"ax",%progbits
 1180              		.align	1
 1181              		.p2align 4,,15
 1182              		.global	chsnprintf
 1183              		.syntax unified
 1184              		.thumb
 1185              		.thumb_func
 1186              		.type	chsnprintf, %function
 1187              	chsnprintf:
 1188              	.LVL161:
 1189              	.LFB436:
 1190              		.loc 1 403 62 is_stmt 1 view -0
 1191              		.cfi_startproc
 1192              		@ args = 4, pretend = 8, frame = 24
 1193              		@ frame_needed = 0, uses_anonymous_args = 1
 1194              		.loc 1 404 3 view .LVU402
 1195              		.loc 1 405 3 view .LVU403
 1196              		.loc 1 408 3 view .LVU404
ARM GAS  C:\Users\DEVELO~1\AppData\Local\Temp\ccDT4N4n.s 			page 22


 1197              		.loc 1 403 62 is_stmt 0 view .LVU405
 1198 0000 0CB4     		push	{r2, r3}
 1199              		.cfi_def_cfa_offset 8
 1200              		.cfi_offset 2, -8
 1201              		.cfi_offset 3, -4
 1202 0002 F0B5     		push	{r4, r5, r6, r7, lr}
 1203              		.cfi_def_cfa_offset 28
 1204              		.cfi_offset 4, -28
 1205              		.cfi_offset 5, -24
 1206              		.cfi_offset 6, -20
 1207              		.cfi_offset 7, -16
 1208              		.cfi_offset 14, -12
 1209 0004 87B0     		sub	sp, sp, #28
 1210              		.cfi_def_cfa_offset 56
 1211              		.loc 1 403 62 view .LVU406
 1212 0006 0646     		mov	r6, r0
 1213              	.LBB22:
 1214              	.LBB23:
 1215              		.loc 1 450 6 view .LVU407
 1216 0008 0C46     		mov	r4, r1
 1217              	.LBE23:
 1218              	.LBE22:
 1219              		.loc 1 403 62 view .LVU408
 1220 000a 0CAD     		add	r5, sp, #48
 1221 000c 55F8047B 		ldr	r7, [r5], #4
 1222              		.loc 1 408 3 view .LVU409
 1223 0010 0095     		str	r5, [sp]
 1224              		.loc 1 409 3 is_stmt 1 view .LVU410
 1225              	.LVL162:
 1226              	.LBB26:
 1227              	.LBI22:
 1228              		.loc 1 444 5 view .LVU411
 1229              	.LBB24:
 1230              		.loc 1 445 3 view .LVU412
 1231              		.loc 1 446 3 view .LVU413
 1232              		.loc 1 447 3 view .LVU414
 1233              		.loc 1 448 3 view .LVU415
 1234              		.loc 1 450 3 view .LVU416
 1235              		.loc 1 450 6 is_stmt 0 view .LVU417
 1236 0012 A1B1     		cbz	r1, .L152
 1237              		.loc 1 451 5 is_stmt 1 view .LVU418
 1238              	.LVL163:
 1239              		.loc 1 457 3 view .LVU419
 1240 0014 0023     		movs	r3, #0
 1241 0016 4A1E     		subs	r2, r1, #1
 1242              	.LVL164:
 1243              		.loc 1 457 3 is_stmt 0 view .LVU420
 1244 0018 0146     		mov	r1, r0
 1245              	.LVL165:
 1246              		.loc 1 457 3 view .LVU421
 1247 001a 01A8     		add	r0, sp, #4
 1248              	.LVL166:
 1249              		.loc 1 457 3 view .LVU422
 1250 001c FFF7FEFF 		bl	msObjectInit
 1251              	.LVL167:
 1252              		.loc 1 460 3 is_stmt 1 view .LVU423
 1253              		.loc 1 461 3 view .LVU424
ARM GAS  C:\Users\DEVELO~1\AppData\Local\Temp\ccDT4N4n.s 			page 23


 1254              		.loc 1 461 12 is_stmt 0 view .LVU425
 1255 0020 2A46     		mov	r2, r5
 1256 0022 3946     		mov	r1, r7
 1257 0024 01A8     		add	r0, sp, #4
 1258              	.LVL168:
 1259              		.loc 1 461 12 view .LVU426
 1260 0026 FFF7FEFF 		bl	chvprintf
 1261              	.LVL169:
 1262              		.loc 1 464 9 view .LVU427
 1263 002a 049B     		ldr	r3, [sp, #16]
 1264              	.LVL170:
 1265              		.loc 1 464 3 is_stmt 1 view .LVU428
 1266              		.loc 1 464 6 is_stmt 0 view .LVU429
 1267 002c 9C42     		cmp	r4, r3
 1268 002e 01D9     		bls	.L151
 1269              		.loc 1 465 5 is_stmt 1 view .LVU430
 1270              		.loc 1 465 17 is_stmt 0 view .LVU431
 1271 0030 0022     		movs	r2, #0
 1272 0032 F254     		strb	r2, [r6, r3]
 1273              		.loc 1 469 3 is_stmt 1 view .LVU432
 1274              	.LVL171:
 1275              		.loc 1 469 3 is_stmt 0 view .LVU433
 1276              	.LBE24:
 1277              	.LBE26:
 1278              		.loc 1 410 3 is_stmt 1 view .LVU434
 1279              		.loc 1 413 3 view .LVU435
 1280              	.L151:
 1281              		.loc 1 414 1 is_stmt 0 view .LVU436
 1282 0034 07B0     		add	sp, sp, #28
 1283              		.cfi_remember_state
 1284              		.cfi_def_cfa_offset 28
 1285              		@ sp needed
 1286 0036 BDE8F040 		pop	{r4, r5, r6, r7, lr}
 1287              		.cfi_restore 14
 1288              		.cfi_restore 7
 1289              		.cfi_restore 6
 1290              		.cfi_restore 5
 1291              		.cfi_restore 4
 1292              		.cfi_def_cfa_offset 8
 1293              	.LVL172:
 1294              		.loc 1 414 1 view .LVU437
 1295 003a 02B0     		add	sp, sp, #8
 1296              		.cfi_restore 3
 1297              		.cfi_restore 2
 1298              		.cfi_def_cfa_offset 0
 1299 003c 7047     		bx	lr
 1300              	.LVL173:
 1301              	.L152:
 1302              		.cfi_restore_state
 1303              	.LBB27:
 1304              	.LBB25:
 1305              		.loc 1 457 3 is_stmt 1 view .LVU438
 1306 003e 0146     		mov	r1, r0
 1307              	.LVL174:
 1308              		.loc 1 457 3 is_stmt 0 view .LVU439
 1309 0040 2346     		mov	r3, r4
 1310 0042 2246     		mov	r2, r4
ARM GAS  C:\Users\DEVELO~1\AppData\Local\Temp\ccDT4N4n.s 			page 24


 1311 0044 01A8     		add	r0, sp, #4
 1312              	.LVL175:
 1313              		.loc 1 457 3 view .LVU440
 1314 0046 FFF7FEFF 		bl	msObjectInit
 1315              	.LVL176:
 1316              		.loc 1 460 3 is_stmt 1 view .LVU441
 1317              		.loc 1 461 3 view .LVU442
 1318              		.loc 1 461 12 is_stmt 0 view .LVU443
 1319 004a 2A46     		mov	r2, r5
 1320 004c 3946     		mov	r1, r7
 1321 004e 01A8     		add	r0, sp, #4
 1322              	.LVL177:
 1323              		.loc 1 461 12 view .LVU444
 1324 0050 FFF7FEFF 		bl	chvprintf
 1325              	.LVL178:
 1326              		.loc 1 464 3 is_stmt 1 view .LVU445
 1327              	.LBE25:
 1328              	.LBE27:
 1329              		.loc 1 414 1 is_stmt 0 view .LVU446
 1330 0054 07B0     		add	sp, sp, #28
 1331              		.cfi_def_cfa_offset 28
 1332              		@ sp needed
 1333 0056 BDE8F040 		pop	{r4, r5, r6, r7, lr}
 1334              		.cfi_restore 14
 1335              		.cfi_restore 7
 1336              		.cfi_restore 6
 1337              		.cfi_restore 5
 1338              		.cfi_restore 4
 1339              		.cfi_def_cfa_offset 8
 1340              	.LVL179:
 1341              		.loc 1 414 1 view .LVU447
 1342 005a 02B0     		add	sp, sp, #8
 1343              		.cfi_restore 3
 1344              		.cfi_restore 2
 1345              		.cfi_def_cfa_offset 0
 1346 005c 7047     		bx	lr
 1347              		.cfi_endproc
 1348              	.LFE436:
 1349              		.size	chsnprintf, .-chsnprintf
 1350 005e 00BF     		.section	.text.chvsnprintf,"ax",%progbits
 1351              		.align	1
 1352              		.p2align 4,,15
 1353              		.global	chvsnprintf
 1354              		.syntax unified
 1355              		.thumb
 1356              		.thumb_func
 1357              		.type	chvsnprintf, %function
 1358              	chvsnprintf:
 1359              	.LVL180:
 1360              	.LFB437:
 1361              		.loc 1 444 70 is_stmt 1 view -0
 1362              		.cfi_startproc
 1363              		@ args = 0, pretend = 0, frame = 24
 1364              		@ frame_needed = 0, uses_anonymous_args = 0
 1365              		.loc 1 445 3 view .LVU449
 1366              		.loc 1 446 3 view .LVU450
 1367              		.loc 1 447 3 view .LVU451
ARM GAS  C:\Users\DEVELO~1\AppData\Local\Temp\ccDT4N4n.s 			page 25


 1368              		.loc 1 448 3 view .LVU452
 1369              		.loc 1 450 3 view .LVU453
 1370              		.loc 1 444 70 is_stmt 0 view .LVU454
 1371 0000 F0B5     		push	{r4, r5, r6, r7, lr}
 1372              		.cfi_def_cfa_offset 20
 1373              		.cfi_offset 4, -20
 1374              		.cfi_offset 5, -16
 1375              		.cfi_offset 6, -12
 1376              		.cfi_offset 7, -8
 1377              		.cfi_offset 14, -4
 1378 0002 0546     		mov	r5, r0
 1379 0004 87B0     		sub	sp, sp, #28
 1380              		.cfi_def_cfa_offset 48
 1381              		.loc 1 450 6 view .LVU455
 1382 0006 0C46     		mov	r4, r1
 1383              		.loc 1 444 70 view .LVU456
 1384 0008 1646     		mov	r6, r2
 1385 000a 1F46     		mov	r7, r3
 1386              	.LVL181:
 1387              		.loc 1 450 6 view .LVU457
 1388 000c 89B1     		cbz	r1, .L156
 1389              		.loc 1 451 5 is_stmt 1 view .LVU458
 1390              	.LVL182:
 1391              		.loc 1 457 3 view .LVU459
 1392 000e 0023     		movs	r3, #0
 1393 0010 4A1E     		subs	r2, r1, #1
 1394              	.LVL183:
 1395              		.loc 1 457 3 is_stmt 0 view .LVU460
 1396 0012 0146     		mov	r1, r0
 1397              	.LVL184:
 1398              		.loc 1 457 3 view .LVU461
 1399 0014 01A8     		add	r0, sp, #4
 1400              	.LVL185:
 1401              		.loc 1 457 3 view .LVU462
 1402 0016 FFF7FEFF 		bl	msObjectInit
 1403              	.LVL186:
 1404              		.loc 1 460 3 is_stmt 1 view .LVU463
 1405              		.loc 1 461 3 view .LVU464
 1406              		.loc 1 461 12 is_stmt 0 view .LVU465
 1407 001a 3A46     		mov	r2, r7
 1408 001c 3146     		mov	r1, r6
 1409 001e 01A8     		add	r0, sp, #4
 1410              	.LVL187:
 1411              		.loc 1 461 12 view .LVU466
 1412 0020 FFF7FEFF 		bl	chvprintf
 1413              	.LVL188:
 1414              		.loc 1 464 9 view .LVU467
 1415 0024 049B     		ldr	r3, [sp, #16]
 1416              	.LVL189:
 1417              		.loc 1 464 3 is_stmt 1 view .LVU468
 1418              		.loc 1 464 6 is_stmt 0 view .LVU469
 1419 0026 A342     		cmp	r3, r4
 1420 0028 01D2     		bcs	.L155
 1421              		.loc 1 465 5 is_stmt 1 view .LVU470
 1422              		.loc 1 465 17 is_stmt 0 view .LVU471
 1423 002a 0022     		movs	r2, #0
 1424 002c EA54     		strb	r2, [r5, r3]
ARM GAS  C:\Users\DEVELO~1\AppData\Local\Temp\ccDT4N4n.s 			page 26


 1425              		.loc 1 469 3 is_stmt 1 view .LVU472
 1426              	.L155:
 1427              		.loc 1 470 1 is_stmt 0 view .LVU473
 1428 002e 07B0     		add	sp, sp, #28
 1429              		.cfi_remember_state
 1430              		.cfi_def_cfa_offset 20
 1431              		@ sp needed
 1432 0030 F0BD     		pop	{r4, r5, r6, r7, pc}
 1433              	.LVL190:
 1434              	.L156:
 1435              		.cfi_restore_state
 1436              		.loc 1 457 3 is_stmt 1 view .LVU474
 1437 0032 0146     		mov	r1, r0
 1438              	.LVL191:
 1439              		.loc 1 457 3 is_stmt 0 view .LVU475
 1440 0034 2346     		mov	r3, r4
 1441 0036 2246     		mov	r2, r4
 1442              	.LVL192:
 1443              		.loc 1 457 3 view .LVU476
 1444 0038 01A8     		add	r0, sp, #4
 1445              	.LVL193:
 1446              		.loc 1 457 3 view .LVU477
 1447 003a FFF7FEFF 		bl	msObjectInit
 1448              	.LVL194:
 1449              		.loc 1 460 3 is_stmt 1 view .LVU478
 1450              		.loc 1 461 3 view .LVU479
 1451              		.loc 1 461 12 is_stmt 0 view .LVU480
 1452 003e 3A46     		mov	r2, r7
 1453 0040 3146     		mov	r1, r6
 1454 0042 01A8     		add	r0, sp, #4
 1455              	.LVL195:
 1456              		.loc 1 461 12 view .LVU481
 1457 0044 FFF7FEFF 		bl	chvprintf
 1458              	.LVL196:
 1459              		.loc 1 464 3 is_stmt 1 view .LVU482
 1460              		.loc 1 470 1 is_stmt 0 view .LVU483
 1461 0048 07B0     		add	sp, sp, #28
 1462              		.cfi_def_cfa_offset 20
 1463              		@ sp needed
 1464 004a F0BD     		pop	{r4, r5, r6, r7, pc}
 1465              		.loc 1 470 1 view .LVU484
 1466              		.cfi_endproc
 1467              	.LFE437:
 1468              		.size	chvsnprintf, .-chvsnprintf
 1469              		.text
 1470              	.Letext0:
 1471              		.file 2 "c:\\chibistudio\\tools\\gnu tools arm embedded\\11.3 2022.08\\lib\\gcc\\arm-none-eabi\\11
 1472              		.file 3 "c:\\chibistudio\\tools\\gnu tools arm embedded\\11.3 2022.08\\arm-none-eabi\\include\\mac
 1473              		.file 4 "c:\\chibistudio\\tools\\gnu tools arm embedded\\11.3 2022.08\\arm-none-eabi\\include\\sys
 1474              		.file 5 "../../../os/rt/include/chearly.h"
 1475              		.file 6 "c:\\chibistudio\\tools\\gnu tools arm embedded\\11.3 2022.08\\lib\\gcc\\arm-none-eabi\\11
 1476              		.file 7 "../../../os/hal/include/hal_streams.h"
 1477              		.file 8 "../../../os/hal/lib/streams/memstreams.h"
 1478              		.file 9 "<built-in>"