ARM GAS  C:\Users\DEVELO~1\AppData\Local\Temp\cclxdU3x.s 			page 1


   1              		.cpu cortex-m7
   2              		.arch armv7e-m
   3              		.fpu softvfp
   4              		.eabi_attribute 20, 1
   5              		.eabi_attribute 21, 1
   6              		.eabi_attribute 23, 3
   7              		.eabi_attribute 24, 1
   8              		.eabi_attribute 25, 1
   9              		.eabi_attribute 26, 1
  10              		.eabi_attribute 30, 2
  11              		.eabi_attribute 34, 1
  12              		.eabi_attribute 18, 4
  13              		.file	"chsem.c"
  14              		.text
  15              	.Ltext0:
  16              		.cfi_sections	.debug_frame
  17              		.section	.text.chSemObjectInit,"ax",%progbits
  18              		.align	1
  19              		.p2align 4,,15
  20              		.global	chSemObjectInit
  21              		.syntax unified
  22              		.thumb
  23              		.thumb_func
  24              		.type	chSemObjectInit, %function
  25              	chSemObjectInit:
  26              	.LVL0:
  27              	.LFB346:
  28              		.file 1 "../../../os/rt/src/chsem.c"
  29              		.loc 1 97 48 view -0
  30              		.cfi_startproc
  31              		@ args = 0, pretend = 0, frame = 0
  32              		@ frame_needed = 0, uses_anonymous_args = 0
  33              		@ link register save eliminated.
  34              		.loc 1 99 3 view .LVU1
  35              		.loc 1 99 3 view .LVU2
  36              		.loc 1 99 3 view .LVU3
  37              		.loc 1 101 3 view .LVU4
  38              	.LBB104:
  39              	.LBI104:
  40              		.file 2 "../../../os/rt/include/chlists.h"
  41              		.loc 2 222 20 view .LVU5
  42              	.LBB105:
  43              		.loc 2 224 3 view .LVU6
  44              		.loc 2 225 12 is_stmt 0 view .LVU7
  45 0000 C0E90000 		strd	r0, r0, [r0]
  46              	.LVL1:
  47              		.loc 2 225 12 view .LVU8
  48              	.LBE105:
  49              	.LBE104:
  50              		.loc 1 102 3 is_stmt 1 view .LVU9
  51              		.loc 1 102 11 is_stmt 0 view .LVU10
  52 0004 8160     		str	r1, [r0, #8]
  53              		.loc 1 103 1 view .LVU11
  54 0006 7047     		bx	lr
  55              		.cfi_endproc
  56              	.LFE346:
  57              		.size	chSemObjectInit, .-chSemObjectInit
ARM GAS  C:\Users\DEVELO~1\AppData\Local\Temp\cclxdU3x.s 			page 2


  58              		.section	.text.chSemResetWithMessage,"ax",%progbits
  59              		.align	1
  60              		.p2align 4,,15
  61              		.global	chSemResetWithMessage
  62              		.syntax unified
  63              		.thumb
  64              		.thumb_func
  65              		.type	chSemResetWithMessage, %function
  66              	chSemResetWithMessage:
  67              	.LVL2:
  68              	.LFB347:
  69              		.loc 1 118 65 is_stmt 1 view -0
  70              		.cfi_startproc
  71              		@ args = 0, pretend = 0, frame = 0
  72              		@ frame_needed = 0, uses_anonymous_args = 0
  73              		.loc 1 120 3 view .LVU13
  74              	.LBB121:
  75              	.LBI121:
  76              		.file 3 "../../../os/rt/include/chsys.h"
  77              		.loc 3 407 20 view .LVU14
  78              		.loc 3 409 3 view .LVU15
  79              	.LBB122:
  80              	.LBI122:
  81              		.file 4 "../../../os/common/ports/ARMv7-M/chcore.h"
  82              		.loc 4 823 27 view .LVU16
  83              		.loc 4 831 3 view .LVU17
  84              	.LBB123:
  85              	.LBI123:
  86              		.file 5 "../../../os/common/ext/ARM/CMSIS/Core/Include/cmsis_gcc.h"
  87              		.loc 5 491 27 view .LVU18
  88              	.LBB124:
  89              		.loc 5 493 3 view .LVU19
  90              	.LBE124:
  91              	.LBE123:
  92              	.LBE122:
  93              	.LBE121:
  94              		.loc 1 118 65 is_stmt 0 view .LVU20
  95 0000 38B5     		push	{r3, r4, r5, lr}
  96              		.cfi_def_cfa_offset 16
  97              		.cfi_offset 3, -16
  98              		.cfi_offset 4, -12
  99              		.cfi_offset 5, -8
 100              		.cfi_offset 14, -4
 101              	.LBB128:
 102              	.LBB127:
 103              	.LBB126:
 104              	.LBB125:
 105              		.loc 5 493 3 view .LVU21
 106 0002 3023     		movs	r3, #48
 107              		.syntax unified
 108              	@ 493 "../../../os/common/ext/ARM/CMSIS/Core/Include/cmsis_gcc.h" 1
 109 0004 83F31188 		MSR basepri, r3
 110              	@ 0 "" 2
 111              	.LVL3:
 112              		.loc 5 493 3 view .LVU22
 113              		.thumb
 114              		.syntax unified
ARM GAS  C:\Users\DEVELO~1\AppData\Local\Temp\cclxdU3x.s 			page 3


 115              	.LBE125:
 116              	.LBE126:
 117              	.LBE127:
 118              		.loc 3 410 35 is_stmt 1 view .LVU23
 119              		.loc 3 411 21 view .LVU24
 120              	.LBE128:
 121              		.loc 1 121 3 view .LVU25
 122              	.LBB129:
 123              	.LBI129:
 124              		.loc 1 143 6 view .LVU26
 125              	.LBB130:
 126              		.loc 1 145 21 view .LVU27
 127              		.loc 1 146 3 view .LVU28
 128              		.loc 1 146 3 view .LVU29
 129              		.loc 1 146 3 view .LVU30
 130              		.loc 1 147 3 view .LVU31
 131              		.loc 1 147 3 view .LVU32
 132              		.loc 1 147 3 view .LVU33
 133              		.loc 1 151 3 view .LVU34
 134              		.loc 1 152 10 is_stmt 0 view .LVU35
 135 0008 0368     		ldr	r3, [r0]
 136              		.loc 1 151 11 view .LVU36
 137 000a 8160     		str	r1, [r0, #8]
 138              		.loc 1 152 3 is_stmt 1 view .LVU37
 139              		.loc 1 152 10 view .LVU38
 140              	.LVL4:
 141              	.LBB131:
 142              	.LBI131:
 143              		.loc 2 249 20 view .LVU39
 144              	.LBB132:
 145              		.loc 2 251 3 view .LVU40
 146              		.loc 2 251 3 is_stmt 0 view .LVU41
 147              	.LBE132:
 148              	.LBE131:
 149              		.loc 1 152 10 view .LVU42
 150 000c 8342     		cmp	r3, r0
 151 000e 0BD0     		beq	.L4
 152 0010 0446     		mov	r4, r0
 153 0012 1546     		mov	r5, r2
 154              	.LVL5:
 155              	.L5:
 156              		.loc 1 153 5 is_stmt 1 view .LVU43
 157              	.LBB134:
 158              	.LBI134:
 159              		.loc 2 299 27 view .LVU44
 160              	.LBB135:
 161              		.loc 2 300 3 view .LVU45
 162              		.loc 2 300 15 is_stmt 0 view .LVU46
 163 0014 6068     		ldr	r0, [r4, #4]
 164              	.LVL6:
 165              		.loc 2 302 3 is_stmt 1 view .LVU47
 166              		.loc 2 302 21 is_stmt 0 view .LVU48
 167 0016 4368     		ldr	r3, [r0, #4]
 168              		.loc 2 302 18 view .LVU49
 169 0018 6360     		str	r3, [r4, #4]
 170              		.loc 2 303 3 is_stmt 1 view .LVU50
 171              		.loc 2 303 18 is_stmt 0 view .LVU51
ARM GAS  C:\Users\DEVELO~1\AppData\Local\Temp\cclxdU3x.s 			page 4


 172 001a 1C60     		str	r4, [r3]
 173              		.loc 2 305 3 is_stmt 1 view .LVU52
 174              	.LVL7:
 175              		.loc 2 305 3 is_stmt 0 view .LVU53
 176              	.LBE135:
 177              	.LBE134:
 178              		.loc 1 153 5 view .LVU54
 179 001c FFF7FEFF 		bl	chSchReadyI
 180              	.LVL8:
 181              		.loc 1 152 10 view .LVU55
 182 0020 2368     		ldr	r3, [r4]
 183              		.loc 1 153 72 view .LVU56
 184 0022 8562     		str	r5, [r0, #40]
 185              		.loc 1 152 10 is_stmt 1 view .LVU57
 186              	.LVL9:
 187              	.LBB136:
 188              		.loc 2 249 20 view .LVU58
 189              	.LBB133:
 190              		.loc 2 251 3 view .LVU59
 191              		.loc 2 251 3 is_stmt 0 view .LVU60
 192              	.LBE133:
 193              	.LBE136:
 194              		.loc 1 152 10 view .LVU61
 195 0024 A342     		cmp	r3, r4
 196 0026 F5D1     		bne	.L5
 197              	.LVL10:
 198              	.L4:
 199              		.loc 1 152 10 view .LVU62
 200              	.LBE130:
 201              	.LBE129:
 202              		.loc 1 122 3 is_stmt 1 view .LVU63
 203 0028 FFF7FEFF 		bl	chSchRescheduleS
 204              	.LVL11:
 205              		.loc 1 123 3 view .LVU64
 206              	.LBB137:
 207              	.LBI137:
 208              		.loc 3 421 20 view .LVU65
 209              	.LBB138:
 210              		.loc 3 423 23 view .LVU66
 211              		.loc 3 424 34 view .LVU67
 212              		.loc 3 430 3 view .LVU68
 213              		.loc 3 430 3 view .LVU69
 214              		.loc 3 430 3 view .LVU70
 215              		.loc 3 434 3 view .LVU71
 216              	.LBB139:
 217              	.LBI139:
 218              		.loc 4 847 27 view .LVU72
 219              		.loc 4 850 3 view .LVU73
 220              	.LBB140:
 221              	.LBI140:
 222              		.loc 5 491 27 view .LVU74
 223              	.LBB141:
 224              		.loc 5 493 3 view .LVU75
 225 002c 0023     		movs	r3, #0
 226              		.syntax unified
 227              	@ 493 "../../../os/common/ext/ARM/CMSIS/Core/Include/cmsis_gcc.h" 1
 228 002e 83F31188 		MSR basepri, r3
ARM GAS  C:\Users\DEVELO~1\AppData\Local\Temp\cclxdU3x.s 			page 5


 229              	@ 0 "" 2
 230              	.LVL12:
 231              		.loc 5 493 3 is_stmt 0 view .LVU76
 232              		.thumb
 233              		.syntax unified
 234              	.LBE141:
 235              	.LBE140:
 236              	.LBE139:
 237              	.LBE138:
 238              	.LBE137:
 239              		.loc 1 124 1 view .LVU77
 240 0032 38BD     		pop	{r3, r4, r5, pc}
 241              		.cfi_endproc
 242              	.LFE347:
 243              		.size	chSemResetWithMessage, .-chSemResetWithMessage
 244              		.section	.text.chSemResetWithMessageI,"ax",%progbits
 245              		.align	1
 246              		.p2align 4,,15
 247              		.global	chSemResetWithMessageI
 248              		.syntax unified
 249              		.thumb
 250              		.thumb_func
 251              		.type	chSemResetWithMessageI, %function
 252              	chSemResetWithMessageI:
 253              	.LVL13:
 254              	.LFB348:
 255              		.loc 1 143 66 is_stmt 1 view -0
 256              		.cfi_startproc
 257              		@ args = 0, pretend = 0, frame = 0
 258              		@ frame_needed = 0, uses_anonymous_args = 0
 259              		.loc 1 145 21 view .LVU79
 260              		.loc 1 146 3 view .LVU80
 261              		.loc 1 146 3 view .LVU81
 262              		.loc 1 146 3 view .LVU82
 263              		.loc 1 147 3 view .LVU83
 264              		.loc 1 147 3 view .LVU84
 265              		.loc 1 147 3 view .LVU85
 266              		.loc 1 151 3 view .LVU86
 267              		.loc 1 143 66 is_stmt 0 view .LVU87
 268 0000 38B5     		push	{r3, r4, r5, lr}
 269              		.cfi_def_cfa_offset 16
 270              		.cfi_offset 3, -16
 271              		.cfi_offset 4, -12
 272              		.cfi_offset 5, -8
 273              		.cfi_offset 14, -4
 274              		.loc 1 152 10 view .LVU88
 275 0002 0368     		ldr	r3, [r0]
 276              		.loc 1 151 11 view .LVU89
 277 0004 8160     		str	r1, [r0, #8]
 278              		.loc 1 152 3 is_stmt 1 view .LVU90
 279              		.loc 1 152 10 view .LVU91
 280              	.LVL14:
 281              	.LBB142:
 282              	.LBI142:
 283              		.loc 2 249 20 view .LVU92
 284              	.LBB143:
 285              		.loc 2 251 3 view .LVU93
ARM GAS  C:\Users\DEVELO~1\AppData\Local\Temp\cclxdU3x.s 			page 6


 286              		.loc 2 251 3 is_stmt 0 view .LVU94
 287              	.LBE143:
 288              	.LBE142:
 289              		.loc 1 152 10 view .LVU95
 290 0006 8342     		cmp	r3, r0
 291 0008 0BD0     		beq	.L8
 292 000a 0446     		mov	r4, r0
 293 000c 1546     		mov	r5, r2
 294              	.LVL15:
 295              	.L10:
 296              		.loc 1 153 5 is_stmt 1 view .LVU96
 297              	.LBB145:
 298              	.LBI145:
 299              		.loc 2 299 27 view .LVU97
 300              	.LBB146:
 301              		.loc 2 300 3 view .LVU98
 302              		.loc 2 300 15 is_stmt 0 view .LVU99
 303 000e 6068     		ldr	r0, [r4, #4]
 304              	.LVL16:
 305              		.loc 2 302 3 is_stmt 1 view .LVU100
 306              		.loc 2 302 21 is_stmt 0 view .LVU101
 307 0010 4368     		ldr	r3, [r0, #4]
 308              		.loc 2 302 18 view .LVU102
 309 0012 6360     		str	r3, [r4, #4]
 310              		.loc 2 303 3 is_stmt 1 view .LVU103
 311              		.loc 2 303 18 is_stmt 0 view .LVU104
 312 0014 1C60     		str	r4, [r3]
 313              		.loc 2 305 3 is_stmt 1 view .LVU105
 314              	.LVL17:
 315              		.loc 2 305 3 is_stmt 0 view .LVU106
 316              	.LBE146:
 317              	.LBE145:
 318              		.loc 1 153 5 view .LVU107
 319 0016 FFF7FEFF 		bl	chSchReadyI
 320              	.LVL18:
 321              		.loc 1 152 10 view .LVU108
 322 001a 2368     		ldr	r3, [r4]
 323              		.loc 1 153 72 view .LVU109
 324 001c 8562     		str	r5, [r0, #40]
 325              		.loc 1 152 10 is_stmt 1 view .LVU110
 326              	.LVL19:
 327              	.LBB147:
 328              		.loc 2 249 20 view .LVU111
 329              	.LBB144:
 330              		.loc 2 251 3 view .LVU112
 331              		.loc 2 251 3 is_stmt 0 view .LVU113
 332              	.LBE144:
 333              	.LBE147:
 334              		.loc 1 152 10 view .LVU114
 335 001e A342     		cmp	r3, r4
 336 0020 F5D1     		bne	.L10
 337              	.LVL20:
 338              	.L8:
 339              		.loc 1 155 1 view .LVU115
 340 0022 38BD     		pop	{r3, r4, r5, pc}
 341              		.cfi_endproc
 342              	.LFE348:
ARM GAS  C:\Users\DEVELO~1\AppData\Local\Temp\cclxdU3x.s 			page 7


 343              		.size	chSemResetWithMessageI, .-chSemResetWithMessageI
 344              		.section	.text.chSemWait,"ax",%progbits
 345              		.align	1
 346              		.p2align 4,,15
 347              		.global	chSemWait
 348              		.syntax unified
 349              		.thumb
 350              		.thumb_func
 351              		.type	chSemWait, %function
 352              	chSemWait:
 353              	.LVL21:
 354              	.LFB349:
 355              		.loc 1 169 34 is_stmt 1 view -0
 356              		.cfi_startproc
 357              		@ args = 0, pretend = 0, frame = 0
 358              		@ frame_needed = 0, uses_anonymous_args = 0
 359              		.loc 1 170 3 view .LVU117
 360              		.loc 1 172 3 view .LVU118
 361              	.LBB166:
 362              	.LBI166:
 363              		.loc 3 407 20 view .LVU119
 364              		.loc 3 409 3 view .LVU120
 365              	.LBB167:
 366              	.LBI167:
 367              		.loc 4 823 27 view .LVU121
 368              		.loc 4 831 3 view .LVU122
 369              	.LBB168:
 370              	.LBI168:
 371              		.loc 5 491 27 view .LVU123
 372              	.LBB169:
 373              		.loc 5 493 3 view .LVU124
 374 0000 3022     		movs	r2, #48
 375              		.syntax unified
 376              	@ 493 "../../../os/common/ext/ARM/CMSIS/Core/Include/cmsis_gcc.h" 1
 377 0002 82F31188 		MSR basepri, r2
 378              	@ 0 "" 2
 379              	.LVL22:
 380              		.loc 5 493 3 is_stmt 0 view .LVU125
 381              		.thumb
 382              		.syntax unified
 383              	.LBE169:
 384              	.LBE168:
 385              	.LBE167:
 386              		.loc 3 410 35 is_stmt 1 view .LVU126
 387              		.loc 3 411 21 view .LVU127
 388              	.LBE166:
 389              		.loc 1 173 3 view .LVU128
 390              	.LBB170:
 391              	.LBI170:
 392              		.loc 1 191 7 view .LVU129
 393              	.LBB171:
 394              		.loc 1 193 21 view .LVU130
 395              		.loc 1 194 3 view .LVU131
 396              		.loc 1 194 3 view .LVU132
 397              		.loc 1 194 3 view .LVU133
 398              		.loc 1 195 3 view .LVU134
 399              		.loc 1 195 3 view .LVU135
ARM GAS  C:\Users\DEVELO~1\AppData\Local\Temp\cclxdU3x.s 			page 8


 400              		.loc 1 195 3 view .LVU136
 401              		.loc 1 199 3 view .LVU137
 402              		.loc 1 199 7 is_stmt 0 view .LVU138
 403 0006 8268     		ldr	r2, [r0, #8]
 404 0008 013A     		subs	r2, r2, #1
 405              		.loc 1 199 6 view .LVU139
 406 000a 002A     		cmp	r2, #0
 407 000c 8260     		str	r2, [r0, #8]
 408 000e 04DB     		blt	.L20
 409              		.loc 1 208 10 view .LVU140
 410 0010 0020     		movs	r0, #0
 411              	.LVL23:
 412              		.loc 1 208 10 view .LVU141
 413              	.LBE171:
 414              	.LBE170:
 415              		.loc 1 174 3 is_stmt 1 view .LVU142
 416              	.LBB192:
 417              	.LBI192:
 418              		.loc 3 421 20 view .LVU143
 419              	.LBB193:
 420              		.loc 3 423 23 view .LVU144
 421              		.loc 3 424 34 view .LVU145
 422              		.loc 3 430 3 view .LVU146
 423              		.loc 3 430 3 view .LVU147
 424              		.loc 3 430 3 view .LVU148
 425              		.loc 3 434 3 view .LVU149
 426              	.LBB194:
 427              	.LBI194:
 428              		.loc 4 847 27 view .LVU150
 429              		.loc 4 850 3 view .LVU151
 430              	.LBB195:
 431              	.LBI195:
 432              		.loc 5 491 27 view .LVU152
 433              	.LBB196:
 434              		.loc 5 493 3 view .LVU153
 435 0012 0023     		movs	r3, #0
 436              		.syntax unified
 437              	@ 493 "../../../os/common/ext/ARM/CMSIS/Core/Include/cmsis_gcc.h" 1
 438 0014 83F31188 		MSR basepri, r3
 439              	@ 0 "" 2
 440              	.LVL24:
 441              		.loc 5 493 3 is_stmt 0 view .LVU154
 442              		.thumb
 443              		.syntax unified
 444              	.LBE196:
 445              	.LBE195:
 446              	.LBE194:
 447              	.LBE193:
 448              	.LBE192:
 449              		.loc 1 176 3 is_stmt 1 view .LVU155
 450              		.loc 1 177 1 is_stmt 0 view .LVU156
 451 0018 7047     		bx	lr
 452              	.LVL25:
 453              	.L20:
 454              	.LBB201:
 455              	.LBB190:
 456              	.LBB172:
ARM GAS  C:\Users\DEVELO~1\AppData\Local\Temp\cclxdU3x.s 			page 9


 457              	.LBB173:
 458              	.LBB174:
 459              	.LBB175:
 460              	.LBB176:
 461              		.file 6 "../../../os/rt/include/chthreads.h"
 462              		.loc 6 343 10 view .LVU157
 463 001a 0949     		ldr	r1, .L21
 464 001c 0346     		mov	r3, r0
 465              	.LVL26:
 466              		.loc 6 343 10 view .LVU158
 467              	.LBE176:
 468              	.LBE175:
 469              	.LBE174:
 470              	.LBE173:
 471              	.LBI172:
 472              		.loc 1 191 7 is_stmt 1 view .LVU159
 473              	.LBB187:
 474              	.LBB185:
 475              		.loc 1 200 5 view .LVU160
 476              	.LBB179:
 477              	.LBI175:
 478              		.loc 6 341 25 view .LVU161
 479              	.LBB177:
 480              		.loc 6 343 3 view .LVU162
 481              	.LBE177:
 482              	.LBE179:
 483              	.LBB180:
 484              	.LBB181:
 485              		.loc 2 265 21 is_stmt 0 view .LVU163
 486 001e 4268     		ldr	r2, [r0, #4]
 487              	.LBE181:
 488              	.LBE180:
 489              		.loc 1 203 5 view .LVU164
 490 0020 0520     		movs	r0, #5
 491              	.LVL27:
 492              		.loc 1 203 5 view .LVU165
 493              	.LBE185:
 494              	.LBE187:
 495              	.LBE172:
 496              	.LBE190:
 497              	.LBE201:
 498              		.loc 1 169 34 view .LVU166
 499 0022 10B5     		push	{r4, lr}
 500              		.cfi_def_cfa_offset 8
 501              		.cfi_offset 4, -8
 502              		.cfi_offset 14, -4
 503              	.LBB202:
 504              	.LBB191:
 505              	.LBB189:
 506              	.LBB188:
 507              	.LBB186:
 508              	.LBB183:
 509              	.LBB178:
 510              		.loc 6 343 10 view .LVU167
 511 0024 CC68     		ldr	r4, [r1, #12]
 512              	.LVL28:
 513              		.loc 6 343 10 view .LVU168
ARM GAS  C:\Users\DEVELO~1\AppData\Local\Temp\cclxdU3x.s 			page 10


 514              	.LBE178:
 515              	.LBE183:
 516              		.loc 1 201 5 is_stmt 1 view .LVU169
 517              		.loc 1 201 22 is_stmt 0 view .LVU170
 518 0026 A362     		str	r3, [r4, #40]
 519              		.loc 1 202 5 is_stmt 1 view .LVU171
 520              	.LVL29:
 521              	.LBB184:
 522              	.LBI180:
 523              		.loc 2 262 20 view .LVU172
 524              	.LBB182:
 525              		.loc 2 264 3 view .LVU173
 526              		.loc 2 265 17 is_stmt 0 view .LVU174
 527 0028 C4E90032 		strd	r3, r2, [r4]
 528              		.loc 2 266 3 is_stmt 1 view .LVU175
 529              		.loc 2 266 17 is_stmt 0 view .LVU176
 530 002c 1460     		str	r4, [r2]
 531              		.loc 2 267 3 is_stmt 1 view .LVU177
 532              		.loc 2 267 17 is_stmt 0 view .LVU178
 533 002e 5C60     		str	r4, [r3, #4]
 534              	.LVL30:
 535              		.loc 2 267 17 view .LVU179
 536              	.LBE182:
 537              	.LBE184:
 538              		.loc 1 203 5 is_stmt 1 view .LVU180
 539 0030 FFF7FEFF 		bl	chSchGoSleepS
 540              	.LVL31:
 541              		.loc 1 205 5 view .LVU181
 542              		.loc 1 205 21 is_stmt 0 view .LVU182
 543 0034 A06A     		ldr	r0, [r4, #40]
 544              	.LVL32:
 545              		.loc 1 205 21 view .LVU183
 546              	.LBE186:
 547              	.LBE188:
 548              	.LBE189:
 549              	.LBE191:
 550              	.LBE202:
 551              		.loc 1 174 3 is_stmt 1 view .LVU184
 552              	.LBB203:
 553              		.loc 3 421 20 view .LVU185
 554              	.LBB200:
 555              		.loc 3 423 23 view .LVU186
 556              		.loc 3 424 34 view .LVU187
 557              		.loc 3 430 3 view .LVU188
 558              		.loc 3 430 3 view .LVU189
 559              		.loc 3 430 3 view .LVU190
 560              		.loc 3 434 3 view .LVU191
 561              	.LBB199:
 562              		.loc 4 847 27 view .LVU192
 563              		.loc 4 850 3 view .LVU193
 564              	.LBB198:
 565              		.loc 5 491 27 view .LVU194
 566              	.LBB197:
 567              		.loc 5 493 3 view .LVU195
 568 0036 0023     		movs	r3, #0
 569              		.syntax unified
 570              	@ 493 "../../../os/common/ext/ARM/CMSIS/Core/Include/cmsis_gcc.h" 1
ARM GAS  C:\Users\DEVELO~1\AppData\Local\Temp\cclxdU3x.s 			page 11


 571 0038 83F31188 		MSR basepri, r3
 572              	@ 0 "" 2
 573              	.LVL33:
 574              		.loc 5 493 3 is_stmt 0 view .LVU196
 575              		.thumb
 576              		.syntax unified
 577              	.LBE197:
 578              	.LBE198:
 579              	.LBE199:
 580              	.LBE200:
 581              	.LBE203:
 582              		.loc 1 176 3 is_stmt 1 view .LVU197
 583              		.loc 1 177 1 is_stmt 0 view .LVU198
 584 003c 10BD     		pop	{r4, pc}
 585              	.L22:
 586 003e 00BF     		.align	2
 587              	.L21:
 588 0040 00000000 		.word	ch0
 589              		.cfi_endproc
 590              	.LFE349:
 591              		.size	chSemWait, .-chSemWait
 592              		.section	.text.chSemWaitS,"ax",%progbits
 593              		.align	1
 594              		.p2align 4,,15
 595              		.global	chSemWaitS
 596              		.syntax unified
 597              		.thumb
 598              		.thumb_func
 599              		.type	chSemWaitS, %function
 600              	chSemWaitS:
 601              	.LVL34:
 602              	.LFB350:
 603              		.loc 1 191 35 is_stmt 1 view -0
 604              		.cfi_startproc
 605              		@ args = 0, pretend = 0, frame = 0
 606              		@ frame_needed = 0, uses_anonymous_args = 0
 607              		.loc 1 193 21 view .LVU200
 608              		.loc 1 194 3 view .LVU201
 609              		.loc 1 194 3 view .LVU202
 610              		.loc 1 194 3 view .LVU203
 611              		.loc 1 195 3 view .LVU204
 612              		.loc 1 195 3 view .LVU205
 613              		.loc 1 195 3 view .LVU206
 614              		.loc 1 199 3 view .LVU207
 615              		.loc 1 199 7 is_stmt 0 view .LVU208
 616 0000 8268     		ldr	r2, [r0, #8]
 617 0002 013A     		subs	r2, r2, #1
 618              		.loc 1 199 6 view .LVU209
 619 0004 002A     		cmp	r2, #0
 620 0006 8260     		str	r2, [r0, #8]
 621 0008 01DB     		blt	.L30
 622              		.loc 1 208 10 view .LVU210
 623 000a 0020     		movs	r0, #0
 624              	.LVL35:
 625              		.loc 1 209 1 view .LVU211
 626 000c 7047     		bx	lr
 627              	.LVL36:
ARM GAS  C:\Users\DEVELO~1\AppData\Local\Temp\cclxdU3x.s 			page 12


 628              	.L30:
 629              	.LBB211:
 630              	.LBB212:
 631              	.LBB213:
 632              	.LBB214:
 633              	.LBB215:
 634              		.loc 6 343 10 view .LVU212
 635 000e 0749     		ldr	r1, .L31
 636 0010 0346     		mov	r3, r0
 637              	.LVL37:
 638              		.loc 6 343 10 view .LVU213
 639              	.LBE215:
 640              	.LBE214:
 641              	.LBE213:
 642              	.LBE212:
 643              	.LBI211:
 644              		.loc 1 191 7 is_stmt 1 view .LVU214
 645              	.LBB226:
 646              	.LBB224:
 647              		.loc 1 200 5 view .LVU215
 648              	.LBB218:
 649              	.LBI214:
 650              		.loc 6 341 25 view .LVU216
 651              	.LBB216:
 652              		.loc 6 343 3 view .LVU217
 653              	.LBE216:
 654              	.LBE218:
 655              	.LBB219:
 656              	.LBB220:
 657              		.loc 2 265 21 is_stmt 0 view .LVU218
 658 0012 4268     		ldr	r2, [r0, #4]
 659              	.LBE220:
 660              	.LBE219:
 661              		.loc 1 203 5 view .LVU219
 662 0014 0520     		movs	r0, #5
 663              	.LVL38:
 664              		.loc 1 203 5 view .LVU220
 665              	.LBE224:
 666              	.LBE226:
 667              	.LBE211:
 668              		.loc 1 191 35 view .LVU221
 669 0016 10B5     		push	{r4, lr}
 670              		.cfi_def_cfa_offset 8
 671              		.cfi_offset 4, -8
 672              		.cfi_offset 14, -4
 673              	.LBB228:
 674              	.LBB227:
 675              	.LBB225:
 676              	.LBB222:
 677              	.LBB217:
 678              		.loc 6 343 10 view .LVU222
 679 0018 CC68     		ldr	r4, [r1, #12]
 680              	.LVL39:
 681              		.loc 6 343 10 view .LVU223
 682              	.LBE217:
 683              	.LBE222:
 684              		.loc 1 201 5 is_stmt 1 view .LVU224
ARM GAS  C:\Users\DEVELO~1\AppData\Local\Temp\cclxdU3x.s 			page 13


 685              		.loc 1 201 22 is_stmt 0 view .LVU225
 686 001a A362     		str	r3, [r4, #40]
 687              		.loc 1 202 5 is_stmt 1 view .LVU226
 688              	.LVL40:
 689              	.LBB223:
 690              	.LBI219:
 691              		.loc 2 262 20 view .LVU227
 692              	.LBB221:
 693              		.loc 2 264 3 view .LVU228
 694              		.loc 2 265 17 is_stmt 0 view .LVU229
 695 001c C4E90032 		strd	r3, r2, [r4]
 696              		.loc 2 266 3 is_stmt 1 view .LVU230
 697              		.loc 2 266 17 is_stmt 0 view .LVU231
 698 0020 1460     		str	r4, [r2]
 699              		.loc 2 267 3 is_stmt 1 view .LVU232
 700              		.loc 2 267 17 is_stmt 0 view .LVU233
 701 0022 5C60     		str	r4, [r3, #4]
 702              	.LVL41:
 703              		.loc 2 267 17 view .LVU234
 704              	.LBE221:
 705              	.LBE223:
 706              		.loc 1 203 5 is_stmt 1 view .LVU235
 707 0024 FFF7FEFF 		bl	chSchGoSleepS
 708              	.LVL42:
 709              		.loc 1 205 5 view .LVU236
 710              		.loc 1 205 21 is_stmt 0 view .LVU237
 711 0028 A06A     		ldr	r0, [r4, #40]
 712              	.LVL43:
 713              		.loc 1 205 21 view .LVU238
 714              	.LBE225:
 715              	.LBE227:
 716              	.LBE228:
 717              		.loc 1 209 1 view .LVU239
 718 002a 10BD     		pop	{r4, pc}
 719              	.L32:
 720              		.align	2
 721              	.L31:
 722 002c 00000000 		.word	ch0
 723              		.cfi_endproc
 724              	.LFE350:
 725              		.size	chSemWaitS, .-chSemWaitS
 726              		.section	.text.chSemWaitTimeout,"ax",%progbits
 727              		.align	1
 728              		.p2align 4,,15
 729              		.global	chSemWaitTimeout
 730              		.syntax unified
 731              		.thumb
 732              		.thumb_func
 733              		.type	chSemWaitTimeout, %function
 734              	chSemWaitTimeout:
 735              	.LVL44:
 736              	.LFB351:
 737              		.loc 1 230 64 is_stmt 1 view -0
 738              		.cfi_startproc
 739              		@ args = 0, pretend = 0, frame = 0
 740              		@ frame_needed = 0, uses_anonymous_args = 0
 741              		.loc 1 230 64 is_stmt 0 view .LVU241
ARM GAS  C:\Users\DEVELO~1\AppData\Local\Temp\cclxdU3x.s 			page 14


 742 0000 10B5     		push	{r4, lr}
 743              		.cfi_def_cfa_offset 8
 744              		.cfi_offset 4, -8
 745              		.cfi_offset 14, -4
 746              		.loc 1 230 64 view .LVU242
 747 0002 0346     		mov	r3, r0
 748              		.loc 1 231 3 is_stmt 1 view .LVU243
 749              		.loc 1 233 3 view .LVU244
 750              	.LBB248:
 751              	.LBI248:
 752              		.loc 3 407 20 view .LVU245
 753              		.loc 3 409 3 view .LVU246
 754              	.LBB249:
 755              	.LBI249:
 756              		.loc 4 823 27 view .LVU247
 757              		.loc 4 831 3 view .LVU248
 758              	.LVL45:
 759              	.LBB250:
 760              	.LBI250:
 761              		.loc 5 491 27 view .LVU249
 762              	.LBB251:
 763              		.loc 5 493 3 view .LVU250
 764 0004 3024     		movs	r4, #48
 765              		.syntax unified
 766              	@ 493 "../../../os/common/ext/ARM/CMSIS/Core/Include/cmsis_gcc.h" 1
 767 0006 84F31188 		MSR basepri, r4
 768              	@ 0 "" 2
 769              	.LVL46:
 770              		.loc 5 493 3 is_stmt 0 view .LVU251
 771              		.thumb
 772              		.syntax unified
 773              	.LBE251:
 774              	.LBE250:
 775              	.LBE249:
 776              		.loc 3 410 35 is_stmt 1 view .LVU252
 777              		.loc 3 411 21 view .LVU253
 778              	.LBE248:
 779              		.loc 1 234 3 view .LVU254
 780              	.LBB252:
 781              	.LBI252:
 782              		.loc 1 259 7 view .LVU255
 783              	.LBB253:
 784              		.loc 1 261 21 view .LVU256
 785              		.loc 1 262 3 view .LVU257
 786              		.loc 1 262 3 view .LVU258
 787              		.loc 1 262 3 view .LVU259
 788              		.loc 1 263 3 view .LVU260
 789              		.loc 1 263 3 view .LVU261
 790              		.loc 1 263 3 view .LVU262
 791              		.loc 1 267 3 view .LVU263
 792              		.loc 1 267 11 is_stmt 0 view .LVU264
 793 000a 8468     		ldr	r4, [r0, #8]
 794              		.loc 1 267 7 view .LVU265
 795 000c 601E     		subs	r0, r4, #1
 796              	.LVL47:
 797              		.loc 1 267 6 view .LVU266
 798 000e 0028     		cmp	r0, #0
ARM GAS  C:\Users\DEVELO~1\AppData\Local\Temp\cclxdU3x.s 			page 15


 799 0010 9860     		str	r0, [r3, #8]
 800 0012 04DB     		blt	.L38
 801              		.loc 1 280 10 view .LVU267
 802 0014 0020     		movs	r0, #0
 803              	.L34:
 804              	.LVL48:
 805              		.loc 1 280 10 view .LVU268
 806              	.LBE253:
 807              	.LBE252:
 808              		.loc 1 235 3 is_stmt 1 view .LVU269
 809              	.LBB269:
 810              	.LBI269:
 811              		.loc 3 421 20 view .LVU270
 812              	.LBB270:
 813              		.loc 3 423 23 view .LVU271
 814              		.loc 3 424 34 view .LVU272
 815              		.loc 3 430 3 view .LVU273
 816              		.loc 3 430 3 view .LVU274
 817              		.loc 3 430 3 view .LVU275
 818              		.loc 3 434 3 view .LVU276
 819              	.LBB271:
 820              	.LBI271:
 821              		.loc 4 847 27 view .LVU277
 822              		.loc 4 850 3 view .LVU278
 823              	.LBB272:
 824              	.LBI272:
 825              		.loc 5 491 27 view .LVU279
 826              	.LBB273:
 827              		.loc 5 493 3 view .LVU280
 828 0016 0023     		movs	r3, #0
 829              	.LVL49:
 830              		.loc 5 493 3 is_stmt 0 view .LVU281
 831              		.syntax unified
 832              	@ 493 "../../../os/common/ext/ARM/CMSIS/Core/Include/cmsis_gcc.h" 1
 833 0018 83F31188 		MSR basepri, r3
 834              	@ 0 "" 2
 835              	.LVL50:
 836              		.loc 5 493 3 view .LVU282
 837              		.thumb
 838              		.syntax unified
 839              	.LBE273:
 840              	.LBE272:
 841              	.LBE271:
 842              	.LBE270:
 843              	.LBE269:
 844              		.loc 1 237 3 is_stmt 1 view .LVU283
 845              		.loc 1 238 1 is_stmt 0 view .LVU284
 846 001c 10BD     		pop	{r4, pc}
 847              	.LVL51:
 848              	.L38:
 849              	.LBB278:
 850              	.LBB267:
 851              	.LBB254:
 852              		.loc 1 268 5 is_stmt 1 view .LVU285
 853              		.loc 1 268 8 is_stmt 0 view .LVU286
 854 001e 71B1     		cbz	r1, .L39
 855              	.LVL52:
ARM GAS  C:\Users\DEVELO~1\AppData\Local\Temp\cclxdU3x.s 			page 16


 856              		.loc 1 268 8 view .LVU287
 857              	.LBE254:
 858              	.LBB255:
 859              	.LBI255:
 860              		.loc 1 259 7 is_stmt 1 view .LVU288
 861              	.LBB256:
 862              	.LBB257:
 863              		.loc 1 273 5 view .LVU289
 864              	.LBB258:
 865              	.LBI258:
 866              		.loc 6 341 25 view .LVU290
 867              	.LBB259:
 868              		.loc 6 343 3 view .LVU291
 869              		.loc 6 343 10 is_stmt 0 view .LVU292
 870 0020 094A     		ldr	r2, .L40
 871              	.LBE259:
 872              	.LBE258:
 873              		.loc 1 277 12 view .LVU293
 874 0022 0520     		movs	r0, #5
 875              	.LBB261:
 876              	.LBB262:
 877              		.loc 2 265 21 view .LVU294
 878 0024 5C68     		ldr	r4, [r3, #4]
 879              	.LBE262:
 880              	.LBE261:
 881              	.LBB264:
 882              	.LBB260:
 883              		.loc 6 343 10 view .LVU295
 884 0026 D268     		ldr	r2, [r2, #12]
 885              	.LVL53:
 886              		.loc 6 343 10 view .LVU296
 887              	.LBE260:
 888              	.LBE264:
 889              		.loc 1 274 5 is_stmt 1 view .LVU297
 890              		.loc 1 274 22 is_stmt 0 view .LVU298
 891 0028 9362     		str	r3, [r2, #40]
 892              		.loc 1 275 5 is_stmt 1 view .LVU299
 893              	.LVL54:
 894              	.LBB265:
 895              	.LBI261:
 896              		.loc 2 262 20 view .LVU300
 897              	.LBB263:
 898              		.loc 2 264 3 view .LVU301
 899              		.loc 2 265 17 is_stmt 0 view .LVU302
 900 002a C2E90034 		strd	r3, r4, [r2]
 901              		.loc 2 266 3 is_stmt 1 view .LVU303
 902              		.loc 2 266 17 is_stmt 0 view .LVU304
 903 002e 2260     		str	r2, [r4]
 904              		.loc 2 267 3 is_stmt 1 view .LVU305
 905              		.loc 2 267 17 is_stmt 0 view .LVU306
 906 0030 5A60     		str	r2, [r3, #4]
 907              	.LVL55:
 908              		.loc 2 267 17 view .LVU307
 909              	.LBE263:
 910              	.LBE265:
 911              		.loc 1 277 5 is_stmt 1 view .LVU308
 912              		.loc 1 277 12 is_stmt 0 view .LVU309
ARM GAS  C:\Users\DEVELO~1\AppData\Local\Temp\cclxdU3x.s 			page 17


 913 0032 FFF7FEFF 		bl	chSchGoSleepTimeoutS
 914              	.LVL56:
 915              		.loc 1 277 12 view .LVU310
 916              	.LBE257:
 917              	.LBE256:
 918              	.LBE255:
 919              	.LBE267:
 920              	.LBE278:
 921              		.loc 1 235 3 is_stmt 1 view .LVU311
 922              	.LBB279:
 923              		.loc 3 421 20 view .LVU312
 924              	.LBB277:
 925              		.loc 3 423 23 view .LVU313
 926              		.loc 3 424 34 view .LVU314
 927              		.loc 3 430 3 view .LVU315
 928              		.loc 3 430 3 view .LVU316
 929              		.loc 3 430 3 view .LVU317
 930              		.loc 3 434 3 view .LVU318
 931              	.LBB276:
 932              		.loc 4 847 27 view .LVU319
 933              		.loc 4 850 3 view .LVU320
 934              	.LBB275:
 935              		.loc 5 491 27 view .LVU321
 936              	.LBB274:
 937              		.loc 5 493 3 view .LVU322
 938 0036 0023     		movs	r3, #0
 939              		.syntax unified
 940              	@ 493 "../../../os/common/ext/ARM/CMSIS/Core/Include/cmsis_gcc.h" 1
 941 0038 83F31188 		MSR basepri, r3
 942              	@ 0 "" 2
 943              	.LVL57:
 944              		.loc 5 493 3 is_stmt 0 view .LVU323
 945              		.thumb
 946              		.syntax unified
 947              	.LBE274:
 948              	.LBE275:
 949              	.LBE276:
 950              	.LBE277:
 951              	.LBE279:
 952              		.loc 1 237 3 is_stmt 1 view .LVU324
 953              		.loc 1 238 1 is_stmt 0 view .LVU325
 954 003c 10BD     		pop	{r4, pc}
 955              	.LVL58:
 956              	.L39:
 957              	.LBB280:
 958              	.LBB268:
 959              	.LBB266:
 960              		.loc 1 269 7 is_stmt 1 view .LVU326
 961              		.loc 1 271 14 is_stmt 0 view .LVU327
 962 003e 4FF0FF30 		mov	r0, #-1
 963              		.loc 1 269 14 view .LVU328
 964 0042 9C60     		str	r4, [r3, #8]
 965              		.loc 1 271 7 is_stmt 1 view .LVU329
 966              		.loc 1 271 14 is_stmt 0 view .LVU330
 967 0044 E7E7     		b	.L34
 968              	.L41:
 969 0046 00BF     		.align	2
ARM GAS  C:\Users\DEVELO~1\AppData\Local\Temp\cclxdU3x.s 			page 18


 970              	.L40:
 971 0048 00000000 		.word	ch0
 972              	.LBE266:
 973              	.LBE268:
 974              	.LBE280:
 975              		.cfi_endproc
 976              	.LFE351:
 977              		.size	chSemWaitTimeout, .-chSemWaitTimeout
 978              		.section	.text.chSemWaitTimeoutS,"ax",%progbits
 979              		.align	1
 980              		.p2align 4,,15
 981              		.global	chSemWaitTimeoutS
 982              		.syntax unified
 983              		.thumb
 984              		.thumb_func
 985              		.type	chSemWaitTimeoutS, %function
 986              	chSemWaitTimeoutS:
 987              	.LVL59:
 988              	.LFB352:
 989              		.loc 1 259 65 is_stmt 1 view -0
 990              		.cfi_startproc
 991              		@ args = 0, pretend = 0, frame = 0
 992              		@ frame_needed = 0, uses_anonymous_args = 0
 993              		@ link register save eliminated.
 994              		.loc 1 259 65 is_stmt 0 view .LVU332
 995 0000 10B4     		push	{r4}
 996              		.cfi_def_cfa_offset 4
 997              		.cfi_offset 4, -4
 998              		.loc 1 267 11 view .LVU333
 999 0002 8468     		ldr	r4, [r0, #8]
 1000              		.loc 1 259 65 view .LVU334
 1001 0004 0346     		mov	r3, r0
 1002              		.loc 1 261 21 is_stmt 1 view .LVU335
 1003              		.loc 1 262 3 view .LVU336
 1004              		.loc 1 262 3 view .LVU337
 1005              		.loc 1 262 3 view .LVU338
 1006              		.loc 1 263 3 view .LVU339
 1007              		.loc 1 263 3 view .LVU340
 1008              		.loc 1 263 3 view .LVU341
 1009              		.loc 1 267 3 view .LVU342
 1010              		.loc 1 267 7 is_stmt 0 view .LVU343
 1011 0006 601E     		subs	r0, r4, #1
 1012              	.LVL60:
 1013              		.loc 1 267 6 view .LVU344
 1014 0008 0028     		cmp	r0, #0
 1015 000a 9860     		str	r0, [r3, #8]
 1016 000c 02DB     		blt	.L47
 1017              		.loc 1 280 10 view .LVU345
 1018 000e 0020     		movs	r0, #0
 1019              	.L42:
 1020              		.loc 1 281 1 view .LVU346
 1021 0010 10BC     		pop	{r4}
 1022              		.cfi_remember_state
 1023              		.cfi_restore 4
 1024              		.cfi_def_cfa_offset 0
 1025 0012 7047     		bx	lr
 1026              	.L47:
ARM GAS  C:\Users\DEVELO~1\AppData\Local\Temp\cclxdU3x.s 			page 19


 1027              		.cfi_restore_state
 1028              	.LBB289:
 1029              		.loc 1 268 5 is_stmt 1 view .LVU347
 1030              		.loc 1 268 8 is_stmt 0 view .LVU348
 1031 0014 59B1     		cbz	r1, .L48
 1032              	.LVL61:
 1033              		.loc 1 268 8 view .LVU349
 1034              	.LBE289:
 1035              	.LBB290:
 1036              	.LBI290:
 1037              		.loc 1 259 7 is_stmt 1 view .LVU350
 1038              	.LBB291:
 1039              	.LBB292:
 1040              		.loc 1 273 5 view .LVU351
 1041              	.LBB293:
 1042              	.LBI293:
 1043              		.loc 6 341 25 view .LVU352
 1044              	.LBB294:
 1045              		.loc 6 343 3 view .LVU353
 1046              		.loc 6 343 10 is_stmt 0 view .LVU354
 1047 0016 084A     		ldr	r2, .L49
 1048              	.LBE294:
 1049              	.LBE293:
 1050              		.loc 1 277 12 view .LVU355
 1051 0018 0520     		movs	r0, #5
 1052              	.LBB296:
 1053              	.LBB297:
 1054              		.loc 2 265 21 view .LVU356
 1055 001a 5C68     		ldr	r4, [r3, #4]
 1056              	.LBE297:
 1057              	.LBE296:
 1058              	.LBB301:
 1059              	.LBB295:
 1060              		.loc 6 343 10 view .LVU357
 1061 001c D268     		ldr	r2, [r2, #12]
 1062              	.LVL62:
 1063              		.loc 6 343 10 view .LVU358
 1064              	.LBE295:
 1065              	.LBE301:
 1066              		.loc 1 274 5 is_stmt 1 view .LVU359
 1067              	.LBB302:
 1068              	.LBB298:
 1069              		.loc 2 265 17 is_stmt 0 view .LVU360
 1070 001e C2E90034 		strd	r3, r4, [r2]
 1071              	.LBE298:
 1072              	.LBE302:
 1073              		.loc 1 274 22 view .LVU361
 1074 0022 9362     		str	r3, [r2, #40]
 1075              		.loc 1 275 5 is_stmt 1 view .LVU362
 1076              	.LVL63:
 1077              	.LBB303:
 1078              	.LBI296:
 1079              		.loc 2 262 20 view .LVU363
 1080              	.LBB299:
 1081              		.loc 2 264 3 view .LVU364
 1082              		.loc 2 266 3 view .LVU365
 1083              		.loc 2 266 17 is_stmt 0 view .LVU366
ARM GAS  C:\Users\DEVELO~1\AppData\Local\Temp\cclxdU3x.s 			page 20


 1084 0024 2260     		str	r2, [r4]
 1085              		.loc 2 267 3 is_stmt 1 view .LVU367
 1086              	.LBE299:
 1087              	.LBE303:
 1088              	.LBE292:
 1089              	.LBE291:
 1090              	.LBE290:
 1091              		.loc 1 281 1 is_stmt 0 view .LVU368
 1092 0026 10BC     		pop	{r4}
 1093              		.cfi_remember_state
 1094              		.cfi_restore 4
 1095              		.cfi_def_cfa_offset 0
 1096              	.LBB307:
 1097              	.LBB306:
 1098              	.LBB305:
 1099              	.LBB304:
 1100              	.LBB300:
 1101              		.loc 2 267 17 view .LVU369
 1102 0028 5A60     		str	r2, [r3, #4]
 1103              	.LVL64:
 1104              		.loc 2 267 17 view .LVU370
 1105              	.LBE300:
 1106              	.LBE304:
 1107              		.loc 1 277 5 is_stmt 1 view .LVU371
 1108              		.loc 1 277 12 is_stmt 0 view .LVU372
 1109 002a FFF7FEBF 		b	chSchGoSleepTimeoutS
 1110              	.LVL65:
 1111              	.L48:
 1112              		.cfi_restore_state
 1113              		.loc 1 277 12 view .LVU373
 1114              	.LBE305:
 1115              	.LBE306:
 1116              	.LBE307:
 1117              	.LBB308:
 1118              		.loc 1 269 7 is_stmt 1 view .LVU374
 1119              		.loc 1 271 14 is_stmt 0 view .LVU375
 1120 002e 4FF0FF30 		mov	r0, #-1
 1121              		.loc 1 269 14 view .LVU376
 1122 0032 9C60     		str	r4, [r3, #8]
 1123              		.loc 1 271 7 is_stmt 1 view .LVU377
 1124              		.loc 1 271 14 is_stmt 0 view .LVU378
 1125 0034 ECE7     		b	.L42
 1126              	.L50:
 1127 0036 00BF     		.align	2
 1128              	.L49:
 1129 0038 00000000 		.word	ch0
 1130              	.LBE308:
 1131              		.cfi_endproc
 1132              	.LFE352:
 1133              		.size	chSemWaitTimeoutS, .-chSemWaitTimeoutS
 1134              		.section	.text.chSemSignal,"ax",%progbits
 1135              		.align	1
 1136              		.p2align 4,,15
 1137              		.global	chSemSignal
 1138              		.syntax unified
 1139              		.thumb
 1140              		.thumb_func
ARM GAS  C:\Users\DEVELO~1\AppData\Local\Temp\cclxdU3x.s 			page 21


 1141              		.type	chSemSignal, %function
 1142              	chSemSignal:
 1143              	.LVL66:
 1144              	.LFB353:
 1145              		.loc 1 290 35 is_stmt 1 view -0
 1146              		.cfi_startproc
 1147              		@ args = 0, pretend = 0, frame = 0
 1148              		@ frame_needed = 0, uses_anonymous_args = 0
 1149              		.loc 1 292 3 view .LVU380
 1150              		.loc 1 292 3 view .LVU381
 1151              		.loc 1 292 3 view .LVU382
 1152              		.loc 1 294 3 view .LVU383
 1153              	.LBB309:
 1154              	.LBI309:
 1155              		.loc 3 407 20 view .LVU384
 1156              		.loc 3 409 3 view .LVU385
 1157              	.LBB310:
 1158              	.LBI310:
 1159              		.loc 4 823 27 view .LVU386
 1160              		.loc 4 831 3 view .LVU387
 1161              	.LBB311:
 1162              	.LBI311:
 1163              		.loc 5 491 27 view .LVU388
 1164              	.LBB312:
 1165              		.loc 5 493 3 view .LVU389
 1166 0000 3022     		movs	r2, #48
 1167              	.LBE312:
 1168              	.LBE311:
 1169              	.LBE310:
 1170              	.LBE309:
 1171              		.loc 1 290 35 is_stmt 0 view .LVU390
 1172 0002 08B5     		push	{r3, lr}
 1173              		.cfi_def_cfa_offset 8
 1174              		.cfi_offset 3, -8
 1175              		.cfi_offset 14, -4
 1176              	.LBB316:
 1177              	.LBB315:
 1178              	.LBB314:
 1179              	.LBB313:
 1180              		.loc 5 493 3 view .LVU391
 1181              		.syntax unified
 1182              	@ 493 "../../../os/common/ext/ARM/CMSIS/Core/Include/cmsis_gcc.h" 1
 1183 0004 82F31188 		MSR basepri, r2
 1184              	@ 0 "" 2
 1185              	.LVL67:
 1186              		.loc 5 493 3 view .LVU392
 1187              		.thumb
 1188              		.syntax unified
 1189              	.LBE313:
 1190              	.LBE314:
 1191              	.LBE315:
 1192              		.loc 3 410 35 is_stmt 1 view .LVU393
 1193              		.loc 3 411 21 view .LVU394
 1194              	.LBE316:
 1195              		.loc 1 295 3 view .LVU395
 1196              		.loc 1 295 3 view .LVU396
 1197              		.loc 1 295 3 view .LVU397
ARM GAS  C:\Users\DEVELO~1\AppData\Local\Temp\cclxdU3x.s 			page 22


 1198              		.loc 1 298 3 view .LVU398
 1199              		.loc 1 298 7 is_stmt 0 view .LVU399
 1200 0008 8268     		ldr	r2, [r0, #8]
 1201 000a 0132     		adds	r2, r2, #1
 1202              		.loc 1 298 6 view .LVU400
 1203 000c 002A     		cmp	r2, #0
 1204 000e 8260     		str	r2, [r0, #8]
 1205 0010 03DD     		ble	.L54
 1206              		.loc 1 301 3 is_stmt 1 view .LVU401
 1207              	.LBB317:
 1208              	.LBI317:
 1209              		.loc 3 421 20 view .LVU402
 1210              	.LBB318:
 1211              		.loc 3 423 23 view .LVU403
 1212              		.loc 3 424 34 view .LVU404
 1213              		.loc 3 430 3 view .LVU405
 1214              		.loc 3 430 3 view .LVU406
 1215              		.loc 3 430 3 view .LVU407
 1216              		.loc 3 434 3 view .LVU408
 1217              	.LBB319:
 1218              	.LBI319:
 1219              		.loc 4 847 27 view .LVU409
 1220              		.loc 4 850 3 view .LVU410
 1221              	.LVL68:
 1222              	.LBB320:
 1223              	.LBI320:
 1224              		.loc 5 491 27 view .LVU411
 1225              	.LBB321:
 1226              		.loc 5 493 3 view .LVU412
 1227 0012 0023     		movs	r3, #0
 1228              		.syntax unified
 1229              	@ 493 "../../../os/common/ext/ARM/CMSIS/Core/Include/cmsis_gcc.h" 1
 1230 0014 83F31188 		MSR basepri, r3
 1231              	@ 0 "" 2
 1232              	.LVL69:
 1233              		.loc 5 493 3 is_stmt 0 view .LVU413
 1234              		.thumb
 1235              		.syntax unified
 1236              	.LBE321:
 1237              	.LBE320:
 1238              	.LBE319:
 1239              	.LBE318:
 1240              	.LBE317:
 1241              		.loc 1 302 1 view .LVU414
 1242 0018 08BD     		pop	{r3, pc}
 1243              	.L54:
 1244 001a 0346     		mov	r3, r0
 1245              		.loc 1 299 5 is_stmt 1 view .LVU415
 1246              	.LVL70:
 1247              	.LBB326:
 1248              	.LBI326:
 1249              		.loc 2 280 27 view .LVU416
 1250              	.LBB327:
 1251              		.loc 2 281 3 view .LVU417
 1252              		.loc 2 281 15 is_stmt 0 view .LVU418
 1253 001c 0068     		ldr	r0, [r0]
 1254              	.LVL71:
ARM GAS  C:\Users\DEVELO~1\AppData\Local\Temp\cclxdU3x.s 			page 23


 1255              		.loc 2 283 3 is_stmt 1 view .LVU419
 1256              	.LBE327:
 1257              	.LBE326:
 1258              		.loc 1 299 5 is_stmt 0 view .LVU420
 1259 001e 0021     		movs	r1, #0
 1260              	.LBB329:
 1261              	.LBB328:
 1262              		.loc 2 283 21 view .LVU421
 1263 0020 0268     		ldr	r2, [r0]
 1264              		.loc 2 283 18 view .LVU422
 1265 0022 1A60     		str	r2, [r3]
 1266              		.loc 2 284 3 is_stmt 1 view .LVU423
 1267              		.loc 2 284 18 is_stmt 0 view .LVU424
 1268 0024 5360     		str	r3, [r2, #4]
 1269              		.loc 2 286 3 is_stmt 1 view .LVU425
 1270              	.LVL72:
 1271              		.loc 2 286 3 is_stmt 0 view .LVU426
 1272              	.LBE328:
 1273              	.LBE329:
 1274              		.loc 1 299 5 view .LVU427
 1275 0026 FFF7FEFF 		bl	chSchWakeupS
 1276              	.LVL73:
 1277              		.loc 1 301 3 is_stmt 1 view .LVU428
 1278              	.LBB330:
 1279              		.loc 3 421 20 view .LVU429
 1280              	.LBB325:
 1281              		.loc 3 423 23 view .LVU430
 1282              		.loc 3 424 34 view .LVU431
 1283              		.loc 3 430 3 view .LVU432
 1284              		.loc 3 430 3 view .LVU433
 1285              		.loc 3 430 3 view .LVU434
 1286              		.loc 3 434 3 view .LVU435
 1287              	.LBB324:
 1288              		.loc 4 847 27 view .LVU436
 1289              		.loc 4 850 3 view .LVU437
 1290              	.LBB323:
 1291              		.loc 5 491 27 view .LVU438
 1292              	.LBB322:
 1293              		.loc 5 493 3 view .LVU439
 1294 002a 0023     		movs	r3, #0
 1295              		.syntax unified
 1296              	@ 493 "../../../os/common/ext/ARM/CMSIS/Core/Include/cmsis_gcc.h" 1
 1297 002c 83F31188 		MSR basepri, r3
 1298              	@ 0 "" 2
 1299              	.LVL74:
 1300              		.loc 5 493 3 is_stmt 0 view .LVU440
 1301              		.thumb
 1302              		.syntax unified
 1303              	.LBE322:
 1304              	.LBE323:
 1305              	.LBE324:
 1306              	.LBE325:
 1307              	.LBE330:
 1308              		.loc 1 302 1 view .LVU441
 1309 0030 08BD     		pop	{r3, pc}
 1310              		.cfi_endproc
 1311              	.LFE353:
ARM GAS  C:\Users\DEVELO~1\AppData\Local\Temp\cclxdU3x.s 			page 24


 1312              		.size	chSemSignal, .-chSemSignal
 1313 0032 00BF     		.section	.text.chSemSignalI,"ax",%progbits
 1314              		.align	1
 1315              		.p2align 4,,15
 1316              		.global	chSemSignalI
 1317              		.syntax unified
 1318              		.thumb
 1319              		.thumb_func
 1320              		.type	chSemSignalI, %function
 1321              	chSemSignalI:
 1322              	.LVL75:
 1323              	.LFB354:
 1324              		.loc 1 315 36 is_stmt 1 view -0
 1325              		.cfi_startproc
 1326              		@ args = 0, pretend = 0, frame = 0
 1327              		@ frame_needed = 0, uses_anonymous_args = 0
 1328              		@ link register save eliminated.
 1329              		.loc 1 317 21 view .LVU443
 1330              		.loc 1 318 3 view .LVU444
 1331              		.loc 1 318 3 view .LVU445
 1332              		.loc 1 318 3 view .LVU446
 1333              		.loc 1 319 3 view .LVU447
 1334              		.loc 1 319 3 view .LVU448
 1335              		.loc 1 319 3 view .LVU449
 1336              		.loc 1 323 3 view .LVU450
 1337              		.loc 1 323 7 is_stmt 0 view .LVU451
 1338 0000 8268     		ldr	r2, [r0, #8]
 1339              		.loc 1 315 36 view .LVU452
 1340 0002 0346     		mov	r3, r0
 1341              		.loc 1 323 7 view .LVU453
 1342 0004 0132     		adds	r2, r2, #1
 1343              		.loc 1 323 6 view .LVU454
 1344 0006 002A     		cmp	r2, #0
 1345 0008 8260     		str	r2, [r0, #8]
 1346 000a 00DD     		ble	.L57
 1347              		.loc 1 330 1 view .LVU455
 1348 000c 7047     		bx	lr
 1349              	.L57:
 1350              	.LBB331:
 1351              		.loc 1 326 5 is_stmt 1 view .LVU456
 1352              	.LVL76:
 1353              	.LBB332:
 1354              	.LBI332:
 1355              		.loc 2 280 27 view .LVU457
 1356              	.LBB333:
 1357              		.loc 2 281 3 view .LVU458
 1358              		.loc 2 281 15 is_stmt 0 view .LVU459
 1359 000e 0068     		ldr	r0, [r0]
 1360              	.LVL77:
 1361              		.loc 2 283 3 is_stmt 1 view .LVU460
 1362              	.LBE333:
 1363              	.LBE332:
 1364              		.loc 1 327 18 is_stmt 0 view .LVU461
 1365 0010 0021     		movs	r1, #0
 1366              	.LBB335:
 1367              	.LBB334:
 1368              		.loc 2 283 21 view .LVU462
ARM GAS  C:\Users\DEVELO~1\AppData\Local\Temp\cclxdU3x.s 			page 25


 1369 0012 0268     		ldr	r2, [r0]
 1370              		.loc 2 283 18 view .LVU463
 1371 0014 1A60     		str	r2, [r3]
 1372              		.loc 2 284 3 is_stmt 1 view .LVU464
 1373              		.loc 2 284 18 is_stmt 0 view .LVU465
 1374 0016 5360     		str	r3, [r2, #4]
 1375              		.loc 2 286 3 is_stmt 1 view .LVU466
 1376              	.LVL78:
 1377              		.loc 2 286 3 is_stmt 0 view .LVU467
 1378              	.LBE334:
 1379              	.LBE335:
 1380              		.loc 1 327 5 is_stmt 1 view .LVU468
 1381              		.loc 1 327 18 is_stmt 0 view .LVU469
 1382 0018 8162     		str	r1, [r0, #40]
 1383              		.loc 1 328 5 is_stmt 1 view .LVU470
 1384              		.loc 1 328 12 is_stmt 0 view .LVU471
 1385 001a FFF7FEBF 		b	chSchReadyI
 1386              	.LVL79:
 1387              		.loc 1 328 12 view .LVU472
 1388              	.LBE331:
 1389              		.cfi_endproc
 1390              	.LFE354:
 1391              		.size	chSemSignalI, .-chSemSignalI
 1392 001e 00BF     		.section	.text.chSemAddCounterI,"ax",%progbits
 1393              		.align	1
 1394              		.p2align 4,,15
 1395              		.global	chSemAddCounterI
 1396              		.syntax unified
 1397              		.thumb
 1398              		.thumb_func
 1399              		.type	chSemAddCounterI, %function
 1400              	chSemAddCounterI:
 1401              	.LVL80:
 1402              	.LFB355:
 1403              		.loc 1 345 49 is_stmt 1 view -0
 1404              		.cfi_startproc
 1405              		@ args = 0, pretend = 0, frame = 0
 1406              		@ frame_needed = 0, uses_anonymous_args = 0
 1407              		.loc 1 347 21 view .LVU474
 1408              		.loc 1 348 3 view .LVU475
 1409              		.loc 1 348 3 view .LVU476
 1410              		.loc 1 348 3 view .LVU477
 1411              		.loc 1 349 3 view .LVU478
 1412              		.loc 1 349 3 view .LVU479
 1413              		.loc 1 353 12 view .LVU480
 1414              		.loc 1 345 49 is_stmt 0 view .LVU481
 1415 0000 70B5     		push	{r4, r5, r6, lr}
 1416              		.cfi_def_cfa_offset 16
 1417              		.cfi_offset 4, -16
 1418              		.cfi_offset 5, -12
 1419              		.cfi_offset 6, -8
 1420              		.cfi_offset 14, -4
 1421              		.loc 1 353 12 view .LVU482
 1422 0002 0C1E     		subs	r4, r1, #0
 1423 0004 12DD     		ble	.L58
 1424 0006 0546     		mov	r5, r0
 1425              		.loc 1 355 74 view .LVU483
ARM GAS  C:\Users\DEVELO~1\AppData\Local\Temp\cclxdU3x.s 			page 26


 1426 0008 0026     		movs	r6, #0
 1427 000a 01E0     		b	.L61
 1428              	.LVL81:
 1429              	.L60:
 1430              		.loc 1 357 5 is_stmt 1 view .LVU484
 1431              		.loc 1 353 12 view .LVU485
 1432 000c 013C     		subs	r4, r4, #1
 1433              	.LVL82:
 1434              		.loc 1 353 12 is_stmt 0 view .LVU486
 1435 000e 0DD0     		beq	.L58
 1436              	.LVL83:
 1437              	.L61:
 1438              		.loc 1 354 5 is_stmt 1 view .LVU487
 1439              		.loc 1 354 9 is_stmt 0 view .LVU488
 1440 0010 AB68     		ldr	r3, [r5, #8]
 1441 0012 0133     		adds	r3, r3, #1
 1442              		.loc 1 354 8 view .LVU489
 1443 0014 002B     		cmp	r3, #0
 1444 0016 AB60     		str	r3, [r5, #8]
 1445 0018 F8DC     		bgt	.L60
 1446              		.loc 1 355 7 is_stmt 1 view .LVU490
 1447              	.LVL84:
 1448              	.LBB336:
 1449              	.LBI336:
 1450              		.loc 2 280 27 view .LVU491
 1451              	.LBB337:
 1452              		.loc 2 281 3 view .LVU492
 1453              		.loc 2 281 15 is_stmt 0 view .LVU493
 1454 001a 2868     		ldr	r0, [r5]
 1455              	.LVL85:
 1456              		.loc 2 283 3 is_stmt 1 view .LVU494
 1457              		.loc 2 283 21 is_stmt 0 view .LVU495
 1458 001c 0368     		ldr	r3, [r0]
 1459              		.loc 2 283 18 view .LVU496
 1460 001e 2B60     		str	r3, [r5]
 1461              		.loc 2 284 3 is_stmt 1 view .LVU497
 1462              		.loc 2 284 18 is_stmt 0 view .LVU498
 1463 0020 5D60     		str	r5, [r3, #4]
 1464              		.loc 2 286 3 is_stmt 1 view .LVU499
 1465              	.LVL86:
 1466              		.loc 2 286 3 is_stmt 0 view .LVU500
 1467              	.LBE337:
 1468              	.LBE336:
 1469              		.loc 1 355 7 view .LVU501
 1470 0022 FFF7FEFF 		bl	chSchReadyI
 1471              	.LVL87:
 1472              		.loc 1 353 12 view .LVU502
 1473 0026 013C     		subs	r4, r4, #1
 1474              	.LVL88:
 1475              		.loc 1 355 74 view .LVU503
 1476 0028 8662     		str	r6, [r0, #40]
 1477              		.loc 1 357 5 is_stmt 1 view .LVU504
 1478              	.LVL89:
 1479              		.loc 1 353 12 view .LVU505
 1480 002a F1D1     		bne	.L61
 1481              	.LVL90:
 1482              	.L58:
ARM GAS  C:\Users\DEVELO~1\AppData\Local\Temp\cclxdU3x.s 			page 27


 1483              		.loc 1 359 1 is_stmt 0 view .LVU506
 1484 002c 70BD     		pop	{r4, r5, r6, pc}
 1485              		.cfi_endproc
 1486              	.LFE355:
 1487              		.size	chSemAddCounterI, .-chSemAddCounterI
 1488 002e 00BF     		.section	.text.chSemSignalWait,"ax",%progbits
 1489              		.align	1
 1490              		.p2align 4,,15
 1491              		.global	chSemSignalWait
 1492              		.syntax unified
 1493              		.thumb
 1494              		.thumb_func
 1495              		.type	chSemSignalWait, %function
 1496              	chSemSignalWait:
 1497              	.LVL91:
 1498              	.LFB356:
 1499              		.loc 1 374 59 is_stmt 1 view -0
 1500              		.cfi_startproc
 1501              		@ args = 0, pretend = 0, frame = 0
 1502              		@ frame_needed = 0, uses_anonymous_args = 0
 1503              		.loc 1 375 3 view .LVU508
 1504              		.loc 1 377 3 view .LVU509
 1505              		.loc 1 377 3 view .LVU510
 1506              		.loc 1 377 3 view .LVU511
 1507              		.loc 1 379 3 view .LVU512
 1508              	.LBB338:
 1509              	.LBI338:
 1510              		.loc 3 407 20 view .LVU513
 1511              		.loc 3 409 3 view .LVU514
 1512              	.LBB339:
 1513              	.LBI339:
 1514              		.loc 4 823 27 view .LVU515
 1515              		.loc 4 831 3 view .LVU516
 1516              	.LBB340:
 1517              	.LBI340:
 1518              		.loc 5 491 27 view .LVU517
 1519              	.LBB341:
 1520              		.loc 5 493 3 view .LVU518
 1521              	.LBE341:
 1522              	.LBE340:
 1523              	.LBE339:
 1524              	.LBE338:
 1525              		.loc 1 374 59 is_stmt 0 view .LVU519
 1526 0000 38B5     		push	{r3, r4, r5, lr}
 1527              		.cfi_def_cfa_offset 16
 1528              		.cfi_offset 3, -16
 1529              		.cfi_offset 4, -12
 1530              		.cfi_offset 5, -8
 1531              		.cfi_offset 14, -4
 1532              	.LBB348:
 1533              	.LBB346:
 1534              	.LBB344:
 1535              	.LBB342:
 1536              		.loc 5 493 3 view .LVU520
 1537 0002 3022     		movs	r2, #48
 1538              	.LBE342:
 1539              	.LBE344:
ARM GAS  C:\Users\DEVELO~1\AppData\Local\Temp\cclxdU3x.s 			page 28


 1540              	.LBE346:
 1541              	.LBE348:
 1542              		.loc 1 374 59 view .LVU521
 1543 0004 0C46     		mov	r4, r1
 1544              	.LBB349:
 1545              	.LBB347:
 1546              	.LBB345:
 1547              	.LBB343:
 1548              		.loc 5 493 3 view .LVU522
 1549              		.syntax unified
 1550              	@ 493 "../../../os/common/ext/ARM/CMSIS/Core/Include/cmsis_gcc.h" 1
 1551 0006 82F31188 		MSR basepri, r2
 1552              	@ 0 "" 2
 1553              	.LVL92:
 1554              		.loc 5 493 3 view .LVU523
 1555              		.thumb
 1556              		.syntax unified
 1557              	.LBE343:
 1558              	.LBE345:
 1559              	.LBE347:
 1560              		.loc 3 410 35 is_stmt 1 view .LVU524
 1561              		.loc 3 411 21 view .LVU525
 1562              	.LBE349:
 1563              		.loc 1 380 3 view .LVU526
 1564              		.loc 1 380 3 view .LVU527
 1565              		.loc 1 380 3 view .LVU528
 1566              		.loc 1 383 3 view .LVU529
 1567              		.loc 1 383 3 view .LVU530
 1568              		.loc 1 383 3 view .LVU531
 1569              		.loc 1 386 3 view .LVU532
 1570              		.loc 1 386 7 is_stmt 0 view .LVU533
 1571 000a 8268     		ldr	r2, [r0, #8]
 1572 000c 0132     		adds	r2, r2, #1
 1573              		.loc 1 386 6 view .LVU534
 1574 000e 002A     		cmp	r2, #0
 1575 0010 8260     		str	r2, [r0, #8]
 1576 0012 1BDD     		ble	.L69
 1577              	.LVL93:
 1578              	.L65:
 1579              		.loc 1 389 3 is_stmt 1 view .LVU535
 1580              		.loc 1 389 7 is_stmt 0 view .LVU536
 1581 0014 A368     		ldr	r3, [r4, #8]
 1582 0016 013B     		subs	r3, r3, #1
 1583              		.loc 1 389 6 view .LVU537
 1584 0018 002B     		cmp	r3, #0
 1585 001a A360     		str	r3, [r4, #8]
 1586 001c 06DB     		blt	.L70
 1587              		.loc 1 397 5 is_stmt 1 view .LVU538
 1588 001e FFF7FEFF 		bl	chSchRescheduleS
 1589              	.LVL94:
 1590              		.loc 1 398 5 view .LVU539
 1591              		.loc 1 398 9 is_stmt 0 view .LVU540
 1592 0022 0020     		movs	r0, #0
 1593              	.LVL95:
 1594              		.loc 1 400 3 is_stmt 1 view .LVU541
 1595              	.LBB350:
 1596              	.LBI350:
ARM GAS  C:\Users\DEVELO~1\AppData\Local\Temp\cclxdU3x.s 			page 29


 1597              		.loc 3 421 20 view .LVU542
 1598              	.LBB351:
 1599              		.loc 3 423 23 view .LVU543
 1600              		.loc 3 424 34 view .LVU544
 1601              		.loc 3 430 3 view .LVU545
 1602              		.loc 3 430 3 view .LVU546
 1603              		.loc 3 430 3 view .LVU547
 1604              		.loc 3 434 3 view .LVU548
 1605              	.LBB352:
 1606              	.LBI352:
 1607              		.loc 4 847 27 view .LVU549
 1608              		.loc 4 850 3 view .LVU550
 1609              	.LBB353:
 1610              	.LBI353:
 1611              		.loc 5 491 27 view .LVU551
 1612              	.LBB354:
 1613              		.loc 5 493 3 view .LVU552
 1614 0024 0023     		movs	r3, #0
 1615              		.syntax unified
 1616              	@ 493 "../../../os/common/ext/ARM/CMSIS/Core/Include/cmsis_gcc.h" 1
 1617 0026 83F31188 		MSR basepri, r3
 1618              	@ 0 "" 2
 1619              	.LVL96:
 1620              		.loc 5 493 3 is_stmt 0 view .LVU553
 1621              		.thumb
 1622              		.syntax unified
 1623              	.LBE354:
 1624              	.LBE353:
 1625              	.LBE352:
 1626              	.LBE351:
 1627              	.LBE350:
 1628              		.loc 1 402 3 is_stmt 1 view .LVU554
 1629              		.loc 1 403 1 is_stmt 0 view .LVU555
 1630 002a 38BD     		pop	{r3, r4, r5, pc}
 1631              	.LVL97:
 1632              	.L70:
 1633              	.LBB359:
 1634              		.loc 1 390 5 is_stmt 1 view .LVU556
 1635              	.LBB360:
 1636              	.LBI360:
 1637              		.loc 6 341 25 view .LVU557
 1638              	.LBB361:
 1639              		.loc 6 343 3 view .LVU558
 1640              		.loc 6 343 10 is_stmt 0 view .LVU559
 1641 002c 0C4A     		ldr	r2, .L71
 1642              	.LBE361:
 1643              	.LBE360:
 1644              		.loc 1 393 5 view .LVU560
 1645 002e 0520     		movs	r0, #5
 1646              	.LBB363:
 1647              	.LBB364:
 1648              		.loc 2 265 21 view .LVU561
 1649 0030 6368     		ldr	r3, [r4, #4]
 1650              	.LBE364:
 1651              	.LBE363:
 1652              	.LBB366:
 1653              	.LBB362:
ARM GAS  C:\Users\DEVELO~1\AppData\Local\Temp\cclxdU3x.s 			page 30


 1654              		.loc 6 343 10 view .LVU562
 1655 0032 D568     		ldr	r5, [r2, #12]
 1656              	.LVL98:
 1657              		.loc 6 343 10 view .LVU563
 1658              	.LBE362:
 1659              	.LBE366:
 1660              		.loc 1 391 5 is_stmt 1 view .LVU564
 1661              	.LBB367:
 1662              	.LBI363:
 1663              		.loc 2 262 20 view .LVU565
 1664              	.LBB365:
 1665              		.loc 2 264 3 view .LVU566
 1666              		.loc 2 265 17 is_stmt 0 view .LVU567
 1667 0034 C5E90043 		strd	r4, r3, [r5]
 1668              		.loc 2 266 3 is_stmt 1 view .LVU568
 1669              		.loc 2 266 17 is_stmt 0 view .LVU569
 1670 0038 1D60     		str	r5, [r3]
 1671              		.loc 2 267 3 is_stmt 1 view .LVU570
 1672              		.loc 2 267 17 is_stmt 0 view .LVU571
 1673 003a 6560     		str	r5, [r4, #4]
 1674              	.LVL99:
 1675              		.loc 2 267 17 view .LVU572
 1676              	.LBE365:
 1677              	.LBE367:
 1678              		.loc 1 392 5 is_stmt 1 view .LVU573
 1679              		.loc 1 392 22 is_stmt 0 view .LVU574
 1680 003c AC62     		str	r4, [r5, #40]
 1681              		.loc 1 393 5 is_stmt 1 view .LVU575
 1682 003e FFF7FEFF 		bl	chSchGoSleepS
 1683              	.LVL100:
 1684              		.loc 1 394 5 view .LVU576
 1685              		.loc 1 394 9 is_stmt 0 view .LVU577
 1686 0042 A86A     		ldr	r0, [r5, #40]
 1687              	.LVL101:
 1688              		.loc 1 394 9 view .LVU578
 1689              	.LBE359:
 1690              		.loc 1 400 3 is_stmt 1 view .LVU579
 1691              	.LBB368:
 1692              		.loc 3 421 20 view .LVU580
 1693              	.LBB358:
 1694              		.loc 3 423 23 view .LVU581
 1695              		.loc 3 424 34 view .LVU582
 1696              		.loc 3 430 3 view .LVU583
 1697              		.loc 3 430 3 view .LVU584
 1698              		.loc 3 430 3 view .LVU585
 1699              		.loc 3 434 3 view .LVU586
 1700              	.LBB357:
 1701              		.loc 4 847 27 view .LVU587
 1702              		.loc 4 850 3 view .LVU588
 1703              	.LBB356:
 1704              		.loc 5 491 27 view .LVU589
 1705              	.LBB355:
 1706              		.loc 5 493 3 view .LVU590
 1707 0044 0023     		movs	r3, #0
 1708              		.syntax unified
 1709              	@ 493 "../../../os/common/ext/ARM/CMSIS/Core/Include/cmsis_gcc.h" 1
 1710 0046 83F31188 		MSR basepri, r3
ARM GAS  C:\Users\DEVELO~1\AppData\Local\Temp\cclxdU3x.s 			page 31


 1711              	@ 0 "" 2
 1712              	.LVL102:
 1713              		.loc 5 493 3 is_stmt 0 view .LVU591
 1714              		.thumb
 1715              		.syntax unified
 1716              	.LBE355:
 1717              	.LBE356:
 1718              	.LBE357:
 1719              	.LBE358:
 1720              	.LBE368:
 1721              		.loc 1 402 3 is_stmt 1 view .LVU592
 1722              		.loc 1 403 1 is_stmt 0 view .LVU593
 1723 004a 38BD     		pop	{r3, r4, r5, pc}
 1724              	.LVL103:
 1725              	.L69:
 1726              		.loc 1 403 1 view .LVU594
 1727 004c 0346     		mov	r3, r0
 1728              		.loc 1 387 5 is_stmt 1 view .LVU595
 1729              	.LVL104:
 1730              	.LBB369:
 1731              	.LBI369:
 1732              		.loc 2 280 27 view .LVU596
 1733              	.LBB370:
 1734              		.loc 2 281 3 view .LVU597
 1735              		.loc 2 281 15 is_stmt 0 view .LVU598
 1736 004e 0068     		ldr	r0, [r0]
 1737              	.LVL105:
 1738              		.loc 2 283 3 is_stmt 1 view .LVU599
 1739              		.loc 2 283 21 is_stmt 0 view .LVU600
 1740 0050 0268     		ldr	r2, [r0]
 1741              		.loc 2 283 18 view .LVU601
 1742 0052 1A60     		str	r2, [r3]
 1743              		.loc 2 284 3 is_stmt 1 view .LVU602
 1744              		.loc 2 284 18 is_stmt 0 view .LVU603
 1745 0054 5360     		str	r3, [r2, #4]
 1746              		.loc 2 286 3 is_stmt 1 view .LVU604
 1747              	.LVL106:
 1748              		.loc 2 286 3 is_stmt 0 view .LVU605
 1749              	.LBE370:
 1750              	.LBE369:
 1751              		.loc 1 387 5 view .LVU606
 1752 0056 FFF7FEFF 		bl	chSchReadyI
 1753              	.LVL107:
 1754              		.loc 1 387 73 view .LVU607
 1755 005a 0023     		movs	r3, #0
 1756 005c 8362     		str	r3, [r0, #40]
 1757 005e D9E7     		b	.L65
 1758              	.L72:
 1759              		.align	2
 1760              	.L71:
 1761 0060 00000000 		.word	ch0
 1762              		.cfi_endproc
 1763              	.LFE356:
 1764              		.size	chSemSignalWait, .-chSemSignalWait
 1765              		.text
 1766              	.Letext0:
 1767              		.file 7 "c:\\chibistudio\\tools\\gnu tools arm embedded\\11.3 2022.08\\arm-none-eabi\\include\\mac
ARM GAS  C:\Users\DEVELO~1\AppData\Local\Temp\cclxdU3x.s 			page 32


 1768              		.file 8 "c:\\chibistudio\\tools\\gnu tools arm embedded\\11.3 2022.08\\arm-none-eabi\\include\\sys
 1769              		.file 9 "../../../os/common/ports/ARM-common/chtypes.h"
 1770              		.file 10 "../../../os/rt/include/chearly.h"
 1771              		.file 11 "../../../os/rt/include/chobjects.h"
 1772              		.file 12 "../../../os/rt/include/chrfcu.h"
 1773              		.file 13 "../../../os/rt/include/chdebug.h"
 1774              		.file 14 "../../../os/rt/include/chtime.h"
 1775              		.file 15 "../../../os/rt/include/chtrace.h"
 1776              		.file 16 "../../../os/rt/include/chsem.h"
 1777              		.file 17 "../../../os/rt/include/chmtx.h"
 1778              		.file 18 "../../../os/rt/include/chschd.h"