ARM GAS  C:\Users\DEVELO~1\AppData\Local\Temp\ccOPxN8G.s 			page 1


   1              		.cpu cortex-m7
   2              		.arch armv7e-m
   3              		.fpu softvfp
   4              		.eabi_attribute 20, 1
   5              		.eabi_attribute 21, 1
   6              		.eabi_attribute 23, 3
   7              		.eabi_attribute 24, 1
   8              		.eabi_attribute 25, 1
   9              		.eabi_attribute 26, 1
  10              		.eabi_attribute 30, 2
  11              		.eabi_attribute 34, 1
  12              		.eabi_attribute 18, 4
  13              		.file	"chtrace.c"
  14              		.text
  15              	.Ltext0:
  16              		.cfi_sections	.debug_frame
  17              		.section	.text.trace_next.constprop.0,"ax",%progbits
  18              		.align	1
  19              		.p2align 4,,15
  20              		.syntax unified
  21              		.thumb
  22              		.thumb_func
  23              		.type	trace_next.constprop.0, %function
  24              	trace_next.constprop.0:
  25              	.LFB360:
  26              		.file 1 "../../../os/rt/src/chtrace.c"
  27              		.loc 1 57 22 view -0
  28              		.cfi_startproc
  29              		@ args = 0, pretend = 0, frame = 0
  30              		@ frame_needed = 0, uses_anonymous_args = 0
  31              	.LVL0:
  32              		.loc 1 59 3 view .LVU1
  33              		.loc 1 57 22 is_stmt 0 view .LVU2
  34 0000 38B5     		push	{r3, r4, r5, lr}
  35              		.cfi_def_cfa_offset 16
  36              		.cfi_offset 3, -16
  37              		.cfi_offset 4, -12
  38              		.cfi_offset 5, -8
  39              		.cfi_offset 14, -4
  40              		.loc 1 59 20 view .LVU3
  41 0002 0C4C     		ldr	r4, .L5
  42 0004 D4F88C50 		ldr	r5, [r4, #140]
  43              	.LBB91:
  44              	.LBI91:
  45              		.file 2 "../../../os/rt/include/chvt.h"
  46              		.loc 2 122 25 is_stmt 1 view .LVU4
  47              		.loc 2 127 3 view .LVU5
  48              	.LBB92:
  49              	.LBI92:
  50              		.file 3 "../../../os/hal/osal/rt-nil/chcore_timer.h"
  51              		.loc 3 111 25 view .LVU6
  52              	.LBB93:
  53              		.loc 3 113 3 view .LVU7
  54              		.loc 3 113 10 is_stmt 0 view .LVU8
  55 0008 FFF7FEFF 		bl	stGetCounter
  56              	.LVL1:
  57              	.LBE93:
ARM GAS  C:\Users\DEVELO~1\AppData\Local\Temp\ccOPxN8G.s 			page 2


  58              	.LBE92:
  59              	.LBE91:
  60              		.loc 1 61 20 view .LVU9
  61 000c D4F88C30 		ldr	r3, [r4, #140]
  62              		.loc 1 69 6 view .LVU10
  63 0010 04F50961 		add	r1, r4, #2192
  64              	.LBB94:
  65              	.LBB95:
  66              		.file 4 "../../../os/common/ports/ARMv7-M/chcore.h"
  67              		.loc 4 937 13 view .LVU11
  68 0014 084A     		ldr	r2, .L5+4
  69              	.LBE95:
  70              	.LBE94:
  71              		.loc 1 59 34 view .LVU12
  72 0016 6860     		str	r0, [r5, #4]
  73              		.loc 1 61 3 is_stmt 1 view .LVU13
  74              	.LBB97:
  75              	.LBI94:
  76              		.loc 4 935 30 view .LVU14
  77              	.LBB96:
  78              		.loc 4 937 3 view .LVU15
  79              		.loc 4 937 13 is_stmt 0 view .LVU16
  80 0018 5068     		ldr	r0, [r2, #4]
  81              	.LBE96:
  82              	.LBE97:
  83              		.loc 1 61 34 view .LVU17
  84 001a 1A68     		ldr	r2, [r3]
  85 001c 60F31F22 		bfi	r2, r0, #8, #24
  86 0020 43F8102B 		str	r2, [r3], #16
  87              		.loc 1 67 3 is_stmt 1 view .LVU18
  88              		.loc 1 67 43 view .LVU19
  89              		.loc 1 69 3 view .LVU20
  90              		.loc 1 70 27 is_stmt 0 view .LVU21
  91 0024 04F19002 		add	r2, r4, #144
  92 0028 8B42     		cmp	r3, r1
  93 002a 28BF     		it	cs
  94 002c 1346     		movcs	r3, r2
  95 002e C4F88C30 		str	r3, [r4, #140]
  96              		.loc 1 72 1 view .LVU22
  97 0032 38BD     		pop	{r3, r4, r5, pc}
  98              	.L6:
  99              		.align	2
 100              	.L5:
 101 0034 00000000 		.word	ch0
 102 0038 001000E0 		.word	-536866816
 103              		.cfi_endproc
 104              	.LFE360:
 105              		.size	trace_next.constprop.0, .-trace_next.constprop.0
 106              		.section	.text.__trace_object_init,"ax",%progbits
 107              		.align	1
 108              		.p2align 4,,15
 109              		.global	__trace_object_init
 110              		.syntax unified
 111              		.thumb
 112              		.thumb_func
 113              		.type	__trace_object_init, %function
 114              	__trace_object_init:
ARM GAS  C:\Users\DEVELO~1\AppData\Local\Temp\ccOPxN8G.s 			page 3


 115              	.LVL2:
 116              	.LFB347:
 117              		.loc 1 88 47 is_stmt 1 view -0
 118              		.cfi_startproc
 119              		@ args = 0, pretend = 0, frame = 0
 120              		@ frame_needed = 0, uses_anonymous_args = 0
 121              		@ link register save eliminated.
 122              		.loc 1 89 3 view .LVU24
 123              		.loc 1 91 3 view .LVU25
 124              		.loc 1 92 3 view .LVU26
 125              		.loc 1 91 18 is_stmt 0 view .LVU27
 126 0000 0246     		mov	r2, r0
 127 0002 0749     		ldr	r1, .L10
 128              		.loc 1 94 10 view .LVU28
 129 0004 0023     		movs	r3, #0
 130              		.loc 1 91 18 view .LVU29
 131 0006 42F8081B 		str	r1, [r2], #8
 132              		.loc 1 93 3 is_stmt 1 view .LVU30
 133              		.loc 1 93 18 is_stmt 0 view .LVU31
 134 000a 4260     		str	r2, [r0, #4]
 135              		.loc 1 94 3 is_stmt 1 view .LVU32
 136              	.LVL3:
 137              		.loc 1 94 18 view .LVU33
 138              	.L8:
 139              		.loc 1 95 5 discriminator 3 view .LVU34
 140              		.loc 1 95 25 is_stmt 0 discriminator 3 view .LVU35
 141 000c 00EB0312 		add	r2, r0, r3, lsl #4
 142              		.loc 1 94 57 discriminator 3 view .LVU36
 143 0010 0133     		adds	r3, r3, #1
 144              	.LVL4:
 145              		.loc 1 95 25 discriminator 3 view .LVU37
 146 0012 117A     		ldrb	r1, [r2, #8]	@ zero_extendqisi2
 147              		.loc 1 94 18 discriminator 3 view .LVU38
 148 0014 802B     		cmp	r3, #128
 149              		.loc 1 95 25 discriminator 3 view .LVU39
 150 0016 6FF30201 		bfc	r1, #0, #3
 151 001a 1172     		strb	r1, [r2, #8]
 152              		.loc 1 94 57 is_stmt 1 discriminator 3 view .LVU40
 153              	.LVL5:
 154              		.loc 1 94 18 discriminator 3 view .LVU41
 155 001c F6D1     		bne	.L8
 156              		.loc 1 97 1 is_stmt 0 view .LVU42
 157 001e 7047     		bx	lr
 158              	.L11:
 159              		.align	2
 160              	.L10:
 161 0020 FFFF8000 		.word	8454143
 162              		.cfi_endproc
 163              	.LFE347:
 164              		.size	__trace_object_init, .-__trace_object_init
 165              		.section	.text.__trace_ready,"ax",%progbits
 166              		.align	1
 167              		.p2align 4,,15
 168              		.global	__trace_ready
 169              		.syntax unified
 170              		.thumb
 171              		.thumb_func
ARM GAS  C:\Users\DEVELO~1\AppData\Local\Temp\ccOPxN8G.s 			page 4


 172              		.type	__trace_ready, %function
 173              	__trace_ready:
 174              	.LVL6:
 175              	.LFB348:
 176              		.loc 1 107 45 is_stmt 1 view -0
 177              		.cfi_startproc
 178              		@ args = 0, pretend = 0, frame = 0
 179              		@ frame_needed = 0, uses_anonymous_args = 0
 180              		@ link register save eliminated.
 181              		.loc 1 108 3 view .LVU44
 182              		.loc 1 110 3 view .LVU45
 183              		.loc 1 110 25 is_stmt 0 view .LVU46
 184 0000 094B     		ldr	r3, .L18
 185              		.loc 1 110 6 view .LVU47
 186 0002 B3F88820 		ldrh	r2, [r3, #136]
 187 0006 D207     		lsls	r2, r2, #31
 188 0008 00D5     		bpl	.L17
 189 000a 7047     		bx	lr
 190              	.L17:
 191              		.loc 1 111 5 is_stmt 1 view .LVU48
 192              		.loc 1 111 40 is_stmt 0 view .LVU49
 193 000c 90F82420 		ldrb	r2, [r0, #36]	@ zero_extendqisi2
 194              		.loc 1 107 45 view .LVU50
 195 0010 10B4     		push	{r4}
 196              		.cfi_def_cfa_offset 4
 197              		.cfi_offset 4, -4
 198              		.loc 1 111 22 view .LVU51
 199 0012 D3F88C40 		ldr	r4, [r3, #140]
 200              		.loc 1 112 5 is_stmt 1 view .LVU52
 201              		.loc 1 111 40 is_stmt 0 view .LVU53
 202 0016 D300     		lsls	r3, r2, #3
 203 0018 43F00103 		orr	r3, r3, #1
 204              		.loc 1 114 40 view .LVU54
 205 001c C4E90201 		strd	r0, r1, [r4, #8]
 206              		.loc 1 111 40 view .LVU55
 207 0020 2370     		strb	r3, [r4]
 208              		.loc 1 113 5 is_stmt 1 view .LVU56
 209              		.loc 1 114 5 view .LVU57
 210              		.loc 1 115 5 view .LVU58
 211              		.loc 1 117 1 is_stmt 0 view .LVU59
 212 0022 10BC     		pop	{r4}
 213              		.cfi_restore 4
 214              		.cfi_def_cfa_offset 0
 215              		.loc 1 115 5 view .LVU60
 216 0024 FFF7FEBF 		b	trace_next.constprop.0
 217              	.LVL7:
 218              	.L19:
 219              		.loc 1 115 5 view .LVU61
 220              		.align	2
 221              	.L18:
 222 0028 00000000 		.word	ch0
 223              		.cfi_endproc
 224              	.LFE348:
 225              		.size	__trace_ready, .-__trace_ready
 226              		.section	.text.__trace_switch,"ax",%progbits
 227              		.align	1
 228              		.p2align 4,,15
ARM GAS  C:\Users\DEVELO~1\AppData\Local\Temp\ccOPxN8G.s 			page 5


 229              		.global	__trace_switch
 230              		.syntax unified
 231              		.thumb
 232              		.thumb_func
 233              		.type	__trace_switch, %function
 234              	__trace_switch:
 235              	.LVL8:
 236              	.LFB349:
 237              		.loc 1 127 51 is_stmt 1 view -0
 238              		.cfi_startproc
 239              		@ args = 0, pretend = 0, frame = 0
 240              		@ frame_needed = 0, uses_anonymous_args = 0
 241              		@ link register save eliminated.
 242              		.loc 1 128 3 view .LVU63
 243              		.loc 1 130 3 view .LVU64
 244              		.loc 1 130 25 is_stmt 0 view .LVU65
 245 0000 0A4B     		ldr	r3, .L26
 246              		.loc 1 130 6 view .LVU66
 247 0002 B3F88820 		ldrh	r2, [r3, #136]
 248 0006 9207     		lsls	r2, r2, #30
 249 0008 00D5     		bpl	.L25
 250 000a 7047     		bx	lr
 251              	.L25:
 252              		.loc 1 131 5 is_stmt 1 view .LVU67
 253              		.loc 1 127 51 is_stmt 0 view .LVU68
 254 000c 10B4     		push	{r4}
 255              		.cfi_def_cfa_offset 4
 256              		.cfi_offset 4, -4
 257              		.loc 1 131 40 view .LVU69
 258 000e 91F82420 		ldrb	r2, [r1, #36]	@ zero_extendqisi2
 259              		.loc 1 131 22 view .LVU70
 260 0012 D3F88C40 		ldr	r4, [r3, #140]
 261              		.loc 1 132 5 is_stmt 1 view .LVU71
 262              		.loc 1 131 40 is_stmt 0 view .LVU72
 263 0016 D300     		lsls	r3, r2, #3
 264              		.loc 1 134 40 view .LVU73
 265 0018 896A     		ldr	r1, [r1, #40]
 266              	.LVL9:
 267              		.loc 1 131 40 view .LVU74
 268 001a 43F00203 		orr	r3, r3, #2
 269              		.loc 1 134 40 view .LVU75
 270 001e C4E90201 		strd	r0, r1, [r4, #8]
 271              		.loc 1 131 40 view .LVU76
 272 0022 2370     		strb	r3, [r4]
 273              		.loc 1 133 5 is_stmt 1 view .LVU77
 274              		.loc 1 134 5 view .LVU78
 275              		.loc 1 135 5 view .LVU79
 276              		.loc 1 137 1 is_stmt 0 view .LVU80
 277 0024 10BC     		pop	{r4}
 278              		.cfi_restore 4
 279              		.cfi_def_cfa_offset 0
 280              		.loc 1 135 5 view .LVU81
 281 0026 FFF7FEBF 		b	trace_next.constprop.0
 282              	.LVL10:
 283              	.L27:
 284              		.loc 1 135 5 view .LVU82
 285 002a 00BF     		.align	2
ARM GAS  C:\Users\DEVELO~1\AppData\Local\Temp\ccOPxN8G.s 			page 6


 286              	.L26:
 287 002c 00000000 		.word	ch0
 288              		.cfi_endproc
 289              	.LFE349:
 290              		.size	__trace_switch, .-__trace_switch
 291              		.section	.text.__trace_isr_enter,"ax",%progbits
 292              		.align	1
 293              		.p2align 4,,15
 294              		.global	__trace_isr_enter
 295              		.syntax unified
 296              		.thumb
 297              		.thumb_func
 298              		.type	__trace_isr_enter, %function
 299              	__trace_isr_enter:
 300              	.LVL11:
 301              	.LFB350:
 302              		.loc 1 146 41 is_stmt 1 view -0
 303              		.cfi_startproc
 304              		@ args = 0, pretend = 0, frame = 0
 305              		@ frame_needed = 0, uses_anonymous_args = 0
 306              		.loc 1 147 3 view .LVU84
 307              		.loc 1 149 3 view .LVU85
 308              		.loc 1 149 25 is_stmt 0 view .LVU86
 309 0000 0A4A     		ldr	r2, .L32
 310              		.loc 1 149 6 view .LVU87
 311 0002 B2F88830 		ldrh	r3, [r2, #136]
 312              		.loc 1 146 41 view .LVU88
 313 0006 10B5     		push	{r4, lr}
 314              		.cfi_def_cfa_offset 8
 315              		.cfi_offset 4, -8
 316              		.cfi_offset 14, -4
 317              		.loc 1 149 6 view .LVU89
 318 0008 13F00404 		ands	r4, r3, #4
 319 000c 00D0     		beq	.L31
 320              		.loc 1 157 1 view .LVU90
 321 000e 10BD     		pop	{r4, pc}
 322              	.L31:
 323              		.loc 1 150 5 is_stmt 1 view .LVU91
 324              	.LBB98:
 325              	.LBI98:
 326              		.loc 4 862 27 view .LVU92
 327              		.loc 4 864 3 view .LVU93
 328              	.LBB99:
 329              	.LBI99:
 330              		.loc 4 823 27 view .LVU94
 331              		.loc 4 831 3 view .LVU95
 332              	.LVL12:
 333              	.LBB100:
 334              	.LBI100:
 335              		.file 5 "../../../os/common/ext/ARM/CMSIS/Core/Include/cmsis_gcc.h"
 336              		.loc 5 491 27 view .LVU96
 337              	.LBB101:
 338              		.loc 5 493 3 view .LVU97
 339 0010 3023     		movs	r3, #48
 340              		.syntax unified
 341              	@ 493 "../../../os/common/ext/ARM/CMSIS/Core/Include/cmsis_gcc.h" 1
 342 0012 83F31188 		MSR basepri, r3
ARM GAS  C:\Users\DEVELO~1\AppData\Local\Temp\ccOPxN8G.s 			page 7


 343              	@ 0 "" 2
 344              	.LVL13:
 345              		.loc 5 493 3 is_stmt 0 view .LVU98
 346              		.thumb
 347              		.syntax unified
 348              	.LBE101:
 349              	.LBE100:
 350              	.LBE99:
 351              	.LBE98:
 352              		.loc 1 151 5 is_stmt 1 view .LVU99
 353              		.loc 1 151 40 is_stmt 0 view .LVU100
 354 0016 0321     		movs	r1, #3
 355              		.loc 1 151 22 view .LVU101
 356 0018 D2F88C30 		ldr	r3, [r2, #140]
 357              		.loc 1 152 5 is_stmt 1 view .LVU102
 358              		.loc 1 151 40 is_stmt 0 view .LVU103
 359 001c 1970     		strb	r1, [r3]
 360              		.loc 1 153 5 is_stmt 1 view .LVU104
 361              		.loc 1 153 40 is_stmt 0 view .LVU105
 362 001e 9860     		str	r0, [r3, #8]
 363              		.loc 1 154 5 is_stmt 1 view .LVU106
 364 0020 FFF7FEFF 		bl	trace_next.constprop.0
 365              	.LVL14:
 366              		.loc 1 155 5 view .LVU107
 367              	.LBB102:
 368              	.LBI102:
 369              		.loc 4 873 27 view .LVU108
 370              	.LBB103:
 371              		.loc 4 875 3 view .LVU109
 372              	.LBB104:
 373              	.LBI104:
 374              		.loc 4 847 27 view .LVU110
 375              		.loc 4 850 3 view .LVU111
 376              	.LBB105:
 377              	.LBI105:
 378              		.loc 5 491 27 view .LVU112
 379              	.LBB106:
 380              		.loc 5 493 3 view .LVU113
 381              		.syntax unified
 382              	@ 493 "../../../os/common/ext/ARM/CMSIS/Core/Include/cmsis_gcc.h" 1
 383 0024 84F31188 		MSR basepri, r4
 384              	@ 0 "" 2
 385              	.LVL15:
 386              		.loc 5 493 3 is_stmt 0 view .LVU114
 387              		.thumb
 388              		.syntax unified
 389              	.LBE106:
 390              	.LBE105:
 391              	.LBE104:
 392              	.LBE103:
 393              	.LBE102:
 394              		.loc 1 157 1 view .LVU115
 395 0028 10BD     		pop	{r4, pc}
 396              	.L33:
 397 002a 00BF     		.align	2
 398              	.L32:
 399 002c 00000000 		.word	ch0
ARM GAS  C:\Users\DEVELO~1\AppData\Local\Temp\ccOPxN8G.s 			page 8


 400              		.cfi_endproc
 401              	.LFE350:
 402              		.size	__trace_isr_enter, .-__trace_isr_enter
 403              		.section	.text.__trace_isr_leave,"ax",%progbits
 404              		.align	1
 405              		.p2align 4,,15
 406              		.global	__trace_isr_leave
 407              		.syntax unified
 408              		.thumb
 409              		.thumb_func
 410              		.type	__trace_isr_leave, %function
 411              	__trace_isr_leave:
 412              	.LVL16:
 413              	.LFB351:
 414              		.loc 1 166 41 is_stmt 1 view -0
 415              		.cfi_startproc
 416              		@ args = 0, pretend = 0, frame = 0
 417              		@ frame_needed = 0, uses_anonymous_args = 0
 418              		.loc 1 167 3 view .LVU117
 419              		.loc 1 169 3 view .LVU118
 420              		.loc 1 169 25 is_stmt 0 view .LVU119
 421 0000 0A4A     		ldr	r2, .L38
 422              		.loc 1 169 6 view .LVU120
 423 0002 B2F88830 		ldrh	r3, [r2, #136]
 424              		.loc 1 166 41 view .LVU121
 425 0006 10B5     		push	{r4, lr}
 426              		.cfi_def_cfa_offset 8
 427              		.cfi_offset 4, -8
 428              		.cfi_offset 14, -4
 429              		.loc 1 169 6 view .LVU122
 430 0008 13F00404 		ands	r4, r3, #4
 431 000c 00D0     		beq	.L37
 432              		.loc 1 177 1 view .LVU123
 433 000e 10BD     		pop	{r4, pc}
 434              	.L37:
 435              		.loc 1 170 5 is_stmt 1 view .LVU124
 436              	.LBB107:
 437              	.LBI107:
 438              		.loc 4 862 27 view .LVU125
 439              		.loc 4 864 3 view .LVU126
 440              	.LBB108:
 441              	.LBI108:
 442              		.loc 4 823 27 view .LVU127
 443              		.loc 4 831 3 view .LVU128
 444              	.LVL17:
 445              	.LBB109:
 446              	.LBI109:
 447              		.loc 5 491 27 view .LVU129
 448              	.LBB110:
 449              		.loc 5 493 3 view .LVU130
 450 0010 3023     		movs	r3, #48
 451              		.syntax unified
 452              	@ 493 "../../../os/common/ext/ARM/CMSIS/Core/Include/cmsis_gcc.h" 1
 453 0012 83F31188 		MSR basepri, r3
 454              	@ 0 "" 2
 455              	.LVL18:
 456              		.loc 5 493 3 is_stmt 0 view .LVU131
ARM GAS  C:\Users\DEVELO~1\AppData\Local\Temp\ccOPxN8G.s 			page 9


 457              		.thumb
 458              		.syntax unified
 459              	.LBE110:
 460              	.LBE109:
 461              	.LBE108:
 462              	.LBE107:
 463              		.loc 1 171 5 is_stmt 1 view .LVU132
 464              		.loc 1 171 40 is_stmt 0 view .LVU133
 465 0016 0421     		movs	r1, #4
 466              		.loc 1 171 22 view .LVU134
 467 0018 D2F88C30 		ldr	r3, [r2, #140]
 468              		.loc 1 172 5 is_stmt 1 view .LVU135
 469              		.loc 1 171 40 is_stmt 0 view .LVU136
 470 001c 1970     		strb	r1, [r3]
 471              		.loc 1 173 5 is_stmt 1 view .LVU137
 472              		.loc 1 173 40 is_stmt 0 view .LVU138
 473 001e 9860     		str	r0, [r3, #8]
 474              		.loc 1 174 5 is_stmt 1 view .LVU139
 475 0020 FFF7FEFF 		bl	trace_next.constprop.0
 476              	.LVL19:
 477              		.loc 1 175 5 view .LVU140
 478              	.LBB111:
 479              	.LBI111:
 480              		.loc 4 873 27 view .LVU141
 481              	.LBB112:
 482              		.loc 4 875 3 view .LVU142
 483              	.LBB113:
 484              	.LBI113:
 485              		.loc 4 847 27 view .LVU143
 486              		.loc 4 850 3 view .LVU144
 487              	.LBB114:
 488              	.LBI114:
 489              		.loc 5 491 27 view .LVU145
 490              	.LBB115:
 491              		.loc 5 493 3 view .LVU146
 492              		.syntax unified
 493              	@ 493 "../../../os/common/ext/ARM/CMSIS/Core/Include/cmsis_gcc.h" 1
 494 0024 84F31188 		MSR basepri, r4
 495              	@ 0 "" 2
 496              	.LVL20:
 497              		.loc 5 493 3 is_stmt 0 view .LVU147
 498              		.thumb
 499              		.syntax unified
 500              	.LBE115:
 501              	.LBE114:
 502              	.LBE113:
 503              	.LBE112:
 504              	.LBE111:
 505              		.loc 1 177 1 view .LVU148
 506 0028 10BD     		pop	{r4, pc}
 507              	.L39:
 508 002a 00BF     		.align	2
 509              	.L38:
 510 002c 00000000 		.word	ch0
 511              		.cfi_endproc
 512              	.LFE351:
 513              		.size	__trace_isr_leave, .-__trace_isr_leave
ARM GAS  C:\Users\DEVELO~1\AppData\Local\Temp\ccOPxN8G.s 			page 10


 514              		.section	.text.__trace_halt,"ax",%progbits
 515              		.align	1
 516              		.p2align 4,,15
 517              		.global	__trace_halt
 518              		.syntax unified
 519              		.thumb
 520              		.thumb_func
 521              		.type	__trace_halt, %function
 522              	__trace_halt:
 523              	.LVL21:
 524              	.LFB352:
 525              		.loc 1 186 39 is_stmt 1 view -0
 526              		.cfi_startproc
 527              		@ args = 0, pretend = 0, frame = 0
 528              		@ frame_needed = 0, uses_anonymous_args = 0
 529              		@ link register save eliminated.
 530              		.loc 1 187 3 view .LVU150
 531              		.loc 1 189 3 view .LVU151
 532              		.loc 1 189 25 is_stmt 0 view .LVU152
 533 0000 064B     		ldr	r3, .L43
 534              		.loc 1 189 6 view .LVU153
 535 0002 B3F88820 		ldrh	r2, [r3, #136]
 536 0006 1207     		lsls	r2, r2, #28
 537 0008 00D5     		bpl	.L42
 538              		.loc 1 195 1 view .LVU154
 539 000a 7047     		bx	lr
 540              	.L42:
 541              		.loc 1 190 5 is_stmt 1 view .LVU155
 542              		.loc 1 190 22 is_stmt 0 view .LVU156
 543 000c D3F88C30 		ldr	r3, [r3, #140]
 544              		.loc 1 191 5 is_stmt 1 view .LVU157
 545              		.loc 1 190 42 is_stmt 0 view .LVU158
 546 0010 0522     		movs	r2, #5
 547              		.loc 1 192 42 view .LVU159
 548 0012 9860     		str	r0, [r3, #8]
 549              		.loc 1 190 42 view .LVU160
 550 0014 1A70     		strb	r2, [r3]
 551              		.loc 1 192 5 is_stmt 1 view .LVU161
 552              		.loc 1 193 5 view .LVU162
 553 0016 FFF7FEBF 		b	trace_next.constprop.0
 554              	.LVL22:
 555              	.L44:
 556              		.loc 1 193 5 is_stmt 0 view .LVU163
 557 001a 00BF     		.align	2
 558              	.L43:
 559 001c 00000000 		.word	ch0
 560              		.cfi_endproc
 561              	.LFE352:
 562              		.size	__trace_halt, .-__trace_halt
 563              		.section	.text.chTraceWriteI,"ax",%progbits
 564              		.align	1
 565              		.p2align 4,,15
 566              		.global	chTraceWriteI
 567              		.syntax unified
 568              		.thumb
 569              		.thumb_func
 570              		.type	chTraceWriteI, %function
ARM GAS  C:\Users\DEVELO~1\AppData\Local\Temp\ccOPxN8G.s 			page 11


 571              	chTraceWriteI:
 572              	.LVL23:
 573              	.LFB353:
 574              		.loc 1 205 42 is_stmt 1 view -0
 575              		.cfi_startproc
 576              		@ args = 0, pretend = 0, frame = 0
 577              		@ frame_needed = 0, uses_anonymous_args = 0
 578              		@ link register save eliminated.
 579              		.loc 1 206 3 view .LVU165
 580              		.loc 1 208 21 view .LVU166
 581              		.loc 1 210 3 view .LVU167
 582              		.loc 1 210 25 is_stmt 0 view .LVU168
 583 0000 064B     		ldr	r3, .L48
 584              		.loc 1 210 6 view .LVU169
 585 0002 B3F88820 		ldrh	r2, [r3, #136]
 586 0006 D206     		lsls	r2, r2, #27
 587 0008 00D5     		bpl	.L47
 588              		.loc 1 217 1 view .LVU170
 589 000a 7047     		bx	lr
 590              	.L47:
 591              	.LVL24:
 592              	.LBB118:
 593              	.LBI118:
 594              		.loc 1 205 6 is_stmt 1 view .LVU171
 595              	.LBB119:
 596              		.loc 1 211 5 view .LVU172
 597              		.loc 1 211 22 is_stmt 0 view .LVU173
 598 000c D3F88C30 		ldr	r3, [r3, #140]
 599              		.loc 1 212 5 is_stmt 1 view .LVU174
 600              		.loc 1 211 39 is_stmt 0 view .LVU175
 601 0010 0622     		movs	r2, #6
 602              		.loc 1 213 39 view .LVU176
 603 0012 9860     		str	r0, [r3, #8]
 604              		.loc 1 211 39 view .LVU177
 605 0014 1A70     		strb	r2, [r3]
 606              		.loc 1 213 5 is_stmt 1 view .LVU178
 607              		.loc 1 214 5 view .LVU179
 608              		.loc 1 214 39 is_stmt 0 view .LVU180
 609 0016 D960     		str	r1, [r3, #12]
 610              		.loc 1 215 5 is_stmt 1 view .LVU181
 611 0018 FFF7FEBF 		b	trace_next.constprop.0
 612              	.LVL25:
 613              	.L49:
 614              		.loc 1 215 5 is_stmt 0 view .LVU182
 615              		.align	2
 616              	.L48:
 617 001c 00000000 		.word	ch0
 618              	.LBE119:
 619              	.LBE118:
 620              		.cfi_endproc
 621              	.LFE353:
 622              		.size	chTraceWriteI, .-chTraceWriteI
 623              		.section	.text.chTraceWrite,"ax",%progbits
 624              		.align	1
 625              		.p2align 4,,15
 626              		.global	chTraceWrite
 627              		.syntax unified
ARM GAS  C:\Users\DEVELO~1\AppData\Local\Temp\ccOPxN8G.s 			page 12


 628              		.thumb
 629              		.thumb_func
 630              		.type	chTraceWrite, %function
 631              	chTraceWrite:
 632              	.LVL26:
 633              	.LFB354:
 634              		.loc 1 227 41 is_stmt 1 view -0
 635              		.cfi_startproc
 636              		@ args = 0, pretend = 0, frame = 0
 637              		@ frame_needed = 0, uses_anonymous_args = 0
 638              		.loc 1 229 3 view .LVU184
 639              	.LBB133:
 640              	.LBI133:
 641              		.file 6 "../../../os/rt/include/chsys.h"
 642              		.loc 6 407 20 view .LVU185
 643              		.loc 6 409 3 view .LVU186
 644              	.LBB134:
 645              	.LBI134:
 646              		.loc 4 823 27 view .LVU187
 647              		.loc 4 831 3 view .LVU188
 648              	.LBB135:
 649              	.LBI135:
 650              		.loc 5 491 27 view .LVU189
 651              	.LBB136:
 652              		.loc 5 493 3 view .LVU190
 653              	.LBE136:
 654              	.LBE135:
 655              	.LBE134:
 656              	.LBE133:
 657              		.loc 1 227 41 is_stmt 0 view .LVU191
 658 0000 08B5     		push	{r3, lr}
 659              		.cfi_def_cfa_offset 8
 660              		.cfi_offset 3, -8
 661              		.cfi_offset 14, -4
 662              	.LBB140:
 663              	.LBB139:
 664              	.LBB138:
 665              	.LBB137:
 666              		.loc 5 493 3 view .LVU192
 667 0002 3023     		movs	r3, #48
 668              		.syntax unified
 669              	@ 493 "../../../os/common/ext/ARM/CMSIS/Core/Include/cmsis_gcc.h" 1
 670 0004 83F31188 		MSR basepri, r3
 671              	@ 0 "" 2
 672              	.LVL27:
 673              		.loc 5 493 3 view .LVU193
 674              		.thumb
 675              		.syntax unified
 676              	.LBE137:
 677              	.LBE138:
 678              	.LBE139:
 679              		.loc 6 410 35 is_stmt 1 view .LVU194
 680              		.loc 6 411 21 view .LVU195
 681              	.LBE140:
 682              		.loc 1 230 3 view .LVU196
 683              	.LBB141:
 684              	.LBI141:
ARM GAS  C:\Users\DEVELO~1\AppData\Local\Temp\ccOPxN8G.s 			page 13


 685              		.loc 1 205 6 view .LVU197
 686              	.LBB142:
 687              		.loc 1 206 3 view .LVU198
 688              		.loc 1 208 21 view .LVU199
 689              		.loc 1 210 3 view .LVU200
 690              		.loc 1 210 25 is_stmt 0 view .LVU201
 691 0008 0A4B     		ldr	r3, .L54
 692              		.loc 1 210 6 view .LVU202
 693 000a B3F88820 		ldrh	r2, [r3, #136]
 694 000e D206     		lsls	r2, r2, #27
 695 0010 03D5     		bpl	.L53
 696              	.LVL28:
 697              		.loc 1 210 6 view .LVU203
 698              	.LBE142:
 699              	.LBE141:
 700              		.loc 1 231 3 is_stmt 1 view .LVU204
 701              	.LBB146:
 702              	.LBI146:
 703              		.loc 6 421 20 view .LVU205
 704              	.LBB147:
 705              		.loc 6 423 23 view .LVU206
 706              		.loc 6 424 34 view .LVU207
 707              		.loc 6 430 3 view .LVU208
 708              		.loc 6 430 3 view .LVU209
 709              		.loc 6 430 3 view .LVU210
 710              		.loc 6 434 3 view .LVU211
 711              	.LBB148:
 712              	.LBI148:
 713              		.loc 4 847 27 view .LVU212
 714              		.loc 4 850 3 view .LVU213
 715              	.LBB149:
 716              	.LBI149:
 717              		.loc 5 491 27 view .LVU214
 718              	.LBB150:
 719              		.loc 5 493 3 view .LVU215
 720 0012 0023     		movs	r3, #0
 721              		.syntax unified
 722              	@ 493 "../../../os/common/ext/ARM/CMSIS/Core/Include/cmsis_gcc.h" 1
 723 0014 83F31188 		MSR basepri, r3
 724              	@ 0 "" 2
 725              	.LVL29:
 726              		.loc 5 493 3 is_stmt 0 view .LVU216
 727              		.thumb
 728              		.syntax unified
 729              	.LBE150:
 730              	.LBE149:
 731              	.LBE148:
 732              	.LBE147:
 733              	.LBE146:
 734              		.loc 1 232 1 view .LVU217
 735 0018 08BD     		pop	{r3, pc}
 736              	.LVL30:
 737              	.L53:
 738              	.LBB155:
 739              	.LBB145:
 740              	.LBB143:
 741              	.LBI143:
ARM GAS  C:\Users\DEVELO~1\AppData\Local\Temp\ccOPxN8G.s 			page 14


 742              		.loc 1 205 6 is_stmt 1 view .LVU218
 743              	.LBB144:
 744              		.loc 1 211 5 view .LVU219
 745              		.loc 1 211 22 is_stmt 0 view .LVU220
 746 001a D3F88C30 		ldr	r3, [r3, #140]
 747              		.loc 1 212 5 is_stmt 1 view .LVU221
 748              		.loc 1 211 39 is_stmt 0 view .LVU222
 749 001e 0622     		movs	r2, #6
 750              		.loc 1 213 39 view .LVU223
 751 0020 9860     		str	r0, [r3, #8]
 752              		.loc 1 211 39 view .LVU224
 753 0022 1A70     		strb	r2, [r3]
 754              		.loc 1 213 5 is_stmt 1 view .LVU225
 755              		.loc 1 214 5 view .LVU226
 756              		.loc 1 214 39 is_stmt 0 view .LVU227
 757 0024 D960     		str	r1, [r3, #12]
 758              		.loc 1 215 5 is_stmt 1 view .LVU228
 759 0026 FFF7FEFF 		bl	trace_next.constprop.0
 760              	.LVL31:
 761              		.loc 1 215 5 is_stmt 0 view .LVU229
 762              	.LBE144:
 763              	.LBE143:
 764              	.LBE145:
 765              	.LBE155:
 766              		.loc 1 231 3 is_stmt 1 view .LVU230
 767              	.LBB156:
 768              		.loc 6 421 20 view .LVU231
 769              	.LBB154:
 770              		.loc 6 423 23 view .LVU232
 771              		.loc 6 424 34 view .LVU233
 772              		.loc 6 430 3 view .LVU234
 773              		.loc 6 430 3 view .LVU235
 774              		.loc 6 430 3 view .LVU236
 775              		.loc 6 434 3 view .LVU237
 776              	.LBB153:
 777              		.loc 4 847 27 view .LVU238
 778              		.loc 4 850 3 view .LVU239
 779              	.LBB152:
 780              		.loc 5 491 27 view .LVU240
 781              	.LBB151:
 782              		.loc 5 493 3 view .LVU241
 783 002a 0023     		movs	r3, #0
 784              		.syntax unified
 785              	@ 493 "../../../os/common/ext/ARM/CMSIS/Core/Include/cmsis_gcc.h" 1
 786 002c 83F31188 		MSR basepri, r3
 787              	@ 0 "" 2
 788              	.LVL32:
 789              		.loc 5 493 3 is_stmt 0 view .LVU242
 790              		.thumb
 791              		.syntax unified
 792              	.LBE151:
 793              	.LBE152:
 794              	.LBE153:
 795              	.LBE154:
 796              	.LBE156:
 797              		.loc 1 232 1 view .LVU243
 798 0030 08BD     		pop	{r3, pc}
ARM GAS  C:\Users\DEVELO~1\AppData\Local\Temp\ccOPxN8G.s 			page 15


 799              	.L55:
 800 0032 00BF     		.align	2
 801              	.L54:
 802 0034 00000000 		.word	ch0
 803              		.cfi_endproc
 804              	.LFE354:
 805              		.size	chTraceWrite, .-chTraceWrite
 806              		.section	.text.chTraceSuspendI,"ax",%progbits
 807              		.align	1
 808              		.p2align 4,,15
 809              		.global	chTraceSuspendI
 810              		.syntax unified
 811              		.thumb
 812              		.thumb_func
 813              		.type	chTraceSuspendI, %function
 814              	chTraceSuspendI:
 815              	.LVL33:
 816              	.LFB355:
 817              		.loc 1 241 37 is_stmt 1 view -0
 818              		.cfi_startproc
 819              		@ args = 0, pretend = 0, frame = 0
 820              		@ frame_needed = 0, uses_anonymous_args = 0
 821              		@ link register save eliminated.
 822              		.loc 1 243 21 view .LVU245
 823              		.loc 1 245 3 view .LVU246
 824              		.loc 1 245 36 is_stmt 0 view .LVU247
 825 0000 034B     		ldr	r3, .L57
 826 0002 B3F88820 		ldrh	r2, [r3, #136]
 827 0006 1043     		orrs	r0, r0, r2
 828              	.LVL34:
 829              		.loc 1 245 36 view .LVU248
 830 0008 A3F88800 		strh	r0, [r3, #136]	@ movhi
 831              		.loc 1 246 1 view .LVU249
 832 000c 7047     		bx	lr
 833              	.L58:
 834 000e 00BF     		.align	2
 835              	.L57:
 836 0010 00000000 		.word	ch0
 837              		.cfi_endproc
 838              	.LFE355:
 839              		.size	chTraceSuspendI, .-chTraceSuspendI
 840              		.section	.text.chTraceSuspend,"ax",%progbits
 841              		.align	1
 842              		.p2align 4,,15
 843              		.global	chTraceSuspend
 844              		.syntax unified
 845              		.thumb
 846              		.thumb_func
 847              		.type	chTraceSuspend, %function
 848              	chTraceSuspend:
 849              	.LVL35:
 850              	.LFB356:
 851              		.loc 1 255 36 is_stmt 1 view -0
 852              		.cfi_startproc
 853              		@ args = 0, pretend = 0, frame = 0
 854              		@ frame_needed = 0, uses_anonymous_args = 0
 855              		@ link register save eliminated.
ARM GAS  C:\Users\DEVELO~1\AppData\Local\Temp\ccOPxN8G.s 			page 16


 856              		.loc 1 257 3 view .LVU251
 857              	.LBB157:
 858              	.LBI157:
 859              		.loc 6 407 20 view .LVU252
 860              		.loc 6 409 3 view .LVU253
 861              	.LBB158:
 862              	.LBI158:
 863              		.loc 4 823 27 view .LVU254
 864              		.loc 4 831 3 view .LVU255
 865              	.LBB159:
 866              	.LBI159:
 867              		.loc 5 491 27 view .LVU256
 868              	.LBB160:
 869              		.loc 5 493 3 view .LVU257
 870 0000 3023     		movs	r3, #48
 871              		.syntax unified
 872              	@ 493 "../../../os/common/ext/ARM/CMSIS/Core/Include/cmsis_gcc.h" 1
 873 0002 83F31188 		MSR basepri, r3
 874              	@ 0 "" 2
 875              	.LVL36:
 876              		.loc 5 493 3 is_stmt 0 view .LVU258
 877              		.thumb
 878              		.syntax unified
 879              	.LBE160:
 880              	.LBE159:
 881              	.LBE158:
 882              		.loc 6 410 35 is_stmt 1 view .LVU259
 883              		.loc 6 411 21 view .LVU260
 884              	.LBE157:
 885              		.loc 1 258 3 view .LVU261
 886              	.LBB161:
 887              	.LBI161:
 888              		.loc 1 241 6 view .LVU262
 889              	.LBB162:
 890              		.loc 1 243 21 view .LVU263
 891              		.loc 1 245 3 view .LVU264
 892              		.loc 1 245 36 is_stmt 0 view .LVU265
 893 0006 054B     		ldr	r3, .L60
 894              	.LBE162:
 895              	.LBE161:
 896              	.LBB164:
 897              	.LBB165:
 898              	.LBB166:
 899              	.LBB167:
 900              	.LBB168:
 901              		.loc 5 493 3 view .LVU266
 902 0008 0022     		movs	r2, #0
 903              	.LBE168:
 904              	.LBE167:
 905              	.LBE166:
 906              	.LBE165:
 907              	.LBE164:
 908              	.LBB173:
 909              	.LBB163:
 910              		.loc 1 245 36 view .LVU267
 911 000a B3F88810 		ldrh	r1, [r3, #136]
 912 000e 0843     		orrs	r0, r0, r1
ARM GAS  C:\Users\DEVELO~1\AppData\Local\Temp\ccOPxN8G.s 			page 17


 913              	.LVL37:
 914              		.loc 1 245 36 view .LVU268
 915 0010 A3F88800 		strh	r0, [r3, #136]	@ movhi
 916              	.LVL38:
 917              		.loc 1 245 36 view .LVU269
 918              	.LBE163:
 919              	.LBE173:
 920              		.loc 1 259 3 is_stmt 1 view .LVU270
 921              	.LBB174:
 922              	.LBI164:
 923              		.loc 6 421 20 view .LVU271
 924              	.LBB172:
 925              		.loc 6 423 23 view .LVU272
 926              		.loc 6 424 34 view .LVU273
 927              		.loc 6 430 3 view .LVU274
 928              		.loc 6 430 3 view .LVU275
 929              		.loc 6 430 3 view .LVU276
 930              		.loc 6 434 3 view .LVU277
 931              	.LBB171:
 932              	.LBI166:
 933              		.loc 4 847 27 view .LVU278
 934              		.loc 4 850 3 view .LVU279
 935              	.LBB170:
 936              	.LBI167:
 937              		.loc 5 491 27 view .LVU280
 938              	.LBB169:
 939              		.loc 5 493 3 view .LVU281
 940              		.syntax unified
 941              	@ 493 "../../../os/common/ext/ARM/CMSIS/Core/Include/cmsis_gcc.h" 1
 942 0014 82F31188 		MSR basepri, r2
 943              	@ 0 "" 2
 944              	.LVL39:
 945              		.loc 5 493 3 is_stmt 0 view .LVU282
 946              		.thumb
 947              		.syntax unified
 948              	.LBE169:
 949              	.LBE170:
 950              	.LBE171:
 951              	.LBE172:
 952              	.LBE174:
 953              		.loc 1 260 1 view .LVU283
 954 0018 7047     		bx	lr
 955              	.L61:
 956 001a 00BF     		.align	2
 957              	.L60:
 958 001c 00000000 		.word	ch0
 959              		.cfi_endproc
 960              	.LFE356:
 961              		.size	chTraceSuspend, .-chTraceSuspend
 962              		.section	.text.chTraceResumeI,"ax",%progbits
 963              		.align	1
 964              		.p2align 4,,15
 965              		.global	chTraceResumeI
 966              		.syntax unified
 967              		.thumb
 968              		.thumb_func
 969              		.type	chTraceResumeI, %function
ARM GAS  C:\Users\DEVELO~1\AppData\Local\Temp\ccOPxN8G.s 			page 18


 970              	chTraceResumeI:
 971              	.LVL40:
 972              	.LFB357:
 973              		.loc 1 269 36 is_stmt 1 view -0
 974              		.cfi_startproc
 975              		@ args = 0, pretend = 0, frame = 0
 976              		@ frame_needed = 0, uses_anonymous_args = 0
 977              		@ link register save eliminated.
 978              		.loc 1 271 21 view .LVU285
 979              		.loc 1 273 3 view .LVU286
 980              		.loc 1 273 36 is_stmt 0 view .LVU287
 981 0000 034A     		ldr	r2, .L63
 982 0002 B2F88830 		ldrh	r3, [r2, #136]
 983 0006 23EA0003 		bic	r3, r3, r0
 984 000a A2F88830 		strh	r3, [r2, #136]	@ movhi
 985              		.loc 1 274 1 view .LVU288
 986 000e 7047     		bx	lr
 987              	.L64:
 988              		.align	2
 989              	.L63:
 990 0010 00000000 		.word	ch0
 991              		.cfi_endproc
 992              	.LFE357:
 993              		.size	chTraceResumeI, .-chTraceResumeI
 994              		.section	.text.chTraceResume,"ax",%progbits
 995              		.align	1
 996              		.p2align 4,,15
 997              		.global	chTraceResume
 998              		.syntax unified
 999              		.thumb
 1000              		.thumb_func
 1001              		.type	chTraceResume, %function
 1002              	chTraceResume:
 1003              	.LVL41:
 1004              	.LFB358:
 1005              		.loc 1 283 35 is_stmt 1 view -0
 1006              		.cfi_startproc
 1007              		@ args = 0, pretend = 0, frame = 0
 1008              		@ frame_needed = 0, uses_anonymous_args = 0
 1009              		@ link register save eliminated.
 1010              		.loc 1 285 3 view .LVU290
 1011              	.LBB175:
 1012              	.LBI175:
 1013              		.loc 6 407 20 view .LVU291
 1014              		.loc 6 409 3 view .LVU292
 1015              	.LBB176:
 1016              	.LBI176:
 1017              		.loc 4 823 27 view .LVU293
 1018              		.loc 4 831 3 view .LVU294
 1019              	.LBB177:
 1020              	.LBI177:
 1021              		.loc 5 491 27 view .LVU295
 1022              	.LBB178:
 1023              		.loc 5 493 3 view .LVU296
 1024 0000 3023     		movs	r3, #48
 1025              		.syntax unified
 1026              	@ 493 "../../../os/common/ext/ARM/CMSIS/Core/Include/cmsis_gcc.h" 1
ARM GAS  C:\Users\DEVELO~1\AppData\Local\Temp\ccOPxN8G.s 			page 19


 1027 0002 83F31188 		MSR basepri, r3
 1028              	@ 0 "" 2
 1029              	.LVL42:
 1030              		.loc 5 493 3 is_stmt 0 view .LVU297
 1031              		.thumb
 1032              		.syntax unified
 1033              	.LBE178:
 1034              	.LBE177:
 1035              	.LBE176:
 1036              		.loc 6 410 35 is_stmt 1 view .LVU298
 1037              		.loc 6 411 21 view .LVU299
 1038              	.LBE175:
 1039              		.loc 1 286 3 view .LVU300
 1040              	.LBB179:
 1041              	.LBI179:
 1042              		.loc 1 269 6 view .LVU301
 1043              	.LBB180:
 1044              		.loc 1 271 21 view .LVU302
 1045              		.loc 1 273 3 view .LVU303
 1046              		.loc 1 273 36 is_stmt 0 view .LVU304
 1047 0006 054A     		ldr	r2, .L66
 1048              	.LBE180:
 1049              	.LBE179:
 1050              	.LBB182:
 1051              	.LBB183:
 1052              	.LBB184:
 1053              	.LBB185:
 1054              	.LBB186:
 1055              		.loc 5 493 3 view .LVU305
 1056 0008 0021     		movs	r1, #0
 1057              	.LBE186:
 1058              	.LBE185:
 1059              	.LBE184:
 1060              	.LBE183:
 1061              	.LBE182:
 1062              	.LBB191:
 1063              	.LBB181:
 1064              		.loc 1 273 36 view .LVU306
 1065 000a B2F88830 		ldrh	r3, [r2, #136]
 1066 000e 23EA0000 		bic	r0, r3, r0
 1067              	.LVL43:
 1068              		.loc 1 273 36 view .LVU307
 1069 0012 A2F88800 		strh	r0, [r2, #136]	@ movhi
 1070              	.LVL44:
 1071              		.loc 1 273 36 view .LVU308
 1072              	.LBE181:
 1073              	.LBE191:
 1074              		.loc 1 287 3 is_stmt 1 view .LVU309
 1075              	.LBB192:
 1076              	.LBI182:
 1077              		.loc 6 421 20 view .LVU310
 1078              	.LBB190:
 1079              		.loc 6 423 23 view .LVU311
 1080              		.loc 6 424 34 view .LVU312
 1081              		.loc 6 430 3 view .LVU313
 1082              		.loc 6 430 3 view .LVU314
 1083              		.loc 6 430 3 view .LVU315
ARM GAS  C:\Users\DEVELO~1\AppData\Local\Temp\ccOPxN8G.s 			page 20


 1084              		.loc 6 434 3 view .LVU316
 1085              	.LBB189:
 1086              	.LBI184:
 1087              		.loc 4 847 27 view .LVU317
 1088              		.loc 4 850 3 view .LVU318
 1089              	.LBB188:
 1090              	.LBI185:
 1091              		.loc 5 491 27 view .LVU319
 1092              	.LBB187:
 1093              		.loc 5 493 3 view .LVU320
 1094              		.syntax unified
 1095              	@ 493 "../../../os/common/ext/ARM/CMSIS/Core/Include/cmsis_gcc.h" 1
 1096 0016 81F31188 		MSR basepri, r1
 1097              	@ 0 "" 2
 1098              	.LVL45:
 1099              		.loc 5 493 3 is_stmt 0 view .LVU321
 1100              		.thumb
 1101              		.syntax unified
 1102              	.LBE187:
 1103              	.LBE188:
 1104              	.LBE189:
 1105              	.LBE190:
 1106              	.LBE192:
 1107              		.loc 1 288 1 view .LVU322
 1108 001a 7047     		bx	lr
 1109              	.L67:
 1110              		.align	2
 1111              	.L66:
 1112 001c 00000000 		.word	ch0
 1113              		.cfi_endproc
 1114              	.LFE358:
 1115              		.size	chTraceResume, .-chTraceResume
 1116              		.text
 1117              	.Letext0:
 1118              		.file 7 "c:\\chibistudio\\tools\\gnu tools arm embedded\\11.3 2022.08\\arm-none-eabi\\include\\mac
 1119              		.file 8 "c:\\chibistudio\\tools\\gnu tools arm embedded\\11.3 2022.08\\arm-none-eabi\\include\\sys
 1120              		.file 9 "../../../os/common/ports/ARM-common/chtypes.h"
 1121              		.file 10 "../../../os/rt/include/chearly.h"
 1122              		.file 11 "../../../os/rt/include/chobjects.h"
 1123              		.file 12 "../../../os/rt/include/chrfcu.h"
 1124              		.file 13 "../../../os/rt/include/chdebug.h"
 1125              		.file 14 "../../../os/rt/include/chtime.h"
 1126              		.file 15 "../../../os/rt/include/chlists.h"
 1127              		.file 16 "../../../os/rt/include/chtrace.h"
 1128              		.file 17 "../../../os/common/ext/ARM/CMSIS/Core/Include/core_cm7.h"
 1129              		.file 18 "../../../os/rt/include/chsem.h"
 1130              		.file 19 "../../../os/rt/include/chmtx.h"