ARM GAS  C:\Users\DEVELO~1\AppData\Local\Temp\ccOh4fwA.s 			page 1


   1              		.cpu cortex-m7
   2              		.arch armv7e-m
   3              		.fpu softvfp
   4              		.eabi_attribute 20, 1
   5              		.eabi_attribute 21, 1
   6              		.eabi_attribute 23, 3
   7              		.eabi_attribute 24, 1
   8              		.eabi_attribute 25, 1
   9              		.eabi_attribute 26, 1
  10              		.eabi_attribute 30, 2
  11              		.eabi_attribute 34, 1
  12              		.eabi_attribute 18, 4
  13              		.file	"chvt.c"
  14              		.text
  15              	.Ltext0:
  16              		.cfi_sections	.debug_frame
  17              		.section	.text.vt_insert_first.constprop.0,"ax",%progbits
  18              		.align	1
  19              		.p2align 4,,15
  20              		.syntax unified
  21              		.thumb
  22              		.thumb_func
  23              		.type	vt_insert_first.constprop.0, %function
  24              	vt_insert_first.constprop.0:
  25              	.LVL0:
  26              	.LFB356:
  27              		.file 1 "../../../os/rt/src/chvt.c"
  28              		.loc 1 131 13 view -0
  29              		.cfi_startproc
  30              		@ args = 0, pretend = 0, frame = 0
  31              		@ frame_needed = 0, uses_anonymous_args = 0
  32              		.loc 1 135 3 view .LVU1
  33              		.loc 1 139 3 view .LVU2
  34              		.loc 1 131 13 is_stmt 0 view .LVU3
  35 0000 F8B5     		push	{r3, r4, r5, r6, r7, lr}
  36              		.cfi_def_cfa_offset 24
  37              		.cfi_offset 3, -24
  38              		.cfi_offset 4, -20
  39              		.cfi_offset 5, -16
  40              		.cfi_offset 6, -12
  41              		.cfi_offset 7, -8
  42              		.cfi_offset 14, -4
  43              		.loc 1 131 13 view .LVU4
  44 0002 1446     		mov	r4, r2
  45              		.loc 1 139 18 view .LVU5
  46 0004 144D     		ldr	r5, .L9
  47              		.loc 1 131 13 view .LVU6
  48 0006 0346     		mov	r3, r0
  49 0008 0E46     		mov	r6, r1
  50              	.LBB152:
  51              	.LBB153:
  52              		.file 2 "../../../os/rt/include/chlists.h"
  53              		.loc 2 501 19 view .LVU7
  54 000a 05F11002 		add	r2, r5, #16
  55              	.LVL1:
  56              		.loc 2 501 19 view .LVU8
  57 000e 022C     		cmp	r4, #2
ARM GAS  C:\Users\DEVELO~1\AppData\Local\Temp\ccOh4fwA.s 			page 2


  58              	.LBE153:
  59              	.LBE152:
  60              		.loc 1 139 18 view .LVU9
  61 0010 E961     		str	r1, [r5, #28]
  62              		.loc 1 140 3 is_stmt 1 view .LVU10
  63              	.LVL2:
  64              	.LBB157:
  65              	.LBI152:
  66              		.loc 2 496 20 view .LVU11
  67              	.LBB154:
  68              		.loc 2 500 3 view .LVU12
  69              	.LBE154:
  70              	.LBE157:
  71              		.loc 1 143 13 is_stmt 0 view .LVU13
  72 0012 4FF00207 		mov	r7, #2
  73              	.LBB158:
  74              	.LBB155:
  75              		.loc 2 500 19 view .LVU14
  76 0016 8460     		str	r4, [r0, #8]
  77              		.loc 2 501 3 is_stmt 1 view .LVU15
  78 0018 38BF     		it	cc
  79 001a 0224     		movcc	r4, #2
  80              	.LVL3:
  81              		.loc 2 501 19 is_stmt 0 view .LVU16
  82 001c 4260     		str	r2, [r0, #4]
  83              		.loc 2 502 3 is_stmt 1 view .LVU17
  84              		.loc 2 502 30 is_stmt 0 view .LVU18
  85 001e 2A69     		ldr	r2, [r5, #16]
  86              		.loc 2 502 19 view .LVU19
  87 0020 0260     		str	r2, [r0]
  88              		.loc 2 503 3 is_stmt 1 view .LVU20
  89              		.loc 2 503 19 is_stmt 0 view .LVU21
  90 0022 5060     		str	r0, [r2, #4]
  91              		.loc 2 504 3 is_stmt 1 view .LVU22
  92              	.LBE155:
  93              	.LBE158:
  94              	.LBB159:
  95              	.LBB160:
  96              		.file 3 "../../../os/hal/osal/rt-nil/chcore_timer.h"
  97              		.loc 3 79 3 is_stmt 0 view .LVU23
  98 0024 0819     		adds	r0, r1, r4
  99              	.LVL4:
 100              		.loc 3 79 3 view .LVU24
 101              	.LBE160:
 102              	.LBE159:
 103              	.LBB162:
 104              	.LBB156:
 105              		.loc 2 504 19 view .LVU25
 106 0026 2B61     		str	r3, [r5, #16]
 107              	.LVL5:
 108              		.loc 2 504 19 view .LVU26
 109              	.LBE156:
 110              	.LBE162:
 111              		.loc 1 143 3 is_stmt 1 view .LVU27
 112              		.loc 1 147 3 view .LVU28
 113              		.loc 1 162 3 view .LVU29
 114              	.LBB163:
ARM GAS  C:\Users\DEVELO~1\AppData\Local\Temp\ccOh4fwA.s 			page 3


 115              	.LBI163:
 116              		.file 4 "../../../os/rt/include/chtime.h"
 117              		.loc 4 442 25 view .LVU30
 118              	.LBB164:
 119              		.loc 4 449 3 view .LVU31
 120              		.loc 4 449 3 is_stmt 0 view .LVU32
 121              	.LBE164:
 122              	.LBE163:
 123              	.LBB165:
 124              	.LBI159:
 125              		.loc 3 77 20 is_stmt 1 view .LVU33
 126              	.LBB161:
 127              		.loc 3 79 3 view .LVU34
 128 0028 FFF7FEFF 		bl	stStartAlarm
 129              	.LVL6:
 130              	.L3:
 131              		.loc 3 79 3 is_stmt 0 view .LVU35
 132              	.LBE161:
 133              	.LBE165:
 134              		.loc 1 165 3 is_stmt 1 view .LVU36
 135              	.LBB166:
 136              		.loc 1 166 5 view .LVU37
 137              		.loc 1 174 5 view .LVU38
 138              	.LBB167:
 139              	.LBI167:
 140              		.file 5 "../../../os/rt/include/chvt.h"
 141              		.loc 5 122 25 view .LVU39
 142              		.loc 5 127 3 view .LVU40
 143              	.LBB168:
 144              	.LBI168:
 145              		.loc 3 111 25 view .LVU41
 146              	.LBB169:
 147              		.loc 3 113 3 view .LVU42
 148              		.loc 3 113 10 is_stmt 0 view .LVU43
 149 002c FFF7FEFF 		bl	stGetCounter
 150              	.LVL7:
 151              	.LBE169:
 152              	.LBE168:
 153              	.LBE167:
 154              	.LBB172:
 155              	.LBB173:
 156              		.loc 4 465 10 view .LVU44
 157 0030 821B     		subs	r2, r0, r6
 158              	.LBE173:
 159              	.LBE172:
 160              	.LBB175:
 161              	.LBB171:
 162              	.LBB170:
 163              		.loc 3 113 10 view .LVU45
 164 0032 0346     		mov	r3, r0
 165              	.LVL8:
 166              		.loc 3 113 10 view .LVU46
 167              	.LBE170:
 168              	.LBE171:
 169              	.LBE175:
 170              		.loc 1 175 5 is_stmt 1 view .LVU47
 171              	.LBB176:
ARM GAS  C:\Users\DEVELO~1\AppData\Local\Temp\ccOh4fwA.s 			page 4


 172              	.LBI172:
 173              		.loc 4 461 29 view .LVU48
 174              	.LBB174:
 175              		.loc 4 465 3 view .LVU49
 176              		.loc 4 465 3 is_stmt 0 view .LVU50
 177              	.LBE174:
 178              	.LBE176:
 179              		.loc 1 175 8 view .LVU51
 180 0034 A242     		cmp	r2, r4
 181 0036 07D2     		bcs	.L7
 182              		.loc 1 175 8 view .LVU52
 183              	.LBE166:
 184              		.loc 1 192 3 is_stmt 1 view .LVU53
 185              		.loc 1 192 6 is_stmt 0 view .LVU54
 186 0038 022F     		cmp	r7, #2
 187 003a 00D8     		bhi	.L8
 188              		.loc 1 199 1 view .LVU55
 189 003c F8BD     		pop	{r3, r4, r5, r6, r7, pc}
 190              	.LVL9:
 191              	.L8:
 192              		.loc 1 193 5 is_stmt 1 view .LVU56
 193 003e 0120     		movs	r0, #1
 194              	.LVL10:
 195              		.loc 1 199 1 is_stmt 0 view .LVU57
 196 0040 BDE8F840 		pop	{r3, r4, r5, r6, r7, lr}
 197              		.cfi_remember_state
 198              		.cfi_restore 14
 199              		.cfi_restore 7
 200              		.cfi_restore 6
 201              		.cfi_restore 5
 202              		.cfi_restore 4
 203              		.cfi_restore 3
 204              		.cfi_def_cfa_offset 0
 205              	.LVL11:
 206              		.loc 1 193 5 view .LVU58
 207 0044 FFF7FEBF 		b	chRFCUCollectFaultsI
 208              	.LVL12:
 209              	.L7:
 210              		.cfi_restore_state
 211              	.LBB183:
 212              		.loc 1 180 5 is_stmt 1 view .LVU59
 213              		.loc 1 180 15 is_stmt 0 view .LVU60
 214 0048 7C1C     		adds	r4, r7, #1
 215              	.LVL13:
 216              		.loc 1 183 5 is_stmt 1 view .LVU61
 217              	.LBB177:
 218              	.LBI177:
 219              		.loc 4 442 25 view .LVU62
 220              	.LBB178:
 221              		.loc 4 449 3 view .LVU63
 222              		.loc 4 449 3 is_stmt 0 view .LVU64
 223              	.LBE178:
 224              	.LBE177:
 225              	.LBB179:
 226              	.LBI179:
 227              		.loc 3 99 20 is_stmt 1 view .LVU65
 228              	.LBB180:
ARM GAS  C:\Users\DEVELO~1\AppData\Local\Temp\ccOh4fwA.s 			page 5


 229              		.loc 3 101 3 view .LVU66
 230 004a 3019     		adds	r0, r6, r4
 231              	.LVL14:
 232              		.loc 3 101 3 is_stmt 0 view .LVU67
 233              	.LBE180:
 234              	.LBE179:
 235              		.loc 1 180 15 view .LVU68
 236 004c 2746     		mov	r7, r4
 237              		.loc 1 186 9 view .LVU69
 238 004e 1E46     		mov	r6, r3
 239              	.LVL15:
 240              	.LBB182:
 241              	.LBB181:
 242              		.loc 3 101 3 view .LVU70
 243 0050 FFF7FEFF 		bl	stSetAlarm
 244              	.LVL16:
 245              		.loc 3 101 3 view .LVU71
 246              	.LBE181:
 247              	.LBE182:
 248              		.loc 1 186 5 is_stmt 1 view .LVU72
 249              		.loc 1 187 5 view .LVU73
 250              		.loc 1 187 5 is_stmt 0 view .LVU74
 251              	.LBE183:
 252              		.loc 1 165 9 is_stmt 1 view .LVU75
 253              		.loc 1 165 16 is_stmt 0 view .LVU76
 254 0054 EAE7     		b	.L3
 255              	.L10:
 256 0056 00BF     		.align	2
 257              	.L9:
 258 0058 00000000 		.word	ch0
 259              		.cfi_endproc
 260              	.LFE356:
 261              		.size	vt_insert_first.constprop.0, .-vt_insert_first.constprop.0
 262              		.section	.text.vt_enqueue.constprop.0,"ax",%progbits
 263              		.align	1
 264              		.p2align 4,,15
 265              		.syntax unified
 266              		.thumb
 267              		.thumb_func
 268              		.type	vt_enqueue.constprop.0, %function
 269              	vt_enqueue.constprop.0:
 270              	.LVL17:
 271              	.LFB357:
 272              		.loc 1 205 13 is_stmt 1 view -0
 273              		.cfi_startproc
 274              		@ args = 0, pretend = 0, frame = 0
 275              		@ frame_needed = 0, uses_anonymous_args = 0
 276              		.loc 1 208 3 view .LVU78
 277              	.LBB216:
 278              		.loc 1 212 5 view .LVU79
 279              		.loc 1 213 5 view .LVU80
 280              	.LBB217:
 281              	.LBI217:
 282              		.loc 5 122 25 view .LVU81
 283              		.loc 5 127 3 view .LVU82
 284              	.LBB218:
 285              	.LBI218:
ARM GAS  C:\Users\DEVELO~1\AppData\Local\Temp\ccOh4fwA.s 			page 6


 286              		.loc 3 111 25 view .LVU83
 287              	.LBB219:
 288              		.loc 3 113 3 view .LVU84
 289              	.LBE219:
 290              	.LBE218:
 291              	.LBE217:
 292              	.LBE216:
 293              		.loc 1 205 13 is_stmt 0 view .LVU85
 294 0000 2DE9F843 		push	{r3, r4, r5, r6, r7, r8, r9, lr}
 295              		.cfi_def_cfa_offset 32
 296              		.cfi_offset 3, -32
 297              		.cfi_offset 4, -28
 298              		.cfi_offset 5, -24
 299              		.cfi_offset 6, -20
 300              		.cfi_offset 7, -16
 301              		.cfi_offset 8, -12
 302              		.cfi_offset 9, -8
 303              		.cfi_offset 14, -4
 304              	.LBB260:
 305              	.LBB224:
 306              	.LBB225:
 307              		.loc 2 443 29 view .LVU86
 308 0004 DFF89C90 		ldr	r9, .L30
 309              	.LBE225:
 310              	.LBE224:
 311              	.LBE260:
 312              		.loc 1 205 13 view .LVU87
 313 0008 0746     		mov	r7, r0
 314 000a 0E46     		mov	r6, r1
 315              	.LBB261:
 316              	.LBB228:
 317              	.LBB222:
 318              	.LBB220:
 319              		.loc 3 113 10 view .LVU88
 320 000c FFF7FEFF 		bl	stGetCounter
 321              	.LVL18:
 322              		.loc 3 113 10 view .LVU89
 323              	.LBE220:
 324              	.LBE222:
 325              	.LBE228:
 326              	.LBB229:
 327              	.LBB226:
 328              		.loc 2 443 29 view .LVU90
 329 0010 4B46     		mov	r3, r9
 330              	.LBE226:
 331              	.LBE229:
 332              	.LBB230:
 333              	.LBB223:
 334              	.LBB221:
 335              		.loc 3 113 10 view .LVU91
 336 0012 8046     		mov	r8, r0
 337              	.LVL19:
 338              		.loc 3 113 10 view .LVU92
 339              	.LBE221:
 340              	.LBE223:
 341              	.LBE230:
 342              		.loc 1 216 5 is_stmt 1 view .LVU93
ARM GAS  C:\Users\DEVELO~1\AppData\Local\Temp\ccOh4fwA.s 			page 7


 343              	.LBB231:
 344              	.LBI224:
 345              		.loc 2 441 20 view .LVU94
 346              	.LBB227:
 347              		.loc 2 443 3 view .LVU95
 348              		.loc 2 443 29 is_stmt 0 view .LVU96
 349 0014 53F8105F 		ldr	r5, [r3, #16]!
 350              	.LVL20:
 351              		.loc 2 443 29 view .LVU97
 352              	.LBE227:
 353              	.LBE231:
 354              		.loc 1 216 8 view .LVU98
 355 0018 9D42     		cmp	r5, r3
 356 001a 37D0     		beq	.L27
 357              		.loc 1 225 5 is_stmt 1 view .LVU99
 358              	.LVL21:
 359              	.LBB232:
 360              	.LBI232:
 361              		.loc 4 461 29 view .LVU100
 362              	.LBB233:
 363              		.loc 4 465 3 view .LVU101
 364              		.loc 4 465 3 is_stmt 0 view .LVU102
 365              	.LBE233:
 366              	.LBE232:
 367              		.loc 1 226 5 is_stmt 1 view .LVU103
 368              	.LBB236:
 369              	.LBB234:
 370              		.loc 4 465 10 is_stmt 0 view .LVU104
 371 001c D9F81C40 		ldr	r4, [r9, #28]
 372              	.LBE234:
 373              	.LBE236:
 374              		.loc 1 237 33 view .LVU105
 375 0020 AB68     		ldr	r3, [r5, #8]
 376              	.LBB237:
 377              	.LBB235:
 378              		.loc 4 465 10 view .LVU106
 379 0022 041B     		subs	r4, r0, r4
 380              	.LVL22:
 381              		.loc 4 465 10 view .LVU107
 382              	.LBE235:
 383              	.LBE237:
 384              		.loc 1 231 5 is_stmt 1 view .LVU108
 385              		.loc 1 232 13 is_stmt 0 view .LVU109
 386 0024 3419     		adds	r4, r6, r4
 387 0026 28BF     		it	cs
 388 0028 3446     		movcs	r4, r6
 389              	.LVL23:
 390              		.loc 1 237 5 is_stmt 1 view .LVU110
 391              		.loc 1 237 8 is_stmt 0 view .LVU111
 392 002a A342     		cmp	r3, r4
 393 002c 15D8     		bhi	.L28
 394              	.LVL24:
 395              	.L16:
 396              		.loc 1 237 8 view .LVU112
 397              	.LBE261:
 398              		.loc 1 248 3 is_stmt 1 view .LVU113
 399              	.LBB262:
ARM GAS  C:\Users\DEVELO~1\AppData\Local\Temp\ccOh4fwA.s 			page 8


 400              	.LBI262:
 401              		.loc 2 536 20 view .LVU114
 402              	.LBB263:
 403              		.loc 2 539 3 view .LVU115
 404              		.loc 2 543 3 view .LVU116
 405              		.loc 2 544 3 view .LVU117
 406              		.loc 2 544 10 view .LVU118
 407 002e 9C42     		cmp	r4, r3
 408 0030 04D9     		bls	.L20
 409              	.LVL25:
 410              	.L21:
 411              		.loc 2 546 5 view .LVU119
 412              		.loc 2 546 5 view .LVU120
 413              		.loc 2 546 5 view .LVU121
 414              		.loc 2 548 5 view .LVU122
 415              		.loc 2 549 9 is_stmt 0 view .LVU123
 416 0032 2D68     		ldr	r5, [r5]
 417              	.LVL26:
 418              		.loc 2 548 11 view .LVU124
 419 0034 E41A     		subs	r4, r4, r3
 420              	.LVL27:
 421              		.loc 2 549 5 is_stmt 1 view .LVU125
 422              		.loc 2 544 10 view .LVU126
 423 0036 AB68     		ldr	r3, [r5, #8]
 424 0038 A342     		cmp	r3, r4
 425 003a FAD3     		bcc	.L21
 426              	.LVL28:
 427              	.L20:
 428              		.loc 2 553 3 view .LVU127
 429              	.LBB264:
 430              	.LBI264:
 431              		.loc 2 516 20 view .LVU128
 432              	.LBB265:
 433              		.loc 2 520 3 view .LVU129
 434              		.loc 2 522 30 is_stmt 0 view .LVU130
 435 003c 6B68     		ldr	r3, [r5, #4]
 436              	.LBE265:
 437              	.LBE264:
 438              		.loc 2 561 15 view .LVU131
 439 003e 4FF0FF32 		mov	r2, #-1
 440              	.LBB268:
 441              	.LBB266:
 442              		.loc 2 520 19 view .LVU132
 443 0042 BC60     		str	r4, [r7, #8]
 444              		.loc 2 521 3 is_stmt 1 view .LVU133
 445              		.loc 2 522 19 is_stmt 0 view .LVU134
 446 0044 C7E90053 		strd	r5, r3, [r7]
 447              		.loc 2 523 3 is_stmt 1 view .LVU135
 448              		.loc 2 523 19 is_stmt 0 view .LVU136
 449 0048 1F60     		str	r7, [r3]
 450              		.loc 2 524 3 is_stmt 1 view .LVU137
 451              	.LBE266:
 452              	.LBE268:
 453              		.loc 2 556 14 is_stmt 0 view .LVU138
 454 004a AB68     		ldr	r3, [r5, #8]
 455              	.LBB269:
 456              	.LBB267:
ARM GAS  C:\Users\DEVELO~1\AppData\Local\Temp\ccOh4fwA.s 			page 9


 457              		.loc 2 524 19 view .LVU139
 458 004c 6F60     		str	r7, [r5, #4]
 459              	.LVL29:
 460              		.loc 2 524 19 view .LVU140
 461              	.LBE267:
 462              	.LBE269:
 463              		.loc 2 556 3 is_stmt 1 view .LVU141
 464              		.loc 2 556 14 is_stmt 0 view .LVU142
 465 004e 1B1B     		subs	r3, r3, r4
 466 0050 AB60     		str	r3, [r5, #8]
 467              		.loc 2 561 3 is_stmt 1 view .LVU143
 468              		.loc 2 561 15 is_stmt 0 view .LVU144
 469 0052 C9F81820 		str	r2, [r9, #24]
 470              	.LVL30:
 471              		.loc 2 561 15 view .LVU145
 472              	.LBE263:
 473              	.LBE262:
 474              		.loc 1 249 1 view .LVU146
 475 0056 BDE8F883 		pop	{r3, r4, r5, r6, r7, r8, r9, pc}
 476              	.LVL31:
 477              	.L28:
 478              	.LBB271:
 479              		.loc 1 239 7 is_stmt 1 view .LVU147
 480              	.LBB238:
 481              	.LBI238:
 482              		.loc 1 69 13 view .LVU148
 483              	.LBB239:
 484              		.loc 1 70 3 view .LVU149
 485              		.loc 1 73 3 view .LVU150
 486              		.loc 1 75 3 view .LVU151
 487 005a 022E     		cmp	r6, #2
 488              	.LBE239:
 489              	.LBE238:
 490              		.loc 1 237 8 is_stmt 0 view .LVU152
 491 005c 4FF00205 		mov	r5, #2
 492 0060 38BF     		it	cc
 493 0062 0226     		movcc	r6, #2
 494              	.LVL32:
 495              	.L18:
 496              	.LBB257:
 497              	.LBB254:
 498              		.loc 1 89 3 is_stmt 1 view .LVU153
 499              	.LBB240:
 500              		.loc 1 90 5 view .LVU154
 501              		.loc 1 91 5 view .LVU155
 502              		.loc 1 94 5 view .LVU156
 503              	.LBB241:
 504              	.LBI241:
 505              		.loc 4 442 25 view .LVU157
 506              	.LBB242:
 507              		.loc 4 449 3 view .LVU158
 508              		.loc 4 449 3 is_stmt 0 view .LVU159
 509              	.LBE242:
 510              	.LBE241:
 511              	.LBB243:
 512              	.LBI243:
 513              		.loc 3 99 20 is_stmt 1 view .LVU160
ARM GAS  C:\Users\DEVELO~1\AppData\Local\Temp\ccOh4fwA.s 			page 10


 514              	.LBB244:
 515              		.loc 3 101 3 view .LVU161
 516 0064 08EB0600 		add	r0, r8, r6
 517              	.LVL33:
 518              		.loc 3 101 3 is_stmt 0 view .LVU162
 519 0068 FFF7FEFF 		bl	stSetAlarm
 520              	.LVL34:
 521              		.loc 3 101 3 view .LVU163
 522              	.LBE244:
 523              	.LBE243:
 524              		.loc 1 102 5 is_stmt 1 view .LVU164
 525              	.LBB245:
 526              	.LBI245:
 527              		.loc 5 122 25 view .LVU165
 528              		.loc 5 127 3 view .LVU166
 529              	.LBB246:
 530              	.LBI246:
 531              		.loc 3 111 25 view .LVU167
 532              	.LBB247:
 533              		.loc 3 113 3 view .LVU168
 534              		.loc 3 113 10 is_stmt 0 view .LVU169
 535 006c FFF7FEFF 		bl	stGetCounter
 536              	.LVL35:
 537              		.loc 3 113 10 view .LVU170
 538              	.LBE247:
 539              	.LBE246:
 540              	.LBE245:
 541              		.loc 1 103 5 is_stmt 1 view .LVU171
 542              	.LBB248:
 543              	.LBI248:
 544              		.loc 4 461 29 view .LVU172
 545              	.LBB249:
 546              		.loc 4 465 3 view .LVU173
 547              		.loc 4 465 3 is_stmt 0 view .LVU174
 548              	.LBE249:
 549              	.LBE248:
 550              		.loc 1 104 5 is_stmt 1 view .LVU175
 551              	.LBB251:
 552              	.LBB250:
 553              		.loc 4 465 10 is_stmt 0 view .LVU176
 554 0070 A0EB0808 		sub	r8, r0, r8
 555              	.LVL36:
 556              		.loc 4 465 10 view .LVU177
 557              	.LBE250:
 558              	.LBE251:
 559              		.loc 1 104 8 view .LVU178
 560 0074 4645     		cmp	r6, r8
 561 0076 10D9     		bls	.L29
 562              		.loc 1 104 8 view .LVU179
 563              	.LBE240:
 564              		.loc 1 118 3 is_stmt 1 view .LVU180
 565              		.loc 1 118 6 is_stmt 0 view .LVU181
 566 0078 022D     		cmp	r5, #2
 567 007a 03D8     		bhi	.L19
 568              	.LVL37:
 569              	.L26:
 570              		.loc 1 118 6 view .LVU182
ARM GAS  C:\Users\DEVELO~1\AppData\Local\Temp\ccOh4fwA.s 			page 11


 571              	.LBE254:
 572              	.LBE257:
 573              	.LBE271:
 574              	.LBB272:
 575              	.LBB270:
 576              		.loc 2 543 7 view .LVU183
 577 007c D9F81050 		ldr	r5, [r9, #16]
 578              	.LVL38:
 579              		.loc 2 544 10 view .LVU184
 580 0080 AB68     		ldr	r3, [r5, #8]
 581 0082 D4E7     		b	.L16
 582              	.LVL39:
 583              	.L19:
 584              		.loc 2 544 10 view .LVU185
 585              	.LBE270:
 586              	.LBE272:
 587              	.LBB273:
 588              	.LBB258:
 589              	.LBB255:
 590              		.loc 1 119 5 is_stmt 1 view .LVU186
 591 0084 0120     		movs	r0, #1
 592              	.LVL40:
 593              		.loc 1 119 5 is_stmt 0 view .LVU187
 594 0086 FFF7FEFF 		bl	chRFCUCollectFaultsI
 595              	.LVL41:
 596 008a F7E7     		b	.L26
 597              	.LVL42:
 598              	.L27:
 599              		.loc 1 119 5 view .LVU188
 600              	.LBE255:
 601              	.LBE258:
 602              		.loc 1 218 7 is_stmt 1 view .LVU189
 603 008c 3246     		mov	r2, r6
 604 008e 0146     		mov	r1, r0
 605 0090 3846     		mov	r0, r7
 606              	.LVL43:
 607              		.loc 1 218 7 is_stmt 0 view .LVU190
 608              	.LBE273:
 609              		.loc 1 249 1 view .LVU191
 610 0092 BDE8F843 		pop	{r3, r4, r5, r6, r7, r8, r9, lr}
 611              		.cfi_remember_state
 612              		.cfi_restore 14
 613              		.cfi_restore 9
 614              		.cfi_restore 8
 615              		.cfi_restore 7
 616              		.cfi_restore 6
 617              		.cfi_restore 5
 618              		.cfi_restore 4
 619              		.cfi_restore 3
 620              		.cfi_def_cfa_offset 0
 621              	.LVL44:
 622              	.LBB274:
 623              		.loc 1 218 7 view .LVU192
 624 0096 FFF7FEBF 		b	vt_insert_first.constprop.0
 625              	.LVL45:
 626              	.L29:
 627              		.cfi_restore_state
ARM GAS  C:\Users\DEVELO~1\AppData\Local\Temp\ccOh4fwA.s 			page 12


 628              	.LBB259:
 629              	.LBB256:
 630              	.LBB252:
 631              		.loc 1 109 5 is_stmt 1 view .LVU193
 632              		.loc 1 109 15 is_stmt 0 view .LVU194
 633 009a 0135     		adds	r5, r5, #1
 634              	.LVL46:
 635              		.loc 1 112 5 is_stmt 1 view .LVU195
 636              		.loc 1 113 5 view .LVU196
 637              		.loc 1 113 5 is_stmt 0 view .LVU197
 638              	.LBE252:
 639              		.loc 1 89 9 is_stmt 1 view .LVU198
 640              	.LBB253:
 641              		.loc 1 112 9 is_stmt 0 view .LVU199
 642 009c 8046     		mov	r8, r0
 643              	.LVL47:
 644              		.loc 1 109 15 view .LVU200
 645 009e 2E46     		mov	r6, r5
 646              	.LBE253:
 647              		.loc 1 89 16 view .LVU201
 648 00a0 E0E7     		b	.L18
 649              	.L31:
 650 00a2 00BF     		.align	2
 651              	.L30:
 652 00a4 00000000 		.word	ch0
 653              	.LBE256:
 654              	.LBE259:
 655              	.LBE274:
 656              		.cfi_endproc
 657              	.LFE357:
 658              		.size	vt_enqueue.constprop.0, .-vt_enqueue.constprop.0
 659              		.section	.text.chVTDoSetI,"ax",%progbits
 660              		.align	1
 661              		.p2align 4,,15
 662              		.global	chVTDoSetI
 663              		.syntax unified
 664              		.thumb
 665              		.thumb_func
 666              		.type	chVTDoSetI, %function
 667              	chVTDoSetI:
 668              	.LVL48:
 669              	.LFB349:
 670              		.loc 1 278 45 is_stmt 1 view -0
 671              		.cfi_startproc
 672              		@ args = 0, pretend = 0, frame = 0
 673              		@ frame_needed = 0, uses_anonymous_args = 0
 674              		@ link register save eliminated.
 675              		.loc 1 279 3 view .LVU203
 676              		.loc 1 281 21 view .LVU204
 677              		.loc 1 282 3 view .LVU205
 678              		.loc 1 282 3 view .LVU206
 679              		.loc 1 282 3 view .LVU207
 680              		.loc 1 285 3 view .LVU208
 681              		.loc 1 285 16 is_stmt 0 view .LVU209
 682 0000 0361     		str	r3, [r0, #16]
 683              		.loc 1 286 3 is_stmt 1 view .LVU210
 684              		.loc 1 287 16 is_stmt 0 view .LVU211
ARM GAS  C:\Users\DEVELO~1\AppData\Local\Temp\ccOh4fwA.s 			page 13


 685 0002 0023     		movs	r3, #0
 686              	.LVL49:
 687              		.loc 1 286 16 view .LVU212
 688 0004 C260     		str	r2, [r0, #12]
 689              		.loc 1 287 3 is_stmt 1 view .LVU213
 690              		.loc 1 287 16 is_stmt 0 view .LVU214
 691 0006 4361     		str	r3, [r0, #20]
 692              		.loc 1 290 3 is_stmt 1 view .LVU215
 693 0008 FFF7FEBF 		b	vt_enqueue.constprop.0
 694              	.LVL50:
 695              		.loc 1 290 3 is_stmt 0 view .LVU216
 696              		.cfi_endproc
 697              	.LFE349:
 698              		.size	chVTDoSetI, .-chVTDoSetI
 699              		.section	.text.chVTDoSetContinuousI,"ax",%progbits
 700              		.align	1
 701              		.p2align 4,,15
 702              		.global	chVTDoSetContinuousI
 703              		.syntax unified
 704              		.thumb
 705              		.thumb_func
 706              		.type	chVTDoSetContinuousI, %function
 707              	chVTDoSetContinuousI:
 708              	.LVL51:
 709              	.LFB350:
 710              		.loc 1 315 55 is_stmt 1 view -0
 711              		.cfi_startproc
 712              		@ args = 0, pretend = 0, frame = 0
 713              		@ frame_needed = 0, uses_anonymous_args = 0
 714              		@ link register save eliminated.
 715              		.loc 1 316 3 view .LVU218
 716              		.loc 1 318 21 view .LVU219
 717              		.loc 1 319 3 view .LVU220
 718              		.loc 1 319 3 view .LVU221
 719              		.loc 1 319 3 view .LVU222
 720              		.loc 1 322 3 view .LVU223
 721              		.loc 1 323 16 is_stmt 0 view .LVU224
 722 0000 C0E90323 		strd	r2, r3, [r0, #12]
 723              		.loc 1 324 3 is_stmt 1 view .LVU225
 724              		.loc 1 324 16 is_stmt 0 view .LVU226
 725 0004 4161     		str	r1, [r0, #20]
 726              		.loc 1 327 3 is_stmt 1 view .LVU227
 727 0006 FFF7FEBF 		b	vt_enqueue.constprop.0
 728              	.LVL52:
 729              		.loc 1 327 3 is_stmt 0 view .LVU228
 730              		.cfi_endproc
 731              	.LFE350:
 732              		.size	chVTDoSetContinuousI, .-chVTDoSetContinuousI
 733 000a 00BF     		.section	.text.chVTDoResetI,"ax",%progbits
 734              		.align	1
 735              		.p2align 4,,15
 736              		.global	chVTDoResetI
 737              		.syntax unified
 738              		.thumb
 739              		.thumb_func
 740              		.type	chVTDoResetI, %function
 741              	chVTDoResetI:
ARM GAS  C:\Users\DEVELO~1\AppData\Local\Temp\ccOh4fwA.s 			page 14


 742              	.LVL53:
 743              	.LFB351:
 744              		.loc 1 338 41 is_stmt 1 view -0
 745              		.cfi_startproc
 746              		@ args = 0, pretend = 0, frame = 0
 747              		@ frame_needed = 0, uses_anonymous_args = 0
 748              		.loc 1 339 3 view .LVU230
 749              		.loc 1 341 21 view .LVU231
 750              		.loc 1 342 3 view .LVU232
 751              		.loc 1 342 3 view .LVU233
 752              		.loc 1 342 3 view .LVU234
 753              		.loc 1 343 3 view .LVU235
 754              		.loc 1 343 3 view .LVU236
 755              		.loc 1 343 3 view .LVU237
 756              		.loc 1 358 3 view .LVU238
 757              		.loc 1 359 3 view .LVU239
 758              		.loc 1 363 3 view .LVU240
 759              		.loc 1 338 41 is_stmt 0 view .LVU241
 760 0000 70B5     		push	{r4, r5, r6, lr}
 761              		.cfi_def_cfa_offset 16
 762              		.cfi_offset 4, -16
 763              		.cfi_offset 5, -12
 764              		.cfi_offset 6, -8
 765              		.cfi_offset 14, -4
 766              	.LBB302:
 767              	.LBB303:
 768              		.loc 2 484 21 view .LVU242
 769 0002 234C     		ldr	r4, .L45
 770              	.LVL54:
 771              		.loc 2 484 21 view .LVU243
 772              	.LBE303:
 773              	.LBI302:
 774              		.loc 2 481 20 is_stmt 1 view .LVU244
 775              	.LBB304:
 776              		.loc 2 484 3 view .LVU245
 777              		.loc 2 484 21 is_stmt 0 view .LVU246
 778 0004 2369     		ldr	r3, [r4, #16]
 779              	.LVL55:
 780              		.loc 2 484 21 view .LVU247
 781              	.LBE304:
 782              	.LBE302:
 783              		.loc 1 363 6 view .LVU248
 784 0006 9842     		cmp	r0, r3
 785 0008 0DD0     		beq	.L35
 786              		.loc 1 366 5 is_stmt 1 view .LVU249
 787              	.LVL56:
 788              	.LBB305:
 789              	.LBI305:
 790              		.loc 2 587 32 view .LVU250
 791              	.LBB306:
 792              		.loc 2 589 3 view .LVU251
 793              		.loc 2 589 24 is_stmt 0 view .LVU252
 794 000a 0368     		ldr	r3, [r0]
 795              		.loc 2 589 6 view .LVU253
 796 000c D0E90121 		ldrd	r2, r1, [r0, #4]
 797              		.loc 2 589 19 view .LVU254
 798 0010 1360     		str	r3, [r2]
ARM GAS  C:\Users\DEVELO~1\AppData\Local\Temp\ccOh4fwA.s 			page 15


 799              		.loc 2 590 3 is_stmt 1 view .LVU255
 800              		.loc 2 590 19 is_stmt 0 view .LVU256
 801 0012 5A60     		str	r2, [r3, #4]
 802              		.loc 2 592 3 is_stmt 1 view .LVU257
 803              	.LVL57:
 804              		.loc 2 592 3 is_stmt 0 view .LVU258
 805              	.LBE306:
 806              	.LBE305:
 807              		.loc 1 369 5 is_stmt 1 view .LVU259
 808              		.loc 1 369 28 is_stmt 0 view .LVU260
 809 0014 9A68     		ldr	r2, [r3, #8]
 810 0016 0A44     		add	r2, r2, r1
 811              		.loc 1 372 21 view .LVU261
 812 0018 0021     		movs	r1, #0
 813              		.loc 1 369 28 view .LVU262
 814 001a 9A60     		str	r2, [r3, #8]
 815              		.loc 1 372 5 is_stmt 1 view .LVU263
 816              		.loc 1 377 23 is_stmt 0 view .LVU264
 817 001c 4FF0FF33 		mov	r3, #-1
 818              		.loc 1 372 21 view .LVU265
 819 0020 0160     		str	r1, [r0]
 820              		.loc 1 377 5 is_stmt 1 view .LVU266
 821              		.loc 1 377 23 is_stmt 0 view .LVU267
 822 0022 A361     		str	r3, [r4, #24]
 823              		.loc 1 379 5 is_stmt 1 view .LVU268
 824              	.LVL58:
 825              	.L34:
 826              		.loc 1 413 1 is_stmt 0 view .LVU269
 827 0024 70BD     		pop	{r4, r5, r6, pc}
 828              	.LVL59:
 829              	.L35:
 830              		.loc 1 383 3 is_stmt 1 view .LVU270
 831              	.LBB307:
 832              	.LBI307:
 833              		.loc 2 571 32 view .LVU271
 834              	.LBB308:
 835              		.loc 2 572 3 view .LVU272
 836              		.loc 2 574 3 view .LVU273
 837              		.loc 2 574 25 is_stmt 0 view .LVU274
 838 0026 0268     		ldr	r2, [r0]
 839              		.loc 2 574 20 view .LVU275
 840 0028 2346     		mov	r3, r4
 841              	.LBE308:
 842              	.LBE307:
 843              		.loc 1 384 19 view .LVU276
 844 002a 0021     		movs	r1, #0
 845              	.LBB310:
 846              	.LBB309:
 847              		.loc 2 574 20 view .LVU277
 848 002c 43F8102F 		str	r2, [r3, #16]!
 849              		.loc 2 575 3 is_stmt 1 view .LVU278
 850              		.loc 2 575 20 is_stmt 0 view .LVU279
 851 0030 5360     		str	r3, [r2, #4]
 852              		.loc 2 577 3 is_stmt 1 view .LVU280
 853              	.LVL60:
 854              		.loc 2 577 3 is_stmt 0 view .LVU281
 855              	.LBE309:
ARM GAS  C:\Users\DEVELO~1\AppData\Local\Temp\ccOh4fwA.s 			page 16


 856              	.LBE310:
 857              		.loc 1 384 3 is_stmt 1 view .LVU282
 858              		.loc 1 384 19 is_stmt 0 view .LVU283
 859 0032 0160     		str	r1, [r0]
 860              		.loc 1 387 3 is_stmt 1 view .LVU284
 861              	.LVL61:
 862              	.LBB311:
 863              	.LBI311:
 864              		.loc 2 441 20 view .LVU285
 865              	.LBB312:
 866              		.loc 2 443 3 view .LVU286
 867              		.loc 2 443 29 is_stmt 0 view .LVU287
 868 0034 2269     		ldr	r2, [r4, #16]
 869              	.LVL62:
 870              		.loc 2 443 29 view .LVU288
 871              	.LBE312:
 872              	.LBE311:
 873              		.loc 1 387 6 view .LVU289
 874 0036 9A42     		cmp	r2, r3
 875 0038 21D0     		beq	.L43
 876              		.loc 1 395 3 is_stmt 1 view .LVU290
 877              		.loc 1 395 27 is_stmt 0 view .LVU291
 878 003a 9368     		ldr	r3, [r2, #8]
 879 003c 8168     		ldr	r1, [r0, #8]
 880 003e 0B44     		add	r3, r3, r1
 881 0040 9360     		str	r3, [r2, #8]
 882              		.loc 1 398 3 is_stmt 1 view .LVU292
 883              	.LBB313:
 884              	.LBI313:
 885              		.loc 5 122 25 view .LVU293
 886              		.loc 5 127 3 view .LVU294
 887              	.LBB314:
 888              	.LBI314:
 889              		.loc 3 111 25 view .LVU295
 890              	.LBB315:
 891              		.loc 3 113 3 view .LVU296
 892              		.loc 3 113 10 is_stmt 0 view .LVU297
 893 0042 FFF7FEFF 		bl	stGetCounter
 894              	.LVL63:
 895              		.loc 3 113 10 view .LVU298
 896              	.LBE315:
 897              	.LBE314:
 898              	.LBE313:
 899              		.loc 1 399 14 view .LVU299
 900 0046 E569     		ldr	r5, [r4, #28]
 901              		.loc 1 403 35 view .LVU300
 902 0048 2369     		ldr	r3, [r4, #16]
 903              	.LBB318:
 904              	.LBB317:
 905              	.LBB316:
 906              		.loc 3 113 10 view .LVU301
 907 004a 0446     		mov	r4, r0
 908              	.LVL64:
 909              		.loc 3 113 10 view .LVU302
 910              	.LBE316:
 911              	.LBE317:
 912              	.LBE318:
ARM GAS  C:\Users\DEVELO~1\AppData\Local\Temp\ccOh4fwA.s 			page 17


 913              		.loc 1 399 3 is_stmt 1 view .LVU303
 914              	.LBB319:
 915              	.LBI319:
 916              		.loc 4 461 29 view .LVU304
 917              	.LBB320:
 918              		.loc 4 465 3 view .LVU305
 919              		.loc 4 465 3 is_stmt 0 view .LVU306
 920              	.LBE320:
 921              	.LBE319:
 922              		.loc 1 403 3 is_stmt 1 view .LVU307
 923              	.LBB322:
 924              	.LBB321:
 925              		.loc 4 465 10 is_stmt 0 view .LVU308
 926 004c 421B     		subs	r2, r0, r5
 927              	.LVL65:
 928              		.loc 4 465 10 view .LVU309
 929              	.LBE321:
 930              	.LBE322:
 931              		.loc 1 403 35 view .LVU310
 932 004e 9B68     		ldr	r3, [r3, #8]
 933              		.loc 1 403 6 view .LVU311
 934 0050 9342     		cmp	r3, r2
 935 0052 E7D9     		bls	.L34
 936              		.loc 1 408 3 is_stmt 1 view .LVU312
 937              	.LVL66:
 938              		.loc 1 411 3 view .LVU313
 939              	.LBB323:
 940              	.LBI323:
 941              		.loc 1 69 13 view .LVU314
 942              	.LBB324:
 943              		.loc 1 70 3 view .LVU315
 944              		.loc 1 73 3 view .LVU316
 945              		.loc 1 75 3 view .LVU317
 946              	.LBE324:
 947              	.LBE323:
 948              		.loc 1 408 9 is_stmt 0 view .LVU318
 949 0054 1D44     		add	r5, r5, r3
 950              	.LVL67:
 951              		.loc 1 408 9 view .LVU319
 952 0056 0226     		movs	r6, #2
 953 0058 2D1A     		subs	r5, r5, r0
 954              	.LVL68:
 955              		.loc 1 408 9 view .LVU320
 956 005a B542     		cmp	r5, r6
 957 005c 38BF     		it	cc
 958 005e 3546     		movcc	r5, r6
 959              	.LVL69:
 960              	.L40:
 961              	.LBB342:
 962              	.LBB339:
 963              		.loc 1 89 3 is_stmt 1 view .LVU321
 964              	.LBB325:
 965              		.loc 1 90 5 view .LVU322
 966              		.loc 1 91 5 view .LVU323
 967              		.loc 1 94 5 view .LVU324
 968              	.LBB326:
 969              	.LBI326:
ARM GAS  C:\Users\DEVELO~1\AppData\Local\Temp\ccOh4fwA.s 			page 18


 970              		.loc 4 442 25 view .LVU325
 971              	.LBB327:
 972              		.loc 4 449 3 view .LVU326
 973              		.loc 4 449 3 is_stmt 0 view .LVU327
 974              	.LBE327:
 975              	.LBE326:
 976              	.LBB328:
 977              	.LBI328:
 978              		.loc 3 99 20 is_stmt 1 view .LVU328
 979              	.LBB329:
 980              		.loc 3 101 3 view .LVU329
 981 0060 6019     		adds	r0, r4, r5
 982              	.LVL70:
 983              		.loc 3 101 3 is_stmt 0 view .LVU330
 984 0062 FFF7FEFF 		bl	stSetAlarm
 985              	.LVL71:
 986              		.loc 3 101 3 view .LVU331
 987              	.LBE329:
 988              	.LBE328:
 989              		.loc 1 102 5 is_stmt 1 view .LVU332
 990              	.LBB330:
 991              	.LBI330:
 992              		.loc 5 122 25 view .LVU333
 993              		.loc 5 127 3 view .LVU334
 994              	.LBB331:
 995              	.LBI331:
 996              		.loc 3 111 25 view .LVU335
 997              	.LBB332:
 998              		.loc 3 113 3 view .LVU336
 999              		.loc 3 113 10 is_stmt 0 view .LVU337
 1000 0066 FFF7FEFF 		bl	stGetCounter
 1001              	.LVL72:
 1002              		.loc 3 113 10 view .LVU338
 1003              	.LBE332:
 1004              	.LBE331:
 1005              	.LBE330:
 1006              		.loc 1 103 5 is_stmt 1 view .LVU339
 1007              	.LBB333:
 1008              	.LBI333:
 1009              		.loc 4 461 29 view .LVU340
 1010              	.LBB334:
 1011              		.loc 4 465 3 view .LVU341
 1012              		.loc 4 465 3 is_stmt 0 view .LVU342
 1013              	.LBE334:
 1014              	.LBE333:
 1015              		.loc 1 104 5 is_stmt 1 view .LVU343
 1016              	.LBB336:
 1017              	.LBB335:
 1018              		.loc 4 465 10 is_stmt 0 view .LVU344
 1019 006a 041B     		subs	r4, r0, r4
 1020              	.LVL73:
 1021              		.loc 4 465 10 view .LVU345
 1022              	.LBE335:
 1023              	.LBE336:
 1024              		.loc 1 104 8 view .LVU346
 1025 006c A542     		cmp	r5, r4
 1026 006e 0AD9     		bls	.L44
ARM GAS  C:\Users\DEVELO~1\AppData\Local\Temp\ccOh4fwA.s 			page 19


 1027              		.loc 1 104 8 view .LVU347
 1028              	.LBE325:
 1029              		.loc 1 118 3 is_stmt 1 view .LVU348
 1030              		.loc 1 118 6 is_stmt 0 view .LVU349
 1031 0070 022E     		cmp	r6, #2
 1032 0072 D7D9     		bls	.L34
 1033              		.loc 1 119 5 is_stmt 1 view .LVU350
 1034 0074 0120     		movs	r0, #1
 1035              	.LVL74:
 1036              		.loc 1 119 5 is_stmt 0 view .LVU351
 1037              	.LBE339:
 1038              	.LBE342:
 1039              		.loc 1 413 1 view .LVU352
 1040 0076 BDE87040 		pop	{r4, r5, r6, lr}
 1041              		.cfi_remember_state
 1042              		.cfi_restore 14
 1043              		.cfi_restore 6
 1044              		.cfi_restore 5
 1045              		.cfi_restore 4
 1046              		.cfi_def_cfa_offset 0
 1047              	.LVL75:
 1048              	.LBB343:
 1049              	.LBB340:
 1050              		.loc 1 119 5 view .LVU353
 1051 007a FFF7FEBF 		b	chRFCUCollectFaultsI
 1052              	.LVL76:
 1053              	.L43:
 1054              		.cfi_restore_state
 1055              		.loc 1 119 5 view .LVU354
 1056              	.LBE340:
 1057              	.LBE343:
 1058              		.loc 1 389 5 is_stmt 1 view .LVU355
 1059              	.LBB344:
 1060              	.LBI344:
 1061              		.loc 3 87 20 view .LVU356
 1062              	.LBB345:
 1063              		.loc 3 89 3 view .LVU357
 1064              	.LBE345:
 1065              	.LBE344:
 1066              		.loc 1 413 1 is_stmt 0 view .LVU358
 1067 007e BDE87040 		pop	{r4, r5, r6, lr}
 1068              		.cfi_remember_state
 1069              		.cfi_restore 14
 1070              		.cfi_restore 6
 1071              		.cfi_restore 5
 1072              		.cfi_restore 4
 1073              		.cfi_def_cfa_offset 0
 1074              	.LBB347:
 1075              	.LBB346:
 1076              		.loc 3 89 3 view .LVU359
 1077 0082 FFF7FEBF 		b	stStopAlarm
 1078              	.LVL77:
 1079              	.L44:
 1080              		.cfi_restore_state
 1081              		.loc 3 89 3 view .LVU360
 1082              	.LBE346:
 1083              	.LBE347:
ARM GAS  C:\Users\DEVELO~1\AppData\Local\Temp\ccOh4fwA.s 			page 20


 1084              	.LBB348:
 1085              	.LBB341:
 1086              	.LBB337:
 1087              		.loc 1 109 5 is_stmt 1 view .LVU361
 1088              		.loc 1 109 15 is_stmt 0 view .LVU362
 1089 0086 0136     		adds	r6, r6, #1
 1090              	.LVL78:
 1091              		.loc 1 112 5 is_stmt 1 view .LVU363
 1092              		.loc 1 113 5 view .LVU364
 1093              		.loc 1 113 5 is_stmt 0 view .LVU365
 1094              	.LBE337:
 1095              		.loc 1 89 9 is_stmt 1 view .LVU366
 1096              	.LBB338:
 1097              		.loc 1 112 9 is_stmt 0 view .LVU367
 1098 0088 0446     		mov	r4, r0
 1099              	.LVL79:
 1100              		.loc 1 109 15 view .LVU368
 1101 008a 3546     		mov	r5, r6
 1102              	.LBE338:
 1103              		.loc 1 89 16 view .LVU369
 1104 008c E8E7     		b	.L40
 1105              	.L46:
 1106 008e 00BF     		.align	2
 1107              	.L45:
 1108 0090 00000000 		.word	ch0
 1109              	.LBE341:
 1110              	.LBE348:
 1111              		.cfi_endproc
 1112              	.LFE351:
 1113              		.size	chVTDoResetI, .-chVTDoResetI
 1114              		.section	.text.chVTGetRemainingIntervalI,"ax",%progbits
 1115              		.align	1
 1116              		.p2align 4,,15
 1117              		.global	chVTGetRemainingIntervalI
 1118              		.syntax unified
 1119              		.thumb
 1120              		.thumb_func
 1121              		.type	chVTGetRemainingIntervalI, %function
 1122              	chVTGetRemainingIntervalI:
 1123              	.LVL80:
 1124              	.LFB352:
 1125              		.loc 1 424 63 is_stmt 1 view -0
 1126              		.cfi_startproc
 1127              		@ args = 0, pretend = 0, frame = 0
 1128              		@ frame_needed = 0, uses_anonymous_args = 0
 1129              		.loc 1 425 3 view .LVU371
 1130              		.loc 1 426 3 view .LVU372
 1131              		.loc 1 427 3 view .LVU373
 1132              		.loc 1 429 21 view .LVU374
 1133              		.loc 1 431 3 view .LVU375
 1134              		.loc 1 432 3 view .LVU376
 1135              		.loc 1 424 63 is_stmt 0 view .LVU377
 1136 0000 38B5     		push	{r3, r4, r5, lr}
 1137              		.cfi_def_cfa_offset 16
 1138              		.cfi_offset 3, -16
 1139              		.cfi_offset 4, -12
 1140              		.cfi_offset 5, -8
ARM GAS  C:\Users\DEVELO~1\AppData\Local\Temp\ccOh4fwA.s 			page 21


 1141              		.cfi_offset 14, -4
 1142              		.loc 1 432 7 view .LVU378
 1143 0002 0D4D     		ldr	r5, .L56
 1144              		.loc 1 431 9 view .LVU379
 1145 0004 0024     		movs	r4, #0
 1146              		.loc 1 432 7 view .LVU380
 1147 0006 2946     		mov	r1, r5
 1148 0008 51F8103F 		ldr	r3, [r1, #16]!
 1149              	.LVL81:
 1150              		.loc 1 432 7 view .LVU381
 1151 000c 02E0     		b	.L50
 1152              	.LVL82:
 1153              	.L48:
 1154              		.loc 1 447 9 view .LVU382
 1155 000e 1B68     		ldr	r3, [r3]
 1156              	.LVL83:
 1157              		.loc 1 448 16 is_stmt 1 view .LVU383
 1158 0010 8B42     		cmp	r3, r1
 1159 0012 0ED0     		beq	.L54
 1160              	.LVL84:
 1161              	.L50:
 1162              		.loc 1 433 3 view .LVU384
 1163              		.loc 1 434 5 view .LVU385
 1164              		.loc 1 447 5 view .LVU386
 1165              		.loc 1 434 11 is_stmt 0 view .LVU387
 1166 0014 9A68     		ldr	r2, [r3, #8]
 1167              		.loc 1 435 8 view .LVU388
 1168 0016 8342     		cmp	r3, r0
 1169              		.loc 1 434 11 view .LVU389
 1170 0018 1444     		add	r4, r4, r2
 1171              	.LVL85:
 1172              		.loc 1 435 5 is_stmt 1 view .LVU390
 1173              		.loc 1 435 8 is_stmt 0 view .LVU391
 1174 001a F8D1     		bne	.L48
 1175              	.LBB349:
 1176              		.loc 1 437 7 is_stmt 1 view .LVU392
 1177              	.LBB350:
 1178              	.LBI350:
 1179              		.loc 5 122 25 view .LVU393
 1180              		.loc 5 127 3 view .LVU394
 1181              	.LBB351:
 1182              	.LBI351:
 1183              		.loc 3 111 25 view .LVU395
 1184              	.LBB352:
 1185              		.loc 3 113 3 view .LVU396
 1186              		.loc 3 113 10 is_stmt 0 view .LVU397
 1187 001c FFF7FEFF 		bl	stGetCounter
 1188              	.LVL86:
 1189              		.loc 3 113 10 view .LVU398
 1190              	.LBE352:
 1191              	.LBE351:
 1192              	.LBE350:
 1193              		.loc 1 438 32 view .LVU399
 1194 0020 EB69     		ldr	r3, [r5, #28]
 1195              	.LVL87:
 1196              		.loc 1 438 7 is_stmt 1 view .LVU400
 1197              	.LBB353:
ARM GAS  C:\Users\DEVELO~1\AppData\Local\Temp\ccOh4fwA.s 			page 22


 1198              	.LBI353:
 1199              		.loc 4 461 29 view .LVU401
 1200              	.LBB354:
 1201              		.loc 4 465 3 view .LVU402
 1202              		.loc 4 465 3 is_stmt 0 view .LVU403
 1203              	.LBE354:
 1204              	.LBE353:
 1205              		.loc 1 439 7 is_stmt 1 view .LVU404
 1206              	.LBB356:
 1207              	.LBB355:
 1208              		.loc 4 465 10 is_stmt 0 view .LVU405
 1209 0022 C21A     		subs	r2, r0, r3
 1210              	.LVL88:
 1211              		.loc 4 465 10 view .LVU406
 1212              	.LBE355:
 1213              	.LBE356:
 1214              		.loc 1 439 10 view .LVU407
 1215 0024 9442     		cmp	r4, r2
 1216 0026 01D2     		bcs	.L55
 1217              		.loc 1 440 16 view .LVU408
 1218 0028 0020     		movs	r0, #0
 1219              	.LVL89:
 1220              		.loc 1 440 16 view .LVU409
 1221              	.LBE349:
 1222              		.loc 1 453 1 view .LVU410
 1223 002a 38BD     		pop	{r3, r4, r5, pc}
 1224              	.LVL90:
 1225              	.L55:
 1226              	.LBB357:
 1227              		.loc 1 442 7 is_stmt 1 view .LVU411
 1228              		.loc 1 442 20 is_stmt 0 view .LVU412
 1229 002c 2344     		add	r3, r3, r4
 1230 002e 181A     		subs	r0, r3, r0
 1231              	.LVL91:
 1232              		.loc 1 442 20 view .LVU413
 1233              	.LBE357:
 1234              		.loc 1 453 1 view .LVU414
 1235 0030 38BD     		pop	{r3, r4, r5, pc}
 1236              	.LVL92:
 1237              	.L54:
 1238              		.loc 1 452 10 view .LVU415
 1239 0032 4FF0FF30 		mov	r0, #-1
 1240              	.LVL93:
 1241              		.loc 1 453 1 view .LVU416
 1242 0036 38BD     		pop	{r3, r4, r5, pc}
 1243              	.LVL94:
 1244              	.L57:
 1245              		.loc 1 453 1 view .LVU417
 1246              		.align	2
 1247              	.L56:
 1248 0038 00000000 		.word	ch0
 1249              		.cfi_endproc
 1250              	.LFE352:
 1251              		.size	chVTGetRemainingIntervalI, .-chVTGetRemainingIntervalI
 1252              		.section	.text.chVTDoTickI,"ax",%progbits
 1253              		.align	1
 1254              		.p2align 4,,15
ARM GAS  C:\Users\DEVELO~1\AppData\Local\Temp\ccOh4fwA.s 			page 23


 1255              		.global	chVTDoTickI
 1256              		.syntax unified
 1257              		.thumb
 1258              		.thumb_func
 1259              		.type	chVTDoTickI, %function
 1260              	chVTDoTickI:
 1261              	.LFB353:
 1262              		.loc 1 464 24 is_stmt 1 view -0
 1263              		.cfi_startproc
 1264              		@ args = 0, pretend = 0, frame = 0
 1265              		@ frame_needed = 0, uses_anonymous_args = 0
 1266              		.loc 1 465 3 view .LVU419
 1267              	.LVL95:
 1268              		.loc 1 464 24 is_stmt 0 view .LVU420
 1269 0000 2DE9F84F 		push	{r3, r4, r5, r6, r7, r8, r9, r10, fp, lr}
 1270              		.cfi_def_cfa_offset 40
 1271              		.cfi_offset 3, -40
 1272              		.cfi_offset 4, -36
 1273              		.cfi_offset 5, -32
 1274              		.cfi_offset 6, -28
 1275              		.cfi_offset 7, -24
 1276              		.cfi_offset 8, -20
 1277              		.cfi_offset 9, -16
 1278              		.cfi_offset 10, -12
 1279              		.cfi_offset 11, -8
 1280              		.cfi_offset 14, -4
 1281 0004 3C4E     		ldr	r6, .L83
 1282              	.LBB408:
 1283              		.loc 1 525 21 view .LVU421
 1284 0006 0027     		movs	r7, #0
 1285              	.LBB409:
 1286              	.LBB410:
 1287              	.LBB411:
 1288              	.LBB412:
 1289              	.LBB413:
 1290              		.file 6 "../../../os/common/ext/ARM/CMSIS/Core/Include/cmsis_gcc.h"
 1291              		.loc 6 493 3 view .LVU422
 1292 0008 4FF03009 		mov	r9, #48
 1293 000c 06F11008 		add	r8, r6, #16
 1294 0010 09E0     		b	.L61
 1295              	.LVL96:
 1296              	.L60:
 1297              		.loc 6 493 3 view .LVU423
 1298              	.LBE413:
 1299              	.LBE412:
 1300              	.LBE411:
 1301              	.LBE410:
 1302              	.LBE409:
 1303              		.loc 1 535 5 is_stmt 1 view .LVU424
 1304              	.LBB418:
 1305              	.LBI418:
 1306              		.file 7 "../../../os/rt/include/chsys.h"
 1307              		.loc 7 473 20 view .LVU425
 1308              		.loc 7 475 32 view .LVU426
 1309              		.loc 7 476 34 view .LVU427
 1310              		.loc 7 477 3 view .LVU428
 1311              	.LBB419:
ARM GAS  C:\Users\DEVELO~1\AppData\Local\Temp\ccOh4fwA.s 			page 24


 1312              	.LBI419:
 1313              		.file 8 "../../../os/common/ports/ARMv7-M/chcore.h"
 1314              		.loc 8 873 27 view .LVU429
 1315              		.loc 8 875 3 view .LVU430
 1316              	.LBB420:
 1317              	.LBI420:
 1318              		.loc 8 847 27 view .LVU431
 1319              		.loc 8 850 3 view .LVU432
 1320              	.LBB421:
 1321              	.LBI421:
 1322              		.loc 6 491 27 view .LVU433
 1323              	.LBB422:
 1324              		.loc 6 493 3 view .LVU434
 1325              		.syntax unified
 1326              	@ 493 "../../../os/common/ext/ARM/CMSIS/Core/Include/cmsis_gcc.h" 1
 1327 0012 87F31188 		MSR basepri, r7
 1328              	@ 0 "" 2
 1329              	.LVL97:
 1330              		.loc 6 493 3 is_stmt 0 view .LVU435
 1331              		.thumb
 1332              		.syntax unified
 1333              	.LBE422:
 1334              	.LBE421:
 1335              	.LBE420:
 1336              	.LBE419:
 1337              	.LBE418:
 1338              		.loc 1 537 5 is_stmt 1 view .LVU436
 1339 0016 D4E90331 		ldrd	r3, r1, [r4, #12]
 1340 001a 2046     		mov	r0, r4
 1341 001c 9847     		blx	r3
 1342              	.LVL98:
 1343              		.loc 1 539 5 view .LVU437
 1344              	.LBB423:
 1345              	.LBI409:
 1346              		.loc 7 451 20 view .LVU438
 1347              		.loc 7 453 3 view .LVU439
 1348              	.LBB417:
 1349              	.LBI410:
 1350              		.loc 8 862 27 view .LVU440
 1351              		.loc 8 864 3 view .LVU441
 1352              	.LBB416:
 1353              	.LBI411:
 1354              		.loc 8 823 27 view .LVU442
 1355              		.loc 8 831 3 view .LVU443
 1356              	.LBB415:
 1357              	.LBI412:
 1358              		.loc 6 491 27 view .LVU444
 1359              	.LBB414:
 1360              		.loc 6 493 3 view .LVU445
 1361              		.syntax unified
 1362              	@ 493 "../../../os/common/ext/ARM/CMSIS/Core/Include/cmsis_gcc.h" 1
 1363 001e 89F31188 		MSR basepri, r9
 1364              	@ 0 "" 2
 1365              	.LVL99:
 1366              		.loc 6 493 3 is_stmt 0 view .LVU446
 1367              		.thumb
 1368              		.syntax unified
ARM GAS  C:\Users\DEVELO~1\AppData\Local\Temp\ccOh4fwA.s 			page 25


 1369              	.LBE414:
 1370              	.LBE415:
 1371              	.LBE416:
 1372              	.LBE417:
 1373              		.loc 7 454 35 is_stmt 1 view .LVU447
 1374              		.loc 7 455 30 view .LVU448
 1375              	.LBE423:
 1376              		.loc 1 542 5 view .LVU449
 1377              		.loc 1 542 8 is_stmt 0 view .LVU450
 1378 0022 6369     		ldr	r3, [r4, #20]
 1379 0024 ABB9     		cbnz	r3, .L78
 1380              	.LVL100:
 1381              	.L61:
 1382              		.loc 1 542 8 view .LVU451
 1383              	.LBE408:
 1384              		.loc 1 467 21 is_stmt 1 view .LVU452
 1385              		.loc 1 495 3 view .LVU453
 1386              		.loc 1 496 3 view .LVU454
 1387              		.loc 1 497 3 view .LVU455
 1388              		.loc 1 501 3 view .LVU456
 1389              	.LBB468:
 1390              		.loc 1 502 5 view .LVU457
 1391              		.loc 1 505 5 view .LVU458
 1392              		.loc 1 505 9 is_stmt 0 view .LVU459
 1393 0026 3469     		ldr	r4, [r6, #16]
 1394              	.LVL101:
 1395              		.loc 1 508 5 is_stmt 1 view .LVU460
 1396              	.LBB424:
 1397              	.LBI424:
 1398              		.loc 5 122 25 view .LVU461
 1399              		.loc 5 127 3 view .LVU462
 1400              	.LBB425:
 1401              	.LBI425:
 1402              		.loc 3 111 25 view .LVU463
 1403              	.LBB426:
 1404              		.loc 3 113 3 view .LVU464
 1405              		.loc 3 113 10 is_stmt 0 view .LVU465
 1406 0028 FFF7FEFF 		bl	stGetCounter
 1407              	.LVL102:
 1408              	.LBE426:
 1409              	.LBE425:
 1410              	.LBE424:
 1411              		.loc 1 509 16 view .LVU466
 1412 002c F369     		ldr	r3, [r6, #28]
 1413              	.LBB429:
 1414              	.LBB428:
 1415              	.LBB427:
 1416              		.loc 3 113 10 view .LVU467
 1417 002e 0546     		mov	r5, r0
 1418              	.LVL103:
 1419              		.loc 3 113 10 view .LVU468
 1420              	.LBE427:
 1421              	.LBE428:
 1422              	.LBE429:
 1423              		.loc 1 509 5 is_stmt 1 view .LVU469
 1424              	.LBB430:
 1425              	.LBI430:
ARM GAS  C:\Users\DEVELO~1\AppData\Local\Temp\ccOh4fwA.s 			page 26


 1426              		.loc 4 461 29 view .LVU470
 1427              	.LBB431:
 1428              		.loc 4 465 3 view .LVU471
 1429              		.loc 4 465 3 is_stmt 0 view .LVU472
 1430              	.LBE431:
 1431              	.LBE430:
 1432              		.loc 1 515 5 is_stmt 1 view .LVU473
 1433              		.loc 1 515 30 is_stmt 0 view .LVU474
 1434 0030 A268     		ldr	r2, [r4, #8]
 1435              	.LBB433:
 1436              	.LBB432:
 1437              		.loc 4 465 10 view .LVU475
 1438 0032 C11A     		subs	r1, r0, r3
 1439              	.LVL104:
 1440              		.loc 4 465 10 view .LVU476
 1441              	.LBE432:
 1442              	.LBE433:
 1443              		.loc 1 515 8 view .LVU477
 1444 0034 8A42     		cmp	r2, r1
 1445 0036 2CD8     		bhi	.L59
 1446              		.loc 1 520 5 is_stmt 1 view .LVU478
 1447              	.LVL105:
 1448              	.LBB434:
 1449              	.LBI434:
 1450              		.loc 4 442 25 view .LVU479
 1451              	.LBB435:
 1452              		.loc 4 449 3 view .LVU480
 1453              		.loc 4 449 18 is_stmt 0 view .LVU481
 1454 0038 9D18     		adds	r5, r3, r2
 1455              	.LVL106:
 1456              		.loc 4 449 18 view .LVU482
 1457              	.LBE435:
 1458              	.LBE434:
 1459              		.loc 1 521 5 is_stmt 1 view .LVU483
 1460              	.LBB436:
 1461              	.LBB437:
 1462              		.loc 2 589 6 is_stmt 0 view .LVU484
 1463 003a D4E90010 		ldrd	r1, r0, [r4]
 1464              	.LVL107:
 1465              		.loc 2 589 6 view .LVU485
 1466              	.LBE437:
 1467              	.LBE436:
 1468              		.loc 1 521 20 view .LVU486
 1469 003e F561     		str	r5, [r6, #28]
 1470              		.loc 1 524 5 is_stmt 1 view .LVU487
 1471              	.LVL108:
 1472              	.LBB439:
 1473              	.LBI436:
 1474              		.loc 2 587 32 view .LVU488
 1475              	.LBB438:
 1476              		.loc 2 589 3 view .LVU489
 1477              		.loc 2 589 19 is_stmt 0 view .LVU490
 1478 0040 0160     		str	r1, [r0]
 1479              		.loc 2 590 3 is_stmt 1 view .LVU491
 1480              		.loc 2 590 19 is_stmt 0 view .LVU492
 1481 0042 4860     		str	r0, [r1, #4]
 1482              		.loc 2 592 3 is_stmt 1 view .LVU493
ARM GAS  C:\Users\DEVELO~1\AppData\Local\Temp\ccOh4fwA.s 			page 27


 1483              	.LVL109:
 1484              		.loc 2 592 3 is_stmt 0 view .LVU494
 1485              	.LBE438:
 1486              	.LBE439:
 1487              		.loc 1 525 5 is_stmt 1 view .LVU495
 1488              		.loc 1 525 21 is_stmt 0 view .LVU496
 1489 0044 2760     		str	r7, [r4]
 1490              		.loc 1 528 5 is_stmt 1 view .LVU497
 1491              	.LVL110:
 1492              	.LBB440:
 1493              	.LBI440:
 1494              		.loc 2 441 20 view .LVU498
 1495              	.LBB441:
 1496              		.loc 2 443 3 view .LVU499
 1497              		.loc 2 443 3 is_stmt 0 view .LVU500
 1498              	.LBE441:
 1499              	.LBE440:
 1500              		.loc 1 528 8 view .LVU501
 1501 0046 3369     		ldr	r3, [r6, #16]
 1502 0048 4345     		cmp	r3, r8
 1503 004a E2D1     		bne	.L60
 1504              		.loc 1 529 7 is_stmt 1 view .LVU502
 1505              	.LBB442:
 1506              	.LBI442:
 1507              		.loc 3 87 20 view .LVU503
 1508              	.LBB443:
 1509              		.loc 3 89 3 view .LVU504
 1510 004c FFF7FEFF 		bl	stStopAlarm
 1511              	.LVL111:
 1512              		.loc 3 90 1 is_stmt 0 view .LVU505
 1513 0050 DFE7     		b	.L60
 1514              	.L78:
 1515              		.loc 3 90 1 view .LVU506
 1516              	.LBE443:
 1517              	.LBE442:
 1518              	.LBB444:
 1519              		.loc 1 543 7 is_stmt 1 view .LVU507
 1520              		.loc 1 547 7 view .LVU508
 1521              	.LBB445:
 1522              	.LBI445:
 1523              		.loc 5 122 25 view .LVU509
 1524              		.loc 5 127 3 view .LVU510
 1525              	.LBB446:
 1526              	.LBI446:
 1527              		.loc 3 111 25 view .LVU511
 1528              	.LBB447:
 1529              		.loc 3 113 3 view .LVU512
 1530              		.loc 3 113 10 is_stmt 0 view .LVU513
 1531 0052 FFF7FEFF 		bl	stGetCounter
 1532              	.LVL112:
 1533              	.LBE447:
 1534              	.LBE446:
 1535              	.LBE445:
 1536              		.loc 1 552 25 view .LVU514
 1537 0056 6369     		ldr	r3, [r4, #20]
 1538              	.LBB450:
 1539              	.LBB451:
ARM GAS  C:\Users\DEVELO~1\AppData\Local\Temp\ccOh4fwA.s 			page 28


 1540              		.loc 4 465 10 view .LVU515
 1541 0058 A0EB050B 		sub	fp, r0, r5
 1542              	.LBE451:
 1543              	.LBE450:
 1544              	.LBB453:
 1545              	.LBB449:
 1546              	.LBB448:
 1547              		.loc 3 113 10 view .LVU516
 1548 005c 8246     		mov	r10, r0
 1549              	.LVL113:
 1550              		.loc 3 113 10 view .LVU517
 1551              	.LBE448:
 1552              	.LBE449:
 1553              	.LBE453:
 1554              		.loc 1 548 7 is_stmt 1 view .LVU518
 1555              	.LBB454:
 1556              	.LBI450:
 1557              		.loc 4 461 29 view .LVU519
 1558              	.LBB452:
 1559              		.loc 4 465 3 view .LVU520
 1560              		.loc 4 465 3 is_stmt 0 view .LVU521
 1561              	.LBE452:
 1562              	.LBE454:
 1563              		.loc 1 552 7 is_stmt 1 view .LVU522
 1564              		.loc 1 552 10 is_stmt 0 view .LVU523
 1565 005e 5B45     		cmp	r3, fp
 1566 0060 2FD3     		bcc	.L79
 1567              		.loc 1 563 9 is_stmt 1 view .LVU524
 1568              		.loc 1 574 7 view .LVU525
 1569              	.LVL114:
 1570              	.LBB455:
 1571              	.LBI455:
 1572              		.loc 2 441 20 view .LVU526
 1573              	.LBB456:
 1574              		.loc 2 443 3 view .LVU527
 1575              		.loc 2 443 29 is_stmt 0 view .LVU528
 1576 0062 3169     		ldr	r1, [r6, #16]
 1577              	.LVL115:
 1578              		.loc 2 443 29 view .LVU529
 1579              	.LBE456:
 1580              	.LBE455:
 1581              		.loc 1 574 10 view .LVU530
 1582 0064 4145     		cmp	r1, r8
 1583 0066 3DD0     		beq	.L80
 1584              	.LVL116:
 1585              	.L64:
 1586              		.loc 1 591 7 is_stmt 1 view .LVU531
 1587              	.LBB458:
 1588              	.LBI458:
 1589              		.loc 2 536 20 view .LVU532
 1590              	.LBB459:
 1591              		.loc 2 539 3 view .LVU533
 1592              		.loc 2 543 3 view .LVU534
 1593              		.loc 2 544 3 view .LVU535
 1594              		.loc 2 544 10 view .LVU536
 1595 0068 8A68     		ldr	r2, [r1, #8]
 1596 006a 9342     		cmp	r3, r2
ARM GAS  C:\Users\DEVELO~1\AppData\Local\Temp\ccOh4fwA.s 			page 29


 1597 006c 04D9     		bls	.L65
 1598              	.LVL117:
 1599              	.L66:
 1600              		.loc 2 546 5 view .LVU537
 1601              		.loc 2 546 5 view .LVU538
 1602              		.loc 2 546 5 view .LVU539
 1603              		.loc 2 548 5 view .LVU540
 1604              		.loc 2 549 9 is_stmt 0 view .LVU541
 1605 006e 0968     		ldr	r1, [r1]
 1606              	.LVL118:
 1607              		.loc 2 548 11 view .LVU542
 1608 0070 9B1A     		subs	r3, r3, r2
 1609              	.LVL119:
 1610              		.loc 2 549 5 is_stmt 1 view .LVU543
 1611              		.loc 2 544 10 view .LVU544
 1612 0072 8A68     		ldr	r2, [r1, #8]
 1613 0074 9A42     		cmp	r2, r3
 1614 0076 FAD3     		bcc	.L66
 1615              	.L65:
 1616              		.loc 2 553 3 view .LVU545
 1617              	.LVL120:
 1618              	.LBB460:
 1619              	.LBI460:
 1620              		.loc 2 516 20 view .LVU546
 1621              	.LBB461:
 1622              		.loc 2 520 3 view .LVU547
 1623              		.loc 2 522 30 is_stmt 0 view .LVU548
 1624 0078 4A68     		ldr	r2, [r1, #4]
 1625              		.loc 2 520 19 view .LVU549
 1626 007a A360     		str	r3, [r4, #8]
 1627              		.loc 2 521 3 is_stmt 1 view .LVU550
 1628              		.loc 2 522 19 is_stmt 0 view .LVU551
 1629 007c C4E90012 		strd	r1, r2, [r4]
 1630              		.loc 2 523 3 is_stmt 1 view .LVU552
 1631              		.loc 2 523 19 is_stmt 0 view .LVU553
 1632 0080 1460     		str	r4, [r2]
 1633              		.loc 2 524 3 is_stmt 1 view .LVU554
 1634              	.LBE461:
 1635              	.LBE460:
 1636              		.loc 2 556 14 is_stmt 0 view .LVU555
 1637 0082 8A68     		ldr	r2, [r1, #8]
 1638              	.LBB463:
 1639              	.LBB462:
 1640              		.loc 2 524 19 view .LVU556
 1641 0084 4C60     		str	r4, [r1, #4]
 1642              	.LVL121:
 1643              		.loc 2 524 19 view .LVU557
 1644              	.LBE462:
 1645              	.LBE463:
 1646              		.loc 2 556 3 is_stmt 1 view .LVU558
 1647              		.loc 2 556 14 is_stmt 0 view .LVU559
 1648 0086 D21A     		subs	r2, r2, r3
 1649              		.loc 2 561 15 view .LVU560
 1650 0088 4FF0FF33 		mov	r3, #-1
 1651              	.LVL122:
 1652              		.loc 2 556 14 view .LVU561
 1653 008c 8A60     		str	r2, [r1, #8]
ARM GAS  C:\Users\DEVELO~1\AppData\Local\Temp\ccOh4fwA.s 			page 30


 1654              	.LVL123:
 1655              		.loc 2 561 3 is_stmt 1 view .LVU562
 1656              		.loc 2 561 15 is_stmt 0 view .LVU563
 1657 008e B361     		str	r3, [r6, #24]
 1658              	.LVL124:
 1659              		.loc 2 562 1 view .LVU564
 1660 0090 C9E7     		b	.L61
 1661              	.LVL125:
 1662              	.L59:
 1663              		.loc 2 562 1 view .LVU565
 1664              	.LBE459:
 1665              	.LBE458:
 1666              	.LBE444:
 1667              	.LBE468:
 1668              		.loc 1 596 3 is_stmt 1 view .LVU566
 1669              	.LBB469:
 1670              	.LBI469:
 1671              		.loc 2 441 20 view .LVU567
 1672              	.LBB470:
 1673              		.loc 2 443 3 view .LVU568
 1674              		.loc 2 443 3 is_stmt 0 view .LVU569
 1675              	.LBE470:
 1676              	.LBE469:
 1677              		.loc 1 596 6 view .LVU570
 1678 0092 3169     		ldr	r1, [r6, #16]
 1679              	.LVL126:
 1680              		.loc 1 596 6 view .LVU571
 1681 0094 4145     		cmp	r1, r8
 1682 0096 12D0     		beq	.L58
 1683              		.loc 1 602 3 is_stmt 1 view .LVU572
 1684              		.loc 1 603 20 is_stmt 0 view .LVU573
 1685 0098 1344     		add	r3, r3, r2
 1686              	.LVL127:
 1687              		.loc 1 603 20 view .LVU574
 1688 009a 0227     		movs	r7, #2
 1689              		.loc 1 602 18 view .LVU575
 1690 009c F061     		str	r0, [r6, #28]
 1691              	.LVL128:
 1692              		.loc 1 603 3 is_stmt 1 view .LVU576
 1693              		.loc 1 603 20 is_stmt 0 view .LVU577
 1694 009e 1B1A     		subs	r3, r3, r0
 1695 00a0 BB42     		cmp	r3, r7
 1696 00a2 1E46     		mov	r6, r3
 1697 00a4 A360     		str	r3, [r4, #8]
 1698 00a6 38BF     		it	cc
 1699 00a8 3E46     		movcc	r6, r7
 1700              		.loc 1 606 3 is_stmt 1 view .LVU578
 1701              	.LVL129:
 1702              	.LBB471:
 1703              	.LBI471:
 1704              		.loc 1 69 13 view .LVU579
 1705              	.LBB472:
 1706              		.loc 1 70 3 view .LVU580
 1707              		.loc 1 73 3 view .LVU581
 1708              		.loc 1 75 3 view .LVU582
 1709              	.L71:
 1710              		.loc 1 89 3 view .LVU583
ARM GAS  C:\Users\DEVELO~1\AppData\Local\Temp\ccOh4fwA.s 			page 31


 1711              	.LBB473:
 1712              		.loc 1 90 5 view .LVU584
 1713              		.loc 1 91 5 view .LVU585
 1714              		.loc 1 94 5 view .LVU586
 1715              	.LBB474:
 1716              	.LBI474:
 1717              		.loc 4 442 25 view .LVU587
 1718              	.LBB475:
 1719              		.loc 4 449 3 view .LVU588
 1720              		.loc 4 449 3 is_stmt 0 view .LVU589
 1721              	.LBE475:
 1722              	.LBE474:
 1723              	.LBB476:
 1724              	.LBI476:
 1725              		.loc 3 99 20 is_stmt 1 view .LVU590
 1726              	.LBB477:
 1727              		.loc 3 101 3 view .LVU591
 1728 00aa A819     		adds	r0, r5, r6
 1729              	.LVL130:
 1730              		.loc 3 101 3 is_stmt 0 view .LVU592
 1731 00ac FFF7FEFF 		bl	stSetAlarm
 1732              	.LVL131:
 1733              		.loc 3 101 3 view .LVU593
 1734              	.LBE477:
 1735              	.LBE476:
 1736              		.loc 1 102 5 is_stmt 1 view .LVU594
 1737              	.LBB478:
 1738              	.LBI478:
 1739              		.loc 5 122 25 view .LVU595
 1740              		.loc 5 127 3 view .LVU596
 1741              	.LBB479:
 1742              	.LBI479:
 1743              		.loc 3 111 25 view .LVU597
 1744              	.LBB480:
 1745              		.loc 3 113 3 view .LVU598
 1746              		.loc 3 113 10 is_stmt 0 view .LVU599
 1747 00b0 FFF7FEFF 		bl	stGetCounter
 1748              	.LVL132:
 1749              		.loc 3 113 10 view .LVU600
 1750              	.LBE480:
 1751              	.LBE479:
 1752              	.LBE478:
 1753              		.loc 1 103 5 is_stmt 1 view .LVU601
 1754              	.LBB481:
 1755              	.LBI481:
 1756              		.loc 4 461 29 view .LVU602
 1757              	.LBB482:
 1758              		.loc 4 465 3 view .LVU603
 1759              		.loc 4 465 3 is_stmt 0 view .LVU604
 1760              	.LBE482:
 1761              	.LBE481:
 1762              		.loc 1 104 5 is_stmt 1 view .LVU605
 1763              	.LBB484:
 1764              	.LBB483:
 1765              		.loc 4 465 10 is_stmt 0 view .LVU606
 1766 00b4 451B     		subs	r5, r0, r5
 1767              	.LVL133:
ARM GAS  C:\Users\DEVELO~1\AppData\Local\Temp\ccOh4fwA.s 			page 32


 1768              		.loc 4 465 10 view .LVU607
 1769              	.LBE483:
 1770              	.LBE484:
 1771              		.loc 1 104 8 view .LVU608
 1772 00b6 AE42     		cmp	r6, r5
 1773 00b8 10D9     		bls	.L81
 1774              		.loc 1 104 8 view .LVU609
 1775              	.LBE473:
 1776              		.loc 1 118 3 is_stmt 1 view .LVU610
 1777              		.loc 1 118 6 is_stmt 0 view .LVU611
 1778 00ba 022F     		cmp	r7, #2
 1779 00bc 09D8     		bhi	.L82
 1780              	.LVL134:
 1781              	.L58:
 1782              		.loc 1 118 6 view .LVU612
 1783              	.LBE472:
 1784              	.LBE471:
 1785              		.loc 1 608 1 view .LVU613
 1786 00be BDE8F88F 		pop	{r3, r4, r5, r6, r7, r8, r9, r10, fp, pc}
 1787              	.LVL135:
 1788              	.L79:
 1789              	.LBB489:
 1790              	.LBB465:
 1791              		.loc 1 556 9 is_stmt 1 discriminator 5 view .LVU614
 1792              		.loc 1 556 9 discriminator 5 view .LVU615
 1793              		.loc 1 556 9 discriminator 5 view .LVU616
 1794              		.loc 1 557 9 discriminator 5 view .LVU617
 1795 00c2 0220     		movs	r0, #2
 1796              	.LVL136:
 1797              		.loc 1 557 9 is_stmt 0 discriminator 5 view .LVU618
 1798 00c4 FFF7FEFF 		bl	chRFCUCollectFaultsI
 1799              	.LVL137:
 1800              		.loc 1 559 9 is_stmt 1 discriminator 5 view .LVU619
 1801              		.loc 1 574 7 discriminator 5 view .LVU620
 1802              	.LBB464:
 1803              		.loc 2 441 20 discriminator 5 view .LVU621
 1804              	.LBB457:
 1805              		.loc 2 443 3 discriminator 5 view .LVU622
 1806              		.loc 2 443 29 is_stmt 0 discriminator 5 view .LVU623
 1807 00c8 3169     		ldr	r1, [r6, #16]
 1808              	.LVL138:
 1809              		.loc 2 443 29 discriminator 5 view .LVU624
 1810              	.LBE457:
 1811              	.LBE464:
 1812              		.loc 1 574 10 discriminator 5 view .LVU625
 1813 00ca 4145     		cmp	r1, r8
 1814 00cc 12D0     		beq	.L73
 1815              		.loc 1 574 10 view .LVU626
 1816 00ce 5B46     		mov	r3, fp
 1817 00d0 CAE7     		b	.L64
 1818              	.LVL139:
 1819              	.L82:
 1820              		.loc 1 574 10 view .LVU627
 1821              	.LBE465:
 1822              	.LBE489:
 1823              	.LBB490:
 1824              	.LBB487:
ARM GAS  C:\Users\DEVELO~1\AppData\Local\Temp\ccOh4fwA.s 			page 33


 1825              		.loc 1 119 5 is_stmt 1 view .LVU628
 1826 00d2 0120     		movs	r0, #1
 1827              	.LVL140:
 1828              		.loc 1 119 5 is_stmt 0 view .LVU629
 1829              	.LBE487:
 1830              	.LBE490:
 1831              		.loc 1 608 1 view .LVU630
 1832 00d4 BDE8F84F 		pop	{r3, r4, r5, r6, r7, r8, r9, r10, fp, lr}
 1833              		.cfi_remember_state
 1834              		.cfi_restore 14
 1835              		.cfi_restore 11
 1836              		.cfi_restore 10
 1837              		.cfi_restore 9
 1838              		.cfi_restore 8
 1839              		.cfi_restore 7
 1840              		.cfi_restore 6
 1841              		.cfi_restore 5
 1842              		.cfi_restore 4
 1843              		.cfi_restore 3
 1844              		.cfi_def_cfa_offset 0
 1845              	.LVL141:
 1846              	.LBB491:
 1847              	.LBB488:
 1848              		.loc 1 119 5 view .LVU631
 1849 00d8 FFF7FEBF 		b	chRFCUCollectFaultsI
 1850              	.LVL142:
 1851              	.L81:
 1852              		.cfi_restore_state
 1853              	.LBB485:
 1854              		.loc 1 109 5 is_stmt 1 view .LVU632
 1855              		.loc 1 109 15 is_stmt 0 view .LVU633
 1856 00dc 0137     		adds	r7, r7, #1
 1857              	.LVL143:
 1858              		.loc 1 112 5 is_stmt 1 view .LVU634
 1859              		.loc 1 113 5 view .LVU635
 1860              		.loc 1 113 5 is_stmt 0 view .LVU636
 1861              	.LBE485:
 1862              		.loc 1 89 9 is_stmt 1 view .LVU637
 1863              	.LBB486:
 1864              		.loc 1 112 9 is_stmt 0 view .LVU638
 1865 00de 0546     		mov	r5, r0
 1866              	.LVL144:
 1867              		.loc 1 109 15 view .LVU639
 1868 00e0 3E46     		mov	r6, r7
 1869              	.LBE486:
 1870              		.loc 1 89 16 view .LVU640
 1871 00e2 E2E7     		b	.L71
 1872              	.LVL145:
 1873              	.L80:
 1874              		.loc 1 89 16 view .LVU641
 1875              	.LBE488:
 1876              	.LBE491:
 1877              	.LBB492:
 1878              	.LBB466:
 1879              		.loc 1 563 15 view .LVU642
 1880 00e4 2B44     		add	r3, r3, r5
 1881 00e6 1A1A     		subs	r2, r3, r0
ARM GAS  C:\Users\DEVELO~1\AppData\Local\Temp\ccOh4fwA.s 			page 34


 1882              	.LVL146:
 1883              	.L63:
 1884              		.loc 1 576 9 is_stmt 1 view .LVU643
 1885 00e8 5146     		mov	r1, r10
 1886 00ea 2046     		mov	r0, r4
 1887              	.LBE466:
 1888              	.LBE492:
 1889              		.loc 1 608 1 is_stmt 0 view .LVU644
 1890 00ec BDE8F84F 		pop	{r3, r4, r5, r6, r7, r8, r9, r10, fp, lr}
 1891              		.cfi_remember_state
 1892              		.cfi_restore 14
 1893              		.cfi_restore 11
 1894              		.cfi_restore 10
 1895              		.cfi_restore 9
 1896              		.cfi_restore 8
 1897              		.cfi_restore 7
 1898              		.cfi_restore 6
 1899              		.cfi_restore 5
 1900              		.cfi_restore 4
 1901              		.cfi_restore 3
 1902              		.cfi_def_cfa_offset 0
 1903              	.LVL147:
 1904              	.LBB493:
 1905              	.LBB467:
 1906              		.loc 1 576 9 view .LVU645
 1907 00f0 FFF7FEBF 		b	vt_insert_first.constprop.0
 1908              	.LVL148:
 1909              	.L73:
 1910              		.cfi_restore_state
 1911              		.loc 1 559 15 view .LVU646
 1912 00f4 0022     		movs	r2, #0
 1913 00f6 F7E7     		b	.L63
 1914              	.L84:
 1915              		.align	2
 1916              	.L83:
 1917 00f8 00000000 		.word	ch0
 1918              	.LBE467:
 1919              	.LBE493:
 1920              		.cfi_endproc
 1921              	.LFE353:
 1922              		.size	chVTDoTickI, .-chVTDoTickI
 1923              		.section	.text.chVTGetTimeStampI,"ax",%progbits
 1924              		.align	1
 1925              		.p2align 4,,15
 1926              		.global	chVTGetTimeStampI
 1927              		.syntax unified
 1928              		.thumb
 1929              		.thumb_func
 1930              		.type	chVTGetTimeStampI, %function
 1931              	chVTGetTimeStampI:
 1932              	.LFB354:
 1933              		.loc 1 626 40 is_stmt 1 view -0
 1934              		.cfi_startproc
 1935              		@ args = 0, pretend = 0, frame = 0
 1936              		@ frame_needed = 0, uses_anonymous_args = 0
 1937              		.loc 1 627 3 view .LVU648
 1938              	.LVL149:
ARM GAS  C:\Users\DEVELO~1\AppData\Local\Temp\ccOh4fwA.s 			page 35


 1939              		.loc 1 628 3 view .LVU649
 1940              		.loc 1 629 3 view .LVU650
 1941              		.loc 1 631 21 view .LVU651
 1942              		.loc 1 634 3 view .LVU652
 1943              	.LBB494:
 1944              	.LBI494:
 1945              		.loc 5 122 25 view .LVU653
 1946              		.loc 5 127 3 view .LVU654
 1947              	.LBB495:
 1948              	.LBI495:
 1949              		.loc 3 111 25 view .LVU655
 1950              	.LBB496:
 1951              		.loc 3 113 3 view .LVU656
 1952              	.LBE496:
 1953              	.LBE495:
 1954              	.LBE494:
 1955              		.loc 1 626 40 is_stmt 0 view .LVU657
 1956 0000 38B5     		push	{r3, r4, r5, lr}
 1957              		.cfi_def_cfa_offset 16
 1958              		.cfi_offset 3, -16
 1959              		.cfi_offset 4, -12
 1960              		.cfi_offset 5, -8
 1961              		.cfi_offset 14, -4
 1962              	.LBB499:
 1963              	.LBB498:
 1964              	.LBB497:
 1965              		.loc 3 113 10 view .LVU658
 1966 0002 FFF7FEFF 		bl	stGetCounter
 1967              	.LVL150:
 1968              		.loc 3 113 10 view .LVU659
 1969              	.LBE497:
 1970              	.LBE498:
 1971              	.LBE499:
 1972              		.loc 1 637 3 is_stmt 1 view .LVU660
 1973              		.loc 1 637 8 is_stmt 0 view .LVU661
 1974 0006 054A     		ldr	r2, .L87
 1975 0008 D2E90845 		ldrd	r4, [r2, #32]
 1976              	.LVL151:
 1977              		.loc 1 642 3 is_stmt 1 view .LVU662
 1978              	.LBB500:
 1979              	.LBI500:
 1980              		.loc 4 461 29 view .LVU663
 1981              	.LBB501:
 1982              		.loc 4 465 3 view .LVU664
 1983              		.loc 4 465 10 is_stmt 0 view .LVU665
 1984 000c 031B     		subs	r3, r0, r4
 1985              	.LBE501:
 1986              	.LBE500:
 1987              		.loc 1 642 9 view .LVU666
 1988 000e 1819     		adds	r0, r3, r4
 1989              	.LVL152:
 1990              		.loc 1 642 9 view .LVU667
 1991 0010 45F10001 		adc	r1, r5, #0
 1992              	.LVL153:
 1993              		.loc 1 644 3 is_stmt 1 view .LVU668
 1994              		.loc 1 644 3 view .LVU669
 1995              		.loc 1 644 3 view .LVU670
ARM GAS  C:\Users\DEVELO~1\AppData\Local\Temp\ccOh4fwA.s 			page 36


 1996              		.loc 1 647 3 view .LVU671
 1997              		.loc 1 647 25 is_stmt 0 view .LVU672
 1998 0014 C2E90801 		strd	r0, [r2, #32]
 1999              		.loc 1 649 3 is_stmt 1 view .LVU673
 2000              		.loc 1 650 1 is_stmt 0 view .LVU674
 2001 0018 38BD     		pop	{r3, r4, r5, pc}
 2002              	.LVL154:
 2003              	.L88:
 2004              		.loc 1 650 1 view .LVU675
 2005 001a 00BF     		.align	2
 2006              	.L87:
 2007 001c 00000000 		.word	ch0
 2008              		.cfi_endproc
 2009              	.LFE354:
 2010              		.size	chVTGetTimeStampI, .-chVTGetTimeStampI
 2011              		.section	.text.chVTResetTimeStampI,"ax",%progbits
 2012              		.align	1
 2013              		.p2align 4,,15
 2014              		.global	chVTResetTimeStampI
 2015              		.syntax unified
 2016              		.thumb
 2017              		.thumb_func
 2018              		.type	chVTResetTimeStampI, %function
 2019              	chVTResetTimeStampI:
 2020              	.LFB355:
 2021              		.loc 1 657 32 is_stmt 1 view -0
 2022              		.cfi_startproc
 2023              		@ args = 0, pretend = 0, frame = 0
 2024              		@ frame_needed = 0, uses_anonymous_args = 0
 2025              		.loc 1 659 21 view .LVU677
 2026              		.loc 1 661 3 view .LVU678
 2027              	.LBB502:
 2028              	.LBI502:
 2029              		.loc 5 122 25 view .LVU679
 2030              		.loc 5 127 3 view .LVU680
 2031              	.LBB503:
 2032              	.LBI503:
 2033              		.loc 3 111 25 view .LVU681
 2034              	.LBB504:
 2035              		.loc 3 113 3 view .LVU682
 2036              	.LBE504:
 2037              	.LBE503:
 2038              	.LBE502:
 2039              		.loc 1 657 32 is_stmt 0 view .LVU683
 2040 0000 08B5     		push	{r3, lr}
 2041              		.cfi_def_cfa_offset 8
 2042              		.cfi_offset 3, -8
 2043              		.cfi_offset 14, -4
 2044              	.LBB507:
 2045              	.LBB506:
 2046              	.LBB505:
 2047              		.loc 3 113 10 view .LVU684
 2048 0002 FFF7FEFF 		bl	stGetCounter
 2049              	.LVL155:
 2050              	.LBE505:
 2051              	.LBE506:
 2052              	.LBE507:
ARM GAS  C:\Users\DEVELO~1\AppData\Local\Temp\ccOh4fwA.s 			page 37


 2053              		.loc 1 661 30 view .LVU685
 2054 0006 0349     		ldr	r1, .L91
 2055              		.loc 1 661 32 view .LVU686
 2056 0008 0246     		mov	r2, r0
 2057 000a 0023     		movs	r3, #0
 2058              		.loc 1 661 30 view .LVU687
 2059 000c C1E90823 		strd	r2, [r1, #32]
 2060              		.loc 1 662 1 view .LVU688
 2061 0010 08BD     		pop	{r3, pc}
 2062              	.L92:
 2063 0012 00BF     		.align	2
 2064              	.L91:
 2065 0014 00000000 		.word	ch0
 2066              		.cfi_endproc
 2067              	.LFE355:
 2068              		.size	chVTResetTimeStampI, .-chVTResetTimeStampI
 2069              		.text
 2070              	.Letext0:
 2071              		.file 9 "c:\\chibistudio\\tools\\gnu tools arm embedded\\11.3 2022.08\\arm-none-eabi\\include\\mac
 2072              		.file 10 "c:\\chibistudio\\tools\\gnu tools arm embedded\\11.3 2022.08\\arm-none-eabi\\include\\sy
 2073              		.file 11 "../../../os/common/ports/ARM-common/chtypes.h"
 2074              		.file 12 "../../../os/rt/include/chearly.h"
 2075              		.file 13 "../../../os/rt/include/chobjects.h"
 2076              		.file 14 "../../../os/rt/include/chrfcu.h"
 2077              		.file 15 "../../../os/rt/include/chdebug.h"
 2078              		.file 16 "../../../os/rt/include/chtrace.h"
 2079              		.file 17 "../../../os/rt/include/chsem.h"
 2080              		.file 18 "../../../os/rt/include/chmtx.h"