ARM GAS  C:\Users\DEVELO~1\AppData\Local\Temp\ccsYaDzo.s 			page 1


   1              		.cpu cortex-m7
   2              		.arch armv7e-m
   3              		.fpu softvfp
   4              		.eabi_attribute 20, 1
   5              		.eabi_attribute 21, 1
   6              		.eabi_attribute 23, 3
   7              		.eabi_attribute 24, 1
   8              		.eabi_attribute 25, 1
   9              		.eabi_attribute 26, 1
  10              		.eabi_attribute 30, 2
  11              		.eabi_attribute 34, 1
  12              		.eabi_attribute 18, 4
  13              		.file	"drv_encoders.c"
  14              		.text
  15              	.Ltext0:
  16              		.cfi_sections	.debug_frame
  17              		.section	.text.drv_encoders_start,"ax",%progbits
  18              		.align	1
  19              		.p2align 4,,15
  20              		.global	drv_encoders_start
  21              		.syntax unified
  22              		.thumb
  23              		.thumb_func
  24              		.type	drv_encoders_start, %function
  25              	drv_encoders_start:
  26              	.LFB435:
  27              		.file 1 "drivers/drv_encoders.c"
  28              		.loc 1 74 31 view -0
  29              		.cfi_startproc
  30              		@ args = 0, pretend = 0, frame = 0
  31              		@ frame_needed = 0, uses_anonymous_args = 0
  32              		@ link register save eliminated.
  33              		.loc 1 76 5 view .LVU1
  34              		.loc 1 76 9 is_stmt 0 view .LVU2
  35 0000 4448     		ldr	r0, .L9
  36              		.loc 1 76 8 view .LVU3
  37 0002 0378     		ldrb	r3, [r0]	@ zero_extendqisi2
  38 0004 03B1     		cbz	r3, .L8
  39 0006 7047     		bx	lr
  40              	.L8:
  41              		.loc 1 79 5 is_stmt 1 view .LVU4
  42              	.LBB48:
  43              	.LBI48:
  44              		.loc 1 33 13 view .LVU5
  45              		.loc 1 34 5 view .LVU6
  46              	.LVL0:
  47              	.LBB49:
  48              	.LBI49:
  49              		.file 2 "../../../os/hal/ports/STM32/STM32H7xx/stm32_rcc.h"
  50              		.loc 2 141 22 view .LVU7
  51              	.LBB50:
  52              		.loc 2 145 3 view .LVU8
  53              		.loc 2 145 20 is_stmt 0 view .LVU9
  54 0008 434A     		ldr	r2, .L9+4
  55              	.LBE50:
  56              	.LBE49:
  57              	.LBE48:
ARM GAS  C:\Users\DEVELO~1\AppData\Local\Temp\ccsYaDzo.s 			page 2


  58              	.LBB63:
  59              	.LBB64:
  60              		.loc 1 47 14 view .LVU10
  61 000a 4449     		ldr	r1, .L9+8
  62              	.LBE64:
  63              	.LBE63:
  64              		.loc 1 74 31 view .LVU11
  65 000c 70B4     		push	{r4, r5, r6}
  66              		.cfi_def_cfa_offset 12
  67              		.cfi_offset 4, -12
  68              		.cfi_offset 5, -8
  69              		.cfi_offset 6, -4
  70              	.LBB68:
  71              	.LBB53:
  72              	.LBB51:
  73              		.loc 2 145 20 view .LVU12
  74 000e D2F8E840 		ldr	r4, [r2, #232]
  75              	.LBE51:
  76              	.LBE53:
  77              	.LBE68:
  78              	.LBB69:
  79              	.LBB65:
  80              		.loc 1 50 14 view .LVU13
  81 0012 4FF6FF76 		movw	r6, #65535
  82              		.loc 1 53 16 view .LVU14
  83 0016 40F20115 		movw	r5, #257
  84              	.LBE65:
  85              	.LBE69:
  86              	.LBB70:
  87              	.LBB54:
  88              	.LBB52:
  89              		.loc 2 145 20 view .LVU15
  90 001a 44F00104 		orr	r4, r4, #1
  91 001e C2F8E840 		str	r4, [r2, #232]
  92              		.loc 2 146 3 is_stmt 1 view .LVU16
  93              		.loc 2 147 5 view .LVU17
  94              		.loc 2 147 24 is_stmt 0 view .LVU18
  95 0022 D2F81041 		ldr	r4, [r2, #272]
  96 0026 44F00104 		orr	r4, r4, #1
  97 002a C2F81041 		str	r4, [r2, #272]
  98              		.loc 2 152 3 is_stmt 1 view .LVU19
  99 002e D2F81041 		ldr	r4, [r2, #272]
 100              	.LVL1:
 101              		.loc 2 152 3 is_stmt 0 view .LVU20
 102              	.LBE52:
 103              	.LBE54:
 104              		.loc 1 35 5 is_stmt 1 view .LVU21
 105              	.LBB55:
 106              	.LBI55:
 107              		.loc 2 141 22 view .LVU22
 108              	.LBB56:
 109              		.loc 2 145 3 view .LVU23
 110              		.loc 2 145 20 is_stmt 0 view .LVU24
 111 0032 D2F8E840 		ldr	r4, [r2, #232]
 112 0036 44F00204 		orr	r4, r4, #2
 113 003a C2F8E840 		str	r4, [r2, #232]
 114              		.loc 2 146 3 is_stmt 1 view .LVU25
ARM GAS  C:\Users\DEVELO~1\AppData\Local\Temp\ccsYaDzo.s 			page 3


 115              		.loc 2 147 5 view .LVU26
 116              		.loc 2 147 24 is_stmt 0 view .LVU27
 117 003e D2F81041 		ldr	r4, [r2, #272]
 118 0042 44F00204 		orr	r4, r4, #2
 119 0046 C2F81041 		str	r4, [r2, #272]
 120              		.loc 2 152 3 is_stmt 1 view .LVU28
 121 004a D2F81041 		ldr	r4, [r2, #272]
 122              	.LVL2:
 123              		.loc 2 152 3 is_stmt 0 view .LVU29
 124              	.LBE56:
 125              	.LBE55:
 126              		.loc 1 36 5 is_stmt 1 view .LVU30
 127              	.LBB57:
 128              	.LBI57:
 129              		.loc 2 141 22 view .LVU31
 130              	.LBB58:
 131              		.loc 2 145 3 view .LVU32
 132              		.loc 2 145 20 is_stmt 0 view .LVU33
 133 004e D2F8E840 		ldr	r4, [r2, #232]
 134 0052 44F00404 		orr	r4, r4, #4
 135 0056 C2F8E840 		str	r4, [r2, #232]
 136              		.loc 2 146 3 is_stmt 1 view .LVU34
 137              		.loc 2 147 5 view .LVU35
 138              		.loc 2 147 24 is_stmt 0 view .LVU36
 139 005a D2F81041 		ldr	r4, [r2, #272]
 140 005e 44F00404 		orr	r4, r4, #4
 141 0062 C2F81041 		str	r4, [r2, #272]
 142              		.loc 2 152 3 is_stmt 1 view .LVU37
 143 0066 D2F81041 		ldr	r4, [r2, #272]
 144              	.LVL3:
 145              		.loc 2 152 3 is_stmt 0 view .LVU38
 146              	.LBE58:
 147              	.LBE57:
 148              		.loc 1 37 5 is_stmt 1 view .LVU39
 149              	.LBB59:
 150              	.LBI59:
 151              		.loc 2 141 22 view .LVU40
 152              	.LBB60:
 153              		.loc 2 145 3 view .LVU41
 154              		.loc 2 145 20 is_stmt 0 view .LVU42
 155 006a D2F8E840 		ldr	r4, [r2, #232]
 156 006e 44F00804 		orr	r4, r4, #8
 157 0072 C2F8E840 		str	r4, [r2, #232]
 158              		.loc 2 146 3 is_stmt 1 view .LVU43
 159              		.loc 2 147 5 view .LVU44
 160              		.loc 2 147 24 is_stmt 0 view .LVU45
 161 0076 D2F81041 		ldr	r4, [r2, #272]
 162 007a 44F00804 		orr	r4, r4, #8
 163 007e C2F81041 		str	r4, [r2, #272]
 164              		.loc 2 152 3 is_stmt 1 view .LVU46
 165              	.LBE60:
 166              	.LBE59:
 167              	.LBE70:
 168              	.LBB71:
 169              	.LBB66:
 170              		.loc 1 61 15 is_stmt 0 view .LVU47
 171 0082 0324     		movs	r4, #3
ARM GAS  C:\Users\DEVELO~1\AppData\Local\Temp\ccsYaDzo.s 			page 4


 172              	.LBE66:
 173              	.LBE71:
 174              	.LBB72:
 175              	.LBB62:
 176              	.LBB61:
 177              		.loc 2 152 3 view .LVU48
 178 0084 D2F81021 		ldr	r2, [r2, #272]
 179              	.LVL4:
 180              		.loc 2 152 3 view .LVU49
 181              	.LBE61:
 182              	.LBE62:
 183              	.LBE72:
 184              		.loc 1 81 5 is_stmt 1 view .LVU50
 185              	.LBB73:
 186              	.LBI63:
 187              		.loc 1 44 13 view .LVU51
 188              	.LBB67:
 189              		.loc 1 47 5 view .LVU52
 190              		.loc 1 47 14 is_stmt 0 view .LVU53
 191 0088 0B60     		str	r3, [r1]
 192              		.loc 1 48 5 is_stmt 1 view .LVU54
 193              		.loc 1 48 14 is_stmt 0 view .LVU55
 194 008a 4B62     		str	r3, [r1, #36]
 195              		.loc 1 49 5 is_stmt 1 view .LVU56
 196              		.loc 1 49 14 is_stmt 0 view .LVU57
 197 008c 8B62     		str	r3, [r1, #40]
 198              		.loc 1 50 5 is_stmt 1 view .LVU58
 199              		.loc 1 50 14 is_stmt 0 view .LVU59
 200 008e CE62     		str	r6, [r1, #44]
 201              		.loc 1 53 5 is_stmt 1 view .LVU60
 202              		.loc 1 53 16 is_stmt 0 view .LVU61
 203 0090 8D61     		str	r5, [r1, #24]
 204              		.loc 1 58 5 is_stmt 1 view .LVU62
 205              		.loc 1 58 15 is_stmt 0 view .LVU63
 206 0092 0B62     		str	r3, [r1, #32]
 207              		.loc 1 61 5 is_stmt 1 view .LVU64
 208              		.loc 1 61 15 is_stmt 0 view .LVU65
 209 0094 8C60     		str	r4, [r1, #8]
 210              		.loc 1 64 5 is_stmt 1 view .LVU66
 211              		.loc 1 64 13 is_stmt 0 view .LVU67
 212 0096 0B61     		str	r3, [r1, #16]
 213              		.loc 1 67 5 is_stmt 1 view .LVU68
 214              		.loc 1 67 14 is_stmt 0 view .LVU69
 215 0098 0A68     		ldr	r2, [r1]
 216 009a 42F00102 		orr	r2, r2, #1
 217 009e 0A60     		str	r2, [r1]
 218              	.LVL5:
 219              		.loc 1 67 14 view .LVU70
 220              	.LBE67:
 221              	.LBE73:
 222              		.loc 1 82 5 is_stmt 1 view .LVU71
 223              	.LBB74:
 224              	.LBI74:
 225              		.loc 1 44 13 view .LVU72
 226              	.LBB75:
 227              		.loc 1 47 5 view .LVU73
 228              		.loc 1 47 14 is_stmt 0 view .LVU74
ARM GAS  C:\Users\DEVELO~1\AppData\Local\Temp\ccsYaDzo.s 			page 5


 229 00a0 4FF08042 		mov	r2, #1073741824
 230 00a4 1360     		str	r3, [r2]
 231              		.loc 1 48 5 is_stmt 1 view .LVU75
 232              		.loc 1 48 14 is_stmt 0 view .LVU76
 233 00a6 5362     		str	r3, [r2, #36]
 234              		.loc 1 49 5 is_stmt 1 view .LVU77
 235              		.loc 1 49 14 is_stmt 0 view .LVU78
 236 00a8 9362     		str	r3, [r2, #40]
 237              		.loc 1 50 5 is_stmt 1 view .LVU79
 238              		.loc 1 50 14 is_stmt 0 view .LVU80
 239 00aa D662     		str	r6, [r2, #44]
 240              		.loc 1 53 5 is_stmt 1 view .LVU81
 241              		.loc 1 53 16 is_stmt 0 view .LVU82
 242 00ac 9561     		str	r5, [r2, #24]
 243              		.loc 1 58 5 is_stmt 1 view .LVU83
 244              		.loc 1 58 15 is_stmt 0 view .LVU84
 245 00ae 1362     		str	r3, [r2, #32]
 246              		.loc 1 61 5 is_stmt 1 view .LVU85
 247              		.loc 1 61 15 is_stmt 0 view .LVU86
 248 00b0 9460     		str	r4, [r2, #8]
 249              		.loc 1 64 5 is_stmt 1 view .LVU87
 250              		.loc 1 64 13 is_stmt 0 view .LVU88
 251 00b2 1361     		str	r3, [r2, #16]
 252              		.loc 1 67 5 is_stmt 1 view .LVU89
 253              		.loc 1 67 14 is_stmt 0 view .LVU90
 254 00b4 1168     		ldr	r1, [r2]
 255 00b6 41F00101 		orr	r1, r1, #1
 256 00ba 1160     		str	r1, [r2]
 257              	.LVL6:
 258              		.loc 1 67 14 view .LVU91
 259              	.LBE75:
 260              	.LBE74:
 261              		.loc 1 83 5 is_stmt 1 view .LVU92
 262              	.LBB76:
 263              	.LBI76:
 264              		.loc 1 44 13 view .LVU93
 265              	.LBB77:
 266              		.loc 1 47 5 view .LVU94
 267              	.LBE77:
 268              	.LBE76:
 269              	.LBB79:
 270              	.LBB80:
 271              		.loc 1 47 14 is_stmt 0 view .LVU95
 272 00bc 02F50062 		add	r2, r2, #2048
 273              	.LBE80:
 274              	.LBE79:
 275              	.LBB84:
 276              	.LBB78:
 277 00c0 C2F80034 		str	r3, [r2, #1024]
 278              		.loc 1 48 5 is_stmt 1 view .LVU96
 279              		.loc 1 48 14 is_stmt 0 view .LVU97
 280 00c4 C2F82434 		str	r3, [r2, #1060]
 281              		.loc 1 49 5 is_stmt 1 view .LVU98
 282              		.loc 1 49 14 is_stmt 0 view .LVU99
 283 00c8 C2F82834 		str	r3, [r2, #1064]
 284              		.loc 1 50 5 is_stmt 1 view .LVU100
 285              		.loc 1 50 14 is_stmt 0 view .LVU101
ARM GAS  C:\Users\DEVELO~1\AppData\Local\Temp\ccsYaDzo.s 			page 6


 286 00cc C2F82C64 		str	r6, [r2, #1068]
 287              		.loc 1 53 5 is_stmt 1 view .LVU102
 288              		.loc 1 53 16 is_stmt 0 view .LVU103
 289 00d0 C2F81854 		str	r5, [r2, #1048]
 290              		.loc 1 58 5 is_stmt 1 view .LVU104
 291              		.loc 1 58 15 is_stmt 0 view .LVU105
 292 00d4 C2F82034 		str	r3, [r2, #1056]
 293              		.loc 1 61 5 is_stmt 1 view .LVU106
 294              		.loc 1 61 15 is_stmt 0 view .LVU107
 295 00d8 C2F80844 		str	r4, [r2, #1032]
 296              		.loc 1 64 5 is_stmt 1 view .LVU108
 297              		.loc 1 64 13 is_stmt 0 view .LVU109
 298 00dc C2F81034 		str	r3, [r2, #1040]
 299              		.loc 1 67 5 is_stmt 1 view .LVU110
 300              		.loc 1 67 14 is_stmt 0 view .LVU111
 301 00e0 D2F80014 		ldr	r1, [r2, #1024]
 302 00e4 41F00101 		orr	r1, r1, #1
 303 00e8 C2F80014 		str	r1, [r2, #1024]
 304              	.LVL7:
 305              		.loc 1 67 14 view .LVU112
 306              	.LBE78:
 307              	.LBE84:
 308              		.loc 1 84 5 is_stmt 1 view .LVU113
 309              	.LBB85:
 310              	.LBI79:
 311              		.loc 1 44 13 view .LVU114
 312              	.LBB81:
 313              		.loc 1 47 5 view .LVU115
 314              		.loc 1 47 14 is_stmt 0 view .LVU116
 315 00ec 1360     		str	r3, [r2]
 316              		.loc 1 48 5 is_stmt 1 view .LVU117
 317              		.loc 1 48 14 is_stmt 0 view .LVU118
 318 00ee 5362     		str	r3, [r2, #36]
 319              		.loc 1 49 5 is_stmt 1 view .LVU119
 320              		.loc 1 49 14 is_stmt 0 view .LVU120
 321 00f0 9362     		str	r3, [r2, #40]
 322              		.loc 1 50 5 is_stmt 1 view .LVU121
 323              		.loc 1 50 14 is_stmt 0 view .LVU122
 324 00f2 D662     		str	r6, [r2, #44]
 325              		.loc 1 53 5 is_stmt 1 view .LVU123
 326              		.loc 1 53 16 is_stmt 0 view .LVU124
 327 00f4 9561     		str	r5, [r2, #24]
 328              		.loc 1 58 5 is_stmt 1 view .LVU125
 329              		.loc 1 58 15 is_stmt 0 view .LVU126
 330 00f6 1362     		str	r3, [r2, #32]
 331              		.loc 1 61 5 is_stmt 1 view .LVU127
 332              		.loc 1 61 15 is_stmt 0 view .LVU128
 333 00f8 9460     		str	r4, [r2, #8]
 334              		.loc 1 64 5 is_stmt 1 view .LVU129
 335              		.loc 1 64 13 is_stmt 0 view .LVU130
 336 00fa 1361     		str	r3, [r2, #16]
 337              		.loc 1 67 5 is_stmt 1 view .LVU131
 338              		.loc 1 67 14 is_stmt 0 view .LVU132
 339 00fc 1168     		ldr	r1, [r2]
 340              	.LBE81:
 341              	.LBE85:
 342              	.LBB86:
ARM GAS  C:\Users\DEVELO~1\AppData\Local\Temp\ccsYaDzo.s 			page 7


 343              		.loc 1 87 21 view .LVU133
 344 00fe 084C     		ldr	r4, .L9+12
 345              	.LBE86:
 346              	.LBB87:
 347              	.LBB82:
 348              		.loc 1 67 14 view .LVU134
 349 0100 41F00101 		orr	r1, r1, #1
 350              	.LBE82:
 351              	.LBE87:
 352              	.LBB88:
 353              		.loc 1 87 21 view .LVU135
 354 0104 6360     		str	r3, [r4, #4]
 355              	.LBE88:
 356              	.LBB89:
 357              	.LBB83:
 358              		.loc 1 67 14 view .LVU136
 359 0106 1160     		str	r1, [r2]
 360              	.LVL8:
 361              		.loc 1 67 14 view .LVU137
 362              	.LBE83:
 363              	.LBE89:
 364              		.loc 1 86 5 is_stmt 1 view .LVU138
 365              	.LBB90:
 366              		.loc 1 86 10 view .LVU139
 367              		.loc 1 86 23 view .LVU140
 368              		.loc 1 87 9 view .LVU141
 369              		.loc 1 86 41 view .LVU142
 370              		.loc 1 86 23 view .LVU143
 371              		.loc 1 87 9 view .LVU144
 372              		.loc 1 86 41 view .LVU145
 373              		.loc 1 86 23 view .LVU146
 374              		.loc 1 87 9 view .LVU147
 375              		.loc 1 86 41 view .LVU148
 376              		.loc 1 86 23 view .LVU149
 377              		.loc 1 87 9 view .LVU150
 378              		.loc 1 86 41 view .LVU151
 379              		.loc 1 86 23 view .LVU152
 380              	.LBE90:
 381              		.loc 1 89 5 view .LVU153
 382              		.loc 1 89 22 is_stmt 0 view .LVU154
 383 0108 0122     		movs	r2, #1
 384              	.LBB91:
 385              		.loc 1 87 21 view .LVU155
 386 010a 2360     		str	r3, [r4]
 387              	.LBE91:
 388              		.loc 1 89 22 view .LVU156
 389 010c 0270     		strb	r2, [r0]
 390              		.loc 1 90 1 view .LVU157
 391 010e 70BC     		pop	{r4, r5, r6}
 392              		.cfi_restore 6
 393              		.cfi_restore 5
 394              		.cfi_restore 4
 395              		.cfi_def_cfa_offset 0
 396 0110 7047     		bx	lr
 397              	.L10:
 398 0112 00BF     		.align	2
 399              	.L9:
ARM GAS  C:\Users\DEVELO~1\AppData\Local\Temp\ccsYaDzo.s 			page 8


 400 0114 00000000 		.word	.LANCHOR0
 401 0118 00440258 		.word	1476543488
 402 011c 00040040 		.word	1073742848
 403 0120 00000000 		.word	.LANCHOR1
 404              		.cfi_endproc
 405              	.LFE435:
 406              		.size	drv_encoders_start, .-drv_encoders_start
 407              		.section	.text.drv_encoder_get,"ax",%progbits
 408              		.align	1
 409              		.p2align 4,,15
 410              		.global	drv_encoder_get
 411              		.syntax unified
 412              		.thumb
 413              		.thumb_func
 414              		.type	drv_encoder_get, %function
 415              	drv_encoder_get:
 416              	.LVL9:
 417              	.LFB436:
 418              		.loc 1 92 42 is_stmt 1 view -0
 419              		.cfi_startproc
 420              		@ args = 0, pretend = 0, frame = 0
 421              		@ frame_needed = 0, uses_anonymous_args = 0
 422              		@ link register save eliminated.
 423              		.loc 1 93 5 view .LVU159
 424              		.loc 1 93 8 is_stmt 0 view .LVU160
 425 0000 0328     		cmp	r0, #3
 426 0002 05D8     		bhi	.L13
 427              		.loc 1 96 5 is_stmt 1 view .LVU161
 428              		.loc 1 96 27 is_stmt 0 view .LVU162
 429 0004 034B     		ldr	r3, .L14
 430 0006 53F82030 		ldr	r3, [r3, r0, lsl #2]
 431              		.loc 1 96 31 view .LVU163
 432 000a 586A     		ldr	r0, [r3, #36]
 433              	.LVL10:
 434              		.loc 1 96 12 view .LVU164
 435 000c 00B2     		sxth	r0, r0
 436 000e 7047     		bx	lr
 437              	.LVL11:
 438              	.L13:
 439              		.loc 1 94 16 view .LVU165
 440 0010 0020     		movs	r0, #0
 441              	.LVL12:
 442              		.loc 1 97 1 view .LVU166
 443 0012 7047     		bx	lr
 444              	.L15:
 445              		.align	2
 446              	.L14:
 447 0014 00000000 		.word	.LANCHOR2
 448              		.cfi_endproc
 449              	.LFE436:
 450              		.size	drv_encoder_get, .-drv_encoder_get
 451              		.section	.text.drv_encoder_reset,"ax",%progbits
 452              		.align	1
 453              		.p2align 4,,15
 454              		.global	drv_encoder_reset
 455              		.syntax unified
 456              		.thumb
ARM GAS  C:\Users\DEVELO~1\AppData\Local\Temp\ccsYaDzo.s 			page 9


 457              		.thumb_func
 458              		.type	drv_encoder_reset, %function
 459              	drv_encoder_reset:
 460              	.LVL13:
 461              	.LFB437:
 462              		.loc 1 99 41 is_stmt 1 view -0
 463              		.cfi_startproc
 464              		@ args = 0, pretend = 0, frame = 0
 465              		@ frame_needed = 0, uses_anonymous_args = 0
 466              		@ link register save eliminated.
 467              		.loc 1 100 5 view .LVU168
 468              		.loc 1 100 8 is_stmt 0 view .LVU169
 469 0000 0328     		cmp	r0, #3
 470 0002 07D8     		bhi	.L16
 471              		.loc 1 103 5 is_stmt 1 view .LVU170
 472              		.loc 1 103 11 is_stmt 0 view .LVU171
 473 0004 044A     		ldr	r2, .L18
 474              		.loc 1 103 21 view .LVU172
 475 0006 0023     		movs	r3, #0
 476              		.loc 1 104 18 view .LVU173
 477 0008 0449     		ldr	r1, .L18+4
 478              		.loc 1 103 11 view .LVU174
 479 000a 52F82020 		ldr	r2, [r2, r0, lsl #2]
 480              		.loc 1 104 18 view .LVU175
 481 000e 21F81030 		strh	r3, [r1, r0, lsl #1]	@ movhi
 482              		.loc 1 103 21 view .LVU176
 483 0012 5362     		str	r3, [r2, #36]
 484              		.loc 1 104 5 is_stmt 1 view .LVU177
 485              	.L16:
 486              		.loc 1 105 1 is_stmt 0 view .LVU178
 487 0014 7047     		bx	lr
 488              	.L19:
 489 0016 00BF     		.align	2
 490              	.L18:
 491 0018 00000000 		.word	.LANCHOR2
 492 001c 00000000 		.word	.LANCHOR1
 493              		.cfi_endproc
 494              	.LFE437:
 495              		.size	drv_encoder_reset, .-drv_encoder_reset
 496              		.section	.text.drv_encoder_get_delta,"ax",%progbits
 497              		.align	1
 498              		.p2align 4,,15
 499              		.global	drv_encoder_get_delta
 500              		.syntax unified
 501              		.thumb
 502              		.thumb_func
 503              		.type	drv_encoder_get_delta, %function
 504              	drv_encoder_get_delta:
 505              	.LVL14:
 506              	.LFB438:
 507              		.loc 1 107 48 is_stmt 1 view -0
 508              		.cfi_startproc
 509              		@ args = 0, pretend = 0, frame = 0
 510              		@ frame_needed = 0, uses_anonymous_args = 0
 511              		@ link register save eliminated.
 512              		.loc 1 108 5 view .LVU180
 513              		.loc 1 108 8 is_stmt 0 view .LVU181
ARM GAS  C:\Users\DEVELO~1\AppData\Local\Temp\ccsYaDzo.s 			page 10


 514 0000 0328     		cmp	r0, #3
 515 0002 0BD8     		bhi	.L22
 516              	.LVL15:
 517              	.LBB96:
 518              	.LBI96:
 519              		.loc 1 107 9 is_stmt 1 view .LVU182
 520              	.LBB97:
 521              		.loc 1 111 5 view .LVU183
 522              		.loc 1 111 36 is_stmt 0 view .LVU184
 523 0004 064B     		ldr	r3, .L23
 524              		.loc 1 112 35 view .LVU185
 525 0006 074A     		ldr	r2, .L23+4
 526              		.loc 1 111 36 view .LVU186
 527 0008 53F82010 		ldr	r1, [r3, r0, lsl #2]
 528              		.loc 1 112 25 view .LVU187
 529 000c 32F81030 		ldrh	r3, [r2, r0, lsl #1]
 530              		.loc 1 111 40 view .LVU188
 531 0010 496A     		ldr	r1, [r1, #36]
 532              	.LVL16:
 533              		.loc 1 112 5 is_stmt 1 view .LVU189
 534              		.loc 1 112 25 is_stmt 0 view .LVU190
 535 0012 CB1A     		subs	r3, r1, r3
 536              		.loc 1 111 13 view .LVU191
 537 0014 22F81010 		strh	r1, [r2, r0, lsl #1]	@ movhi
 538              		.loc 1 112 13 view .LVU192
 539 0018 18B2     		sxth	r0, r3
 540              	.LVL17:
 541              		.loc 1 113 5 is_stmt 1 view .LVU193
 542              		.loc 1 114 5 view .LVU194
 543              		.loc 1 114 5 is_stmt 0 view .LVU195
 544 001a 7047     		bx	lr
 545              	.LVL18:
 546              	.L22:
 547              		.loc 1 114 5 view .LVU196
 548              	.LBE97:
 549              	.LBE96:
 550              		.loc 1 109 16 view .LVU197
 551 001c 0020     		movs	r0, #0
 552              	.LVL19:
 553              		.loc 1 115 1 view .LVU198
 554 001e 7047     		bx	lr
 555              	.L24:
 556              		.align	2
 557              	.L23:
 558 0020 00000000 		.word	.LANCHOR2
 559 0024 00000000 		.word	.LANCHOR1
 560              		.cfi_endproc
 561              	.LFE438:
 562              		.size	drv_encoder_get_delta, .-drv_encoder_get_delta
 563              		.section	.text.drv_encoder_get_delta_accel,"ax",%progbits
 564              		.align	1
 565              		.p2align 4,,15
 566              		.global	drv_encoder_get_delta_accel
 567              		.syntax unified
 568              		.thumb
 569              		.thumb_func
 570              		.type	drv_encoder_get_delta_accel, %function
ARM GAS  C:\Users\DEVELO~1\AppData\Local\Temp\ccsYaDzo.s 			page 11


 571              	drv_encoder_get_delta_accel:
 572              	.LVL20:
 573              	.LFB439:
 574              		.loc 1 118 54 is_stmt 1 view -0
 575              		.cfi_startproc
 576              		@ args = 0, pretend = 0, frame = 0
 577              		@ frame_needed = 0, uses_anonymous_args = 0
 578              		@ link register save eliminated.
 579              		.loc 1 119 5 view .LVU200
 580              	.LBB104:
 581              	.LBI104:
 582              		.loc 1 107 9 view .LVU201
 583              	.LBB105:
 584              		.loc 1 108 5 view .LVU202
 585              		.loc 1 108 8 is_stmt 0 view .LVU203
 586 0000 0328     		cmp	r0, #3
 587 0002 17D8     		bhi	.L30
 588              	.LVL21:
 589              	.LBB106:
 590              	.LBI106:
 591              		.loc 1 107 9 is_stmt 1 view .LVU204
 592              	.LBB107:
 593              		.loc 1 111 5 view .LVU205
 594              		.loc 1 111 36 is_stmt 0 view .LVU206
 595 0004 0E4B     		ldr	r3, .L33
 596              		.loc 1 112 35 view .LVU207
 597 0006 0F4A     		ldr	r2, .L33+4
 598              		.loc 1 111 36 view .LVU208
 599 0008 53F82030 		ldr	r3, [r3, r0, lsl #2]
 600              		.loc 1 112 25 view .LVU209
 601 000c 32F81010 		ldrh	r1, [r2, r0, lsl #1]
 602              		.loc 1 111 40 view .LVU210
 603 0010 5B6A     		ldr	r3, [r3, #36]
 604              	.LVL22:
 605              		.loc 1 112 5 is_stmt 1 view .LVU211
 606              		.loc 1 111 13 is_stmt 0 view .LVU212
 607 0012 22F81030 		strh	r3, [r2, r0, lsl #1]	@ movhi
 608              		.loc 1 112 25 view .LVU213
 609 0016 5B1A     		subs	r3, r3, r1
 610              	.LVL23:
 611              		.loc 1 112 13 view .LVU214
 612 0018 18B2     		sxth	r0, r3
 613              	.LVL24:
 614              		.loc 1 113 5 is_stmt 1 view .LVU215
 615              		.loc 1 114 5 view .LVU216
 616              		.loc 1 114 5 is_stmt 0 view .LVU217
 617              	.LBE107:
 618              	.LBE106:
 619              	.LBE105:
 620              	.LBE104:
 621              		.loc 1 121 5 is_stmt 1 view .LVU218
 622              	.LBB112:
 623              	.LBB110:
 624              	.LBB109:
 625              	.LBB108:
 626              		.loc 1 112 25 is_stmt 0 view .LVU219
 627 001a 9BB2     		uxth	r3, r3
ARM GAS  C:\Users\DEVELO~1\AppData\Local\Temp\ccsYaDzo.s 			page 12


 628              	.LBE108:
 629              	.LBE109:
 630              	.LBE110:
 631              	.LBE112:
 632              		.loc 1 121 8 view .LVU220
 633 001c 0528     		cmp	r0, #5
 634 001e 06DC     		bgt	.L31
 635              	.LVL25:
 636              		.loc 1 122 10 is_stmt 1 view .LVU221
 637              		.loc 1 122 13 is_stmt 0 view .LVU222
 638 0020 0228     		cmp	r0, #2
 639 0022 02DD     		ble	.L28
 640              	.L32:
 641              		.loc 1 124 22 is_stmt 1 discriminator 1 view .LVU223
 642              		.loc 1 124 31 is_stmt 0 discriminator 1 view .LVU224
 643 0024 5B00     		lsls	r3, r3, #1
 644 0026 18B2     		sxth	r0, r3
 645 0028 7047     		bx	lr
 646              	.L28:
 647              		.loc 1 123 10 is_stmt 1 view .LVU225
 648              		.loc 1 123 13 is_stmt 0 view .LVU226
 649 002a 411D     		adds	r1, r0, #5
 650 002c 04DA     		bge	.L29
 651              	.L31:
 652              		.loc 1 123 22 is_stmt 1 discriminator 1 view .LVU227
 653              		.loc 1 123 31 is_stmt 0 discriminator 1 view .LVU228
 654 002e 9B00     		lsls	r3, r3, #2
 655 0030 18B2     		sxth	r0, r3
 656 0032 7047     		bx	lr
 657              	.LVL26:
 658              	.L30:
 659              	.LBB113:
 660              	.LBB111:
 661              		.loc 1 109 16 view .LVU229
 662 0034 0020     		movs	r0, #0
 663              	.LVL27:
 664              	.L26:
 665              		.loc 1 109 16 view .LVU230
 666              	.LBE111:
 667              	.LBE113:
 668              		.loc 1 126 1 view .LVU231
 669 0036 7047     		bx	lr
 670              	.L29:
 671              		.loc 1 124 10 is_stmt 1 view .LVU232
 672              		.loc 1 124 13 is_stmt 0 view .LVU233
 673 0038 821C     		adds	r2, r0, #2
 674 003a FCDA     		bge	.L26
 675 003c F2E7     		b	.L32
 676              	.L34:
 677 003e 00BF     		.align	2
 678              	.L33:
 679 0040 00000000 		.word	.LANCHOR2
 680 0044 00000000 		.word	.LANCHOR1
 681              		.cfi_endproc
 682              	.LFE439:
 683              		.size	drv_encoder_get_delta_accel, .-drv_encoder_get_delta_accel
 684              		.section	.bss.encoders_started,"aw",%nobits
ARM GAS  C:\Users\DEVELO~1\AppData\Local\Temp\ccsYaDzo.s 			page 13


 685              		.set	.LANCHOR0,. + 0
 686              		.type	encoders_started, %object
 687              		.size	encoders_started, 1
 688              	encoders_started:
 689 0000 00       		.space	1
 690              		.section	.bss.last_val,"aw",%nobits
 691              		.align	2
 692              		.set	.LANCHOR1,. + 0
 693              		.type	last_val, %object
 694              		.size	last_val, 8
 695              	last_val:
 696 0000 00000000 		.space	8
 696      00000000 
 697              		.section	.rodata.timers,"a"
 698              		.align	2
 699              		.set	.LANCHOR2,. + 0
 700              		.type	timers, %object
 701              		.size	timers, 16
 702              	timers:
 703 0000 00040040 		.word	1073742848
 704 0004 00000040 		.word	1073741824
 705 0008 000C0040 		.word	1073744896
 706 000c 00080040 		.word	1073743872
 707              		.text
 708              	.Letext0:
 709              		.file 3 "c:\\chibistudio\\tools\\gnu tools arm embedded\\11.3 2022.08\\arm-none-eabi\\include\\mac
 710              		.file 4 "c:\\chibistudio\\tools\\gnu tools arm embedded\\11.3 2022.08\\arm-none-eabi\\include\\sys
 711              		.file 5 "drivers/drv_encoders.h"
 712              		.file 6 "../../../os/common/ext/ST/STM32H7xx/stm32h743xx.h"