ARM GAS  C:\Users\DEVELO~1\AppData\Local\Temp\ccCRkMgx.s 			page 1


   1              		.cpu cortex-m7
   2              		.arch armv7e-m
   3              		.fpu softvfp
   4              		.eabi_attribute 20, 1
   5              		.eabi_attribute 21, 1
   6              		.eabi_attribute 23, 3
   7              		.eabi_attribute 24, 1
   8              		.eabi_attribute 25, 1
   9              		.eabi_attribute 26, 1
  10              		.eabi_attribute 30, 2
  11              		.eabi_attribute 34, 1
  12              		.eabi_attribute 18, 4
  13              		.file	"drv_leds_addr.c"
  14              		.text
  15              	.Ltext0:
  16              		.cfi_sections	.debug_frame
  17              		.section	.text.ws_prepare_buffer,"ax",%progbits
  18              		.align	1
  19              		.p2align 4,,15
  20              		.syntax unified
  21              		.thumb
  22              		.thumb_func
  23              		.type	ws_prepare_buffer, %function
  24              	ws_prepare_buffer:
  25              	.LFB435:
  26              		.file 1 "drivers/drv_leds_addr.c"
  27              		.loc 1 101 37 view -0
  28              		.cfi_startproc
  29              		@ args = 0, pretend = 0, frame = 0
  30              		@ frame_needed = 0, uses_anonymous_args = 0
  31              		@ link register save eliminated.
  32              		.loc 1 102 5 view .LVU1
  33              	.LVL0:
  34              		.loc 1 104 5 view .LVU2
  35              	.LBB127:
  36              		.loc 1 104 10 view .LVU3
  37              		.loc 1 104 28 view .LVU4
  38              	.LBE127:
  39              		.loc 1 101 37 is_stmt 0 view .LVU5
  40 0000 F0B4     		push	{r4, r5, r6, r7}
  41              		.cfi_def_cfa_offset 16
  42              		.cfi_offset 4, -16
  43              		.cfi_offset 5, -12
  44              		.cfi_offset 6, -8
  45              		.cfi_offset 7, -4
  46              	.LBB133:
  47              	.LBB128:
  48              	.LBB129:
  49              		.loc 1 112 28 view .LVU6
  50 0002 4FF0010C 		mov	ip, #1
  51 0006 114F     		ldr	r7, .L10
  52 0008 114D     		ldr	r5, .L10+4
  53              	.LBE129:
  54              	.LBE128:
  55              	.LBE133:
  56              		.loc 1 102 14 view .LVU7
  57 000a 0024     		movs	r4, #0
ARM GAS  C:\Users\DEVELO~1\AppData\Local\Temp\ccCRkMgx.s 			page 2


  58              	.LVL1:
  59              	.L4:
  60              	.LBB134:
  61              	.LBB132:
  62              		.loc 1 105 9 is_stmt 1 view .LVU8
  63              		.loc 1 107 27 is_stmt 0 view .LVU9
  64 000c 7878     		ldrb	r0, [r7, #1]	@ zero_extendqisi2
  65              		.loc 1 105 18 view .LVU10
  66 000e 2A46     		mov	r2, r5
  67              		.loc 1 106 27 view .LVU11
  68 0010 3E78     		ldrb	r6, [r7]	@ zero_extendqisi2
  69              	.LBB130:
  70              		.loc 1 110 18 view .LVU12
  71 0012 1723     		movs	r3, #23
  72              	.LBE130:
  73              		.loc 1 107 30 view .LVU13
  74 0014 0002     		lsls	r0, r0, #8
  75              		.loc 1 108 27 view .LVU14
  76 0016 B978     		ldrb	r1, [r7, #2]	@ zero_extendqisi2
  77              		.loc 1 106 37 view .LVU15
  78 0018 40EA0640 		orr	r0, r0, r6, lsl #16
  79              		.loc 1 107 37 view .LVU16
  80 001c 0843     		orrs	r0, r0, r1
  81              	.LVL2:
  82              		.loc 1 110 9 is_stmt 1 view .LVU17
  83              	.LBB131:
  84              		.loc 1 110 14 view .LVU18
  85              		.loc 1 110 32 view .LVU19
  86              	.L3:
  87              		.loc 1 111 13 view .LVU20
  88              		.loc 1 112 28 is_stmt 0 view .LVU21
  89 001e 0CFA03F1 		lsl	r1, ip, r3
  90              		.loc 1 110 41 view .LVU22
  91 0022 013B     		subs	r3, r3, #1
  92              	.LVL3:
  93              		.loc 1 111 31 view .LVU23
  94 0024 0142     		tst	r1, r0
  95 0026 14BF     		ite	ne
  96 0028 AF21     		movne	r1, #175
  97 002a 4B21     		moveq	r1, #75
  98              		.loc 1 111 31 view .LVU24
  99 002c 22F8021F 		strh	r1, [r2, #2]!	@ movhi
 100              		.loc 1 110 41 is_stmt 1 view .LVU25
 101              	.LVL4:
 102              		.loc 1 110 32 view .LVU26
 103 0030 591C     		adds	r1, r3, #1
 104 0032 F4D1     		bne	.L3
 105              		.loc 1 111 27 is_stmt 0 discriminator 2 view .LVU27
 106 0034 1834     		adds	r4, r4, #24
 107              	.LBE131:
 108              	.LBE132:
 109              		.loc 1 104 48 is_stmt 1 discriminator 2 view .LVU28
 110              	.LVL5:
 111              		.loc 1 104 28 discriminator 2 view .LVU29
 112 0036 0337     		adds	r7, r7, #3
 113 0038 3035     		adds	r5, r5, #48
 114 003a B4F5167F 		cmp	r4, #600
ARM GAS  C:\Users\DEVELO~1\AppData\Local\Temp\ccCRkMgx.s 			page 3


 115 003e E5D1     		bne	.L4
 116              	.LBE134:
 117              	.LBB135:
 118              		.loc 1 117 27 is_stmt 0 view .LVU30
 119 0040 A022     		movs	r2, #160
 120 0042 0021     		movs	r1, #0
 121 0044 0348     		ldr	r0, .L10+8
 122              	.LVL6:
 123              		.loc 1 117 27 view .LVU31
 124              	.LBE135:
 125              		.loc 1 121 1 view .LVU32
 126 0046 F0BC     		pop	{r4, r5, r6, r7}
 127              		.cfi_restore 7
 128              		.cfi_restore 6
 129              		.cfi_restore 5
 130              		.cfi_restore 4
 131              		.cfi_def_cfa_offset 0
 132              	.LVL7:
 133              	.LBB136:
 134              		.loc 1 117 27 view .LVU33
 135 0048 FFF7FEBF 		b	memset
 136              	.LVL8:
 137              	.L11:
 138              		.loc 1 117 27 view .LVU34
 139              		.align	2
 140              	.L10:
 141 004c 00000000 		.word	.LANCHOR0
 142 0050 FEFFFFFF 		.word	.LANCHOR1-2
 143 0054 B0040000 		.word	.LANCHOR1+1200
 144              	.LBE136:
 145              		.cfi_endproc
 146              	.LFE435:
 147              		.size	ws_prepare_buffer, .-ws_prepare_buffer
 148              		.section	.text.ws_dma_callback,"ax",%progbits
 149              		.align	1
 150              		.p2align 4,,15
 151              		.syntax unified
 152              		.thumb
 153              		.thumb_func
 154              		.type	ws_dma_callback, %function
 155              	ws_dma_callback:
 156              	.LVL9:
 157              	.LFB447:
 158              		.loc 1 316 54 is_stmt 1 view -0
 159              		.cfi_startproc
 160              		@ args = 0, pretend = 0, frame = 0
 161              		@ frame_needed = 0, uses_anonymous_args = 0
 162              		.loc 1 317 5 view .LVU36
 163              		.loc 1 319 5 view .LVU37
 164              		.loc 1 323 5 view .LVU38
 165              		.loc 1 323 8 is_stmt 0 view .LVU39
 166 0000 11F00D03 		ands	r3, r1, #13
 167              		.loc 1 316 54 view .LVU40
 168 0004 10B5     		push	{r4, lr}
 169              		.cfi_def_cfa_offset 8
 170              		.cfi_offset 4, -8
 171              		.cfi_offset 14, -4
ARM GAS  C:\Users\DEVELO~1\AppData\Local\Temp\ccCRkMgx.s 			page 4


 172              		.loc 1 323 8 view .LVU41
 173 0006 11D1     		bne	.L22
 174              		.loc 1 333 5 is_stmt 1 view .LVU42
 175              		.loc 1 333 8 is_stmt 0 view .LVU43
 176 0008 8A06     		lsls	r2, r1, #26
 177 000a 0ED5     		bpl	.L12
 178              	.LBB176:
 179              	.LBI176:
 180              		.loc 1 316 13 is_stmt 1 view .LVU44
 181              	.LVL10:
 182              	.LBB177:
 183              		.loc 1 334 9 view .LVU45
 184              	.LBB178:
 185              	.LBI178:
 186              		.file 2 "../../../os/rt/include/chsys.h"
 187              		.loc 2 451 20 view .LVU46
 188              		.loc 2 453 3 view .LVU47
 189              	.LBB179:
 190              	.LBI179:
 191              		.file 3 "../../../os/common/ports/ARMv7-M/chcore.h"
 192              		.loc 3 862 27 view .LVU48
 193              		.loc 3 864 3 view .LVU49
 194              	.LBB180:
 195              	.LBI180:
 196              		.loc 3 823 27 view .LVU50
 197              		.loc 3 831 3 view .LVU51
 198              	.LBB181:
 199              	.LBI181:
 200              		.file 4 "../../../os/common/ext/ARM/CMSIS/Core/Include/cmsis_gcc.h"
 201              		.loc 4 491 27 view .LVU52
 202              	.LBB182:
 203              		.loc 4 493 3 view .LVU53
 204 000c 3022     		movs	r2, #48
 205              		.syntax unified
 206              	@ 493 "../../../os/common/ext/ARM/CMSIS/Core/Include/cmsis_gcc.h" 1
 207 000e 82F31188 		MSR basepri, r2
 208              	@ 0 "" 2
 209              	.LVL11:
 210              		.loc 4 493 3 is_stmt 0 view .LVU54
 211              		.thumb
 212              		.syntax unified
 213              	.LBE182:
 214              	.LBE181:
 215              	.LBE180:
 216              	.LBE179:
 217              		.loc 2 454 35 is_stmt 1 view .LVU55
 218              		.loc 2 455 30 view .LVU56
 219              	.LBE178:
 220              		.loc 1 335 9 view .LVU57
 221              	.LBB183:
 222              	.LBB184:
 223              		.file 5 "../../../os/oslib/include/chbsem.h"
 224              		.loc 5 270 15 is_stmt 0 view .LVU58
 225 0012 1148     		ldr	r0, .L23
 226              	.LVL12:
 227              		.loc 5 270 15 view .LVU59
 228              	.LBE184:
ARM GAS  C:\Users\DEVELO~1\AppData\Local\Temp\ccCRkMgx.s 			page 5


 229              	.LBE183:
 230              		.loc 1 336 28 view .LVU60
 231 0014 0121     		movs	r1, #1
 232              	.LVL13:
 233              		.loc 1 335 22 view .LVU61
 234 0016 114C     		ldr	r4, .L23+4
 235              		.loc 1 336 28 view .LVU62
 236 0018 114A     		ldr	r2, .L23+8
 237              		.loc 1 335 22 view .LVU63
 238 001a 2370     		strb	r3, [r4]
 239              		.loc 1 336 9 is_stmt 1 view .LVU64
 240              	.LBB188:
 241              	.LBB185:
 242              		.loc 5 270 6 is_stmt 0 view .LVU65
 243 001c 8368     		ldr	r3, [r0, #8]
 244              	.LBE185:
 245              	.LBE188:
 246              		.loc 1 336 28 view .LVU66
 247 001e 1170     		strb	r1, [r2]
 248              		.loc 1 337 9 is_stmt 1 view .LVU67
 249              	.LVL14:
 250              	.LBB189:
 251              	.LBI183:
 252              		.loc 5 266 20 view .LVU68
 253              	.LBB186:
 254              		.loc 5 268 21 view .LVU69
 255              		.loc 5 270 3 view .LVU70
 256              		.loc 5 270 6 is_stmt 0 view .LVU71
 257 0020 002B     		cmp	r3, #0
 258 0022 16DD     		ble	.L21
 259              	.LVL15:
 260              	.L16:
 261              		.loc 5 270 6 view .LVU72
 262              	.LBE186:
 263              	.LBE189:
 264              		.loc 1 338 9 is_stmt 1 view .LVU73
 265              	.LBB190:
 266              	.LBI190:
 267              		.loc 2 473 20 view .LVU74
 268              		.loc 2 475 32 view .LVU75
 269              		.loc 2 476 34 view .LVU76
 270              		.loc 2 477 3 view .LVU77
 271              	.LBB191:
 272              	.LBI191:
 273              		.loc 3 873 27 view .LVU78
 274              		.loc 3 875 3 view .LVU79
 275              	.LBB192:
 276              	.LBI192:
 277              		.loc 3 847 27 view .LVU80
 278              		.loc 3 850 3 view .LVU81
 279              	.LBB193:
 280              	.LBI193:
 281              		.loc 4 491 27 view .LVU82
 282              	.LBB194:
 283              		.loc 4 493 3 view .LVU83
 284 0024 0023     		movs	r3, #0
 285              		.syntax unified
ARM GAS  C:\Users\DEVELO~1\AppData\Local\Temp\ccCRkMgx.s 			page 6


 286              	@ 493 "../../../os/common/ext/ARM/CMSIS/Core/Include/cmsis_gcc.h" 1
 287 0026 83F31188 		MSR basepri, r3
 288              	@ 0 "" 2
 289              	.LVL16:
 290              		.thumb
 291              		.syntax unified
 292              	.L12:
 293              		.loc 4 493 3 is_stmt 0 view .LVU84
 294              	.LBE194:
 295              	.LBE193:
 296              	.LBE192:
 297              	.LBE191:
 298              	.LBE190:
 299              	.LBE177:
 300              	.LBE176:
 301              		.loc 1 340 1 view .LVU85
 302 002a 10BD     		pop	{r4, pc}
 303              	.LVL17:
 304              	.L22:
 305              		.loc 1 324 9 is_stmt 1 view .LVU86
 306              	.LBB197:
 307              	.LBI197:
 308              		.loc 2 451 20 view .LVU87
 309              		.loc 2 453 3 view .LVU88
 310              	.LBB198:
 311              	.LBI198:
 312              		.loc 3 862 27 view .LVU89
 313              		.loc 3 864 3 view .LVU90
 314              	.LBB199:
 315              	.LBI199:
 316              		.loc 3 823 27 view .LVU91
 317              		.loc 3 831 3 view .LVU92
 318              	.LBB200:
 319              	.LBI200:
 320              		.loc 4 491 27 view .LVU93
 321              	.LBB201:
 322              		.loc 4 493 3 view .LVU94
 323 002c 3023     		movs	r3, #48
 324              		.syntax unified
 325              	@ 493 "../../../os/common/ext/ARM/CMSIS/Core/Include/cmsis_gcc.h" 1
 326 002e 83F31188 		MSR basepri, r3
 327              	@ 0 "" 2
 328              	.LVL18:
 329              		.loc 4 493 3 is_stmt 0 view .LVU95
 330              		.thumb
 331              		.syntax unified
 332              	.LBE201:
 333              	.LBE200:
 334              	.LBE199:
 335              	.LBE198:
 336              		.loc 2 454 35 is_stmt 1 view .LVU96
 337              		.loc 2 455 30 view .LVU97
 338              	.LBE197:
 339              		.loc 1 325 9 view .LVU98
 340              		.loc 1 325 23 is_stmt 0 view .LVU99
 341 0032 0C4A     		ldr	r2, .L23+12
 342              		.loc 1 326 22 view .LVU100
ARM GAS  C:\Users\DEVELO~1\AppData\Local\Temp\ccCRkMgx.s 			page 7


 343 0034 4FF0000C 		mov	ip, #0
 344              	.LBB202:
 345              	.LBB203:
 346              		.loc 5 270 15 view .LVU101
 347 0038 0748     		ldr	r0, .L23
 348              	.LVL19:
 349              		.loc 5 270 15 view .LVU102
 350              	.LBE203:
 351              	.LBE202:
 352              		.loc 1 325 23 view .LVU103
 353 003a 1368     		ldr	r3, [r2]
 354              		.loc 1 326 22 view .LVU104
 355 003c 0749     		ldr	r1, .L23+4
 356              	.LVL20:
 357              		.loc 1 325 23 view .LVU105
 358 003e 0133     		adds	r3, r3, #1
 359 0040 1360     		str	r3, [r2]
 360              		.loc 1 326 9 is_stmt 1 view .LVU106
 361              		.loc 1 327 31 is_stmt 0 view .LVU107
 362 0042 0122     		movs	r2, #1
 363 0044 084B     		ldr	r3, .L23+16
 364              		.loc 1 326 22 view .LVU108
 365 0046 81F800C0 		strb	ip, [r1]
 366              		.loc 1 327 9 is_stmt 1 view .LVU109
 367              		.loc 1 327 31 is_stmt 0 view .LVU110
 368 004a 1A70     		strb	r2, [r3]
 369              		.loc 1 328 9 is_stmt 1 view .LVU111
 370              	.LVL21:
 371              	.LBB205:
 372              	.LBI202:
 373              		.loc 5 266 20 view .LVU112
 374              	.LBB204:
 375              		.loc 5 268 21 view .LVU113
 376              		.loc 5 270 3 view .LVU114
 377              		.loc 5 270 6 is_stmt 0 view .LVU115
 378 004c 8368     		ldr	r3, [r0, #8]
 379 004e 6345     		cmp	r3, ip
 380 0050 E8DC     		bgt	.L16
 381              	.LVL22:
 382              	.L21:
 383              		.loc 5 270 6 view .LVU116
 384              	.LBE204:
 385              	.LBE205:
 386              	.LBB206:
 387              	.LBB196:
 388              	.LBB195:
 389              	.LBB187:
 390              		.loc 5 271 5 is_stmt 1 view .LVU117
 391 0052 FFF7FEFF 		bl	chSemSignalI
 392              	.LVL23:
 393 0056 E5E7     		b	.L16
 394              	.L24:
 395              		.align	2
 396              	.L23:
 397 0058 00000000 		.word	.LANCHOR5
 398 005c 00000000 		.word	.LANCHOR3
 399 0060 00000000 		.word	.LANCHOR6
ARM GAS  C:\Users\DEVELO~1\AppData\Local\Temp\ccCRkMgx.s 			page 8


 400 0064 00000000 		.word	.LANCHOR2
 401 0068 00000000 		.word	.LANCHOR4
 402              	.LBE187:
 403              	.LBE195:
 404              	.LBE196:
 405              	.LBE206:
 406              		.cfi_endproc
 407              	.LFE447:
 408              		.size	ws_dma_callback, .-ws_dma_callback
 409              		.section	.rodata.led_dma_thread.str1.4,"aMS",%progbits,1
 410              		.align	2
 411              	.LC0:
 412 0000 6C65642D 		.ascii	"led-dma\000"
 412      646D6100 
 413              		.global	__aeabi_uldivmod
 414              		.global	__aeabi_ldivmod
 415              		.section	.text.led_dma_thread,"ax",%progbits
 416              		.align	1
 417              		.p2align 4,,15
 418              		.syntax unified
 419              		.thumb
 420              		.thumb_func
 421              		.type	led_dma_thread, %function
 422              	led_dma_thread:
 423              	.LVL24:
 424              	.LFB446:
 425              		.loc 1 293 42 view -0
 426              		.cfi_startproc
 427              		@ args = 0, pretend = 0, frame = 8
 428              		@ frame_needed = 0, uses_anonymous_args = 0
 429              		.loc 1 294 5 view .LVU119
 430              		.loc 1 295 5 view .LVU120
 431              	.LBB236:
 432              	.LBI236:
 433              		.file 6 "../../../os/rt/include/chregistry.h"
 434              		.loc 6 165 20 view .LVU121
 435              	.LBB237:
 436              		.loc 6 168 3 view .LVU122
 437 0000 404B     		ldr	r3, .L45
 438              		.loc 6 168 32 is_stmt 0 view .LVU123
 439 0002 414A     		ldr	r2, .L45+4
 440 0004 DB68     		ldr	r3, [r3, #12]
 441              	.LBE237:
 442              	.LBE236:
 443              		.loc 1 293 42 view .LVU124
 444 0006 2DE9F04F 		push	{r4, r5, r6, r7, r8, r9, r10, fp, lr}
 445              		.cfi_def_cfa_offset 36
 446              		.cfi_offset 4, -36
 447              		.cfi_offset 5, -32
 448              		.cfi_offset 6, -28
 449              		.cfi_offset 7, -24
 450              		.cfi_offset 8, -20
 451              		.cfi_offset 9, -16
 452              		.cfi_offset 10, -12
 453              		.cfi_offset 11, -8
 454              		.cfi_offset 14, -4
 455 000a 404F     		ldr	r7, .L45+8
ARM GAS  C:\Users\DEVELO~1\AppData\Local\Temp\ccCRkMgx.s 			page 9


 456 000c 83B0     		sub	sp, sp, #12
 457              		.cfi_def_cfa_offset 48
 458 000e 404E     		ldr	r6, .L45+12
 459 0010 DFF800B1 		ldr	fp, .L45+16
 460 0014 DFF800A1 		ldr	r10, .L45+20
 461              	.LBB239:
 462              	.LBB238:
 463              		.loc 6 168 32 view .LVU125
 464 0018 DA61     		str	r2, [r3, #28]
 465              	.LVL25:
 466              	.L26:
 467              		.loc 6 168 32 view .LVU126
 468              	.LBE238:
 469              	.LBE239:
 470              	.LBB240:
 471              	.LBB241:
 472              	.LBB242:
 473              		.loc 5 143 10 discriminator 1 view .LVU127
 474 001a DFF80091 		ldr	r9, .L45+24
 475              	.LBE242:
 476              	.LBE241:
 477              	.LBB244:
 478              	.LBB245:
 479              	.LBB246:
 480              	.LBB247:
 481              		.loc 4 493 3 discriminator 1 view .LVU128
 482 001e 4FF03008 		mov	r8, #48
 483              	.L28:
 484              	.LBE247:
 485              	.LBE246:
 486              	.LBE245:
 487              	.LBE244:
 488              	.LBE240:
 489              		.loc 1 297 5 is_stmt 1 discriminator 1 view .LVU129
 490              	.LBB278:
 491              		.loc 1 298 9 discriminator 1 view .LVU130
 492              	.LVL26:
 493              	.LBB251:
 494              	.LBI241:
 495              		.loc 5 141 21 discriminator 1 view .LVU131
 496              	.LBB243:
 497              		.loc 5 143 3 discriminator 1 view .LVU132
 498              		.loc 5 143 10 is_stmt 0 discriminator 1 view .LVU133
 499 0022 4846     		mov	r0, r9
 500 0024 FFF7FEFF 		bl	chSemWait
 501              	.LVL27:
 502              		.loc 5 143 10 discriminator 1 view .LVU134
 503              	.LBE243:
 504              	.LBE251:
 505              		.loc 1 300 9 is_stmt 1 discriminator 1 view .LVU135
 506              		.loc 1 301 9 discriminator 1 view .LVU136
 507              		.loc 1 302 9 discriminator 1 view .LVU137
 508              		.loc 1 304 9 discriminator 1 view .LVU138
 509              	.LBB252:
 510              	.LBI244:
 511              		.loc 2 407 20 discriminator 1 view .LVU139
 512              		.loc 2 409 3 discriminator 1 view .LVU140
ARM GAS  C:\Users\DEVELO~1\AppData\Local\Temp\ccCRkMgx.s 			page 10


 513              	.LBB250:
 514              	.LBI245:
 515              		.loc 3 823 27 discriminator 1 view .LVU141
 516              		.loc 3 831 3 discriminator 1 view .LVU142
 517              	.LBB249:
 518              	.LBI246:
 519              		.loc 4 491 27 discriminator 1 view .LVU143
 520              	.LBB248:
 521              		.loc 4 493 3 discriminator 1 view .LVU144
 522              		.syntax unified
 523              	@ 493 "../../../os/common/ext/ARM/CMSIS/Core/Include/cmsis_gcc.h" 1
 524 0028 88F31188 		MSR basepri, r8
 525              	@ 0 "" 2
 526              	.LVL28:
 527              		.loc 4 493 3 is_stmt 0 discriminator 1 view .LVU145
 528              		.thumb
 529              		.syntax unified
 530              	.LBE248:
 531              	.LBE249:
 532              	.LBE250:
 533              		.loc 2 410 35 is_stmt 1 discriminator 1 view .LVU146
 534              		.loc 2 411 21 discriminator 1 view .LVU147
 535              	.LBE252:
 536              		.loc 1 305 9 discriminator 1 view .LVU148
 537              		.loc 1 307 31 is_stmt 0 discriminator 1 view .LVU149
 538 002c 0024     		movs	r4, #0
 539              		.loc 1 305 23 discriminator 1 view .LVU150
 540 002e 3D78     		ldrb	r5, [r7]	@ zero_extendqisi2
 541              		.loc 1 306 20 discriminator 1 view .LVU151
 542 0030 3378     		ldrb	r3, [r6]	@ zero_extendqisi2
 543              		.loc 1 305 23 discriminator 1 view .LVU152
 544 0032 EDB2     		uxtb	r5, r5
 545              	.LVL29:
 546              		.loc 1 306 9 is_stmt 1 discriminator 1 view .LVU153
 547              		.loc 1 307 31 is_stmt 0 discriminator 1 view .LVU154
 548 0034 3C70     		strb	r4, [r7]
 549              		.loc 1 306 20 discriminator 1 view .LVU155
 550 0036 DBB2     		uxtb	r3, r3
 551              	.LVL30:
 552              		.loc 1 307 9 is_stmt 1 discriminator 1 view .LVU156
 553              		.loc 1 308 9 discriminator 1 view .LVU157
 554              		.loc 1 308 28 is_stmt 0 discriminator 1 view .LVU158
 555 0038 3470     		strb	r4, [r6]
 556              		.loc 1 309 9 is_stmt 1 discriminator 1 view .LVU159
 557              		.loc 1 309 30 is_stmt 0 discriminator 1 view .LVU160
 558 003a DBF80020 		ldr	r2, [fp]
 559              	.LVL31:
 560              		.loc 1 310 9 is_stmt 1 discriminator 1 view .LVU161
 561              	.LBB253:
 562              	.LBI253:
 563              		.loc 2 421 20 discriminator 1 view .LVU162
 564              	.LBB254:
 565              		.loc 2 423 23 discriminator 1 view .LVU163
 566              		.loc 2 424 34 discriminator 1 view .LVU164
 567              		.loc 2 430 3 discriminator 1 view .LVU165
 568              		.loc 2 430 3 discriminator 1 view .LVU166
 569              		.loc 2 430 3 discriminator 1 view .LVU167
ARM GAS  C:\Users\DEVELO~1\AppData\Local\Temp\ccCRkMgx.s 			page 11


 570              		.loc 2 434 3 discriminator 1 view .LVU168
 571              	.LBB255:
 572              	.LBI255:
 573              		.loc 3 847 27 discriminator 1 view .LVU169
 574              		.loc 3 850 3 discriminator 1 view .LVU170
 575              	.LBB256:
 576              	.LBI256:
 577              		.loc 4 491 27 discriminator 1 view .LVU171
 578              	.LBB257:
 579              		.loc 4 493 3 discriminator 1 view .LVU172
 580              		.syntax unified
 581              	@ 493 "../../../os/common/ext/ARM/CMSIS/Core/Include/cmsis_gcc.h" 1
 582 003e 84F31188 		MSR basepri, r4
 583              	@ 0 "" 2
 584              	.LVL32:
 585              		.loc 4 493 3 is_stmt 0 discriminator 1 view .LVU173
 586              		.thumb
 587              		.syntax unified
 588              	.LBE257:
 589              	.LBE256:
 590              	.LBE255:
 591              	.LBE254:
 592              	.LBE253:
 593              		.loc 1 312 9 is_stmt 1 discriminator 1 view .LVU174
 594              	.LBB258:
 595              	.LBI258:
 596              		.loc 1 268 13 discriminator 1 view .LVU175
 597              	.LBB259:
 598              		.loc 1 271 5 discriminator 1 view .LVU176
 599              		.loc 1 271 8 is_stmt 0 discriminator 1 view .LVU177
 600 0042 83B9     		cbnz	r3, .L43
 601              	.LVL33:
 602              	.L27:
 603              		.loc 1 276 5 is_stmt 1 view .LVU178
 604              		.loc 1 276 8 is_stmt 0 view .LVU179
 605 0044 002D     		cmp	r5, #0
 606 0046 ECD0     		beq	.L28
 607              		.loc 1 277 9 is_stmt 1 view .LVU180
 608              		.loc 1 277 35 is_stmt 0 view .LVU181
 609 0048 DAF80030 		ldr	r3, [r10]
 610 004c 0133     		adds	r3, r3, #1
 611              		.loc 1 279 12 view .LVU182
 612 004e 022B     		cmp	r3, #2
 613              		.loc 1 277 35 view .LVU183
 614 0050 CAF80030 		str	r3, [r10]
 615              		.loc 1 279 9 is_stmt 1 view .LVU184
 616              		.loc 1 279 12 is_stmt 0 view .LVU185
 617 0054 1DD9     		bls	.L29
 618              		.loc 1 280 13 is_stmt 1 view .LVU186
 619              		.loc 1 280 29 is_stmt 0 view .LVU187
 620 0056 0023     		movs	r3, #0
 621 0058 314A     		ldr	r2, .L45+28
 622 005a 1370     		strb	r3, [r2]
 623              		.loc 1 281 13 is_stmt 1 view .LVU188
 624              		.loc 1 281 36 is_stmt 0 view .LVU189
 625 005c 314A     		ldr	r2, .L45+32
 626 005e 1368     		ldr	r3, [r2]
ARM GAS  C:\Users\DEVELO~1\AppData\Local\Temp\ccCRkMgx.s 			page 12


 627 0060 0133     		adds	r3, r3, #1
 628 0062 1360     		str	r3, [r2]
 629              		.loc 1 282 13 is_stmt 1 view .LVU190
 630 0064 D9E7     		b	.L26
 631              	.LVL34:
 632              	.L43:
 633              		.loc 1 272 9 view .LVU191
 634              	.LBB260:
 635              	.LBI260:
 636              		.file 7 "../../../os/rt/include/chvt.h"
 637              		.loc 7 159 29 view .LVU192
 638              		.loc 7 161 3 view .LVU193
 639              	.LBB261:
 640              	.LBI261:
 641              		.loc 7 122 25 view .LVU194
 642              		.loc 7 127 3 view .LVU195
 643              	.LBB262:
 644              	.LBI262:
 645              		.file 8 "../../../os/hal/osal/rt-nil/chcore_timer.h"
 646              		.loc 8 111 25 view .LVU196
 647              	.LBB263:
 648              		.loc 8 113 3 view .LVU197
 649 0066 0192     		str	r2, [sp, #4]
 650              	.LVL35:
 651              		.loc 8 113 10 is_stmt 0 view .LVU198
 652 0068 FFF7FEFF 		bl	stGetCounter
 653              	.LVL36:
 654              		.loc 8 113 10 view .LVU199
 655              	.LBE263:
 656              	.LBE262:
 657              	.LBE261:
 658              	.LBB264:
 659              	.LBI264:
 660              		.file 9 "../../../os/rt/include/chtime.h"
 661              		.loc 9 461 29 is_stmt 1 view .LVU200
 662              	.LBB265:
 663              		.loc 9 465 3 view .LVU201
 664              		.loc 9 465 3 is_stmt 0 view .LVU202
 665              	.LBE265:
 666              	.LBE264:
 667              	.LBE260:
 668              		.loc 1 272 30 view .LVU203
 669 006c 42F20F71 		movw	r1, #9999
 670              	.LBB268:
 671              	.LBB267:
 672              	.LBB266:
 673              		.loc 9 465 10 view .LVU204
 674 0070 019A     		ldr	r2, [sp, #4]
 675 0072 831A     		subs	r3, r0, r2
 676              	.LBE266:
 677              	.LBE267:
 678              	.LBE268:
 679              		.loc 1 272 30 view .LVU205
 680 0074 0846     		mov	r0, r1
 681 0076 2C4A     		ldr	r2, .L45+36
 682 0078 2146     		mov	r1, r4
 683 007a E3FB0201 		umlal	r0, r1, r3, r2
ARM GAS  C:\Users\DEVELO~1\AppData\Local\Temp\ccCRkMgx.s 			page 13


 684 007e 0023     		movs	r3, #0
 685 0080 42F21072 		movw	r2, #10000
 686 0084 FFF7FEFF 		bl	__aeabi_uldivmod
 687              	.LVL37:
 688              		.loc 1 272 28 view .LVU206
 689 0088 284B     		ldr	r3, .L45+40
 690              		.loc 1 273 36 view .LVU207
 691 008a CAF80040 		str	r4, [r10]
 692              		.loc 1 272 28 view .LVU208
 693 008e 1860     		str	r0, [r3]
 694              		.loc 1 273 9 is_stmt 1 view .LVU209
 695 0090 D8E7     		b	.L27
 696              	.LVL38:
 697              	.L29:
 698              		.loc 1 285 9 view .LVU210
 699 0092 2748     		ldr	r0, .L45+44
 700 0094 FFF7FEFF 		bl	chMtxLock
 701              	.LVL39:
 702              		.loc 1 286 9 view .LVU211
 703              		.loc 1 286 13 is_stmt 0 view .LVU212
 704 0098 264B     		ldr	r3, .L45+48
 705 009a 1B78     		ldrb	r3, [r3]	@ zero_extendqisi2
 706              		.loc 1 286 12 view .LVU213
 707 009c 03F0FF02 		and	r2, r3, #255
 708 00a0 13B9     		cbnz	r3, .L31
 709              		.loc 1 286 27 view .LVU214
 710 00a2 1F4B     		ldr	r3, .L45+28
 711 00a4 1B78     		ldrb	r3, [r3]	@ zero_extendqisi2
 712 00a6 1BB9     		cbnz	r3, .L44
 713              	.L31:
 714              		.loc 1 289 9 is_stmt 1 view .LVU215
 715 00a8 2148     		ldr	r0, .L45+44
 716 00aa FFF7FEFF 		bl	chMtxUnlock
 717              	.LVL40:
 718 00ae B4E7     		b	.L26
 719              	.L44:
 720              		.loc 1 287 13 view .LVU216
 721              	.LBB269:
 722              	.LBI269:
 723              		.loc 1 135 20 view .LVU217
 724              	.LBB270:
 725              		.loc 1 136 5 view .LVU218
 726              	.LBB271:
 727              	.LBI271:
 728              		.loc 1 73 20 view .LVU219
 729              	.LBB272:
 730              		.loc 1 74 5 view .LVU220
 731              		.loc 1 74 17 is_stmt 0 view .LVU221
 732 00b0 2149     		ldr	r1, .L45+52
 733 00b2 0123     		movs	r3, #1
 734 00b4 4B61     		str	r3, [r1, #20]
 735              		.loc 1 75 5 is_stmt 1 view .LVU222
 736              	.LBE272:
 737              	.LBE271:
 738              		.loc 1 138 5 is_stmt 0 view .LVU223
 739 00b6 214B     		ldr	r3, .L45+56
 740              	.LBB274:
ARM GAS  C:\Users\DEVELO~1\AppData\Local\Temp\ccCRkMgx.s 			page 14


 741              	.LBB273:
 742              		.loc 1 75 17 view .LVU224
 743 00b8 4A62     		str	r2, [r1, #36]
 744              	.LBE273:
 745              	.LBE274:
 746              		.loc 1 138 5 is_stmt 1 view .LVU225
 747 00ba 1968     		ldr	r1, [r3]
 748 00bc 0A68     		ldr	r2, [r1]
 749 00be 1368     		ldr	r3, [r2]
 750 00c0 23F01F03 		bic	r3, r3, #31
 751 00c4 1360     		str	r3, [r2]
 752              		.loc 1 138 5 view .LVU226
 753              	.L32:
 754              		.loc 1 138 5 view .LVU227
 755 00c6 1368     		ldr	r3, [r2]
 756 00c8 DB07     		lsls	r3, r3, #31
 757 00ca FCD4     		bmi	.L32
 758              		.loc 1 138 5 view .LVU228
 759 00cc 087B     		ldrb	r0, [r1, #12]	@ zero_extendqisi2
 760 00ce 3D23     		movs	r3, #61
 761 00d0 4968     		ldr	r1, [r1, #4]
 762 00d2 8340     		lsls	r3, r3, r0
 763 00d4 0B60     		str	r3, [r1]
 764              		.loc 1 138 5 view .LVU229
 765              		.loc 1 138 36 view .LVU230
 766              		.loc 1 139 5 view .LVU231
 767              		.loc 1 140 5 is_stmt 0 view .LVU232
 768 00d6 4FF42A71 		mov	r1, #680
 769              		.loc 1 139 5 view .LVU233
 770 00da 194B     		ldr	r3, .L45+60
 771 00dc D360     		str	r3, [r2, #12]
 772              		.loc 1 139 51 is_stmt 1 view .LVU234
 773              		.loc 1 140 5 view .LVU235
 774              		.loc 1 141 5 is_stmt 0 view .LVU236
 775 00de 194B     		ldr	r3, .L45+64
 776              		.loc 1 140 5 view .LVU237
 777 00e0 5160     		str	r1, [r2, #4]
 778              		.loc 1 140 64 is_stmt 1 view .LVU238
 779              		.loc 1 141 5 view .LVU239
 780 00e2 1B68     		ldr	r3, [r3]
 781 00e4 1360     		str	r3, [r2]
 782              		.loc 1 141 49 view .LVU240
 783              		.loc 1 149 5 view .LVU241
 784              		.loc 1 149 18 is_stmt 0 view .LVU242
 785 00e6 0123     		movs	r3, #1
 786 00e8 124A     		ldr	r2, .L45+48
 787 00ea 1370     		strb	r3, [r2]
 788              		.loc 1 150 5 is_stmt 1 view .LVU243
 789              	.LBB275:
 790              	.LBI275:
 791              		.loc 7 122 25 view .LVU244
 792              		.loc 7 127 3 view .LVU245
 793              	.LBB276:
 794              	.LBI276:
 795              		.loc 8 111 25 view .LVU246
 796              	.LBB277:
 797              		.loc 8 113 3 view .LVU247
ARM GAS  C:\Users\DEVELO~1\AppData\Local\Temp\ccCRkMgx.s 			page 15


 798              		.loc 8 113 10 is_stmt 0 view .LVU248
 799 00ec FFF7FEFF 		bl	stGetCounter
 800              	.LVL41:
 801              	.LBE277:
 802              	.LBE276:
 803              	.LBE275:
 804              		.loc 1 151 5 view .LVU249
 805 00f0 124B     		ldr	r3, .L45+56
 806              		.loc 1 150 22 view .LVU250
 807 00f2 CBF80000 		str	r0, [fp]
 808              		.loc 1 151 5 is_stmt 1 view .LVU251
 809 00f6 1B68     		ldr	r3, [r3]
 810 00f8 1A68     		ldr	r2, [r3]
 811 00fa 1368     		ldr	r3, [r2]
 812 00fc 43F00103 		orr	r3, r3, #1
 813 0100 1360     		str	r3, [r2]
 814              		.loc 1 151 35 view .LVU252
 815              		.loc 1 152 1 is_stmt 0 view .LVU253
 816 0102 D1E7     		b	.L31
 817              	.L46:
 818              		.align	2
 819              	.L45:
 820 0104 00000000 		.word	ch0
 821 0108 00000000 		.word	.LC0
 822 010c 00000000 		.word	.LANCHOR4
 823 0110 00000000 		.word	.LANCHOR6
 824 0114 00000000 		.word	.LANCHOR7
 825 0118 00000000 		.word	.LANCHOR9
 826 011c 00000000 		.word	.LANCHOR5
 827 0120 00000000 		.word	.LANCHOR10
 828 0124 00000000 		.word	.LANCHOR11
 829 0128 40420F00 		.word	1000000
 830 012c 00000000 		.word	.LANCHOR8
 831 0130 00000000 		.word	.LANCHOR12
 832 0134 00000000 		.word	.LANCHOR3
 833 0138 00040140 		.word	1073808384
 834 013c 00000000 		.word	.LANCHOR13
 835 0140 00000000 		.word	.LANCHOR1
 836 0144 00000000 		.word	.LANCHOR14
 837              	.LBE270:
 838              	.LBE269:
 839              	.LBE259:
 840              	.LBE258:
 841              	.LBE278:
 842              		.cfi_endproc
 843              	.LFE446:
 844              		.size	led_dma_thread, .-led_dma_thread
 845              		.section	.text.drv_leds_addr_init,"ax",%progbits
 846              		.align	1
 847              		.p2align 4,,15
 848              		.global	drv_leds_addr_init
 849              		.syntax unified
 850              		.thumb
 851              		.thumb_func
 852              		.type	drv_leds_addr_init, %function
 853              	drv_leds_addr_init:
 854              	.LFB438:
ARM GAS  C:\Users\DEVELO~1\AppData\Local\Temp\ccCRkMgx.s 			page 16


 855              		.loc 1 156 31 is_stmt 1 view -0
 856              		.cfi_startproc
 857              		@ args = 0, pretend = 0, frame = 0
 858              		@ frame_needed = 0, uses_anonymous_args = 0
 859              		.loc 1 157 5 view .LVU255
 860              		.loc 1 156 31 is_stmt 0 view .LVU256
 861 0000 30B5     		push	{r4, r5, lr}
 862              		.cfi_def_cfa_offset 12
 863              		.cfi_offset 4, -12
 864              		.cfi_offset 5, -8
 865              		.cfi_offset 14, -4
 866              		.loc 1 157 5 view .LVU257
 867 0002 3B48     		ldr	r0, .L51
 868              		.loc 1 156 31 view .LVU258
 869 0004 83B0     		sub	sp, sp, #12
 870              		.cfi_def_cfa_offset 24
 871              		.loc 1 157 5 view .LVU259
 872 0006 FFF7FEFF 		bl	chMtxObjectInit
 873              	.LVL42:
 874              		.loc 1 158 5 is_stmt 1 view .LVU260
 875              		.loc 1 158 18 is_stmt 0 view .LVU261
 876 000a 0024     		movs	r4, #0
 877 000c 3949     		ldr	r1, .L51+4
 878              		.loc 1 159 20 view .LVU262
 879 000e 3A4B     		ldr	r3, .L51+8
 880              		.loc 1 158 18 view .LVU263
 881 0010 0C70     		strb	r4, [r1]
 882              		.loc 1 159 5 is_stmt 1 view .LVU264
 883              		.loc 1 160 29 is_stmt 0 view .LVU265
 884 0012 3A48     		ldr	r0, .L51+12
 885              		.loc 1 161 24 view .LVU266
 886 0014 3A4A     		ldr	r2, .L51+16
 887              		.loc 1 162 22 view .LVU267
 888 0016 3B49     		ldr	r1, .L51+20
 889              		.loc 1 159 20 view .LVU268
 890 0018 1C60     		str	r4, [r3]
 891              		.loc 1 160 5 is_stmt 1 view .LVU269
 892              		.loc 1 163 24 is_stmt 0 view .LVU270
 893 001a 3B4B     		ldr	r3, .L51+24
 894              		.loc 1 160 29 view .LVU271
 895 001c 0460     		str	r4, [r0]
 896              		.loc 1 161 5 is_stmt 1 view .LVU272
 897              		.loc 1 161 24 is_stmt 0 view .LVU273
 898 001e 1460     		str	r4, [r2]
 899              		.loc 1 162 5 is_stmt 1 view .LVU274
 900              		.loc 1 164 27 is_stmt 0 view .LVU275
 901 0020 3A48     		ldr	r0, .L51+28
 902              		.loc 1 162 22 view .LVU276
 903 0022 0C60     		str	r4, [r1]
 904              		.loc 1 163 5 is_stmt 1 view .LVU277
 905              		.loc 1 165 21 is_stmt 0 view .LVU278
 906 0024 0121     		movs	r1, #1
 907 0026 3A4A     		ldr	r2, .L51+32
 908              		.loc 1 163 24 view .LVU279
 909 0028 1C70     		strb	r4, [r3]
 910              		.loc 1 164 5 is_stmt 1 view .LVU280
 911              		.loc 1 166 32 is_stmt 0 view .LVU281
ARM GAS  C:\Users\DEVELO~1\AppData\Local\Temp\ccCRkMgx.s 			page 17


 912 002a 3A4B     		ldr	r3, .L51+36
 913              		.loc 1 164 27 view .LVU282
 914 002c 0470     		strb	r4, [r0]
 915              		.loc 1 165 5 is_stmt 1 view .LVU283
 916              		.loc 1 165 21 is_stmt 0 view .LVU284
 917 002e 1170     		strb	r1, [r2]
 918              		.loc 1 166 5 is_stmt 1 view .LVU285
 919              	.LBB293:
 920              	.LBB294:
 921              		.loc 5 126 3 is_stmt 0 view .LVU286
 922 0030 2146     		mov	r1, r4
 923 0032 3948     		ldr	r0, .L51+40
 924              	.LBE294:
 925              	.LBE293:
 926              		.loc 1 166 32 view .LVU287
 927 0034 1C60     		str	r4, [r3]
 928              		.loc 1 168 5 is_stmt 1 view .LVU288
 929              	.LVL43:
 930              	.LBB296:
 931              	.LBI293:
 932              		.loc 5 124 20 view .LVU289
 933              	.LBB295:
 934              		.loc 5 126 3 view .LVU290
 935 0036 FFF7FEFF 		bl	chSemObjectInit
 936              	.LVL44:
 937              		.loc 5 126 3 is_stmt 0 view .LVU291
 938              	.LBE295:
 939              	.LBE296:
 940              		.loc 1 170 5 is_stmt 1 view .LVU292
 941              	.LBB297:
 942              	.LBI297:
 943              		.loc 1 56 13 view .LVU293
 944              	.LBB298:
 945              		.loc 1 57 5 view .LVU294
 946              	.LBB299:
 947              	.LBI299:
 948              		.file 10 "../../../os/hal/ports/STM32/STM32H7xx/stm32_rcc.h"
 949              		.loc 10 319 22 view .LVU295
 950              	.LBB300:
 951              		.loc 10 323 3 view .LVU296
 952              		.loc 10 323 19 is_stmt 0 view .LVU297
 953 003a 384B     		ldr	r3, .L51+44
 954              	.LBE300:
 955              	.LBE299:
 956              		.loc 1 60 17 view .LVU298
 957 003c F920     		movs	r0, #249
 958              		.loc 1 59 17 view .LVU299
 959 003e 3849     		ldr	r1, .L51+48
 960              	.LBB303:
 961              	.LBB301:
 962              		.loc 10 323 19 view .LVU300
 963 0040 D3F8F020 		ldr	r2, [r3, #240]
 964              	.LBE301:
 965              	.LBE303:
 966              	.LBE298:
 967              	.LBE297:
 968              	.LBB308:
ARM GAS  C:\Users\DEVELO~1\AppData\Local\Temp\ccCRkMgx.s 			page 18


 969              	.LBB309:
 970              		.loc 1 86 19 view .LVU301
 971 0044 374D     		ldr	r5, .L51+52
 972              	.LBE309:
 973              	.LBE308:
 974              	.LBB315:
 975              	.LBB305:
 976              	.LBB304:
 977              	.LBB302:
 978              		.loc 10 323 19 view .LVU302
 979 0046 42F00202 		orr	r2, r2, #2
 980 004a C3F8F020 		str	r2, [r3, #240]
 981              		.loc 10 324 3 is_stmt 1 view .LVU303
 982              		.loc 10 325 5 view .LVU304
 983              		.loc 10 325 23 is_stmt 0 view .LVU305
 984 004e D3F81821 		ldr	r2, [r3, #280]
 985 0052 42F00202 		orr	r2, r2, #2
 986 0056 C3F81821 		str	r2, [r3, #280]
 987              		.loc 10 330 3 is_stmt 1 view .LVU306
 988 005a D3F81831 		ldr	r3, [r3, #280]
 989              	.LVL45:
 990              		.loc 10 330 3 is_stmt 0 view .LVU307
 991              	.LBE302:
 992              	.LBE304:
 993              		.loc 1 59 5 is_stmt 1 view .LVU308
 994              	.LBE305:
 995              	.LBE315:
 996              	.LBB316:
 997              	.LBB312:
 998              		.loc 1 86 21 is_stmt 0 view .LVU309
 999 005e 2346     		mov	r3, r4
 1000              	.LBE312:
 1001              	.LBE316:
 1002              	.LBB317:
 1003              	.LBB306:
 1004              		.loc 1 59 17 view .LVU310
 1005 0060 8C62     		str	r4, [r1, #40]
 1006              		.loc 1 60 5 is_stmt 1 view .LVU311
 1007              		.loc 1 60 17 is_stmt 0 view .LVU312
 1008 0062 C862     		str	r0, [r1, #44]
 1009              		.loc 1 61 5 is_stmt 1 view .LVU313
 1010              		.loc 1 61 18 is_stmt 0 view .LVU314
 1011 0064 8C63     		str	r4, [r1, #56]
 1012              		.loc 1 63 5 is_stmt 1 view .LVU315
 1013              		.loc 1 63 19 is_stmt 0 view .LVU316
 1014 0066 8869     		ldr	r0, [r1, #24]
 1015              	.LBE306:
 1016              	.LBE317:
 1017              	.LBB318:
 1018              	.LBB313:
 1019              		.loc 1 86 21 view .LVU317
 1020 0068 2F4A     		ldr	r2, .L51+56
 1021              	.LBE313:
 1022              	.LBE318:
 1023              	.LBB319:
 1024              	.LBB307:
 1025              		.loc 1 63 19 view .LVU318
ARM GAS  C:\Users\DEVELO~1\AppData\Local\Temp\ccCRkMgx.s 			page 19


 1026 006a 40F4D040 		orr	r0, r0, #26624
 1027 006e 8861     		str	r0, [r1, #24]
 1028              		.loc 1 64 5 is_stmt 1 view .LVU319
 1029              		.loc 1 64 19 is_stmt 0 view .LVU320
 1030 0070 086A     		ldr	r0, [r1, #32]
 1031 0072 40F01000 		orr	r0, r0, #16
 1032 0076 0862     		str	r0, [r1, #32]
 1033              		.loc 1 65 5 is_stmt 1 view .LVU321
 1034              		.loc 1 65 19 is_stmt 0 view .LVU322
 1035 0078 486C     		ldr	r0, [r1, #68]
 1036 007a 40F40040 		orr	r0, r0, #32768
 1037 007e 4864     		str	r0, [r1, #68]
 1038              		.loc 1 67 5 is_stmt 1 view .LVU323
 1039              		.loc 1 67 18 is_stmt 0 view .LVU324
 1040 0080 C868     		ldr	r0, [r1, #12]
 1041 0082 40F48070 		orr	r0, r0, #256
 1042 0086 C860     		str	r0, [r1, #12]
 1043              		.loc 1 68 5 is_stmt 1 view .LVU325
 1044              		.loc 1 68 19 is_stmt 0 view .LVU326
 1045 0088 0868     		ldr	r0, [r1]
 1046 008a 40F08000 		orr	r0, r0, #128
 1047 008e 0860     		str	r0, [r1]
 1048              		.loc 1 70 5 is_stmt 1 view .LVU327
 1049              		.loc 1 70 17 is_stmt 0 view .LVU328
 1050 0090 0868     		ldr	r0, [r1]
 1051 0092 40F00100 		orr	r0, r0, #1
 1052 0096 0860     		str	r0, [r1]
 1053              	.LBE307:
 1054              	.LBE319:
 1055              		.loc 1 171 5 is_stmt 1 view .LVU329
 1056              	.LBB320:
 1057              	.LBI308:
 1058              		.loc 1 85 13 view .LVU330
 1059              	.LBB314:
 1060              		.loc 1 86 5 view .LVU331
 1061              		.loc 1 86 21 is_stmt 0 view .LVU332
 1062 0098 0D21     		movs	r1, #13
 1063 009a 0920     		movs	r0, #9
 1064 009c FFF7FEFF 		bl	dmaStreamAlloc
 1065              	.LVL46:
 1066              		.loc 1 93 5 view .LVU333
 1067 00a0 3321     		movs	r1, #51
 1068              		.loc 1 86 19 view .LVU334
 1069 00a2 2860     		str	r0, [r5]
 1070              		.loc 1 90 5 is_stmt 1 view .LVU335
 1071              		.loc 1 90 5 view .LVU336
 1072              		.loc 1 90 5 view .LVU337
 1073              		.loc 1 93 5 view .LVU338
 1074 00a4 FFF7FEFF 		bl	dmaSetRequestSource
 1075              	.LVL47:
 1076              		.loc 1 96 5 view .LVU339
 1077              	.LBB310:
 1078              	.LBI310:
 1079              		.loc 1 123 13 view .LVU340
 1080              	.LBB311:
 1081              		.loc 1 124 5 view .LVU341
 1082              		.loc 1 132 5 is_stmt 0 view .LVU342
ARM GAS  C:\Users\DEVELO~1\AppData\Local\Temp\ccCRkMgx.s 			page 20


 1083 00a8 2B68     		ldr	r3, [r5]
 1084              		.loc 1 124 17 view .LVU343
 1085 00aa 42F65640 		movw	r0, #11350
 1086              		.loc 1 132 5 view .LVU344
 1087 00ae 1F4A     		ldr	r2, .L51+60
 1088 00b0 1B68     		ldr	r3, [r3]
 1089              		.loc 1 124 17 view .LVU345
 1090 00b2 1F49     		ldr	r1, .L51+64
 1091              		.loc 1 132 5 view .LVU346
 1092 00b4 9A60     		str	r2, [r3, #8]
 1093              		.loc 1 124 17 view .LVU347
 1094 00b6 0860     		str	r0, [r1]
 1095              		.loc 1 132 5 is_stmt 1 view .LVU348
 1096              		.loc 1 132 57 view .LVU349
 1097              	.LBE311:
 1098              	.LBE310:
 1099              	.LBE314:
 1100              	.LBE320:
 1101              		.loc 1 172 5 view .LVU350
 1102              	.LBB321:
 1103              	.LBI321:
 1104              		.loc 1 210 6 view .LVU351
 1105              	.LBB322:
 1106              		.loc 1 211 5 view .LVU352
 1107 00b8 0D48     		ldr	r0, .L51
 1108 00ba FFF7FEFF 		bl	chMtxLock
 1109              	.LVL48:
 1110              		.loc 1 212 5 view .LVU353
 1111              	.LBB323:
 1112              		.loc 1 212 10 view .LVU354
 1113              		.loc 1 212 23 view .LVU355
 1114 00be 1D4B     		ldr	r3, .L51+68
 1115 00c0 03F14B02 		add	r2, r3, #75
 1116              	.LVL49:
 1117              	.L48:
 1118              	.LBB324:
 1119              		.loc 1 213 9 view .LVU356
 1120              		.loc 1 213 23 is_stmt 0 view .LVU357
 1121 00c4 1C70     		strb	r4, [r3]
 1122              	.LBE324:
 1123              		.loc 1 212 23 view .LVU358
 1124 00c6 0333     		adds	r3, r3, #3
 1125              	.LBB325:
 1126              		.loc 1 213 23 view .LVU359
 1127 00c8 03F8024C 		strb	r4, [r3, #-2]
 1128 00cc 03F8014C 		strb	r4, [r3, #-1]
 1129              	.LBE325:
 1130              		.loc 1 212 43 is_stmt 1 view .LVU360
 1131              		.loc 1 212 23 view .LVU361
 1132 00d0 9342     		cmp	r3, r2
 1133 00d2 F7D1     		bne	.L48
 1134              	.LBE323:
 1135              		.loc 1 214 5 view .LVU362
 1136 00d4 0648     		ldr	r0, .L51
 1137 00d6 FFF7FEFF 		bl	chMtxUnlock
 1138              	.LVL50:
 1139              	.LBE322:
ARM GAS  C:\Users\DEVELO~1\AppData\Local\Temp\ccCRkMgx.s 			page 21


 1140              	.LBE321:
 1141              		.loc 1 174 5 view .LVU363
 1142 00da 174B     		ldr	r3, .L51+72
 1143 00dc 8022     		movs	r2, #128
 1144 00de 4FF4F871 		mov	r1, #496
 1145 00e2 0094     		str	r4, [sp]
 1146 00e4 1548     		ldr	r0, .L51+76
 1147 00e6 FFF7FEFF 		bl	chThdCreateStatic
 1148              	.LVL51:
 1149              		.loc 1 179 1 is_stmt 0 view .LVU364
 1150 00ea 03B0     		add	sp, sp, #12
 1151              		.cfi_def_cfa_offset 12
 1152              		@ sp needed
 1153 00ec 30BD     		pop	{r4, r5, pc}
 1154              	.L52:
 1155 00ee 00BF     		.align	2
 1156              	.L51:
 1157 00f0 00000000 		.word	.LANCHOR12
 1158 00f4 00000000 		.word	.LANCHOR3
 1159 00f8 00000000 		.word	.LANCHOR2
 1160 00fc 00000000 		.word	.LANCHOR11
 1161 0100 00000000 		.word	.LANCHOR8
 1162 0104 00000000 		.word	.LANCHOR7
 1163 0108 00000000 		.word	.LANCHOR6
 1164 010c 00000000 		.word	.LANCHOR4
 1165 0110 00000000 		.word	.LANCHOR10
 1166 0114 00000000 		.word	.LANCHOR9
 1167 0118 00000000 		.word	.LANCHOR5
 1168 011c 00440258 		.word	1476543488
 1169 0120 00040140 		.word	1073808384
 1170 0124 00000000 		.word	.LANCHOR13
 1171 0128 00000000 		.word	ws_dma_callback
 1172 012c 38040140 		.word	1073808440
 1173 0130 00000000 		.word	.LANCHOR14
 1174 0134 00000000 		.word	.LANCHOR0
 1175 0138 00000000 		.word	led_dma_thread
 1176 013c 00000000 		.word	.LANCHOR15
 1177              		.cfi_endproc
 1178              	.LFE438:
 1179              		.size	drv_leds_addr_init, .-drv_leds_addr_init
 1180              		.section	.text.drv_leds_addr_update,"ax",%progbits
 1181              		.align	1
 1182              		.p2align 4,,15
 1183              		.global	drv_leds_addr_update
 1184              		.syntax unified
 1185              		.thumb
 1186              		.thumb_func
 1187              		.type	drv_leds_addr_update, %function
 1188              	drv_leds_addr_update:
 1189              	.LFB439:
 1190              		.loc 1 181 33 is_stmt 1 view -0
 1191              		.cfi_startproc
 1192              		@ args = 0, pretend = 0, frame = 0
 1193              		@ frame_needed = 0, uses_anonymous_args = 0
 1194              		.loc 1 182 5 view .LVU366
 1195              		.loc 1 181 33 is_stmt 0 view .LVU367
 1196 0000 70B5     		push	{r4, r5, r6, lr}
ARM GAS  C:\Users\DEVELO~1\AppData\Local\Temp\ccCRkMgx.s 			page 22


 1197              		.cfi_def_cfa_offset 16
 1198              		.cfi_offset 4, -16
 1199              		.cfi_offset 5, -12
 1200              		.cfi_offset 6, -8
 1201              		.cfi_offset 14, -4
 1202              		.loc 1 183 9 view .LVU368
 1203 0002 1F4C     		ldr	r4, .L59
 1204              		.loc 1 182 5 view .LVU369
 1205 0004 1F48     		ldr	r0, .L59+4
 1206 0006 FFF7FEFF 		bl	chMtxLock
 1207              	.LVL52:
 1208              		.loc 1 183 5 is_stmt 1 view .LVU370
 1209              		.loc 1 183 9 is_stmt 0 view .LVU371
 1210 000a 2378     		ldrb	r3, [r4]	@ zero_extendqisi2
 1211              		.loc 1 183 8 view .LVU372
 1212 000c 23B9     		cbnz	r3, .L54
 1213 000e 03F0FF05 		and	r5, r3, #255
 1214              		.loc 1 183 25 discriminator 1 view .LVU373
 1215 0012 1D4B     		ldr	r3, .L59+8
 1216 0014 1B78     		ldrb	r3, [r3]	@ zero_extendqisi2
 1217              		.loc 1 183 22 discriminator 1 view .LVU374
 1218 0016 23B9     		cbnz	r3, .L55
 1219              	.L54:
 1220              		.loc 1 184 9 is_stmt 1 view .LVU375
 1221 0018 1A48     		ldr	r0, .L59+4
 1222              		.loc 1 192 1 is_stmt 0 view .LVU376
 1223 001a BDE87040 		pop	{r4, r5, r6, lr}
 1224              		.cfi_remember_state
 1225              		.cfi_restore 14
 1226              		.cfi_restore 6
 1227              		.cfi_restore 5
 1228              		.cfi_restore 4
 1229              		.cfi_def_cfa_offset 0
 1230              		.loc 1 184 9 view .LVU377
 1231 001e FFF7FEBF 		b	chMtxUnlock
 1232              	.LVL53:
 1233              	.L55:
 1234              		.cfi_restore_state
 1235              		.loc 1 188 5 is_stmt 1 view .LVU378
 1236              	.LBB333:
 1237              	.LBB334:
 1238              		.loc 1 138 5 is_stmt 0 view .LVU379
 1239 0022 1A4E     		ldr	r6, .L59+12
 1240              	.LBE334:
 1241              	.LBE333:
 1242              		.loc 1 188 5 view .LVU380
 1243 0024 FFF7FEFF 		bl	ws_prepare_buffer
 1244              	.LVL54:
 1245              		.loc 1 189 5 is_stmt 1 view .LVU381
 1246              	.LBB350:
 1247              	.LBI333:
 1248              		.loc 1 135 20 view .LVU382
 1249              	.LBB347:
 1250              		.loc 1 136 5 view .LVU383
 1251              	.LBB335:
 1252              	.LBI335:
 1253              		.loc 1 73 20 view .LVU384
ARM GAS  C:\Users\DEVELO~1\AppData\Local\Temp\ccCRkMgx.s 			page 23


 1254              	.LBB336:
 1255              		.loc 1 74 5 view .LVU385
 1256              		.loc 1 74 17 is_stmt 0 view .LVU386
 1257 0028 194B     		ldr	r3, .L59+16
 1258 002a 0122     		movs	r2, #1
 1259              	.LBE336:
 1260              	.LBE335:
 1261              		.loc 1 138 5 view .LVU387
 1262 002c 3168     		ldr	r1, [r6]
 1263              	.LBB339:
 1264              	.LBB337:
 1265              		.loc 1 74 17 view .LVU388
 1266 002e 5A61     		str	r2, [r3, #20]
 1267              		.loc 1 75 5 is_stmt 1 view .LVU389
 1268              	.LBE337:
 1269              	.LBE339:
 1270              		.loc 1 138 5 is_stmt 0 view .LVU390
 1271 0030 0A68     		ldr	r2, [r1]
 1272              	.LBB340:
 1273              	.LBB338:
 1274              		.loc 1 75 17 view .LVU391
 1275 0032 5D62     		str	r5, [r3, #36]
 1276              	.LBE338:
 1277              	.LBE340:
 1278              		.loc 1 138 5 is_stmt 1 view .LVU392
 1279 0034 1368     		ldr	r3, [r2]
 1280 0036 23F01F03 		bic	r3, r3, #31
 1281 003a 1360     		str	r3, [r2]
 1282              		.loc 1 138 5 view .LVU393
 1283              	.L56:
 1284              		.loc 1 138 5 view .LVU394
 1285 003c 1368     		ldr	r3, [r2]
 1286 003e DB07     		lsls	r3, r3, #31
 1287 0040 FCD4     		bmi	.L56
 1288              		.loc 1 138 5 view .LVU395
 1289 0042 4868     		ldr	r0, [r1, #4]
 1290 0044 3D23     		movs	r3, #61
 1291 0046 097B     		ldrb	r1, [r1, #12]	@ zero_extendqisi2
 1292 0048 8B40     		lsls	r3, r3, r1
 1293              		.loc 1 139 5 is_stmt 0 view .LVU396
 1294 004a 1249     		ldr	r1, .L59+20
 1295              		.loc 1 138 5 view .LVU397
 1296 004c 0360     		str	r3, [r0]
 1297              		.loc 1 138 5 is_stmt 1 view .LVU398
 1298              		.loc 1 138 36 view .LVU399
 1299              		.loc 1 139 5 view .LVU400
 1300              		.loc 1 141 5 is_stmt 0 view .LVU401
 1301 004e 124B     		ldr	r3, .L59+24
 1302              		.loc 1 139 5 view .LVU402
 1303 0050 D160     		str	r1, [r2, #12]
 1304              		.loc 1 139 51 is_stmt 1 view .LVU403
 1305              		.loc 1 140 5 view .LVU404
 1306 0052 4FF42A71 		mov	r1, #680
 1307              		.loc 1 141 5 is_stmt 0 view .LVU405
 1308 0056 1B68     		ldr	r3, [r3]
 1309              		.loc 1 140 5 view .LVU406
 1310 0058 5160     		str	r1, [r2, #4]
ARM GAS  C:\Users\DEVELO~1\AppData\Local\Temp\ccCRkMgx.s 			page 24


 1311              		.loc 1 140 64 is_stmt 1 view .LVU407
 1312              		.loc 1 141 5 view .LVU408
 1313 005a 1360     		str	r3, [r2]
 1314              		.loc 1 141 49 view .LVU409
 1315              		.loc 1 149 5 view .LVU410
 1316              		.loc 1 149 18 is_stmt 0 view .LVU411
 1317 005c 0123     		movs	r3, #1
 1318 005e 2370     		strb	r3, [r4]
 1319              		.loc 1 150 5 is_stmt 1 view .LVU412
 1320              	.LBB341:
 1321              	.LBI341:
 1322              		.loc 7 122 25 view .LVU413
 1323              		.loc 7 127 3 view .LVU414
 1324              	.LBB342:
 1325              	.LBI342:
 1326              		.loc 8 111 25 view .LVU415
 1327              	.LBB343:
 1328              		.loc 8 113 3 view .LVU416
 1329              		.loc 8 113 10 is_stmt 0 view .LVU417
 1330 0060 FFF7FEFF 		bl	stGetCounter
 1331              	.LVL55:
 1332              	.LBE343:
 1333              	.LBE342:
 1334              	.LBE341:
 1335              		.loc 1 151 5 view .LVU418
 1336 0064 3268     		ldr	r2, [r6]
 1337              	.LBB346:
 1338              	.LBB345:
 1339              	.LBB344:
 1340              		.loc 8 113 10 view .LVU419
 1341 0066 0346     		mov	r3, r0
 1342              	.LBE344:
 1343              	.LBE345:
 1344              	.LBE346:
 1345              		.loc 1 150 22 view .LVU420
 1346 0068 0C49     		ldr	r1, .L59+28
 1347              		.loc 1 151 5 view .LVU421
 1348 006a 1268     		ldr	r2, [r2]
 1349              		.loc 1 150 22 view .LVU422
 1350 006c 0B60     		str	r3, [r1]
 1351              		.loc 1 151 5 is_stmt 1 view .LVU423
 1352 006e 1368     		ldr	r3, [r2]
 1353              	.LBE347:
 1354              	.LBE350:
 1355              		.loc 1 191 5 is_stmt 0 view .LVU424
 1356 0070 0448     		ldr	r0, .L59+4
 1357              	.LBB351:
 1358              	.LBB348:
 1359              		.loc 1 151 5 view .LVU425
 1360 0072 43F00103 		orr	r3, r3, #1
 1361              	.LBE348:
 1362              	.LBE351:
 1363              		.loc 1 192 1 view .LVU426
 1364 0076 BDE87040 		pop	{r4, r5, r6, lr}
 1365              		.cfi_restore 14
 1366              		.cfi_restore 6
 1367              		.cfi_restore 5
ARM GAS  C:\Users\DEVELO~1\AppData\Local\Temp\ccCRkMgx.s 			page 25


 1368              		.cfi_restore 4
 1369              		.cfi_def_cfa_offset 0
 1370              	.LBB352:
 1371              	.LBB349:
 1372              		.loc 1 151 5 view .LVU427
 1373 007a 1360     		str	r3, [r2]
 1374              		.loc 1 151 35 is_stmt 1 view .LVU428
 1375              	.LBE349:
 1376              	.LBE352:
 1377              		.loc 1 191 5 view .LVU429
 1378 007c FFF7FEBF 		b	chMtxUnlock
 1379              	.LVL56:
 1380              	.L60:
 1381              		.align	2
 1382              	.L59:
 1383 0080 00000000 		.word	.LANCHOR3
 1384 0084 00000000 		.word	.LANCHOR12
 1385 0088 00000000 		.word	.LANCHOR10
 1386 008c 00000000 		.word	.LANCHOR13
 1387 0090 00040140 		.word	1073808384
 1388 0094 00000000 		.word	.LANCHOR1
 1389 0098 00000000 		.word	.LANCHOR14
 1390 009c 00000000 		.word	.LANCHOR7
 1391              		.cfi_endproc
 1392              	.LFE439:
 1393              		.size	drv_leds_addr_update, .-drv_leds_addr_update
 1394              		.section	.text.drv_leds_addr_set_rgb,"ax",%progbits
 1395              		.align	1
 1396              		.p2align 4,,15
 1397              		.global	drv_leds_addr_set_rgb
 1398              		.syntax unified
 1399              		.thumb
 1400              		.thumb_func
 1401              		.type	drv_leds_addr_set_rgb, %function
 1402              	drv_leds_addr_set_rgb:
 1403              	.LVL57:
 1404              	.LFB440:
 1405              		.loc 1 194 72 view -0
 1406              		.cfi_startproc
 1407              		@ args = 0, pretend = 0, frame = 0
 1408              		@ frame_needed = 0, uses_anonymous_args = 0
 1409              		.loc 1 195 5 view .LVU431
 1410              		.loc 1 195 8 is_stmt 0 view .LVU432
 1411 0000 1828     		cmp	r0, #24
 1412 0002 00D9     		bls	.L66
 1413 0004 7047     		bx	lr
 1414              	.L66:
 1415              		.loc 1 196 5 is_stmt 1 view .LVU433
 1416              		.loc 1 194 72 is_stmt 0 view .LVU434
 1417 0006 F8B5     		push	{r3, r4, r5, r6, r7, lr}
 1418              		.cfi_def_cfa_offset 24
 1419              		.cfi_offset 3, -24
 1420              		.cfi_offset 4, -20
 1421              		.cfi_offset 5, -16
 1422              		.cfi_offset 6, -12
 1423              		.cfi_offset 7, -8
 1424              		.cfi_offset 14, -4
ARM GAS  C:\Users\DEVELO~1\AppData\Local\Temp\ccCRkMgx.s 			page 26


 1425 0008 0446     		mov	r4, r0
 1426              		.loc 1 196 5 view .LVU435
 1427 000a 0948     		ldr	r0, .L67
 1428              	.LVL58:
 1429              		.loc 1 196 5 view .LVU436
 1430 000c 1D46     		mov	r5, r3
 1431 000e 0E46     		mov	r6, r1
 1432 0010 1746     		mov	r7, r2
 1433              		.loc 1 197 25 view .LVU437
 1434 0012 04EB4404 		add	r4, r4, r4, lsl #1
 1435              	.LVL59:
 1436              		.loc 1 196 5 view .LVU438
 1437 0016 FFF7FEFF 		bl	chMtxLock
 1438              	.LVL60:
 1439              		.loc 1 197 5 is_stmt 1 view .LVU439
 1440              		.loc 1 197 25 is_stmt 0 view .LVU440
 1441 001a 064B     		ldr	r3, .L67+4
 1442              		.loc 1 200 5 view .LVU441
 1443 001c 0448     		ldr	r0, .L67
 1444              		.loc 1 198 25 view .LVU442
 1445 001e 1F55     		strb	r7, [r3, r4]
 1446              		.loc 1 197 25 view .LVU443
 1447 0020 2344     		add	r3, r3, r4
 1448 0022 5E70     		strb	r6, [r3, #1]
 1449              		.loc 1 198 5 is_stmt 1 view .LVU444
 1450              		.loc 1 199 5 view .LVU445
 1451              		.loc 1 199 25 is_stmt 0 view .LVU446
 1452 0024 9D70     		strb	r5, [r3, #2]
 1453              		.loc 1 200 5 is_stmt 1 view .LVU447
 1454              		.loc 1 201 1 is_stmt 0 view .LVU448
 1455 0026 BDE8F840 		pop	{r3, r4, r5, r6, r7, lr}
 1456              		.cfi_restore 14
 1457              		.cfi_restore 7
 1458              		.cfi_restore 6
 1459              		.cfi_restore 5
 1460              		.cfi_restore 4
 1461              		.cfi_restore 3
 1462              		.cfi_def_cfa_offset 0
 1463              		.loc 1 200 5 view .LVU449
 1464 002a FFF7FEBF 		b	chMtxUnlock
 1465              	.LVL61:
 1466              	.L68:
 1467 002e 00BF     		.align	2
 1468              	.L67:
 1469 0030 00000000 		.word	.LANCHOR12
 1470 0034 00000000 		.word	.LANCHOR0
 1471              		.cfi_endproc
 1472              	.LFE440:
 1473              		.size	drv_leds_addr_set_rgb, .-drv_leds_addr_set_rgb
 1474              		.section	.text.drv_leds_addr_set_color,"ax",%progbits
 1475              		.align	1
 1476              		.p2align 4,,15
 1477              		.global	drv_leds_addr_set_color
 1478              		.syntax unified
 1479              		.thumb
 1480              		.thumb_func
 1481              		.type	drv_leds_addr_set_color, %function
ARM GAS  C:\Users\DEVELO~1\AppData\Local\Temp\ccCRkMgx.s 			page 27


 1482              	drv_leds_addr_set_color:
 1483              	.LVL62:
 1484              	.LFB441:
 1485              		.loc 1 203 60 is_stmt 1 view -0
 1486              		.cfi_startproc
 1487              		@ args = 0, pretend = 0, frame = 8
 1488              		@ frame_needed = 0, uses_anonymous_args = 0
 1489              		.loc 1 204 5 view .LVU451
 1490              		.loc 1 203 60 is_stmt 0 view .LVU452
 1491 0000 10B5     		push	{r4, lr}
 1492              		.cfi_def_cfa_offset 8
 1493              		.cfi_offset 4, -8
 1494              		.cfi_offset 14, -4
 1495              		.loc 1 204 8 view .LVU453
 1496 0002 1828     		cmp	r0, #24
 1497              		.loc 1 203 60 view .LVU454
 1498 0004 82B0     		sub	sp, sp, #8
 1499              		.cfi_def_cfa_offset 16
 1500              		.loc 1 203 60 view .LVU455
 1501 0006 0191     		str	r1, [sp, #4]
 1502              		.loc 1 204 8 view .LVU456
 1503 0008 01D9     		bls	.L72
 1504              		.loc 1 208 1 view .LVU457
 1505 000a 02B0     		add	sp, sp, #8
 1506              		.cfi_remember_state
 1507              		.cfi_def_cfa_offset 8
 1508              		@ sp needed
 1509 000c 10BD     		pop	{r4, pc}
 1510              	.L72:
 1511              		.cfi_restore_state
 1512              		.loc 1 205 5 is_stmt 1 view .LVU458
 1513 000e 0446     		mov	r4, r0
 1514 0010 0948     		ldr	r0, .L73
 1515              	.LVL63:
 1516              		.loc 1 205 5 is_stmt 0 view .LVU459
 1517 0012 FFF7FEFF 		bl	chMtxLock
 1518              	.LVL64:
 1519              		.loc 1 206 5 is_stmt 1 view .LVU460
 1520              		.loc 1 206 23 is_stmt 0 view .LVU461
 1521 0016 094B     		ldr	r3, .L73+4
 1522 0018 04EB4404 		add	r4, r4, r4, lsl #1
 1523              	.LVL65:
 1524              		.loc 1 206 23 view .LVU462
 1525 001c BDF804C0 		ldrh	ip, [sp, #4]	@ unaligned
 1526 0020 9DF80610 		ldrb	r1, [sp, #6]	@ zero_extendqisi2
 1527 0024 1A19     		adds	r2, r3, r4
 1528              		.loc 1 207 5 view .LVU463
 1529 0026 0448     		ldr	r0, .L73
 1530              		.loc 1 206 23 view .LVU464
 1531 0028 23F804C0 		strh	ip, [r3, r4]	@ unaligned
 1532 002c 9170     		strb	r1, [r2, #2]
 1533              		.loc 1 207 5 is_stmt 1 view .LVU465
 1534              		.loc 1 208 1 is_stmt 0 view .LVU466
 1535 002e 02B0     		add	sp, sp, #8
 1536              		.cfi_def_cfa_offset 8
 1537              		@ sp needed
 1538 0030 BDE81040 		pop	{r4, lr}
ARM GAS  C:\Users\DEVELO~1\AppData\Local\Temp\ccCRkMgx.s 			page 28


 1539              		.cfi_restore 14
 1540              		.cfi_restore 4
 1541              		.cfi_def_cfa_offset 0
 1542              		.loc 1 207 5 view .LVU467
 1543 0034 FFF7FEBF 		b	chMtxUnlock
 1544              	.LVL66:
 1545              	.L74:
 1546              		.align	2
 1547              	.L73:
 1548 0038 00000000 		.word	.LANCHOR12
 1549 003c 00000000 		.word	.LANCHOR0
 1550              		.cfi_endproc
 1551              	.LFE441:
 1552              		.size	drv_leds_addr_set_color, .-drv_leds_addr_set_color
 1553              		.section	.text.drv_leds_addr_clear,"ax",%progbits
 1554              		.align	1
 1555              		.p2align 4,,15
 1556              		.global	drv_leds_addr_clear
 1557              		.syntax unified
 1558              		.thumb
 1559              		.thumb_func
 1560              		.type	drv_leds_addr_clear, %function
 1561              	drv_leds_addr_clear:
 1562              	.LFB442:
 1563              		.loc 1 210 32 is_stmt 1 view -0
 1564              		.cfi_startproc
 1565              		@ args = 0, pretend = 0, frame = 0
 1566              		@ frame_needed = 0, uses_anonymous_args = 0
 1567              		.loc 1 211 5 view .LVU469
 1568              		.loc 1 210 32 is_stmt 0 view .LVU470
 1569 0000 08B5     		push	{r3, lr}
 1570              		.cfi_def_cfa_offset 8
 1571              		.cfi_offset 3, -8
 1572              		.cfi_offset 14, -4
 1573              		.loc 1 211 5 view .LVU471
 1574 0002 0A48     		ldr	r0, .L79
 1575 0004 FFF7FEFF 		bl	chMtxLock
 1576              	.LVL67:
 1577              		.loc 1 212 5 is_stmt 1 view .LVU472
 1578              	.LBB353:
 1579              		.loc 1 212 10 view .LVU473
 1580              		.loc 1 212 23 view .LVU474
 1581 0008 094B     		ldr	r3, .L79+4
 1582              	.LBB354:
 1583              		.loc 1 213 23 is_stmt 0 view .LVU475
 1584 000a 0022     		movs	r2, #0
 1585 000c 03F14B01 		add	r1, r3, #75
 1586              	.LVL68:
 1587              	.L76:
 1588              		.loc 1 213 9 is_stmt 1 discriminator 3 view .LVU476
 1589              		.loc 1 213 23 is_stmt 0 discriminator 3 view .LVU477
 1590 0010 1A70     		strb	r2, [r3]
 1591              	.LBE354:
 1592              		.loc 1 212 23 discriminator 3 view .LVU478
 1593 0012 0333     		adds	r3, r3, #3
 1594              	.LBB355:
 1595              		.loc 1 213 23 discriminator 3 view .LVU479
ARM GAS  C:\Users\DEVELO~1\AppData\Local\Temp\ccCRkMgx.s 			page 29


 1596 0014 03F8022C 		strb	r2, [r3, #-2]
 1597 0018 03F8012C 		strb	r2, [r3, #-1]
 1598              	.LBE355:
 1599              		.loc 1 212 43 is_stmt 1 discriminator 3 view .LVU480
 1600              		.loc 1 212 23 discriminator 3 view .LVU481
 1601 001c 8B42     		cmp	r3, r1
 1602 001e F7D1     		bne	.L76
 1603              	.LBE353:
 1604              		.loc 1 214 5 view .LVU482
 1605 0020 0248     		ldr	r0, .L79
 1606              		.loc 1 215 1 is_stmt 0 view .LVU483
 1607 0022 BDE80840 		pop	{r3, lr}
 1608              		.cfi_restore 14
 1609              		.cfi_restore 3
 1610              		.cfi_def_cfa_offset 0
 1611              		.loc 1 214 5 view .LVU484
 1612 0026 FFF7FEBF 		b	chMtxUnlock
 1613              	.LVL69:
 1614              	.L80:
 1615 002a 00BF     		.align	2
 1616              	.L79:
 1617 002c 00000000 		.word	.LANCHOR12
 1618 0030 00000000 		.word	.LANCHOR0
 1619              		.cfi_endproc
 1620              	.LFE442:
 1621              		.size	drv_leds_addr_clear, .-drv_leds_addr_clear
 1622              		.section	.text.drv_leds_addr_set,"ax",%progbits
 1623              		.align	1
 1624              		.p2align 4,,15
 1625              		.global	drv_leds_addr_set
 1626              		.syntax unified
 1627              		.thumb
 1628              		.thumb_func
 1629              		.type	drv_leds_addr_set, %function
 1630              	drv_leds_addr_set:
 1631              	.LVL70:
 1632              	.LFB443:
 1633              		.loc 1 217 71 is_stmt 1 view -0
 1634              		.cfi_startproc
 1635              		@ args = 0, pretend = 0, frame = 8
 1636              		@ frame_needed = 0, uses_anonymous_args = 0
 1637              		.loc 1 218 5 view .LVU486
 1638              		.loc 1 217 71 is_stmt 0 view .LVU487
 1639 0000 30B5     		push	{r4, r5, lr}
 1640              		.cfi_def_cfa_offset 12
 1641              		.cfi_offset 4, -12
 1642              		.cfi_offset 5, -8
 1643              		.cfi_offset 14, -4
 1644              		.loc 1 218 8 view .LVU488
 1645 0002 1828     		cmp	r0, #24
 1646              		.loc 1 217 71 view .LVU489
 1647 0004 83B0     		sub	sp, sp, #12
 1648              		.cfi_def_cfa_offset 24
 1649              		.loc 1 217 71 view .LVU490
 1650 0006 0191     		str	r1, [sp, #4]
 1651              		.loc 1 218 8 view .LVU491
 1652 0008 01D9     		bls	.L84
ARM GAS  C:\Users\DEVELO~1\AppData\Local\Temp\ccCRkMgx.s 			page 30


 1653              		.loc 1 223 1 view .LVU492
 1654 000a 03B0     		add	sp, sp, #12
 1655              		.cfi_remember_state
 1656              		.cfi_def_cfa_offset 12
 1657              		@ sp needed
 1658 000c 30BD     		pop	{r4, r5, pc}
 1659              	.L84:
 1660              		.cfi_restore_state
 1661              		.loc 1 219 5 is_stmt 1 view .LVU493
 1662 000e 0446     		mov	r4, r0
 1663 0010 0948     		ldr	r0, .L85
 1664              	.LVL71:
 1665              		.loc 1 219 5 is_stmt 0 view .LVU494
 1666 0012 1546     		mov	r5, r2
 1667 0014 FFF7FEFF 		bl	chMtxLock
 1668              	.LVL72:
 1669              		.loc 1 220 5 is_stmt 1 view .LVU495
 1670              		.loc 1 220 38 is_stmt 0 view .LVU496
 1671 0018 019A     		ldr	r2, [sp, #4]
 1672 001a 084B     		ldr	r3, .L85+4
 1673              		.loc 1 222 5 view .LVU497
 1674 001c 0648     		ldr	r0, .L85
 1675              		.loc 1 220 38 view .LVU498
 1676 001e 03EB8401 		add	r1, r3, r4, lsl #2
 1677 0022 23F82420 		strh	r2, [r3, r4, lsl #2]	@ movhi
 1678 0026 120C     		lsrs	r2, r2, #16
 1679              		.loc 1 221 38 view .LVU499
 1680 0028 CD70     		strb	r5, [r1, #3]
 1681              		.loc 1 220 38 view .LVU500
 1682 002a 8A70     		strb	r2, [r1, #2]
 1683              		.loc 1 221 5 is_stmt 1 view .LVU501
 1684              		.loc 1 222 5 view .LVU502
 1685              		.loc 1 223 1 is_stmt 0 view .LVU503
 1686 002c 03B0     		add	sp, sp, #12
 1687              		.cfi_def_cfa_offset 12
 1688              		@ sp needed
 1689 002e BDE83040 		pop	{r4, r5, lr}
 1690              		.cfi_restore 14
 1691              		.cfi_restore 5
 1692              		.cfi_restore 4
 1693              		.cfi_def_cfa_offset 0
 1694              	.LVL73:
 1695              		.loc 1 222 5 view .LVU504
 1696 0032 FFF7FEBF 		b	chMtxUnlock
 1697              	.LVL74:
 1698              	.L86:
 1699 0036 00BF     		.align	2
 1700              	.L85:
 1701 0038 00000000 		.word	.LANCHOR12
 1702 003c 00000000 		.word	.LANCHOR16
 1703              		.cfi_endproc
 1704              	.LFE443:
 1705              		.size	drv_leds_addr_set, .-drv_leds_addr_set
 1706              		.section	.text.drv_leds_addr_render,"ax",%progbits
 1707              		.align	1
 1708              		.p2align 4,,15
 1709              		.global	drv_leds_addr_render
ARM GAS  C:\Users\DEVELO~1\AppData\Local\Temp\ccCRkMgx.s 			page 31


 1710              		.syntax unified
 1711              		.thumb
 1712              		.thumb_func
 1713              		.type	drv_leds_addr_render, %function
 1714              	drv_leds_addr_render:
 1715              	.LFB444:
 1716              		.loc 1 225 33 is_stmt 1 view -0
 1717              		.cfi_startproc
 1718              		@ args = 0, pretend = 0, frame = 0
 1719              		@ frame_needed = 0, uses_anonymous_args = 0
 1720              		.loc 1 226 5 view .LVU506
 1721              		.loc 1 227 5 view .LVU507
 1722              		.loc 1 225 33 is_stmt 0 view .LVU508
 1723 0000 70B5     		push	{r4, r5, r6, lr}
 1724              		.cfi_def_cfa_offset 16
 1725              		.cfi_offset 4, -16
 1726              		.cfi_offset 5, -12
 1727              		.cfi_offset 6, -8
 1728              		.cfi_offset 14, -4
 1729              		.loc 1 227 9 view .LVU509
 1730 0002 3D4D     		ldr	r5, .L106
 1731              		.loc 1 231 9 view .LVU510
 1732 0004 3D4C     		ldr	r4, .L106+4
 1733              		.loc 1 227 9 view .LVU511
 1734 0006 2B68     		ldr	r3, [r5]
 1735              		.loc 1 229 5 view .LVU512
 1736 0008 3D48     		ldr	r0, .L106+8
 1737              		.loc 1 227 9 view .LVU513
 1738 000a 0133     		adds	r3, r3, #1
 1739 000c 2B60     		str	r3, [r5]
 1740              		.loc 1 229 5 is_stmt 1 view .LVU514
 1741 000e FFF7FEFF 		bl	chMtxLock
 1742              	.LVL75:
 1743              		.loc 1 231 5 view .LVU515
 1744              		.loc 1 231 9 is_stmt 0 view .LVU516
 1745 0012 2378     		ldrb	r3, [r4]	@ zero_extendqisi2
 1746              		.loc 1 231 8 view .LVU517
 1747 0014 002B     		cmp	r3, #0
 1748 0016 6AD1     		bne	.L88
 1749 0018 03F0FF02 		and	r2, r3, #255
 1750              		.loc 1 231 25 discriminator 1 view .LVU518
 1751 001c 394B     		ldr	r3, .L106+12
 1752 001e 1B78     		ldrb	r3, [r3]	@ zero_extendqisi2
 1753              		.loc 1 231 22 discriminator 1 view .LVU519
 1754 0020 002B     		cmp	r3, #0
 1755 0022 64D0     		beq	.L88
 1756 0024 384E     		ldr	r6, .L106+16
 1757 0026 3346     		mov	r3, r6
 1758 0028 06F14B01 		add	r1, r6, #75
 1759              	.L90:
 1760              	.LBB367:
 1761              	.LBB368:
 1762              		.loc 1 237 9 is_stmt 1 discriminator 3 view .LVU520
 1763              		.loc 1 237 23 is_stmt 0 discriminator 3 view .LVU521
 1764 002c 1A70     		strb	r2, [r3]
 1765              	.LBE368:
 1766              		.loc 1 236 23 discriminator 3 view .LVU522
ARM GAS  C:\Users\DEVELO~1\AppData\Local\Temp\ccCRkMgx.s 			page 32


 1767 002e 0333     		adds	r3, r3, #3
 1768              	.LBB369:
 1769              		.loc 1 237 23 discriminator 3 view .LVU523
 1770 0030 03F8022C 		strb	r2, [r3, #-2]
 1771 0034 03F8012C 		strb	r2, [r3, #-1]
 1772              	.LBE369:
 1773              		.loc 1 236 43 is_stmt 1 discriminator 3 view .LVU524
 1774              		.loc 1 236 23 discriminator 3 view .LVU525
 1775 0038 8B42     		cmp	r3, r1
 1776 003a F7D1     		bne	.L90
 1777              	.LBE367:
 1778              	.LBB370:
 1779              		.loc 1 239 14 is_stmt 0 view .LVU526
 1780 003c 0023     		movs	r3, #0
 1781 003e 3349     		ldr	r1, .L106+20
 1782 0040 04E0     		b	.L95
 1783              	.LVL76:
 1784              	.L105:
 1785              	.LBB371:
 1786              		.loc 1 241 9 view .LVU527
 1787 0042 012A     		cmp	r2, #1
 1788 0044 0FD0     		beq	.L93
 1789              	.LVL77:
 1790              	.L94:
 1791              		.loc 1 241 9 view .LVU528
 1792              	.LBE371:
 1793              		.loc 1 239 43 is_stmt 1 discriminator 2 view .LVU529
 1794 0046 0133     		adds	r3, r3, #1
 1795              	.LVL78:
 1796              		.loc 1 239 23 discriminator 2 view .LVU530
 1797 0048 192B     		cmp	r3, #25
 1798 004a 1CD0     		beq	.L104
 1799              	.LVL79:
 1800              	.L95:
 1801              	.LBB372:
 1802              		.loc 1 240 9 view .LVU531
 1803              		.loc 1 241 9 view .LVU532
 1804              		.loc 1 241 39 is_stmt 0 view .LVU533
 1805 004c 01EB8302 		add	r2, r1, r3, lsl #2
 1806 0050 9800     		lsls	r0, r3, #2
 1807 0052 D278     		ldrb	r2, [r2, #3]	@ zero_extendqisi2
 1808              		.loc 1 241 9 view .LVU534
 1809 0054 022A     		cmp	r2, #2
 1810 0056 46D0     		beq	.L91
 1811 0058 032A     		cmp	r2, #3
 1812 005a F2D1     		bne	.L105
 1813              		.loc 1 249 13 is_stmt 1 view .LVU535
 1814              	.LVL80:
 1815              		.loc 1 250 13 view .LVU536
 1816              		.loc 1 257 9 view .LVU537
 1817              		.loc 1 249 25 is_stmt 0 view .LVU538
 1818 005c 2A68     		ldr	r2, [r5]
 1819 005e 02F01F02 		and	r2, r2, #31
 1820              		.loc 1 257 12 view .LVU539
 1821 0062 9A42     		cmp	r2, r3
 1822 0064 EFD1     		bne	.L94
 1823              	.LVL81:
ARM GAS  C:\Users\DEVELO~1\AppData\Local\Temp\ccCRkMgx.s 			page 33


 1824              	.L93:
 1825              		.loc 1 258 13 is_stmt 1 view .LVU540
 1826              		.loc 1 258 27 is_stmt 0 view .LVU541
 1827 0066 03EB4302 		add	r2, r3, r3, lsl #1
 1828 006a 01EB000C 		add	ip, r1, r0
 1829              	.LBE372:
 1830              		.loc 1 239 43 view .LVU542
 1831 006e 0133     		adds	r3, r3, #1
 1832              	.LVL82:
 1833              	.LBB373:
 1834              		.loc 1 258 27 view .LVU543
 1835 0070 31F800E0 		ldrh	lr, [r1, r0]	@ unaligned
 1836 0074 9CF802C0 		ldrb	ip, [ip, #2]	@ zero_extendqisi2
 1837 0078 B018     		adds	r0, r6, r2
 1838              	.LBE373:
 1839              		.loc 1 239 23 view .LVU544
 1840 007a 192B     		cmp	r3, #25
 1841              	.LBB374:
 1842              		.loc 1 258 27 view .LVU545
 1843 007c 26F802E0 		strh	lr, [r6, r2]	@ unaligned
 1844 0080 80F802C0 		strb	ip, [r0, #2]
 1845              	.LBE374:
 1846              		.loc 1 239 43 is_stmt 1 view .LVU546
 1847              	.LVL83:
 1848              		.loc 1 239 23 view .LVU547
 1849 0084 E2D1     		bne	.L95
 1850              	.L104:
 1851              		.loc 1 239 23 is_stmt 0 view .LVU548
 1852              	.LBE370:
 1853              		.loc 1 262 5 is_stmt 1 view .LVU549
 1854 0086 FFF7FEFF 		bl	ws_prepare_buffer
 1855              	.LVL84:
 1856              		.loc 1 263 5 view .LVU550
 1857              	.LBB376:
 1858              	.LBI376:
 1859              		.loc 1 135 20 view .LVU551
 1860              	.LBB377:
 1861              		.loc 1 136 5 view .LVU552
 1862              	.LBB378:
 1863              	.LBI378:
 1864              		.loc 1 73 20 view .LVU553
 1865              	.LBB379:
 1866              		.loc 1 74 5 view .LVU554
 1867              	.LBE379:
 1868              	.LBE378:
 1869              		.loc 1 138 5 is_stmt 0 view .LVU555
 1870 008a 214D     		ldr	r5, .L106+24
 1871              	.LBB382:
 1872              	.LBB380:
 1873              		.loc 1 74 17 view .LVU556
 1874 008c 214B     		ldr	r3, .L106+28
 1875 008e 0121     		movs	r1, #1
 1876              		.loc 1 75 17 view .LVU557
 1877 0090 0022     		movs	r2, #0
 1878              		.loc 1 74 17 view .LVU558
 1879 0092 5961     		str	r1, [r3, #20]
 1880              		.loc 1 75 5 is_stmt 1 view .LVU559
ARM GAS  C:\Users\DEVELO~1\AppData\Local\Temp\ccCRkMgx.s 			page 34


 1881              	.LBE380:
 1882              	.LBE382:
 1883              		.loc 1 138 5 is_stmt 0 view .LVU560
 1884 0094 2968     		ldr	r1, [r5]
 1885              	.LBB383:
 1886              	.LBB381:
 1887              		.loc 1 75 17 view .LVU561
 1888 0096 5A62     		str	r2, [r3, #36]
 1889              	.LBE381:
 1890              	.LBE383:
 1891              		.loc 1 138 5 is_stmt 1 view .LVU562
 1892 0098 0A68     		ldr	r2, [r1]
 1893 009a 1368     		ldr	r3, [r2]
 1894 009c 23F01F03 		bic	r3, r3, #31
 1895 00a0 1360     		str	r3, [r2]
 1896              		.loc 1 138 5 view .LVU563
 1897              	.L96:
 1898              		.loc 1 138 5 view .LVU564
 1899 00a2 1368     		ldr	r3, [r2]
 1900 00a4 DB07     		lsls	r3, r3, #31
 1901 00a6 FCD4     		bmi	.L96
 1902              		.loc 1 138 5 view .LVU565
 1903 00a8 4868     		ldr	r0, [r1, #4]
 1904 00aa 3D23     		movs	r3, #61
 1905 00ac 097B     		ldrb	r1, [r1, #12]	@ zero_extendqisi2
 1906 00ae 8B40     		lsls	r3, r3, r1
 1907              		.loc 1 139 5 is_stmt 0 view .LVU566
 1908 00b0 1949     		ldr	r1, .L106+32
 1909              		.loc 1 138 5 view .LVU567
 1910 00b2 0360     		str	r3, [r0]
 1911              		.loc 1 138 5 is_stmt 1 view .LVU568
 1912              		.loc 1 138 36 view .LVU569
 1913              		.loc 1 139 5 view .LVU570
 1914              		.loc 1 141 5 is_stmt 0 view .LVU571
 1915 00b4 194B     		ldr	r3, .L106+36
 1916              		.loc 1 139 5 view .LVU572
 1917 00b6 D160     		str	r1, [r2, #12]
 1918              		.loc 1 139 51 is_stmt 1 view .LVU573
 1919              		.loc 1 140 5 view .LVU574
 1920 00b8 4FF42A71 		mov	r1, #680
 1921              		.loc 1 141 5 is_stmt 0 view .LVU575
 1922 00bc 1B68     		ldr	r3, [r3]
 1923              		.loc 1 140 5 view .LVU576
 1924 00be 5160     		str	r1, [r2, #4]
 1925              		.loc 1 140 64 is_stmt 1 view .LVU577
 1926              		.loc 1 141 5 view .LVU578
 1927 00c0 1360     		str	r3, [r2]
 1928              		.loc 1 141 49 view .LVU579
 1929              		.loc 1 149 5 view .LVU580
 1930              		.loc 1 149 18 is_stmt 0 view .LVU581
 1931 00c2 0123     		movs	r3, #1
 1932 00c4 2370     		strb	r3, [r4]
 1933              		.loc 1 150 5 is_stmt 1 view .LVU582
 1934              	.LBB384:
 1935              	.LBI384:
 1936              		.loc 7 122 25 view .LVU583
 1937              		.loc 7 127 3 view .LVU584
ARM GAS  C:\Users\DEVELO~1\AppData\Local\Temp\ccCRkMgx.s 			page 35


 1938              	.LBB385:
 1939              	.LBI385:
 1940              		.loc 8 111 25 view .LVU585
 1941              	.LBB386:
 1942              		.loc 8 113 3 view .LVU586
 1943              		.loc 8 113 10 is_stmt 0 view .LVU587
 1944 00c6 FFF7FEFF 		bl	stGetCounter
 1945              	.LVL85:
 1946              	.LBE386:
 1947              	.LBE385:
 1948              	.LBE384:
 1949              		.loc 1 151 5 view .LVU588
 1950 00ca 2A68     		ldr	r2, [r5]
 1951              	.LBB389:
 1952              	.LBB388:
 1953              	.LBB387:
 1954              		.loc 8 113 10 view .LVU589
 1955 00cc 0346     		mov	r3, r0
 1956              	.LBE387:
 1957              	.LBE388:
 1958              	.LBE389:
 1959              		.loc 1 150 22 view .LVU590
 1960 00ce 1449     		ldr	r1, .L106+40
 1961              		.loc 1 151 5 view .LVU591
 1962 00d0 1268     		ldr	r2, [r2]
 1963              		.loc 1 150 22 view .LVU592
 1964 00d2 0B60     		str	r3, [r1]
 1965              		.loc 1 151 5 is_stmt 1 view .LVU593
 1966 00d4 1368     		ldr	r3, [r2]
 1967              	.LBE377:
 1968              	.LBE376:
 1969              		.loc 1 265 5 is_stmt 0 view .LVU594
 1970 00d6 0A48     		ldr	r0, .L106+8
 1971              	.LBB392:
 1972              	.LBB390:
 1973              		.loc 1 151 5 view .LVU595
 1974 00d8 43F00103 		orr	r3, r3, #1
 1975              	.LBE390:
 1976              	.LBE392:
 1977              		.loc 1 266 1 view .LVU596
 1978 00dc BDE87040 		pop	{r4, r5, r6, lr}
 1979              		.cfi_remember_state
 1980              		.cfi_restore 14
 1981              		.cfi_restore 6
 1982              		.cfi_restore 5
 1983              		.cfi_restore 4
 1984              		.cfi_def_cfa_offset 0
 1985              	.LBB393:
 1986              	.LBB391:
 1987              		.loc 1 151 5 view .LVU597
 1988 00e0 1360     		str	r3, [r2]
 1989              		.loc 1 151 35 is_stmt 1 view .LVU598
 1990              	.LBE391:
 1991              	.LBE393:
 1992              		.loc 1 265 5 view .LVU599
 1993 00e2 FFF7FEBF 		b	chMtxUnlock
 1994              	.LVL86:
ARM GAS  C:\Users\DEVELO~1\AppData\Local\Temp\ccCRkMgx.s 			page 36


 1995              	.L91:
 1996              		.cfi_restore_state
 1997              	.LBB394:
 1998              	.LBB375:
 1999              		.loc 1 246 13 view .LVU600
 2000              		.loc 1 247 13 view .LVU601
 2001              		.loc 1 257 9 view .LVU602
 2002              		.loc 1 246 39 is_stmt 0 view .LVU603
 2003 00e6 2A68     		ldr	r2, [r5]
 2004              		.loc 1 257 12 view .LVU604
 2005 00e8 1206     		lsls	r2, r2, #24
 2006 00ea BCD4     		bmi	.L93
 2007 00ec ABE7     		b	.L94
 2008              	.LVL87:
 2009              	.L88:
 2010              		.loc 1 257 12 view .LVU605
 2011              	.LBE375:
 2012              	.LBE394:
 2013              		.loc 1 232 9 is_stmt 1 view .LVU606
 2014 00ee 0448     		ldr	r0, .L106+8
 2015              		.loc 1 266 1 is_stmt 0 view .LVU607
 2016 00f0 BDE87040 		pop	{r4, r5, r6, lr}
 2017              		.cfi_restore 14
 2018              		.cfi_restore 6
 2019              		.cfi_restore 5
 2020              		.cfi_restore 4
 2021              		.cfi_def_cfa_offset 0
 2022              		.loc 1 232 9 view .LVU608
 2023 00f4 FFF7FEBF 		b	chMtxUnlock
 2024              	.LVL88:
 2025              	.L107:
 2026              		.align	2
 2027              	.L106:
 2028 00f8 00000000 		.word	.LANCHOR17
 2029 00fc 00000000 		.word	.LANCHOR3
 2030 0100 00000000 		.word	.LANCHOR12
 2031 0104 00000000 		.word	.LANCHOR10
 2032 0108 00000000 		.word	.LANCHOR0
 2033 010c 00000000 		.word	.LANCHOR16
 2034 0110 00000000 		.word	.LANCHOR13
 2035 0114 00040140 		.word	1073808384
 2036 0118 00000000 		.word	.LANCHOR1
 2037 011c 00000000 		.word	.LANCHOR14
 2038 0120 00000000 		.word	.LANCHOR7
 2039              		.cfi_endproc
 2040              	.LFE444:
 2041              		.size	drv_leds_addr_render, .-drv_leds_addr_render
 2042              		.section	.text.drv_leds_addr_is_busy,"ax",%progbits
 2043              		.align	1
 2044              		.p2align 4,,15
 2045              		.global	drv_leds_addr_is_busy
 2046              		.syntax unified
 2047              		.thumb
 2048              		.thumb_func
 2049              		.type	drv_leds_addr_is_busy, %function
 2050              	drv_leds_addr_is_busy:
 2051              	.LFB448:
ARM GAS  C:\Users\DEVELO~1\AppData\Local\Temp\ccCRkMgx.s 			page 37


 2052              		.loc 1 342 34 is_stmt 1 view -0
 2053              		.cfi_startproc
 2054              		@ args = 0, pretend = 0, frame = 0
 2055              		@ frame_needed = 0, uses_anonymous_args = 0
 2056              		@ link register save eliminated.
 2057              		.loc 1 343 5 view .LVU610
 2058              		.loc 1 343 12 is_stmt 0 view .LVU611
 2059 0000 014B     		ldr	r3, .L109
 2060 0002 1878     		ldrb	r0, [r3]	@ zero_extendqisi2
 2061              		.loc 1 344 1 view .LVU612
 2062 0004 7047     		bx	lr
 2063              	.L110:
 2064 0006 00BF     		.align	2
 2065              	.L109:
 2066 0008 00000000 		.word	.LANCHOR3
 2067              		.cfi_endproc
 2068              	.LFE448:
 2069              		.size	drv_leds_addr_is_busy, .-drv_leds_addr_is_busy
 2070              		.section	.text.drv_leds_addr_error_count,"ax",%progbits
 2071              		.align	1
 2072              		.p2align 4,,15
 2073              		.global	drv_leds_addr_error_count
 2074              		.syntax unified
 2075              		.thumb
 2076              		.thumb_func
 2077              		.type	drv_leds_addr_error_count, %function
 2078              	drv_leds_addr_error_count:
 2079              	.LFB449:
 2080              		.loc 1 346 42 is_stmt 1 view -0
 2081              		.cfi_startproc
 2082              		@ args = 0, pretend = 0, frame = 0
 2083              		@ frame_needed = 0, uses_anonymous_args = 0
 2084              		@ link register save eliminated.
 2085              		.loc 1 347 5 view .LVU614
 2086              		.loc 1 347 12 is_stmt 0 view .LVU615
 2087 0000 014B     		ldr	r3, .L112
 2088 0002 1868     		ldr	r0, [r3]
 2089              		.loc 1 348 1 view .LVU616
 2090 0004 7047     		bx	lr
 2091              	.L113:
 2092 0006 00BF     		.align	2
 2093              	.L112:
 2094 0008 00000000 		.word	.LANCHOR2
 2095              		.cfi_endproc
 2096              	.LFE449:
 2097              		.size	drv_leds_addr_error_count, .-drv_leds_addr_error_count
 2098              		.section	.text.drv_leds_addr_last_frame_time_us,"ax",%progbits
 2099              		.align	1
 2100              		.p2align 4,,15
 2101              		.global	drv_leds_addr_last_frame_time_us
 2102              		.syntax unified
 2103              		.thumb
 2104              		.thumb_func
 2105              		.type	drv_leds_addr_last_frame_time_us, %function
 2106              	drv_leds_addr_last_frame_time_us:
 2107              	.LFB450:
 2108              		.loc 1 350 49 is_stmt 1 view -0
ARM GAS  C:\Users\DEVELO~1\AppData\Local\Temp\ccCRkMgx.s 			page 38


 2109              		.cfi_startproc
 2110              		@ args = 0, pretend = 0, frame = 0
 2111              		@ frame_needed = 0, uses_anonymous_args = 0
 2112              		@ link register save eliminated.
 2113              		.loc 1 351 5 view .LVU618
 2114              		.loc 1 351 12 is_stmt 0 view .LVU619
 2115 0000 014B     		ldr	r3, .L115
 2116 0002 1868     		ldr	r0, [r3]
 2117              		.loc 1 352 1 view .LVU620
 2118 0004 7047     		bx	lr
 2119              	.L116:
 2120 0006 00BF     		.align	2
 2121              	.L115:
 2122 0008 00000000 		.word	.LANCHOR8
 2123              		.cfi_endproc
 2124              	.LFE450:
 2125              		.size	drv_leds_addr_last_frame_time_us, .-drv_leds_addr_last_frame_time_us
 2126              		.section	.text.drv_leds_addr_retry_exhausted_count,"ax",%progbits
 2127              		.align	1
 2128              		.p2align 4,,15
 2129              		.global	drv_leds_addr_retry_exhausted_count
 2130              		.syntax unified
 2131              		.thumb
 2132              		.thumb_func
 2133              		.type	drv_leds_addr_retry_exhausted_count, %function
 2134              	drv_leds_addr_retry_exhausted_count:
 2135              	.LFB451:
 2136              		.loc 1 354 52 is_stmt 1 view -0
 2137              		.cfi_startproc
 2138              		@ args = 0, pretend = 0, frame = 0
 2139              		@ frame_needed = 0, uses_anonymous_args = 0
 2140              		@ link register save eliminated.
 2141              		.loc 1 355 5 view .LVU622
 2142              		.loc 1 355 12 is_stmt 0 view .LVU623
 2143 0000 014B     		ldr	r3, .L118
 2144 0002 1868     		ldr	r0, [r3]
 2145              		.loc 1 356 1 view .LVU624
 2146 0004 7047     		bx	lr
 2147              	.L119:
 2148 0006 00BF     		.align	2
 2149              	.L118:
 2150 0008 00000000 		.word	.LANCHOR11
 2151              		.cfi_endproc
 2152              	.LFE451:
 2153              		.size	drv_leds_addr_retry_exhausted_count, .-drv_leds_addr_retry_exhausted_count
 2154              		.section	.bss.drv_leds_addr_state,"aw",%nobits
 2155              		.align	2
 2156              		.set	.LANCHOR16,. + 0
 2157              		.type	drv_leds_addr_state, %object
 2158              		.size	drv_leds_addr_state, 100
 2159              	drv_leds_addr_state:
 2160 0000 00000000 		.space	100
 2160      00000000 
 2160      00000000 
 2160      00000000 
 2160      00000000 
 2161              		.section	.bss.last_frame_start,"aw",%nobits
ARM GAS  C:\Users\DEVELO~1\AppData\Local\Temp\ccCRkMgx.s 			page 39


 2162              		.align	2
 2163              		.set	.LANCHOR7,. + 0
 2164              		.type	last_frame_start, %object
 2165              		.size	last_frame_start, 4
 2166              	last_frame_start:
 2167 0000 00000000 		.space	4
 2168              		.section	.bss.last_frame_time_us,"aw",%nobits
 2169              		.align	2
 2170              		.set	.LANCHOR8,. + 0
 2171              		.type	last_frame_time_us, %object
 2172              		.size	last_frame_time_us, 4
 2173              	last_frame_time_us:
 2174 0000 00000000 		.space	4
 2175              		.section	.bss.led_buffer,"aw",%nobits
 2176              		.align	2
 2177              		.set	.LANCHOR0,. + 0
 2178              		.type	led_buffer, %object
 2179              		.size	led_buffer, 75
 2180              	led_buffer:
 2181 0000 00000000 		.space	75
 2181      00000000 
 2181      00000000 
 2181      00000000 
 2181      00000000 
 2182              		.section	.bss.led_dma_busy,"aw",%nobits
 2183              		.set	.LANCHOR3,. + 0
 2184              		.type	led_dma_busy, %object
 2185              		.size	led_dma_busy, 1
 2186              	led_dma_busy:
 2187 0000 00       		.space	1
 2188              		.section	.bss.led_dma_consecutive_errors,"aw",%nobits
 2189              		.align	2
 2190              		.set	.LANCHOR9,. + 0
 2191              		.type	led_dma_consecutive_errors, %object
 2192              		.size	led_dma_consecutive_errors, 4
 2193              	led_dma_consecutive_errors:
 2194 0000 00000000 		.space	4
 2195              		.section	.bss.led_dma_error_pending,"aw",%nobits
 2196              		.set	.LANCHOR4,. + 0
 2197              		.type	led_dma_error_pending, %object
 2198              		.size	led_dma_error_pending, 1
 2199              	led_dma_error_pending:
 2200 0000 00       		.space	1
 2201              		.section	.bss.led_dma_errors,"aw",%nobits
 2202              		.align	2
 2203              		.set	.LANCHOR2,. + 0
 2204              		.type	led_dma_errors, %object
 2205              		.size	led_dma_errors, 4
 2206              	led_dma_errors:
 2207 0000 00000000 		.space	4
 2208              		.section	.bss.led_dma_retry_exhausted,"aw",%nobits
 2209              		.align	2
 2210              		.set	.LANCHOR11,. + 0
 2211              		.type	led_dma_retry_exhausted, %object
 2212              		.size	led_dma_retry_exhausted, 4
 2213              	led_dma_retry_exhausted:
 2214 0000 00000000 		.space	4
ARM GAS  C:\Users\DEVELO~1\AppData\Local\Temp\ccCRkMgx.s 			page 40


 2215              		.section	.bss.led_dma_sem,"aw",%nobits
 2216              		.align	2
 2217              		.set	.LANCHOR5,. + 0
 2218              		.type	led_dma_sem, %object
 2219              		.size	led_dma_sem, 12
 2220              	led_dma_sem:
 2221 0000 00000000 		.space	12
 2221      00000000 
 2221      00000000 
 2222              		.section	.bss.led_dma_tc_pending,"aw",%nobits
 2223              		.set	.LANCHOR6,. + 0
 2224              		.type	led_dma_tc_pending, %object
 2225              		.size	led_dma_tc_pending, 1
 2226              	led_dma_tc_pending:
 2227 0000 00       		.space	1
 2228              		.section	.bss.led_dma_thread_wa,"aw",%nobits
 2229              		.align	3
 2230              		.set	.LANCHOR15,. + 0
 2231              		.type	led_dma_thread_wa, %object
 2232              		.size	led_dma_thread_wa, 736
 2233              	led_dma_thread_wa:
 2234 0000 00000000 		.space	736
 2234      00000000 
 2234      00000000 
 2234      00000000 
 2234      00000000 
 2235              		.section	.bss.leds_mutex,"aw",%nobits
 2236              		.align	2
 2237              		.set	.LANCHOR12,. + 0
 2238              		.type	leds_mutex, %object
 2239              		.size	leds_mutex, 16
 2240              	leds_mutex:
 2241 0000 00000000 		.space	16
 2241      00000000 
 2241      00000000 
 2241      00000000 
 2242              		.section	.bss.tick.0,"aw",%nobits
 2243              		.align	2
 2244              		.set	.LANCHOR17,. + 0
 2245              		.type	tick.0, %object
 2246              		.size	tick.0, 4
 2247              	tick.0:
 2248 0000 00000000 		.space	4
 2249              		.section	.bss.ws_dma_mode,"aw",%nobits
 2250              		.align	2
 2251              		.set	.LANCHOR14,. + 0
 2252              		.type	ws_dma_mode, %object
 2253              		.size	ws_dma_mode, 4
 2254              	ws_dma_mode:
 2255 0000 00000000 		.space	4
 2256              		.section	.bss.ws_dma_stream,"aw",%nobits
 2257              		.align	2
 2258              		.set	.LANCHOR13,. + 0
 2259              		.type	ws_dma_stream, %object
 2260              		.size	ws_dma_stream, 4
 2261              	ws_dma_stream:
 2262 0000 00000000 		.space	4
ARM GAS  C:\Users\DEVELO~1\AppData\Local\Temp\ccCRkMgx.s 			page 41


 2263              		.section	.data.led_dma_enabled,"aw"
 2264              		.set	.LANCHOR10,. + 0
 2265              		.type	led_dma_enabled, %object
 2266              		.size	led_dma_enabled, 1
 2267              	led_dma_enabled:
 2268 0000 01       		.byte	1
 2269              		.section	.ram_d2,"aw"
 2270              		.align	5
 2271              		.set	.LANCHOR1,. + 0
 2272              		.type	pwm_buffer, %object
 2273              		.size	pwm_buffer, 1360
 2274              	pwm_buffer:
 2275 0000 00000000 		.space	1360
 2275      00000000 
 2275      00000000 
 2275      00000000 
 2275      00000000 
 2276              		.text
 2277              	.Letext0:
 2278              		.file 11 "c:\\chibistudio\\tools\\gnu tools arm embedded\\11.3 2022.08\\lib\\gcc\\arm-none-eabi\\1
 2279              		.file 12 "c:\\chibistudio\\tools\\gnu tools arm embedded\\11.3 2022.08\\arm-none-eabi\\include\\ma
 2280              		.file 13 "c:\\chibistudio\\tools\\gnu tools arm embedded\\11.3 2022.08\\arm-none-eabi\\include\\sy
 2281              		.file 14 "../../../os/common/ports/ARM-common/chtypes.h"
 2282              		.file 15 "../../../os/rt/include/chearly.h"
 2283              		.file 16 "../../../os/rt/include/chobjects.h"
 2284              		.file 17 "../../../os/rt/include/chrfcu.h"
 2285              		.file 18 "../../../os/rt/include/chdebug.h"
 2286              		.file 19 "../../../os/rt/include/chlists.h"
 2287              		.file 20 "../../../os/rt/include/chtrace.h"
 2288              		.file 21 "../../../os/common/ext/ST/STM32H7xx/stm32h743xx.h"
 2289              		.file 22 "../../../os/rt/include/chsem.h"
 2290              		.file 23 "../../../os/rt/include/chmtx.h"
 2291              		.file 24 "../../../os/rt/include/chthreads.h"
 2292              		.file 25 "../../../os/hal/ports/STM32/LLD/DMAv2/stm32_dma.h"
 2293              		.file 26 "drivers/drv_leds_addr.h"
 2294              		.file 27 "../../../os/hal/include/hal_st.h"
 2295              		.file 28 "<built-in>"