ARM GAS  C:\Users\DEVELO~1\AppData\Local\Temp\ccWLIQtC.s 			page 1


   1              		.cpu cortex-m7
   2              		.arch armv7e-m
   3              		.fpu softvfp
   4              		.eabi_attribute 20, 1
   5              		.eabi_attribute 21, 1
   6              		.eabi_attribute 23, 3
   7              		.eabi_attribute 24, 1
   8              		.eabi_attribute 25, 1
   9              		.eabi_attribute 26, 1
  10              		.eabi_attribute 30, 2
  11              		.eabi_attribute 34, 1
  12              		.eabi_attribute 18, 4
  13              		.file	"hal.c"
  14              		.text
  15              	.Ltext0:
  16              		.cfi_sections	.debug_frame
  17              		.section	.text.halInit,"ax",%progbits
  18              		.align	1
  19              		.p2align 4,,15
  20              		.global	halInit
  21              		.syntax unified
  22              		.thumb
  23              		.thumb_func
  24              		.type	halInit, %function
  25              	halInit:
  26              	.LFB432:
  27              		.file 1 "../../../os/hal/src/hal.c"
  28              		.loc 1 56 20 view -0
  29              		.cfi_startproc
  30              		@ args = 0, pretend = 0, frame = 0
  31              		@ frame_needed = 0, uses_anonymous_args = 0
  32              		.loc 1 59 3 view .LVU1
  33              		.loc 1 62 3 view .LVU2
  34              		.loc 1 56 20 is_stmt 0 view .LVU3
  35 0000 08B5     		push	{r3, lr}
  36              		.cfi_def_cfa_offset 8
  37              		.cfi_offset 3, -8
  38              		.cfi_offset 14, -4
  39              		.loc 1 62 3 view .LVU4
  40 0002 FFF7FEFF 		bl	hal_lld_init
  41              	.LVL0:
  42              		.loc 1 66 3 is_stmt 1 view .LVU5
  43 0006 FFF7FEFF 		bl	_pal_lld_init
  44              	.LVL1:
  45              		.loc 1 105 3 view .LVU6
  46 000a FFF7FEFF 		bl	sdInit
  47              	.LVL2:
  48              		.loc 1 108 3 view .LVU7
  49 000e FFF7FEFF 		bl	sdcInit
  50              	.LVL3:
  51              		.loc 1 149 3 view .LVU8
  52 0012 FFF7FEFF 		bl	boardInit
  53              	.LVL4:
  54              		.loc 1 156 3 view .LVU9
  55              		.loc 1 158 1 is_stmt 0 view .LVU10
  56 0016 BDE80840 		pop	{r3, lr}
  57              		.cfi_restore 14
ARM GAS  C:\Users\DEVELO~1\AppData\Local\Temp\ccWLIQtC.s 			page 2


  58              		.cfi_restore 3
  59              		.cfi_def_cfa_offset 0
  60              		.loc 1 156 3 view .LVU11
  61 001a FFF7FEBF 		b	stInit
  62              	.LVL5:
  63              		.cfi_endproc
  64              	.LFE432:
  65              		.size	halInit, .-halInit
  66 001e 00BF     		.text
  67              	.Letext0:
  68              		.file 2 "../../../os/hal/include/hal_st.h"
  69              		.file 3 "../../../os/hal/boards/ST_NUCLEO144_H743ZI/board.h"
  70              		.file 4 "../../../os/hal/include/hal_sdc.h"
  71              		.file 5 "../../../os/hal/include/hal_serial.h"
  72              		.file 6 "../../../os/hal/ports/STM32/LLD/GPIOv2/hal_pal_lld.h"
  73              		.file 7 "../../../os/hal/ports/STM32/STM32H7xx/hal_lld.h"
  74              		.file 8 "../../../os/hal/osal/rt-nil/osal.h"