ARM GAS  C:\Users\DEVELO~1\AppData\Local\Temp\ccqj5UtW.s 			page 1


   1              		.cpu cortex-m7
   2              		.arch armv7e-m
   3              		.fpu softvfp
   4              		.eabi_attribute 20, 1
   5              		.eabi_attribute 21, 1
   6              		.eabi_attribute 23, 3
   7              		.eabi_attribute 24, 1
   8              		.eabi_attribute 25, 1
   9              		.eabi_attribute 26, 1
  10              		.eabi_attribute 30, 2
  11              		.eabi_attribute 34, 1
  12              		.eabi_attribute 18, 4
  13              		.file	"hal_sdram.c"
  14              		.text
  15              	.Ltext0:
  16              		.cfi_sections	.debug_frame
  17              		.section	.text.sdramInit,"ax",%progbits
  18              		.align	1
  19              		.p2align 4,,15
  20              		.global	sdramInit
  21              		.syntax unified
  22              		.thumb
  23              		.thumb_func
  24              		.type	sdramInit, %function
  25              	sdramInit:
  26              	.LFB432:
  27              		.file 1 "../../../ChibiOS-Contrib-chibios-21.11.x/os/hal/src/hal_sdram.c"
  28              		.loc 1 60 22 view -0
  29              		.cfi_startproc
  30              		@ args = 0, pretend = 0, frame = 0
  31              		@ frame_needed = 0, uses_anonymous_args = 0
  32              		.loc 1 61 3 view .LVU1
  33              		.loc 1 60 22 is_stmt 0 view .LVU2
  34 0000 08B5     		push	{r3, lr}
  35              		.cfi_def_cfa_offset 8
  36              		.cfi_offset 3, -8
  37              		.cfi_offset 14, -4
  38              		.loc 1 61 3 view .LVU3
  39 0002 FFF7FEFF 		bl	fsmcInit
  40              	.LVL0:
  41              		.loc 1 62 3 is_stmt 1 view .LVU4
  42              	.LBB52:
  43              	.LBI52:
  44              		.loc 1 72 6 view .LVU5
  45              	.LBB53:
  46              		.loc 1 74 3 view .LVU6
  47              		.loc 1 74 25 is_stmt 0 view .LVU7
  48 0006 034A     		ldr	r2, .L4
  49              		.loc 1 74 17 view .LVU8
  50 0008 034B     		ldr	r3, .L4+4
  51              		.loc 1 75 18 view .LVU9
  52 000a 0121     		movs	r1, #1
  53              		.loc 1 74 17 view .LVU10
  54 000c 5268     		ldr	r2, [r2, #4]
  55              		.loc 1 75 18 view .LVU11
  56 000e 1970     		strb	r1, [r3]
  57              		.loc 1 74 17 view .LVU12
ARM GAS  C:\Users\DEVELO~1\AppData\Local\Temp\ccqj5UtW.s 			page 2


  58 0010 5A60     		str	r2, [r3, #4]
  59              		.loc 1 75 3 is_stmt 1 view .LVU13
  60              	.LVL1:
  61              		.loc 1 75 3 is_stmt 0 view .LVU14
  62              	.LBE53:
  63              	.LBE52:
  64              		.loc 1 63 1 view .LVU15
  65 0012 08BD     		pop	{r3, pc}
  66              	.L5:
  67              		.align	2
  68              	.L4:
  69 0014 00000000 		.word	FSMCD1
  70 0018 00000000 		.word	SDRAMD1
  71              		.cfi_endproc
  72              	.LFE432:
  73              		.size	sdramInit, .-sdramInit
  74              		.section	.text.sdramObjectInit,"ax",%progbits
  75              		.align	1
  76              		.p2align 4,,15
  77              		.global	sdramObjectInit
  78              		.syntax unified
  79              		.thumb
  80              		.thumb_func
  81              		.type	sdramObjectInit, %function
  82              	sdramObjectInit:
  83              	.LVL2:
  84              	.LFB433:
  85              		.loc 1 72 43 is_stmt 1 view -0
  86              		.cfi_startproc
  87              		@ args = 0, pretend = 0, frame = 0
  88              		@ frame_needed = 0, uses_anonymous_args = 0
  89              		@ link register save eliminated.
  90              		.loc 1 74 3 view .LVU17
  91              		.loc 1 74 25 is_stmt 0 view .LVU18
  92 0000 024B     		ldr	r3, .L7
  93              		.loc 1 75 18 view .LVU19
  94 0002 0122     		movs	r2, #1
  95              		.loc 1 74 17 view .LVU20
  96 0004 5B68     		ldr	r3, [r3, #4]
  97              		.loc 1 75 18 view .LVU21
  98 0006 0270     		strb	r2, [r0]
  99              		.loc 1 74 17 view .LVU22
 100 0008 4360     		str	r3, [r0, #4]
 101              		.loc 1 75 3 is_stmt 1 view .LVU23
 102              		.loc 1 76 1 is_stmt 0 view .LVU24
 103 000a 7047     		bx	lr
 104              	.L8:
 105              		.align	2
 106              	.L7:
 107 000c 00000000 		.word	FSMCD1
 108              		.cfi_endproc
 109              	.LFE433:
 110              		.size	sdramObjectInit, .-sdramObjectInit
 111              		.section	.text.sdramStart,"ax",%progbits
 112              		.align	1
 113              		.p2align 4,,15
 114              		.global	sdramStart
ARM GAS  C:\Users\DEVELO~1\AppData\Local\Temp\ccqj5UtW.s 			page 3


 115              		.syntax unified
 116              		.thumb
 117              		.thumb_func
 118              		.type	sdramStart, %function
 119              	sdramStart:
 120              	.LVL3:
 121              	.LFB434:
 122              		.loc 1 86 65 is_stmt 1 view -0
 123              		.cfi_startproc
 124              		@ args = 0, pretend = 0, frame = 8
 125              		@ frame_needed = 0, uses_anonymous_args = 0
 126              		.loc 1 88 3 view .LVU26
 127              		.loc 1 88 3 view .LVU27
 128              		.loc 1 88 3 view .LVU28
 129              		.loc 1 90 3 view .LVU29
 130              		.loc 1 90 13 is_stmt 0 view .LVU30
 131 0000 0C4B     		ldr	r3, .L13
 132              		.loc 1 86 65 view .LVU31
 133 0002 10B5     		push	{r4, lr}
 134              		.cfi_def_cfa_offset 8
 135              		.cfi_offset 4, -8
 136              		.cfi_offset 14, -4
 137              		.loc 1 90 6 view .LVU32
 138 0004 1A78     		ldrb	r2, [r3]	@ zero_extendqisi2
 139              		.loc 1 86 65 view .LVU33
 140 0006 82B0     		sub	sp, sp, #8
 141              		.cfi_def_cfa_offset 16
 142              		.loc 1 86 65 view .LVU34
 143 0008 0446     		mov	r4, r0
 144              		.loc 1 90 6 view .LVU35
 145 000a 012A     		cmp	r2, #1
 146 000c 0CD0     		beq	.L12
 147              	.LVL4:
 148              	.L10:
 149              		.loc 1 93 3 is_stmt 1 view .LVU36
 150              	.LBB54:
 151              	.LBI54:
 152              		.file 2 "../../../os/hal/osal/rt-nil/osal.h"
 153              		.loc 2 573 20 view .LVU37
 154              		.loc 2 575 3 view .LVU38
 155              	.LBB55:
 156              	.LBI55:
 157              		.file 3 "../../../os/rt/include/chsys.h"
 158              		.loc 3 407 20 view .LVU39
 159              		.loc 3 409 3 view .LVU40
 160              	.LBB56:
 161              	.LBI56:
 162              		.file 4 "../../../os/common/ports/ARMv7-M/chcore.h"
 163              		.loc 4 823 27 view .LVU41
 164              		.loc 4 831 3 view .LVU42
 165              	.LBB57:
 166              	.LBI57:
 167              		.file 5 "../../../os/common/ext/ARM/CMSIS/Core/Include/cmsis_gcc.h"
 168              		.loc 5 491 27 view .LVU43
 169              	.LBB58:
 170              		.loc 5 493 3 view .LVU44
 171 000e 3023     		movs	r3, #48
ARM GAS  C:\Users\DEVELO~1\AppData\Local\Temp\ccqj5UtW.s 			page 4


 172              		.syntax unified
 173              	@ 493 "../../../os/common/ext/ARM/CMSIS/Core/Include/cmsis_gcc.h" 1
 174 0010 83F31188 		MSR basepri, r3
 175              	@ 0 "" 2
 176              	.LVL5:
 177              		.loc 5 493 3 is_stmt 0 view .LVU45
 178              		.thumb
 179              		.syntax unified
 180              	.LBE58:
 181              	.LBE57:
 182              	.LBE56:
 183              		.loc 3 410 35 is_stmt 1 view .LVU46
 184              		.loc 3 411 21 view .LVU47
 185              	.LBE55:
 186              	.LBE54:
 187              		.loc 1 94 3 view .LVU48
 188              		.loc 1 94 3 view .LVU49
 189              		.loc 1 94 3 view .LVU50
 190              		.loc 1 96 3 view .LVU51
 191 0014 2046     		mov	r0, r4
 192 0016 FFF7FEFF 		bl	sdram_lld_start
 193              	.LVL6:
 194              		.loc 1 97 3 view .LVU52
 195              		.loc 1 97 17 is_stmt 0 view .LVU53
 196 001a 0222     		movs	r2, #2
 197              	.LBB59:
 198              	.LBB60:
 199              	.LBB61:
 200              	.LBB62:
 201              	.LBB63:
 202              	.LBB64:
 203              		.loc 5 493 3 view .LVU54
 204 001c 0023     		movs	r3, #0
 205              	.LBE64:
 206              	.LBE63:
 207              	.LBE62:
 208              	.LBE61:
 209              	.LBE60:
 210              	.LBE59:
 211              		.loc 1 97 17 view .LVU55
 212 001e 2270     		strb	r2, [r4]
 213              		.loc 1 98 3 is_stmt 1 view .LVU56
 214              	.LBB70:
 215              	.LBI59:
 216              		.loc 2 584 20 view .LVU57
 217              		.loc 2 586 3 view .LVU58
 218              	.LBB69:
 219              	.LBI60:
 220              		.loc 3 421 20 view .LVU59
 221              	.LBB68:
 222              		.loc 3 423 23 view .LVU60
 223              		.loc 3 424 34 view .LVU61
 224              		.loc 3 430 3 view .LVU62
 225              		.loc 3 430 3 view .LVU63
 226              		.loc 3 430 3 view .LVU64
 227              		.loc 3 434 3 view .LVU65
 228              	.LBB67:
ARM GAS  C:\Users\DEVELO~1\AppData\Local\Temp\ccqj5UtW.s 			page 5


 229              	.LBI62:
 230              		.loc 4 847 27 view .LVU66
 231              		.loc 4 850 3 view .LVU67
 232              	.LVL7:
 233              	.LBB66:
 234              	.LBI63:
 235              		.loc 5 491 27 view .LVU68
 236              	.LBB65:
 237              		.loc 5 493 3 view .LVU69
 238              		.syntax unified
 239              	@ 493 "../../../os/common/ext/ARM/CMSIS/Core/Include/cmsis_gcc.h" 1
 240 0020 83F31188 		MSR basepri, r3
 241              	@ 0 "" 2
 242              	.LVL8:
 243              		.loc 5 493 3 is_stmt 0 view .LVU70
 244              		.thumb
 245              		.syntax unified
 246              	.LBE65:
 247              	.LBE66:
 248              	.LBE67:
 249              	.LBE68:
 250              	.LBE69:
 251              	.LBE70:
 252              		.loc 1 99 1 view .LVU71
 253 0024 02B0     		add	sp, sp, #8
 254              		.cfi_remember_state
 255              		.cfi_def_cfa_offset 8
 256              		@ sp needed
 257 0026 10BD     		pop	{r4, pc}
 258              	.LVL9:
 259              	.L12:
 260              		.cfi_restore_state
 261              		.loc 1 91 5 view .LVU72
 262 0028 1846     		mov	r0, r3
 263              	.LVL10:
 264              		.loc 1 91 5 view .LVU73
 265 002a 0191     		str	r1, [sp, #4]
 266              		.loc 1 91 5 is_stmt 1 view .LVU74
 267 002c FFF7FEFF 		bl	fsmcStart
 268              	.LVL11:
 269              		.loc 1 91 5 is_stmt 0 view .LVU75
 270 0030 0199     		ldr	r1, [sp, #4]
 271 0032 ECE7     		b	.L10
 272              	.L14:
 273              		.align	2
 274              	.L13:
 275 0034 00000000 		.word	FSMCD1
 276              		.cfi_endproc
 277              	.LFE434:
 278              		.size	sdramStart, .-sdramStart
 279              		.section	.text.sdramStop,"ax",%progbits
 280              		.align	1
 281              		.p2align 4,,15
 282              		.global	sdramStop
 283              		.syntax unified
 284              		.thumb
 285              		.thumb_func
ARM GAS  C:\Users\DEVELO~1\AppData\Local\Temp\ccqj5UtW.s 			page 6


 286              		.type	sdramStop, %function
 287              	sdramStop:
 288              	.LVL12:
 289              	.LFB435:
 290              		.loc 1 108 37 is_stmt 1 view -0
 291              		.cfi_startproc
 292              		@ args = 0, pretend = 0, frame = 0
 293              		@ frame_needed = 0, uses_anonymous_args = 0
 294              		.loc 1 110 3 view .LVU77
 295              		.loc 1 110 3 view .LVU78
 296              		.loc 1 110 3 view .LVU79
 297              		.loc 1 112 3 view .LVU80
 298              	.LBB71:
 299              	.LBI71:
 300              		.loc 2 573 20 view .LVU81
 301              		.loc 2 575 3 view .LVU82
 302              	.LBB72:
 303              	.LBI72:
 304              		.loc 3 407 20 view .LVU83
 305              		.loc 3 409 3 view .LVU84
 306              	.LBB73:
 307              	.LBI73:
 308              		.loc 4 823 27 view .LVU85
 309              		.loc 4 831 3 view .LVU86
 310              	.LBB74:
 311              	.LBI74:
 312              		.loc 5 491 27 view .LVU87
 313              	.LBB75:
 314              		.loc 5 493 3 view .LVU88
 315              	.LBE75:
 316              	.LBE74:
 317              	.LBE73:
 318              	.LBE72:
 319              	.LBE71:
 320              		.loc 1 108 37 is_stmt 0 view .LVU89
 321 0000 10B5     		push	{r4, lr}
 322              		.cfi_def_cfa_offset 8
 323              		.cfi_offset 4, -8
 324              		.cfi_offset 14, -4
 325              	.LBB84:
 326              	.LBB82:
 327              	.LBB80:
 328              	.LBB78:
 329              	.LBB76:
 330              		.loc 5 493 3 view .LVU90
 331 0002 3023     		movs	r3, #48
 332              	.LBE76:
 333              	.LBE78:
 334              	.LBE80:
 335              	.LBE82:
 336              	.LBE84:
 337              		.loc 1 108 37 view .LVU91
 338 0004 0446     		mov	r4, r0
 339              	.LBB85:
 340              	.LBB83:
 341              	.LBB81:
 342              	.LBB79:
ARM GAS  C:\Users\DEVELO~1\AppData\Local\Temp\ccqj5UtW.s 			page 7


 343              	.LBB77:
 344              		.loc 5 493 3 view .LVU92
 345              		.syntax unified
 346              	@ 493 "../../../os/common/ext/ARM/CMSIS/Core/Include/cmsis_gcc.h" 1
 347 0006 83F31188 		MSR basepri, r3
 348              	@ 0 "" 2
 349              	.LVL13:
 350              		.loc 5 493 3 view .LVU93
 351              		.thumb
 352              		.syntax unified
 353              	.LBE77:
 354              	.LBE79:
 355              	.LBE81:
 356              		.loc 3 410 35 is_stmt 1 view .LVU94
 357              		.loc 3 411 21 view .LVU95
 358              	.LBE83:
 359              	.LBE85:
 360              		.loc 1 113 3 view .LVU96
 361              		.loc 1 113 3 view .LVU97
 362              		.loc 1 113 3 view .LVU98
 363              		.loc 1 115 3 view .LVU99
 364 000a FFF7FEFF 		bl	sdram_lld_stop
 365              	.LVL14:
 366              		.loc 1 116 3 view .LVU100
 367              		.loc 1 116 17 is_stmt 0 view .LVU101
 368 000e 0122     		movs	r2, #1
 369              	.LBB86:
 370              	.LBB87:
 371              	.LBB88:
 372              	.LBB89:
 373              	.LBB90:
 374              	.LBB91:
 375              		.loc 5 493 3 view .LVU102
 376 0010 0023     		movs	r3, #0
 377              	.LBE91:
 378              	.LBE90:
 379              	.LBE89:
 380              	.LBE88:
 381              	.LBE87:
 382              	.LBE86:
 383              		.loc 1 116 17 view .LVU103
 384 0012 2270     		strb	r2, [r4]
 385              		.loc 1 117 3 is_stmt 1 view .LVU104
 386              	.LBB97:
 387              	.LBI86:
 388              		.loc 2 584 20 view .LVU105
 389              		.loc 2 586 3 view .LVU106
 390              	.LBB96:
 391              	.LBI87:
 392              		.loc 3 421 20 view .LVU107
 393              	.LBB95:
 394              		.loc 3 423 23 view .LVU108
 395              		.loc 3 424 34 view .LVU109
 396              		.loc 3 430 3 view .LVU110
 397              		.loc 3 430 3 view .LVU111
 398              		.loc 3 430 3 view .LVU112
 399              		.loc 3 434 3 view .LVU113
ARM GAS  C:\Users\DEVELO~1\AppData\Local\Temp\ccqj5UtW.s 			page 8


 400              	.LBB94:
 401              	.LBI89:
 402              		.loc 4 847 27 view .LVU114
 403              		.loc 4 850 3 view .LVU115
 404              	.LVL15:
 405              	.LBB93:
 406              	.LBI90:
 407              		.loc 5 491 27 view .LVU116
 408              	.LBB92:
 409              		.loc 5 493 3 view .LVU117
 410              		.syntax unified
 411              	@ 493 "../../../os/common/ext/ARM/CMSIS/Core/Include/cmsis_gcc.h" 1
 412 0014 83F31188 		MSR basepri, r3
 413              	@ 0 "" 2
 414              	.LVL16:
 415              		.loc 5 493 3 is_stmt 0 view .LVU118
 416              		.thumb
 417              		.syntax unified
 418              	.LBE92:
 419              	.LBE93:
 420              	.LBE94:
 421              	.LBE95:
 422              	.LBE96:
 423              	.LBE97:
 424              		.loc 1 118 1 view .LVU119
 425 0018 10BD     		pop	{r4, pc}
 426              		.loc 1 118 1 view .LVU120
 427              		.cfi_endproc
 428              	.LFE435:
 429              		.size	sdramStop, .-sdramStop
 430 001a 00BF     		.text
 431              	.Letext0:
 432              		.file 6 "c:\\chibistudio\\tools\\gnu tools arm embedded\\11.3 2022.08\\arm-none-eabi\\include\\mac
 433              		.file 7 "c:\\chibistudio\\tools\\gnu tools arm embedded\\11.3 2022.08\\arm-none-eabi\\include\\sys
 434              		.file 8 "../../../ChibiOS-Contrib-chibios-21.11.x/os/hal/include/hal_fsmc.h"
 435              		.file 9 "../../../ChibiOS-Contrib-chibios-21.11.x/os/hal/include/hal_sdram.h"
 436              		.file 10 "../../../ChibiOS-Contrib-chibios-21.11.x/os/hal/ports/STM32/LLD/FSMCv1/hal_sdram_lld.h"
 437              		.section	.debug_info,"",%progbits
 438              	.Ldebug_info0:
 439 0000 B4050000 		.4byte	0x5b4
 440 0004 0500     		.2byte	0x5
 441 0006 01       		.byte	0x1
 442 0007 04       		.byte	0x4
 443 0008 00000000 		.4byte	.Ldebug_abbrev0
 444 000c 1B       		.uleb128 0x1b
 445 000d 79000000 		.4byte	.LASF59
 446 0011 1D       		.byte	0x1d
 447 0012 5E010000 		.4byte	.LASF60
 448 0016 29020000 		.4byte	.LASF61
 449 001a 33000000 		.4byte	.LLRL10
 450 001e 00000000 		.4byte	0
 451 0022 00000000 		.4byte	.Ldebug_line0
 452 0026 1C       		.uleb128 0x1c
 453 0027 04       		.byte	0x4
 454 0028 05       		.byte	0x5
 455 0029 696E7400 		.ascii	"int\000"
 456 002d 02       		.uleb128 0x2
ARM GAS  C:\Users\DEVELO~1\AppData\Local\Temp\ccqj5UtW.s 			page 9


 457 002e 04       		.byte	0x4
 458 002f 07       		.byte	0x7
 459 0030 85030000 		.4byte	.LASF0
 460 0034 02       		.uleb128 0x2
 461 0035 08       		.byte	0x8
 462 0036 05       		.byte	0x5
 463 0037 50010000 		.4byte	.LASF1
 464 003b 02       		.uleb128 0x2
 465 003c 08       		.byte	0x8
 466 003d 04       		.byte	0x4
 467 003e 44010000 		.4byte	.LASF2
 468 0042 02       		.uleb128 0x2
 469 0043 01       		.byte	0x1
 470 0044 06       		.byte	0x6
 471 0045 EE010000 		.4byte	.LASF3
 472 0049 02       		.uleb128 0x2
 473 004a 01       		.byte	0x1
 474 004b 08       		.byte	0x8
 475 004c D7010000 		.4byte	.LASF4
 476 0050 02       		.uleb128 0x2
 477 0051 02       		.byte	0x2
 478 0052 05       		.byte	0x5
 479 0053 22000000 		.4byte	.LASF5
 480 0057 02       		.uleb128 0x2
 481 0058 02       		.byte	0x2
 482 0059 07       		.byte	0x7
 483 005a 8B020000 		.4byte	.LASF6
 484 005e 02       		.uleb128 0x2
 485 005f 04       		.byte	0x4
 486 0060 05       		.byte	0x5
 487 0061 9E010000 		.4byte	.LASF7
 488 0065 04       		.uleb128 0x4
 489 0066 0F030000 		.4byte	.LASF10
 490 006a 06       		.byte	0x6
 491 006b 4F       		.byte	0x4f
 492 006c 19       		.byte	0x19
 493 006d 71000000 		.4byte	0x71
 494 0071 02       		.uleb128 0x2
 495 0072 04       		.byte	0x4
 496 0073 07       		.byte	0x7
 497 0074 EF020000 		.4byte	.LASF8
 498 0078 02       		.uleb128 0x2
 499 0079 08       		.byte	0x8
 500 007a 07       		.byte	0x7
 501 007b FA010000 		.4byte	.LASF9
 502 007f 04       		.uleb128 0x4
 503 0080 11020000 		.4byte	.LASF11
 504 0084 07       		.byte	0x7
 505 0085 30       		.byte	0x30
 506 0086 14       		.byte	0x14
 507 0087 65000000 		.4byte	0x65
 508 008b 1D       		.uleb128 0x1d
 509 008c 7F000000 		.4byte	0x7f
 510 0090 02       		.uleb128 0x2
 511 0091 01       		.byte	0x1
 512 0092 08       		.byte	0x8
 513 0093 BC020000 		.4byte	.LASF12
ARM GAS  C:\Users\DEVELO~1\AppData\Local\Temp\ccqj5UtW.s 			page 10


 514 0097 06       		.uleb128 0x6
 515 0098 90000000 		.4byte	0x90
 516 009c 02       		.uleb128 0x2
 517 009d 01       		.byte	0x1
 518 009e 02       		.byte	0x2
 519 009f C1020000 		.4byte	.LASF13
 520 00a3 12       		.uleb128 0x12
 521 00a4 1C       		.byte	0x1c
 522 00a5 08       		.byte	0x8
 523 00a6 AC       		.byte	0xac
 524 00a7 07010000 		.4byte	0x107
 525 00ab 01       		.uleb128 0x1
 526 00ac 39000000 		.4byte	.LASF14
 527 00b0 08       		.byte	0x8
 528 00b1 AD       		.byte	0xad
 529 00b2 11       		.byte	0x11
 530 00b3 8B000000 		.4byte	0x8b
 531 00b7 00       		.byte	0
 532 00b8 01       		.uleb128 0x1
 533 00b9 3F000000 		.4byte	.LASF15
 534 00bd 08       		.byte	0x8
 535 00be AE       		.byte	0xae
 536 00bf 11       		.byte	0x11
 537 00c0 8B000000 		.4byte	0x8b
 538 00c4 04       		.byte	0x4
 539 00c5 01       		.uleb128 0x1
 540 00c6 DD020000 		.4byte	.LASF16
 541 00ca 08       		.byte	0x8
 542 00cb AF       		.byte	0xaf
 543 00cc 11       		.byte	0x11
 544 00cd 8B000000 		.4byte	0x8b
 545 00d1 08       		.byte	0x8
 546 00d2 01       		.uleb128 0x1
 547 00d3 53000000 		.4byte	.LASF17
 548 00d7 08       		.byte	0x8
 549 00d8 B0       		.byte	0xb0
 550 00d9 11       		.byte	0x11
 551 00da 8B000000 		.4byte	0x8b
 552 00de 0C       		.byte	0xc
 553 00df 01       		.uleb128 0x1
 554 00e0 4D030000 		.4byte	.LASF18
 555 00e4 08       		.byte	0x8
 556 00e5 B1       		.byte	0xb1
 557 00e6 11       		.byte	0x11
 558 00e7 8B000000 		.4byte	0x8b
 559 00eb 10       		.byte	0x10
 560 00ec 01       		.uleb128 0x1
 561 00ed 06000000 		.4byte	.LASF19
 562 00f1 08       		.byte	0x8
 563 00f2 B2       		.byte	0xb2
 564 00f3 11       		.byte	0x11
 565 00f4 8B000000 		.4byte	0x8b
 566 00f8 14       		.byte	0x14
 567 00f9 01       		.uleb128 0x1
 568 00fa 0A030000 		.4byte	.LASF20
 569 00fe 08       		.byte	0x8
 570 00ff B3       		.byte	0xb3
ARM GAS  C:\Users\DEVELO~1\AppData\Local\Temp\ccqj5UtW.s 			page 11


 571 0100 11       		.byte	0x11
 572 0101 8B000000 		.4byte	0x8b
 573 0105 18       		.byte	0x18
 574 0106 00       		.byte	0
 575 0107 04       		.uleb128 0x4
 576 0108 6C030000 		.4byte	.LASF21
 577 010c 08       		.byte	0x8
 578 010d B4       		.byte	0xb4
 579 010e 03       		.byte	0x3
 580 010f A3000000 		.4byte	0xa3
 581 0113 13       		.uleb128 0x13
 582 0114 B1020000 		.4byte	.LASF22
 583 0118 1E01     		.2byte	0x11e
 584 011a 1B       		.byte	0x1b
 585 011b 1F010000 		.4byte	0x11f
 586 011f 1E       		.uleb128 0x1e
 587 0120 B1020000 		.4byte	.LASF22
 588 0124 08       		.byte	0x8
 589 0125 08       		.byte	0x8
 590 0126 2C01     		.2byte	0x12c
 591 0128 08       		.byte	0x8
 592 0129 48010000 		.4byte	0x148
 593 012d 14       		.uleb128 0x14
 594 012e 1C000000 		.4byte	.LASF23
 595 0132 3001     		.2byte	0x130
 596 0134 1D       		.byte	0x1d
 597 0135 6A010000 		.4byte	0x16a
 598 0139 00       		.byte	0
 599 013a 14       		.uleb128 0x14
 600 013b 7F030000 		.4byte	.LASF24
 601 013f 4F01     		.2byte	0x14f
 602 0141 1E       		.byte	0x1e
 603 0142 76010000 		.4byte	0x176
 604 0146 04       		.byte	0x4
 605 0147 00       		.byte	0
 606 0148 1F       		.uleb128 0x1f
 607 0149 07       		.byte	0x7
 608 014a 01       		.byte	0x1
 609 014b 49000000 		.4byte	0x49
 610 014f 08       		.byte	0x8
 611 0150 2301     		.2byte	0x123
 612 0152 0E       		.byte	0xe
 613 0153 6A010000 		.4byte	0x16a
 614 0157 05       		.uleb128 0x5
 615 0158 7F020000 		.4byte	.LASF25
 616 015c 00       		.byte	0
 617 015d 05       		.uleb128 0x5
 618 015e 26030000 		.4byte	.LASF26
 619 0162 01       		.byte	0x1
 620 0163 05       		.uleb128 0x5
 621 0164 A6020000 		.4byte	.LASF27
 622 0168 02       		.byte	0x2
 623 0169 00       		.byte	0
 624 016a 13       		.uleb128 0x13
 625 016b E3020000 		.4byte	.LASF28
 626 016f 2701     		.2byte	0x127
 627 0171 03       		.byte	0x3
ARM GAS  C:\Users\DEVELO~1\AppData\Local\Temp\ccqj5UtW.s 			page 12


 628 0172 48010000 		.4byte	0x148
 629 0176 08       		.uleb128 0x8
 630 0177 07010000 		.4byte	0x107
 631 017b 20       		.uleb128 0x20
 632 017c B5030000 		.4byte	.LASF39
 633 0180 08       		.byte	0x8
 634 0181 5D01     		.2byte	0x15d
 635 0183 13       		.byte	0x13
 636 0184 13010000 		.4byte	0x113
 637 0188 21       		.uleb128 0x21
 638 0189 07       		.byte	0x7
 639 018a 01       		.byte	0x1
 640 018b 49000000 		.4byte	0x49
 641 018f 09       		.byte	0x9
 642 0190 A4       		.byte	0xa4
 643 0191 0E       		.byte	0xe
 644 0192 A9010000 		.4byte	0x1a9
 645 0196 05       		.uleb128 0x5
 646 0197 A7010000 		.4byte	.LASF29
 647 019b 00       		.byte	0
 648 019c 05       		.uleb128 0x5
 649 019d 92030000 		.4byte	.LASF30
 650 01a1 01       		.byte	0x1
 651 01a2 05       		.uleb128 0x5
 652 01a3 9D030000 		.4byte	.LASF31
 653 01a7 02       		.byte	0x2
 654 01a8 00       		.byte	0
 655 01a9 04       		.uleb128 0x4
 656 01aa 2C000000 		.4byte	.LASF32
 657 01ae 09       		.byte	0x9
 658 01af A8       		.byte	0xa8
 659 01b0 03       		.byte	0x3
 660 01b1 88010000 		.4byte	0x188
 661 01b5 04       		.uleb128 0x4
 662 01b6 A9030000 		.4byte	.LASF33
 663 01ba 09       		.byte	0x9
 664 01bb AD       		.byte	0xad
 665 01bc 1C       		.byte	0x1c
 666 01bd C1010000 		.4byte	0x1c1
 667 01c1 22       		.uleb128 0x22
 668 01c2 A9030000 		.4byte	.LASF33
 669 01c6 08       		.byte	0x8
 670 01c7 09       		.byte	0x9
 671 01c8 D0       		.byte	0xd0
 672 01c9 08       		.byte	0x8
 673 01ca E9010000 		.4byte	0x1e9
 674 01ce 01       		.uleb128 0x1
 675 01cf 1C000000 		.4byte	.LASF23
 676 01d3 09       		.byte	0x9
 677 01d4 D4       		.byte	0xd4
 678 01d5 1D       		.byte	0x1d
 679 01d6 A9010000 		.4byte	0x1a9
 680 01da 00       		.byte	0
 681 01db 01       		.uleb128 0x1
 682 01dc 7F030000 		.4byte	.LASF24
 683 01e0 09       		.byte	0x9
 684 01e1 D8       		.byte	0xd8
ARM GAS  C:\Users\DEVELO~1\AppData\Local\Temp\ccqj5UtW.s 			page 13


 685 01e2 1E       		.byte	0x1e
 686 01e3 76010000 		.4byte	0x176
 687 01e7 04       		.byte	0x4
 688 01e8 00       		.byte	0
 689 01e9 12       		.uleb128 0x12
 690 01ea 10       		.byte	0x10
 691 01eb 09       		.byte	0x9
 692 01ec B3       		.byte	0xb3
 693 01ed 26020000 		.4byte	0x226
 694 01f1 01       		.uleb128 0x1
 695 01f2 3F010000 		.4byte	.LASF34
 696 01f6 09       		.byte	0x9
 697 01f7 B8       		.byte	0xb8
 698 01f8 11       		.byte	0x11
 699 01f9 7F000000 		.4byte	0x7f
 700 01fd 00       		.byte	0
 701 01fe 01       		.uleb128 0x1
 702 01ff 30030000 		.4byte	.LASF35
 703 0203 09       		.byte	0x9
 704 0204 BE       		.byte	0xbe
 705 0205 11       		.byte	0x11
 706 0206 7F000000 		.4byte	0x7f
 707 020a 04       		.byte	0x4
 708 020b 01       		.uleb128 0x1
 709 020c 47030000 		.4byte	.LASF36
 710 0210 09       		.byte	0x9
 711 0211 C4       		.byte	0xc4
 712 0212 11       		.byte	0x11
 713 0213 7F000000 		.4byte	0x7f
 714 0217 08       		.byte	0x8
 715 0218 01       		.uleb128 0x1
 716 0219 00000000 		.4byte	.LASF37
 717 021d 09       		.byte	0x9
 718 021e CA       		.byte	0xca
 719 021f 11       		.byte	0x11
 720 0220 7F000000 		.4byte	0x7f
 721 0224 0C       		.byte	0xc
 722 0225 00       		.byte	0
 723 0226 04       		.uleb128 0x4
 724 0227 59000000 		.4byte	.LASF38
 725 022b 09       		.byte	0x9
 726 022c CB       		.byte	0xcb
 727 022d 03       		.byte	0x3
 728 022e E9010000 		.4byte	0x1e9
 729 0232 06       		.uleb128 0x6
 730 0233 26020000 		.4byte	0x226
 731 0237 23       		.uleb128 0x23
 732 0238 3F030000 		.4byte	.LASF40
 733 023c 09       		.byte	0x9
 734 023d E3       		.byte	0xe3
 735 023e 14       		.byte	0x14
 736 023f B5010000 		.4byte	0x1b5
 737 0243 15       		.uleb128 0x15
 738 0244 1A020000 		.4byte	.LASF41
 739 0248 6D       		.byte	0x6d
 740 0249 53020000 		.4byte	0x253
 741 024d 09       		.uleb128 0x9
ARM GAS  C:\Users\DEVELO~1\AppData\Local\Temp\ccqj5UtW.s 			page 14


 742 024e 53020000 		.4byte	0x253
 743 0252 00       		.byte	0
 744 0253 08       		.uleb128 0x8
 745 0254 B5010000 		.4byte	0x1b5
 746 0258 15       		.uleb128 0x15
 747 0259 0C000000 		.4byte	.LASF42
 748 025d 6C       		.byte	0x6c
 749 025e 6D020000 		.4byte	0x26d
 750 0262 09       		.uleb128 0x9
 751 0263 53020000 		.4byte	0x253
 752 0267 09       		.uleb128 0x9
 753 0268 6D020000 		.4byte	0x26d
 754 026c 00       		.byte	0
 755 026d 08       		.uleb128 0x8
 756 026e 32020000 		.4byte	0x232
 757 0272 24       		.uleb128 0x24
 758 0273 35030000 		.4byte	.LASF43
 759 0277 08       		.byte	0x8
 760 0278 6401     		.2byte	0x164
 761 027a 08       		.byte	0x8
 762 027b 85020000 		.4byte	0x285
 763 027f 09       		.uleb128 0x9
 764 0280 85020000 		.4byte	0x285
 765 0284 00       		.byte	0
 766 0285 08       		.uleb128 0x8
 767 0286 13010000 		.4byte	0x113
 768 028a 25       		.uleb128 0x25
 769 028b 01030000 		.4byte	.LASF62
 770 028f 08       		.byte	0x8
 771 0290 6301     		.2byte	0x163
 772 0292 08       		.byte	0x8
 773 0293 0B       		.uleb128 0xb
 774 0294 D3020000 		.4byte	.LASF44
 775 0298 6C       		.byte	0x6c
 776 0299 00000000 		.4byte	.LFB435
 777 029d 1A000000 		.4byte	.LFE435-.LFB435
 778 02a1 01       		.uleb128 0x1
 779 02a2 9C       		.byte	0x9c
 780 02a3 88030000 		.4byte	0x388
 781 02a7 0C       		.uleb128 0xc
 782 02a8 C4010000 		.4byte	.LASF46
 783 02ac 6C       		.byte	0x6c
 784 02ad 1D       		.byte	0x1d
 785 02ae 53020000 		.4byte	0x253
 786 02b2 10000000 		.4byte	.LLST5
 787 02b6 0C000000 		.4byte	.LVUS5
 788 02ba 0D       		.uleb128 0xd
 789 02bb E5010000 		.4byte	.LASF48
 790 02bf 98030000 		.4byte	0x398
 791 02c3 0E       		.uleb128 0xe
 792 02c4 35050000 		.4byte	0x535
 793 02c8 00000000 		.4byte	.LBI71
 794 02cc 05       		.byte	.LVU81
 795 02cd 18000000 		.4byte	.LLRL6
 796 02d1 70       		.byte	0x70
 797 02d2 1A030000 		.4byte	0x31a
 798 02d6 03       		.uleb128 0x3
ARM GAS  C:\Users\DEVELO~1\AppData\Local\Temp\ccqj5UtW.s 			page 15


 799 02d7 6A050000 		.4byte	0x56a
 800 02db 00000000 		.4byte	.LBI72
 801 02df 07       		.byte	.LVU83
 802 02e0 18000000 		.4byte	.LLRL6
 803 02e4 02       		.byte	0x2
 804 02e5 3F02     		.2byte	0x23f
 805 02e7 03       		.uleb128 0x3
 806 02e8 7C050000 		.4byte	0x57c
 807 02ec 00000000 		.4byte	.LBI73
 808 02f0 09       		.byte	.LVU85
 809 02f1 18000000 		.4byte	.LLRL6
 810 02f5 03       		.byte	0x3
 811 02f6 9901     		.2byte	0x199
 812 02f8 03       		.uleb128 0x3
 813 02f9 85050000 		.4byte	0x585
 814 02fd 00000000 		.4byte	.LBI74
 815 0301 0B       		.byte	.LVU87
 816 0302 18000000 		.4byte	.LLRL6
 817 0306 04       		.byte	0x4
 818 0307 3F03     		.2byte	0x33f
 819 0309 0A       		.uleb128 0xa
 820 030a 92050000 		.4byte	0x592
 821 030e 22000000 		.4byte	.LLST7
 822 0312 20000000 		.4byte	.LVUS7
 823 0316 00       		.byte	0
 824 0317 00       		.byte	0
 825 0318 00       		.byte	0
 826 0319 00       		.byte	0
 827 031a 0E       		.uleb128 0xe
 828 031b 2C050000 		.4byte	0x52c
 829 031f 14000000 		.4byte	.LBI86
 830 0323 01       		.byte	.LVU105
 831 0324 27000000 		.4byte	.LLRL8
 832 0328 75       		.byte	0x75
 833 0329 77030000 		.4byte	0x377
 834 032d 03       		.uleb128 0x3
 835 032e 3E050000 		.4byte	0x53e
 836 0332 14000000 		.4byte	.LBI87
 837 0336 03       		.byte	.LVU107
 838 0337 27000000 		.4byte	.LLRL8
 839 033b 02       		.byte	0x2
 840 033c 4A02     		.2byte	0x24a
 841 033e 16       		.uleb128 0x16
 842 033f 27000000 		.4byte	.LLRL8
 843 0343 03       		.uleb128 0x3
 844 0344 73050000 		.4byte	0x573
 845 0348 14000000 		.4byte	.LBI89
 846 034c 0A       		.byte	.LVU114
 847 034d 27000000 		.4byte	.LLRL8
 848 0351 03       		.byte	0x3
 849 0352 B201     		.2byte	0x1b2
 850 0354 03       		.uleb128 0x3
 851 0355 85050000 		.4byte	0x585
 852 0359 14000000 		.4byte	.LBI90
 853 035d 0C       		.byte	.LVU116
 854 035e 27000000 		.4byte	.LLRL8
 855 0362 04       		.byte	0x4
ARM GAS  C:\Users\DEVELO~1\AppData\Local\Temp\ccqj5UtW.s 			page 16


 856 0363 5203     		.2byte	0x352
 857 0365 0A       		.uleb128 0xa
 858 0366 92050000 		.4byte	0x592
 859 036a 2F000000 		.4byte	.LLST9
 860 036e 2D000000 		.4byte	.LVUS9
 861 0372 00       		.byte	0
 862 0373 00       		.byte	0
 863 0374 00       		.byte	0
 864 0375 00       		.byte	0
 865 0376 00       		.byte	0
 866 0377 26       		.uleb128 0x26
 867 0378 0E000000 		.4byte	.LVL14
 868 037c 43020000 		.4byte	0x243
 869 0380 17       		.uleb128 0x17
 870 0381 01       		.uleb128 0x1
 871 0382 50       		.byte	0x50
 872 0383 02       		.uleb128 0x2
 873 0384 74       		.byte	0x74
 874 0385 00       		.sleb128 0
 875 0386 00       		.byte	0
 876 0387 00       		.byte	0
 877 0388 0F       		.uleb128 0xf
 878 0389 97000000 		.4byte	0x97
 879 038d 98030000 		.4byte	0x398
 880 0391 10       		.uleb128 0x10
 881 0392 2D000000 		.4byte	0x2d
 882 0396 09       		.byte	0x9
 883 0397 00       		.byte	0
 884 0398 06       		.uleb128 0x6
 885 0399 88030000 		.4byte	0x388
 886 039d 0B       		.uleb128 0xb
 887 039e 61030000 		.4byte	.LASF45
 888 03a2 56       		.byte	0x56
 889 03a3 00000000 		.4byte	.LFB434
 890 03a7 38000000 		.4byte	.LFE434-.LFB434
 891 03ab 01       		.uleb128 0x1
 892 03ac 9C       		.byte	0x9c
 893 03ad C2040000 		.4byte	0x4c2
 894 03b1 0C       		.uleb128 0xc
 895 03b2 C4010000 		.4byte	.LASF46
 896 03b6 56       		.byte	0x56
 897 03b7 1E       		.byte	0x1e
 898 03b8 53020000 		.4byte	0x253
 899 03bc 41000000 		.4byte	.LLST0
 900 03c0 39000000 		.4byte	.LVUS0
 901 03c4 0C       		.uleb128 0xc
 902 03c5 2E010000 		.4byte	.LASF47
 903 03c9 56       		.byte	0x56
 904 03ca 39       		.byte	0x39
 905 03cb 6D020000 		.4byte	0x26d
 906 03cf 63000000 		.4byte	.LLST1
 907 03d3 5B000000 		.4byte	.LVUS1
 908 03d7 0D       		.uleb128 0xd
 909 03d8 E5010000 		.4byte	.LASF48
 910 03dc D2040000 		.4byte	0x4d2
 911 03e0 18       		.uleb128 0x18
 912 03e1 35050000 		.4byte	0x535
ARM GAS  C:\Users\DEVELO~1\AppData\Local\Temp\ccqj5UtW.s 			page 17


 913 03e5 0E000000 		.4byte	.LBI54
 914 03e9 01       		.byte	.LVU37
 915 03ea 0E000000 		.4byte	.LBB54
 916 03ee 06000000 		.4byte	.LBE54-.LBB54
 917 03f2 5D       		.byte	0x5d
 918 03f3 47040000 		.4byte	0x447
 919 03f7 11       		.uleb128 0x11
 920 03f8 6A050000 		.4byte	0x56a
 921 03fc 0E000000 		.4byte	.LBI55
 922 0400 03       		.byte	.LVU39
 923 0401 0E000000 		.4byte	.LBB55
 924 0405 06000000 		.4byte	.LBE55-.LBB55
 925 0409 02       		.byte	0x2
 926 040a 3F02     		.2byte	0x23f
 927 040c 11       		.uleb128 0x11
 928 040d 7C050000 		.4byte	0x57c
 929 0411 0E000000 		.4byte	.LBI56
 930 0415 05       		.byte	.LVU41
 931 0416 0E000000 		.4byte	.LBB56
 932 041a 06000000 		.4byte	.LBE56-.LBB56
 933 041e 03       		.byte	0x3
 934 041f 9901     		.2byte	0x199
 935 0421 11       		.uleb128 0x11
 936 0422 85050000 		.4byte	0x585
 937 0426 0E000000 		.4byte	.LBI57
 938 042a 07       		.byte	.LVU43
 939 042b 0E000000 		.4byte	.LBB57
 940 042f 06000000 		.4byte	.LBE57-.LBB57
 941 0433 04       		.byte	0x4
 942 0434 3F03     		.2byte	0x33f
 943 0436 0A       		.uleb128 0xa
 944 0437 92050000 		.4byte	0x592
 945 043b 83000000 		.4byte	.LLST2
 946 043f 81000000 		.4byte	.LVUS2
 947 0443 00       		.byte	0
 948 0444 00       		.byte	0
 949 0445 00       		.byte	0
 950 0446 00       		.byte	0
 951 0447 0E       		.uleb128 0xe
 952 0448 2C050000 		.4byte	0x52c
 953 044c 20000000 		.4byte	.LBI59
 954 0450 01       		.byte	.LVU57
 955 0451 0C000000 		.4byte	.LLRL3
 956 0455 62       		.byte	0x62
 957 0456 A4040000 		.4byte	0x4a4
 958 045a 03       		.uleb128 0x3
 959 045b 3E050000 		.4byte	0x53e
 960 045f 20000000 		.4byte	.LBI60
 961 0463 03       		.byte	.LVU59
 962 0464 0C000000 		.4byte	.LLRL3
 963 0468 02       		.byte	0x2
 964 0469 4A02     		.2byte	0x24a
 965 046b 16       		.uleb128 0x16
 966 046c 0C000000 		.4byte	.LLRL3
 967 0470 03       		.uleb128 0x3
 968 0471 73050000 		.4byte	0x573
 969 0475 20000000 		.4byte	.LBI62
ARM GAS  C:\Users\DEVELO~1\AppData\Local\Temp\ccqj5UtW.s 			page 18


 970 0479 0A       		.byte	.LVU66
 971 047a 0C000000 		.4byte	.LLRL3
 972 047e 03       		.byte	0x3
 973 047f B201     		.2byte	0x1b2
 974 0481 03       		.uleb128 0x3
 975 0482 85050000 		.4byte	0x585
 976 0486 20000000 		.4byte	.LBI63
 977 048a 0C       		.byte	.LVU68
 978 048b 0C000000 		.4byte	.LLRL3
 979 048f 04       		.byte	0x4
 980 0490 5203     		.2byte	0x352
 981 0492 0A       		.uleb128 0xa
 982 0493 92050000 		.4byte	0x592
 983 0497 90000000 		.4byte	.LLST4
 984 049b 8E000000 		.4byte	.LVUS4
 985 049f 00       		.byte	0
 986 04a0 00       		.byte	0
 987 04a1 00       		.byte	0
 988 04a2 00       		.byte	0
 989 04a3 00       		.byte	0
 990 04a4 27       		.uleb128 0x27
 991 04a5 1A000000 		.4byte	.LVL6
 992 04a9 58020000 		.4byte	0x258
 993 04ad B8040000 		.4byte	0x4b8
 994 04b1 17       		.uleb128 0x17
 995 04b2 01       		.uleb128 0x1
 996 04b3 50       		.byte	0x50
 997 04b4 02       		.uleb128 0x2
 998 04b5 74       		.byte	0x74
 999 04b6 00       		.sleb128 0
 1000 04b7 00       		.byte	0
 1001 04b8 19       		.uleb128 0x19
 1002 04b9 30000000 		.4byte	.LVL11
 1003 04bd 72020000 		.4byte	0x272
 1004 04c1 00       		.byte	0
 1005 04c2 0F       		.uleb128 0xf
 1006 04c3 97000000 		.4byte	0x97
 1007 04c7 D2040000 		.4byte	0x4d2
 1008 04cb 10       		.uleb128 0x10
 1009 04cc 2D000000 		.4byte	0x2d
 1010 04d0 0A       		.byte	0xa
 1011 04d1 00       		.byte	0
 1012 04d2 06       		.uleb128 0x6
 1013 04d3 C2040000 		.4byte	0x4c2
 1014 04d7 28       		.uleb128 0x28
 1015 04d8 B4010000 		.4byte	.LASF49
 1016 04dc 01       		.byte	0x1
 1017 04dd 48       		.byte	0x48
 1018 04de 06       		.byte	0x6
 1019 04df 01       		.byte	0x1
 1020 04e0 F1040000 		.4byte	0x4f1
 1021 04e4 29       		.uleb128 0x29
 1022 04e5 C4010000 		.4byte	.LASF46
 1023 04e9 01       		.byte	0x1
 1024 04ea 48       		.byte	0x48
 1025 04eb 23       		.byte	0x23
 1026 04ec 53020000 		.4byte	0x253
ARM GAS  C:\Users\DEVELO~1\AppData\Local\Temp\ccqj5UtW.s 			page 19


 1027 04f0 00       		.byte	0
 1028 04f1 0B       		.uleb128 0xb
 1029 04f2 35010000 		.4byte	.LASF50
 1030 04f6 3C       		.byte	0x3c
 1031 04f7 00000000 		.4byte	.LFB432
 1032 04fb 1C000000 		.4byte	.LFE432-.LFB432
 1033 04ff 01       		.uleb128 0x1
 1034 0500 9C       		.byte	0x9c
 1035 0501 2C050000 		.4byte	0x52c
 1036 0505 18       		.uleb128 0x18
 1037 0506 D7040000 		.4byte	0x4d7
 1038 050a 06000000 		.4byte	.LBI52
 1039 050e 01       		.byte	.LVU5
 1040 050f 06000000 		.4byte	.LBB52
 1041 0513 0C000000 		.4byte	.LBE52-.LBB52
 1042 0517 3E       		.byte	0x3e
 1043 0518 22050000 		.4byte	0x522
 1044 051c 2A       		.uleb128 0x2a
 1045 051d E4040000 		.4byte	0x4e4
 1046 0521 00       		.byte	0
 1047 0522 19       		.uleb128 0x19
 1048 0523 06000000 		.4byte	.LVL0
 1049 0527 8A020000 		.4byte	0x28a
 1050 052b 00       		.byte	0
 1051 052c 07       		.uleb128 0x7
 1052 052d 45000000 		.4byte	.LASF51
 1053 0531 02       		.byte	0x2
 1054 0532 4802     		.2byte	0x248
 1055 0534 14       		.byte	0x14
 1056 0535 07       		.uleb128 0x7
 1057 0536 CB010000 		.4byte	.LASF52
 1058 053a 02       		.byte	0x2
 1059 053b 3D02     		.2byte	0x23d
 1060 053d 14       		.byte	0x14
 1061 053e 1A       		.uleb128 0x1a
 1062 053f 1A030000 		.4byte	.LASF56
 1063 0543 03       		.byte	0x3
 1064 0544 A501     		.2byte	0x1a5
 1065 0546 14       		.byte	0x14
 1066 0547 55050000 		.4byte	0x555
 1067 054b 0D       		.uleb128 0xd
 1068 054c E5010000 		.4byte	.LASF48
 1069 0550 65050000 		.4byte	0x565
 1070 0554 00       		.byte	0
 1071 0555 0F       		.uleb128 0xf
 1072 0556 97000000 		.4byte	0x97
 1073 055a 65050000 		.4byte	0x565
 1074 055e 10       		.uleb128 0x10
 1075 055f 2D000000 		.4byte	0x2d
 1076 0563 0B       		.byte	0xb
 1077 0564 00       		.byte	0
 1078 0565 06       		.uleb128 0x6
 1079 0566 55050000 		.4byte	0x555
 1080 056a 07       		.uleb128 0x7
 1081 056b 6F000000 		.4byte	.LASF53
 1082 056f 03       		.byte	0x3
 1083 0570 9701     		.2byte	0x197
ARM GAS  C:\Users\DEVELO~1\AppData\Local\Temp\ccqj5UtW.s 			page 20


 1084 0572 14       		.byte	0x14
 1085 0573 07       		.uleb128 0x7
 1086 0574 C7020000 		.4byte	.LASF54
 1087 0578 04       		.byte	0x4
 1088 0579 4F03     		.2byte	0x34f
 1089 057b 1B       		.byte	0x1b
 1090 057c 07       		.uleb128 0x7
 1091 057d 65000000 		.4byte	.LASF55
 1092 0581 04       		.byte	0x4
 1093 0582 3703     		.2byte	0x337
 1094 0584 1B       		.byte	0x1b
 1095 0585 1A       		.uleb128 0x1a
 1096 0586 53030000 		.4byte	.LASF57
 1097 058a 05       		.byte	0x5
 1098 058b EB01     		.2byte	0x1eb
 1099 058d 1B       		.byte	0x1b
 1100 058e A0050000 		.4byte	0x5a0
 1101 0592 2B       		.uleb128 0x2b
 1102 0593 9E020000 		.4byte	.LASF58
 1103 0597 05       		.byte	0x5
 1104 0598 EB01     		.2byte	0x1eb
 1105 059a 32       		.byte	0x32
 1106 059b 7F000000 		.4byte	0x7f
 1107 059f 00       		.byte	0
 1108 05a0 2C       		.uleb128 0x2c
 1109 05a1 D7040000 		.4byte	0x4d7
 1110 05a5 00000000 		.4byte	.LFB433
 1111 05a9 10000000 		.4byte	.LFE433-.LFB433
 1112 05ad 01       		.uleb128 0x1
 1113 05ae 9C       		.byte	0x9c
 1114 05af 2D       		.uleb128 0x2d
 1115 05b0 E4040000 		.4byte	0x4e4
 1116 05b4 01       		.uleb128 0x1
 1117 05b5 50       		.byte	0x50
 1118 05b6 00       		.byte	0
 1119 05b7 00       		.byte	0
 1120              		.section	.debug_abbrev,"",%progbits
 1121              	.Ldebug_abbrev0:
 1122 0000 01       		.uleb128 0x1
 1123 0001 0D       		.uleb128 0xd
 1124 0002 00       		.byte	0
 1125 0003 03       		.uleb128 0x3
 1126 0004 0E       		.uleb128 0xe
 1127 0005 3A       		.uleb128 0x3a
 1128 0006 0B       		.uleb128 0xb
 1129 0007 3B       		.uleb128 0x3b
 1130 0008 0B       		.uleb128 0xb
 1131 0009 39       		.uleb128 0x39
 1132 000a 0B       		.uleb128 0xb
 1133 000b 49       		.uleb128 0x49
 1134 000c 13       		.uleb128 0x13
 1135 000d 38       		.uleb128 0x38
 1136 000e 0B       		.uleb128 0xb
 1137 000f 00       		.byte	0
 1138 0010 00       		.byte	0
 1139 0011 02       		.uleb128 0x2
 1140 0012 24       		.uleb128 0x24
ARM GAS  C:\Users\DEVELO~1\AppData\Local\Temp\ccqj5UtW.s 			page 21


 1141 0013 00       		.byte	0
 1142 0014 0B       		.uleb128 0xb
 1143 0015 0B       		.uleb128 0xb
 1144 0016 3E       		.uleb128 0x3e
 1145 0017 0B       		.uleb128 0xb
 1146 0018 03       		.uleb128 0x3
 1147 0019 0E       		.uleb128 0xe
 1148 001a 00       		.byte	0
 1149 001b 00       		.byte	0
 1150 001c 03       		.uleb128 0x3
 1151 001d 1D       		.uleb128 0x1d
 1152 001e 01       		.byte	0x1
 1153 001f 31       		.uleb128 0x31
 1154 0020 13       		.uleb128 0x13
 1155 0021 52       		.uleb128 0x52
 1156 0022 01       		.uleb128 0x1
 1157 0023 B842     		.uleb128 0x2138
 1158 0025 0B       		.uleb128 0xb
 1159 0026 55       		.uleb128 0x55
 1160 0027 17       		.uleb128 0x17
 1161 0028 58       		.uleb128 0x58
 1162 0029 0B       		.uleb128 0xb
 1163 002a 59       		.uleb128 0x59
 1164 002b 05       		.uleb128 0x5
 1165 002c 57       		.uleb128 0x57
 1166 002d 21       		.uleb128 0x21
 1167 002e 03       		.sleb128 3
 1168 002f 00       		.byte	0
 1169 0030 00       		.byte	0
 1170 0031 04       		.uleb128 0x4
 1171 0032 16       		.uleb128 0x16
 1172 0033 00       		.byte	0
 1173 0034 03       		.uleb128 0x3
 1174 0035 0E       		.uleb128 0xe
 1175 0036 3A       		.uleb128 0x3a
 1176 0037 0B       		.uleb128 0xb
 1177 0038 3B       		.uleb128 0x3b
 1178 0039 0B       		.uleb128 0xb
 1179 003a 39       		.uleb128 0x39
 1180 003b 0B       		.uleb128 0xb
 1181 003c 49       		.uleb128 0x49
 1182 003d 13       		.uleb128 0x13
 1183 003e 00       		.byte	0
 1184 003f 00       		.byte	0
 1185 0040 05       		.uleb128 0x5
 1186 0041 28       		.uleb128 0x28
 1187 0042 00       		.byte	0
 1188 0043 03       		.uleb128 0x3
 1189 0044 0E       		.uleb128 0xe
 1190 0045 1C       		.uleb128 0x1c
 1191 0046 0B       		.uleb128 0xb
 1192 0047 00       		.byte	0
 1193 0048 00       		.byte	0
 1194 0049 06       		.uleb128 0x6
 1195 004a 26       		.uleb128 0x26
 1196 004b 00       		.byte	0
 1197 004c 49       		.uleb128 0x49
ARM GAS  C:\Users\DEVELO~1\AppData\Local\Temp\ccqj5UtW.s 			page 22


 1198 004d 13       		.uleb128 0x13
 1199 004e 00       		.byte	0
 1200 004f 00       		.byte	0
 1201 0050 07       		.uleb128 0x7
 1202 0051 2E       		.uleb128 0x2e
 1203 0052 00       		.byte	0
 1204 0053 03       		.uleb128 0x3
 1205 0054 0E       		.uleb128 0xe
 1206 0055 3A       		.uleb128 0x3a
 1207 0056 0B       		.uleb128 0xb
 1208 0057 3B       		.uleb128 0x3b
 1209 0058 05       		.uleb128 0x5
 1210 0059 39       		.uleb128 0x39
 1211 005a 0B       		.uleb128 0xb
 1212 005b 27       		.uleb128 0x27
 1213 005c 19       		.uleb128 0x19
 1214 005d 20       		.uleb128 0x20
 1215 005e 21       		.uleb128 0x21
 1216 005f 03       		.sleb128 3
 1217 0060 00       		.byte	0
 1218 0061 00       		.byte	0
 1219 0062 08       		.uleb128 0x8
 1220 0063 0F       		.uleb128 0xf
 1221 0064 00       		.byte	0
 1222 0065 0B       		.uleb128 0xb
 1223 0066 21       		.uleb128 0x21
 1224 0067 04       		.sleb128 4
 1225 0068 49       		.uleb128 0x49
 1226 0069 13       		.uleb128 0x13
 1227 006a 00       		.byte	0
 1228 006b 00       		.byte	0
 1229 006c 09       		.uleb128 0x9
 1230 006d 05       		.uleb128 0x5
 1231 006e 00       		.byte	0
 1232 006f 49       		.uleb128 0x49
 1233 0070 13       		.uleb128 0x13
 1234 0071 00       		.byte	0
 1235 0072 00       		.byte	0
 1236 0073 0A       		.uleb128 0xa
 1237 0074 05       		.uleb128 0x5
 1238 0075 00       		.byte	0
 1239 0076 31       		.uleb128 0x31
 1240 0077 13       		.uleb128 0x13
 1241 0078 02       		.uleb128 0x2
 1242 0079 17       		.uleb128 0x17
 1243 007a B742     		.uleb128 0x2137
 1244 007c 17       		.uleb128 0x17
 1245 007d 00       		.byte	0
 1246 007e 00       		.byte	0
 1247 007f 0B       		.uleb128 0xb
 1248 0080 2E       		.uleb128 0x2e
 1249 0081 01       		.byte	0x1
 1250 0082 3F       		.uleb128 0x3f
 1251 0083 19       		.uleb128 0x19
 1252 0084 03       		.uleb128 0x3
 1253 0085 0E       		.uleb128 0xe
 1254 0086 3A       		.uleb128 0x3a
ARM GAS  C:\Users\DEVELO~1\AppData\Local\Temp\ccqj5UtW.s 			page 23


 1255 0087 21       		.uleb128 0x21
 1256 0088 01       		.sleb128 1
 1257 0089 3B       		.uleb128 0x3b
 1258 008a 0B       		.uleb128 0xb
 1259 008b 39       		.uleb128 0x39
 1260 008c 21       		.uleb128 0x21
 1261 008d 06       		.sleb128 6
 1262 008e 27       		.uleb128 0x27
 1263 008f 19       		.uleb128 0x19
 1264 0090 11       		.uleb128 0x11
 1265 0091 01       		.uleb128 0x1
 1266 0092 12       		.uleb128 0x12
 1267 0093 06       		.uleb128 0x6
 1268 0094 40       		.uleb128 0x40
 1269 0095 18       		.uleb128 0x18
 1270 0096 7A       		.uleb128 0x7a
 1271 0097 19       		.uleb128 0x19
 1272 0098 01       		.uleb128 0x1
 1273 0099 13       		.uleb128 0x13
 1274 009a 00       		.byte	0
 1275 009b 00       		.byte	0
 1276 009c 0C       		.uleb128 0xc
 1277 009d 05       		.uleb128 0x5
 1278 009e 00       		.byte	0
 1279 009f 03       		.uleb128 0x3
 1280 00a0 0E       		.uleb128 0xe
 1281 00a1 3A       		.uleb128 0x3a
 1282 00a2 21       		.uleb128 0x21
 1283 00a3 01       		.sleb128 1
 1284 00a4 3B       		.uleb128 0x3b
 1285 00a5 0B       		.uleb128 0xb
 1286 00a6 39       		.uleb128 0x39
 1287 00a7 0B       		.uleb128 0xb
 1288 00a8 49       		.uleb128 0x49
 1289 00a9 13       		.uleb128 0x13
 1290 00aa 02       		.uleb128 0x2
 1291 00ab 17       		.uleb128 0x17
 1292 00ac B742     		.uleb128 0x2137
 1293 00ae 17       		.uleb128 0x17
 1294 00af 00       		.byte	0
 1295 00b0 00       		.byte	0
 1296 00b1 0D       		.uleb128 0xd
 1297 00b2 34       		.uleb128 0x34
 1298 00b3 00       		.byte	0
 1299 00b4 03       		.uleb128 0x3
 1300 00b5 0E       		.uleb128 0xe
 1301 00b6 49       		.uleb128 0x49
 1302 00b7 13       		.uleb128 0x13
 1303 00b8 34       		.uleb128 0x34
 1304 00b9 19       		.uleb128 0x19
 1305 00ba 00       		.byte	0
 1306 00bb 00       		.byte	0
 1307 00bc 0E       		.uleb128 0xe
 1308 00bd 1D       		.uleb128 0x1d
 1309 00be 01       		.byte	0x1
 1310 00bf 31       		.uleb128 0x31
 1311 00c0 13       		.uleb128 0x13
ARM GAS  C:\Users\DEVELO~1\AppData\Local\Temp\ccqj5UtW.s 			page 24


 1312 00c1 52       		.uleb128 0x52
 1313 00c2 01       		.uleb128 0x1
 1314 00c3 B842     		.uleb128 0x2138
 1315 00c5 0B       		.uleb128 0xb
 1316 00c6 55       		.uleb128 0x55
 1317 00c7 17       		.uleb128 0x17
 1318 00c8 58       		.uleb128 0x58
 1319 00c9 21       		.uleb128 0x21
 1320 00ca 01       		.sleb128 1
 1321 00cb 59       		.uleb128 0x59
 1322 00cc 0B       		.uleb128 0xb
 1323 00cd 57       		.uleb128 0x57
 1324 00ce 21       		.uleb128 0x21
 1325 00cf 03       		.sleb128 3
 1326 00d0 01       		.uleb128 0x1
 1327 00d1 13       		.uleb128 0x13
 1328 00d2 00       		.byte	0
 1329 00d3 00       		.byte	0
 1330 00d4 0F       		.uleb128 0xf
 1331 00d5 01       		.uleb128 0x1
 1332 00d6 01       		.byte	0x1
 1333 00d7 49       		.uleb128 0x49
 1334 00d8 13       		.uleb128 0x13
 1335 00d9 01       		.uleb128 0x1
 1336 00da 13       		.uleb128 0x13
 1337 00db 00       		.byte	0
 1338 00dc 00       		.byte	0
 1339 00dd 10       		.uleb128 0x10
 1340 00de 21       		.uleb128 0x21
 1341 00df 00       		.byte	0
 1342 00e0 49       		.uleb128 0x49
 1343 00e1 13       		.uleb128 0x13
 1344 00e2 2F       		.uleb128 0x2f
 1345 00e3 0B       		.uleb128 0xb
 1346 00e4 00       		.byte	0
 1347 00e5 00       		.byte	0
 1348 00e6 11       		.uleb128 0x11
 1349 00e7 1D       		.uleb128 0x1d
 1350 00e8 01       		.byte	0x1
 1351 00e9 31       		.uleb128 0x31
 1352 00ea 13       		.uleb128 0x13
 1353 00eb 52       		.uleb128 0x52
 1354 00ec 01       		.uleb128 0x1
 1355 00ed B842     		.uleb128 0x2138
 1356 00ef 0B       		.uleb128 0xb
 1357 00f0 11       		.uleb128 0x11
 1358 00f1 01       		.uleb128 0x1
 1359 00f2 12       		.uleb128 0x12
 1360 00f3 06       		.uleb128 0x6
 1361 00f4 58       		.uleb128 0x58
 1362 00f5 0B       		.uleb128 0xb
 1363 00f6 59       		.uleb128 0x59
 1364 00f7 05       		.uleb128 0x5
 1365 00f8 57       		.uleb128 0x57
 1366 00f9 21       		.uleb128 0x21
 1367 00fa 03       		.sleb128 3
 1368 00fb 00       		.byte	0
ARM GAS  C:\Users\DEVELO~1\AppData\Local\Temp\ccqj5UtW.s 			page 25


 1369 00fc 00       		.byte	0
 1370 00fd 12       		.uleb128 0x12
 1371 00fe 13       		.uleb128 0x13
 1372 00ff 01       		.byte	0x1
 1373 0100 0B       		.uleb128 0xb
 1374 0101 0B       		.uleb128 0xb
 1375 0102 3A       		.uleb128 0x3a
 1376 0103 0B       		.uleb128 0xb
 1377 0104 3B       		.uleb128 0x3b
 1378 0105 0B       		.uleb128 0xb
 1379 0106 39       		.uleb128 0x39
 1380 0107 21       		.uleb128 0x21
 1381 0108 09       		.sleb128 9
 1382 0109 01       		.uleb128 0x1
 1383 010a 13       		.uleb128 0x13
 1384 010b 00       		.byte	0
 1385 010c 00       		.byte	0
 1386 010d 13       		.uleb128 0x13
 1387 010e 16       		.uleb128 0x16
 1388 010f 00       		.byte	0
 1389 0110 03       		.uleb128 0x3
 1390 0111 0E       		.uleb128 0xe
 1391 0112 3A       		.uleb128 0x3a
 1392 0113 21       		.uleb128 0x21
 1393 0114 08       		.sleb128 8
 1394 0115 3B       		.uleb128 0x3b
 1395 0116 05       		.uleb128 0x5
 1396 0117 39       		.uleb128 0x39
 1397 0118 0B       		.uleb128 0xb
 1398 0119 49       		.uleb128 0x49
 1399 011a 13       		.uleb128 0x13
 1400 011b 00       		.byte	0
 1401 011c 00       		.byte	0
 1402 011d 14       		.uleb128 0x14
 1403 011e 0D       		.uleb128 0xd
 1404 011f 00       		.byte	0
 1405 0120 03       		.uleb128 0x3
 1406 0121 0E       		.uleb128 0xe
 1407 0122 3A       		.uleb128 0x3a
 1408 0123 21       		.uleb128 0x21
 1409 0124 08       		.sleb128 8
 1410 0125 3B       		.uleb128 0x3b
 1411 0126 05       		.uleb128 0x5
 1412 0127 39       		.uleb128 0x39
 1413 0128 0B       		.uleb128 0xb
 1414 0129 49       		.uleb128 0x49
 1415 012a 13       		.uleb128 0x13
 1416 012b 38       		.uleb128 0x38
 1417 012c 0B       		.uleb128 0xb
 1418 012d 00       		.byte	0
 1419 012e 00       		.byte	0
 1420 012f 15       		.uleb128 0x15
 1421 0130 2E       		.uleb128 0x2e
 1422 0131 01       		.byte	0x1
 1423 0132 3F       		.uleb128 0x3f
 1424 0133 19       		.uleb128 0x19
 1425 0134 03       		.uleb128 0x3
ARM GAS  C:\Users\DEVELO~1\AppData\Local\Temp\ccqj5UtW.s 			page 26


 1426 0135 0E       		.uleb128 0xe
 1427 0136 3A       		.uleb128 0x3a
 1428 0137 21       		.uleb128 0x21
 1429 0138 0A       		.sleb128 10
 1430 0139 3B       		.uleb128 0x3b
 1431 013a 0B       		.uleb128 0xb
 1432 013b 39       		.uleb128 0x39
 1433 013c 21       		.uleb128 0x21
 1434 013d 08       		.sleb128 8
 1435 013e 27       		.uleb128 0x27
 1436 013f 19       		.uleb128 0x19
 1437 0140 3C       		.uleb128 0x3c
 1438 0141 19       		.uleb128 0x19
 1439 0142 01       		.uleb128 0x1
 1440 0143 13       		.uleb128 0x13
 1441 0144 00       		.byte	0
 1442 0145 00       		.byte	0
 1443 0146 16       		.uleb128 0x16
 1444 0147 0B       		.uleb128 0xb
 1445 0148 01       		.byte	0x1
 1446 0149 55       		.uleb128 0x55
 1447 014a 17       		.uleb128 0x17
 1448 014b 00       		.byte	0
 1449 014c 00       		.byte	0
 1450 014d 17       		.uleb128 0x17
 1451 014e 49       		.uleb128 0x49
 1452 014f 00       		.byte	0
 1453 0150 02       		.uleb128 0x2
 1454 0151 18       		.uleb128 0x18
 1455 0152 7E       		.uleb128 0x7e
 1456 0153 18       		.uleb128 0x18
 1457 0154 00       		.byte	0
 1458 0155 00       		.byte	0
 1459 0156 18       		.uleb128 0x18
 1460 0157 1D       		.uleb128 0x1d
 1461 0158 01       		.byte	0x1
 1462 0159 31       		.uleb128 0x31
 1463 015a 13       		.uleb128 0x13
 1464 015b 52       		.uleb128 0x52
 1465 015c 01       		.uleb128 0x1
 1466 015d B842     		.uleb128 0x2138
 1467 015f 0B       		.uleb128 0xb
 1468 0160 11       		.uleb128 0x11
 1469 0161 01       		.uleb128 0x1
 1470 0162 12       		.uleb128 0x12
 1471 0163 06       		.uleb128 0x6
 1472 0164 58       		.uleb128 0x58
 1473 0165 21       		.uleb128 0x21
 1474 0166 01       		.sleb128 1
 1475 0167 59       		.uleb128 0x59
 1476 0168 0B       		.uleb128 0xb
 1477 0169 57       		.uleb128 0x57
 1478 016a 21       		.uleb128 0x21
 1479 016b 03       		.sleb128 3
 1480 016c 01       		.uleb128 0x1
 1481 016d 13       		.uleb128 0x13
 1482 016e 00       		.byte	0
ARM GAS  C:\Users\DEVELO~1\AppData\Local\Temp\ccqj5UtW.s 			page 27


 1483 016f 00       		.byte	0
 1484 0170 19       		.uleb128 0x19
 1485 0171 48       		.uleb128 0x48
 1486 0172 00       		.byte	0
 1487 0173 7D       		.uleb128 0x7d
 1488 0174 01       		.uleb128 0x1
 1489 0175 7F       		.uleb128 0x7f
 1490 0176 13       		.uleb128 0x13
 1491 0177 00       		.byte	0
 1492 0178 00       		.byte	0
 1493 0179 1A       		.uleb128 0x1a
 1494 017a 2E       		.uleb128 0x2e
 1495 017b 01       		.byte	0x1
 1496 017c 03       		.uleb128 0x3
 1497 017d 0E       		.uleb128 0xe
 1498 017e 3A       		.uleb128 0x3a
 1499 017f 0B       		.uleb128 0xb
 1500 0180 3B       		.uleb128 0x3b
 1501 0181 05       		.uleb128 0x5
 1502 0182 39       		.uleb128 0x39
 1503 0183 0B       		.uleb128 0xb
 1504 0184 27       		.uleb128 0x27
 1505 0185 19       		.uleb128 0x19
 1506 0186 20       		.uleb128 0x20
 1507 0187 21       		.uleb128 0x21
 1508 0188 03       		.sleb128 3
 1509 0189 01       		.uleb128 0x1
 1510 018a 13       		.uleb128 0x13
 1511 018b 00       		.byte	0
 1512 018c 00       		.byte	0
 1513 018d 1B       		.uleb128 0x1b
 1514 018e 11       		.uleb128 0x11
 1515 018f 01       		.byte	0x1
 1516 0190 25       		.uleb128 0x25
 1517 0191 0E       		.uleb128 0xe
 1518 0192 13       		.uleb128 0x13
 1519 0193 0B       		.uleb128 0xb
 1520 0194 03       		.uleb128 0x3
 1521 0195 0E       		.uleb128 0xe
 1522 0196 1B       		.uleb128 0x1b
 1523 0197 0E       		.uleb128 0xe
 1524 0198 55       		.uleb128 0x55
 1525 0199 17       		.uleb128 0x17
 1526 019a 11       		.uleb128 0x11
 1527 019b 01       		.uleb128 0x1
 1528 019c 10       		.uleb128 0x10
 1529 019d 17       		.uleb128 0x17
 1530 019e 00       		.byte	0
 1531 019f 00       		.byte	0
 1532 01a0 1C       		.uleb128 0x1c
 1533 01a1 24       		.uleb128 0x24
 1534 01a2 00       		.byte	0
 1535 01a3 0B       		.uleb128 0xb
 1536 01a4 0B       		.uleb128 0xb
 1537 01a5 3E       		.uleb128 0x3e
 1538 01a6 0B       		.uleb128 0xb
 1539 01a7 03       		.uleb128 0x3
ARM GAS  C:\Users\DEVELO~1\AppData\Local\Temp\ccqj5UtW.s 			page 28


 1540 01a8 08       		.uleb128 0x8
 1541 01a9 00       		.byte	0
 1542 01aa 00       		.byte	0
 1543 01ab 1D       		.uleb128 0x1d
 1544 01ac 35       		.uleb128 0x35
 1545 01ad 00       		.byte	0
 1546 01ae 49       		.uleb128 0x49
 1547 01af 13       		.uleb128 0x13
 1548 01b0 00       		.byte	0
 1549 01b1 00       		.byte	0
 1550 01b2 1E       		.uleb128 0x1e
 1551 01b3 13       		.uleb128 0x13
 1552 01b4 01       		.byte	0x1
 1553 01b5 03       		.uleb128 0x3
 1554 01b6 0E       		.uleb128 0xe
 1555 01b7 0B       		.uleb128 0xb
 1556 01b8 0B       		.uleb128 0xb
 1557 01b9 3A       		.uleb128 0x3a
 1558 01ba 0B       		.uleb128 0xb
 1559 01bb 3B       		.uleb128 0x3b
 1560 01bc 05       		.uleb128 0x5
 1561 01bd 39       		.uleb128 0x39
 1562 01be 0B       		.uleb128 0xb
 1563 01bf 01       		.uleb128 0x1
 1564 01c0 13       		.uleb128 0x13
 1565 01c1 00       		.byte	0
 1566 01c2 00       		.byte	0
 1567 01c3 1F       		.uleb128 0x1f
 1568 01c4 04       		.uleb128 0x4
 1569 01c5 01       		.byte	0x1
 1570 01c6 3E       		.uleb128 0x3e
 1571 01c7 0B       		.uleb128 0xb
 1572 01c8 0B       		.uleb128 0xb
 1573 01c9 0B       		.uleb128 0xb
 1574 01ca 49       		.uleb128 0x49
 1575 01cb 13       		.uleb128 0x13
 1576 01cc 3A       		.uleb128 0x3a
 1577 01cd 0B       		.uleb128 0xb
 1578 01ce 3B       		.uleb128 0x3b
 1579 01cf 05       		.uleb128 0x5
 1580 01d0 39       		.uleb128 0x39
 1581 01d1 0B       		.uleb128 0xb
 1582 01d2 01       		.uleb128 0x1
 1583 01d3 13       		.uleb128 0x13
 1584 01d4 00       		.byte	0
 1585 01d5 00       		.byte	0
 1586 01d6 20       		.uleb128 0x20
 1587 01d7 34       		.uleb128 0x34
 1588 01d8 00       		.byte	0
 1589 01d9 03       		.uleb128 0x3
 1590 01da 0E       		.uleb128 0xe
 1591 01db 3A       		.uleb128 0x3a
 1592 01dc 0B       		.uleb128 0xb
 1593 01dd 3B       		.uleb128 0x3b
 1594 01de 05       		.uleb128 0x5
 1595 01df 39       		.uleb128 0x39
 1596 01e0 0B       		.uleb128 0xb
ARM GAS  C:\Users\DEVELO~1\AppData\Local\Temp\ccqj5UtW.s 			page 29


 1597 01e1 49       		.uleb128 0x49
 1598 01e2 13       		.uleb128 0x13
 1599 01e3 3F       		.uleb128 0x3f
 1600 01e4 19       		.uleb128 0x19
 1601 01e5 3C       		.uleb128 0x3c
 1602 01e6 19       		.uleb128 0x19
 1603 01e7 00       		.byte	0
 1604 01e8 00       		.byte	0
 1605 01e9 21       		.uleb128 0x21
 1606 01ea 04       		.uleb128 0x4
 1607 01eb 01       		.byte	0x1
 1608 01ec 3E       		.uleb128 0x3e
 1609 01ed 0B       		.uleb128 0xb
 1610 01ee 0B       		.uleb128 0xb
 1611 01ef 0B       		.uleb128 0xb
 1612 01f0 49       		.uleb128 0x49
 1613 01f1 13       		.uleb128 0x13
 1614 01f2 3A       		.uleb128 0x3a
 1615 01f3 0B       		.uleb128 0xb
 1616 01f4 3B       		.uleb128 0x3b
 1617 01f5 0B       		.uleb128 0xb
 1618 01f6 39       		.uleb128 0x39
 1619 01f7 0B       		.uleb128 0xb
 1620 01f8 01       		.uleb128 0x1
 1621 01f9 13       		.uleb128 0x13
 1622 01fa 00       		.byte	0
 1623 01fb 00       		.byte	0
 1624 01fc 22       		.uleb128 0x22
 1625 01fd 13       		.uleb128 0x13
 1626 01fe 01       		.byte	0x1
 1627 01ff 03       		.uleb128 0x3
 1628 0200 0E       		.uleb128 0xe
 1629 0201 0B       		.uleb128 0xb
 1630 0202 0B       		.uleb128 0xb
 1631 0203 3A       		.uleb128 0x3a
 1632 0204 0B       		.uleb128 0xb
 1633 0205 3B       		.uleb128 0x3b
 1634 0206 0B       		.uleb128 0xb
 1635 0207 39       		.uleb128 0x39
 1636 0208 0B       		.uleb128 0xb
 1637 0209 01       		.uleb128 0x1
 1638 020a 13       		.uleb128 0x13
 1639 020b 00       		.byte	0
 1640 020c 00       		.byte	0
 1641 020d 23       		.uleb128 0x23
 1642 020e 34       		.uleb128 0x34
 1643 020f 00       		.byte	0
 1644 0210 03       		.uleb128 0x3
 1645 0211 0E       		.uleb128 0xe
 1646 0212 3A       		.uleb128 0x3a
 1647 0213 0B       		.uleb128 0xb
 1648 0214 3B       		.uleb128 0x3b
 1649 0215 0B       		.uleb128 0xb
 1650 0216 39       		.uleb128 0x39
 1651 0217 0B       		.uleb128 0xb
 1652 0218 49       		.uleb128 0x49
 1653 0219 13       		.uleb128 0x13
ARM GAS  C:\Users\DEVELO~1\AppData\Local\Temp\ccqj5UtW.s 			page 30


 1654 021a 3F       		.uleb128 0x3f
 1655 021b 19       		.uleb128 0x19
 1656 021c 3C       		.uleb128 0x3c
 1657 021d 19       		.uleb128 0x19
 1658 021e 00       		.byte	0
 1659 021f 00       		.byte	0
 1660 0220 24       		.uleb128 0x24
 1661 0221 2E       		.uleb128 0x2e
 1662 0222 01       		.byte	0x1
 1663 0223 3F       		.uleb128 0x3f
 1664 0224 19       		.uleb128 0x19
 1665 0225 03       		.uleb128 0x3
 1666 0226 0E       		.uleb128 0xe
 1667 0227 3A       		.uleb128 0x3a
 1668 0228 0B       		.uleb128 0xb
 1669 0229 3B       		.uleb128 0x3b
 1670 022a 05       		.uleb128 0x5
 1671 022b 39       		.uleb128 0x39
 1672 022c 0B       		.uleb128 0xb
 1673 022d 27       		.uleb128 0x27
 1674 022e 19       		.uleb128 0x19
 1675 022f 3C       		.uleb128 0x3c
 1676 0230 19       		.uleb128 0x19
 1677 0231 01       		.uleb128 0x1
 1678 0232 13       		.uleb128 0x13
 1679 0233 00       		.byte	0
 1680 0234 00       		.byte	0
 1681 0235 25       		.uleb128 0x25
 1682 0236 2E       		.uleb128 0x2e
 1683 0237 00       		.byte	0
 1684 0238 3F       		.uleb128 0x3f
 1685 0239 19       		.uleb128 0x19
 1686 023a 03       		.uleb128 0x3
 1687 023b 0E       		.uleb128 0xe
 1688 023c 3A       		.uleb128 0x3a
 1689 023d 0B       		.uleb128 0xb
 1690 023e 3B       		.uleb128 0x3b
 1691 023f 05       		.uleb128 0x5
 1692 0240 39       		.uleb128 0x39
 1693 0241 0B       		.uleb128 0xb
 1694 0242 27       		.uleb128 0x27
 1695 0243 19       		.uleb128 0x19
 1696 0244 3C       		.uleb128 0x3c
 1697 0245 19       		.uleb128 0x19
 1698 0246 00       		.byte	0
 1699 0247 00       		.byte	0
 1700 0248 26       		.uleb128 0x26
 1701 0249 48       		.uleb128 0x48
 1702 024a 01       		.byte	0x1
 1703 024b 7D       		.uleb128 0x7d
 1704 024c 01       		.uleb128 0x1
 1705 024d 7F       		.uleb128 0x7f
 1706 024e 13       		.uleb128 0x13
 1707 024f 00       		.byte	0
 1708 0250 00       		.byte	0
 1709 0251 27       		.uleb128 0x27
 1710 0252 48       		.uleb128 0x48
ARM GAS  C:\Users\DEVELO~1\AppData\Local\Temp\ccqj5UtW.s 			page 31


 1711 0253 01       		.byte	0x1
 1712 0254 7D       		.uleb128 0x7d
 1713 0255 01       		.uleb128 0x1
 1714 0256 7F       		.uleb128 0x7f
 1715 0257 13       		.uleb128 0x13
 1716 0258 01       		.uleb128 0x1
 1717 0259 13       		.uleb128 0x13
 1718 025a 00       		.byte	0
 1719 025b 00       		.byte	0
 1720 025c 28       		.uleb128 0x28
 1721 025d 2E       		.uleb128 0x2e
 1722 025e 01       		.byte	0x1
 1723 025f 3F       		.uleb128 0x3f
 1724 0260 19       		.uleb128 0x19
 1725 0261 03       		.uleb128 0x3
 1726 0262 0E       		.uleb128 0xe
 1727 0263 3A       		.uleb128 0x3a
 1728 0264 0B       		.uleb128 0xb
 1729 0265 3B       		.uleb128 0x3b
 1730 0266 0B       		.uleb128 0xb
 1731 0267 39       		.uleb128 0x39
 1732 0268 0B       		.uleb128 0xb
 1733 0269 27       		.uleb128 0x27
 1734 026a 19       		.uleb128 0x19
 1735 026b 20       		.uleb128 0x20
 1736 026c 0B       		.uleb128 0xb
 1737 026d 01       		.uleb128 0x1
 1738 026e 13       		.uleb128 0x13
 1739 026f 00       		.byte	0
 1740 0270 00       		.byte	0
 1741 0271 29       		.uleb128 0x29
 1742 0272 05       		.uleb128 0x5
 1743 0273 00       		.byte	0
 1744 0274 03       		.uleb128 0x3
 1745 0275 0E       		.uleb128 0xe
 1746 0276 3A       		.uleb128 0x3a
 1747 0277 0B       		.uleb128 0xb
 1748 0278 3B       		.uleb128 0x3b
 1749 0279 0B       		.uleb128 0xb
 1750 027a 39       		.uleb128 0x39
 1751 027b 0B       		.uleb128 0xb
 1752 027c 49       		.uleb128 0x49
 1753 027d 13       		.uleb128 0x13
 1754 027e 00       		.byte	0
 1755 027f 00       		.byte	0
 1756 0280 2A       		.uleb128 0x2a
 1757 0281 05       		.uleb128 0x5
 1758 0282 00       		.byte	0
 1759 0283 31       		.uleb128 0x31
 1760 0284 13       		.uleb128 0x13
 1761 0285 00       		.byte	0
 1762 0286 00       		.byte	0
 1763 0287 2B       		.uleb128 0x2b
 1764 0288 05       		.uleb128 0x5
 1765 0289 00       		.byte	0
 1766 028a 03       		.uleb128 0x3
 1767 028b 0E       		.uleb128 0xe
ARM GAS  C:\Users\DEVELO~1\AppData\Local\Temp\ccqj5UtW.s 			page 32


 1768 028c 3A       		.uleb128 0x3a
 1769 028d 0B       		.uleb128 0xb
 1770 028e 3B       		.uleb128 0x3b
 1771 028f 05       		.uleb128 0x5
 1772 0290 39       		.uleb128 0x39
 1773 0291 0B       		.uleb128 0xb
 1774 0292 49       		.uleb128 0x49
 1775 0293 13       		.uleb128 0x13
 1776 0294 00       		.byte	0
 1777 0295 00       		.byte	0
 1778 0296 2C       		.uleb128 0x2c
 1779 0297 2E       		.uleb128 0x2e
 1780 0298 01       		.byte	0x1
 1781 0299 31       		.uleb128 0x31
 1782 029a 13       		.uleb128 0x13
 1783 029b 11       		.uleb128 0x11
 1784 029c 01       		.uleb128 0x1
 1785 029d 12       		.uleb128 0x12
 1786 029e 06       		.uleb128 0x6
 1787 029f 40       		.uleb128 0x40
 1788 02a0 18       		.uleb128 0x18
 1789 02a1 7A       		.uleb128 0x7a
 1790 02a2 19       		.uleb128 0x19
 1791 02a3 00       		.byte	0
 1792 02a4 00       		.byte	0
 1793 02a5 2D       		.uleb128 0x2d
 1794 02a6 05       		.uleb128 0x5
 1795 02a7 00       		.byte	0
 1796 02a8 31       		.uleb128 0x31
 1797 02a9 13       		.uleb128 0x13
 1798 02aa 02       		.uleb128 0x2
 1799 02ab 18       		.uleb128 0x18
 1800 02ac 00       		.byte	0
 1801 02ad 00       		.byte	0
 1802 02ae 00       		.byte	0
 1803              		.section	.debug_loclists,"",%progbits
 1804 0000 96000000 		.4byte	.Ldebug_loc3-.Ldebug_loc2
 1805              	.Ldebug_loc2:
 1806 0004 0500     		.2byte	0x5
 1807 0006 04       		.byte	0x4
 1808 0007 00       		.byte	0
 1809 0008 00000000 		.4byte	0
 1810              	.Ldebug_loc0:
 1811              	.LVUS5:
 1812 000c 00       		.uleb128 0
 1813 000d 00       		.uleb128 .LVU100
 1814 000e 00       		.uleb128 .LVU100
 1815 000f 00       		.uleb128 0
 1816              	.LLST5:
 1817 0010 06       		.byte	0x6
 1818 0011 00000000 		.4byte	.LVL12
 1819 0015 04       		.byte	0x4
 1820 0016 00       		.uleb128 .LVL12-.LVL12
 1821 0017 0D       		.uleb128 .LVL14-1-.LVL12
 1822 0018 01       		.uleb128 0x1
 1823 0019 50       		.byte	0x50
 1824 001a 04       		.byte	0x4
ARM GAS  C:\Users\DEVELO~1\AppData\Local\Temp\ccqj5UtW.s 			page 33


 1825 001b 0D       		.uleb128 .LVL14-1-.LVL12
 1826 001c 1A       		.uleb128 .LFE435-.LVL12
 1827 001d 01       		.uleb128 0x1
 1828 001e 54       		.byte	0x54
 1829 001f 00       		.byte	0
 1830              	.LVUS7:
 1831 0020 0B       		.uleb128 .LVU87
 1832 0021 00       		.uleb128 .LVU93
 1833              	.LLST7:
 1834 0022 08       		.byte	0x8
 1835 0023 00000000 		.4byte	.LVL12
 1836 0027 0A       		.uleb128 .LVL13-.LVL12
 1837 0028 03       		.uleb128 0x3
 1838 0029 08       		.byte	0x8
 1839 002a 30       		.byte	0x30
 1840 002b 9F       		.byte	0x9f
 1841 002c 00       		.byte	0
 1842              	.LVUS9:
 1843 002d 0C       		.uleb128 .LVU116
 1844 002e 00       		.uleb128 .LVU118
 1845              	.LLST9:
 1846 002f 08       		.byte	0x8
 1847 0030 14000000 		.4byte	.LVL15
 1848 0034 04       		.uleb128 .LVL16-.LVL15
 1849 0035 02       		.uleb128 0x2
 1850 0036 30       		.byte	0x30
 1851 0037 9F       		.byte	0x9f
 1852 0038 00       		.byte	0
 1853              	.LVUS0:
 1854 0039 00       		.uleb128 0
 1855 003a 00       		.uleb128 .LVU36
 1856 003b 00       		.uleb128 .LVU36
 1857 003c 00       		.uleb128 .LVU72
 1858 003d 00       		.uleb128 .LVU72
 1859 003e 00       		.uleb128 .LVU73
 1860 003f 00       		.uleb128 .LVU73
 1861 0040 00       		.uleb128 0
 1862              	.LLST0:
 1863 0041 06       		.byte	0x6
 1864 0042 00000000 		.4byte	.LVL3
 1865 0046 04       		.byte	0x4
 1866 0047 00       		.uleb128 .LVL3-.LVL3
 1867 0048 0E       		.uleb128 .LVL4-.LVL3
 1868 0049 01       		.uleb128 0x1
 1869 004a 50       		.byte	0x50
 1870 004b 04       		.byte	0x4
 1871 004c 0E       		.uleb128 .LVL4-.LVL3
 1872 004d 28       		.uleb128 .LVL9-.LVL3
 1873 004e 01       		.uleb128 0x1
 1874 004f 54       		.byte	0x54
 1875 0050 04       		.byte	0x4
 1876 0051 28       		.uleb128 .LVL9-.LVL3
 1877 0052 2A       		.uleb128 .LVL10-.LVL3
 1878 0053 01       		.uleb128 0x1
 1879 0054 50       		.byte	0x50
 1880 0055 04       		.byte	0x4
 1881 0056 2A       		.uleb128 .LVL10-.LVL3
ARM GAS  C:\Users\DEVELO~1\AppData\Local\Temp\ccqj5UtW.s 			page 34


 1882 0057 38       		.uleb128 .LFE434-.LVL3
 1883 0058 01       		.uleb128 0x1
 1884 0059 54       		.byte	0x54
 1885 005a 00       		.byte	0
 1886              	.LVUS1:
 1887 005b 00       		.uleb128 0
 1888 005c 00       		.uleb128 .LVU36
 1889 005d 00       		.uleb128 .LVU36
 1890 005e 00       		.uleb128 .LVU72
 1891 005f 00       		.uleb128 .LVU72
 1892 0060 00       		.uleb128 .LVU75
 1893 0061 00       		.uleb128 .LVU75
 1894 0062 00       		.uleb128 0
 1895              	.LLST1:
 1896 0063 06       		.byte	0x6
 1897 0064 00000000 		.4byte	.LVL3
 1898 0068 04       		.byte	0x4
 1899 0069 00       		.uleb128 .LVL3-.LVL3
 1900 006a 0E       		.uleb128 .LVL4-.LVL3
 1901 006b 01       		.uleb128 0x1
 1902 006c 51       		.byte	0x51
 1903 006d 04       		.byte	0x4
 1904 006e 0E       		.uleb128 .LVL4-.LVL3
 1905 006f 28       		.uleb128 .LVL9-.LVL3
 1906 0070 04       		.uleb128 0x4
 1907 0071 A3       		.byte	0xa3
 1908 0072 01       		.uleb128 0x1
 1909 0073 51       		.byte	0x51
 1910 0074 9F       		.byte	0x9f
 1911 0075 04       		.byte	0x4
 1912 0076 28       		.uleb128 .LVL9-.LVL3
 1913 0077 2F       		.uleb128 .LVL11-1-.LVL3
 1914 0078 01       		.uleb128 0x1
 1915 0079 51       		.byte	0x51
 1916 007a 04       		.byte	0x4
 1917 007b 2F       		.uleb128 .LVL11-1-.LVL3
 1918 007c 38       		.uleb128 .LFE434-.LVL3
 1919 007d 02       		.uleb128 0x2
 1920 007e 91       		.byte	0x91
 1921 007f 74       		.sleb128 -12
 1922 0080 00       		.byte	0
 1923              	.LVUS2:
 1924 0081 07       		.uleb128 .LVU43
 1925 0082 00       		.uleb128 .LVU45
 1926              	.LLST2:
 1927 0083 08       		.byte	0x8
 1928 0084 0E000000 		.4byte	.LVL4
 1929 0088 06       		.uleb128 .LVL5-.LVL4
 1930 0089 03       		.uleb128 0x3
 1931 008a 08       		.byte	0x8
 1932 008b 30       		.byte	0x30
 1933 008c 9F       		.byte	0x9f
 1934 008d 00       		.byte	0
 1935              	.LVUS4:
 1936 008e 0C       		.uleb128 .LVU68
 1937 008f 00       		.uleb128 .LVU70
 1938              	.LLST4:
ARM GAS  C:\Users\DEVELO~1\AppData\Local\Temp\ccqj5UtW.s 			page 35


 1939 0090 08       		.byte	0x8
 1940 0091 20000000 		.4byte	.LVL7
 1941 0095 04       		.uleb128 .LVL8-.LVL7
 1942 0096 02       		.uleb128 0x2
 1943 0097 30       		.byte	0x30
 1944 0098 9F       		.byte	0x9f
 1945 0099 00       		.byte	0
 1946              	.Ldebug_loc3:
 1947              		.section	.debug_aranges,"",%progbits
 1948 0000 34000000 		.4byte	0x34
 1949 0004 0200     		.2byte	0x2
 1950 0006 00000000 		.4byte	.Ldebug_info0
 1951 000a 04       		.byte	0x4
 1952 000b 00       		.byte	0
 1953 000c 0000     		.2byte	0
 1954 000e 0000     		.2byte	0
 1955 0010 00000000 		.4byte	.LFB432
 1956 0014 1C000000 		.4byte	.LFE432-.LFB432
 1957 0018 00000000 		.4byte	.LFB433
 1958 001c 10000000 		.4byte	.LFE433-.LFB433
 1959 0020 00000000 		.4byte	.LFB434
 1960 0024 38000000 		.4byte	.LFE434-.LFB434
 1961 0028 00000000 		.4byte	.LFB435
 1962 002c 1A000000 		.4byte	.LFE435-.LFB435
 1963 0030 00000000 		.4byte	0
 1964 0034 00000000 		.4byte	0
 1965              		.section	.debug_rnglists,"",%progbits
 1966              	.Ldebug_ranges0:
 1967 0000 48000000 		.4byte	.Ldebug_ranges3-.Ldebug_ranges2
 1968              	.Ldebug_ranges2:
 1969 0004 0500     		.2byte	0x5
 1970 0006 04       		.byte	0x4
 1971 0007 00       		.byte	0
 1972 0008 00000000 		.4byte	0
 1973              	.LLRL3:
 1974 000c 05       		.byte	0x5
 1975 000d 1C000000 		.4byte	.LBB59
 1976 0011 04       		.byte	0x4
 1977 0012 00       		.uleb128 .LBB59-.LBB59
 1978 0013 02       		.uleb128 .LBE59-.LBB59
 1979 0014 04       		.byte	0x4
 1980 0015 04       		.uleb128 .LBB70-.LBB59
 1981 0016 08       		.uleb128 .LBE70-.LBB59
 1982 0017 00       		.byte	0
 1983              	.LLRL6:
 1984 0018 05       		.byte	0x5
 1985 0019 00000000 		.4byte	.LBB71
 1986 001d 04       		.byte	0x4
 1987 001e 00       		.uleb128 .LBB71-.LBB71
 1988 001f 00       		.uleb128 .LBE71-.LBB71
 1989 0020 04       		.byte	0x4
 1990 0021 02       		.uleb128 .LBB84-.LBB71
 1991 0022 04       		.uleb128 .LBE84-.LBB71
 1992 0023 04       		.byte	0x4
 1993 0024 06       		.uleb128 .LBB85-.LBB71
 1994 0025 0A       		.uleb128 .LBE85-.LBB71
 1995 0026 00       		.byte	0
ARM GAS  C:\Users\DEVELO~1\AppData\Local\Temp\ccqj5UtW.s 			page 36


 1996              	.LLRL8:
 1997 0027 05       		.byte	0x5
 1998 0028 10000000 		.4byte	.LBB86
 1999 002c 04       		.byte	0x4
 2000 002d 00       		.uleb128 .LBB86-.LBB86
 2001 002e 02       		.uleb128 .LBE86-.LBB86
 2002 002f 04       		.byte	0x4
 2003 0030 04       		.uleb128 .LBB97-.LBB86
 2004 0031 08       		.uleb128 .LBE97-.LBB86
 2005 0032 00       		.byte	0
 2006              	.LLRL10:
 2007 0033 07       		.byte	0x7
 2008 0034 00000000 		.4byte	.LFB432
 2009 0038 1C       		.uleb128 .LFE432-.LFB432
 2010 0039 07       		.byte	0x7
 2011 003a 00000000 		.4byte	.LFB433
 2012 003e 10       		.uleb128 .LFE433-.LFB433
 2013 003f 07       		.byte	0x7
 2014 0040 00000000 		.4byte	.LFB434
 2015 0044 38       		.uleb128 .LFE434-.LFB434
 2016 0045 07       		.byte	0x7
 2017 0046 00000000 		.4byte	.LFB435
 2018 004a 1A       		.uleb128 .LFE435-.LFB435
 2019 004b 00       		.byte	0
 2020              	.Ldebug_ranges3:
 2021              		.section	.debug_line,"",%progbits
 2022              	.Ldebug_line0:
 2023 0000 A0040000 		.section	.debug_str,"MS",%progbits,1
 2023      03008202 
 2023      00000201 
 2023      FB0E0D00 
 2023      01010101 
 2024              	.LASF37:
 2025 0000 73647274 		.ascii	"sdrtr\000"
 2025      7200
 2026              	.LASF19:
 2027 0006 53445254 		.ascii	"SDRTR\000"
 2027      5200
 2028              	.LASF42:
 2029 000c 73647261 		.ascii	"sdram_lld_start\000"
 2029      6D5F6C6C 
 2029      645F7374 
 2029      61727400 
 2030              	.LASF23:
 2031 001c 73746174 		.ascii	"state\000"
 2031      6500
 2032              	.LASF5:
 2033 0022 73686F72 		.ascii	"short int\000"
 2033      7420696E 
 2033      7400
 2034              	.LASF32:
 2035 002c 73647261 		.ascii	"sdramstate_t\000"
 2035      6D737461 
 2035      74655F74 
 2035      00
 2036              	.LASF14:
 2037 0039 53444352 		.ascii	"SDCR1\000"
ARM GAS  C:\Users\DEVELO~1\AppData\Local\Temp\ccqj5UtW.s 			page 37


 2037      3100
 2038              	.LASF15:
 2039 003f 53444352 		.ascii	"SDCR2\000"
 2039      3200
 2040              	.LASF51:
 2041 0045 6F73616C 		.ascii	"osalSysUnlock\000"
 2041      53797355 
 2041      6E6C6F63 
 2041      6B00
 2042              	.LASF17:
 2043 0053 53445452 		.ascii	"SDTR2\000"
 2043      3200
 2044              	.LASF38:
 2045 0059 53445241 		.ascii	"SDRAMConfig\000"
 2045      4D436F6E 
 2045      66696700 
 2046              	.LASF55:
 2047 0065 706F7274 		.ascii	"port_lock\000"
 2047      5F6C6F63 
 2047      6B00
 2048              	.LASF53:
 2049 006f 63685379 		.ascii	"chSysLock\000"
 2049      734C6F63 
 2049      6B00
 2050              	.LASF59:
 2051 0079 474E5520 		.ascii	"GNU C17 11.3.1 20220712 -mcpu=cortex-m7 -mthumb -mf"
 2051      43313720 
 2051      31312E33 
 2051      2E312032 
 2051      30323230 
 2052 00ac 6C6F6174 		.ascii	"loat-abi=soft -march=armv7e-m -ggdb -O2 -fomit-fram"
 2052      2D616269 
 2052      3D736F66 
 2052      74202D6D 
 2052      61726368 
 2053 00df 652D706F 		.ascii	"e-pointer -falign-functions=16 -ffunction-sections "
 2053      696E7465 
 2053      72202D66 
 2053      616C6967 
 2053      6E2D6675 
 2054 0112 2D666461 		.ascii	"-fdata-sections -fno-common\000"
 2054      74612D73 
 2054      65637469 
 2054      6F6E7320 
 2054      2D666E6F 
 2055              	.LASF47:
 2056 012e 636F6E66 		.ascii	"config\000"
 2056      696700
 2057              	.LASF50:
 2058 0135 73647261 		.ascii	"sdramInit\000"
 2058      6D496E69 
 2058      7400
 2059              	.LASF34:
 2060 013f 73646372 		.ascii	"sdcr\000"
 2060      00
 2061              	.LASF2:
 2062 0144 6C6F6E67 		.ascii	"long double\000"
ARM GAS  C:\Users\DEVELO~1\AppData\Local\Temp\ccqj5UtW.s 			page 38


 2062      20646F75 
 2062      626C6500 
 2063              	.LASF1:
 2064 0150 6C6F6E67 		.ascii	"long long int\000"
 2064      206C6F6E 
 2064      6720696E 
 2064      7400
 2065              	.LASF60:
 2066 015e 2E2E2F2E 		.ascii	"../../../ChibiOS-Contrib-chibios-21.11.x/os/hal/src"
 2066      2E2F2E2E 
 2066      2F436869 
 2066      62694F53 
 2066      2D436F6E 
 2067 0191 2F68616C 		.ascii	"/hal_sdram.c\000"
 2067      5F736472 
 2067      616D2E63 
 2067      00
 2068              	.LASF7:
 2069 019e 6C6F6E67 		.ascii	"long int\000"
 2069      20696E74 
 2069      00
 2070              	.LASF29:
 2071 01a7 53445241 		.ascii	"SDRAM_UNINIT\000"
 2071      4D5F554E 
 2071      494E4954 
 2071      00
 2072              	.LASF49:
 2073 01b4 73647261 		.ascii	"sdramObjectInit\000"
 2073      6D4F626A 
 2073      65637449 
 2073      6E697400 
 2074              	.LASF46:
 2075 01c4 73647261 		.ascii	"sdramp\000"
 2075      6D7000
 2076              	.LASF52:
 2077 01cb 6F73616C 		.ascii	"osalSysLock\000"
 2077      5379734C 
 2077      6F636B00 
 2078              	.LASF4:
 2079 01d7 756E7369 		.ascii	"unsigned char\000"
 2079      676E6564 
 2079      20636861 
 2079      7200
 2080              	.LASF48:
 2081 01e5 5F5F6675 		.ascii	"__func__\000"
 2081      6E635F5F 
 2081      00
 2082              	.LASF3:
 2083 01ee 7369676E 		.ascii	"signed char\000"
 2083      65642063 
 2083      68617200 
 2084              	.LASF9:
 2085 01fa 6C6F6E67 		.ascii	"long long unsigned int\000"
 2085      206C6F6E 
 2085      6720756E 
 2085      7369676E 
 2085      65642069 
ARM GAS  C:\Users\DEVELO~1\AppData\Local\Temp\ccqj5UtW.s 			page 39


 2086              	.LASF11:
 2087 0211 75696E74 		.ascii	"uint32_t\000"
 2087      33325F74 
 2087      00
 2088              	.LASF41:
 2089 021a 73647261 		.ascii	"sdram_lld_stop\000"
 2089      6D5F6C6C 
 2089      645F7374 
 2089      6F7000
 2090              	.LASF61:
 2091 0229 433A5C50 		.ascii	"C:\\PROJET\\ChibiOS project\\ChibiOS_21.11.4\\demos"
 2091      524F4A45 
 2091      545C4368 
 2091      6962694F 
 2091      53207072 
 2092 0258 5C53544D 		.ascii	"\\STM32\\RT-STM32H743ZI_REV_XY-NUCLEO144\000"
 2092      33325C52 
 2092      542D5354 
 2092      4D333248 
 2092      3734335A 
 2093              	.LASF25:
 2094 027f 46534D43 		.ascii	"FSMC_UNINIT\000"
 2094      5F554E49 
 2094      4E495400 
 2095              	.LASF6:
 2096 028b 73686F72 		.ascii	"short unsigned int\000"
 2096      7420756E 
 2096      7369676E 
 2096      65642069 
 2096      6E7400
 2097              	.LASF58:
 2098 029e 62617365 		.ascii	"basePri\000"
 2098      50726900 
 2099              	.LASF27:
 2100 02a6 46534D43 		.ascii	"FSMC_READY\000"
 2100      5F524541 
 2100      445900
 2101              	.LASF22:
 2102 02b1 46534D43 		.ascii	"FSMCDriver\000"
 2102      44726976 
 2102      657200
 2103              	.LASF12:
 2104 02bc 63686172 		.ascii	"char\000"
 2104      00
 2105              	.LASF13:
 2106 02c1 5F426F6F 		.ascii	"_Bool\000"
 2106      6C00
 2107              	.LASF54:
 2108 02c7 706F7274 		.ascii	"port_unlock\000"
 2108      5F756E6C 
 2108      6F636B00 
 2109              	.LASF44:
 2110 02d3 73647261 		.ascii	"sdramStop\000"
 2110      6D53746F 
 2110      7000
 2111              	.LASF16:
 2112 02dd 53445452 		.ascii	"SDTR1\000"
ARM GAS  C:\Users\DEVELO~1\AppData\Local\Temp\ccqj5UtW.s 			page 40


 2112      3100
 2113              	.LASF28:
 2114 02e3 66736D63 		.ascii	"fsmcstate_t\000"
 2114      73746174 
 2114      655F7400 
 2115              	.LASF8:
 2116 02ef 6C6F6E67 		.ascii	"long unsigned int\000"
 2116      20756E73 
 2116      69676E65 
 2116      6420696E 
 2116      7400
 2117              	.LASF62:
 2118 0301 66736D63 		.ascii	"fsmcInit\000"
 2118      496E6974 
 2118      00
 2119              	.LASF20:
 2120 030a 53445352 		.ascii	"SDSR\000"
 2120      00
 2121              	.LASF10:
 2122 030f 5F5F7569 		.ascii	"__uint32_t\000"
 2122      6E743332 
 2122      5F7400
 2123              	.LASF56:
 2124 031a 63685379 		.ascii	"chSysUnlock\000"
 2124      73556E6C 
 2124      6F636B00 
 2125              	.LASF26:
 2126 0326 46534D43 		.ascii	"FSMC_STOP\000"
 2126      5F53544F 
 2126      5000
 2127              	.LASF35:
 2128 0330 73647472 		.ascii	"sdtr\000"
 2128      00
 2129              	.LASF43:
 2130 0335 66736D63 		.ascii	"fsmcStart\000"
 2130      53746172 
 2130      7400
 2131              	.LASF40:
 2132 033f 53445241 		.ascii	"SDRAMD1\000"
 2132      4D443100 
 2133              	.LASF36:
 2134 0347 7364636D 		.ascii	"sdcmr\000"
 2134      7200
 2135              	.LASF18:
 2136 034d 5344434D 		.ascii	"SDCMR\000"
 2136      5200
 2137              	.LASF57:
 2138 0353 5F5F7365 		.ascii	"__set_BASEPRI\000"
 2138      745F4241 
 2138      53455052 
 2138      4900
 2139              	.LASF45:
 2140 0361 73647261 		.ascii	"sdramStart\000"
 2140      6D537461 
 2140      727400
 2141              	.LASF21:
 2142 036c 46534D43 		.ascii	"FSMC_SDRAM_TypeDef\000"
ARM GAS  C:\Users\DEVELO~1\AppData\Local\Temp\ccqj5UtW.s 			page 41


 2142      5F534452 
 2142      414D5F54 
 2142      79706544 
 2142      656600
 2143              	.LASF24:
 2144 037f 73647261 		.ascii	"sdram\000"
 2144      6D00
 2145              	.LASF0:
 2146 0385 756E7369 		.ascii	"unsigned int\000"
 2146      676E6564 
 2146      20696E74 
 2146      00
 2147              	.LASF30:
 2148 0392 53445241 		.ascii	"SDRAM_STOP\000"
 2148      4D5F5354 
 2148      4F5000
 2149              	.LASF31:
 2150 039d 53445241 		.ascii	"SDRAM_READY\000"
 2150      4D5F5245 
 2150      41445900 
 2151              	.LASF33:
 2152 03a9 53445241 		.ascii	"SDRAMDriver\000"
 2152      4D447269 
 2152      76657200 
 2153              	.LASF39:
 2154 03b5 46534D43 		.ascii	"FSMCD1\000"
 2154      443100
 2155              		.ident	"GCC: (Arm GNU Toolchain 11.3.Rel1) 11.3.1 20220712"
ARM GAS  C:\Users\DEVELO~1\AppData\Local\Temp\ccqj5UtW.s 			page 42


DEFINED SYMBOLS
                            *ABS*:00000000 hal_sdram.c
C:\Users\DEVELO~1\AppData\Local\Temp\ccqj5UtW.s:18     .text.sdramInit:00000000 $t
C:\Users\DEVELO~1\AppData\Local\Temp\ccqj5UtW.s:25     .text.sdramInit:00000000 sdramInit
C:\Users\DEVELO~1\AppData\Local\Temp\ccqj5UtW.s:69     .text.sdramInit:00000014 $d
C:\Users\DEVELO~1\AppData\Local\Temp\ccqj5UtW.s:75     .text.sdramObjectInit:00000000 $t
C:\Users\DEVELO~1\AppData\Local\Temp\ccqj5UtW.s:82     .text.sdramObjectInit:00000000 sdramObjectInit
C:\Users\DEVELO~1\AppData\Local\Temp\ccqj5UtW.s:107    .text.sdramObjectInit:0000000c $d
C:\Users\DEVELO~1\AppData\Local\Temp\ccqj5UtW.s:112    .text.sdramStart:00000000 $t
C:\Users\DEVELO~1\AppData\Local\Temp\ccqj5UtW.s:119    .text.sdramStart:00000000 sdramStart
C:\Users\DEVELO~1\AppData\Local\Temp\ccqj5UtW.s:275    .text.sdramStart:00000034 $d
C:\Users\DEVELO~1\AppData\Local\Temp\ccqj5UtW.s:280    .text.sdramStop:00000000 $t
C:\Users\DEVELO~1\AppData\Local\Temp\ccqj5UtW.s:287    .text.sdramStop:00000000 sdramStop

UNDEFINED SYMBOLS
fsmcInit
FSMCD1
SDRAMD1
sdram_lld_start
fsmcStart
sdram_lld_stop
