ARM GAS  C:\Users\DEVELO~1\AppData\Local\Temp\cc3Rlmfe.s 			page 1


   1              		.cpu cortex-m7
   2              		.arch armv7e-m
   3              		.fpu softvfp
   4              		.eabi_attribute 20, 1
   5              		.eabi_attribute 21, 1
   6              		.eabi_attribute 23, 3
   7              		.eabi_attribute 24, 1
   8              		.eabi_attribute 25, 1
   9              		.eabi_attribute 26, 1
  10              		.eabi_attribute 30, 2
  11              		.eabi_attribute 34, 1
  12              		.eabi_attribute 18, 4
  13              		.file	"hal_serial_lld.c"
  14              		.text
  15              	.Ltext0:
  16              		.cfi_sections	.debug_frame
  17              		.section	.text.notify1,"ax",%progbits
  18              		.align	1
  19              		.p2align 4,,15
  20              		.syntax unified
  21              		.thumb
  22              		.thumb_func
  23              		.type	notify1, %function
  24              	notify1:
  25              	.LVL0:
  26              	.LFB435:
  27              		.file 1 "../../../os/hal/ports/STM32/LLD/USARTv3/hal_serial_lld.c"
  28              		.loc 1 353 37 view -0
  29              		.cfi_startproc
  30              		@ args = 0, pretend = 0, frame = 0
  31              		@ frame_needed = 0, uses_anonymous_args = 0
  32              		@ link register save eliminated.
  33              		.loc 1 355 3 view .LVU1
  34              		.loc 1 356 3 view .LVU2
  35              		.loc 1 356 15 is_stmt 0 view .LVU3
  36 0000 024A     		ldr	r2, .L3
  37 0002 1368     		ldr	r3, [r2]
  38 0004 43F0C003 		orr	r3, r3, #192
  39 0008 1360     		str	r3, [r2]
  40              		.loc 1 357 1 view .LVU4
  41 000a 7047     		bx	lr
  42              	.L4:
  43              		.align	2
  44              	.L3:
  45 000c 00100140 		.word	1073811456
  46              		.cfi_endproc
  47              	.LFE435:
  48              		.size	notify1, .-notify1
  49              		.section	.text.notify5,"ax",%progbits
  50              		.align	1
  51              		.p2align 4,,15
  52              		.syntax unified
  53              		.thumb
  54              		.thumb_func
  55              		.type	notify5, %function
  56              	notify5:
  57              	.LVL1:
ARM GAS  C:\Users\DEVELO~1\AppData\Local\Temp\cc3Rlmfe.s 			page 2


  58              	.LFB436:
  59              		.loc 1 385 37 is_stmt 1 view -0
  60              		.cfi_startproc
  61              		@ args = 0, pretend = 0, frame = 0
  62              		@ frame_needed = 0, uses_anonymous_args = 0
  63              		@ link register save eliminated.
  64              		.loc 1 387 3 view .LVU6
  65              		.loc 1 388 3 view .LVU7
  66              		.loc 1 388 14 is_stmt 0 view .LVU8
  67 0000 024A     		ldr	r2, .L6
  68 0002 1368     		ldr	r3, [r2]
  69 0004 43F0C003 		orr	r3, r3, #192
  70 0008 1360     		str	r3, [r2]
  71              		.loc 1 389 1 view .LVU9
  72 000a 7047     		bx	lr
  73              	.L7:
  74              		.align	2
  75              	.L6:
  76 000c 00500040 		.word	1073762304
  77              		.cfi_endproc
  78              	.LFE436:
  79              		.size	notify5, .-notify5
  80              		.section	.text.sd_lld_init,"ax",%progbits
  81              		.align	1
  82              		.p2align 4,,15
  83              		.global	sd_lld_init
  84              		.syntax unified
  85              		.thumb
  86              		.thumb_func
  87              		.type	sd_lld_init, %function
  88              	sd_lld_init:
  89              	.LFB437:
  90              		.loc 1 684 24 is_stmt 1 view -0
  91              		.cfi_startproc
  92              		@ args = 0, pretend = 0, frame = 0
  93              		@ frame_needed = 0, uses_anonymous_args = 0
  94              		.loc 1 687 3 view .LVU11
  95              		.loc 1 684 24 is_stmt 0 view .LVU12
  96 0000 70B5     		push	{r4, r5, r6, lr}
  97              		.cfi_def_cfa_offset 16
  98              		.cfi_offset 4, -16
  99              		.cfi_offset 5, -12
 100              		.cfi_offset 6, -8
 101              		.cfi_offset 14, -4
 102              		.loc 1 687 3 view .LVU13
 103 0002 194D     		ldr	r5, .L10
 104              		.loc 1 684 24 view .LVU14
 105 0004 82B0     		sub	sp, sp, #8
 106              		.cfi_def_cfa_offset 24
 107              		.loc 1 731 3 view .LVU15
 108 0006 194C     		ldr	r4, .L10+4
 109              		.loc 1 687 3 view .LVU16
 110 0008 2846     		mov	r0, r5
 111              		.loc 1 691 13 view .LVU17
 112 000a 194E     		ldr	r6, .L10+8
 113              		.loc 1 687 3 view .LVU18
 114 000c FFF7FEFF 		bl	sdObjectInit
ARM GAS  C:\Users\DEVELO~1\AppData\Local\Temp\cc3Rlmfe.s 			page 3


 115              	.LVL2:
 116              		.loc 1 688 3 is_stmt 1 view .LVU19
 117 0010 05F10C00 		add	r0, r5, #12
 118 0014 0023     		movs	r3, #0
 119 0016 1022     		movs	r2, #16
 120 0018 1649     		ldr	r1, .L10+12
 121 001a 0095     		str	r5, [sp]
 122 001c FFF7FEFF 		bl	iqObjectInit
 123              	.LVL3:
 124              		.loc 1 689 3 view .LVU20
 125 0020 1022     		movs	r2, #16
 126 0022 1549     		ldr	r1, .L10+16
 127 0024 05F13000 		add	r0, r5, #48
 128 0028 144B     		ldr	r3, .L10+20
 129 002a 0095     		str	r5, [sp]
 130 002c FFF7FEFF 		bl	oqObjectInit
 131              	.LVL4:
 132              		.loc 1 690 3 view .LVU21
 133              		.loc 1 690 13 is_stmt 0 view .LVU22
 134 0030 134B     		ldr	r3, .L10+24
 135              		.loc 1 731 3 view .LVU23
 136 0032 2046     		mov	r0, r4
 137              		.loc 1 691 13 view .LVU24
 138 0034 C5E91536 		strd	r3, r6, [r5, #84]
 139              		.loc 1 731 3 is_stmt 1 view .LVU25
 140 0038 FFF7FEFF 		bl	sdObjectInit
 141              	.LVL5:
 142              		.loc 1 732 3 view .LVU26
 143 003c 04F10C00 		add	r0, r4, #12
 144 0040 0023     		movs	r3, #0
 145 0042 1022     		movs	r2, #16
 146 0044 0F49     		ldr	r1, .L10+28
 147 0046 0094     		str	r4, [sp]
 148 0048 FFF7FEFF 		bl	iqObjectInit
 149              	.LVL6:
 150              		.loc 1 733 3 view .LVU27
 151 004c 0E4B     		ldr	r3, .L10+32
 152 004e 1022     		movs	r2, #16
 153 0050 0E49     		ldr	r1, .L10+36
 154 0052 04F13000 		add	r0, r4, #48
 155 0056 0094     		str	r4, [sp]
 156 0058 FFF7FEFF 		bl	oqObjectInit
 157              	.LVL7:
 158              		.loc 1 734 3 view .LVU28
 159              		.loc 1 734 13 is_stmt 0 view .LVU29
 160 005c 0C4B     		ldr	r3, .L10+40
 161 005e C4E91536 		strd	r3, r6, [r4, #84]
 162              		.loc 1 735 3 is_stmt 1 view .LVU30
 163              		.loc 1 806 1 is_stmt 0 view .LVU31
 164 0062 02B0     		add	sp, sp, #8
 165              		.cfi_def_cfa_offset 16
 166              		@ sp needed
 167 0064 70BD     		pop	{r4, r5, r6, pc}
 168              	.L11:
 169 0066 00BF     		.align	2
 170              	.L10:
 171 0068 00000000 		.word	.LANCHOR0
ARM GAS  C:\Users\DEVELO~1\AppData\Local\Temp\cc3Rlmfe.s 			page 4


 172 006c 00000000 		.word	.LANCHOR3
 173 0070 00E1F505 		.word	100000000
 174 0074 00000000 		.word	.LANCHOR1
 175 0078 00000000 		.word	.LANCHOR2
 176 007c 00000000 		.word	notify1
 177 0080 00100140 		.word	1073811456
 178 0084 00000000 		.word	.LANCHOR4
 179 0088 00000000 		.word	notify5
 180 008c 00000000 		.word	.LANCHOR5
 181 0090 00500040 		.word	1073762304
 182              		.cfi_endproc
 183              	.LFE437:
 184              		.size	sd_lld_init, .-sd_lld_init
 185              		.section	.text.sd_lld_start,"ax",%progbits
 186              		.align	1
 187              		.p2align 4,,15
 188              		.global	sd_lld_start
 189              		.syntax unified
 190              		.thumb
 191              		.thumb_func
 192              		.type	sd_lld_start, %function
 193              	sd_lld_start:
 194              	.LVL8:
 195              	.LFB438:
 196              		.loc 1 818 66 is_stmt 1 view -0
 197              		.cfi_startproc
 198              		@ args = 0, pretend = 0, frame = 0
 199              		@ frame_needed = 0, uses_anonymous_args = 0
 200              		.loc 1 820 3 view .LVU33
 201              		.loc 1 818 66 is_stmt 0 view .LVU34
 202 0000 2DE9F041 		push	{r4, r5, r6, r7, r8, lr}
 203              		.cfi_def_cfa_offset 24
 204              		.cfi_offset 4, -24
 205              		.cfi_offset 5, -20
 206              		.cfi_offset 6, -16
 207              		.cfi_offset 7, -12
 208              		.cfi_offset 8, -8
 209              		.cfi_offset 14, -4
 210              		.loc 1 820 6 view .LVU35
 211 0004 0029     		cmp	r1, #0
 212 0006 36D0     		beq	.L13
 213              		.loc 1 823 3 is_stmt 1 view .LVU36
 214              		.loc 1 823 6 is_stmt 0 view .LVU37
 215 0008 037A     		ldrb	r3, [r0, #8]	@ zero_extendqisi2
 216              	.LBB138:
 217              	.LBB139:
 218              		.loc 1 294 58 view .LVU38
 219 000a 40F22D16 		movw	r6, #301
 220              		.loc 1 278 37 view .LVU39
 221 000e D1E900C2 		ldrd	ip, r2, [r1]
 222              		.loc 1 292 24 view .LVU40
 223 0012 D1E90275 		ldrd	r7, r5, [r1, #8]
 224              	.LBE139:
 225              	.LBE138:
 226              		.loc 1 823 6 view .LVU41
 227 0016 012B     		cmp	r3, #1
 228              	.LBB145:
ARM GAS  C:\Users\DEVELO~1\AppData\Local\Temp\cc3Rlmfe.s 			page 5


 229              	.LBB140:
 230              		.loc 1 294 58 view .LVU42
 231 0018 46EA0206 		orr	r6, r6, r2
 232              		.loc 1 278 44 view .LVU43
 233 001c 4FEA5C03 		lsr	r3, ip, #1
 234              		.loc 1 291 24 view .LVU44
 235 0020 47F04007 		orr	r7, r7, #64
 236              		.loc 1 292 24 view .LVU45
 237 0024 45F00105 		orr	r5, r5, #1
 238              		.loc 1 283 21 view .LVU46
 239 0028 02F4004E 		and	lr, r2, #32768
 240              		.loc 1 300 20 view .LVU47
 241 002c 02F48061 		and	r1, r2, #1024
 242              	.LVL9:
 243              		.loc 1 300 20 view .LVU48
 244              	.LBE140:
 245              	.LBE145:
 246              		.loc 1 823 6 view .LVU49
 247 0030 45D0     		beq	.L20
 248              	.LVL10:
 249              	.L15:
 250              		.loc 1 880 3 is_stmt 1 view .LVU50
 251              	.LBB146:
 252              	.LBI138:
 253              		.loc 1 258 13 view .LVU51
 254              	.LBB141:
 255              		.loc 1 260 3 view .LVU52
 256              		.loc 1 261 3 view .LVU53
 257              		.loc 1 278 29 is_stmt 0 view .LVU54
 258 0032 846D     		ldr	r4, [r0, #88]
 259 0034 2344     		add	r3, r3, r4
 260              		.loc 1 261 18 view .LVU55
 261 0036 446D     		ldr	r4, [r0, #84]
 262              	.LVL11:
 263              		.loc 1 264 3 is_stmt 1 view .LVU56
 264              		.loc 1 278 5 view .LVU57
 265              		.loc 1 278 9 is_stmt 0 view .LVU58
 266 0038 B3FBFCF3 		udiv	r3, r3, ip
 267              	.LVL12:
 268              		.loc 1 283 5 is_stmt 1 view .LVU59
 269              		.loc 1 283 8 is_stmt 0 view .LVU60
 270 003c BEF1000F 		cmp	lr, #0
 271 0040 05D0     		beq	.L17
 272              	.LVL13:
 273              	.L36:
 274              		.loc 1 284 7 is_stmt 1 view .LVU61
 275              		.loc 1 284 19 is_stmt 0 view .LVU62
 276 0042 23F0070C 		bic	ip, r3, #7
 277              		.loc 1 284 37 view .LVU63
 278 0046 03F00703 		and	r3, r3, #7
 279              	.LVL14:
 280              		.loc 1 284 11 view .LVU64
 281 004a 43EA4C03 		orr	r3, r3, ip, lsl #1
 282              	.LVL15:
 283              	.L17:
 284              		.loc 1 286 5 is_stmt 1 view .LVU65
 285              		.loc 1 286 5 view .LVU66
ARM GAS  C:\Users\DEVELO~1\AppData\Local\Temp\cc3Rlmfe.s 			page 6


 286              		.loc 1 286 5 view .LVU67
 287              		.loc 1 288 3 view .LVU68
 288              		.loc 1 288 10 is_stmt 0 view .LVU69
 289 004e E360     		str	r3, [r4, #12]
 290              		.loc 1 291 3 is_stmt 1 view .LVU70
 291              		.loc 1 296 10 is_stmt 0 view .LVU71
 292 0050 4FF0FF33 		mov	r3, #-1
 293              	.LVL16:
 294              		.loc 1 291 10 view .LVU72
 295 0054 6760     		str	r7, [r4, #4]
 296              	.LVL17:
 297              		.loc 1 292 3 is_stmt 1 view .LVU73
 298              		.loc 1 292 10 is_stmt 0 view .LVU74
 299 0056 A560     		str	r5, [r4, #8]
 300              		.loc 1 293 3 is_stmt 1 view .LVU75
 301              		.loc 1 293 10 is_stmt 0 view .LVU76
 302 0058 2660     		str	r6, [r4]
 303              		.loc 1 296 3 is_stmt 1 view .LVU77
 304              		.loc 1 296 10 is_stmt 0 view .LVU78
 305 005a 2362     		str	r3, [r4, #32]
 306              		.loc 1 300 3 is_stmt 1 view .LVU79
 307              		.loc 1 300 6 is_stmt 0 view .LVU80
 308 005c 09B3     		cbz	r1, .L18
 309              		.loc 1 301 5 is_stmt 1 view .LVU81
 310 005e 12F01022 		ands	r2, r2, #268439552
 311 0062 4AD0     		beq	.L22
 312 0064 B2F1805F 		cmp	r2, #268435456
 313 0068 14BF     		ite	ne
 314 006a FF23     		movne	r3, #255
 315 006c 3F23     		moveq	r3, #63
 316              		.loc 1 303 19 is_stmt 0 view .LVU82
 317 006e 80F85C30 		strb	r3, [r0, #92]
 318              		.loc 1 303 19 view .LVU83
 319              	.LBE141:
 320              	.LBE146:
 321              		.loc 1 881 1 view .LVU84
 322 0072 BDE8F081 		pop	{r4, r5, r6, r7, r8, pc}
 323              	.LVL18:
 324              	.L13:
 325              		.loc 1 821 5 is_stmt 1 view .LVU85
 326              		.loc 1 823 3 view .LVU86
 327              		.loc 1 823 6 is_stmt 0 view .LVU87
 328 0076 057A     		ldrb	r5, [r0, #8]	@ zero_extendqisi2
 329 0078 012D     		cmp	r5, #1
 330 007a 17D0     		beq	.L34
 331              		.loc 1 880 3 is_stmt 1 view .LVU88
 332              	.LVL19:
 333              	.LBB147:
 334              		.loc 1 258 13 view .LVU89
 335              	.LBB142:
 336              		.loc 1 260 3 view .LVU90
 337              		.loc 1 261 3 view .LVU91
 338              		.loc 1 278 29 is_stmt 0 view .LVU92
 339 007c 836D     		ldr	r3, [r0, #88]
 340              		.loc 1 291 10 view .LVU93
 341 007e 4024     		movs	r4, #64
 342              		.loc 1 278 9 view .LVU94
ARM GAS  C:\Users\DEVELO~1\AppData\Local\Temp\cc3Rlmfe.s 			page 7


 343 0080 2C49     		ldr	r1, .L37
 344              		.loc 1 278 29 view .LVU95
 345 0082 03F59643 		add	r3, r3, #19200
 346              		.loc 1 261 18 view .LVU96
 347 0086 426D     		ldr	r2, [r0, #84]
 348              	.LVL20:
 349              		.loc 1 264 3 is_stmt 1 view .LVU97
 350              		.loc 1 278 5 view .LVU98
 351              		.loc 1 278 9 is_stmt 0 view .LVU99
 352 0088 A1FB0313 		umull	r1, r3, r1, r3
 353              		.loc 1 293 10 view .LVU100
 354 008c 40F22D11 		movw	r1, #301
 355              		.loc 1 278 9 view .LVU101
 356 0090 1B0B     		lsrs	r3, r3, #12
 357              	.LVL21:
 358              		.loc 1 283 5 is_stmt 1 view .LVU102
 359              		.loc 1 286 5 view .LVU103
 360              		.loc 1 286 5 view .LVU104
 361              		.loc 1 286 5 view .LVU105
 362              		.loc 1 288 3 view .LVU106
 363              		.loc 1 288 10 is_stmt 0 view .LVU107
 364 0092 D360     		str	r3, [r2, #12]
 365              		.loc 1 291 3 is_stmt 1 view .LVU108
 366              		.loc 1 292 10 is_stmt 0 view .LVU109
 367 0094 0123     		movs	r3, #1
 368              	.LVL22:
 369              		.loc 1 291 10 view .LVU110
 370 0096 5460     		str	r4, [r2, #4]
 371              	.LVL23:
 372              		.loc 1 292 3 is_stmt 1 view .LVU111
 373              		.loc 1 292 10 is_stmt 0 view .LVU112
 374 0098 9360     		str	r3, [r2, #8]
 375              		.loc 1 293 3 is_stmt 1 view .LVU113
 376              		.loc 1 296 10 is_stmt 0 view .LVU114
 377 009a 4FF0FF33 		mov	r3, #-1
 378              		.loc 1 293 10 view .LVU115
 379 009e 1160     		str	r1, [r2]
 380              		.loc 1 296 3 is_stmt 1 view .LVU116
 381              		.loc 1 296 10 is_stmt 0 view .LVU117
 382 00a0 1362     		str	r3, [r2, #32]
 383              		.loc 1 300 3 is_stmt 1 view .LVU118
 384              	.LVL24:
 385              	.L18:
 386              		.loc 1 313 5 view .LVU119
 387              		.loc 1 301 5 is_stmt 0 view .LVU120
 388 00a2 FF23     		movs	r3, #255
 389              		.loc 1 303 19 view .LVU121
 390 00a4 80F85C30 		strb	r3, [r0, #92]
 391              	.LBE142:
 392              	.LBE147:
 393              		.loc 1 881 1 view .LVU122
 394 00a8 BDE8F081 		pop	{r4, r5, r6, r7, r8, pc}
 395              	.LVL25:
 396              	.L34:
 397              		.loc 1 823 6 view .LVU123
 398 00ac 40F22D16 		movw	r6, #301
 399 00b0 4027     		movs	r7, #64
ARM GAS  C:\Users\DEVELO~1\AppData\Local\Temp\cc3Rlmfe.s 			page 8


 400 00b2 8E46     		mov	lr, r1
 401 00b4 0A46     		mov	r2, r1
 402 00b6 4FF49643 		mov	r3, #19200
 403 00ba 4FF4164C 		mov	ip, #38400
 404              	.LVL26:
 405              	.L20:
 406              		.loc 1 825 5 is_stmt 1 view .LVU124
 407              		.loc 1 825 8 is_stmt 0 view .LVU125
 408 00be 1E4C     		ldr	r4, .L37+4
 409 00c0 A042     		cmp	r0, r4
 410 00c2 1FD0     		beq	.L35
 411              		.loc 1 845 5 is_stmt 1 view .LVU126
 412              		.loc 1 845 8 is_stmt 0 view .LVU127
 413 00c4 1D4C     		ldr	r4, .L37+8
 414 00c6 A042     		cmp	r0, r4
 415 00c8 B3D1     		bne	.L15
 416              		.loc 1 846 7 is_stmt 1 view .LVU128
 417              	.LVL27:
 418              	.LBB148:
 419              	.LBI148:
 420              		.file 2 "../../../os/hal/ports/STM32/STM32H7xx/stm32_rcc.h"
 421              		.loc 2 141 22 view .LVU129
 422              	.LBB149:
 423              		.loc 2 145 3 view .LVU130
 424              		.loc 2 145 20 is_stmt 0 view .LVU131
 425 00ca 1D4C     		ldr	r4, .L37+12
 426 00cc D4F8E880 		ldr	r8, [r4, #232]
 427 00d0 48F48018 		orr	r8, r8, #1048576
 428 00d4 C4F8E880 		str	r8, [r4, #232]
 429              		.loc 2 146 3 is_stmt 1 view .LVU132
 430              		.loc 2 147 5 view .LVU133
 431              		.loc 2 147 24 is_stmt 0 view .LVU134
 432 00d8 D4F81081 		ldr	r8, [r4, #272]
 433 00dc 48F48018 		orr	r8, r8, #1048576
 434 00e0 C4F81081 		str	r8, [r4, #272]
 435              		.loc 2 152 3 is_stmt 1 view .LVU135
 436 00e4 D4F81041 		ldr	r4, [r4, #272]
 437              	.LVL28:
 438              		.loc 2 152 3 is_stmt 0 view .LVU136
 439              	.LBE149:
 440              	.LBE148:
 441              		.loc 1 880 3 is_stmt 1 view .LVU137
 442              	.LBB150:
 443              		.loc 1 258 13 view .LVU138
 444              	.LBB143:
 445              		.loc 1 260 3 view .LVU139
 446              		.loc 1 261 3 view .LVU140
 447              		.loc 1 278 29 is_stmt 0 view .LVU141
 448 00e8 846D     		ldr	r4, [r0, #88]
 449 00ea 2344     		add	r3, r3, r4
 450              		.loc 1 261 18 view .LVU142
 451 00ec 446D     		ldr	r4, [r0, #84]
 452              	.LVL29:
 453              		.loc 1 264 3 is_stmt 1 view .LVU143
 454              		.loc 1 278 5 view .LVU144
 455              		.loc 1 278 9 is_stmt 0 view .LVU145
 456 00ee B3FBFCF3 		udiv	r3, r3, ip
ARM GAS  C:\Users\DEVELO~1\AppData\Local\Temp\cc3Rlmfe.s 			page 9


 457              	.LVL30:
 458              		.loc 1 283 5 is_stmt 1 view .LVU146
 459              		.loc 1 283 8 is_stmt 0 view .LVU147
 460 00f2 BEF1000F 		cmp	lr, #0
 461 00f6 A4D1     		bne	.L36
 462 00f8 A9E7     		b	.L17
 463              	.LVL31:
 464              	.L22:
 465              		.loc 1 301 5 view .LVU148
 466 00fa 7F23     		movs	r3, #127
 467              		.loc 1 303 19 view .LVU149
 468 00fc 80F85C30 		strb	r3, [r0, #92]
 469              		.loc 1 303 19 view .LVU150
 470              	.LBE143:
 471              	.LBE150:
 472              		.loc 1 881 1 view .LVU151
 473 0100 BDE8F081 		pop	{r4, r5, r6, r7, r8, pc}
 474              	.L35:
 475              		.loc 1 826 7 is_stmt 1 view .LVU152
 476              	.LVL32:
 477              	.LBB151:
 478              	.LBI151:
 479              		.loc 2 319 22 view .LVU153
 480              	.LBB152:
 481              		.loc 2 323 3 view .LVU154
 482              		.loc 2 323 19 is_stmt 0 view .LVU155
 483 0104 0E4C     		ldr	r4, .L37+12
 484 0106 D4F8F080 		ldr	r8, [r4, #240]
 485 010a 48F01008 		orr	r8, r8, #16
 486 010e C4F8F080 		str	r8, [r4, #240]
 487              		.loc 2 324 3 is_stmt 1 view .LVU156
 488              		.loc 2 325 5 view .LVU157
 489              		.loc 2 325 23 is_stmt 0 view .LVU158
 490 0112 D4F81881 		ldr	r8, [r4, #280]
 491 0116 48F01008 		orr	r8, r8, #16
 492 011a C4F81881 		str	r8, [r4, #280]
 493              		.loc 2 330 3 is_stmt 1 view .LVU159
 494 011e D4F81841 		ldr	r4, [r4, #280]
 495              	.LVL33:
 496              		.loc 2 330 3 is_stmt 0 view .LVU160
 497              	.LBE152:
 498              	.LBE151:
 499              		.loc 1 845 5 is_stmt 1 view .LVU161
 500              		.loc 1 880 3 view .LVU162
 501              	.LBB153:
 502              		.loc 1 258 13 view .LVU163
 503              	.LBB144:
 504              		.loc 1 260 3 view .LVU164
 505              		.loc 1 261 3 view .LVU165
 506              		.loc 1 278 29 is_stmt 0 view .LVU166
 507 0122 846D     		ldr	r4, [r0, #88]
 508 0124 2344     		add	r3, r3, r4
 509              		.loc 1 261 18 view .LVU167
 510 0126 446D     		ldr	r4, [r0, #84]
 511              	.LVL34:
 512              		.loc 1 264 3 is_stmt 1 view .LVU168
 513              		.loc 1 278 5 view .LVU169
ARM GAS  C:\Users\DEVELO~1\AppData\Local\Temp\cc3Rlmfe.s 			page 10


 514              		.loc 1 278 9 is_stmt 0 view .LVU170
 515 0128 B3FBFCF3 		udiv	r3, r3, ip
 516              	.LVL35:
 517              		.loc 1 283 5 is_stmt 1 view .LVU171
 518              		.loc 1 283 8 is_stmt 0 view .LVU172
 519 012c BEF1000F 		cmp	lr, #0
 520 0130 87D1     		bne	.L36
 521 0132 8CE7     		b	.L17
 522              	.L38:
 523              		.align	2
 524              	.L37:
 525 0134 B5814E1B 		.word	458129845
 526 0138 00000000 		.word	.LANCHOR0
 527 013c 00000000 		.word	.LANCHOR3
 528 0140 00440258 		.word	1476543488
 529              	.LBE144:
 530              	.LBE153:
 531              		.cfi_endproc
 532              	.LFE438:
 533              		.size	sd_lld_start, .-sd_lld_start
 534              		.section	.text.sd_lld_stop,"ax",%progbits
 535              		.align	1
 536              		.p2align 4,,15
 537              		.global	sd_lld_stop
 538              		.syntax unified
 539              		.thumb
 540              		.thumb_func
 541              		.type	sd_lld_stop, %function
 542              	sd_lld_stop:
 543              	.LVL36:
 544              	.LFB439:
 545              		.loc 1 892 37 is_stmt 1 view -0
 546              		.cfi_startproc
 547              		@ args = 0, pretend = 0, frame = 0
 548              		@ frame_needed = 0, uses_anonymous_args = 0
 549              		@ link register save eliminated.
 550              		.loc 1 894 3 view .LVU174
 551              		.loc 1 894 6 is_stmt 0 view .LVU175
 552 0000 037A     		ldrb	r3, [r0, #8]	@ zero_extendqisi2
 553 0002 022B     		cmp	r3, #2
 554 0004 00D0     		beq	.L44
 555              	.L39:
 556              		.loc 1 965 1 view .LVU176
 557 0006 7047     		bx	lr
 558              	.L44:
 559              		.loc 1 896 5 is_stmt 1 view .LVU177
 560              		.loc 1 899 8 is_stmt 0 view .LVU178
 561 0008 1549     		ldr	r1, .L46
 562              	.LBB154:
 563              	.LBB155:
 564              		.loc 1 325 10 view .LVU179
 565 000a 0022     		movs	r2, #0
 566              	.LBE155:
 567              	.LBE154:
 568              		.loc 1 896 5 view .LVU180
 569 000c 436D     		ldr	r3, [r0, #84]
 570              	.LVL37:
ARM GAS  C:\Users\DEVELO~1\AppData\Local\Temp\cc3Rlmfe.s 			page 11


 571              	.LBB158:
 572              	.LBI154:
 573              		.loc 1 323 13 is_stmt 1 view .LVU181
 574              	.LBB156:
 575              		.loc 1 325 3 view .LVU182
 576              	.LBE156:
 577              	.LBE158:
 578              		.loc 1 899 8 is_stmt 0 view .LVU183
 579 000e 8842     		cmp	r0, r1
 580              	.LBB159:
 581              	.LBB157:
 582              		.loc 1 325 10 view .LVU184
 583 0010 1A60     		str	r2, [r3]
 584              		.loc 1 326 3 is_stmt 1 view .LVU185
 585              		.loc 1 326 10 is_stmt 0 view .LVU186
 586 0012 5A60     		str	r2, [r3, #4]
 587              		.loc 1 327 3 is_stmt 1 view .LVU187
 588              		.loc 1 327 10 is_stmt 0 view .LVU188
 589 0014 9A60     		str	r2, [r3, #8]
 590              	.LVL38:
 591              		.loc 1 327 10 view .LVU189
 592              	.LBE157:
 593              	.LBE159:
 594              		.loc 1 899 5 is_stmt 1 view .LVU190
 595              		.loc 1 899 8 is_stmt 0 view .LVU191
 596 0016 12D0     		beq	.L45
 597              		.loc 1 923 5 is_stmt 1 view .LVU192
 598              		.loc 1 923 8 is_stmt 0 view .LVU193
 599 0018 124B     		ldr	r3, .L46+4
 600 001a 9842     		cmp	r0, r3
 601 001c F3D1     		bne	.L39
 602              		.loc 1 924 7 is_stmt 1 view .LVU194
 603              	.LVL39:
 604              	.LBB160:
 605              	.LBI160:
 606              		.loc 2 173 22 view .LVU195
 607              	.LBB161:
 608              		.loc 2 183 3 view .LVU196
 609              		.loc 2 183 20 is_stmt 0 view .LVU197
 610 001e 124B     		ldr	r3, .L46+8
 611 0020 D3F8E820 		ldr	r2, [r3, #232]
 612 0024 22F48012 		bic	r2, r2, #1048576
 613 0028 C3F8E820 		str	r2, [r3, #232]
 614              		.loc 2 184 3 is_stmt 1 view .LVU198
 615              		.loc 2 184 22 is_stmt 0 view .LVU199
 616 002c D3F81021 		ldr	r2, [r3, #272]
 617 0030 22F48012 		bic	r2, r2, #1048576
 618 0034 C3F81021 		str	r2, [r3, #272]
 619              		.loc 2 185 3 is_stmt 1 view .LVU200
 620 0038 D3F81031 		ldr	r3, [r3, #272]
 621              	.LVL40:
 622              		.loc 2 185 3 is_stmt 0 view .LVU201
 623              	.LBE161:
 624              	.LBE160:
 625              		.loc 1 925 7 is_stmt 1 view .LVU202
 626 003c E3E7     		b	.L39
 627              	.L45:
ARM GAS  C:\Users\DEVELO~1\AppData\Local\Temp\cc3Rlmfe.s 			page 12


 628              		.loc 1 900 7 view .LVU203
 629              	.LVL41:
 630              	.LBB162:
 631              	.LBI162:
 632              		.loc 2 351 22 view .LVU204
 633              	.LBB163:
 634              		.loc 2 361 3 view .LVU205
 635              		.loc 2 361 19 is_stmt 0 view .LVU206
 636 003e 0A4B     		ldr	r3, .L46+8
 637 0040 D3F8F020 		ldr	r2, [r3, #240]
 638 0044 22F01002 		bic	r2, r2, #16
 639 0048 C3F8F020 		str	r2, [r3, #240]
 640              		.loc 2 362 3 is_stmt 1 view .LVU207
 641              		.loc 2 362 21 is_stmt 0 view .LVU208
 642 004c D3F81821 		ldr	r2, [r3, #280]
 643 0050 22F01002 		bic	r2, r2, #16
 644 0054 C3F81821 		str	r2, [r3, #280]
 645              		.loc 2 363 3 is_stmt 1 view .LVU209
 646 0058 D3F81831 		ldr	r3, [r3, #280]
 647              	.LVL42:
 648              		.loc 2 363 3 is_stmt 0 view .LVU210
 649              	.LBE163:
 650              	.LBE162:
 651              		.loc 1 901 7 is_stmt 1 view .LVU211
 652 005c 7047     		bx	lr
 653              	.L47:
 654 005e 00BF     		.align	2
 655              	.L46:
 656 0060 00000000 		.word	.LANCHOR0
 657 0064 00000000 		.word	.LANCHOR3
 658 0068 00440258 		.word	1476543488
 659              		.cfi_endproc
 660              	.LFE439:
 661              		.size	sd_lld_stop, .-sd_lld_stop
 662              		.section	.text.sd_lld_serve_interrupt,"ax",%progbits
 663              		.align	1
 664              		.p2align 4,,15
 665              		.global	sd_lld_serve_interrupt
 666              		.syntax unified
 667              		.thumb
 668              		.thumb_func
 669              		.type	sd_lld_serve_interrupt, %function
 670              	sd_lld_serve_interrupt:
 671              	.LVL43:
 672              	.LFB440:
 673              		.loc 1 972 48 view -0
 674              		.cfi_startproc
 675              		@ args = 0, pretend = 0, frame = 0
 676              		@ frame_needed = 0, uses_anonymous_args = 0
 677              		.loc 1 973 3 view .LVU213
 678              		.loc 1 972 48 is_stmt 0 view .LVU214
 679 0000 2DE9F047 		push	{r4, r5, r6, r7, r8, r9, r10, lr}
 680              		.cfi_def_cfa_offset 32
 681              		.cfi_offset 4, -32
 682              		.cfi_offset 5, -28
 683              		.cfi_offset 6, -24
 684              		.cfi_offset 7, -20
ARM GAS  C:\Users\DEVELO~1\AppData\Local\Temp\cc3Rlmfe.s 			page 13


 685              		.cfi_offset 8, -16
 686              		.cfi_offset 9, -12
 687              		.cfi_offset 10, -8
 688              		.cfi_offset 14, -4
 689              		.loc 1 973 18 view .LVU215
 690 0004 456D     		ldr	r5, [r0, #84]
 691              	.LVL44:
 692              		.loc 1 974 3 is_stmt 1 view .LVU216
 693              		.loc 1 975 3 view .LVU217
 694              		.loc 1 978 3 view .LVU218
 695              		.loc 1 972 48 is_stmt 0 view .LVU219
 696 0006 0646     		mov	r6, r0
 697              		.loc 1 978 7 view .LVU220
 698 0008 EC69     		ldr	r4, [r5, #28]
 699              	.LVL45:
 700              		.loc 1 979 3 is_stmt 1 view .LVU221
 701              		.loc 1 982 6 is_stmt 0 view .LVU222
 702 000a 2207     		lsls	r2, r4, #28
 703              		.loc 1 979 10 view .LVU223
 704 000c 2C62     		str	r4, [r5, #32]
 705              		.loc 1 982 3 is_stmt 1 view .LVU224
 706              		.loc 1 982 6 is_stmt 0 view .LVU225
 707 000e 56D1     		bne	.L94
 708              	.LVL46:
 709              	.L49:
 710              		.loc 1 986 3 is_stmt 1 view .LVU226
 711              		.loc 1 986 6 is_stmt 0 view .LVU227
 712 0010 E205     		lsls	r2, r4, #23
 713 0012 48D4     		bmi	.L95
 714              	.L53:
 715              		.loc 1 997 10 is_stmt 1 view .LVU228
 716 0014 A006     		lsls	r0, r4, #26
 717 0016 10D5     		bpl	.L55
 718              	.LBB244:
 719              	.LBB245:
 720              	.LBB246:
 721              	.LBB247:
 722              	.LBB248:
 723              	.LBB249:
 724              		.file 3 "../../../os/common/ext/ARM/CMSIS/Core/Include/cmsis_gcc.h"
 725              		.loc 3 493 3 is_stmt 0 view .LVU229
 726 0018 4FF03008 		mov	r8, #48
 727              	.LBE249:
 728              	.LBE248:
 729              	.LBE247:
 730              	.LBE246:
 731              	.LBE245:
 732              	.LBE244:
 733              	.LBB255:
 734              	.LBB256:
 735              	.LBB257:
 736              	.LBB258:
 737              	.LBB259:
 738              	.LBB260:
 739 001c 0027     		movs	r7, #0
 740              	.L54:
 741              		.loc 3 493 3 view .LVU230
ARM GAS  C:\Users\DEVELO~1\AppData\Local\Temp\cc3Rlmfe.s 			page 14


 742              	.LBE260:
 743              	.LBE259:
 744              	.LBE258:
 745              	.LBE257:
 746              	.LBE256:
 747              	.LBE255:
 748              		.loc 1 998 5 is_stmt 1 view .LVU231
 749              	.LBB266:
 750              	.LBI244:
 751              		.file 4 "../../../os/hal/osal/rt-nil/osal.h"
 752              		.loc 4 595 20 view .LVU232
 753              		.loc 4 597 3 view .LVU233
 754              	.LBB254:
 755              	.LBI245:
 756              		.file 5 "../../../os/rt/include/chsys.h"
 757              		.loc 5 451 20 view .LVU234
 758              		.loc 5 453 3 view .LVU235
 759              	.LBB253:
 760              	.LBI246:
 761              		.file 6 "../../../os/common/ports/ARMv7-M/chcore.h"
 762              		.loc 6 862 27 view .LVU236
 763              		.loc 6 864 3 view .LVU237
 764              	.LBB252:
 765              	.LBI247:
 766              		.loc 6 823 27 view .LVU238
 767              		.loc 6 831 3 view .LVU239
 768              	.LVL47:
 769              	.LBB251:
 770              	.LBI248:
 771              		.loc 3 491 27 view .LVU240
 772              	.LBB250:
 773              		.loc 3 493 3 view .LVU241
 774              		.syntax unified
 775              	@ 493 "../../../os/common/ext/ARM/CMSIS/Core/Include/cmsis_gcc.h" 1
 776 001e 88F31188 		MSR basepri, r8
 777              	@ 0 "" 2
 778              	.LVL48:
 779              		.loc 3 493 3 is_stmt 0 view .LVU242
 780              		.thumb
 781              		.syntax unified
 782              	.LBE250:
 783              	.LBE251:
 784              	.LBE252:
 785              	.LBE253:
 786              		.loc 5 454 35 is_stmt 1 view .LVU243
 787              		.loc 5 455 30 view .LVU244
 788              	.LBE254:
 789              	.LBE266:
 790              		.loc 1 999 5 view .LVU245
 791              		.loc 1 999 36 is_stmt 0 view .LVU246
 792 0022 6B6A     		ldr	r3, [r5, #36]
 793              		.loc 1 999 5 view .LVU247
 794 0024 3046     		mov	r0, r6
 795 0026 96F85C10 		ldrb	r1, [r6, #92]	@ zero_extendqisi2
 796 002a 1940     		ands	r1, r1, r3
 797 002c FFF7FEFF 		bl	sdIncomingDataI
 798              	.LVL49:
ARM GAS  C:\Users\DEVELO~1\AppData\Local\Temp\cc3Rlmfe.s 			page 15


 799              		.loc 1 1000 5 is_stmt 1 view .LVU248
 800              	.LBB267:
 801              	.LBI255:
 802              		.loc 4 606 20 view .LVU249
 803              		.loc 4 608 3 view .LVU250
 804              	.LBB265:
 805              	.LBI256:
 806              		.loc 5 473 20 view .LVU251
 807              		.loc 5 475 32 view .LVU252
 808              		.loc 5 476 34 view .LVU253
 809              		.loc 5 477 3 view .LVU254
 810              	.LBB264:
 811              	.LBI257:
 812              		.loc 6 873 27 view .LVU255
 813              		.loc 6 875 3 view .LVU256
 814              	.LBB263:
 815              	.LBI258:
 816              		.loc 6 847 27 view .LVU257
 817              		.loc 6 850 3 view .LVU258
 818              	.LBB262:
 819              	.LBI259:
 820              		.loc 3 491 27 view .LVU259
 821              	.LBB261:
 822              		.loc 3 493 3 view .LVU260
 823              		.syntax unified
 824              	@ 493 "../../../os/common/ext/ARM/CMSIS/Core/Include/cmsis_gcc.h" 1
 825 0030 87F31188 		MSR basepri, r7
 826              	@ 0 "" 2
 827              	.LVL50:
 828              		.loc 3 493 3 is_stmt 0 view .LVU261
 829              		.thumb
 830              		.syntax unified
 831              	.LBE261:
 832              	.LBE262:
 833              	.LBE263:
 834              	.LBE264:
 835              	.LBE265:
 836              	.LBE267:
 837              		.loc 1 1002 5 is_stmt 1 view .LVU262
 838              		.loc 1 1002 9 is_stmt 0 view .LVU263
 839 0034 EC69     		ldr	r4, [r5, #28]
 840              		.loc 1 997 10 is_stmt 1 view .LVU264
 841 0036 A306     		lsls	r3, r4, #26
 842 0038 F1D4     		bmi	.L54
 843              	.L55:
 844              		.loc 1 1006 3 view .LVU265
 845              		.loc 1 1006 7 is_stmt 0 view .LVU266
 846 003a D5F800A0 		ldr	r10, [r5]
 847              	.LVL51:
 848              		.loc 1 1014 3 is_stmt 1 view .LVU267
 849              		.loc 1 1014 6 is_stmt 0 view .LVU268
 850 003e 1AF0800F 		tst	r10, #128
 851 0042 1DD0     		beq	.L56
 852              		.loc 1 1015 12 is_stmt 1 view .LVU269
 853 0044 2106     		lsls	r1, r4, #24
 854 0046 1BD5     		bpl	.L56
 855              	.LBB268:
ARM GAS  C:\Users\DEVELO~1\AppData\Local\Temp\cc3Rlmfe.s 			page 16


 856              		.loc 1 1019 11 is_stmt 0 view .LVU270
 857 0048 06F13008 		add	r8, r6, #48
 858              	.LBB269:
 859              	.LBB270:
 860              	.LBB271:
 861              	.LBB272:
 862              	.LBB273:
 863              	.LBB274:
 864              		.loc 3 493 3 view .LVU271
 865 004c 3027     		movs	r7, #48
 866              	.LBE274:
 867              	.LBE273:
 868              	.LBE272:
 869              	.LBE271:
 870              	.LBE270:
 871              	.LBE269:
 872              	.LBB280:
 873              	.LBB281:
 874              	.LBB282:
 875              	.LBB283:
 876              	.LBB284:
 877              	.LBB285:
 878 004e 4FF00009 		mov	r9, #0
 879 0052 05E0     		b	.L58
 880              	.LVL52:
 881              	.L57:
 882              		.loc 3 493 3 view .LVU272
 883              	.LBE285:
 884              	.LBE284:
 885              	.LBE283:
 886              	.LBE282:
 887              	.LBE281:
 888              	.LBE280:
 889              		.loc 1 1026 14 view .LVU273
 890 0054 A862     		str	r0, [r5, #40]
 891              		.loc 1 1027 7 is_stmt 1 view .LVU274
 892              	.LBB291:
 893              	.LBI280:
 894              		.loc 4 606 20 view .LVU275
 895              		.loc 4 608 3 view .LVU276
 896              	.LBB290:
 897              	.LBI281:
 898              		.loc 5 473 20 view .LVU277
 899              		.loc 5 475 32 view .LVU278
 900              		.loc 5 476 34 view .LVU279
 901              		.loc 5 477 3 view .LVU280
 902              	.LBB289:
 903              	.LBI282:
 904              		.loc 6 873 27 view .LVU281
 905              		.loc 6 875 3 view .LVU282
 906              	.LBB288:
 907              	.LBI283:
 908              		.loc 6 847 27 view .LVU283
 909              		.loc 6 850 3 view .LVU284
 910              	.LVL53:
 911              	.LBB287:
 912              	.LBI284:
ARM GAS  C:\Users\DEVELO~1\AppData\Local\Temp\cc3Rlmfe.s 			page 17


 913              		.loc 3 491 27 view .LVU285
 914              	.LBB286:
 915              		.loc 3 493 3 view .LVU286
 916              		.syntax unified
 917              	@ 493 "../../../os/common/ext/ARM/CMSIS/Core/Include/cmsis_gcc.h" 1
 918 0056 89F31188 		MSR basepri, r9
 919              	@ 0 "" 2
 920              	.LVL54:
 921              		.loc 3 493 3 is_stmt 0 view .LVU287
 922              		.thumb
 923              		.syntax unified
 924              	.LBE286:
 925              	.LBE287:
 926              	.LBE288:
 927              	.LBE289:
 928              	.LBE290:
 929              	.LBE291:
 930              		.loc 1 1029 7 is_stmt 1 view .LVU288
 931              		.loc 1 1029 11 is_stmt 0 view .LVU289
 932 005a EC69     		ldr	r4, [r5, #28]
 933              		.loc 1 1029 11 view .LVU290
 934              	.LBE268:
 935              		.loc 1 1015 12 is_stmt 1 view .LVU291
 936 005c 2206     		lsls	r2, r4, #24
 937 005e 0FD5     		bpl	.L56
 938              	.LVL55:
 939              	.L58:
 940              	.LBB302:
 941              		.loc 1 1016 7 view .LVU292
 942              		.loc 1 1018 7 view .LVU293
 943              	.LBB292:
 944              	.LBI269:
 945              		.loc 4 595 20 view .LVU294
 946              		.loc 4 597 3 view .LVU295
 947              	.LBB279:
 948              	.LBI270:
 949              		.loc 5 451 20 view .LVU296
 950              		.loc 5 453 3 view .LVU297
 951              	.LBB278:
 952              	.LBI271:
 953              		.loc 6 862 27 view .LVU298
 954              		.loc 6 864 3 view .LVU299
 955              	.LBB277:
 956              	.LBI272:
 957              		.loc 6 823 27 view .LVU300
 958              		.loc 6 831 3 view .LVU301
 959              	.LBB276:
 960              	.LBI273:
 961              		.loc 3 491 27 view .LVU302
 962              	.LBB275:
 963              		.loc 3 493 3 view .LVU303
 964              		.syntax unified
 965              	@ 493 "../../../os/common/ext/ARM/CMSIS/Core/Include/cmsis_gcc.h" 1
 966 0060 87F31188 		MSR basepri, r7
 967              	@ 0 "" 2
 968              	.LVL56:
 969              		.loc 3 493 3 is_stmt 0 view .LVU304
ARM GAS  C:\Users\DEVELO~1\AppData\Local\Temp\cc3Rlmfe.s 			page 18


 970              		.thumb
 971              		.syntax unified
 972              	.LBE275:
 973              	.LBE276:
 974              	.LBE277:
 975              	.LBE278:
 976              		.loc 5 454 35 is_stmt 1 view .LVU305
 977              		.loc 5 455 30 view .LVU306
 978              	.LBE279:
 979              	.LBE292:
 980              		.loc 1 1019 7 view .LVU307
 981              		.loc 1 1019 11 is_stmt 0 view .LVU308
 982 0064 4046     		mov	r0, r8
 983 0066 FFF7FEFF 		bl	oqGetI
 984              	.LVL57:
 985              		.loc 1 1026 7 is_stmt 1 view .LVU309
 986              		.loc 1 1020 7 view .LVU310
 987              		.loc 1 1020 10 is_stmt 0 view .LVU311
 988 006a 0028     		cmp	r0, #0
 989              		.loc 1 1020 10 view .LVU312
 990 006c F2DA     		bge	.L57
 991              		.loc 1 1021 9 is_stmt 1 view .LVU313
 992              	.LVL58:
 993              	.LBB293:
 994              	.LBI293:
 995              		.loc 4 956 20 view .LVU314
 996              	.LBB294:
 997              		.loc 4 959 3 view .LVU315
 998 006e 0821     		movs	r1, #8
 999 0070 301D     		adds	r0, r6, #4
 1000              	.LVL59:
 1001              		.loc 4 959 3 is_stmt 0 view .LVU316
 1002 0072 FFF7FEFF 		bl	chEvtBroadcastFlagsI
 1003              	.LVL60:
 1004              		.loc 4 959 3 view .LVU317
 1005              	.LBE294:
 1006              	.LBE293:
 1007              		.loc 1 1021 44 is_stmt 1 view .LVU318
 1008              		.loc 1 1022 9 view .LVU319
 1009              		.loc 1 1022 13 is_stmt 0 view .LVU320
 1010 0076 2AF0800A 		bic	r10, r10, #128
 1011              	.LVL61:
 1012              		.loc 1 1023 9 is_stmt 1 view .LVU321
 1013              	.LBB295:
 1014              	.LBI295:
 1015              		.loc 4 606 20 view .LVU322
 1016              	.LBB296:
 1017              		.loc 4 608 3 view .LVU323
 1018              	.LBB297:
 1019              	.LBI297:
 1020              		.loc 5 473 20 view .LVU324
 1021              		.loc 5 475 32 view .LVU325
 1022              		.loc 5 476 34 view .LVU326
 1023              		.loc 5 477 3 view .LVU327
 1024              	.LBB298:
 1025              	.LBI298:
 1026              		.loc 6 873 27 view .LVU328
ARM GAS  C:\Users\DEVELO~1\AppData\Local\Temp\cc3Rlmfe.s 			page 19


 1027              		.loc 6 875 3 view .LVU329
 1028              	.LBB299:
 1029              	.LBI299:
 1030              		.loc 6 847 27 view .LVU330
 1031              		.loc 6 850 3 view .LVU331
 1032              	.LBB300:
 1033              	.LBI300:
 1034              		.loc 3 491 27 view .LVU332
 1035              	.LBB301:
 1036              		.loc 3 493 3 view .LVU333
 1037 007a 0023     		movs	r3, #0
 1038              		.syntax unified
 1039              	@ 493 "../../../os/common/ext/ARM/CMSIS/Core/Include/cmsis_gcc.h" 1
 1040 007c 83F31188 		MSR basepri, r3
 1041              	@ 0 "" 2
 1042              	.LVL62:
 1043              		.thumb
 1044              		.syntax unified
 1045              	.L56:
 1046              		.loc 3 493 3 is_stmt 0 view .LVU334
 1047              	.LBE301:
 1048              	.LBE300:
 1049              	.LBE299:
 1050              	.LBE298:
 1051              	.LBE297:
 1052              	.LBE296:
 1053              	.LBE295:
 1054              	.LBE302:
 1055              		.loc 1 1034 3 is_stmt 1 view .LVU335
 1056              		.loc 1 1034 6 is_stmt 0 view .LVU336
 1057 0080 1AF0400F 		tst	r10, #64
 1058 0084 0BD0     		beq	.L59
 1059              		.loc 1 1034 30 discriminator 1 view .LVU337
 1060 0086 6306     		lsls	r3, r4, #25
 1061 0088 09D5     		bpl	.L59
 1062              		.loc 1 1035 5 is_stmt 1 view .LVU338
 1063              	.LBB303:
 1064              	.LBI303:
 1065              		.loc 4 595 20 view .LVU339
 1066              		.loc 4 597 3 view .LVU340
 1067              	.LBB304:
 1068              	.LBI304:
 1069              		.loc 5 451 20 view .LVU341
 1070              		.loc 5 453 3 view .LVU342
 1071              	.LBB305:
 1072              	.LBI305:
 1073              		.loc 6 862 27 view .LVU343
 1074              		.loc 6 864 3 view .LVU344
 1075              	.LBB306:
 1076              	.LBI306:
 1077              		.loc 6 823 27 view .LVU345
 1078              		.loc 6 831 3 view .LVU346
 1079              	.LVL63:
 1080              	.LBB307:
 1081              	.LBI307:
 1082              		.loc 3 491 27 view .LVU347
 1083              	.LBB308:
ARM GAS  C:\Users\DEVELO~1\AppData\Local\Temp\cc3Rlmfe.s 			page 20


 1084              		.loc 3 493 3 view .LVU348
 1085 008a 3023     		movs	r3, #48
 1086              		.syntax unified
 1087              	@ 493 "../../../os/common/ext/ARM/CMSIS/Core/Include/cmsis_gcc.h" 1
 1088 008c 83F31188 		MSR basepri, r3
 1089              	@ 0 "" 2
 1090              	.LVL64:
 1091              		.loc 3 493 3 is_stmt 0 view .LVU349
 1092              		.thumb
 1093              		.syntax unified
 1094              	.LBE308:
 1095              	.LBE307:
 1096              	.LBE306:
 1097              	.LBE305:
 1098              		.loc 5 454 35 is_stmt 1 view .LVU350
 1099              		.loc 5 455 30 view .LVU351
 1100              	.LBE304:
 1101              	.LBE303:
 1102              		.loc 1 1036 5 view .LVU352
 1103              		.loc 1 1036 9 is_stmt 0 view .LVU353
 1104 0090 D6E91123 		ldrd	r2, r3, [r6, #68]
 1105 0094 9A42     		cmp	r2, r3
 1106 0096 2DD0     		beq	.L96
 1107              	.L60:
 1108              		.loc 1 1040 5 is_stmt 1 view .LVU354
 1109              	.LBB309:
 1110              	.LBI309:
 1111              		.loc 4 606 20 view .LVU355
 1112              	.LBB310:
 1113              		.loc 4 608 3 view .LVU356
 1114              	.LBB311:
 1115              	.LBI311:
 1116              		.loc 5 473 20 view .LVU357
 1117              		.loc 5 475 32 view .LVU358
 1118              		.loc 5 476 34 view .LVU359
 1119              		.loc 5 477 3 view .LVU360
 1120              	.LBB312:
 1121              	.LBI312:
 1122              		.loc 6 873 27 view .LVU361
 1123              		.loc 6 875 3 view .LVU362
 1124              	.LBB313:
 1125              	.LBI313:
 1126              		.loc 6 847 27 view .LVU363
 1127              		.loc 6 850 3 view .LVU364
 1128              	.LVL65:
 1129              	.LBB314:
 1130              	.LBI314:
 1131              		.loc 3 491 27 view .LVU365
 1132              	.LBB315:
 1133              		.loc 3 493 3 view .LVU366
 1134 0098 0023     		movs	r3, #0
 1135              		.syntax unified
 1136              	@ 493 "../../../os/common/ext/ARM/CMSIS/Core/Include/cmsis_gcc.h" 1
 1137 009a 83F31188 		MSR basepri, r3
 1138              	@ 0 "" 2
 1139              	.LVL66:
 1140              		.thumb
ARM GAS  C:\Users\DEVELO~1\AppData\Local\Temp\cc3Rlmfe.s 			page 21


 1141              		.syntax unified
 1142              	.L59:
 1143              		.loc 3 493 3 is_stmt 0 view .LVU367
 1144              	.LBE315:
 1145              	.LBE314:
 1146              	.LBE313:
 1147              	.LBE312:
 1148              	.LBE311:
 1149              	.LBE310:
 1150              	.LBE309:
 1151              		.loc 1 1044 3 is_stmt 1 view .LVU368
 1152              		.loc 1 1044 10 is_stmt 0 view .LVU369
 1153 009e C5F800A0 		str	r10, [r5]
 1154              		.loc 1 1045 1 view .LVU370
 1155 00a2 BDE8F087 		pop	{r4, r5, r6, r7, r8, r9, r10, pc}
 1156              	.LVL67:
 1157              	.L95:
 1158              		.loc 1 987 5 is_stmt 1 view .LVU371
 1159              	.LBB316:
 1160              	.LBI316:
 1161              		.loc 4 595 20 view .LVU372
 1162              		.loc 4 597 3 view .LVU373
 1163              	.LBB317:
 1164              	.LBI317:
 1165              		.loc 5 451 20 view .LVU374
 1166              		.loc 5 453 3 view .LVU375
 1167              	.LBB318:
 1168              	.LBI318:
 1169              		.loc 6 862 27 view .LVU376
 1170              		.loc 6 864 3 view .LVU377
 1171              	.LBB319:
 1172              	.LBI319:
 1173              		.loc 6 823 27 view .LVU378
 1174              		.loc 6 831 3 view .LVU379
 1175              	.LBB320:
 1176              	.LBI320:
 1177              		.loc 3 491 27 view .LVU380
 1178              	.LBB321:
 1179              		.loc 3 493 3 view .LVU381
 1180 00a6 3023     		movs	r3, #48
 1181              		.syntax unified
 1182              	@ 493 "../../../os/common/ext/ARM/CMSIS/Core/Include/cmsis_gcc.h" 1
 1183 00a8 83F31188 		MSR basepri, r3
 1184              	@ 0 "" 2
 1185              	.LVL68:
 1186              		.loc 3 493 3 is_stmt 0 view .LVU382
 1187              		.thumb
 1188              		.syntax unified
 1189              	.LBE321:
 1190              	.LBE320:
 1191              	.LBE319:
 1192              	.LBE318:
 1193              		.loc 5 454 35 is_stmt 1 view .LVU383
 1194              		.loc 5 455 30 view .LVU384
 1195              	.LBE317:
 1196              	.LBE316:
 1197              		.loc 1 988 5 view .LVU385
ARM GAS  C:\Users\DEVELO~1\AppData\Local\Temp\cc3Rlmfe.s 			page 22


 1198              	.LBB322:
 1199              	.LBI322:
 1200              		.loc 4 956 20 view .LVU386
 1201              	.LBB323:
 1202              		.loc 4 959 3 view .LVU387
 1203 00ac 4FF48061 		mov	r1, #1024
 1204 00b0 301D     		adds	r0, r6, #4
 1205              	.LVL69:
 1206              		.loc 4 959 3 is_stmt 0 view .LVU388
 1207 00b2 FFF7FEFF 		bl	chEvtBroadcastFlagsI
 1208              	.LVL70:
 1209              		.loc 4 959 3 view .LVU389
 1210              	.LBE323:
 1211              	.LBE322:
 1212              		.loc 1 988 41 is_stmt 1 view .LVU390
 1213              		.loc 1 989 5 view .LVU391
 1214              	.LBB324:
 1215              	.LBI324:
 1216              		.loc 4 606 20 view .LVU392
 1217              	.LBB325:
 1218              		.loc 4 608 3 view .LVU393
 1219              	.LBB326:
 1220              	.LBI326:
 1221              		.loc 5 473 20 view .LVU394
 1222              		.loc 5 475 32 view .LVU395
 1223              		.loc 5 476 34 view .LVU396
 1224              		.loc 5 477 3 view .LVU397
 1225              	.LBB327:
 1226              	.LBI327:
 1227              		.loc 6 873 27 view .LVU398
 1228              		.loc 6 875 3 view .LVU399
 1229              	.LBB328:
 1230              	.LBI328:
 1231              		.loc 6 847 27 view .LVU400
 1232              		.loc 6 850 3 view .LVU401
 1233              	.LBB329:
 1234              	.LBI329:
 1235              		.loc 3 491 27 view .LVU402
 1236              	.LBB330:
 1237              		.loc 3 493 3 view .LVU403
 1238 00b6 0023     		movs	r3, #0
 1239              		.syntax unified
 1240              	@ 493 "../../../os/common/ext/ARM/CMSIS/Core/Include/cmsis_gcc.h" 1
 1241 00b8 83F31188 		MSR basepri, r3
 1242              	@ 0 "" 2
 1243              	.LVL71:
 1244              		.loc 3 493 3 is_stmt 0 view .LVU404
 1245              		.thumb
 1246              		.syntax unified
 1247              	.LBE330:
 1248              	.LBE329:
 1249              	.LBE328:
 1250              	.LBE327:
 1251              	.LBE326:
 1252              		.loc 4 609 1 view .LVU405
 1253 00bc AAE7     		b	.L53
 1254              	.LVL72:
ARM GAS  C:\Users\DEVELO~1\AppData\Local\Temp\cc3Rlmfe.s 			page 23


 1255              	.L94:
 1256              		.loc 4 609 1 view .LVU406
 1257              	.LBE325:
 1258              	.LBE324:
 1259              		.loc 1 983 5 is_stmt 1 view .LVU407
 1260              	.LBB331:
 1261              	.LBI331:
 1262              		.loc 1 336 13 view .LVU408
 1263              	.LBB332:
 1264              		.loc 1 337 3 view .LVU409
 1265              		.loc 1 339 3 view .LVU410
 1266              		.loc 1 339 6 is_stmt 0 view .LVU411
 1267 00be C4F3C001 		ubfx	r1, r4, #3, #1
 1268              		.loc 1 341 6 view .LVU412
 1269 00c2 E307     		lsls	r3, r4, #31
 1270              	.LBB333:
 1271              	.LBB334:
 1272              	.LBB335:
 1273              	.LBB336:
 1274              	.LBB337:
 1275              	.LBB338:
 1276              		.loc 3 493 3 view .LVU413
 1277 00c4 4FF03003 		mov	r3, #48
 1278              	.LBE338:
 1279              	.LBE337:
 1280              	.LBE336:
 1281              	.LBE335:
 1282              	.LBE334:
 1283              	.LBE333:
 1284              		.loc 1 339 6 view .LVU414
 1285 00c8 4FEA0121 		lsl	r1, r1, #8
 1286              	.LVL73:
 1287              		.loc 1 341 3 is_stmt 1 view .LVU415
 1288              		.loc 1 342 5 view .LVU416
 1289              		.loc 1 342 9 is_stmt 0 view .LVU417
 1290 00cc 48BF     		it	mi
 1291 00ce 41F02001 		orrmi	r1, r1, #32
 1292              	.LVL74:
 1293              		.loc 1 343 3 is_stmt 1 view .LVU418
 1294              		.loc 1 343 6 is_stmt 0 view .LVU419
 1295 00d2 A707     		lsls	r7, r4, #30
 1296              		.loc 1 344 5 is_stmt 1 view .LVU420
 1297              		.loc 1 344 9 is_stmt 0 view .LVU421
 1298 00d4 48BF     		it	mi
 1299 00d6 41F04001 		orrmi	r1, r1, #64
 1300              	.LVL75:
 1301              		.loc 1 345 3 is_stmt 1 view .LVU422
 1302              		.loc 1 345 6 is_stmt 0 view .LVU423
 1303 00da 6007     		lsls	r0, r4, #29
 1304              	.LVL76:
 1305              		.loc 1 346 5 is_stmt 1 view .LVU424
 1306              		.loc 1 346 9 is_stmt 0 view .LVU425
 1307 00dc 48BF     		it	mi
 1308 00de 41F08001 		orrmi	r1, r1, #128
 1309              	.LVL77:
 1310              		.loc 1 347 3 is_stmt 1 view .LVU426
 1311              	.LBB344:
ARM GAS  C:\Users\DEVELO~1\AppData\Local\Temp\cc3Rlmfe.s 			page 24


 1312              	.LBI333:
 1313              		.loc 4 595 20 view .LVU427
 1314              		.loc 4 597 3 view .LVU428
 1315              	.LBB343:
 1316              	.LBI334:
 1317              		.loc 5 451 20 view .LVU429
 1318              		.loc 5 453 3 view .LVU430
 1319              	.LBB342:
 1320              	.LBI335:
 1321              		.loc 6 862 27 view .LVU431
 1322              		.loc 6 864 3 view .LVU432
 1323              	.LBB341:
 1324              	.LBI336:
 1325              		.loc 6 823 27 view .LVU433
 1326              		.loc 6 831 3 view .LVU434
 1327              	.LBB340:
 1328              	.LBI337:
 1329              		.loc 3 491 27 view .LVU435
 1330              	.LBB339:
 1331              		.loc 3 493 3 view .LVU436
 1332              		.syntax unified
 1333              	@ 493 "../../../os/common/ext/ARM/CMSIS/Core/Include/cmsis_gcc.h" 1
 1334 00e2 83F31188 		MSR basepri, r3
 1335              	@ 0 "" 2
 1336              	.LVL78:
 1337              		.loc 3 493 3 is_stmt 0 view .LVU437
 1338              		.thumb
 1339              		.syntax unified
 1340              	.LBE339:
 1341              	.LBE340:
 1342              	.LBE341:
 1343              	.LBE342:
 1344              		.loc 5 454 35 is_stmt 1 view .LVU438
 1345              		.loc 5 455 30 view .LVU439
 1346              	.LBE343:
 1347              	.LBE344:
 1348              		.loc 1 348 3 view .LVU440
 1349              	.LBB345:
 1350              	.LBI345:
 1351              		.loc 4 956 20 view .LVU441
 1352              	.LBB346:
 1353              		.loc 4 959 3 view .LVU442
 1354 00e6 301D     		adds	r0, r6, #4
 1355              	.LVL79:
 1356              		.loc 4 959 3 is_stmt 0 view .LVU443
 1357 00e8 FFF7FEFF 		bl	chEvtBroadcastFlagsI
 1358              	.LVL80:
 1359              		.loc 4 959 3 view .LVU444
 1360              	.LBE346:
 1361              	.LBE345:
 1362              		.loc 1 348 25 is_stmt 1 view .LVU445
 1363              		.loc 1 349 3 view .LVU446
 1364              	.LBB347:
 1365              	.LBI347:
 1366              		.loc 4 606 20 view .LVU447
 1367              		.loc 4 608 3 view .LVU448
 1368              	.LBB348:
ARM GAS  C:\Users\DEVELO~1\AppData\Local\Temp\cc3Rlmfe.s 			page 25


 1369              	.LBI348:
 1370              		.loc 5 473 20 view .LVU449
 1371              		.loc 5 475 32 view .LVU450
 1372              		.loc 5 476 34 view .LVU451
 1373              		.loc 5 477 3 view .LVU452
 1374              	.LBB349:
 1375              	.LBI349:
 1376              		.loc 6 873 27 view .LVU453
 1377              		.loc 6 875 3 view .LVU454
 1378              	.LBB350:
 1379              	.LBI350:
 1380              		.loc 6 847 27 view .LVU455
 1381              		.loc 6 850 3 view .LVU456
 1382              	.LBB351:
 1383              	.LBI351:
 1384              		.loc 3 491 27 view .LVU457
 1385              	.LBB352:
 1386              		.loc 3 493 3 view .LVU458
 1387 00ec 0023     		movs	r3, #0
 1388              		.syntax unified
 1389              	@ 493 "../../../os/common/ext/ARM/CMSIS/Core/Include/cmsis_gcc.h" 1
 1390 00ee 83F31188 		MSR basepri, r3
 1391              	@ 0 "" 2
 1392              	.LVL81:
 1393              		.loc 3 493 3 is_stmt 0 view .LVU459
 1394              		.thumb
 1395              		.syntax unified
 1396              	.LBE352:
 1397              	.LBE351:
 1398              	.LBE350:
 1399              	.LBE349:
 1400              	.LBE348:
 1401              	.LBE347:
 1402              		.loc 1 350 1 view .LVU460
 1403 00f2 8DE7     		b	.L49
 1404              	.LVL82:
 1405              	.L96:
 1406              		.loc 1 350 1 view .LVU461
 1407              	.LBE332:
 1408              	.LBE331:
 1409              		.loc 1 1036 9 discriminator 1 view .LVU462
 1410 00f4 B36B     		ldr	r3, [r6, #56]
 1411 00f6 002B     		cmp	r3, #0
 1412 00f8 CED0     		beq	.L60
 1413              		.loc 1 1037 7 is_stmt 1 view .LVU463
 1414              	.LVL83:
 1415              	.LBB353:
 1416              	.LBI353:
 1417              		.loc 4 956 20 view .LVU464
 1418              	.LBB354:
 1419              		.loc 4 959 3 view .LVU465
 1420 00fa 1021     		movs	r1, #16
 1421 00fc 301D     		adds	r0, r6, #4
 1422              	.LVL84:
 1423              		.loc 4 959 3 is_stmt 0 view .LVU466
 1424              	.LBE354:
 1425              	.LBE353:
ARM GAS  C:\Users\DEVELO~1\AppData\Local\Temp\cc3Rlmfe.s 			page 26


 1426              		.loc 1 1038 11 view .LVU467
 1427 00fe 2AF0400A 		bic	r10, r10, #64
 1428              	.LVL85:
 1429              	.LBB356:
 1430              	.LBB355:
 1431              		.loc 4 959 3 view .LVU468
 1432 0102 FFF7FEFF 		bl	chEvtBroadcastFlagsI
 1433              	.LVL86:
 1434              		.loc 4 959 3 view .LVU469
 1435              	.LBE355:
 1436              	.LBE356:
 1437              		.loc 1 1037 46 is_stmt 1 view .LVU470
 1438              		.loc 1 1038 7 view .LVU471
 1439              		.loc 1 1038 7 is_stmt 0 view .LVU472
 1440 0106 C7E7     		b	.L60
 1441              		.cfi_endproc
 1442              	.LFE440:
 1443              		.size	sd_lld_serve_interrupt, .-sd_lld_serve_interrupt
 1444              		.global	SD5
 1445              		.global	SD1
 1446              		.section	.bss.SD1,"aw",%nobits
 1447              		.align	2
 1448              		.set	.LANCHOR0,. + 0
 1449              		.type	SD1, %object
 1450              		.size	SD1, 96
 1451              	SD1:
 1452 0000 00000000 		.space	96
 1452      00000000 
 1452      00000000 
 1452      00000000 
 1452      00000000 
 1453              		.section	.bss.SD5,"aw",%nobits
 1454              		.align	2
 1455              		.set	.LANCHOR3,. + 0
 1456              		.type	SD5, %object
 1457              		.size	SD5, 96
 1458              	SD5:
 1459 0000 00000000 		.space	96
 1459      00000000 
 1459      00000000 
 1459      00000000 
 1459      00000000 
 1460              		.section	.bss.sd_in_buf1,"aw",%nobits
 1461              		.align	2
 1462              		.set	.LANCHOR1,. + 0
 1463              		.type	sd_in_buf1, %object
 1464              		.size	sd_in_buf1, 16
 1465              	sd_in_buf1:
 1466 0000 00000000 		.space	16
 1466      00000000 
 1466      00000000 
 1466      00000000 
 1467              		.section	.bss.sd_in_buf5,"aw",%nobits
 1468              		.align	2
 1469              		.set	.LANCHOR4,. + 0
 1470              		.type	sd_in_buf5, %object
 1471              		.size	sd_in_buf5, 16
ARM GAS  C:\Users\DEVELO~1\AppData\Local\Temp\cc3Rlmfe.s 			page 27


 1472              	sd_in_buf5:
 1473 0000 00000000 		.space	16
 1473      00000000 
 1473      00000000 
 1473      00000000 
 1474              		.section	.bss.sd_out_buf1,"aw",%nobits
 1475              		.align	2
 1476              		.set	.LANCHOR2,. + 0
 1477              		.type	sd_out_buf1, %object
 1478              		.size	sd_out_buf1, 16
 1479              	sd_out_buf1:
 1480 0000 00000000 		.space	16
 1480      00000000 
 1480      00000000 
 1480      00000000 
 1481              		.section	.bss.sd_out_buf5,"aw",%nobits
 1482              		.align	2
 1483              		.set	.LANCHOR5,. + 0
 1484              		.type	sd_out_buf5, %object
 1485              		.size	sd_out_buf5, 16
 1486              	sd_out_buf5:
 1487 0000 00000000 		.space	16
 1487      00000000 
 1487      00000000 
 1487      00000000 
 1488              		.text
 1489              	.Letext0:
 1490              		.file 7 "c:\\chibistudio\\tools\\gnu tools arm embedded\\11.3 2022.08\\lib\\gcc\\arm-none-eabi\\11
 1491              		.file 8 "c:\\chibistudio\\tools\\gnu tools arm embedded\\11.3 2022.08\\arm-none-eabi\\include\\mac
 1492              		.file 9 "c:\\chibistudio\\tools\\gnu tools arm embedded\\11.3 2022.08\\arm-none-eabi\\include\\sys
 1493              		.file 10 "../../../os/common/ports/ARM-common/chtypes.h"
 1494              		.file 11 "../../../os/rt/include/chearly.h"
 1495              		.file 12 "../../../os/rt/include/chobjects.h"
 1496              		.file 13 "../../../os/rt/include/chrfcu.h"
 1497              		.file 14 "../../../os/rt/include/chdebug.h"
 1498              		.file 15 "../../../os/rt/include/chtime.h"
 1499              		.file 16 "../../../os/rt/include/chlists.h"
 1500              		.file 17 "../../../os/rt/include/chtrace.h"
 1501              		.file 18 "../../../os/common/ext/ST/STM32H7xx/stm32h743xx.h"
 1502              		.file 19 "../../../os/rt/include/chsem.h"
 1503              		.file 20 "../../../os/rt/include/chmtx.h"
 1504              		.file 21 "../../../os/rt/include/chevents.h"
 1505              		.file 22 "../../../os/hal/include/hal_queues.h"
 1506              		.file 23 "../../../os/hal/include/hal_serial.h"
 1507              		.file 24 "../../../os/hal/ports/STM32/LLD/USARTv3/hal_serial_lld.h"