ARM GAS  C:\Users\DEVELO~1\AppData\Local\Temp\ccdu9vsZ.s 			page 1


   1              		.cpu cortex-m7
   2              		.arch armv7e-m
   3              		.fpu softvfp
   4              		.eabi_attribute 20, 1
   5              		.eabi_attribute 21, 1
   6              		.eabi_attribute 23, 3
   7              		.eabi_attribute 24, 1
   8              		.eabi_attribute 25, 1
   9              		.eabi_attribute 26, 1
  10              		.eabi_attribute 30, 2
  11              		.eabi_attribute 34, 1
  12              		.eabi_attribute 18, 4
  13              		.file	"hal_lld.c"
  14              		.text
  15              	.Ltext0:
  16              		.cfi_sections	.debug_frame
  17              		.section	.text.hal_lld_init,"ax",%progbits
  18              		.align	1
  19              		.p2align 4,,15
  20              		.global	hal_lld_init
  21              		.syntax unified
  22              		.thumb
  23              		.thumb_func
  24              		.type	hal_lld_init, %function
  25              	hal_lld_init:
  26              	.LFB434:
  27              		.file 1 "../../../os/hal/ports/STM32/STM32H7xx/hal_lld.c"
  28              		.loc 1 150 25 view -0
  29              		.cfi_startproc
  30              		@ args = 0, pretend = 0, frame = 0
  31              		@ frame_needed = 0, uses_anonymous_args = 0
  32              		.loc 1 160 3 view .LVU1
  33              	.LVL0:
  34              	.LBB61:
  35              	.LBI61:
  36              		.file 2 "../../../os/hal/ports/STM32/STM32H7xx/stm32_rcc.h"
  37              		.loc 2 97 22 view .LVU2
  38              	.LBB62:
  39              		.loc 2 100 3 view .LVU3
  40              	.LBE62:
  41              	.LBE61:
  42              		.loc 1 150 25 is_stmt 0 view .LVU4
  43 0000 38B5     		push	{r3, r4, r5, lr}
  44              		.cfi_def_cfa_offset 16
  45              		.cfi_offset 3, -16
  46              		.cfi_offset 4, -12
  47              		.cfi_offset 5, -8
  48              		.cfi_offset 14, -4
  49              	.LBB66:
  50              	.LBB63:
  51              		.loc 2 100 17 view .LVU5
  52 0002 4F4B     		ldr	r3, .L8
  53              	.LBE63:
  54              	.LBE66:
  55              	.LBB67:
  56              	.LBB68:
  57              		.loc 2 109 17 view .LVU6
ARM GAS  C:\Users\DEVELO~1\AppData\Local\Temp\ccdu9vsZ.s 			page 2


  58 0004 0024     		movs	r4, #0
  59              		.loc 2 108 17 view .LVU7
  60 0006 4FF0FF32 		mov	r2, #-1
  61              	.LBE68:
  62              	.LBE67:
  63              	.LBB70:
  64              	.LBB71:
  65              		.loc 2 116 17 view .LVU8
  66 000a 4E48     		ldr	r0, .L8+4
  67              	.LBE71:
  68              	.LBE70:
  69              	.LBB75:
  70              	.LBB64:
  71              		.loc 2 100 17 view .LVU9
  72 000c D3F88010 		ldr	r1, [r3, #128]
  73              	.LBE64:
  74              	.LBE75:
  75              	.LBB76:
  76              	.LBB72:
  77              		.loc 2 117 17 view .LVU10
  78 0010 4D4D     		ldr	r5, .L8+8
  79              	.LBE72:
  80              	.LBE76:
  81              	.LBB77:
  82              	.LBB65:
  83              		.loc 2 100 17 view .LVU11
  84 0012 61F00041 		orn	r1, r1, #-2147483648
  85 0016 C3F88010 		str	r1, [r3, #128]
  86              		.loc 2 101 3 is_stmt 1 view .LVU12
  87              		.loc 2 101 17 is_stmt 0 view .LVU13
  88 001a D3F88010 		ldr	r1, [r3, #128]
  89 001e 01F00041 		and	r1, r1, #-2147483648
  90 0022 C3F88010 		str	r1, [r3, #128]
  91              		.loc 2 102 3 is_stmt 1 view .LVU14
  92 0026 D3F88010 		ldr	r1, [r3, #128]
  93              	.LVL1:
  94              		.loc 2 102 3 is_stmt 0 view .LVU15
  95              	.LBE65:
  96              	.LBE77:
  97              		.loc 1 161 3 is_stmt 1 view .LVU16
  98              	.LBB78:
  99              	.LBI67:
 100              		.loc 2 105 22 view .LVU17
 101              	.LBB69:
 102              		.loc 2 108 3 view .LVU18
 103              		.loc 2 108 17 is_stmt 0 view .LVU19
 104 002a D3F88410 		ldr	r1, [r3, #132]
 105 002e C3F88420 		str	r2, [r3, #132]
 106              		.loc 2 109 3 is_stmt 1 view .LVU20
 107              		.loc 2 109 17 is_stmt 0 view .LVU21
 108 0032 D3F88410 		ldr	r1, [r3, #132]
 109 0036 C3F88440 		str	r4, [r3, #132]
 110              		.loc 2 110 3 is_stmt 1 view .LVU22
 111 003a D3F88410 		ldr	r1, [r3, #132]
 112              	.LVL2:
 113              		.loc 2 110 3 is_stmt 0 view .LVU23
 114              	.LBE69:
ARM GAS  C:\Users\DEVELO~1\AppData\Local\Temp\ccdu9vsZ.s 			page 3


 115              	.LBE78:
 116              		.loc 1 162 3 is_stmt 1 view .LVU24
 117              	.LBB79:
 118              	.LBI70:
 119              		.loc 2 113 22 view .LVU25
 120              	.LBB73:
 121              		.loc 2 116 3 view .LVU26
 122              		.loc 2 116 17 is_stmt 0 view .LVU27
 123 003e D96F     		ldr	r1, [r3, #124]
 124 0040 0143     		orrs	r1, r1, r0
 125 0042 D967     		str	r1, [r3, #124]
 126              		.loc 2 117 3 is_stmt 1 view .LVU28
 127              		.loc 2 117 17 is_stmt 0 view .LVU29
 128 0044 D86F     		ldr	r0, [r3, #124]
 129              	.LBE73:
 130              	.LBE79:
 131              	.LBB80:
 132              	.LBB81:
 133              		.loc 2 124 17 view .LVU30
 134 0046 4149     		ldr	r1, .L8+12
 135              	.LBE81:
 136              	.LBE80:
 137              	.LBB83:
 138              	.LBB74:
 139              		.loc 2 117 17 view .LVU31
 140 0048 2840     		ands	r0, r0, r5
 141 004a D867     		str	r0, [r3, #124]
 142              		.loc 2 118 3 is_stmt 1 view .LVU32
 143 004c D86F     		ldr	r0, [r3, #124]
 144              	.LVL3:
 145              		.loc 2 118 3 is_stmt 0 view .LVU33
 146              	.LBE74:
 147              	.LBE83:
 148              		.loc 1 177 3 is_stmt 1 view .LVU34
 149              	.LBB84:
 150              	.LBI80:
 151              		.loc 2 121 22 view .LVU35
 152              	.LBB82:
 153              		.loc 2 124 3 view .LVU36
 154              		.loc 2 124 17 is_stmt 0 view .LVU37
 155 004e D3F88800 		ldr	r0, [r3, #136]
 156 0052 0143     		orrs	r1, r1, r0
 157 0054 C3F88810 		str	r1, [r3, #136]
 158              		.loc 2 125 3 is_stmt 1 view .LVU38
 159              		.loc 2 125 17 is_stmt 0 view .LVU39
 160 0058 D3F88810 		ldr	r1, [r3, #136]
 161 005c C1F30A01 		ubfx	r1, r1, #0, #11
 162 0060 C3F88810 		str	r1, [r3, #136]
 163              		.loc 2 126 3 is_stmt 1 view .LVU40
 164 0064 D3F88810 		ldr	r1, [r3, #136]
 165              	.LVL4:
 166              		.loc 2 126 3 is_stmt 0 view .LVU41
 167              	.LBE82:
 168              	.LBE84:
 169              		.loc 1 178 3 is_stmt 1 view .LVU42
 170              	.LBB85:
 171              	.LBI85:
ARM GAS  C:\Users\DEVELO~1\AppData\Local\Temp\ccdu9vsZ.s 			page 4


 172              		.loc 2 57 22 view .LVU43
 173              	.LBB86:
 174              		.loc 2 60 3 view .LVU44
 175              		.loc 2 60 18 is_stmt 0 view .LVU45
 176 0068 D3F89010 		ldr	r1, [r3, #144]
 177 006c C3F89020 		str	r2, [r3, #144]
 178              		.loc 2 61 3 is_stmt 1 view .LVU46
 179              		.loc 2 61 18 is_stmt 0 view .LVU47
 180 0070 D3F89010 		ldr	r1, [r3, #144]
 181 0074 C3F89040 		str	r4, [r3, #144]
 182              		.loc 2 62 3 is_stmt 1 view .LVU48
 183 0078 D3F89010 		ldr	r1, [r3, #144]
 184              	.LVL5:
 185              		.loc 2 62 3 is_stmt 0 view .LVU49
 186              	.LBE86:
 187              	.LBE85:
 188              		.loc 1 179 3 is_stmt 1 view .LVU50
 189              	.LBB87:
 190              	.LBI87:
 191              		.loc 2 65 22 view .LVU51
 192              	.LBB88:
 193              		.loc 2 68 3 view .LVU52
 194              		.loc 2 68 18 is_stmt 0 view .LVU53
 195 007c D3F89410 		ldr	r1, [r3, #148]
 196 0080 C3F89420 		str	r2, [r3, #148]
 197              		.loc 2 69 3 is_stmt 1 view .LVU54
 198              		.loc 2 69 18 is_stmt 0 view .LVU55
 199 0084 D3F89410 		ldr	r1, [r3, #148]
 200 0088 C3F89440 		str	r4, [r3, #148]
 201              		.loc 2 70 3 is_stmt 1 view .LVU56
 202 008c D3F89410 		ldr	r1, [r3, #148]
 203              	.LVL6:
 204              		.loc 2 70 3 is_stmt 0 view .LVU57
 205              	.LBE88:
 206              	.LBE87:
 207              		.loc 1 180 3 is_stmt 1 view .LVU58
 208              	.LBB89:
 209              	.LBI89:
 210              		.loc 2 73 22 view .LVU59
 211              	.LBB90:
 212              		.loc 2 76 3 view .LVU60
 213              		.loc 2 76 17 is_stmt 0 view .LVU61
 214 0090 D3F89810 		ldr	r1, [r3, #152]
 215 0094 C3F89820 		str	r2, [r3, #152]
 216              		.loc 2 77 3 is_stmt 1 view .LVU62
 217              		.loc 2 77 17 is_stmt 0 view .LVU63
 218 0098 D3F89810 		ldr	r1, [r3, #152]
 219 009c C3F89840 		str	r4, [r3, #152]
 220              		.loc 2 78 3 is_stmt 1 view .LVU64
 221 00a0 D3F89810 		ldr	r1, [r3, #152]
 222              	.LVL7:
 223              		.loc 2 78 3 is_stmt 0 view .LVU65
 224              	.LBE90:
 225              	.LBE89:
 226              		.loc 1 181 3 is_stmt 1 view .LVU66
 227              	.LBB91:
 228              	.LBI91:
ARM GAS  C:\Users\DEVELO~1\AppData\Local\Temp\ccdu9vsZ.s 			page 5


 229              		.loc 2 81 22 view .LVU67
 230              	.LBB92:
 231              		.loc 2 84 3 view .LVU68
 232              		.loc 2 84 17 is_stmt 0 view .LVU69
 233 00a4 D3F88C10 		ldr	r1, [r3, #140]
 234 00a8 C3F88C20 		str	r2, [r3, #140]
 235              		.loc 2 85 3 is_stmt 1 view .LVU70
 236              		.loc 2 85 17 is_stmt 0 view .LVU71
 237 00ac D3F88C10 		ldr	r1, [r3, #140]
 238 00b0 C3F88C40 		str	r4, [r3, #140]
 239              		.loc 2 86 3 is_stmt 1 view .LVU72
 240 00b4 D3F88C10 		ldr	r1, [r3, #140]
 241              	.LVL8:
 242              		.loc 2 86 3 is_stmt 0 view .LVU73
 243              	.LBE92:
 244              	.LBE91:
 245              		.loc 1 182 3 is_stmt 1 view .LVU74
 246              	.LBB93:
 247              	.LBI93:
 248              		.loc 2 89 22 view .LVU75
 249              	.LBB94:
 250              		.loc 2 92 3 view .LVU76
 251              		.loc 2 92 17 is_stmt 0 view .LVU77
 252 00b8 D3F89C10 		ldr	r1, [r3, #156]
 253 00bc C3F89C20 		str	r2, [r3, #156]
 254              		.loc 2 93 3 is_stmt 1 view .LVU78
 255              		.loc 2 93 17 is_stmt 0 view .LVU79
 256 00c0 D3F89C20 		ldr	r2, [r3, #156]
 257 00c4 C3F89C40 		str	r4, [r3, #156]
 258              		.loc 2 94 3 is_stmt 1 view .LVU80
 259 00c8 D3F89C30 		ldr	r3, [r3, #156]
 260              	.LVL9:
 261              		.loc 2 94 3 is_stmt 0 view .LVU81
 262              	.LBE94:
 263              	.LBE93:
 264              		.loc 1 187 3 is_stmt 1 view .LVU82
 265 00cc FFF7FEFF 		bl	bdmaInit
 266              	.LVL10:
 267              		.loc 1 190 3 view .LVU83
 268 00d0 FFF7FEFF 		bl	dmaInit
 269              	.LVL11:
 270              		.loc 1 197 3 view .LVU84
 271 00d4 FFF7FEFF 		bl	irqInit
 272              	.LVL12:
 273              		.loc 1 202 5 view .LVU85
 274 00d8 1D48     		ldr	r0, .L8+16
 275 00da 0621     		movs	r1, #6
 276 00dc 4FF01053 		mov	r3, #603979776
 277 00e0 1C4A     		ldr	r2, .L8+20
 278 00e2 C0F89810 		str	r1, [r0, #152]
 279              		.loc 1 202 5 view .LVU86
 280 00e6 C0F89C30 		str	r3, [r0, #156]
 281              		.loc 1 202 5 view .LVU87
 282              		.loc 1 209 5 is_stmt 0 view .LVU88
 283 00ea 0523     		movs	r3, #5
 284              		.loc 1 202 5 view .LVU89
 285 00ec C0F8A020 		str	r2, [r0, #160]
ARM GAS  C:\Users\DEVELO~1\AppData\Local\Temp\ccdu9vsZ.s 			page 6


 286              		.loc 1 208 40 is_stmt 1 view .LVU90
 287              		.loc 1 209 5 view .LVU91
 288 00f0 C0F89430 		str	r3, [r0, #148]
 289              		.loc 1 209 5 view .LVU92
 290 00f4 436A     		ldr	r3, [r0, #36]
 291 00f6 43F48033 		orr	r3, r3, #65536
 292 00fa 4362     		str	r3, [r0, #36]
 293              		.loc 1 209 35 view .LVU93
 294              		.loc 1 214 5 view .LVU94
 295              	.LBB95:
 296              	.LBI95:
 297              		.file 3 "../../../os/common/ext/ARM/CMSIS/Core/Include/core_cm7.h"
 298              		.loc 3 2427 22 view .LVU95
 299              	.LBB96:
 300              		.loc 3 2430 5 view .LVU96
 301              		.loc 3 2431 5 view .LVU97
 302              		.loc 3 2432 5 view .LVU98
 303              		.loc 3 2434 5 view .LVU99
 304              		.loc 3 2434 17 is_stmt 0 view .LVU100
 305 00fc C0F88440 		str	r4, [r0, #132]
 306              		.loc 3 2435 5 is_stmt 1 view .LVU101
 307              	.LBB97:
 308              	.LBI97:
 309              		.file 4 "../../../os/common/ext/ARM/CMSIS/Core/Include/cmsis_gcc.h"
 310              		.loc 4 877 27 view .LVU102
 311              	.LBB98:
 312              		.loc 4 879 3 view .LVU103
 313              		.syntax unified
 314              	@ 879 "../../../os/common/ext/ARM/CMSIS/Core/Include/cmsis_gcc.h" 1
 315 0100 BFF34F8F 		dsb 0xF
 316              	@ 0 "" 2
 317              		.thumb
 318              		.syntax unified
 319              	.LBE98:
 320              	.LBE97:
 321              		.loc 3 2437 5 view .LVU104
 322              		.loc 3 2437 12 is_stmt 0 view .LVU105
 323 0104 D0F88030 		ldr	r3, [r0, #128]
 324              	.LVL13:
 325              		.loc 3 2440 5 is_stmt 1 view .LVU106
 326              		.loc 3 2444 54 is_stmt 0 view .LVU107
 327 0108 43F6E074 		movw	r4, #16352
 328              		.loc 3 2440 10 view .LVU108
 329 010c C3F34E3C 		ubfx	ip, r3, #13, #15
 330              		.loc 3 2442 12 view .LVU109
 331 0110 C3F3C90E 		ubfx	lr, r3, #3, #10
 332 0114 4FEA4C1C 		lsl	ip, ip, #5
 333              	.LVL14:
 334              	.L3:
 335              		.loc 3 2441 5 is_stmt 1 view .LVU110
 336              		.loc 3 2442 7 view .LVU111
 337              		.loc 3 2444 54 is_stmt 0 view .LVU112
 338 0118 0CEA0401 		and	r1, ip, r4
 339              		.loc 3 2442 12 view .LVU113
 340 011c 7346     		mov	r3, lr
 341              	.L2:
 342              	.LVL15:
ARM GAS  C:\Users\DEVELO~1\AppData\Local\Temp\ccdu9vsZ.s 			page 7


 343              		.loc 3 2443 7 is_stmt 1 view .LVU114
 344              		.loc 3 2444 9 view .LVU115
 345              		.loc 3 2444 76 is_stmt 0 view .LVU116
 346 011e 41EA8372 		orr	r2, r1, r3, lsl #30
 347              		.loc 3 2449 20 view .LVU117
 348 0122 013B     		subs	r3, r3, #1
 349              	.LVL16:
 350              		.loc 3 2444 21 view .LVU118
 351 0124 C0F87422 		str	r2, [r0, #628]
 352              		.loc 3 2449 23 is_stmt 1 view .LVU119
 353              	.LVL17:
 354              		.loc 3 2449 23 is_stmt 0 view .LVU120
 355 0128 5A1C     		adds	r2, r3, #1
 356 012a F8D1     		bne	.L2
 357              		.loc 3 2450 20 is_stmt 1 view .LVU121
 358 012c ACF1200C 		sub	ip, ip, #32
 359 0130 1CF1200F 		cmn	ip, #32
 360 0134 F0D1     		bne	.L3
 361              		.loc 3 2452 5 view .LVU122
 362              	.LBB99:
 363              	.LBI99:
 364              		.loc 4 877 27 view .LVU123
 365              	.LBB100:
 366              		.loc 4 879 3 view .LVU124
 367              		.syntax unified
 368              	@ 879 "../../../os/common/ext/ARM/CMSIS/Core/Include/cmsis_gcc.h" 1
 369 0136 BFF34F8F 		dsb 0xF
 370              	@ 0 "" 2
 371              		.thumb
 372              		.syntax unified
 373              	.LBE100:
 374              	.LBE99:
 375              		.loc 3 2453 5 view .LVU125
 376              	.LBB101:
 377              	.LBI101:
 378              		.loc 4 866 27 view .LVU126
 379              	.LBB102:
 380              		.loc 4 868 3 view .LVU127
 381              		.syntax unified
 382              	@ 868 "../../../os/common/ext/ARM/CMSIS/Core/Include/cmsis_gcc.h" 1
 383 013a BFF36F8F 		isb 0xF
 384              	@ 0 "" 2
 385              	.LVL18:
 386              		.loc 4 868 3 is_stmt 0 view .LVU128
 387              		.thumb
 388              		.syntax unified
 389              	.LBE102:
 390              	.LBE101:
 391              	.LBE96:
 392              	.LBE95:
 393              		.loc 1 218 1 view .LVU129
 394 013e 38BD     		pop	{r3, r4, r5, pc}
 395              	.L9:
 396              		.align	2
 397              	.L8:
 398 0140 00440258 		.word	1476543488
 399 0144 FFEFFF7F 		.word	2147479551
ARM GAS  C:\Users\DEVELO~1\AppData\Local\Temp\ccdu9vsZ.s 			page 8


 400 0148 00100080 		.word	-2147479552
 401 014c 00F8FFFF 		.word	-2048
 402 0150 00ED00E0 		.word	-536810240
 403 0154 1B000C03 		.word	51118107
 404              		.cfi_endproc
 405              	.LFE434:
 406              		.size	hal_lld_init, .-hal_lld_init
 407              		.section	.text.stm32_clock_init,"ax",%progbits
 408              		.align	1
 409              		.p2align 4,,15
 410              		.global	stm32_clock_init
 411              		.syntax unified
 412              		.thumb
 413              		.thumb_func
 414              		.type	stm32_clock_init, %function
 415              	stm32_clock_init:
 416              	.LFB435:
 417              		.loc 1 227 29 is_stmt 1 view -0
 418              		.cfi_startproc
 419              		@ args = 0, pretend = 0, frame = 0
 420              		@ frame_needed = 0, uses_anonymous_args = 0
 421              		@ link register save eliminated.
 422              		.loc 1 229 3 view .LVU131
 423              		.loc 1 240 3 view .LVU132
 424              	.LBB116:
 425              	.LBB117:
 426              		.loc 2 501 19 is_stmt 0 view .LVU133
 427 0000 654B     		ldr	r3, .L39
 428              	.LBE117:
 429              	.LBE116:
 430              	.LBB119:
 431              	.LBB120:
 432              		.loc 1 106 14 view .LVU134
 433 0002 0220     		movs	r0, #2
 434              	.LBE120:
 435              	.LBE119:
 436              		.loc 1 240 58 view .LVU135
 437 0004 6549     		ldr	r1, .L39+4
 438              	.LBB123:
 439              	.LBB121:
 440              		.loc 1 106 14 view .LVU136
 441 0006 664A     		ldr	r2, .L39+8
 442              	.LBE121:
 443              	.LBE123:
 444              		.loc 1 227 29 view .LVU137
 445 0008 10B4     		push	{r4}
 446              		.cfi_def_cfa_offset 4
 447              		.cfi_offset 4, -4
 448              		.loc 1 240 58 view .LVU138
 449 000a 0124     		movs	r4, #1
 450 000c C1F80841 		str	r4, [r1, #264]
 451              		.loc 1 245 3 is_stmt 1 view .LVU139
 452              	.LVL19:
 453              	.LBB124:
 454              	.LBI116:
 455              		.loc 2 497 22 view .LVU140
 456              	.LBB118:
ARM GAS  C:\Users\DEVELO~1\AppData\Local\Temp\ccdu9vsZ.s 			page 9


 457              		.loc 2 501 3 view .LVU141
 458              		.loc 2 501 19 is_stmt 0 view .LVU142
 459 0010 D3F8F410 		ldr	r1, [r3, #244]
 460 0014 0143     		orrs	r1, r1, r0
 461 0016 C3F8F410 		str	r1, [r3, #244]
 462              		.loc 2 502 3 is_stmt 1 view .LVU143
 463              		.loc 2 503 5 view .LVU144
 464              		.loc 2 503 23 is_stmt 0 view .LVU145
 465 001a D3F81C11 		ldr	r1, [r3, #284]
 466 001e 0143     		orrs	r1, r1, r0
 467 0020 C3F81C11 		str	r1, [r3, #284]
 468              		.loc 2 508 3 is_stmt 1 view .LVU146
 469 0024 D3F81C31 		ldr	r3, [r3, #284]
 470              	.LVL20:
 471              		.loc 2 508 3 is_stmt 0 view .LVU147
 472              	.LBE118:
 473              	.LBE124:
 474              		.loc 1 248 3 is_stmt 1 view .LVU148
 475              	.LBB125:
 476              	.LBI119:
 477              		.loc 1 98 20 view .LVU149
 478              	.LBB122:
 479              		.loc 1 106 3 view .LVU150
 480              		.loc 1 106 14 is_stmt 0 view .LVU151
 481 0028 D060     		str	r0, [r2, #12]
 482              		.loc 1 107 3 is_stmt 1 view .LVU152
 483              	.L11:
 484              		.loc 1 107 43 view .LVU153
 485              		.loc 1 107 14 is_stmt 0 view .LVU154
 486 002a 5368     		ldr	r3, [r2, #4]
 487              		.loc 1 107 43 view .LVU155
 488 002c 9904     		lsls	r1, r3, #18
 489 002e FCD5     		bpl	.L11
 490              		.loc 1 110 3 is_stmt 1 view .LVU156
 491              		.loc 1 110 14 is_stmt 0 view .LVU157
 492 0030 5C49     		ldr	r1, .L39+12
 493              		.loc 1 111 14 view .LVU158
 494 0032 0123     		movs	r3, #1
 495              		.loc 1 112 14 view .LVU159
 496 0034 5C4C     		ldr	r4, .L39+16
 497              		.loc 1 113 14 view .LVU160
 498 0036 0020     		movs	r0, #0
 499              		.loc 1 110 14 view .LVU161
 500 0038 1160     		str	r1, [r2]
 501              		.loc 1 111 3 is_stmt 1 view .LVU162
 502              		.loc 1 111 14 is_stmt 0 view .LVU163
 503 003a 9360     		str	r3, [r2, #8]
 504              		.loc 1 112 3 is_stmt 1 view .LVU164
 505              		.loc 1 117 14 is_stmt 0 view .LVU165
 506 003c 4FF44043 		mov	r3, #49152
 507              		.loc 1 127 14 view .LVU166
 508 0040 5749     		ldr	r1, .L39+8
 509              		.loc 1 112 14 view .LVU167
 510 0042 D460     		str	r4, [r2, #12]
 511              		.loc 1 113 3 is_stmt 1 view .LVU168
 512              		.loc 1 113 14 is_stmt 0 view .LVU169
 513 0044 1061     		str	r0, [r2, #16]
ARM GAS  C:\Users\DEVELO~1\AppData\Local\Temp\ccdu9vsZ.s 			page 10


 514              		.loc 1 117 3 is_stmt 1 view .LVU170
 515              		.loc 1 117 14 is_stmt 0 view .LVU171
 516 0046 9361     		str	r3, [r2, #24]
 517              		.loc 1 127 3 is_stmt 1 view .LVU172
 518              	.L12:
 519              		.loc 1 127 40 view .LVU173
 520              		.loc 1 127 14 is_stmt 0 view .LVU174
 521 0048 8B69     		ldr	r3, [r1, #24]
 522              		.loc 1 127 40 view .LVU175
 523 004a 9B04     		lsls	r3, r3, #18
 524 004c FCD5     		bpl	.L12
 525              	.LBE122:
 526              	.LBE125:
 527              		.loc 1 251 3 is_stmt 1 view .LVU176
 528              	.LBB126:
 529              	.LBI126:
 530              		.loc 1 58 20 view .LVU177
 531              	.LBB127:
 532              		.loc 1 61 3 view .LVU178
 533              		.loc 1 61 12 is_stmt 0 view .LVU179
 534 004e 0B68     		ldr	r3, [r1]
 535              		.loc 1 64 11 view .LVU180
 536 0050 514A     		ldr	r2, .L39
 537              		.loc 1 61 12 view .LVU181
 538 0052 43F48073 		orr	r3, r3, #256
 539 0056 0B60     		str	r3, [r1]
 540              		.loc 1 64 3 is_stmt 1 view .LVU182
 541              		.loc 1 64 11 is_stmt 0 view .LVU183
 542 0058 136F     		ldr	r3, [r2, #112]
 543              		.loc 1 64 18 view .LVU184
 544 005a 03F44073 		and	r3, r3, #768
 545              		.loc 1 64 6 view .LVU185
 546 005e B3F5007F 		cmp	r3, #512
 547 0062 04D0     		beq	.L13
 548              		.loc 1 66 5 is_stmt 1 view .LVU186
 549              		.loc 1 66 15 is_stmt 0 view .LVU187
 550 0064 4FF48031 		mov	r1, #65536
 551              		.loc 1 67 15 view .LVU188
 552 0068 0023     		movs	r3, #0
 553              		.loc 1 66 15 view .LVU189
 554 006a 1167     		str	r1, [r2, #112]
 555              		.loc 1 67 5 is_stmt 1 view .LVU190
 556              		.loc 1 67 15 is_stmt 0 view .LVU191
 557 006c 1367     		str	r3, [r2, #112]
 558              	.L13:
 559              	.LBE127:
 560              	.LBE126:
 561              		.loc 1 255 3 is_stmt 1 view .LVU192
 562              		.loc 1 255 11 is_stmt 0 view .LVU193
 563 006e 4A49     		ldr	r1, .L39
 564 0070 0B68     		ldr	r3, [r1]
 565 0072 43F00103 		orr	r3, r3, #1
 566 0076 0B60     		str	r3, [r1]
 567              		.loc 1 256 3 is_stmt 1 view .LVU194
 568              	.L14:
 569              		.loc 1 256 10 discriminator 1 view .LVU195
 570              		.loc 1 256 15 is_stmt 0 discriminator 1 view .LVU196
ARM GAS  C:\Users\DEVELO~1\AppData\Local\Temp\ccdu9vsZ.s 			page 11


 571 0078 0B68     		ldr	r3, [r1]
 572              		.loc 1 256 10 discriminator 1 view .LVU197
 573 007a 5C07     		lsls	r4, r3, #29
 574 007c FCD5     		bpl	.L14
 575              		.loc 1 262 3 is_stmt 1 view .LVU198
 576              		.loc 1 262 16 is_stmt 0 view .LVU199
 577 007e 0023     		movs	r3, #0
 578              		.loc 1 263 14 view .LVU200
 579 0080 454A     		ldr	r2, .L39
 580              		.loc 1 262 16 view .LVU201
 581 0082 0B61     		str	r3, [r1, #16]
 582              		.loc 1 263 3 is_stmt 1 view .LVU202
 583              	.L15:
 584              		.loc 1 263 37 discriminator 1 view .LVU203
 585              		.loc 1 263 14 is_stmt 0 discriminator 1 view .LVU204
 586 0084 1369     		ldr	r3, [r2, #16]
 587              		.loc 1 263 37 discriminator 1 view .LVU205
 588 0086 13F03803 		ands	r3, r3, #56
 589 008a FBD1     		bne	.L15
 590              		.loc 1 267 3 is_stmt 1 view .LVU206
 591              		.loc 1 268 16 is_stmt 0 view .LVU207
 592 008c 4FF08040 		mov	r0, #1073741824
 593              		.loc 1 267 16 view .LVU208
 594 0090 0124     		movs	r4, #1
 595              		.loc 1 273 16 view .LVU209
 596 0092 4649     		ldr	r1, .L39+20
 597              		.loc 1 267 16 view .LVU210
 598 0094 1460     		str	r4, [r2]
 599              		.loc 1 268 3 is_stmt 1 view .LVU211
 600              		.loc 1 268 16 is_stmt 0 view .LVU212
 601 0096 5060     		str	r0, [r2, #4]
 602              		.loc 1 272 3 is_stmt 1 view .LVU213
 603              		.loc 1 287 13 is_stmt 0 view .LVU214
 604 0098 4548     		ldr	r0, .L39+24
 605              		.loc 1 272 16 view .LVU215
 606 009a 5367     		str	r3, [r2, #116]
 607              		.loc 1 273 3 is_stmt 1 view .LVU216
 608              		.loc 1 273 16 is_stmt 0 view .LVU217
 609 009c D162     		str	r1, [r2, #44]
 610              		.loc 1 277 3 is_stmt 1 view .LVU218
 611              	.LVL21:
 612              		.loc 1 282 3 view .LVU219
 613              		.loc 1 285 3 view .LVU220
 614              		.loc 1 287 3 view .LVU221
 615              		.loc 1 287 13 is_stmt 0 view .LVU222
 616 009e 1061     		str	r0, [r2, #16]
 617              		.loc 1 294 3 is_stmt 1 view .LVU223
 618              		.loc 1 294 11 is_stmt 0 view .LVU224
 619 00a0 1368     		ldr	r3, [r2]
 620              		.loc 1 296 14 view .LVU225
 621 00a2 3D49     		ldr	r1, .L39
 622              		.loc 1 294 11 view .LVU226
 623 00a4 43F48033 		orr	r3, r3, #65536
 624 00a8 1360     		str	r3, [r2]
 625              		.loc 1 296 3 is_stmt 1 view .LVU227
 626              	.L16:
 627              		.loc 1 296 36 discriminator 1 view .LVU228
ARM GAS  C:\Users\DEVELO~1\AppData\Local\Temp\ccdu9vsZ.s 			page 12


 628              		.loc 1 296 14 is_stmt 0 discriminator 1 view .LVU229
 629 00aa 0B68     		ldr	r3, [r1]
 630              		.loc 1 296 36 discriminator 1 view .LVU230
 631 00ac 9803     		lsls	r0, r3, #14
 632 00ae FCD5     		bpl	.L16
 633              		.loc 1 302 3 is_stmt 1 view .LVU231
 634              		.loc 1 302 11 is_stmt 0 view .LVU232
 635 00b0 0A68     		ldr	r2, [r1]
 636              		.loc 1 303 14 view .LVU233
 637 00b2 394B     		ldr	r3, .L39
 638              		.loc 1 302 11 view .LVU234
 639 00b4 42F48052 		orr	r2, r2, #4096
 640 00b8 0A60     		str	r2, [r1]
 641              		.loc 1 303 3 is_stmt 1 view .LVU235
 642              	.L17:
 643              		.loc 1 303 38 discriminator 1 view .LVU236
 644              		.loc 1 303 14 is_stmt 0 discriminator 1 view .LVU237
 645 00ba 1A68     		ldr	r2, [r3]
 646              		.loc 1 303 38 discriminator 1 view .LVU238
 647 00bc 9204     		lsls	r2, r2, #18
 648 00be FCD5     		bpl	.L17
 649              	.LBB128:
 650              		.loc 1 328 5 is_stmt 1 view .LVU239
 651              	.LVL22:
 652              		.loc 1 329 5 view .LVU240
 653              		.loc 1 330 5 view .LVU241
 654              		.loc 1 332 5 view .LVU242
 655              		.loc 1 342 20 is_stmt 0 view .LVU243
 656 00c0 0022     		movs	r2, #0
 657              		.loc 1 332 20 view .LVU244
 658 00c2 3C48     		ldr	r0, .L39+28
 659              		.loc 1 343 20 view .LVU245
 660 00c4 3C49     		ldr	r1, .L39+32
 661              		.loc 1 359 20 view .LVU246
 662 00c6 44F6F054 		movw	r4, #19952
 663              		.loc 1 332 20 view .LVU247
 664 00ca 9862     		str	r0, [r3, #40]
 665              		.loc 1 337 5 is_stmt 1 view .LVU248
 666              	.LVL23:
 667              		.loc 1 342 5 view .LVU249
 668              		.loc 1 342 20 is_stmt 0 view .LVU250
 669 00cc 5A63     		str	r2, [r3, #52]
 670              		.loc 1 343 5 is_stmt 1 view .LVU251
 671              		.loc 1 343 20 is_stmt 0 view .LVU252
 672 00ce 1963     		str	r1, [r3, #48]
 673              		.loc 1 345 5 is_stmt 1 view .LVU253
 674              	.LVL24:
 675              		.loc 1 346 5 view .LVU254
 676              		.loc 1 348 5 view .LVU255
 677              		.loc 1 351 5 view .LVU256
 678              		.loc 1 359 5 view .LVU257
 679              		.loc 1 360 20 is_stmt 0 view .LVU258
 680 00d0 3A49     		ldr	r1, .L39+36
 681              		.loc 1 359 20 view .LVU259
 682 00d2 DC63     		str	r4, [r3, #60]
 683              		.loc 1 360 5 is_stmt 1 view .LVU260
 684              		.loc 1 377 20 is_stmt 0 view .LVU261
ARM GAS  C:\Users\DEVELO~1\AppData\Local\Temp\ccdu9vsZ.s 			page 13


 685 00d4 3A48     		ldr	r0, .L39+40
 686              		.loc 1 360 20 view .LVU262
 687 00d6 9963     		str	r1, [r3, #56]
 688              		.loc 1 362 5 is_stmt 1 view .LVU263
 689              	.LVL25:
 690              		.loc 1 363 5 view .LVU264
 691              		.loc 1 365 5 view .LVU265
 692              		.loc 1 371 5 view .LVU266
 693              		.loc 1 376 5 view .LVU267
 694              		.loc 1 393 18 is_stmt 0 view .LVU268
 695 00d8 3A49     		ldr	r1, .L39+44
 696              		.loc 1 376 20 view .LVU269
 697 00da 5A64     		str	r2, [r3, #68]
 698              		.loc 1 377 5 is_stmt 1 view .LVU270
 699              		.loc 1 377 20 is_stmt 0 view .LVU271
 700 00dc 1864     		str	r0, [r3, #64]
 701              		.loc 1 379 5 is_stmt 1 view .LVU272
 702              	.LVL26:
 703              		.loc 1 380 5 view .LVU273
 704              		.loc 1 382 5 view .LVU274
 705              		.loc 1 388 5 view .LVU275
 706              		.loc 1 393 5 view .LVU276
 707              		.loc 1 393 18 is_stmt 0 view .LVU277
 708 00de D962     		str	r1, [r3, #44]
 709              		.loc 1 394 5 is_stmt 1 view .LVU278
 710              		.loc 1 394 17 is_stmt 0 view .LVU279
 711 00e0 1968     		ldr	r1, [r3]
 712              		.loc 1 395 16 view .LVU280
 713 00e2 2D4A     		ldr	r2, .L39
 714              		.loc 1 394 17 view .LVU281
 715 00e4 41F0A851 		orr	r1, r1, #352321536
 716 00e8 1960     		str	r1, [r3]
 717              		.loc 1 395 5 is_stmt 1 view .LVU282
 718              	.L18:
 719              		.loc 1 395 32 discriminator 1 view .LVU283
 720              		.loc 1 395 16 is_stmt 0 discriminator 1 view .LVU284
 721 00ea 1368     		ldr	r3, [r2]
 722              		.loc 1 395 21 discriminator 1 view .LVU285
 723 00ec 03F02853 		and	r3, r3, #704643072
 724              		.loc 1 395 32 discriminator 1 view .LVU286
 725 00f0 B3F1285F 		cmp	r3, #704643072
 726 00f4 F9D1     		bne	.L18
 727              	.LBE128:
 728              		.loc 1 406 3 is_stmt 1 view .LVU287
 729              		.loc 1 406 15 is_stmt 0 view .LVU288
 730 00f6 4824     		movs	r4, #72
 731              		.loc 1 407 15 view .LVU289
 732 00f8 4FF48863 		mov	r3, #1088
 733              		.loc 1 408 15 view .LVU290
 734 00fc 4020     		movs	r0, #64
 735              		.loc 1 413 17 view .LVU291
 736 00fe 4FF48031 		mov	r1, #65536
 737              		.loc 1 406 15 view .LVU292
 738 0102 9461     		str	r4, [r2, #24]
 739              		.loc 1 407 3 is_stmt 1 view .LVU293
 740              		.loc 1 415 17 is_stmt 0 view .LVU294
 741 0104 4FF08054 		mov	r4, #268435456
ARM GAS  C:\Users\DEVELO~1\AppData\Local\Temp\ccdu9vsZ.s 			page 14


 742              		.loc 1 407 15 view .LVU295
 743 0108 D361     		str	r3, [r2, #28]
 744              		.loc 1 408 3 is_stmt 1 view .LVU296
 745              		.loc 1 418 17 is_stmt 0 view .LVU297
 746 010a 4FF4E003 		mov	r3, #7340032
 747              		.loc 1 408 15 view .LVU298
 748 010e 1062     		str	r0, [r2, #32]
 749              		.loc 1 413 3 is_stmt 1 view .LVU299
 750              		.loc 1 421 17 is_stmt 0 view .LVU300
 751 0110 4FF44030 		mov	r0, #196608
 752              		.loc 1 413 17 view .LVU301
 753 0114 D164     		str	r1, [r2, #76]
 754              		.loc 1 415 3 is_stmt 1 view .LVU302
 755              		.loc 1 415 17 is_stmt 0 view .LVU303
 756 0116 1465     		str	r4, [r2, #80]
 757              		.loc 1 418 3 is_stmt 1 view .LVU304
 758              		.loc 1 452 14 is_stmt 0 view .LVU305
 759 0118 2B49     		ldr	r1, .L39+48
 760              		.loc 1 418 17 view .LVU306
 761 011a 5365     		str	r3, [r2, #84]
 762              		.loc 1 421 3 is_stmt 1 view .LVU307
 763              		.loc 1 452 14 is_stmt 0 view .LVU308
 764 011c 3223     		movs	r3, #50
 765              		.loc 1 421 17 view .LVU309
 766 011e 9065     		str	r0, [r2, #88]
 767              		.loc 1 452 3 is_stmt 1 view .LVU310
 768              		.loc 1 452 14 is_stmt 0 view .LVU311
 769 0120 0B60     		str	r3, [r1]
 770              		.loc 1 454 3 is_stmt 1 view .LVU312
 771              	.L19:
 772              		.loc 1 456 3 discriminator 1 view .LVU313
 773              		.loc 1 454 43 discriminator 1 view .LVU314
 774              		.loc 1 454 16 is_stmt 0 discriminator 1 view .LVU315
 775 0122 0B68     		ldr	r3, [r1]
 776              		.loc 1 454 22 discriminator 1 view .LVU316
 777 0124 03F00F03 		and	r3, r3, #15
 778              		.loc 1 454 43 discriminator 1 view .LVU317
 779 0128 022B     		cmp	r3, #2
 780 012a FAD1     		bne	.L19
 781              		.loc 1 461 3 is_stmt 1 view .LVU318
 782              		.loc 1 461 13 is_stmt 0 view .LVU319
 783 012c 1A4A     		ldr	r2, .L39
 784 012e 1369     		ldr	r3, [r2, #16]
 785 0130 43F00303 		orr	r3, r3, #3
 786 0134 1361     		str	r3, [r2, #16]
 787              		.loc 1 462 3 is_stmt 1 view .LVU320
 788              	.L20:
 789              		.loc 1 462 41 discriminator 1 view .LVU321
 790              		.loc 1 462 14 is_stmt 0 discriminator 1 view .LVU322
 791 0136 1369     		ldr	r3, [r2, #16]
 792              		.loc 1 462 21 discriminator 1 view .LVU323
 793 0138 03F03803 		and	r3, r3, #56
 794              		.loc 1 462 41 discriminator 1 view .LVU324
 795 013c 182B     		cmp	r3, #24
 796 013e FAD1     		bne	.L20
 797              		.loc 1 477 3 is_stmt 1 view .LVU325
 798              	.LVL27:
ARM GAS  C:\Users\DEVELO~1\AppData\Local\Temp\ccdu9vsZ.s 			page 15


 799              	.LBB129:
 800              	.LBI129:
 801              		.loc 2 675 22 view .LVU326
 802              	.LBB130:
 803              		.loc 2 679 3 view .LVU327
 804              		.loc 2 679 19 is_stmt 0 view .LVU328
 805 0140 D2F8DC30 		ldr	r3, [r2, #220]
 806              	.LBE130:
 807              	.LBE129:
 808              		.loc 1 483 1 view .LVU329
 809 0144 10BC     		pop	{r4}
 810              		.cfi_restore 4
 811              		.cfi_def_cfa_offset 0
 812              	.LBB132:
 813              	.LBB131:
 814              		.loc 2 679 19 view .LVU330
 815 0146 43F00053 		orr	r3, r3, #536870912
 816 014a C2F8DC30 		str	r3, [r2, #220]
 817              		.loc 2 680 3 is_stmt 1 view .LVU331
 818              		.loc 2 681 5 view .LVU332
 819              		.loc 2 681 23 is_stmt 0 view .LVU333
 820 014e D2F80431 		ldr	r3, [r2, #260]
 821 0152 43F00053 		orr	r3, r3, #536870912
 822 0156 C2F80431 		str	r3, [r2, #260]
 823              		.loc 2 686 3 is_stmt 1 view .LVU334
 824 015a D2F80431 		ldr	r3, [r2, #260]
 825              	.LVL28:
 826              		.loc 2 686 3 is_stmt 0 view .LVU335
 827              	.LBE131:
 828              	.LBE132:
 829              		.loc 1 478 3 is_stmt 1 view .LVU336
 830              	.LBB133:
 831              	.LBI133:
 832              		.loc 2 675 22 view .LVU337
 833              	.LBB134:
 834              		.loc 2 679 3 view .LVU338
 835              		.loc 2 679 19 is_stmt 0 view .LVU339
 836 015e D2F8DC30 		ldr	r3, [r2, #220]
 837 0162 43F08043 		orr	r3, r3, #1073741824
 838 0166 C2F8DC30 		str	r3, [r2, #220]
 839              		.loc 2 680 3 is_stmt 1 view .LVU340
 840              		.loc 2 681 5 view .LVU341
 841              		.loc 2 681 23 is_stmt 0 view .LVU342
 842 016a D2F80431 		ldr	r3, [r2, #260]
 843 016e 43F08043 		orr	r3, r3, #1073741824
 844 0172 C2F80431 		str	r3, [r2, #260]
 845              		.loc 2 686 3 is_stmt 1 view .LVU343
 846 0176 D2F80431 		ldr	r3, [r2, #260]
 847              	.LVL29:
 848              		.loc 2 686 3 is_stmt 0 view .LVU344
 849              	.LBE134:
 850              	.LBE133:
 851              		.loc 1 480 3 is_stmt 1 view .LVU345
 852              	.LBB135:
 853              	.LBI135:
 854              		.loc 2 675 22 view .LVU346
 855              	.LBB136:
ARM GAS  C:\Users\DEVELO~1\AppData\Local\Temp\ccdu9vsZ.s 			page 16


 856              		.loc 2 679 3 view .LVU347
 857              		.loc 2 679 19 is_stmt 0 view .LVU348
 858 017a D2F8DC30 		ldr	r3, [r2, #220]
 859 017e 43F00043 		orr	r3, r3, #-2147483648
 860 0182 C2F8DC30 		str	r3, [r2, #220]
 861              		.loc 2 680 3 is_stmt 1 view .LVU349
 862              		.loc 2 681 5 view .LVU350
 863              		.loc 2 681 23 is_stmt 0 view .LVU351
 864 0186 D2F80431 		ldr	r3, [r2, #260]
 865 018a 43F00043 		orr	r3, r3, #-2147483648
 866 018e C2F80431 		str	r3, [r2, #260]
 867              		.loc 2 686 3 is_stmt 1 view .LVU352
 868 0192 D2F80431 		ldr	r3, [r2, #260]
 869              	.LVL30:
 870              		.loc 2 686 3 is_stmt 0 view .LVU353
 871              	.LBE136:
 872              	.LBE135:
 873              		.loc 1 483 1 view .LVU354
 874 0196 7047     		bx	lr
 875              	.L40:
 876              		.align	2
 877              	.L39:
 878 0198 00440258 		.word	1476543488
 879 019c 00800051 		.word	1358987264
 880 01a0 00480258 		.word	1476544512
 881 01a4 00C000F0 		.word	-268386304
 882 01a8 02000001 		.word	16777218
 883 01ac 0000FF01 		.word	33488896
 884 01b0 00881008 		.word	135301120
 885 01b4 52509001 		.word	26234962
 886 01b8 9F020901 		.word	17367711
 887 01bc 6112010B 		.word	184619617
 888 01c0 1F070507 		.word	117770015
 889 01c4 99036B01 		.word	23790489
 890 01c8 00200052 		.word	1375739904
 891              		.cfi_endproc
 892              	.LFE435:
 893              		.size	stm32_clock_init, .-stm32_clock_init
 894              		.global	SystemCoreClock
 895              		.section	.data.SystemCoreClock,"aw"
 896              		.align	2
 897              		.type	SystemCoreClock, %object
 898              		.size	SystemCoreClock, 4
 899              	SystemCoreClock:
 900 0000 0084D717 		.word	400000000
 901              		.text
 902              	.Letext0:
 903              		.file 5 "c:\\chibistudio\\tools\\gnu tools arm embedded\\11.3 2022.08\\arm-none-eabi\\include\\mac
 904              		.file 6 "c:\\chibistudio\\tools\\gnu tools arm embedded\\11.3 2022.08\\arm-none-eabi\\include\\sys
 905              		.file 7 "../../../os/common/ext/ST/STM32H7xx/stm32h743xx.h"
 906              		.file 8 "../../../os/hal/ports/STM32/STM32H7xx/stm32_isr.h"
 907              		.file 9 "../../../os/hal/ports/STM32/LLD/DMAv2/stm32_dma.h"
 908              		.file 10 "../../../os/hal/ports/STM32/LLD/BDMAv1/stm32_bdma.h"
 909              		.file 11 "../../../os/common/ext/ST/STM32H7xx/system_stm32h7xx.h"