ARM GAS  C:\Users\DEVELO~1\AppData\Local\Temp\ccvuQ95G.s 			page 1


   1              		.cpu cortex-m7
   2              		.arch armv7e-m
   3              		.fpu softvfp
   4              		.eabi_attribute 20, 1
   5              		.eabi_attribute 21, 1
   6              		.eabi_attribute 23, 3
   7              		.eabi_attribute 24, 1
   8              		.eabi_attribute 25, 1
   9              		.eabi_attribute 26, 1
  10              		.eabi_attribute 30, 2
  11              		.eabi_attribute 34, 1
  12              		.eabi_attribute 18, 4
  13              		.file	"hal_lld.c"
  14              		.text
  15              	.Ltext0:
  16              		.cfi_sections	.debug_frame
  17              		.section	.text.hal_lld_init,"ax",%progbits
  18              		.align	1
  19              		.p2align 4,,15
  20              		.global	hal_lld_init
  21              		.syntax unified
  22              		.thumb
  23              		.thumb_func
  24              		.type	hal_lld_init, %function
  25              	hal_lld_init:
  26              	.LFB434:
  27              		.file 1 "../../../os/hal/ports/STM32/STM32H7xx/hal_lld.c"
  28              		.loc 1 150 25 view -0
  29              		.cfi_startproc
  30              		@ args = 0, pretend = 0, frame = 0
  31              		@ frame_needed = 0, uses_anonymous_args = 0
  32              		.loc 1 160 3 view .LVU1
  33              	.LVL0:
  34              	.LBB29:
  35              	.LBI29:
  36              		.file 2 "../../../os/hal/ports/STM32/STM32H7xx/stm32_rcc.h"
  37              		.loc 2 97 22 view .LVU2
  38              	.LBB30:
  39              		.loc 2 100 3 view .LVU3
  40              	.LBE30:
  41              	.LBE29:
  42              		.loc 1 150 25 is_stmt 0 view .LVU4
  43 0000 38B5     		push	{r3, r4, r5, lr}
  44              		.cfi_def_cfa_offset 16
  45              		.cfi_offset 3, -16
  46              		.cfi_offset 4, -12
  47              		.cfi_offset 5, -8
  48              		.cfi_offset 14, -4
  49              	.LBB34:
  50              	.LBB31:
  51              		.loc 2 100 17 view .LVU5
  52 0002 364B     		ldr	r3, .L4
  53              	.LBE31:
  54              	.LBE34:
  55              	.LBB35:
  56              	.LBB36:
  57              		.loc 2 109 17 view .LVU6
ARM GAS  C:\Users\DEVELO~1\AppData\Local\Temp\ccvuQ95G.s 			page 2


  58 0004 0022     		movs	r2, #0
  59              		.loc 2 108 17 view .LVU7
  60 0006 4FF0FF31 		mov	r1, #-1
  61              	.LBE36:
  62              	.LBE35:
  63              	.LBB38:
  64              	.LBB39:
  65              		.loc 2 116 17 view .LVU8
  66 000a 354C     		ldr	r4, .L4+4
  67              	.LBE39:
  68              	.LBE38:
  69              	.LBB43:
  70              	.LBB32:
  71              		.loc 2 100 17 view .LVU9
  72 000c D3F88000 		ldr	r0, [r3, #128]
  73              	.LBE32:
  74              	.LBE43:
  75              	.LBB44:
  76              	.LBB40:
  77              		.loc 2 117 17 view .LVU10
  78 0010 344D     		ldr	r5, .L4+8
  79              	.LBE40:
  80              	.LBE44:
  81              	.LBB45:
  82              	.LBB33:
  83              		.loc 2 100 17 view .LVU11
  84 0012 60F00040 		orn	r0, r0, #-2147483648
  85 0016 C3F88000 		str	r0, [r3, #128]
  86              		.loc 2 101 3 is_stmt 1 view .LVU12
  87              		.loc 2 101 17 is_stmt 0 view .LVU13
  88 001a D3F88000 		ldr	r0, [r3, #128]
  89 001e 00F00040 		and	r0, r0, #-2147483648
  90 0022 C3F88000 		str	r0, [r3, #128]
  91              		.loc 2 102 3 is_stmt 1 view .LVU14
  92 0026 D3F88000 		ldr	r0, [r3, #128]
  93              	.LVL1:
  94              		.loc 2 102 3 is_stmt 0 view .LVU15
  95              	.LBE33:
  96              	.LBE45:
  97              		.loc 1 161 3 is_stmt 1 view .LVU16
  98              	.LBB46:
  99              	.LBI35:
 100              		.loc 2 105 22 view .LVU17
 101              	.LBB37:
 102              		.loc 2 108 3 view .LVU18
 103              		.loc 2 108 17 is_stmt 0 view .LVU19
 104 002a D3F88400 		ldr	r0, [r3, #132]
 105 002e C3F88410 		str	r1, [r3, #132]
 106              		.loc 2 109 3 is_stmt 1 view .LVU20
 107              		.loc 2 109 17 is_stmt 0 view .LVU21
 108 0032 D3F88400 		ldr	r0, [r3, #132]
 109 0036 C3F88420 		str	r2, [r3, #132]
 110              		.loc 2 110 3 is_stmt 1 view .LVU22
 111 003a D3F88400 		ldr	r0, [r3, #132]
 112              	.LVL2:
 113              		.loc 2 110 3 is_stmt 0 view .LVU23
 114              	.LBE37:
ARM GAS  C:\Users\DEVELO~1\AppData\Local\Temp\ccvuQ95G.s 			page 3


 115              	.LBE46:
 116              		.loc 1 162 3 is_stmt 1 view .LVU24
 117              	.LBB47:
 118              	.LBI38:
 119              		.loc 2 113 22 view .LVU25
 120              	.LBB41:
 121              		.loc 2 116 3 view .LVU26
 122              		.loc 2 116 17 is_stmt 0 view .LVU27
 123 003e D86F     		ldr	r0, [r3, #124]
 124 0040 2043     		orrs	r0, r0, r4
 125 0042 D867     		str	r0, [r3, #124]
 126              		.loc 2 117 3 is_stmt 1 view .LVU28
 127              		.loc 2 117 17 is_stmt 0 view .LVU29
 128 0044 DC6F     		ldr	r4, [r3, #124]
 129              	.LBE41:
 130              	.LBE47:
 131              	.LBB48:
 132              	.LBB49:
 133              		.loc 2 124 17 view .LVU30
 134 0046 2848     		ldr	r0, .L4+12
 135              	.LBE49:
 136              	.LBE48:
 137              	.LBB51:
 138              	.LBB42:
 139              		.loc 2 117 17 view .LVU31
 140 0048 2C40     		ands	r4, r4, r5
 141 004a DC67     		str	r4, [r3, #124]
 142              		.loc 2 118 3 is_stmt 1 view .LVU32
 143 004c DC6F     		ldr	r4, [r3, #124]
 144              	.LVL3:
 145              		.loc 2 118 3 is_stmt 0 view .LVU33
 146              	.LBE42:
 147              	.LBE51:
 148              		.loc 1 177 3 is_stmt 1 view .LVU34
 149              	.LBB52:
 150              	.LBI48:
 151              		.loc 2 121 22 view .LVU35
 152              	.LBB50:
 153              		.loc 2 124 3 view .LVU36
 154              		.loc 2 124 17 is_stmt 0 view .LVU37
 155 004e D3F88840 		ldr	r4, [r3, #136]
 156 0052 2043     		orrs	r0, r0, r4
 157 0054 C3F88800 		str	r0, [r3, #136]
 158              		.loc 2 125 3 is_stmt 1 view .LVU38
 159              		.loc 2 125 17 is_stmt 0 view .LVU39
 160 0058 D3F88800 		ldr	r0, [r3, #136]
 161 005c C0F30A00 		ubfx	r0, r0, #0, #11
 162 0060 C3F88800 		str	r0, [r3, #136]
 163              		.loc 2 126 3 is_stmt 1 view .LVU40
 164 0064 D3F88800 		ldr	r0, [r3, #136]
 165              	.LVL4:
 166              		.loc 2 126 3 is_stmt 0 view .LVU41
 167              	.LBE50:
 168              	.LBE52:
 169              		.loc 1 178 3 is_stmt 1 view .LVU42
 170              	.LBB53:
 171              	.LBI53:
ARM GAS  C:\Users\DEVELO~1\AppData\Local\Temp\ccvuQ95G.s 			page 4


 172              		.loc 2 57 22 view .LVU43
 173              	.LBB54:
 174              		.loc 2 60 3 view .LVU44
 175              		.loc 2 60 18 is_stmt 0 view .LVU45
 176 0068 D3F89000 		ldr	r0, [r3, #144]
 177 006c C3F89010 		str	r1, [r3, #144]
 178              		.loc 2 61 3 is_stmt 1 view .LVU46
 179              		.loc 2 61 18 is_stmt 0 view .LVU47
 180 0070 D3F89000 		ldr	r0, [r3, #144]
 181 0074 C3F89020 		str	r2, [r3, #144]
 182              		.loc 2 62 3 is_stmt 1 view .LVU48
 183 0078 D3F89000 		ldr	r0, [r3, #144]
 184              	.LVL5:
 185              		.loc 2 62 3 is_stmt 0 view .LVU49
 186              	.LBE54:
 187              	.LBE53:
 188              		.loc 1 179 3 is_stmt 1 view .LVU50
 189              	.LBB55:
 190              	.LBI55:
 191              		.loc 2 65 22 view .LVU51
 192              	.LBB56:
 193              		.loc 2 68 3 view .LVU52
 194              		.loc 2 68 18 is_stmt 0 view .LVU53
 195 007c D3F89400 		ldr	r0, [r3, #148]
 196 0080 C3F89410 		str	r1, [r3, #148]
 197              		.loc 2 69 3 is_stmt 1 view .LVU54
 198              		.loc 2 69 18 is_stmt 0 view .LVU55
 199 0084 D3F89400 		ldr	r0, [r3, #148]
 200 0088 C3F89420 		str	r2, [r3, #148]
 201              		.loc 2 70 3 is_stmt 1 view .LVU56
 202 008c D3F89400 		ldr	r0, [r3, #148]
 203              	.LVL6:
 204              		.loc 2 70 3 is_stmt 0 view .LVU57
 205              	.LBE56:
 206              	.LBE55:
 207              		.loc 1 180 3 is_stmt 1 view .LVU58
 208              	.LBB57:
 209              	.LBI57:
 210              		.loc 2 73 22 view .LVU59
 211              	.LBB58:
 212              		.loc 2 76 3 view .LVU60
 213              		.loc 2 76 17 is_stmt 0 view .LVU61
 214 0090 D3F89800 		ldr	r0, [r3, #152]
 215 0094 C3F89810 		str	r1, [r3, #152]
 216              		.loc 2 77 3 is_stmt 1 view .LVU62
 217              		.loc 2 77 17 is_stmt 0 view .LVU63
 218 0098 D3F89800 		ldr	r0, [r3, #152]
 219 009c C3F89820 		str	r2, [r3, #152]
 220              		.loc 2 78 3 is_stmt 1 view .LVU64
 221 00a0 D3F89800 		ldr	r0, [r3, #152]
 222              	.LVL7:
 223              		.loc 2 78 3 is_stmt 0 view .LVU65
 224              	.LBE58:
 225              	.LBE57:
 226              		.loc 1 181 3 is_stmt 1 view .LVU66
 227              	.LBB59:
 228              	.LBI59:
ARM GAS  C:\Users\DEVELO~1\AppData\Local\Temp\ccvuQ95G.s 			page 5


 229              		.loc 2 81 22 view .LVU67
 230              	.LBB60:
 231              		.loc 2 84 3 view .LVU68
 232              		.loc 2 84 17 is_stmt 0 view .LVU69
 233 00a4 D3F88C00 		ldr	r0, [r3, #140]
 234 00a8 C3F88C10 		str	r1, [r3, #140]
 235              		.loc 2 85 3 is_stmt 1 view .LVU70
 236              		.loc 2 85 17 is_stmt 0 view .LVU71
 237 00ac D3F88C00 		ldr	r0, [r3, #140]
 238 00b0 C3F88C20 		str	r2, [r3, #140]
 239              		.loc 2 86 3 is_stmt 1 view .LVU72
 240 00b4 D3F88C00 		ldr	r0, [r3, #140]
 241              	.LVL8:
 242              		.loc 2 86 3 is_stmt 0 view .LVU73
 243              	.LBE60:
 244              	.LBE59:
 245              		.loc 1 182 3 is_stmt 1 view .LVU74
 246              	.LBB61:
 247              	.LBI61:
 248              		.loc 2 89 22 view .LVU75
 249              	.LBB62:
 250              		.loc 2 92 3 view .LVU76
 251              		.loc 2 92 17 is_stmt 0 view .LVU77
 252 00b8 D3F89C00 		ldr	r0, [r3, #156]
 253 00bc C3F89C10 		str	r1, [r3, #156]
 254              		.loc 2 93 3 is_stmt 1 view .LVU78
 255              		.loc 2 93 17 is_stmt 0 view .LVU79
 256 00c0 D3F89C10 		ldr	r1, [r3, #156]
 257 00c4 C3F89C20 		str	r2, [r3, #156]
 258              		.loc 2 94 3 is_stmt 1 view .LVU80
 259 00c8 D3F89C30 		ldr	r3, [r3, #156]
 260              	.LVL9:
 261              		.loc 2 94 3 is_stmt 0 view .LVU81
 262              	.LBE62:
 263              	.LBE61:
 264              		.loc 1 187 3 is_stmt 1 view .LVU82
 265 00cc FFF7FEFF 		bl	bdmaInit
 266              	.LVL10:
 267              		.loc 1 190 3 view .LVU83
 268 00d0 FFF7FEFF 		bl	dmaInit
 269              	.LVL11:
 270              		.loc 1 197 3 view .LVU84
 271              		.loc 1 218 1 is_stmt 0 view .LVU85
 272 00d4 BDE83840 		pop	{r3, r4, r5, lr}
 273              		.cfi_restore 14
 274              		.cfi_restore 5
 275              		.cfi_restore 4
 276              		.cfi_restore 3
 277              		.cfi_def_cfa_offset 0
 278              		.loc 1 197 3 view .LVU86
 279 00d8 FFF7FEBF 		b	irqInit
 280              	.LVL12:
 281              	.L5:
 282              		.align	2
 283              	.L4:
 284 00dc 00440258 		.word	1476543488
 285 00e0 FFEFFF7F 		.word	2147479551
ARM GAS  C:\Users\DEVELO~1\AppData\Local\Temp\ccvuQ95G.s 			page 6


 286 00e4 00100080 		.word	-2147479552
 287 00e8 00F8FFFF 		.word	-2048
 288              		.cfi_endproc
 289              	.LFE434:
 290              		.size	hal_lld_init, .-hal_lld_init
 291              		.section	.text.stm32_clock_init,"ax",%progbits
 292              		.align	1
 293              		.p2align 4,,15
 294              		.global	stm32_clock_init
 295              		.syntax unified
 296              		.thumb
 297              		.thumb_func
 298              		.type	stm32_clock_init, %function
 299              	stm32_clock_init:
 300              	.LFB435:
 301              		.loc 1 227 29 is_stmt 1 view -0
 302              		.cfi_startproc
 303              		@ args = 0, pretend = 0, frame = 0
 304              		@ frame_needed = 0, uses_anonymous_args = 0
 305              		@ link register save eliminated.
 306              		.loc 1 229 3 view .LVU88
 307              		.loc 1 240 3 view .LVU89
 308              	.LBB76:
 309              	.LBB77:
 310              		.loc 2 501 19 is_stmt 0 view .LVU90
 311 0000 664B     		ldr	r3, .L35
 312              	.LBE77:
 313              	.LBE76:
 314              	.LBB79:
 315              	.LBB80:
 316              		.loc 1 106 14 view .LVU91
 317 0002 0220     		movs	r0, #2
 318              	.LBE80:
 319              	.LBE79:
 320              		.loc 1 240 58 view .LVU92
 321 0004 6649     		ldr	r1, .L35+4
 322              	.LBB83:
 323              	.LBB81:
 324              		.loc 1 106 14 view .LVU93
 325 0006 674A     		ldr	r2, .L35+8
 326              	.LBE81:
 327              	.LBE83:
 328              		.loc 1 227 29 view .LVU94
 329 0008 10B4     		push	{r4}
 330              		.cfi_def_cfa_offset 4
 331              		.cfi_offset 4, -4
 332              		.loc 1 240 58 view .LVU95
 333 000a 0124     		movs	r4, #1
 334 000c C1F80841 		str	r4, [r1, #264]
 335              		.loc 1 245 3 is_stmt 1 view .LVU96
 336              	.LVL13:
 337              	.LBB84:
 338              	.LBI76:
 339              		.loc 2 497 22 view .LVU97
 340              	.LBB78:
 341              		.loc 2 501 3 view .LVU98
 342              		.loc 2 501 19 is_stmt 0 view .LVU99
ARM GAS  C:\Users\DEVELO~1\AppData\Local\Temp\ccvuQ95G.s 			page 7


 343 0010 D3F8F410 		ldr	r1, [r3, #244]
 344 0014 0143     		orrs	r1, r1, r0
 345 0016 C3F8F410 		str	r1, [r3, #244]
 346              		.loc 2 502 3 is_stmt 1 view .LVU100
 347              		.loc 2 503 5 view .LVU101
 348              		.loc 2 503 23 is_stmt 0 view .LVU102
 349 001a D3F81C11 		ldr	r1, [r3, #284]
 350 001e 0143     		orrs	r1, r1, r0
 351 0020 C3F81C11 		str	r1, [r3, #284]
 352              		.loc 2 508 3 is_stmt 1 view .LVU103
 353 0024 D3F81C31 		ldr	r3, [r3, #284]
 354              	.LVL14:
 355              		.loc 2 508 3 is_stmt 0 view .LVU104
 356              	.LBE78:
 357              	.LBE84:
 358              		.loc 1 248 3 is_stmt 1 view .LVU105
 359              	.LBB85:
 360              	.LBI79:
 361              		.loc 1 98 20 view .LVU106
 362              	.LBB82:
 363              		.loc 1 106 3 view .LVU107
 364              		.loc 1 106 14 is_stmt 0 view .LVU108
 365 0028 D060     		str	r0, [r2, #12]
 366              		.loc 1 107 3 is_stmt 1 view .LVU109
 367              	.L7:
 368              		.loc 1 107 43 view .LVU110
 369              		.loc 1 107 14 is_stmt 0 view .LVU111
 370 002a 5368     		ldr	r3, [r2, #4]
 371              		.loc 1 107 43 view .LVU112
 372 002c 9904     		lsls	r1, r3, #18
 373 002e FCD5     		bpl	.L7
 374              		.loc 1 110 3 is_stmt 1 view .LVU113
 375              		.loc 1 110 14 is_stmt 0 view .LVU114
 376 0030 5D49     		ldr	r1, .L35+12
 377              		.loc 1 111 14 view .LVU115
 378 0032 0123     		movs	r3, #1
 379              		.loc 1 112 14 view .LVU116
 380 0034 5D4C     		ldr	r4, .L35+16
 381              		.loc 1 113 14 view .LVU117
 382 0036 0020     		movs	r0, #0
 383              		.loc 1 110 14 view .LVU118
 384 0038 1160     		str	r1, [r2]
 385              		.loc 1 111 3 is_stmt 1 view .LVU119
 386              		.loc 1 111 14 is_stmt 0 view .LVU120
 387 003a 9360     		str	r3, [r2, #8]
 388              		.loc 1 112 3 is_stmt 1 view .LVU121
 389              		.loc 1 117 14 is_stmt 0 view .LVU122
 390 003c 4FF44043 		mov	r3, #49152
 391              		.loc 1 127 14 view .LVU123
 392 0040 5849     		ldr	r1, .L35+8
 393              		.loc 1 112 14 view .LVU124
 394 0042 D460     		str	r4, [r2, #12]
 395              		.loc 1 113 3 is_stmt 1 view .LVU125
 396              		.loc 1 113 14 is_stmt 0 view .LVU126
 397 0044 1061     		str	r0, [r2, #16]
 398              		.loc 1 117 3 is_stmt 1 view .LVU127
 399              		.loc 1 117 14 is_stmt 0 view .LVU128
ARM GAS  C:\Users\DEVELO~1\AppData\Local\Temp\ccvuQ95G.s 			page 8


 400 0046 9361     		str	r3, [r2, #24]
 401              		.loc 1 127 3 is_stmt 1 view .LVU129
 402              	.L8:
 403              		.loc 1 127 40 view .LVU130
 404              		.loc 1 127 14 is_stmt 0 view .LVU131
 405 0048 8B69     		ldr	r3, [r1, #24]
 406              		.loc 1 127 40 view .LVU132
 407 004a 9B04     		lsls	r3, r3, #18
 408 004c FCD5     		bpl	.L8
 409              	.LBE82:
 410              	.LBE85:
 411              		.loc 1 251 3 is_stmt 1 view .LVU133
 412              	.LBB86:
 413              	.LBI86:
 414              		.loc 1 58 20 view .LVU134
 415              	.LBB87:
 416              		.loc 1 61 3 view .LVU135
 417              		.loc 1 61 12 is_stmt 0 view .LVU136
 418 004e 0B68     		ldr	r3, [r1]
 419              		.loc 1 64 11 view .LVU137
 420 0050 524A     		ldr	r2, .L35
 421              		.loc 1 61 12 view .LVU138
 422 0052 43F48073 		orr	r3, r3, #256
 423 0056 0B60     		str	r3, [r1]
 424              		.loc 1 64 3 is_stmt 1 view .LVU139
 425              		.loc 1 64 11 is_stmt 0 view .LVU140
 426 0058 136F     		ldr	r3, [r2, #112]
 427              		.loc 1 64 18 view .LVU141
 428 005a 03F44073 		and	r3, r3, #768
 429              		.loc 1 64 6 view .LVU142
 430 005e B3F5007F 		cmp	r3, #512
 431 0062 04D0     		beq	.L9
 432              		.loc 1 66 5 is_stmt 1 view .LVU143
 433              		.loc 1 66 15 is_stmt 0 view .LVU144
 434 0064 4FF48031 		mov	r1, #65536
 435              		.loc 1 67 15 view .LVU145
 436 0068 0023     		movs	r3, #0
 437              		.loc 1 66 15 view .LVU146
 438 006a 1167     		str	r1, [r2, #112]
 439              		.loc 1 67 5 is_stmt 1 view .LVU147
 440              		.loc 1 67 15 is_stmt 0 view .LVU148
 441 006c 1367     		str	r3, [r2, #112]
 442              	.L9:
 443              	.LBE87:
 444              	.LBE86:
 445              		.loc 1 255 3 is_stmt 1 view .LVU149
 446              		.loc 1 255 11 is_stmt 0 view .LVU150
 447 006e 4B49     		ldr	r1, .L35
 448 0070 0B68     		ldr	r3, [r1]
 449 0072 43F00103 		orr	r3, r3, #1
 450 0076 0B60     		str	r3, [r1]
 451              		.loc 1 256 3 is_stmt 1 view .LVU151
 452              	.L10:
 453              		.loc 1 256 10 discriminator 1 view .LVU152
 454              		.loc 1 256 15 is_stmt 0 discriminator 1 view .LVU153
 455 0078 0B68     		ldr	r3, [r1]
 456              		.loc 1 256 10 discriminator 1 view .LVU154
ARM GAS  C:\Users\DEVELO~1\AppData\Local\Temp\ccvuQ95G.s 			page 9


 457 007a 5C07     		lsls	r4, r3, #29
 458 007c FCD5     		bpl	.L10
 459              		.loc 1 262 3 is_stmt 1 view .LVU155
 460              		.loc 1 262 16 is_stmt 0 view .LVU156
 461 007e 0023     		movs	r3, #0
 462              		.loc 1 263 14 view .LVU157
 463 0080 464A     		ldr	r2, .L35
 464              		.loc 1 262 16 view .LVU158
 465 0082 0B61     		str	r3, [r1, #16]
 466              		.loc 1 263 3 is_stmt 1 view .LVU159
 467              	.L11:
 468              		.loc 1 263 37 discriminator 1 view .LVU160
 469              		.loc 1 263 14 is_stmt 0 discriminator 1 view .LVU161
 470 0084 1369     		ldr	r3, [r2, #16]
 471              		.loc 1 263 37 discriminator 1 view .LVU162
 472 0086 13F03803 		ands	r3, r3, #56
 473 008a FBD1     		bne	.L11
 474              		.loc 1 267 3 is_stmt 1 view .LVU163
 475              		.loc 1 268 16 is_stmt 0 view .LVU164
 476 008c 4FF08040 		mov	r0, #1073741824
 477              		.loc 1 267 16 view .LVU165
 478 0090 0124     		movs	r4, #1
 479              		.loc 1 273 16 view .LVU166
 480 0092 4749     		ldr	r1, .L35+20
 481              		.loc 1 267 16 view .LVU167
 482 0094 1460     		str	r4, [r2]
 483              		.loc 1 268 3 is_stmt 1 view .LVU168
 484              		.loc 1 268 16 is_stmt 0 view .LVU169
 485 0096 5060     		str	r0, [r2, #4]
 486              		.loc 1 272 3 is_stmt 1 view .LVU170
 487              		.loc 1 287 13 is_stmt 0 view .LVU171
 488 0098 4648     		ldr	r0, .L35+24
 489              		.loc 1 272 16 view .LVU172
 490 009a 5367     		str	r3, [r2, #116]
 491              		.loc 1 273 3 is_stmt 1 view .LVU173
 492              		.loc 1 273 16 is_stmt 0 view .LVU174
 493 009c D162     		str	r1, [r2, #44]
 494              		.loc 1 277 3 is_stmt 1 view .LVU175
 495              	.LVL15:
 496              		.loc 1 282 3 view .LVU176
 497              		.loc 1 285 3 view .LVU177
 498              		.loc 1 287 3 view .LVU178
 499              		.loc 1 287 13 is_stmt 0 view .LVU179
 500 009e 1061     		str	r0, [r2, #16]
 501              		.loc 1 294 3 is_stmt 1 view .LVU180
 502              		.loc 1 294 11 is_stmt 0 view .LVU181
 503 00a0 1368     		ldr	r3, [r2]
 504              		.loc 1 296 14 view .LVU182
 505 00a2 3E49     		ldr	r1, .L35
 506              		.loc 1 294 11 view .LVU183
 507 00a4 43F48033 		orr	r3, r3, #65536
 508 00a8 1360     		str	r3, [r2]
 509              		.loc 1 296 3 is_stmt 1 view .LVU184
 510              	.L12:
 511              		.loc 1 296 36 discriminator 1 view .LVU185
 512              		.loc 1 296 14 is_stmt 0 discriminator 1 view .LVU186
 513 00aa 0B68     		ldr	r3, [r1]
ARM GAS  C:\Users\DEVELO~1\AppData\Local\Temp\ccvuQ95G.s 			page 10


 514              		.loc 1 296 36 discriminator 1 view .LVU187
 515 00ac 9803     		lsls	r0, r3, #14
 516 00ae FCD5     		bpl	.L12
 517              		.loc 1 302 3 is_stmt 1 view .LVU188
 518              		.loc 1 302 11 is_stmt 0 view .LVU189
 519 00b0 0A68     		ldr	r2, [r1]
 520              		.loc 1 303 14 view .LVU190
 521 00b2 3A4B     		ldr	r3, .L35
 522              		.loc 1 302 11 view .LVU191
 523 00b4 42F48052 		orr	r2, r2, #4096
 524 00b8 0A60     		str	r2, [r1]
 525              		.loc 1 303 3 is_stmt 1 view .LVU192
 526              	.L13:
 527              		.loc 1 303 38 discriminator 1 view .LVU193
 528              		.loc 1 303 14 is_stmt 0 discriminator 1 view .LVU194
 529 00ba 1A68     		ldr	r2, [r3]
 530              		.loc 1 303 38 discriminator 1 view .LVU195
 531 00bc 9204     		lsls	r2, r2, #18
 532 00be FCD5     		bpl	.L13
 533              	.LBB88:
 534              		.loc 1 328 5 is_stmt 1 view .LVU196
 535              	.LVL16:
 536              		.loc 1 329 5 view .LVU197
 537              		.loc 1 330 5 view .LVU198
 538              		.loc 1 332 5 view .LVU199
 539              		.loc 1 342 20 is_stmt 0 view .LVU200
 540 00c0 0022     		movs	r2, #0
 541              		.loc 1 332 20 view .LVU201
 542 00c2 3D48     		ldr	r0, .L35+28
 543              		.loc 1 343 20 view .LVU202
 544 00c4 3D49     		ldr	r1, .L35+32
 545              		.loc 1 359 20 view .LVU203
 546 00c6 44F6F054 		movw	r4, #19952
 547              		.loc 1 332 20 view .LVU204
 548 00ca 9862     		str	r0, [r3, #40]
 549              		.loc 1 337 5 is_stmt 1 view .LVU205
 550              	.LVL17:
 551              		.loc 1 342 5 view .LVU206
 552              		.loc 1 342 20 is_stmt 0 view .LVU207
 553 00cc 5A63     		str	r2, [r3, #52]
 554              		.loc 1 343 5 is_stmt 1 view .LVU208
 555              		.loc 1 343 20 is_stmt 0 view .LVU209
 556 00ce 1963     		str	r1, [r3, #48]
 557              		.loc 1 345 5 is_stmt 1 view .LVU210
 558              	.LVL18:
 559              		.loc 1 346 5 view .LVU211
 560              		.loc 1 348 5 view .LVU212
 561              		.loc 1 351 5 view .LVU213
 562              		.loc 1 359 5 view .LVU214
 563              		.loc 1 360 20 is_stmt 0 view .LVU215
 564 00d0 A1F5FE21 		sub	r1, r1, #520192
 565              		.loc 1 359 20 view .LVU216
 566 00d4 DC63     		str	r4, [r3, #60]
 567              		.loc 1 360 5 is_stmt 1 view .LVU217
 568              		.loc 1 360 20 is_stmt 0 view .LVU218
 569 00d6 3E39     		subs	r1, r1, #62
 570              		.loc 1 377 20 view .LVU219
ARM GAS  C:\Users\DEVELO~1\AppData\Local\Temp\ccvuQ95G.s 			page 11


 571 00d8 3948     		ldr	r0, .L35+36
 572              		.loc 1 360 20 view .LVU220
 573 00da 9963     		str	r1, [r3, #56]
 574              		.loc 1 362 5 is_stmt 1 view .LVU221
 575              	.LVL19:
 576              		.loc 1 363 5 view .LVU222
 577              		.loc 1 365 5 view .LVU223
 578              		.loc 1 376 5 view .LVU224
 579              		.loc 1 393 18 is_stmt 0 view .LVU225
 580 00dc 3949     		ldr	r1, .L35+40
 581              		.loc 1 376 20 view .LVU226
 582 00de 5A64     		str	r2, [r3, #68]
 583              		.loc 1 377 5 is_stmt 1 view .LVU227
 584              		.loc 1 377 20 is_stmt 0 view .LVU228
 585 00e0 1864     		str	r0, [r3, #64]
 586              		.loc 1 379 5 is_stmt 1 view .LVU229
 587              	.LVL20:
 588              		.loc 1 380 5 view .LVU230
 589              		.loc 1 382 5 view .LVU231
 590              		.loc 1 388 5 view .LVU232
 591              		.loc 1 393 5 view .LVU233
 592              		.loc 1 393 18 is_stmt 0 view .LVU234
 593 00e2 D962     		str	r1, [r3, #44]
 594              		.loc 1 394 5 is_stmt 1 view .LVU235
 595              		.loc 1 394 17 is_stmt 0 view .LVU236
 596 00e4 1968     		ldr	r1, [r3]
 597              		.loc 1 395 16 view .LVU237
 598 00e6 2D4A     		ldr	r2, .L35
 599              		.loc 1 394 17 view .LVU238
 600 00e8 41F0A851 		orr	r1, r1, #352321536
 601 00ec 1960     		str	r1, [r3]
 602              		.loc 1 395 5 is_stmt 1 view .LVU239
 603              	.L14:
 604              		.loc 1 395 32 discriminator 1 view .LVU240
 605              		.loc 1 395 16 is_stmt 0 discriminator 1 view .LVU241
 606 00ee 1368     		ldr	r3, [r2]
 607              		.loc 1 395 21 discriminator 1 view .LVU242
 608 00f0 03F02853 		and	r3, r3, #704643072
 609              		.loc 1 395 32 discriminator 1 view .LVU243
 610 00f4 B3F1285F 		cmp	r3, #704643072
 611 00f8 F9D1     		bne	.L14
 612              	.LBE88:
 613              		.loc 1 406 3 is_stmt 1 view .LVU244
 614              		.loc 1 406 15 is_stmt 0 view .LVU245
 615 00fa 4824     		movs	r4, #72
 616              		.loc 1 407 15 view .LVU246
 617 00fc 4FF48863 		mov	r3, #1088
 618              		.loc 1 408 15 view .LVU247
 619 0100 4020     		movs	r0, #64
 620              		.loc 1 413 17 view .LVU248
 621 0102 0021     		movs	r1, #0
 622              		.loc 1 406 15 view .LVU249
 623 0104 9461     		str	r4, [r2, #24]
 624              		.loc 1 407 3 is_stmt 1 view .LVU250
 625              		.loc 1 415 17 is_stmt 0 view .LVU251
 626 0106 4FF08054 		mov	r4, #268435456
 627              		.loc 1 407 15 view .LVU252
ARM GAS  C:\Users\DEVELO~1\AppData\Local\Temp\ccvuQ95G.s 			page 12


 628 010a D361     		str	r3, [r2, #28]
 629              		.loc 1 408 3 is_stmt 1 view .LVU253
 630              		.loc 1 418 17 is_stmt 0 view .LVU254
 631 010c 4FF4E003 		mov	r3, #7340032
 632              		.loc 1 408 15 view .LVU255
 633 0110 1062     		str	r0, [r2, #32]
 634              		.loc 1 413 3 is_stmt 1 view .LVU256
 635              		.loc 1 421 17 is_stmt 0 view .LVU257
 636 0112 4FF44030 		mov	r0, #196608
 637              		.loc 1 413 17 view .LVU258
 638 0116 D164     		str	r1, [r2, #76]
 639              		.loc 1 415 3 is_stmt 1 view .LVU259
 640              		.loc 1 415 17 is_stmt 0 view .LVU260
 641 0118 1465     		str	r4, [r2, #80]
 642              		.loc 1 418 3 is_stmt 1 view .LVU261
 643              		.loc 1 452 14 is_stmt 0 view .LVU262
 644 011a 2B49     		ldr	r1, .L35+44
 645              		.loc 1 418 17 view .LVU263
 646 011c 5365     		str	r3, [r2, #84]
 647              		.loc 1 421 3 is_stmt 1 view .LVU264
 648              		.loc 1 452 14 is_stmt 0 view .LVU265
 649 011e 3223     		movs	r3, #50
 650              		.loc 1 421 17 view .LVU266
 651 0120 9065     		str	r0, [r2, #88]
 652              		.loc 1 452 3 is_stmt 1 view .LVU267
 653              		.loc 1 452 14 is_stmt 0 view .LVU268
 654 0122 0B60     		str	r3, [r1]
 655              		.loc 1 454 3 is_stmt 1 view .LVU269
 656              	.L15:
 657              		.loc 1 456 3 discriminator 1 view .LVU270
 658              		.loc 1 454 43 discriminator 1 view .LVU271
 659              		.loc 1 454 16 is_stmt 0 discriminator 1 view .LVU272
 660 0124 0B68     		ldr	r3, [r1]
 661              		.loc 1 454 22 discriminator 1 view .LVU273
 662 0126 03F00F03 		and	r3, r3, #15
 663              		.loc 1 454 43 discriminator 1 view .LVU274
 664 012a 022B     		cmp	r3, #2
 665 012c FAD1     		bne	.L15
 666              		.loc 1 461 3 is_stmt 1 view .LVU275
 667              		.loc 1 461 13 is_stmt 0 view .LVU276
 668 012e 1B4A     		ldr	r2, .L35
 669 0130 1369     		ldr	r3, [r2, #16]
 670 0132 43F00303 		orr	r3, r3, #3
 671 0136 1361     		str	r3, [r2, #16]
 672              		.loc 1 462 3 is_stmt 1 view .LVU277
 673              	.L16:
 674              		.loc 1 462 41 discriminator 1 view .LVU278
 675              		.loc 1 462 14 is_stmt 0 discriminator 1 view .LVU279
 676 0138 1369     		ldr	r3, [r2, #16]
 677              		.loc 1 462 21 discriminator 1 view .LVU280
 678 013a 03F03803 		and	r3, r3, #56
 679              		.loc 1 462 41 discriminator 1 view .LVU281
 680 013e 182B     		cmp	r3, #24
 681 0140 FAD1     		bne	.L16
 682              		.loc 1 477 3 is_stmt 1 view .LVU282
 683              	.LVL21:
 684              	.LBB89:
ARM GAS  C:\Users\DEVELO~1\AppData\Local\Temp\ccvuQ95G.s 			page 13


 685              	.LBI89:
 686              		.loc 2 675 22 view .LVU283
 687              	.LBB90:
 688              		.loc 2 679 3 view .LVU284
 689              		.loc 2 679 19 is_stmt 0 view .LVU285
 690 0142 D2F8DC30 		ldr	r3, [r2, #220]
 691              	.LBE90:
 692              	.LBE89:
 693              		.loc 1 483 1 view .LVU286
 694 0146 10BC     		pop	{r4}
 695              		.cfi_restore 4
 696              		.cfi_def_cfa_offset 0
 697              	.LBB92:
 698              	.LBB91:
 699              		.loc 2 679 19 view .LVU287
 700 0148 43F00053 		orr	r3, r3, #536870912
 701 014c C2F8DC30 		str	r3, [r2, #220]
 702              		.loc 2 680 3 is_stmt 1 view .LVU288
 703              		.loc 2 681 5 view .LVU289
 704              		.loc 2 681 23 is_stmt 0 view .LVU290
 705 0150 D2F80431 		ldr	r3, [r2, #260]
 706 0154 43F00053 		orr	r3, r3, #536870912
 707 0158 C2F80431 		str	r3, [r2, #260]
 708              		.loc 2 686 3 is_stmt 1 view .LVU291
 709 015c D2F80431 		ldr	r3, [r2, #260]
 710              	.LVL22:
 711              		.loc 2 686 3 is_stmt 0 view .LVU292
 712              	.LBE91:
 713              	.LBE92:
 714              		.loc 1 478 3 is_stmt 1 view .LVU293
 715              	.LBB93:
 716              	.LBI93:
 717              		.loc 2 675 22 view .LVU294
 718              	.LBB94:
 719              		.loc 2 679 3 view .LVU295
 720              		.loc 2 679 19 is_stmt 0 view .LVU296
 721 0160 D2F8DC30 		ldr	r3, [r2, #220]
 722 0164 43F08043 		orr	r3, r3, #1073741824
 723 0168 C2F8DC30 		str	r3, [r2, #220]
 724              		.loc 2 680 3 is_stmt 1 view .LVU297
 725              		.loc 2 681 5 view .LVU298
 726              		.loc 2 681 23 is_stmt 0 view .LVU299
 727 016c D2F80431 		ldr	r3, [r2, #260]
 728 0170 43F08043 		orr	r3, r3, #1073741824
 729 0174 C2F80431 		str	r3, [r2, #260]
 730              		.loc 2 686 3 is_stmt 1 view .LVU300
 731 0178 D2F80431 		ldr	r3, [r2, #260]
 732              	.LVL23:
 733              		.loc 2 686 3 is_stmt 0 view .LVU301
 734              	.LBE94:
 735              	.LBE93:
 736              		.loc 1 480 3 is_stmt 1 view .LVU302
 737              	.LBB95:
 738              	.LBI95:
 739              		.loc 2 675 22 view .LVU303
 740              	.LBB96:
 741              		.loc 2 679 3 view .LVU304
ARM GAS  C:\Users\DEVELO~1\AppData\Local\Temp\ccvuQ95G.s 			page 14


 742              		.loc 2 679 19 is_stmt 0 view .LVU305
 743 017c D2F8DC30 		ldr	r3, [r2, #220]
 744 0180 43F00043 		orr	r3, r3, #-2147483648
 745 0184 C2F8DC30 		str	r3, [r2, #220]
 746              		.loc 2 680 3 is_stmt 1 view .LVU306
 747              		.loc 2 681 5 view .LVU307
 748              		.loc 2 681 23 is_stmt 0 view .LVU308
 749 0188 D2F80431 		ldr	r3, [r2, #260]
 750 018c 43F00043 		orr	r3, r3, #-2147483648
 751 0190 C2F80431 		str	r3, [r2, #260]
 752              		.loc 2 686 3 is_stmt 1 view .LVU309
 753 0194 D2F80431 		ldr	r3, [r2, #260]
 754              	.LVL24:
 755              		.loc 2 686 3 is_stmt 0 view .LVU310
 756              	.LBE96:
 757              	.LBE95:
 758              		.loc 1 483 1 view .LVU311
 759 0198 7047     		bx	lr
 760              	.L36:
 761 019a 00BF     		.align	2
 762              	.L35:
 763 019c 00440258 		.word	1476543488
 764 01a0 00800051 		.word	1358987264
 765 01a4 00480258 		.word	1476544512
 766 01a8 00C000F0 		.word	-268386304
 767 01ac 02000001 		.word	16777218
 768 01b0 0000FF01 		.word	33488896
 769 01b4 00881008 		.word	135301120
 770 01b8 52509001 		.word	26234962
 771 01bc 9F020901 		.word	17367711
 772 01c0 1F070507 		.word	117770015
 773 01c4 99034B01 		.word	21693337
 774 01c8 00200052 		.word	1375739904
 775              		.cfi_endproc
 776              	.LFE435:
 777              		.size	stm32_clock_init, .-stm32_clock_init
 778              		.global	SystemCoreClock
 779              		.section	.data.SystemCoreClock,"aw"
 780              		.align	2
 781              		.type	SystemCoreClock, %object
 782              		.size	SystemCoreClock, 4
 783              	SystemCoreClock:
 784 0000 0084D717 		.word	400000000
 785              		.text
 786              	.Letext0:
 787              		.file 3 "c:\\chibistudio\\tools\\gnu tools arm embedded\\11.3 2022.08\\arm-none-eabi\\include\\mac
 788              		.file 4 "c:\\chibistudio\\tools\\gnu tools arm embedded\\11.3 2022.08\\arm-none-eabi\\include\\sys
 789              		.file 5 "../../../os/common/ext/ST/STM32H7xx/stm32h743xx.h"
 790              		.file 6 "../../../os/hal/ports/STM32/STM32H7xx/stm32_isr.h"
 791              		.file 7 "../../../os/hal/ports/STM32/LLD/DMAv2/stm32_dma.h"
 792              		.file 8 "../../../os/hal/ports/STM32/LLD/BDMAv1/stm32_bdma.h"
 793              		.file 9 "../../../os/common/ext/ST/STM32H7xx/system_stm32h7xx.h"
 794              		.section	.debug_info,"",%progbits
 795              	.Ldebug_info0:
 796 0000 4B0B0000 		.4byte	0xb4b
 797 0004 0500     		.2byte	0x5
 798 0006 01       		.byte	0x1
ARM GAS  C:\Users\DEVELO~1\AppData\Local\Temp\ccvuQ95G.s 			page 15


 799 0007 04       		.byte	0x4
 800 0008 00000000 		.4byte	.Ldebug_abbrev0
 801 000c 18       		.uleb128 0x18
 802 000d 8B020000 		.4byte	.LASF141
 803 0011 1D       		.byte	0x1d
 804 0012 57000000 		.4byte	.LASF142
 805 0016 3E010000 		.4byte	.LASF143
 806 001a 6F000000 		.4byte	.LLRL28
 807 001e 00000000 		.4byte	0
 808 0022 00000000 		.4byte	.Ldebug_line0
 809 0026 19       		.uleb128 0x19
 810 0027 04       		.byte	0x4
 811 0028 05       		.byte	0x5
 812 0029 696E7400 		.ascii	"int\000"
 813 002d 04       		.uleb128 0x4
 814 002e 04       		.byte	0x4
 815 002f 07       		.byte	0x7
 816 0030 42020000 		.4byte	.LASF0
 817 0034 04       		.uleb128 0x4
 818 0035 08       		.byte	0x8
 819 0036 05       		.byte	0x5
 820 0037 C3000000 		.4byte	.LASF1
 821 003b 04       		.uleb128 0x4
 822 003c 08       		.byte	0x8
 823 003d 04       		.byte	0x4
 824 003e 9A050000 		.4byte	.LASF2
 825 0042 04       		.uleb128 0x4
 826 0043 01       		.byte	0x1
 827 0044 06       		.byte	0x6
 828 0045 1D000000 		.4byte	.LASF3
 829 0049 04       		.uleb128 0x4
 830 004a 01       		.byte	0x1
 831 004b 08       		.byte	0x8
 832 004c 17050000 		.4byte	.LASF4
 833 0050 04       		.uleb128 0x4
 834 0051 02       		.byte	0x2
 835 0052 05       		.byte	0x5
 836 0053 25050000 		.4byte	.LASF5
 837 0057 04       		.uleb128 0x4
 838 0058 02       		.byte	0x2
 839 0059 07       		.byte	0x7
 840 005a 49030000 		.4byte	.LASF6
 841 005e 04       		.uleb128 0x4
 842 005f 04       		.byte	0x4
 843 0060 05       		.byte	0x5
 844 0061 34000000 		.4byte	.LASF7
 845 0065 0F       		.uleb128 0xf
 846 0066 06020000 		.4byte	.LASF10
 847 006a 03       		.byte	0x3
 848 006b 4F       		.byte	0x4f
 849 006c 19       		.byte	0x19
 850 006d 71000000 		.4byte	0x71
 851 0071 04       		.uleb128 0x4
 852 0072 04       		.byte	0x4
 853 0073 07       		.byte	0x7
 854 0074 67020000 		.4byte	.LASF8
 855 0078 04       		.uleb128 0x4
ARM GAS  C:\Users\DEVELO~1\AppData\Local\Temp\ccvuQ95G.s 			page 16


 856 0079 08       		.byte	0x8
 857 007a 07       		.byte	0x7
 858 007b F6000000 		.4byte	.LASF9
 859 007f 0F       		.uleb128 0xf
 860 0080 7C050000 		.4byte	.LASF11
 861 0084 04       		.byte	0x4
 862 0085 30       		.byte	0x30
 863 0086 14       		.byte	0x14
 864 0087 65000000 		.4byte	0x65
 865 008b 1A       		.uleb128 0x1a
 866 008c 7F000000 		.4byte	0x7f
 867 0090 04       		.uleb128 0x4
 868 0091 01       		.byte	0x1
 869 0092 08       		.byte	0x8
 870 0093 A6050000 		.4byte	.LASF12
 871 0097 0A       		.uleb128 0xa
 872 0098 7F000000 		.4byte	0x7f
 873 009c A7000000 		.4byte	0xa7
 874 00a0 0B       		.uleb128 0xb
 875 00a1 2D000000 		.4byte	0x2d
 876 00a5 01       		.byte	0x1
 877 00a6 00       		.byte	0
 878 00a7 1B       		.uleb128 0x1b
 879 00a8 57020000 		.4byte	.LASF121
 880 00ac 09       		.byte	0x9
 881 00ad 39       		.byte	0x39
 882 00ae 11       		.byte	0x11
 883 00af 7F000000 		.4byte	0x7f
 884 00b3 0A       		.uleb128 0xa
 885 00b4 7F000000 		.4byte	0x7f
 886 00b8 C3000000 		.4byte	0xc3
 887 00bc 0B       		.uleb128 0xb
 888 00bd 2D000000 		.4byte	0x2d
 889 00c1 03       		.byte	0x3
 890 00c2 00       		.byte	0
 891 00c3 0A       		.uleb128 0xa
 892 00c4 7F000000 		.4byte	0x7f
 893 00c8 D3000000 		.4byte	0xd3
 894 00cc 0B       		.uleb128 0xb
 895 00cd 2D000000 		.4byte	0x2d
 896 00d1 08       		.byte	0x8
 897 00d2 00       		.byte	0
 898 00d3 10       		.uleb128 0x10
 899 00d4 6401     		.2byte	0x164
 900 00d6 9303     		.2byte	0x393
 901 00d8 1C030000 		.4byte	0x31c
 902 00dc 05       		.uleb128 0x5
 903 00dd 41435200 		.ascii	"ACR\000"
 904 00e1 9503     		.2byte	0x395
 905 00e3 11       		.byte	0x11
 906 00e4 8B000000 		.4byte	0x8b
 907 00e8 00       		.byte	0
 908 00e9 01       		.uleb128 0x1
 909 00ea CE050000 		.4byte	.LASF13
 910 00ee 9603     		.2byte	0x396
 911 00f0 11       		.byte	0x11
 912 00f1 8B000000 		.4byte	0x8b
ARM GAS  C:\Users\DEVELO~1\AppData\Local\Temp\ccvuQ95G.s 			page 17


 913 00f5 04       		.byte	0x4
 914 00f6 01       		.uleb128 0x1
 915 00f7 BF010000 		.4byte	.LASF14
 916 00fb 9703     		.2byte	0x397
 917 00fd 11       		.byte	0x11
 918 00fe 8B000000 		.4byte	0x8b
 919 0102 08       		.byte	0x8
 920 0103 05       		.uleb128 0x5
 921 0104 43523100 		.ascii	"CR1\000"
 922 0108 9803     		.2byte	0x398
 923 010a 11       		.byte	0x11
 924 010b 8B000000 		.4byte	0x8b
 925 010f 0C       		.byte	0xc
 926 0110 05       		.uleb128 0x5
 927 0111 53523100 		.ascii	"SR1\000"
 928 0115 9903     		.2byte	0x399
 929 0117 11       		.byte	0x11
 930 0118 8B000000 		.4byte	0x8b
 931 011c 10       		.byte	0x10
 932 011d 01       		.uleb128 0x1
 933 011e 1A060000 		.4byte	.LASF15
 934 0122 9A03     		.2byte	0x39a
 935 0124 11       		.byte	0x11
 936 0125 8B000000 		.4byte	0x8b
 937 0129 14       		.byte	0x14
 938 012a 01       		.uleb128 0x1
 939 012b 3D000000 		.4byte	.LASF16
 940 012f 9B03     		.2byte	0x39b
 941 0131 11       		.byte	0x11
 942 0132 8B000000 		.4byte	0x8b
 943 0136 18       		.byte	0x18
 944 0137 01       		.uleb128 0x1
 945 0138 41040000 		.4byte	.LASF17
 946 013c 9C03     		.2byte	0x39c
 947 013e 11       		.byte	0x11
 948 013f 8B000000 		.4byte	0x8b
 949 0143 1C       		.byte	0x1c
 950 0144 01       		.uleb128 0x1
 951 0145 AB050000 		.4byte	.LASF18
 952 0149 9D03     		.2byte	0x39d
 953 014b 11       		.byte	0x11
 954 014c 8B000000 		.4byte	0x8b
 955 0150 20       		.byte	0x20
 956 0151 01       		.uleb128 0x1
 957 0152 0D010000 		.4byte	.LASF19
 958 0156 9E03     		.2byte	0x39e
 959 0158 11       		.byte	0x11
 960 0159 8B000000 		.4byte	0x8b
 961 015d 24       		.byte	0x24
 962 015e 01       		.uleb128 0x1
 963 015f 89030000 		.4byte	.LASF20
 964 0163 9F03     		.2byte	0x39f
 965 0165 11       		.byte	0x11
 966 0166 8B000000 		.4byte	0x8b
 967 016a 28       		.byte	0x28
 968 016b 01       		.uleb128 0x1
 969 016c 43000000 		.4byte	.LASF21
ARM GAS  C:\Users\DEVELO~1\AppData\Local\Temp\ccvuQ95G.s 			page 18


 970 0170 A003     		.2byte	0x3a0
 971 0172 11       		.byte	0x11
 972 0173 8B000000 		.4byte	0x8b
 973 0177 2C       		.byte	0x2c
 974 0178 01       		.uleb128 0x1
 975 0179 C7010000 		.4byte	.LASF22
 976 017d A103     		.2byte	0x3a1
 977 017f 11       		.byte	0x11
 978 0180 8B000000 		.4byte	0x8b
 979 0184 30       		.byte	0x30
 980 0185 01       		.uleb128 0x1
 981 0186 D0030000 		.4byte	.LASF23
 982 018a A203     		.2byte	0x3a2
 983 018c 11       		.byte	0x11
 984 018d 8B000000 		.4byte	0x8b
 985 0191 34       		.byte	0x34
 986 0192 01       		.uleb128 0x1
 987 0193 FB050000 		.4byte	.LASF24
 988 0197 A303     		.2byte	0x3a3
 989 0199 11       		.byte	0x11
 990 019a 8B000000 		.4byte	0x8b
 991 019e 38       		.byte	0x38
 992 019f 01       		.uleb128 0x1
 993 01a0 FA030000 		.4byte	.LASF25
 994 01a4 A403     		.2byte	0x3a4
 995 01a6 11       		.byte	0x11
 996 01a7 8B000000 		.4byte	0x8b
 997 01ab 3C       		.byte	0x3c
 998 01ac 01       		.uleb128 0x1
 999 01ad D1000000 		.4byte	.LASF26
 1000 01b1 A503     		.2byte	0x3a5
 1001 01b3 11       		.byte	0x11
 1002 01b4 8B000000 		.4byte	0x8b
 1003 01b8 40       		.byte	0x40
 1004 01b9 01       		.uleb128 0x1
 1005 01ba 40030000 		.4byte	.LASF27
 1006 01be A603     		.2byte	0x3a6
 1007 01c0 11       		.byte	0x11
 1008 01c1 8B000000 		.4byte	0x8b
 1009 01c5 44       		.byte	0x44
 1010 01c6 01       		.uleb128 0x1
 1011 01c7 BB040000 		.4byte	.LASF28
 1012 01cb A703     		.2byte	0x3a7
 1013 01cd 11       		.byte	0x11
 1014 01ce 97000000 		.4byte	0x97
 1015 01d2 48       		.byte	0x48
 1016 01d3 01       		.uleb128 0x1
 1017 01d4 33040000 		.4byte	.LASF29
 1018 01d8 A803     		.2byte	0x3a8
 1019 01da 11       		.byte	0x11
 1020 01db 8B000000 		.4byte	0x8b
 1021 01df 50       		.byte	0x50
 1022 01e0 01       		.uleb128 0x1
 1023 01e1 49060000 		.4byte	.LASF30
 1024 01e5 A903     		.2byte	0x3a9
 1025 01e7 11       		.byte	0x11
 1026 01e8 8B000000 		.4byte	0x8b
ARM GAS  C:\Users\DEVELO~1\AppData\Local\Temp\ccvuQ95G.s 			page 19


 1027 01ec 54       		.byte	0x54
 1028 01ed 01       		.uleb128 0x1
 1029 01ee 0E040000 		.4byte	.LASF31
 1030 01f2 AA03     		.2byte	0x3aa
 1031 01f4 11       		.byte	0x11
 1032 01f5 8B000000 		.4byte	0x8b
 1033 01f9 58       		.byte	0x58
 1034 01fa 01       		.uleb128 0x1
 1035 01fb B7010000 		.4byte	.LASF32
 1036 01ff AB03     		.2byte	0x3ab
 1037 0201 11       		.byte	0x11
 1038 0202 8B000000 		.4byte	0x8b
 1039 0206 5C       		.byte	0x5c
 1040 0207 01       		.uleb128 0x1
 1041 0208 43050000 		.4byte	.LASF33
 1042 020c AC03     		.2byte	0x3ac
 1043 020e 11       		.byte	0x11
 1044 020f 8B000000 		.4byte	0x8b
 1045 0213 60       		.byte	0x60
 1046 0214 01       		.uleb128 0x1
 1047 0215 C5040000 		.4byte	.LASF34
 1048 0219 AD03     		.2byte	0x3ad
 1049 021b 11       		.byte	0x11
 1050 021c 1C030000 		.4byte	0x31c
 1051 0220 64       		.byte	0x64
 1052 0221 02       		.uleb128 0x2
 1053 0222 BE050000 		.4byte	.LASF35
 1054 0226 AE03     		.2byte	0x3ae
 1055 0228 11       		.byte	0x11
 1056 0229 8B000000 		.4byte	0x8b
 1057 022d 0401     		.2byte	0x104
 1058 022f 02       		.uleb128 0x2
 1059 0230 CF040000 		.4byte	.LASF36
 1060 0234 AF03     		.2byte	0x3af
 1061 0236 11       		.byte	0x11
 1062 0237 7F000000 		.4byte	0x7f
 1063 023b 0801     		.2byte	0x108
 1064 023d 11       		.uleb128 0x11
 1065 023e 43523200 		.ascii	"CR2\000"
 1066 0242 B003     		.2byte	0x3b0
 1067 0244 8B000000 		.4byte	0x8b
 1068 0248 0C01     		.2byte	0x10c
 1069 024a 11       		.uleb128 0x11
 1070 024b 53523200 		.ascii	"SR2\000"
 1071 024f B103     		.2byte	0x3b1
 1072 0251 8B000000 		.4byte	0x8b
 1073 0255 1001     		.2byte	0x110
 1074 0257 02       		.uleb128 0x2
 1075 0258 1F060000 		.4byte	.LASF37
 1076 025c B203     		.2byte	0x3b2
 1077 025e 11       		.byte	0x11
 1078 025f 8B000000 		.4byte	0x8b
 1079 0263 1401     		.2byte	0x114
 1080 0265 02       		.uleb128 0x2
 1081 0266 D9040000 		.4byte	.LASF38
 1082 026a B303     		.2byte	0x3b3
 1083 026c 11       		.byte	0x11
ARM GAS  C:\Users\DEVELO~1\AppData\Local\Temp\ccvuQ95G.s 			page 20


 1084 026d B3000000 		.4byte	0xb3
 1085 0271 1801     		.2byte	0x118
 1086 0273 02       		.uleb128 0x2
 1087 0274 93030000 		.4byte	.LASF39
 1088 0278 B403     		.2byte	0x3b4
 1089 027a 11       		.byte	0x11
 1090 027b 8B000000 		.4byte	0x8b
 1091 027f 2801     		.2byte	0x128
 1092 0281 02       		.uleb128 0x2
 1093 0282 4D000000 		.4byte	.LASF40
 1094 0286 B503     		.2byte	0x3b5
 1095 0288 11       		.byte	0x11
 1096 0289 8B000000 		.4byte	0x8b
 1097 028d 2C01     		.2byte	0x12c
 1098 028f 02       		.uleb128 0x2
 1099 0290 D9010000 		.4byte	.LASF41
 1100 0294 B603     		.2byte	0x3b6
 1101 0296 11       		.byte	0x11
 1102 0297 8B000000 		.4byte	0x8b
 1103 029b 3001     		.2byte	0x130
 1104 029d 02       		.uleb128 0x2
 1105 029e DA030000 		.4byte	.LASF42
 1106 02a2 B703     		.2byte	0x3b7
 1107 02a4 11       		.byte	0x11
 1108 02a5 8B000000 		.4byte	0x8b
 1109 02a9 3401     		.2byte	0x134
 1110 02ab 02       		.uleb128 0x2
 1111 02ac 05060000 		.4byte	.LASF43
 1112 02b0 B803     		.2byte	0x3b8
 1113 02b2 11       		.byte	0x11
 1114 02b3 8B000000 		.4byte	0x8b
 1115 02b7 3801     		.2byte	0x138
 1116 02b9 02       		.uleb128 0x2
 1117 02ba 04040000 		.4byte	.LASF44
 1118 02be B903     		.2byte	0x3b9
 1119 02c0 11       		.byte	0x11
 1120 02c1 8B000000 		.4byte	0x8b
 1121 02c5 3C01     		.2byte	0x13c
 1122 02c7 02       		.uleb128 0x2
 1123 02c8 72050000 		.4byte	.LASF45
 1124 02cc BA03     		.2byte	0x3ba
 1125 02ce 11       		.byte	0x11
 1126 02cf B3000000 		.4byte	0xb3
 1127 02d3 4001     		.2byte	0x140
 1128 02d5 02       		.uleb128 0x2
 1129 02d6 3A040000 		.4byte	.LASF46
 1130 02da BB03     		.2byte	0x3bb
 1131 02dc 11       		.byte	0x11
 1132 02dd 8B000000 		.4byte	0x8b
 1133 02e1 5001     		.2byte	0x150
 1134 02e3 02       		.uleb128 0x2
 1135 02e4 52060000 		.4byte	.LASF47
 1136 02e8 BC03     		.2byte	0x3bc
 1137 02ea 11       		.byte	0x11
 1138 02eb 8B000000 		.4byte	0x8b
 1139 02ef 5401     		.2byte	0x154
 1140 02f1 02       		.uleb128 0x2
ARM GAS  C:\Users\DEVELO~1\AppData\Local\Temp\ccvuQ95G.s 			page 21


 1141 02f2 17040000 		.4byte	.LASF48
 1142 02f6 BD03     		.2byte	0x3bd
 1143 02f8 11       		.byte	0x11
 1144 02f9 8B000000 		.4byte	0x8b
 1145 02fd 5801     		.2byte	0x158
 1146 02ff 02       		.uleb128 0x2
 1147 0300 35010000 		.4byte	.LASF49
 1148 0304 BE03     		.2byte	0x3be
 1149 0306 11       		.byte	0x11
 1150 0307 8B000000 		.4byte	0x8b
 1151 030b 5C01     		.2byte	0x15c
 1152 030d 02       		.uleb128 0x2
 1153 030e 4B050000 		.4byte	.LASF50
 1154 0312 BF03     		.2byte	0x3bf
 1155 0314 11       		.byte	0x11
 1156 0315 8B000000 		.4byte	0x8b
 1157 0319 6001     		.2byte	0x160
 1158 031b 00       		.byte	0
 1159 031c 0A       		.uleb128 0xa
 1160 031d 7F000000 		.4byte	0x7f
 1161 0321 2C030000 		.4byte	0x32c
 1162 0325 0B       		.uleb128 0xb
 1163 0326 2D000000 		.4byte	0x2d
 1164 032a 27       		.byte	0x27
 1165 032b 00       		.byte	0
 1166 032c 0C       		.uleb128 0xc
 1167 032d E8000000 		.4byte	.LASF51
 1168 0331 C003     		.2byte	0x3c0
 1169 0333 D3000000 		.4byte	0xd3
 1170 0337 1C       		.uleb128 0x1c
 1171 0338 2C       		.byte	0x2c
 1172 0339 05       		.byte	0x5
 1173 033a BB04     		.2byte	0x4bb
 1174 033c 09       		.byte	0x9
 1175 033d D1030000 		.4byte	0x3d1
 1176 0341 05       		.uleb128 0x5
 1177 0342 43523100 		.ascii	"CR1\000"
 1178 0346 BD04     		.2byte	0x4bd
 1179 0348 11       		.byte	0x11
 1180 0349 8B000000 		.4byte	0x8b
 1181 034d 00       		.byte	0
 1182 034e 01       		.uleb128 0x1
 1183 034f 76060000 		.4byte	.LASF52
 1184 0353 BE04     		.2byte	0x4be
 1185 0355 11       		.byte	0x11
 1186 0356 8B000000 		.4byte	0x8b
 1187 035a 04       		.byte	0x4
 1188 035b 05       		.uleb128 0x5
 1189 035c 43523200 		.ascii	"CR2\000"
 1190 0360 BF04     		.2byte	0x4bf
 1191 0362 11       		.byte	0x11
 1192 0363 8B000000 		.4byte	0x8b
 1193 0367 08       		.byte	0x8
 1194 0368 05       		.uleb128 0x5
 1195 0369 43523300 		.ascii	"CR3\000"
 1196 036d C004     		.2byte	0x4c0
 1197 036f 11       		.byte	0x11
ARM GAS  C:\Users\DEVELO~1\AppData\Local\Temp\ccvuQ95G.s 			page 22


 1198 0370 8B000000 		.4byte	0x8b
 1199 0374 0C       		.byte	0xc
 1200 0375 01       		.uleb128 0x1
 1201 0376 79020000 		.4byte	.LASF53
 1202 037a C104     		.2byte	0x4c1
 1203 037c 11       		.byte	0x11
 1204 037d 8B000000 		.4byte	0x8b
 1205 0381 10       		.byte	0x10
 1206 0382 01       		.uleb128 0x1
 1207 0383 BB040000 		.4byte	.LASF28
 1208 0387 C204     		.2byte	0x4c2
 1209 0389 11       		.byte	0x11
 1210 038a 7F000000 		.4byte	0x7f
 1211 038e 14       		.byte	0x14
 1212 038f 01       		.uleb128 0x1
 1213 0390 85050000 		.4byte	.LASF54
 1214 0394 C304     		.2byte	0x4c3
 1215 0396 11       		.byte	0x11
 1216 0397 8B000000 		.4byte	0x8b
 1217 039b 18       		.byte	0x18
 1218 039c 01       		.uleb128 0x1
 1219 039d C5040000 		.4byte	.LASF34
 1220 03a1 C404     		.2byte	0x4c4
 1221 03a3 11       		.byte	0x11
 1222 03a4 7F000000 		.4byte	0x7f
 1223 03a8 1C       		.byte	0x1c
 1224 03a9 01       		.uleb128 0x1
 1225 03aa DA000000 		.4byte	.LASF55
 1226 03ae C504     		.2byte	0x4c5
 1227 03b0 11       		.byte	0x11
 1228 03b1 8B000000 		.4byte	0x8b
 1229 03b5 20       		.byte	0x20
 1230 03b6 01       		.uleb128 0x1
 1231 03b7 16000000 		.4byte	.LASF56
 1232 03bb C604     		.2byte	0x4c6
 1233 03bd 11       		.byte	0x11
 1234 03be 8B000000 		.4byte	0x8b
 1235 03c2 24       		.byte	0x24
 1236 03c3 01       		.uleb128 0x1
 1237 03c4 4F020000 		.4byte	.LASF57
 1238 03c8 C704     		.2byte	0x4c7
 1239 03ca 11       		.byte	0x11
 1240 03cb 8B000000 		.4byte	0x8b
 1241 03cf 28       		.byte	0x28
 1242 03d0 00       		.byte	0
 1243 03d1 0C       		.uleb128 0xc
 1244 03d2 C4030000 		.4byte	.LASF58
 1245 03d6 C804     		.2byte	0x4c8
 1246 03d8 37030000 		.4byte	0x337
 1247 03dc 10       		.uleb128 0x10
 1248 03dd 3001     		.2byte	0x130
 1249 03df CE04     		.2byte	0x4ce
 1250 03e1 3B070000 		.4byte	0x73b
 1251 03e5 05       		.uleb128 0x5
 1252 03e6 435200   		.ascii	"CR\000"
 1253 03e9 D004     		.2byte	0x4d0
 1254 03eb 10       		.byte	0x10
ARM GAS  C:\Users\DEVELO~1\AppData\Local\Temp\ccvuQ95G.s 			page 23


 1255 03ec 8B000000 		.4byte	0x8b
 1256 03f0 00       		.byte	0
 1257 03f1 01       		.uleb128 0x1
 1258 03f2 66030000 		.4byte	.LASF59
 1259 03f6 D104     		.2byte	0x4d1
 1260 03f8 10       		.byte	0x10
 1261 03f9 8B000000 		.4byte	0x8b
 1262 03fd 04       		.byte	0x4
 1263 03fe 01       		.uleb128 0x1
 1264 03ff F2010000 		.4byte	.LASF60
 1265 0403 D204     		.2byte	0x4d2
 1266 0405 10       		.byte	0x10
 1267 0406 8B000000 		.4byte	0x8b
 1268 040a 08       		.byte	0x8
 1269 040b 01       		.uleb128 0x1
 1270 040c EA050000 		.4byte	.LASF61
 1271 0410 D304     		.2byte	0x4d3
 1272 0412 10       		.byte	0x10
 1273 0413 8B000000 		.4byte	0x8b
 1274 0417 0C       		.byte	0xc
 1275 0418 01       		.uleb128 0x1
 1276 0419 68060000 		.4byte	.LASF62
 1277 041d D404     		.2byte	0x4d4
 1278 041f 10       		.byte	0x10
 1279 0420 8B000000 		.4byte	0x8b
 1280 0424 10       		.byte	0x10
 1281 0425 01       		.uleb128 0x1
 1282 0426 C5040000 		.4byte	.LASF34
 1283 042a D504     		.2byte	0x4d5
 1284 042c 0F       		.byte	0xf
 1285 042d 7F000000 		.4byte	0x7f
 1286 0431 14       		.byte	0x14
 1287 0432 01       		.uleb128 0x1
 1288 0433 92060000 		.4byte	.LASF63
 1289 0437 D604     		.2byte	0x4d6
 1290 0439 10       		.byte	0x10
 1291 043a 8B000000 		.4byte	0x8b
 1292 043e 18       		.byte	0x18
 1293 043f 01       		.uleb128 0x1
 1294 0440 E3040000 		.4byte	.LASF64
 1295 0444 D704     		.2byte	0x4d7
 1296 0446 10       		.byte	0x10
 1297 0447 8B000000 		.4byte	0x8b
 1298 044b 1C       		.byte	0x1c
 1299 044c 01       		.uleb128 0x1
 1300 044d E3010000 		.4byte	.LASF65
 1301 0451 D804     		.2byte	0x4d8
 1302 0453 10       		.byte	0x10
 1303 0454 8B000000 		.4byte	0x8b
 1304 0458 20       		.byte	0x20
 1305 0459 01       		.uleb128 0x1
 1306 045a CF040000 		.4byte	.LASF36
 1307 045e D904     		.2byte	0x4d9
 1308 0460 0F       		.byte	0xf
 1309 0461 7F000000 		.4byte	0x7f
 1310 0465 24       		.byte	0x24
 1311 0466 01       		.uleb128 0x1
ARM GAS  C:\Users\DEVELO~1\AppData\Local\Temp\ccvuQ95G.s 			page 24


 1312 0467 5C030000 		.4byte	.LASF66
 1313 046b DA04     		.2byte	0x4da
 1314 046d 10       		.byte	0x10
 1315 046e 8B000000 		.4byte	0x8b
 1316 0472 28       		.byte	0x28
 1317 0473 01       		.uleb128 0x1
 1318 0474 EA010000 		.4byte	.LASF67
 1319 0478 DB04     		.2byte	0x4db
 1320 047a 10       		.byte	0x10
 1321 047b 8B000000 		.4byte	0x8b
 1322 047f 2C       		.byte	0x2c
 1323 0480 01       		.uleb128 0x1
 1324 0481 0D000000 		.4byte	.LASF68
 1325 0485 DC04     		.2byte	0x4dc
 1326 0487 10       		.byte	0x10
 1327 0488 8B000000 		.4byte	0x8b
 1328 048c 30       		.byte	0x30
 1329 048d 01       		.uleb128 0x1
 1330 048e 94010000 		.4byte	.LASF69
 1331 0492 DD04     		.2byte	0x4dd
 1332 0494 10       		.byte	0x10
 1333 0495 8B000000 		.4byte	0x8b
 1334 0499 34       		.byte	0x34
 1335 049a 01       		.uleb128 0x1
 1336 049b 0E050000 		.4byte	.LASF70
 1337 049f DE04     		.2byte	0x4de
 1338 04a1 10       		.byte	0x10
 1339 04a2 8B000000 		.4byte	0x8b
 1340 04a6 38       		.byte	0x38
 1341 04a7 01       		.uleb128 0x1
 1342 04a8 38020000 		.4byte	.LASF71
 1343 04ac DF04     		.2byte	0x4df
 1344 04ae 10       		.byte	0x10
 1345 04af 8B000000 		.4byte	0x8b
 1346 04b3 3C       		.byte	0x3c
 1347 04b4 01       		.uleb128 0x1
 1348 04b5 FD010000 		.4byte	.LASF72
 1349 04b9 E004     		.2byte	0x4e0
 1350 04bb 10       		.byte	0x10
 1351 04bc 8B000000 		.4byte	0x8b
 1352 04c0 40       		.byte	0x40
 1353 04c1 01       		.uleb128 0x1
 1354 04c2 B1030000 		.4byte	.LASF73
 1355 04c6 E104     		.2byte	0x4e1
 1356 04c8 10       		.byte	0x10
 1357 04c9 8B000000 		.4byte	0x8b
 1358 04cd 44       		.byte	0x44
 1359 04ce 01       		.uleb128 0x1
 1360 04cf D9040000 		.4byte	.LASF38
 1361 04d3 E204     		.2byte	0x4e2
 1362 04d5 10       		.byte	0x10
 1363 04d6 7F000000 		.4byte	0x7f
 1364 04da 48       		.byte	0x48
 1365 04db 01       		.uleb128 0x1
 1366 04dc 8A050000 		.4byte	.LASF74
 1367 04e0 E304     		.2byte	0x4e3
 1368 04e2 11       		.byte	0x11
ARM GAS  C:\Users\DEVELO~1\AppData\Local\Temp\ccvuQ95G.s 			page 25


 1369 04e3 8B000000 		.4byte	0x8b
 1370 04e7 4C       		.byte	0x4c
 1371 04e8 01       		.uleb128 0x1
 1372 04e9 16020000 		.4byte	.LASF75
 1373 04ed E404     		.2byte	0x4e4
 1374 04ef 11       		.byte	0x11
 1375 04f0 8B000000 		.4byte	0x8b
 1376 04f4 50       		.byte	0x50
 1377 04f5 01       		.uleb128 0x1
 1378 04f6 80030000 		.4byte	.LASF76
 1379 04fa E504     		.2byte	0x4e5
 1380 04fc 11       		.byte	0x11
 1381 04fd 8B000000 		.4byte	0x8b
 1382 0501 54       		.byte	0x54
 1383 0502 01       		.uleb128 0x1
 1384 0503 1F020000 		.4byte	.LASF77
 1385 0507 E604     		.2byte	0x4e6
 1386 0509 11       		.byte	0x11
 1387 050a 8B000000 		.4byte	0x8b
 1388 050e 58       		.byte	0x58
 1389 050f 01       		.uleb128 0x1
 1390 0510 72050000 		.4byte	.LASF45
 1391 0514 E704     		.2byte	0x4e7
 1392 0516 10       		.byte	0x10
 1393 0517 7F000000 		.4byte	0x7f
 1394 051b 5C       		.byte	0x5c
 1395 051c 01       		.uleb128 0x1
 1396 051d B5000000 		.4byte	.LASF78
 1397 0521 E804     		.2byte	0x4e8
 1398 0523 11       		.byte	0x11
 1399 0524 8B000000 		.4byte	0x8b
 1400 0528 60       		.byte	0x60
 1401 0529 01       		.uleb128 0x1
 1402 052a F8010000 		.4byte	.LASF79
 1403 052e E904     		.2byte	0x4e9
 1404 0530 11       		.byte	0x11
 1405 0531 8B000000 		.4byte	0x8b
 1406 0535 64       		.byte	0x64
 1407 0536 01       		.uleb128 0x1
 1408 0537 24060000 		.4byte	.LASF80
 1409 053b EA04     		.2byte	0x4ea
 1410 053d 11       		.byte	0x11
 1411 053e 8B000000 		.4byte	0x8b
 1412 0542 68       		.byte	0x68
 1413 0543 01       		.uleb128 0x1
 1414 0544 EA040000 		.4byte	.LASF81
 1415 0548 EB04     		.2byte	0x4eb
 1416 054a 0F       		.byte	0xf
 1417 054b 7F000000 		.4byte	0x7f
 1418 054f 6C       		.byte	0x6c
 1419 0550 01       		.uleb128 0x1
 1420 0551 D4050000 		.4byte	.LASF82
 1421 0555 EC04     		.2byte	0x4ec
 1422 0557 11       		.byte	0x11
 1423 0558 8B000000 		.4byte	0x8b
 1424 055c 70       		.byte	0x70
 1425 055d 05       		.uleb128 0x5
ARM GAS  C:\Users\DEVELO~1\AppData\Local\Temp\ccvuQ95G.s 			page 26


 1426 055e 43535200 		.ascii	"CSR\000"
 1427 0562 ED04     		.2byte	0x4ed
 1428 0564 11       		.byte	0x11
 1429 0565 8B000000 		.4byte	0x8b
 1430 0569 74       		.byte	0x74
 1431 056a 01       		.uleb128 0x1
 1432 056b F4040000 		.4byte	.LASF83
 1433 056f EE04     		.2byte	0x4ee
 1434 0571 0F       		.byte	0xf
 1435 0572 7F000000 		.4byte	0x7f
 1436 0576 78       		.byte	0x78
 1437 0577 01       		.uleb128 0x1
 1438 0578 6E030000 		.4byte	.LASF84
 1439 057c EF04     		.2byte	0x4ef
 1440 057e 10       		.byte	0x10
 1441 057f 8B000000 		.4byte	0x8b
 1442 0583 7C       		.byte	0x7c
 1443 0584 01       		.uleb128 0x1
 1444 0585 F2050000 		.4byte	.LASF85
 1445 0589 F004     		.2byte	0x4f0
 1446 058b 10       		.byte	0x10
 1447 058c 8B000000 		.4byte	0x8b
 1448 0590 80       		.byte	0x80
 1449 0591 01       		.uleb128 0x1
 1450 0592 B5050000 		.4byte	.LASF86
 1451 0596 F104     		.2byte	0x4f1
 1452 0598 10       		.byte	0x10
 1453 0599 8B000000 		.4byte	0x8b
 1454 059d 84       		.byte	0x84
 1455 059e 01       		.uleb128 0x1
 1456 059f BA000000 		.4byte	.LASF87
 1457 05a3 F204     		.2byte	0x4f2
 1458 05a5 10       		.byte	0x10
 1459 05a6 8B000000 		.4byte	0x8b
 1460 05aa 88       		.byte	0x88
 1461 05ab 01       		.uleb128 0x1
 1462 05ac E1050000 		.4byte	.LASF88
 1463 05b0 F304     		.2byte	0x4f3
 1464 05b2 10       		.byte	0x10
 1465 05b3 8B000000 		.4byte	0x8b
 1466 05b7 8C       		.byte	0x8c
 1467 05b8 01       		.uleb128 0x1
 1468 05b9 9D030000 		.4byte	.LASF89
 1469 05bd F404     		.2byte	0x4f4
 1470 05bf 10       		.byte	0x10
 1471 05c0 8B000000 		.4byte	0x8b
 1472 05c4 90       		.byte	0x90
 1473 05c5 01       		.uleb128 0x1
 1474 05c6 29040000 		.4byte	.LASF90
 1475 05ca F504     		.2byte	0x4f5
 1476 05cc 10       		.byte	0x10
 1477 05cd 8B000000 		.4byte	0x8b
 1478 05d1 94       		.byte	0x94
 1479 05d2 01       		.uleb128 0x1
 1480 05d3 9E010000 		.4byte	.LASF91
 1481 05d7 F604     		.2byte	0x4f6
 1482 05d9 10       		.byte	0x10
ARM GAS  C:\Users\DEVELO~1\AppData\Local\Temp\ccvuQ95G.s 			page 27


 1483 05da 8B000000 		.4byte	0x8b
 1484 05de 98       		.byte	0x98
 1485 05df 01       		.uleb128 0x1
 1486 05e0 BB030000 		.4byte	.LASF92
 1487 05e4 F704     		.2byte	0x4f7
 1488 05e6 10       		.byte	0x10
 1489 05e7 8B000000 		.4byte	0x8b
 1490 05eb 9C       		.byte	0x9c
 1491 05ec 05       		.uleb128 0x5
 1492 05ed 47435200 		.ascii	"GCR\000"
 1493 05f1 F804     		.2byte	0x4f8
 1494 05f3 10       		.byte	0x10
 1495 05f4 8B000000 		.4byte	0x8b
 1496 05f8 A0       		.byte	0xa0
 1497 05f9 01       		.uleb128 0x1
 1498 05fa FE040000 		.4byte	.LASF93
 1499 05fe F904     		.2byte	0x4f9
 1500 0600 0F       		.byte	0xf
 1501 0601 7F000000 		.4byte	0x7f
 1502 0605 A4       		.byte	0xa4
 1503 0606 01       		.uleb128 0x1
 1504 0607 96000000 		.4byte	.LASF94
 1505 060b FA04     		.2byte	0x4fa
 1506 060d 10       		.byte	0x10
 1507 060e 8B000000 		.4byte	0x8b
 1508 0612 A8       		.byte	0xa8
 1509 0613 01       		.uleb128 0x1
 1510 0614 14010000 		.4byte	.LASF95
 1511 0618 FB04     		.2byte	0x4fb
 1512 061a 0F       		.byte	0xf
 1513 061b C3000000 		.4byte	0xc3
 1514 061f AC       		.byte	0xac
 1515 0620 05       		.uleb128 0x5
 1516 0621 52535200 		.ascii	"RSR\000"
 1517 0625 FC04     		.2byte	0x4fc
 1518 0627 10       		.byte	0x10
 1519 0628 8B000000 		.4byte	0x8b
 1520 062c D0       		.byte	0xd0
 1521 062d 01       		.uleb128 0x1
 1522 062e 5B050000 		.4byte	.LASF96
 1523 0632 FD04     		.2byte	0x4fd
 1524 0634 10       		.byte	0x10
 1525 0635 8B000000 		.4byte	0x8b
 1526 0639 D4       		.byte	0xd4
 1527 063a 01       		.uleb128 0x1
 1528 063b 60060000 		.4byte	.LASF97
 1529 063f FE04     		.2byte	0x4fe
 1530 0641 10       		.byte	0x10
 1531 0642 8B000000 		.4byte	0x8b
 1532 0646 D8       		.byte	0xd8
 1533 0647 01       		.uleb128 0x1
 1534 0648 D9050000 		.4byte	.LASF98
 1535 064c FF04     		.2byte	0x4ff
 1536 064e 10       		.byte	0x10
 1537 064f 8B000000 		.4byte	0x8b
 1538 0653 DC       		.byte	0xdc
 1539 0654 01       		.uleb128 0x1
ARM GAS  C:\Users\DEVELO~1\AppData\Local\Temp\ccvuQ95G.s 			page 28


 1540 0655 B3040000 		.4byte	.LASF99
 1541 0659 0005     		.2byte	0x500
 1542 065b 10       		.byte	0x10
 1543 065c 8B000000 		.4byte	0x8b
 1544 0660 E0       		.byte	0xe0
 1545 0661 01       		.uleb128 0x1
 1546 0662 A3040000 		.4byte	.LASF100
 1547 0666 0105     		.2byte	0x501
 1548 0668 10       		.byte	0x10
 1549 0669 8B000000 		.4byte	0x8b
 1550 066d E4       		.byte	0xe4
 1551 066e 01       		.uleb128 0x1
 1552 066f 6D060000 		.4byte	.LASF101
 1553 0673 0205     		.2byte	0x502
 1554 0675 10       		.byte	0x10
 1555 0676 8B000000 		.4byte	0x8b
 1556 067a E8       		.byte	0xe8
 1557 067b 01       		.uleb128 0x1
 1558 067c 77030000 		.4byte	.LASF102
 1559 0680 0305     		.2byte	0x503
 1560 0682 10       		.byte	0x10
 1561 0683 8B000000 		.4byte	0x8b
 1562 0687 EC       		.byte	0xec
 1563 0688 01       		.uleb128 0x1
 1564 0689 53050000 		.4byte	.LASF103
 1565 068d 0405     		.2byte	0x504
 1566 068f 10       		.byte	0x10
 1567 0690 8B000000 		.4byte	0x8b
 1568 0694 F0       		.byte	0xf0
 1569 0695 01       		.uleb128 0x1
 1570 0696 E4030000 		.4byte	.LASF104
 1571 069a 0505     		.2byte	0x505
 1572 069c 10       		.byte	0x10
 1573 069d 8B000000 		.4byte	0x8b
 1574 06a1 F4       		.byte	0xf4
 1575 06a2 01       		.uleb128 0x1
 1576 06a3 1F010000 		.4byte	.LASF105
 1577 06a7 0605     		.2byte	0x506
 1578 06a9 10       		.byte	0x10
 1579 06aa 7F000000 		.4byte	0x7f
 1580 06ae F8       		.byte	0xf8
 1581 06af 01       		.uleb128 0x1
 1582 06b0 2F050000 		.4byte	.LASF106
 1583 06b4 0705     		.2byte	0x507
 1584 06b6 10       		.byte	0x10
 1585 06b7 8B000000 		.4byte	0x8b
 1586 06bb FC       		.byte	0xfc
 1587 06bc 02       		.uleb128 0x2
 1588 06bd AB000000 		.4byte	.LASF107
 1589 06c1 0805     		.2byte	0x508
 1590 06c3 10       		.byte	0x10
 1591 06c4 8B000000 		.4byte	0x8b
 1592 06c8 0001     		.2byte	0x100
 1593 06ca 02       		.uleb128 0x2
 1594 06cb 87040000 		.4byte	.LASF108
 1595 06cf 0905     		.2byte	0x509
 1596 06d1 10       		.byte	0x10
ARM GAS  C:\Users\DEVELO~1\AppData\Local\Temp\ccvuQ95G.s 			page 29


 1597 06d2 8B000000 		.4byte	0x8b
 1598 06d6 0401     		.2byte	0x104
 1599 06d8 02       		.uleb128 0x2
 1600 06d9 C4050000 		.4byte	.LASF109
 1601 06dd 0A05     		.2byte	0x50a
 1602 06df 10       		.byte	0x10
 1603 06e0 8B000000 		.4byte	0x8b
 1604 06e4 0801     		.2byte	0x108
 1605 06e6 02       		.uleb128 0x2
 1606 06e7 91040000 		.4byte	.LASF110
 1607 06eb 0B05     		.2byte	0x50b
 1608 06ed 10       		.byte	0x10
 1609 06ee 8B000000 		.4byte	0x8b
 1610 06f2 0C01     		.2byte	0x10c
 1611 06f4 02       		.uleb128 0x2
 1612 06f5 0F060000 		.4byte	.LASF111
 1613 06f9 0C05     		.2byte	0x50c
 1614 06fb 10       		.byte	0x10
 1615 06fc 8B000000 		.4byte	0x8b
 1616 0700 1001     		.2byte	0x110
 1617 0702 02       		.uleb128 0x2
 1618 0703 29000000 		.4byte	.LASF112
 1619 0707 0D05     		.2byte	0x50d
 1620 0709 10       		.byte	0x10
 1621 070a 8B000000 		.4byte	0x8b
 1622 070e 1401     		.2byte	0x114
 1623 0710 02       		.uleb128 0x2
 1624 0711 A7030000 		.4byte	.LASF113
 1625 0715 0E05     		.2byte	0x50e
 1626 0717 10       		.byte	0x10
 1627 0718 8B000000 		.4byte	0x8b
 1628 071c 1801     		.2byte	0x118
 1629 071e 02       		.uleb128 0x2
 1630 071f 39050000 		.4byte	.LASF114
 1631 0723 0F05     		.2byte	0x50f
 1632 0725 10       		.byte	0x10
 1633 0726 8B000000 		.4byte	0x8b
 1634 072a 1C01     		.2byte	0x11c
 1635 072c 02       		.uleb128 0x2
 1636 072d 2A010000 		.4byte	.LASF115
 1637 0731 1005     		.2byte	0x510
 1638 0733 0F       		.byte	0xf
 1639 0734 B3000000 		.4byte	0xb3
 1640 0738 2001     		.2byte	0x120
 1641 073a 00       		.byte	0
 1642 073b 0C       		.uleb128 0xc
 1643 073c 7F020000 		.4byte	.LASF116
 1644 0740 1205     		.2byte	0x512
 1645 0742 DC030000 		.4byte	0x3dc
 1646 0746 04       		.uleb128 0x4
 1647 0747 01       		.byte	0x1
 1648 0748 02       		.byte	0x2
 1649 0749 08050000 		.4byte	.LASF117
 1650 074d 1D       		.uleb128 0x1d
 1651 074e A7000000 		.4byte	0xa7
 1652 0752 01       		.byte	0x1
 1653 0753 2B       		.byte	0x2b
ARM GAS  C:\Users\DEVELO~1\AppData\Local\Temp\ccvuQ95G.s 			page 30


 1654 0754 0A       		.byte	0xa
 1655 0755 05       		.uleb128 0x5
 1656 0756 03       		.byte	0x3
 1657 0757 00000000 		.4byte	SystemCoreClock
 1658 075b 0D       		.uleb128 0xd
 1659 075c AB040000 		.4byte	.LASF118
 1660 0760 06       		.byte	0x6
 1661 0761 8F01     		.2byte	0x18f
 1662 0763 0D       		.uleb128 0xd
 1663 0764 92050000 		.4byte	.LASF119
 1664 0768 07       		.byte	0x7
 1665 0769 9B02     		.2byte	0x29b
 1666 076b 0D       		.uleb128 0xd
 1667 076c 89060000 		.4byte	.LASF120
 1668 0770 08       		.byte	0x8
 1669 0771 CC01     		.2byte	0x1cc
 1670 0773 12       		.uleb128 0x12
 1671 0774 27020000 		.4byte	.LASF126
 1672 0778 E3       		.byte	0xe3
 1673 0779 00000000 		.4byte	.LFB435
 1674 077d CC010000 		.4byte	.LFE435-.LFB435
 1675 0781 01       		.uleb128 0x1
 1676 0782 9C       		.byte	0x9c
 1677 0783 CE080000 		.4byte	0x8ce
 1678 0787 1E       		.uleb128 0x1e
 1679 0788 5B060000 		.4byte	.LASF122
 1680 078c 01       		.byte	0x1
 1681 078d E5       		.byte	0xe5
 1682 078e 0C       		.byte	0xc
 1683 078f 7F000000 		.4byte	0x7f
 1684 0793 10000000 		.4byte	.LLST13
 1685 0797 0C000000 		.4byte	.LVUS13
 1686 079b 1F       		.uleb128 0x1f
 1687 079c C0000000 		.4byte	.LBB88
 1688 07a0 3A000000 		.4byte	.LBE88-.LBB88
 1689 07a4 E2070000 		.4byte	0x7e2
 1690 07a8 0E       		.uleb128 0xe
 1691 07a9 E1000000 		.4byte	.LASF123
 1692 07ad 4801     		.2byte	0x148
 1693 07af 7F000000 		.4byte	0x7f
 1694 07b3 33000000 		.4byte	.LLST18
 1695 07b7 2B000000 		.4byte	.LVUS18
 1696 07bb 0E       		.uleb128 0xe
 1697 07bc 9B040000 		.4byte	.LASF124
 1698 07c0 4901     		.2byte	0x149
 1699 07c2 7F000000 		.4byte	0x7f
 1700 07c6 60000000 		.4byte	.LLST19
 1701 07ca 58000000 		.4byte	.LVUS19
 1702 07ce 0E       		.uleb128 0xe
 1703 07cf D1010000 		.4byte	.LASF125
 1704 07d3 4A01     		.2byte	0x14a
 1705 07d5 7F000000 		.4byte	0x7f
 1706 07d9 93000000 		.4byte	.LLST20
 1707 07dd 85000000 		.4byte	.LVUS20
 1708 07e1 00       		.byte	0
 1709 07e2 08       		.uleb128 0x8
 1710 07e3 680A0000 		.4byte	0xa68
ARM GAS  C:\Users\DEVELO~1\AppData\Local\Temp\ccvuQ95G.s 			page 31


 1711 07e7 10000000 		.4byte	.LBI76
 1712 07eb 01       		.byte	.LVU97
 1713 07ec 48000000 		.4byte	.LLRL14
 1714 07f0 F5       		.byte	0xf5
 1715 07f1 10080000 		.4byte	0x810
 1716 07f5 03       		.uleb128 0x3
 1717 07f6 7E0A0000 		.4byte	0xa7e
 1718 07fa DC000000 		.4byte	.LLST15
 1719 07fe DA000000 		.4byte	.LVUS15
 1720 0802 03       		.uleb128 0x3
 1721 0803 730A0000 		.4byte	0xa73
 1722 0807 E8000000 		.4byte	.LLST16
 1723 080b E6000000 		.4byte	.LVUS16
 1724 080f 00       		.byte	0
 1725 0810 20       		.uleb128 0x20
 1726 0811 3B0A0000 		.4byte	0xa3b
 1727 0815 28000000 		.4byte	.LBI79
 1728 0819 02       		.byte	.LVU106
 1729 081a 54000000 		.4byte	.LLRL17
 1730 081e 01       		.byte	0x1
 1731 081f F8       		.byte	0xf8
 1732 0820 03       		.byte	0x3
 1733 0821 21       		.uleb128 0x21
 1734 0822 410A0000 		.4byte	0xa41
 1735 0826 4E000000 		.4byte	.LBI86
 1736 082a 01       		.byte	.LVU134
 1737 082b 4E000000 		.4byte	.LBB86
 1738 082f 20000000 		.4byte	.LBE86-.LBB86
 1739 0833 01       		.byte	0x1
 1740 0834 FB       		.byte	0xfb
 1741 0835 03       		.byte	0x3
 1742 0836 22       		.uleb128 0x22
 1743 0837 470A0000 		.4byte	0xa47
 1744 083b 42010000 		.4byte	.LBI89
 1745 083f 01       		.byte	.LVU283
 1746 0840 63000000 		.4byte	.LLRL21
 1747 0844 01       		.byte	0x1
 1748 0845 DD01     		.2byte	0x1dd
 1749 0847 03       		.byte	0x3
 1750 0848 67080000 		.4byte	0x867
 1751 084c 03       		.uleb128 0x3
 1752 084d 5D0A0000 		.4byte	0xa5d
 1753 0851 F4000000 		.4byte	.LLST22
 1754 0855 F2000000 		.4byte	.LVUS22
 1755 0859 03       		.uleb128 0x3
 1756 085a 520A0000 		.4byte	0xa52
 1757 085e 00010000 		.4byte	.LLST23
 1758 0862 FE000000 		.4byte	.LVUS23
 1759 0866 00       		.byte	0
 1760 0867 23       		.uleb128 0x23
 1761 0868 470A0000 		.4byte	0xa47
 1762 086c 60010000 		.4byte	.LBI93
 1763 0870 02       		.byte	.LVU294
 1764 0871 60010000 		.4byte	.LBB93
 1765 0875 1C000000 		.4byte	.LBE93-.LBB93
 1766 0879 01       		.byte	0x1
 1767 087a DE01     		.2byte	0x1de
ARM GAS  C:\Users\DEVELO~1\AppData\Local\Temp\ccvuQ95G.s 			page 32


 1768 087c 03       		.byte	0x3
 1769 087d 9C080000 		.4byte	0x89c
 1770 0881 03       		.uleb128 0x3
 1771 0882 5D0A0000 		.4byte	0xa5d
 1772 0886 0E010000 		.4byte	.LLST24
 1773 088a 0C010000 		.4byte	.LVUS24
 1774 088e 03       		.uleb128 0x3
 1775 088f 520A0000 		.4byte	0xa52
 1776 0893 1A010000 		.4byte	.LLST25
 1777 0897 18010000 		.4byte	.LVUS25
 1778 089b 00       		.byte	0
 1779 089c 24       		.uleb128 0x24
 1780 089d 470A0000 		.4byte	0xa47
 1781 08a1 7C010000 		.4byte	.LBI95
 1782 08a5 02       		.byte	.LVU303
 1783 08a6 7C010000 		.4byte	.LBB95
 1784 08aa 1C000000 		.4byte	.LBE95-.LBB95
 1785 08ae 01       		.byte	0x1
 1786 08af E001     		.2byte	0x1e0
 1787 08b1 03       		.byte	0x3
 1788 08b2 03       		.uleb128 0x3
 1789 08b3 5D0A0000 		.4byte	0xa5d
 1790 08b7 28010000 		.4byte	.LLST26
 1791 08bb 26010000 		.4byte	.LVUS26
 1792 08bf 03       		.uleb128 0x3
 1793 08c0 520A0000 		.4byte	0xa52
 1794 08c4 34010000 		.4byte	.LLST27
 1795 08c8 32010000 		.4byte	.LVUS27
 1796 08cc 00       		.byte	0
 1797 08cd 00       		.byte	0
 1798 08ce 12       		.uleb128 0x12
 1799 08cf 00000000 		.4byte	.LASF127
 1800 08d3 96       		.byte	0x96
 1801 08d4 00000000 		.4byte	.LFB434
 1802 08d8 EC000000 		.4byte	.LFE434-.LFB434
 1803 08dc 01       		.uleb128 0x1
 1804 08dd 9C       		.byte	0x9c
 1805 08de 3B0A0000 		.4byte	0xa3b
 1806 08e2 08       		.uleb128 0x8
 1807 08e3 CB0A0000 		.4byte	0xacb
 1808 08e7 00000000 		.4byte	.LBI29
 1809 08eb 02       		.byte	.LVU2
 1810 08ec 0C000000 		.4byte	.LLRL0
 1811 08f0 A0       		.byte	0xa0
 1812 08f1 03090000 		.4byte	0x903
 1813 08f5 03       		.uleb128 0x3
 1814 08f6 D50A0000 		.4byte	0xad5
 1815 08fa 43010000 		.4byte	.LLST1
 1816 08fe 41010000 		.4byte	.LVUS1
 1817 0902 00       		.byte	0
 1818 0903 08       		.uleb128 0x8
 1819 0904 B50A0000 		.4byte	0xab5
 1820 0908 2A000000 		.4byte	.LBI35
 1821 090c 02       		.byte	.LVU17
 1822 090d 1E000000 		.4byte	.LLRL2
 1823 0911 A1       		.byte	0xa1
 1824 0912 24090000 		.4byte	0x924
ARM GAS  C:\Users\DEVELO~1\AppData\Local\Temp\ccvuQ95G.s 			page 33


 1825 0916 03       		.uleb128 0x3
 1826 0917 BF0A0000 		.4byte	0xabf
 1827 091b 53010000 		.4byte	.LLST3
 1828 091f 51010000 		.4byte	.LVUS3
 1829 0923 00       		.byte	0
 1830 0924 08       		.uleb128 0x8
 1831 0925 9F0A0000 		.4byte	0xa9f
 1832 0929 3E000000 		.4byte	.LBI38
 1833 092d 02       		.byte	.LVU25
 1834 092e 2A000000 		.4byte	.LLRL4
 1835 0932 A2       		.byte	0xa2
 1836 0933 45090000 		.4byte	0x945
 1837 0937 03       		.uleb128 0x3
 1838 0938 A90A0000 		.4byte	0xaa9
 1839 093c 60010000 		.4byte	.LLST5
 1840 0940 5E010000 		.4byte	.LVUS5
 1841 0944 00       		.byte	0
 1842 0945 08       		.uleb128 0x8
 1843 0946 890A0000 		.4byte	0xa89
 1844 094a 4E000000 		.4byte	.LBI48
 1845 094e 02       		.byte	.LVU35
 1846 094f 3C000000 		.4byte	.LLRL6
 1847 0953 B1       		.byte	0xb1
 1848 0954 66090000 		.4byte	0x966
 1849 0958 03       		.uleb128 0x3
 1850 0959 930A0000 		.4byte	0xa93
 1851 095d 70010000 		.4byte	.LLST7
 1852 0961 6E010000 		.4byte	.LVUS7
 1853 0965 00       		.byte	0
 1854 0966 09       		.uleb128 0x9
 1855 0967 390B0000 		.4byte	0xb39
 1856 096b 68000000 		.4byte	.LBI53
 1857 096f 02       		.byte	.LVU43
 1858 0970 68000000 		.4byte	.LBB53
 1859 0974 14000000 		.4byte	.LBE53-.LBB53
 1860 0978 B2       		.byte	0xb2
 1861 0979 8B090000 		.4byte	0x98b
 1862 097d 03       		.uleb128 0x3
 1863 097e 420B0000 		.4byte	0xb42
 1864 0982 7E010000 		.4byte	.LLST8
 1865 0986 7C010000 		.4byte	.LVUS8
 1866 098a 00       		.byte	0
 1867 098b 09       		.uleb128 0x9
 1868 098c 230B0000 		.4byte	0xb23
 1869 0990 7C000000 		.4byte	.LBI55
 1870 0994 02       		.byte	.LVU51
 1871 0995 7C000000 		.4byte	.LBB55
 1872 0999 14000000 		.4byte	.LBE55-.LBB55
 1873 099d B3       		.byte	0xb3
 1874 099e B0090000 		.4byte	0x9b0
 1875 09a2 03       		.uleb128 0x3
 1876 09a3 2D0B0000 		.4byte	0xb2d
 1877 09a7 8B010000 		.4byte	.LLST9
 1878 09ab 89010000 		.4byte	.LVUS9
 1879 09af 00       		.byte	0
 1880 09b0 09       		.uleb128 0x9
 1881 09b1 0D0B0000 		.4byte	0xb0d
ARM GAS  C:\Users\DEVELO~1\AppData\Local\Temp\ccvuQ95G.s 			page 34


 1882 09b5 90000000 		.4byte	.LBI57
 1883 09b9 02       		.byte	.LVU59
 1884 09ba 90000000 		.4byte	.LBB57
 1885 09be 14000000 		.4byte	.LBE57-.LBB57
 1886 09c2 B4       		.byte	0xb4
 1887 09c3 D5090000 		.4byte	0x9d5
 1888 09c7 03       		.uleb128 0x3
 1889 09c8 170B0000 		.4byte	0xb17
 1890 09cc 98010000 		.4byte	.LLST10
 1891 09d0 96010000 		.4byte	.LVUS10
 1892 09d4 00       		.byte	0
 1893 09d5 09       		.uleb128 0x9
 1894 09d6 F70A0000 		.4byte	0xaf7
 1895 09da A4000000 		.4byte	.LBI59
 1896 09de 02       		.byte	.LVU67
 1897 09df A4000000 		.4byte	.LBB59
 1898 09e3 14000000 		.4byte	.LBE59-.LBB59
 1899 09e7 B5       		.byte	0xb5
 1900 09e8 FA090000 		.4byte	0x9fa
 1901 09ec 03       		.uleb128 0x3
 1902 09ed 010B0000 		.4byte	0xb01
 1903 09f1 A5010000 		.4byte	.LLST11
 1904 09f5 A3010000 		.4byte	.LVUS11
 1905 09f9 00       		.byte	0
 1906 09fa 09       		.uleb128 0x9
 1907 09fb E10A0000 		.4byte	0xae1
 1908 09ff B8000000 		.4byte	.LBI61
 1909 0a03 02       		.byte	.LVU75
 1910 0a04 B8000000 		.4byte	.LBB61
 1911 0a08 14000000 		.4byte	.LBE61-.LBB61
 1912 0a0c B6       		.byte	0xb6
 1913 0a0d 1F0A0000 		.4byte	0xa1f
 1914 0a11 03       		.uleb128 0x3
 1915 0a12 EB0A0000 		.4byte	0xaeb
 1916 0a16 B2010000 		.4byte	.LLST12
 1917 0a1a B0010000 		.4byte	.LVUS12
 1918 0a1e 00       		.byte	0
 1919 0a1f 13       		.uleb128 0x13
 1920 0a20 D0000000 		.4byte	.LVL10
 1921 0a24 6B070000 		.4byte	0x76b
 1922 0a28 13       		.uleb128 0x13
 1923 0a29 D4000000 		.4byte	.LVL11
 1924 0a2d 63070000 		.4byte	0x763
 1925 0a31 25       		.uleb128 0x25
 1926 0a32 DC000000 		.4byte	.LVL12
 1927 0a36 5B070000 		.4byte	0x75b
 1928 0a3a 00       		.byte	0
 1929 0a3b 14       		.uleb128 0x14
 1930 0a3c 20040000 		.4byte	.LASF128
 1931 0a40 62       		.byte	0x62
 1932 0a41 14       		.uleb128 0x14
 1933 0a42 A7010000 		.4byte	.LASF129
 1934 0a46 3A       		.byte	0x3a
 1935 0a47 15       		.uleb128 0x15
 1936 0a48 7B060000 		.4byte	.LASF131
 1937 0a4c A302     		.2byte	0x2a3
 1938 0a4e 680A0000 		.4byte	0xa68
ARM GAS  C:\Users\DEVELO~1\AppData\Local\Temp\ccvuQ95G.s 			page 35


 1939 0a52 16       		.uleb128 0x16
 1940 0a53 11020000 		.4byte	.LASF130
 1941 0a57 A302     		.2byte	0x2a3
 1942 0a59 7F000000 		.4byte	0x7f
 1943 0a5d 17       		.uleb128 0x17
 1944 0a5e 6C7000   		.ascii	"lp\000"
 1945 0a61 A302     		.2byte	0x2a3
 1946 0a63 46070000 		.4byte	0x746
 1947 0a67 00       		.byte	0
 1948 0a68 15       		.uleb128 0x15
 1949 0a69 EC030000 		.4byte	.LASF132
 1950 0a6d F101     		.2byte	0x1f1
 1951 0a6f 890A0000 		.4byte	0xa89
 1952 0a73 16       		.uleb128 0x16
 1953 0a74 11020000 		.4byte	.LASF130
 1954 0a78 F101     		.2byte	0x1f1
 1955 0a7a 7F000000 		.4byte	0x7f
 1956 0a7e 17       		.uleb128 0x17
 1957 0a7f 6C7000   		.ascii	"lp\000"
 1958 0a82 F101     		.2byte	0x1f1
 1959 0a84 46070000 		.4byte	0x746
 1960 0a88 00       		.byte	0
 1961 0a89 07       		.uleb128 0x7
 1962 0a8a 78040000 		.4byte	.LASF133
 1963 0a8e 79       		.byte	0x79
 1964 0a8f 9F0A0000 		.4byte	0xa9f
 1965 0a93 06       		.uleb128 0x6
 1966 0a94 11020000 		.4byte	.LASF130
 1967 0a98 79       		.byte	0x79
 1968 0a99 2E       		.byte	0x2e
 1969 0a9a 7F000000 		.4byte	0x7f
 1970 0a9e 00       		.byte	0
 1971 0a9f 07       		.uleb128 0x7
 1972 0aa0 69040000 		.4byte	.LASF134
 1973 0aa4 71       		.byte	0x71
 1974 0aa5 B50A0000 		.4byte	0xab5
 1975 0aa9 06       		.uleb128 0x6
 1976 0aaa 11020000 		.4byte	.LASF130
 1977 0aae 71       		.byte	0x71
 1978 0aaf 2E       		.byte	0x2e
 1979 0ab0 7F000000 		.4byte	0x7f
 1980 0ab4 00       		.byte	0
 1981 0ab5 07       		.uleb128 0x7
 1982 0ab6 5A040000 		.4byte	.LASF135
 1983 0aba 69       		.byte	0x69
 1984 0abb CB0A0000 		.4byte	0xacb
 1985 0abf 06       		.uleb128 0x6
 1986 0ac0 11020000 		.4byte	.LASF130
 1987 0ac4 69       		.byte	0x69
 1988 0ac5 2E       		.byte	0x2e
 1989 0ac6 7F000000 		.4byte	0x7f
 1990 0aca 00       		.byte	0
 1991 0acb 07       		.uleb128 0x7
 1992 0acc 4B040000 		.4byte	.LASF136
 1993 0ad0 61       		.byte	0x61
 1994 0ad1 E10A0000 		.4byte	0xae1
 1995 0ad5 06       		.uleb128 0x6
ARM GAS  C:\Users\DEVELO~1\AppData\Local\Temp\ccvuQ95G.s 			page 36


 1996 0ad6 11020000 		.4byte	.LASF130
 1997 0ada 61       		.byte	0x61
 1998 0adb 2E       		.byte	0x2e
 1999 0adc 7F000000 		.4byte	0x7f
 2000 0ae0 00       		.byte	0
 2001 0ae1 07       		.uleb128 0x7
 2002 0ae2 9C000000 		.4byte	.LASF137
 2003 0ae6 59       		.byte	0x59
 2004 0ae7 F70A0000 		.4byte	0xaf7
 2005 0aeb 06       		.uleb128 0x6
 2006 0aec 11020000 		.4byte	.LASF130
 2007 0af0 59       		.byte	0x59
 2008 0af1 2E       		.byte	0x2e
 2009 0af2 7F000000 		.4byte	0x7f
 2010 0af6 00       		.byte	0
 2011 0af7 07       		.uleb128 0x7
 2012 0af8 63050000 		.4byte	.LASF138
 2013 0afc 51       		.byte	0x51
 2014 0afd 0D0B0000 		.4byte	0xb0d
 2015 0b01 06       		.uleb128 0x6
 2016 0b02 11020000 		.4byte	.LASF130
 2017 0b06 51       		.byte	0x51
 2018 0b07 2E       		.byte	0x2e
 2019 0b08 7F000000 		.4byte	0x7f
 2020 0b0c 00       		.byte	0
 2021 0b0d 07       		.uleb128 0x7
 2022 0b0e 87000000 		.4byte	.LASF139
 2023 0b12 49       		.byte	0x49
 2024 0b13 230B0000 		.4byte	0xb23
 2025 0b17 06       		.uleb128 0x6
 2026 0b18 11020000 		.4byte	.LASF130
 2027 0b1c 49       		.byte	0x49
 2028 0b1d 2E       		.byte	0x2e
 2029 0b1e 7F000000 		.4byte	0x7f
 2030 0b22 00       		.byte	0
 2031 0b23 07       		.uleb128 0x7
 2032 0b24 29060000 		.4byte	.LASF140
 2033 0b28 41       		.byte	0x41
 2034 0b29 390B0000 		.4byte	0xb39
 2035 0b2d 06       		.uleb128 0x6
 2036 0b2e 11020000 		.4byte	.LASF130
 2037 0b32 41       		.byte	0x41
 2038 0b33 2F       		.byte	0x2f
 2039 0b34 7F000000 		.4byte	0x7f
 2040 0b38 00       		.byte	0
 2041 0b39 26       		.uleb128 0x26
 2042 0b3a 39060000 		.4byte	.LASF144
 2043 0b3e 02       		.byte	0x2
 2044 0b3f 39       		.byte	0x39
 2045 0b40 16       		.byte	0x16
 2046 0b41 03       		.byte	0x3
 2047 0b42 06       		.uleb128 0x6
 2048 0b43 11020000 		.4byte	.LASF130
 2049 0b47 39       		.byte	0x39
 2050 0b48 2F       		.byte	0x2f
 2051 0b49 7F000000 		.4byte	0x7f
 2052 0b4d 00       		.byte	0
ARM GAS  C:\Users\DEVELO~1\AppData\Local\Temp\ccvuQ95G.s 			page 37


 2053 0b4e 00       		.byte	0
 2054              		.section	.debug_abbrev,"",%progbits
 2055              	.Ldebug_abbrev0:
 2056 0000 01       		.uleb128 0x1
 2057 0001 0D       		.uleb128 0xd
 2058 0002 00       		.byte	0
 2059 0003 03       		.uleb128 0x3
 2060 0004 0E       		.uleb128 0xe
 2061 0005 3A       		.uleb128 0x3a
 2062 0006 21       		.uleb128 0x21
 2063 0007 05       		.sleb128 5
 2064 0008 3B       		.uleb128 0x3b
 2065 0009 05       		.uleb128 0x5
 2066 000a 39       		.uleb128 0x39
 2067 000b 0B       		.uleb128 0xb
 2068 000c 49       		.uleb128 0x49
 2069 000d 13       		.uleb128 0x13
 2070 000e 38       		.uleb128 0x38
 2071 000f 0B       		.uleb128 0xb
 2072 0010 00       		.byte	0
 2073 0011 00       		.byte	0
 2074 0012 02       		.uleb128 0x2
 2075 0013 0D       		.uleb128 0xd
 2076 0014 00       		.byte	0
 2077 0015 03       		.uleb128 0x3
 2078 0016 0E       		.uleb128 0xe
 2079 0017 3A       		.uleb128 0x3a
 2080 0018 21       		.uleb128 0x21
 2081 0019 05       		.sleb128 5
 2082 001a 3B       		.uleb128 0x3b
 2083 001b 05       		.uleb128 0x5
 2084 001c 39       		.uleb128 0x39
 2085 001d 0B       		.uleb128 0xb
 2086 001e 49       		.uleb128 0x49
 2087 001f 13       		.uleb128 0x13
 2088 0020 38       		.uleb128 0x38
 2089 0021 05       		.uleb128 0x5
 2090 0022 00       		.byte	0
 2091 0023 00       		.byte	0
 2092 0024 03       		.uleb128 0x3
 2093 0025 05       		.uleb128 0x5
 2094 0026 00       		.byte	0
 2095 0027 31       		.uleb128 0x31
 2096 0028 13       		.uleb128 0x13
 2097 0029 02       		.uleb128 0x2
 2098 002a 17       		.uleb128 0x17
 2099 002b B742     		.uleb128 0x2137
 2100 002d 17       		.uleb128 0x17
 2101 002e 00       		.byte	0
 2102 002f 00       		.byte	0
 2103 0030 04       		.uleb128 0x4
 2104 0031 24       		.uleb128 0x24
 2105 0032 00       		.byte	0
 2106 0033 0B       		.uleb128 0xb
 2107 0034 0B       		.uleb128 0xb
 2108 0035 3E       		.uleb128 0x3e
 2109 0036 0B       		.uleb128 0xb
ARM GAS  C:\Users\DEVELO~1\AppData\Local\Temp\ccvuQ95G.s 			page 38


 2110 0037 03       		.uleb128 0x3
 2111 0038 0E       		.uleb128 0xe
 2112 0039 00       		.byte	0
 2113 003a 00       		.byte	0
 2114 003b 05       		.uleb128 0x5
 2115 003c 0D       		.uleb128 0xd
 2116 003d 00       		.byte	0
 2117 003e 03       		.uleb128 0x3
 2118 003f 08       		.uleb128 0x8
 2119 0040 3A       		.uleb128 0x3a
 2120 0041 21       		.uleb128 0x21
 2121 0042 05       		.sleb128 5
 2122 0043 3B       		.uleb128 0x3b
 2123 0044 05       		.uleb128 0x5
 2124 0045 39       		.uleb128 0x39
 2125 0046 0B       		.uleb128 0xb
 2126 0047 49       		.uleb128 0x49
 2127 0048 13       		.uleb128 0x13
 2128 0049 38       		.uleb128 0x38
 2129 004a 0B       		.uleb128 0xb
 2130 004b 00       		.byte	0
 2131 004c 00       		.byte	0
 2132 004d 06       		.uleb128 0x6
 2133 004e 05       		.uleb128 0x5
 2134 004f 00       		.byte	0
 2135 0050 03       		.uleb128 0x3
 2136 0051 0E       		.uleb128 0xe
 2137 0052 3A       		.uleb128 0x3a
 2138 0053 21       		.uleb128 0x21
 2139 0054 02       		.sleb128 2
 2140 0055 3B       		.uleb128 0x3b
 2141 0056 0B       		.uleb128 0xb
 2142 0057 39       		.uleb128 0x39
 2143 0058 0B       		.uleb128 0xb
 2144 0059 49       		.uleb128 0x49
 2145 005a 13       		.uleb128 0x13
 2146 005b 00       		.byte	0
 2147 005c 00       		.byte	0
 2148 005d 07       		.uleb128 0x7
 2149 005e 2E       		.uleb128 0x2e
 2150 005f 01       		.byte	0x1
 2151 0060 03       		.uleb128 0x3
 2152 0061 0E       		.uleb128 0xe
 2153 0062 3A       		.uleb128 0x3a
 2154 0063 21       		.uleb128 0x21
 2155 0064 02       		.sleb128 2
 2156 0065 3B       		.uleb128 0x3b
 2157 0066 0B       		.uleb128 0xb
 2158 0067 39       		.uleb128 0x39
 2159 0068 21       		.uleb128 0x21
 2160 0069 16       		.sleb128 22
 2161 006a 27       		.uleb128 0x27
 2162 006b 19       		.uleb128 0x19
 2163 006c 20       		.uleb128 0x20
 2164 006d 21       		.uleb128 0x21
 2165 006e 03       		.sleb128 3
 2166 006f 01       		.uleb128 0x1
ARM GAS  C:\Users\DEVELO~1\AppData\Local\Temp\ccvuQ95G.s 			page 39


 2167 0070 13       		.uleb128 0x13
 2168 0071 00       		.byte	0
 2169 0072 00       		.byte	0
 2170 0073 08       		.uleb128 0x8
 2171 0074 1D       		.uleb128 0x1d
 2172 0075 01       		.byte	0x1
 2173 0076 31       		.uleb128 0x31
 2174 0077 13       		.uleb128 0x13
 2175 0078 52       		.uleb128 0x52
 2176 0079 01       		.uleb128 0x1
 2177 007a B842     		.uleb128 0x2138
 2178 007c 0B       		.uleb128 0xb
 2179 007d 55       		.uleb128 0x55
 2180 007e 17       		.uleb128 0x17
 2181 007f 58       		.uleb128 0x58
 2182 0080 21       		.uleb128 0x21
 2183 0081 01       		.sleb128 1
 2184 0082 59       		.uleb128 0x59
 2185 0083 0B       		.uleb128 0xb
 2186 0084 57       		.uleb128 0x57
 2187 0085 21       		.uleb128 0x21
 2188 0086 03       		.sleb128 3
 2189 0087 01       		.uleb128 0x1
 2190 0088 13       		.uleb128 0x13
 2191 0089 00       		.byte	0
 2192 008a 00       		.byte	0
 2193 008b 09       		.uleb128 0x9
 2194 008c 1D       		.uleb128 0x1d
 2195 008d 01       		.byte	0x1
 2196 008e 31       		.uleb128 0x31
 2197 008f 13       		.uleb128 0x13
 2198 0090 52       		.uleb128 0x52
 2199 0091 01       		.uleb128 0x1
 2200 0092 B842     		.uleb128 0x2138
 2201 0094 0B       		.uleb128 0xb
 2202 0095 11       		.uleb128 0x11
 2203 0096 01       		.uleb128 0x1
 2204 0097 12       		.uleb128 0x12
 2205 0098 06       		.uleb128 0x6
 2206 0099 58       		.uleb128 0x58
 2207 009a 21       		.uleb128 0x21
 2208 009b 01       		.sleb128 1
 2209 009c 59       		.uleb128 0x59
 2210 009d 0B       		.uleb128 0xb
 2211 009e 57       		.uleb128 0x57
 2212 009f 21       		.uleb128 0x21
 2213 00a0 03       		.sleb128 3
 2214 00a1 01       		.uleb128 0x1
 2215 00a2 13       		.uleb128 0x13
 2216 00a3 00       		.byte	0
 2217 00a4 00       		.byte	0
 2218 00a5 0A       		.uleb128 0xa
 2219 00a6 01       		.uleb128 0x1
 2220 00a7 01       		.byte	0x1
 2221 00a8 49       		.uleb128 0x49
 2222 00a9 13       		.uleb128 0x13
 2223 00aa 01       		.uleb128 0x1
ARM GAS  C:\Users\DEVELO~1\AppData\Local\Temp\ccvuQ95G.s 			page 40


 2224 00ab 13       		.uleb128 0x13
 2225 00ac 00       		.byte	0
 2226 00ad 00       		.byte	0
 2227 00ae 0B       		.uleb128 0xb
 2228 00af 21       		.uleb128 0x21
 2229 00b0 00       		.byte	0
 2230 00b1 49       		.uleb128 0x49
 2231 00b2 13       		.uleb128 0x13
 2232 00b3 2F       		.uleb128 0x2f
 2233 00b4 0B       		.uleb128 0xb
 2234 00b5 00       		.byte	0
 2235 00b6 00       		.byte	0
 2236 00b7 0C       		.uleb128 0xc
 2237 00b8 16       		.uleb128 0x16
 2238 00b9 00       		.byte	0
 2239 00ba 03       		.uleb128 0x3
 2240 00bb 0E       		.uleb128 0xe
 2241 00bc 3A       		.uleb128 0x3a
 2242 00bd 21       		.uleb128 0x21
 2243 00be 05       		.sleb128 5
 2244 00bf 3B       		.uleb128 0x3b
 2245 00c0 05       		.uleb128 0x5
 2246 00c1 39       		.uleb128 0x39
 2247 00c2 21       		.uleb128 0x21
 2248 00c3 03       		.sleb128 3
 2249 00c4 49       		.uleb128 0x49
 2250 00c5 13       		.uleb128 0x13
 2251 00c6 00       		.byte	0
 2252 00c7 00       		.byte	0
 2253 00c8 0D       		.uleb128 0xd
 2254 00c9 2E       		.uleb128 0x2e
 2255 00ca 00       		.byte	0
 2256 00cb 3F       		.uleb128 0x3f
 2257 00cc 19       		.uleb128 0x19
 2258 00cd 03       		.uleb128 0x3
 2259 00ce 0E       		.uleb128 0xe
 2260 00cf 3A       		.uleb128 0x3a
 2261 00d0 0B       		.uleb128 0xb
 2262 00d1 3B       		.uleb128 0x3b
 2263 00d2 05       		.uleb128 0x5
 2264 00d3 39       		.uleb128 0x39
 2265 00d4 21       		.uleb128 0x21
 2266 00d5 08       		.sleb128 8
 2267 00d6 27       		.uleb128 0x27
 2268 00d7 19       		.uleb128 0x19
 2269 00d8 3C       		.uleb128 0x3c
 2270 00d9 19       		.uleb128 0x19
 2271 00da 00       		.byte	0
 2272 00db 00       		.byte	0
 2273 00dc 0E       		.uleb128 0xe
 2274 00dd 34       		.uleb128 0x34
 2275 00de 00       		.byte	0
 2276 00df 03       		.uleb128 0x3
 2277 00e0 0E       		.uleb128 0xe
 2278 00e1 3A       		.uleb128 0x3a
 2279 00e2 21       		.uleb128 0x21
 2280 00e3 01       		.sleb128 1
ARM GAS  C:\Users\DEVELO~1\AppData\Local\Temp\ccvuQ95G.s 			page 41


 2281 00e4 3B       		.uleb128 0x3b
 2282 00e5 05       		.uleb128 0x5
 2283 00e6 39       		.uleb128 0x39
 2284 00e7 21       		.uleb128 0x21
 2285 00e8 0E       		.sleb128 14
 2286 00e9 49       		.uleb128 0x49
 2287 00ea 13       		.uleb128 0x13
 2288 00eb 02       		.uleb128 0x2
 2289 00ec 17       		.uleb128 0x17
 2290 00ed B742     		.uleb128 0x2137
 2291 00ef 17       		.uleb128 0x17
 2292 00f0 00       		.byte	0
 2293 00f1 00       		.byte	0
 2294 00f2 0F       		.uleb128 0xf
 2295 00f3 16       		.uleb128 0x16
 2296 00f4 00       		.byte	0
 2297 00f5 03       		.uleb128 0x3
 2298 00f6 0E       		.uleb128 0xe
 2299 00f7 3A       		.uleb128 0x3a
 2300 00f8 0B       		.uleb128 0xb
 2301 00f9 3B       		.uleb128 0x3b
 2302 00fa 0B       		.uleb128 0xb
 2303 00fb 39       		.uleb128 0x39
 2304 00fc 0B       		.uleb128 0xb
 2305 00fd 49       		.uleb128 0x49
 2306 00fe 13       		.uleb128 0x13
 2307 00ff 00       		.byte	0
 2308 0100 00       		.byte	0
 2309 0101 10       		.uleb128 0x10
 2310 0102 13       		.uleb128 0x13
 2311 0103 01       		.byte	0x1
 2312 0104 0B       		.uleb128 0xb
 2313 0105 05       		.uleb128 0x5
 2314 0106 3A       		.uleb128 0x3a
 2315 0107 21       		.uleb128 0x21
 2316 0108 05       		.sleb128 5
 2317 0109 3B       		.uleb128 0x3b
 2318 010a 05       		.uleb128 0x5
 2319 010b 39       		.uleb128 0x39
 2320 010c 21       		.uleb128 0x21
 2321 010d 09       		.sleb128 9
 2322 010e 01       		.uleb128 0x1
 2323 010f 13       		.uleb128 0x13
 2324 0110 00       		.byte	0
 2325 0111 00       		.byte	0
 2326 0112 11       		.uleb128 0x11
 2327 0113 0D       		.uleb128 0xd
 2328 0114 00       		.byte	0
 2329 0115 03       		.uleb128 0x3
 2330 0116 08       		.uleb128 0x8
 2331 0117 3A       		.uleb128 0x3a
 2332 0118 21       		.uleb128 0x21
 2333 0119 05       		.sleb128 5
 2334 011a 3B       		.uleb128 0x3b
 2335 011b 05       		.uleb128 0x5
 2336 011c 39       		.uleb128 0x39
 2337 011d 21       		.uleb128 0x21
ARM GAS  C:\Users\DEVELO~1\AppData\Local\Temp\ccvuQ95G.s 			page 42


 2338 011e 11       		.sleb128 17
 2339 011f 49       		.uleb128 0x49
 2340 0120 13       		.uleb128 0x13
 2341 0121 38       		.uleb128 0x38
 2342 0122 05       		.uleb128 0x5
 2343 0123 00       		.byte	0
 2344 0124 00       		.byte	0
 2345 0125 12       		.uleb128 0x12
 2346 0126 2E       		.uleb128 0x2e
 2347 0127 01       		.byte	0x1
 2348 0128 3F       		.uleb128 0x3f
 2349 0129 19       		.uleb128 0x19
 2350 012a 03       		.uleb128 0x3
 2351 012b 0E       		.uleb128 0xe
 2352 012c 3A       		.uleb128 0x3a
 2353 012d 21       		.uleb128 0x21
 2354 012e 01       		.sleb128 1
 2355 012f 3B       		.uleb128 0x3b
 2356 0130 0B       		.uleb128 0xb
 2357 0131 39       		.uleb128 0x39
 2358 0132 21       		.uleb128 0x21
 2359 0133 06       		.sleb128 6
 2360 0134 27       		.uleb128 0x27
 2361 0135 19       		.uleb128 0x19
 2362 0136 11       		.uleb128 0x11
 2363 0137 01       		.uleb128 0x1
 2364 0138 12       		.uleb128 0x12
 2365 0139 06       		.uleb128 0x6
 2366 013a 40       		.uleb128 0x40
 2367 013b 18       		.uleb128 0x18
 2368 013c 7A       		.uleb128 0x7a
 2369 013d 19       		.uleb128 0x19
 2370 013e 01       		.uleb128 0x1
 2371 013f 13       		.uleb128 0x13
 2372 0140 00       		.byte	0
 2373 0141 00       		.byte	0
 2374 0142 13       		.uleb128 0x13
 2375 0143 48       		.uleb128 0x48
 2376 0144 00       		.byte	0
 2377 0145 7D       		.uleb128 0x7d
 2378 0146 01       		.uleb128 0x1
 2379 0147 7F       		.uleb128 0x7f
 2380 0148 13       		.uleb128 0x13
 2381 0149 00       		.byte	0
 2382 014a 00       		.byte	0
 2383 014b 14       		.uleb128 0x14
 2384 014c 2E       		.uleb128 0x2e
 2385 014d 00       		.byte	0
 2386 014e 03       		.uleb128 0x3
 2387 014f 0E       		.uleb128 0xe
 2388 0150 3A       		.uleb128 0x3a
 2389 0151 21       		.uleb128 0x21
 2390 0152 01       		.sleb128 1
 2391 0153 3B       		.uleb128 0x3b
 2392 0154 0B       		.uleb128 0xb
 2393 0155 39       		.uleb128 0x39
 2394 0156 21       		.uleb128 0x21
ARM GAS  C:\Users\DEVELO~1\AppData\Local\Temp\ccvuQ95G.s 			page 43


 2395 0157 14       		.sleb128 20
 2396 0158 27       		.uleb128 0x27
 2397 0159 19       		.uleb128 0x19
 2398 015a 20       		.uleb128 0x20
 2399 015b 21       		.uleb128 0x21
 2400 015c 03       		.sleb128 3
 2401 015d 00       		.byte	0
 2402 015e 00       		.byte	0
 2403 015f 15       		.uleb128 0x15
 2404 0160 2E       		.uleb128 0x2e
 2405 0161 01       		.byte	0x1
 2406 0162 03       		.uleb128 0x3
 2407 0163 0E       		.uleb128 0xe
 2408 0164 3A       		.uleb128 0x3a
 2409 0165 21       		.uleb128 0x21
 2410 0166 02       		.sleb128 2
 2411 0167 3B       		.uleb128 0x3b
 2412 0168 05       		.uleb128 0x5
 2413 0169 39       		.uleb128 0x39
 2414 016a 21       		.uleb128 0x21
 2415 016b 16       		.sleb128 22
 2416 016c 27       		.uleb128 0x27
 2417 016d 19       		.uleb128 0x19
 2418 016e 20       		.uleb128 0x20
 2419 016f 21       		.uleb128 0x21
 2420 0170 03       		.sleb128 3
 2421 0171 01       		.uleb128 0x1
 2422 0172 13       		.uleb128 0x13
 2423 0173 00       		.byte	0
 2424 0174 00       		.byte	0
 2425 0175 16       		.uleb128 0x16
 2426 0176 05       		.uleb128 0x5
 2427 0177 00       		.byte	0
 2428 0178 03       		.uleb128 0x3
 2429 0179 0E       		.uleb128 0xe
 2430 017a 3A       		.uleb128 0x3a
 2431 017b 21       		.uleb128 0x21
 2432 017c 02       		.sleb128 2
 2433 017d 3B       		.uleb128 0x3b
 2434 017e 05       		.uleb128 0x5
 2435 017f 39       		.uleb128 0x39
 2436 0180 21       		.uleb128 0x21
 2437 0181 2D       		.sleb128 45
 2438 0182 49       		.uleb128 0x49
 2439 0183 13       		.uleb128 0x13
 2440 0184 00       		.byte	0
 2441 0185 00       		.byte	0
 2442 0186 17       		.uleb128 0x17
 2443 0187 05       		.uleb128 0x5
 2444 0188 00       		.byte	0
 2445 0189 03       		.uleb128 0x3
 2446 018a 08       		.uleb128 0x8
 2447 018b 3A       		.uleb128 0x3a
 2448 018c 21       		.uleb128 0x21
 2449 018d 02       		.sleb128 2
 2450 018e 3B       		.uleb128 0x3b
 2451 018f 05       		.uleb128 0x5
ARM GAS  C:\Users\DEVELO~1\AppData\Local\Temp\ccvuQ95G.s 			page 44


 2452 0190 39       		.uleb128 0x39
 2453 0191 21       		.uleb128 0x21
 2454 0192 38       		.sleb128 56
 2455 0193 49       		.uleb128 0x49
 2456 0194 13       		.uleb128 0x13
 2457 0195 00       		.byte	0
 2458 0196 00       		.byte	0
 2459 0197 18       		.uleb128 0x18
 2460 0198 11       		.uleb128 0x11
 2461 0199 01       		.byte	0x1
 2462 019a 25       		.uleb128 0x25
 2463 019b 0E       		.uleb128 0xe
 2464 019c 13       		.uleb128 0x13
 2465 019d 0B       		.uleb128 0xb
 2466 019e 03       		.uleb128 0x3
 2467 019f 0E       		.uleb128 0xe
 2468 01a0 1B       		.uleb128 0x1b
 2469 01a1 0E       		.uleb128 0xe
 2470 01a2 55       		.uleb128 0x55
 2471 01a3 17       		.uleb128 0x17
 2472 01a4 11       		.uleb128 0x11
 2473 01a5 01       		.uleb128 0x1
 2474 01a6 10       		.uleb128 0x10
 2475 01a7 17       		.uleb128 0x17
 2476 01a8 00       		.byte	0
 2477 01a9 00       		.byte	0
 2478 01aa 19       		.uleb128 0x19
 2479 01ab 24       		.uleb128 0x24
 2480 01ac 00       		.byte	0
 2481 01ad 0B       		.uleb128 0xb
 2482 01ae 0B       		.uleb128 0xb
 2483 01af 3E       		.uleb128 0x3e
 2484 01b0 0B       		.uleb128 0xb
 2485 01b1 03       		.uleb128 0x3
 2486 01b2 08       		.uleb128 0x8
 2487 01b3 00       		.byte	0
 2488 01b4 00       		.byte	0
 2489 01b5 1A       		.uleb128 0x1a
 2490 01b6 35       		.uleb128 0x35
 2491 01b7 00       		.byte	0
 2492 01b8 49       		.uleb128 0x49
 2493 01b9 13       		.uleb128 0x13
 2494 01ba 00       		.byte	0
 2495 01bb 00       		.byte	0
 2496 01bc 1B       		.uleb128 0x1b
 2497 01bd 34       		.uleb128 0x34
 2498 01be 00       		.byte	0
 2499 01bf 03       		.uleb128 0x3
 2500 01c0 0E       		.uleb128 0xe
 2501 01c1 3A       		.uleb128 0x3a
 2502 01c2 0B       		.uleb128 0xb
 2503 01c3 3B       		.uleb128 0x3b
 2504 01c4 0B       		.uleb128 0xb
 2505 01c5 39       		.uleb128 0x39
 2506 01c6 0B       		.uleb128 0xb
 2507 01c7 49       		.uleb128 0x49
 2508 01c8 13       		.uleb128 0x13
ARM GAS  C:\Users\DEVELO~1\AppData\Local\Temp\ccvuQ95G.s 			page 45


 2509 01c9 3F       		.uleb128 0x3f
 2510 01ca 19       		.uleb128 0x19
 2511 01cb 3C       		.uleb128 0x3c
 2512 01cc 19       		.uleb128 0x19
 2513 01cd 00       		.byte	0
 2514 01ce 00       		.byte	0
 2515 01cf 1C       		.uleb128 0x1c
 2516 01d0 13       		.uleb128 0x13
 2517 01d1 01       		.byte	0x1
 2518 01d2 0B       		.uleb128 0xb
 2519 01d3 0B       		.uleb128 0xb
 2520 01d4 3A       		.uleb128 0x3a
 2521 01d5 0B       		.uleb128 0xb
 2522 01d6 3B       		.uleb128 0x3b
 2523 01d7 05       		.uleb128 0x5
 2524 01d8 39       		.uleb128 0x39
 2525 01d9 0B       		.uleb128 0xb
 2526 01da 01       		.uleb128 0x1
 2527 01db 13       		.uleb128 0x13
 2528 01dc 00       		.byte	0
 2529 01dd 00       		.byte	0
 2530 01de 1D       		.uleb128 0x1d
 2531 01df 34       		.uleb128 0x34
 2532 01e0 00       		.byte	0
 2533 01e1 47       		.uleb128 0x47
 2534 01e2 13       		.uleb128 0x13
 2535 01e3 3A       		.uleb128 0x3a
 2536 01e4 0B       		.uleb128 0xb
 2537 01e5 3B       		.uleb128 0x3b
 2538 01e6 0B       		.uleb128 0xb
 2539 01e7 39       		.uleb128 0x39
 2540 01e8 0B       		.uleb128 0xb
 2541 01e9 02       		.uleb128 0x2
 2542 01ea 18       		.uleb128 0x18
 2543 01eb 00       		.byte	0
 2544 01ec 00       		.byte	0
 2545 01ed 1E       		.uleb128 0x1e
 2546 01ee 34       		.uleb128 0x34
 2547 01ef 00       		.byte	0
 2548 01f0 03       		.uleb128 0x3
 2549 01f1 0E       		.uleb128 0xe
 2550 01f2 3A       		.uleb128 0x3a
 2551 01f3 0B       		.uleb128 0xb
 2552 01f4 3B       		.uleb128 0x3b
 2553 01f5 0B       		.uleb128 0xb
 2554 01f6 39       		.uleb128 0x39
 2555 01f7 0B       		.uleb128 0xb
 2556 01f8 49       		.uleb128 0x49
 2557 01f9 13       		.uleb128 0x13
 2558 01fa 02       		.uleb128 0x2
 2559 01fb 17       		.uleb128 0x17
 2560 01fc B742     		.uleb128 0x2137
 2561 01fe 17       		.uleb128 0x17
 2562 01ff 00       		.byte	0
 2563 0200 00       		.byte	0
 2564 0201 1F       		.uleb128 0x1f
 2565 0202 0B       		.uleb128 0xb
ARM GAS  C:\Users\DEVELO~1\AppData\Local\Temp\ccvuQ95G.s 			page 46


 2566 0203 01       		.byte	0x1
 2567 0204 11       		.uleb128 0x11
 2568 0205 01       		.uleb128 0x1
 2569 0206 12       		.uleb128 0x12
 2570 0207 06       		.uleb128 0x6
 2571 0208 01       		.uleb128 0x1
 2572 0209 13       		.uleb128 0x13
 2573 020a 00       		.byte	0
 2574 020b 00       		.byte	0
 2575 020c 20       		.uleb128 0x20
 2576 020d 1D       		.uleb128 0x1d
 2577 020e 00       		.byte	0
 2578 020f 31       		.uleb128 0x31
 2579 0210 13       		.uleb128 0x13
 2580 0211 52       		.uleb128 0x52
 2581 0212 01       		.uleb128 0x1
 2582 0213 B842     		.uleb128 0x2138
 2583 0215 0B       		.uleb128 0xb
 2584 0216 55       		.uleb128 0x55
 2585 0217 17       		.uleb128 0x17
 2586 0218 58       		.uleb128 0x58
 2587 0219 0B       		.uleb128 0xb
 2588 021a 59       		.uleb128 0x59
 2589 021b 0B       		.uleb128 0xb
 2590 021c 57       		.uleb128 0x57
 2591 021d 0B       		.uleb128 0xb
 2592 021e 00       		.byte	0
 2593 021f 00       		.byte	0
 2594 0220 21       		.uleb128 0x21
 2595 0221 1D       		.uleb128 0x1d
 2596 0222 00       		.byte	0
 2597 0223 31       		.uleb128 0x31
 2598 0224 13       		.uleb128 0x13
 2599 0225 52       		.uleb128 0x52
 2600 0226 01       		.uleb128 0x1
 2601 0227 B842     		.uleb128 0x2138
 2602 0229 0B       		.uleb128 0xb
 2603 022a 11       		.uleb128 0x11
 2604 022b 01       		.uleb128 0x1
 2605 022c 12       		.uleb128 0x12
 2606 022d 06       		.uleb128 0x6
 2607 022e 58       		.uleb128 0x58
 2608 022f 0B       		.uleb128 0xb
 2609 0230 59       		.uleb128 0x59
 2610 0231 0B       		.uleb128 0xb
 2611 0232 57       		.uleb128 0x57
 2612 0233 0B       		.uleb128 0xb
 2613 0234 00       		.byte	0
 2614 0235 00       		.byte	0
 2615 0236 22       		.uleb128 0x22
 2616 0237 1D       		.uleb128 0x1d
 2617 0238 01       		.byte	0x1
 2618 0239 31       		.uleb128 0x31
 2619 023a 13       		.uleb128 0x13
 2620 023b 52       		.uleb128 0x52
 2621 023c 01       		.uleb128 0x1
 2622 023d B842     		.uleb128 0x2138
ARM GAS  C:\Users\DEVELO~1\AppData\Local\Temp\ccvuQ95G.s 			page 47


 2623 023f 0B       		.uleb128 0xb
 2624 0240 55       		.uleb128 0x55
 2625 0241 17       		.uleb128 0x17
 2626 0242 58       		.uleb128 0x58
 2627 0243 0B       		.uleb128 0xb
 2628 0244 59       		.uleb128 0x59
 2629 0245 05       		.uleb128 0x5
 2630 0246 57       		.uleb128 0x57
 2631 0247 0B       		.uleb128 0xb
 2632 0248 01       		.uleb128 0x1
 2633 0249 13       		.uleb128 0x13
 2634 024a 00       		.byte	0
 2635 024b 00       		.byte	0
 2636 024c 23       		.uleb128 0x23
 2637 024d 1D       		.uleb128 0x1d
 2638 024e 01       		.byte	0x1
 2639 024f 31       		.uleb128 0x31
 2640 0250 13       		.uleb128 0x13
 2641 0251 52       		.uleb128 0x52
 2642 0252 01       		.uleb128 0x1
 2643 0253 B842     		.uleb128 0x2138
 2644 0255 0B       		.uleb128 0xb
 2645 0256 11       		.uleb128 0x11
 2646 0257 01       		.uleb128 0x1
 2647 0258 12       		.uleb128 0x12
 2648 0259 06       		.uleb128 0x6
 2649 025a 58       		.uleb128 0x58
 2650 025b 0B       		.uleb128 0xb
 2651 025c 59       		.uleb128 0x59
 2652 025d 05       		.uleb128 0x5
 2653 025e 57       		.uleb128 0x57
 2654 025f 0B       		.uleb128 0xb
 2655 0260 01       		.uleb128 0x1
 2656 0261 13       		.uleb128 0x13
 2657 0262 00       		.byte	0
 2658 0263 00       		.byte	0
 2659 0264 24       		.uleb128 0x24
 2660 0265 1D       		.uleb128 0x1d
 2661 0266 01       		.byte	0x1
 2662 0267 31       		.uleb128 0x31
 2663 0268 13       		.uleb128 0x13
 2664 0269 52       		.uleb128 0x52
 2665 026a 01       		.uleb128 0x1
 2666 026b B842     		.uleb128 0x2138
 2667 026d 0B       		.uleb128 0xb
 2668 026e 11       		.uleb128 0x11
 2669 026f 01       		.uleb128 0x1
 2670 0270 12       		.uleb128 0x12
 2671 0271 06       		.uleb128 0x6
 2672 0272 58       		.uleb128 0x58
 2673 0273 0B       		.uleb128 0xb
 2674 0274 59       		.uleb128 0x59
 2675 0275 05       		.uleb128 0x5
 2676 0276 57       		.uleb128 0x57
 2677 0277 0B       		.uleb128 0xb
 2678 0278 00       		.byte	0
 2679 0279 00       		.byte	0
ARM GAS  C:\Users\DEVELO~1\AppData\Local\Temp\ccvuQ95G.s 			page 48


 2680 027a 25       		.uleb128 0x25
 2681 027b 48       		.uleb128 0x48
 2682 027c 00       		.byte	0
 2683 027d 7D       		.uleb128 0x7d
 2684 027e 01       		.uleb128 0x1
 2685 027f 8201     		.uleb128 0x82
 2686 0281 19       		.uleb128 0x19
 2687 0282 7F       		.uleb128 0x7f
 2688 0283 13       		.uleb128 0x13
 2689 0284 00       		.byte	0
 2690 0285 00       		.byte	0
 2691 0286 26       		.uleb128 0x26
 2692 0287 2E       		.uleb128 0x2e
 2693 0288 01       		.byte	0x1
 2694 0289 03       		.uleb128 0x3
 2695 028a 0E       		.uleb128 0xe
 2696 028b 3A       		.uleb128 0x3a
 2697 028c 0B       		.uleb128 0xb
 2698 028d 3B       		.uleb128 0x3b
 2699 028e 0B       		.uleb128 0xb
 2700 028f 39       		.uleb128 0x39
 2701 0290 0B       		.uleb128 0xb
 2702 0291 27       		.uleb128 0x27
 2703 0292 19       		.uleb128 0x19
 2704 0293 20       		.uleb128 0x20
 2705 0294 0B       		.uleb128 0xb
 2706 0295 00       		.byte	0
 2707 0296 00       		.byte	0
 2708 0297 00       		.byte	0
 2709              		.section	.debug_loclists,"",%progbits
 2710 0000 B9010000 		.4byte	.Ldebug_loc3-.Ldebug_loc2
 2711              	.Ldebug_loc2:
 2712 0004 0500     		.2byte	0x5
 2713 0006 04       		.byte	0x4
 2714 0007 00       		.byte	0
 2715 0008 00000000 		.4byte	0
 2716              	.Ldebug_loc0:
 2717              	.LVUS13:
 2718 000c 01       		.uleb128 .LVU176
 2719 000d 03       		.uleb128 .LVU178
 2720 000e 03       		.uleb128 .LVU178
 2721 000f 00       		.uleb128 0
 2722              	.LLST13:
 2723 0010 06       		.byte	0x6
 2724 0011 9E000000 		.4byte	.LVL15
 2725 0015 04       		.byte	0x4
 2726 0016 00       		.uleb128 .LVL15-.LVL15
 2727 0017 00       		.uleb128 .LVL15-.LVL15
 2728 0018 06       		.uleb128 0x6
 2729 0019 0C       		.byte	0xc
 2730 001a 00081008 		.4byte	0x8100800
 2731 001e 9F       		.byte	0x9f
 2732 001f 04       		.byte	0x4
 2733 0020 00       		.uleb128 .LVL15-.LVL15
 2734 0021 AE02     		.uleb128 .LFE435-.LVL15
 2735 0023 06       		.uleb128 0x6
 2736 0024 0C       		.byte	0xc
ARM GAS  C:\Users\DEVELO~1\AppData\Local\Temp\ccvuQ95G.s 			page 49


 2737 0025 00881008 		.4byte	0x8108800
 2738 0029 9F       		.byte	0x9f
 2739 002a 00       		.byte	0
 2740              	.LVUS18:
 2741 002b 01       		.uleb128 .LVU197
 2742 002c 01       		.uleb128 .LVU211
 2743 002d 01       		.uleb128 .LVU211
 2744 002e 01       		.uleb128 .LVU222
 2745 002f 01       		.uleb128 .LVU222
 2746 0030 01       		.uleb128 .LVU230
 2747 0031 01       		.uleb128 .LVU230
 2748 0032 00       		.uleb128 0
 2749              	.LLST18:
 2750 0033 06       		.byte	0x6
 2751 0034 C0000000 		.4byte	.LVL16
 2752 0038 04       		.byte	0x4
 2753 0039 00       		.uleb128 .LVL16-.LVL16
 2754 003a 10       		.uleb128 .LVL18-.LVL16
 2755 003b 02       		.uleb128 0x2
 2756 003c 30       		.byte	0x30
 2757 003d 9F       		.byte	0x9f
 2758 003e 04       		.byte	0x4
 2759 003f 10       		.uleb128 .LVL18-.LVL16
 2760 0040 1C       		.uleb128 .LVL19-.LVL16
 2761 0041 04       		.uleb128 0x4
 2762 0042 40       		.byte	0x40
 2763 0043 44       		.byte	0x44
 2764 0044 24       		.byte	0x24
 2765 0045 9F       		.byte	0x9f
 2766 0046 04       		.byte	0x4
 2767 0047 1C       		.uleb128 .LVL19-.LVL16
 2768 0048 22       		.uleb128 .LVL20-.LVL16
 2769 0049 04       		.uleb128 0x4
 2770 004a 44       		.byte	0x44
 2771 004b 46       		.byte	0x46
 2772 004c 24       		.byte	0x24
 2773 004d 9F       		.byte	0x9f
 2774 004e 04       		.byte	0x4
 2775 004f 22       		.uleb128 .LVL20-.LVL16
 2776 0050 8C02     		.uleb128 .LFE435-.LVL16
 2777 0052 04       		.uleb128 0x4
 2778 0053 45       		.byte	0x45
 2779 0054 48       		.byte	0x48
 2780 0055 24       		.byte	0x24
 2781 0056 9F       		.byte	0x9f
 2782 0057 00       		.byte	0
 2783              	.LVUS19:
 2784 0058 02       		.uleb128 .LVU198
 2785 0059 02       		.uleb128 .LVU212
 2786 005a 02       		.uleb128 .LVU212
 2787 005b 02       		.uleb128 .LVU223
 2788 005c 02       		.uleb128 .LVU223
 2789 005d 02       		.uleb128 .LVU231
 2790 005e 02       		.uleb128 .LVU231
 2791 005f 00       		.uleb128 0
 2792              	.LLST19:
 2793 0060 06       		.byte	0x6
ARM GAS  C:\Users\DEVELO~1\AppData\Local\Temp\ccvuQ95G.s 			page 50


 2794 0061 C0000000 		.4byte	.LVL16
 2795 0065 04       		.byte	0x4
 2796 0066 00       		.uleb128 .LVL16-.LVL16
 2797 0067 10       		.uleb128 .LVL18-.LVL16
 2798 0068 02       		.uleb128 0x2
 2799 0069 30       		.byte	0x30
 2800 006a 9F       		.byte	0x9f
 2801 006b 04       		.byte	0x4
 2802 006c 10       		.uleb128 .LVL18-.LVL16
 2803 006d 1C       		.uleb128 .LVL19-.LVL16
 2804 006e 04       		.uleb128 0x4
 2805 006f 40       		.byte	0x40
 2806 0070 45       		.byte	0x45
 2807 0071 24       		.byte	0x24
 2808 0072 9F       		.byte	0x9f
 2809 0073 04       		.byte	0x4
 2810 0074 1C       		.uleb128 .LVL19-.LVL16
 2811 0075 22       		.uleb128 .LVL20-.LVL16
 2812 0076 04       		.uleb128 0x4
 2813 0077 44       		.byte	0x44
 2814 0078 47       		.byte	0x47
 2815 0079 24       		.byte	0x24
 2816 007a 9F       		.byte	0x9f
 2817 007b 04       		.byte	0x4
 2818 007c 22       		.uleb128 .LVL20-.LVL16
 2819 007d 8C02     		.uleb128 .LFE435-.LVL16
 2820 007f 04       		.uleb128 0x4
 2821 0080 45       		.byte	0x45
 2822 0081 49       		.byte	0x49
 2823 0082 24       		.byte	0x24
 2824 0083 9F       		.byte	0x9f
 2825 0084 00       		.byte	0
 2826              	.LVUS20:
 2827 0085 03       		.uleb128 .LVU199
 2828 0086 01       		.uleb128 .LVU206
 2829 0087 01       		.uleb128 .LVU206
 2830 0088 03       		.uleb128 .LVU213
 2831 0089 03       		.uleb128 .LVU213
 2832 008a 04       		.uleb128 .LVU214
 2833 008b 04       		.uleb128 .LVU214
 2834 008c 03       		.uleb128 .LVU224
 2835 008d 03       		.uleb128 .LVU224
 2836 008e 03       		.uleb128 .LVU232
 2837 008f 03       		.uleb128 .LVU232
 2838 0090 04       		.uleb128 .LVU233
 2839 0091 04       		.uleb128 .LVU233
 2840 0092 00       		.uleb128 0
 2841              	.LLST20:
 2842 0093 06       		.byte	0x6
 2843 0094 C0000000 		.4byte	.LVL16
 2844 0098 04       		.byte	0x4
 2845 0099 00       		.uleb128 .LVL16-.LVL16
 2846 009a 0C       		.uleb128 .LVL17-.LVL16
 2847 009b 02       		.uleb128 0x2
 2848 009c 30       		.byte	0x30
 2849 009d 9F       		.byte	0x9f
 2850 009e 04       		.byte	0x4
ARM GAS  C:\Users\DEVELO~1\AppData\Local\Temp\ccvuQ95G.s 			page 51


 2851 009f 0C       		.uleb128 .LVL17-.LVL16
 2852 00a0 10       		.uleb128 .LVL18-.LVL16
 2853 00a1 04       		.uleb128 0x4
 2854 00a2 0A       		.byte	0xa
 2855 00a3 9903     		.2byte	0x399
 2856 00a5 9F       		.byte	0x9f
 2857 00a6 04       		.byte	0x4
 2858 00a7 10       		.uleb128 .LVL18-.LVL16
 2859 00a8 10       		.uleb128 .LVL18-.LVL16
 2860 00a9 06       		.uleb128 0x6
 2861 00aa 0C       		.byte	0xc
 2862 00ab 99030100 		.4byte	0x10399
 2863 00af 9F       		.byte	0x9f
 2864 00b0 04       		.byte	0x4
 2865 00b1 10       		.uleb128 .LVL18-.LVL16
 2866 00b2 1C       		.uleb128 .LVL19-.LVL16
 2867 00b3 06       		.uleb128 0x6
 2868 00b4 0C       		.byte	0xc
 2869 00b5 99030300 		.4byte	0x30399
 2870 00b9 9F       		.byte	0x9f
 2871 00ba 04       		.byte	0x4
 2872 00bb 1C       		.uleb128 .LVL19-.LVL16
 2873 00bc 22       		.uleb128 .LVL20-.LVL16
 2874 00bd 06       		.uleb128 0x6
 2875 00be 0C       		.byte	0xc
 2876 00bf 99030B00 		.4byte	0xb0399
 2877 00c3 9F       		.byte	0x9f
 2878 00c4 04       		.byte	0x4
 2879 00c5 22       		.uleb128 .LVL20-.LVL16
 2880 00c6 22       		.uleb128 .LVL20-.LVL16
 2881 00c7 06       		.uleb128 0x6
 2882 00c8 0C       		.byte	0xc
 2883 00c9 99034B00 		.4byte	0x4b0399
 2884 00cd 9F       		.byte	0x9f
 2885 00ce 04       		.byte	0x4
 2886 00cf 22       		.uleb128 .LVL20-.LVL16
 2887 00d0 8C02     		.uleb128 .LFE435-.LVL16
 2888 00d2 06       		.uleb128 0x6
 2889 00d3 0C       		.byte	0xc
 2890 00d4 99034B01 		.4byte	0x14b0399
 2891 00d8 9F       		.byte	0x9f
 2892 00d9 00       		.byte	0
 2893              	.LVUS15:
 2894 00da 01       		.uleb128 .LVU97
 2895 00db 00       		.uleb128 .LVU104
 2896              	.LLST15:
 2897 00dc 08       		.byte	0x8
 2898 00dd 10000000 		.4byte	.LVL13
 2899 00e1 18       		.uleb128 .LVL14-.LVL13
 2900 00e2 02       		.uleb128 0x2
 2901 00e3 31       		.byte	0x31
 2902 00e4 9F       		.byte	0x9f
 2903 00e5 00       		.byte	0
 2904              	.LVUS16:
 2905 00e6 01       		.uleb128 .LVU97
 2906 00e7 00       		.uleb128 .LVU104
 2907              	.LLST16:
ARM GAS  C:\Users\DEVELO~1\AppData\Local\Temp\ccvuQ95G.s 			page 52


 2908 00e8 08       		.byte	0x8
 2909 00e9 10000000 		.4byte	.LVL13
 2910 00ed 18       		.uleb128 .LVL14-.LVL13
 2911 00ee 02       		.uleb128 0x2
 2912 00ef 32       		.byte	0x32
 2913 00f0 9F       		.byte	0x9f
 2914 00f1 00       		.byte	0
 2915              	.LVUS22:
 2916 00f2 01       		.uleb128 .LVU283
 2917 00f3 00       		.uleb128 .LVU292
 2918              	.LLST22:
 2919 00f4 08       		.byte	0x8
 2920 00f5 42010000 		.4byte	.LVL21
 2921 00f9 1E       		.uleb128 .LVL22-.LVL21
 2922 00fa 02       		.uleb128 0x2
 2923 00fb 31       		.byte	0x31
 2924 00fc 9F       		.byte	0x9f
 2925 00fd 00       		.byte	0
 2926              	.LVUS23:
 2927 00fe 01       		.uleb128 .LVU283
 2928 00ff 00       		.uleb128 .LVU292
 2929              	.LLST23:
 2930 0100 08       		.byte	0x8
 2931 0101 42010000 		.4byte	.LVL21
 2932 0105 1E       		.uleb128 .LVL22-.LVL21
 2933 0106 04       		.uleb128 0x4
 2934 0107 40       		.byte	0x40
 2935 0108 49       		.byte	0x49
 2936 0109 24       		.byte	0x24
 2937 010a 9F       		.byte	0x9f
 2938 010b 00       		.byte	0
 2939              	.LVUS24:
 2940 010c 02       		.uleb128 .LVU294
 2941 010d 00       		.uleb128 .LVU301
 2942              	.LLST24:
 2943 010e 08       		.byte	0x8
 2944 010f 60010000 		.4byte	.LVL22
 2945 0113 1C       		.uleb128 .LVL23-.LVL22
 2946 0114 02       		.uleb128 0x2
 2947 0115 31       		.byte	0x31
 2948 0116 9F       		.byte	0x9f
 2949 0117 00       		.byte	0
 2950              	.LVUS25:
 2951 0118 02       		.uleb128 .LVU294
 2952 0119 00       		.uleb128 .LVU301
 2953              	.LLST25:
 2954 011a 08       		.byte	0x8
 2955 011b 60010000 		.4byte	.LVL22
 2956 011f 1C       		.uleb128 .LVL23-.LVL22
 2957 0120 04       		.uleb128 0x4
 2958 0121 40       		.byte	0x40
 2959 0122 4A       		.byte	0x4a
 2960 0123 24       		.byte	0x24
 2961 0124 9F       		.byte	0x9f
 2962 0125 00       		.byte	0
 2963              	.LVUS26:
 2964 0126 02       		.uleb128 .LVU303
ARM GAS  C:\Users\DEVELO~1\AppData\Local\Temp\ccvuQ95G.s 			page 53


 2965 0127 00       		.uleb128 .LVU310
 2966              	.LLST26:
 2967 0128 08       		.byte	0x8
 2968 0129 7C010000 		.4byte	.LVL23
 2969 012d 1C       		.uleb128 .LVL24-.LVL23
 2970 012e 02       		.uleb128 0x2
 2971 012f 31       		.byte	0x31
 2972 0130 9F       		.byte	0x9f
 2973 0131 00       		.byte	0
 2974              	.LVUS27:
 2975 0132 02       		.uleb128 .LVU303
 2976 0133 00       		.uleb128 .LVU310
 2977              	.LLST27:
 2978 0134 08       		.byte	0x8
 2979 0135 7C010000 		.4byte	.LVL23
 2980 0139 1C       		.uleb128 .LVL24-.LVL23
 2981 013a 05       		.uleb128 0x5
 2982 013b 40       		.byte	0x40
 2983 013c 4B       		.byte	0x4b
 2984 013d 24       		.byte	0x24
 2985 013e 1F       		.byte	0x1f
 2986 013f 9F       		.byte	0x9f
 2987 0140 00       		.byte	0
 2988              	.LVUS1:
 2989 0141 02       		.uleb128 .LVU2
 2990 0142 00       		.uleb128 .LVU15
 2991              	.LLST1:
 2992 0143 08       		.byte	0x8
 2993 0144 00000000 		.4byte	.LVL0
 2994 0148 2A       		.uleb128 .LVL1-.LVL0
 2995 0149 06       		.uleb128 0x6
 2996 014a 0C       		.byte	0xc
 2997 014b FFFFFF7F 		.4byte	0x7fffffff
 2998 014f 9F       		.byte	0x9f
 2999 0150 00       		.byte	0
 3000              	.LVUS3:
 3001 0151 02       		.uleb128 .LVU17
 3002 0152 00       		.uleb128 .LVU23
 3003              	.LLST3:
 3004 0153 08       		.byte	0x8
 3005 0154 2A000000 		.4byte	.LVL1
 3006 0158 14       		.uleb128 .LVL2-.LVL1
 3007 0159 03       		.uleb128 0x3
 3008 015a 09       		.byte	0x9
 3009 015b FF       		.byte	0xff
 3010 015c 9F       		.byte	0x9f
 3011 015d 00       		.byte	0
 3012              	.LVUS5:
 3013 015e 02       		.uleb128 .LVU25
 3014 015f 00       		.uleb128 .LVU33
 3015              	.LLST5:
 3016 0160 08       		.byte	0x8
 3017 0161 3E000000 		.4byte	.LVL2
 3018 0165 10       		.uleb128 .LVL3-.LVL2
 3019 0166 06       		.uleb128 0x6
 3020 0167 0C       		.byte	0xc
 3021 0168 FFEFFF7F 		.4byte	0x7fffefff
ARM GAS  C:\Users\DEVELO~1\AppData\Local\Temp\ccvuQ95G.s 			page 54


 3022 016c 9F       		.byte	0x9f
 3023 016d 00       		.byte	0
 3024              	.LVUS7:
 3025 016e 02       		.uleb128 .LVU35
 3026 016f 00       		.uleb128 .LVU41
 3027              	.LLST7:
 3028 0170 08       		.byte	0x8
 3029 0171 4E000000 		.4byte	.LVL3
 3030 0175 1A       		.uleb128 .LVL4-.LVL3
 3031 0176 04       		.uleb128 0x4
 3032 0177 0B       		.byte	0xb
 3033 0178 00F8     		.2byte	0xf800
 3034 017a 9F       		.byte	0x9f
 3035 017b 00       		.byte	0
 3036              	.LVUS8:
 3037 017c 02       		.uleb128 .LVU43
 3038 017d 00       		.uleb128 .LVU49
 3039              	.LLST8:
 3040 017e 08       		.byte	0x8
 3041 017f 68000000 		.4byte	.LVL4
 3042 0183 14       		.uleb128 .LVL5-.LVL4
 3043 0184 03       		.uleb128 0x3
 3044 0185 09       		.byte	0x9
 3045 0186 FF       		.byte	0xff
 3046 0187 9F       		.byte	0x9f
 3047 0188 00       		.byte	0
 3048              	.LVUS9:
 3049 0189 02       		.uleb128 .LVU51
 3050 018a 00       		.uleb128 .LVU57
 3051              	.LLST9:
 3052 018b 08       		.byte	0x8
 3053 018c 7C000000 		.4byte	.LVL5
 3054 0190 14       		.uleb128 .LVL6-.LVL5
 3055 0191 03       		.uleb128 0x3
 3056 0192 09       		.byte	0x9
 3057 0193 FF       		.byte	0xff
 3058 0194 9F       		.byte	0x9f
 3059 0195 00       		.byte	0
 3060              	.LVUS10:
 3061 0196 02       		.uleb128 .LVU59
 3062 0197 00       		.uleb128 .LVU65
 3063              	.LLST10:
 3064 0198 08       		.byte	0x8
 3065 0199 90000000 		.4byte	.LVL6
 3066 019d 14       		.uleb128 .LVL7-.LVL6
 3067 019e 03       		.uleb128 0x3
 3068 019f 09       		.byte	0x9
 3069 01a0 FF       		.byte	0xff
 3070 01a1 9F       		.byte	0x9f
 3071 01a2 00       		.byte	0
 3072              	.LVUS11:
 3073 01a3 02       		.uleb128 .LVU67
 3074 01a4 00       		.uleb128 .LVU73
 3075              	.LLST11:
 3076 01a5 08       		.byte	0x8
 3077 01a6 A4000000 		.4byte	.LVL7
 3078 01aa 14       		.uleb128 .LVL8-.LVL7
ARM GAS  C:\Users\DEVELO~1\AppData\Local\Temp\ccvuQ95G.s 			page 55


 3079 01ab 03       		.uleb128 0x3
 3080 01ac 09       		.byte	0x9
 3081 01ad FF       		.byte	0xff
 3082 01ae 9F       		.byte	0x9f
 3083 01af 00       		.byte	0
 3084              	.LVUS12:
 3085 01b0 02       		.uleb128 .LVU75
 3086 01b1 00       		.uleb128 .LVU81
 3087              	.LLST12:
 3088 01b2 08       		.byte	0x8
 3089 01b3 B8000000 		.4byte	.LVL8
 3090 01b7 14       		.uleb128 .LVL9-.LVL8
 3091 01b8 03       		.uleb128 0x3
 3092 01b9 09       		.byte	0x9
 3093 01ba FF       		.byte	0xff
 3094 01bb 9F       		.byte	0x9f
 3095 01bc 00       		.byte	0
 3096              	.Ldebug_loc3:
 3097              		.section	.debug_aranges,"",%progbits
 3098 0000 24000000 		.4byte	0x24
 3099 0004 0200     		.2byte	0x2
 3100 0006 00000000 		.4byte	.Ldebug_info0
 3101 000a 04       		.byte	0x4
 3102 000b 00       		.byte	0
 3103 000c 0000     		.2byte	0
 3104 000e 0000     		.2byte	0
 3105 0010 00000000 		.4byte	.LFB434
 3106 0014 EC000000 		.4byte	.LFE434-.LFB434
 3107 0018 00000000 		.4byte	.LFB435
 3108 001c CC010000 		.4byte	.LFE435-.LFB435
 3109 0020 00000000 		.4byte	0
 3110 0024 00000000 		.4byte	0
 3111              		.section	.debug_rnglists,"",%progbits
 3112              	.Ldebug_ranges0:
 3113 0000 7A000000 		.4byte	.Ldebug_ranges3-.Ldebug_ranges2
 3114              	.Ldebug_ranges2:
 3115 0004 0500     		.2byte	0x5
 3116 0006 04       		.byte	0x4
 3117 0007 00       		.byte	0
 3118 0008 00000000 		.4byte	0
 3119              	.LLRL0:
 3120 000c 05       		.byte	0x5
 3121 000d 00000000 		.4byte	.LBB29
 3122 0011 04       		.byte	0x4
 3123 0012 00       		.uleb128 .LBB29-.LBB29
 3124 0013 00       		.uleb128 .LBE29-.LBB29
 3125 0014 04       		.byte	0x4
 3126 0015 02       		.uleb128 .LBB34-.LBB29
 3127 0016 04       		.uleb128 .LBE34-.LBB29
 3128 0017 04       		.byte	0x4
 3129 0018 0C       		.uleb128 .LBB43-.LBB29
 3130 0019 10       		.uleb128 .LBE43-.LBB29
 3131 001a 04       		.byte	0x4
 3132 001b 12       		.uleb128 .LBB45-.LBB29
 3133 001c 2A       		.uleb128 .LBE45-.LBB29
 3134 001d 00       		.byte	0
 3135              	.LLRL2:
ARM GAS  C:\Users\DEVELO~1\AppData\Local\Temp\ccvuQ95G.s 			page 56


 3136 001e 05       		.byte	0x5
 3137 001f 04000000 		.4byte	.LBB35
 3138 0023 04       		.byte	0x4
 3139 0024 00       		.uleb128 .LBB35-.LBB35
 3140 0025 06       		.uleb128 .LBE35-.LBB35
 3141 0026 04       		.byte	0x4
 3142 0027 26       		.uleb128 .LBB46-.LBB35
 3143 0028 3A       		.uleb128 .LBE46-.LBB35
 3144 0029 00       		.byte	0
 3145              	.LLRL4:
 3146 002a 05       		.byte	0x5
 3147 002b 0A000000 		.4byte	.LBB38
 3148 002f 04       		.byte	0x4
 3149 0030 00       		.uleb128 .LBB38-.LBB38
 3150 0031 02       		.uleb128 .LBE38-.LBB38
 3151 0032 04       		.byte	0x4
 3152 0033 06       		.uleb128 .LBB44-.LBB38
 3153 0034 08       		.uleb128 .LBE44-.LBB38
 3154 0035 04       		.byte	0x4
 3155 0036 34       		.uleb128 .LBB47-.LBB38
 3156 0037 3C       		.uleb128 .LBE47-.LBB38
 3157 0038 04       		.byte	0x4
 3158 0039 3E       		.uleb128 .LBB51-.LBB38
 3159 003a 44       		.uleb128 .LBE51-.LBB38
 3160 003b 00       		.byte	0
 3161              	.LLRL6:
 3162 003c 05       		.byte	0x5
 3163 003d 46000000 		.4byte	.LBB48
 3164 0041 04       		.byte	0x4
 3165 0042 00       		.uleb128 .LBB48-.LBB48
 3166 0043 02       		.uleb128 .LBE48-.LBB48
 3167 0044 04       		.byte	0x4
 3168 0045 08       		.uleb128 .LBB52-.LBB48
 3169 0046 22       		.uleb128 .LBE52-.LBB48
 3170 0047 00       		.byte	0
 3171              	.LLRL14:
 3172 0048 05       		.byte	0x5
 3173 0049 00000000 		.4byte	.LBB76
 3174 004d 04       		.byte	0x4
 3175 004e 00       		.uleb128 .LBB76-.LBB76
 3176 004f 02       		.uleb128 .LBE76-.LBB76
 3177 0050 04       		.byte	0x4
 3178 0051 10       		.uleb128 .LBB84-.LBB76
 3179 0052 28       		.uleb128 .LBE84-.LBB76
 3180 0053 00       		.byte	0
 3181              	.LLRL17:
 3182 0054 05       		.byte	0x5
 3183 0055 02000000 		.4byte	.LBB79
 3184 0059 04       		.byte	0x4
 3185 005a 00       		.uleb128 .LBB79-.LBB79
 3186 005b 02       		.uleb128 .LBE79-.LBB79
 3187 005c 04       		.byte	0x4
 3188 005d 04       		.uleb128 .LBB83-.LBB79
 3189 005e 06       		.uleb128 .LBE83-.LBB79
 3190 005f 04       		.byte	0x4
 3191 0060 26       		.uleb128 .LBB85-.LBB79
 3192 0061 4C       		.uleb128 .LBE85-.LBB79
ARM GAS  C:\Users\DEVELO~1\AppData\Local\Temp\ccvuQ95G.s 			page 57


 3193 0062 00       		.byte	0
 3194              	.LLRL21:
 3195 0063 05       		.byte	0x5
 3196 0064 42010000 		.4byte	.LBB89
 3197 0068 04       		.byte	0x4
 3198 0069 00       		.uleb128 .LBB89-.LBB89
 3199 006a 04       		.uleb128 .LBE89-.LBB89
 3200 006b 04       		.byte	0x4
 3201 006c 06       		.uleb128 .LBB92-.LBB89
 3202 006d 1E       		.uleb128 .LBE92-.LBB89
 3203 006e 00       		.byte	0
 3204              	.LLRL28:
 3205 006f 07       		.byte	0x7
 3206 0070 00000000 		.4byte	.LFB434
 3207 0074 EC01     		.uleb128 .LFE434-.LFB434
 3208 0076 07       		.byte	0x7
 3209 0077 00000000 		.4byte	.LFB435
 3210 007b CC03     		.uleb128 .LFE435-.LFB435
 3211 007d 00       		.byte	0
 3212              	.Ldebug_ranges3:
 3213              		.section	.debug_line,"",%progbits
 3214              	.Ldebug_line0:
 3215 0000 23070000 		.section	.debug_str,"MS",%progbits,1
 3215      0300E601 
 3215      00000201 
 3215      FB0E0D00 
 3215      01010101 
 3216              	.LASF127:
 3217 0000 68616C5F 		.ascii	"hal_lld_init\000"
 3217      6C6C645F 
 3217      696E6974 
 3217      00
 3218              	.LASF68:
 3219 000d 504C4C31 		.ascii	"PLL1DIVR\000"
 3219      44495652 
 3219      00
 3220              	.LASF56:
 3221 0016 574B5550 		.ascii	"WKUPFR\000"
 3221      465200
 3222              	.LASF3:
 3223 001d 7369676E 		.ascii	"signed char\000"
 3223      65642063 
 3223      68617200 
 3224              	.LASF112:
 3225 0029 41504231 		.ascii	"APB1HLPENR\000"
 3225      484C5045 
 3225      4E5200
 3226              	.LASF7:
 3227 0034 6C6F6E67 		.ascii	"long int\000"
 3227      20696E74 
 3227      00
 3228              	.LASF16:
 3229 003d 4F505443 		.ascii	"OPTCR\000"
 3229      5200
 3230              	.LASF21:
 3231 0043 50524152 		.ascii	"PRAR_PRG1\000"
 3231      5F505247 
ARM GAS  C:\Users\DEVELO~1\AppData\Local\Temp\ccvuQ95G.s 			page 58


 3231      3100
 3232              	.LASF40:
 3233 004d 50524152 		.ascii	"PRAR_PRG2\000"
 3233      5F505247 
 3233      3200
 3234              	.LASF142:
 3235 0057 2E2E2F2E 		.ascii	"../../../os/hal/ports/STM32/STM32H7xx/hal_lld.c\000"
 3235      2E2F2E2E 
 3235      2F6F732F 
 3235      68616C2F 
 3235      706F7274 
 3236              	.LASF139:
 3237 0087 5F5F7263 		.ascii	"__rccResetAPB2\000"
 3237      63526573 
 3237      65744150 
 3237      423200
 3238              	.LASF94:
 3239 0096 4433414D 		.ascii	"D3AMR\000"
 3239      5200
 3240              	.LASF137:
 3241 009c 5F5F7263 		.ascii	"__rccResetAPB4\000"
 3241      63526573 
 3241      65744150 
 3241      423400
 3242              	.LASF107:
 3243 00ab 41484231 		.ascii	"AHB1LPENR\000"
 3243      4C50454E 
 3243      5200
 3244              	.LASF78:
 3245 00b5 43494552 		.ascii	"CIER\000"
 3245      00
 3246              	.LASF87:
 3247 00ba 41484234 		.ascii	"AHB4RSTR\000"
 3247      52535452 
 3247      00
 3248              	.LASF1:
 3249 00c3 6C6F6E67 		.ascii	"long long int\000"
 3249      206C6F6E 
 3249      6720696E 
 3249      7400
 3250              	.LASF26:
 3251 00d1 424F4F54 		.ascii	"BOOT_CUR\000"
 3251      5F435552 
 3251      00
 3252              	.LASF55:
 3253 00da 574B5550 		.ascii	"WKUPCR\000"
 3253      435200
 3254              	.LASF123:
 3255 00e1 6F6E6D61 		.ascii	"onmask\000"
 3255      736B00
 3256              	.LASF51:
 3257 00e8 464C4153 		.ascii	"FLASH_TypeDef\000"
 3257      485F5479 
 3257      70654465 
 3257      6600
 3258              	.LASF9:
 3259 00f6 6C6F6E67 		.ascii	"long long unsigned int\000"
ARM GAS  C:\Users\DEVELO~1\AppData\Local\Temp\ccvuQ95G.s 			page 59


 3259      206C6F6E 
 3259      6720756E 
 3259      7369676E 
 3259      65642069 
 3260              	.LASF19:
 3261 010d 4F505443 		.ascii	"OPTCCR\000"
 3261      435200
 3262              	.LASF95:
 3263 0114 52455345 		.ascii	"RESERVED11\000"
 3263      52564544 
 3263      313100
 3264              	.LASF105:
 3265 011f 52455345 		.ascii	"RESERVED12\000"
 3265      52564544 
 3265      313200
 3266              	.LASF115:
 3267 012a 52455345 		.ascii	"RESERVED13\000"
 3267      52564544 
 3267      313300
 3268              	.LASF49:
 3269 0135 43524344 		.ascii	"CRCDATA2\000"
 3269      41544132 
 3269      00
 3270              	.LASF143:
 3271 013e 433A5C50 		.ascii	"C:\\PROJET\\ChibiOS project\\ChibiOS_21.11.4\\demos"
 3271      524F4A45 
 3271      545C4368 
 3271      6962694F 
 3271      53207072 
 3272 016d 5C53544D 		.ascii	"\\STM32\\RT-STM32H743ZI_REV_XY-NUCLEO144\000"
 3272      33325C52 
 3272      542D5354 
 3272      4D333248 
 3272      3734335A 
 3273              	.LASF69:
 3274 0194 504C4C31 		.ascii	"PLL1FRACR\000"
 3274      46524143 
 3274      5200
 3275              	.LASF91:
 3276 019e 41504232 		.ascii	"APB2RSTR\000"
 3276      52535452 
 3276      00
 3277              	.LASF129:
 3278 01a7 696E6974 		.ascii	"init_bkp_domain\000"
 3278      5F626B70 
 3278      5F646F6D 
 3278      61696E00 
 3279              	.LASF32:
 3280 01b7 43524344 		.ascii	"CRCDATA\000"
 3280      41544100 
 3281              	.LASF14:
 3282 01bf 4F50544B 		.ascii	"OPTKEYR\000"
 3282      45595200 
 3283              	.LASF22:
 3284 01c7 53434152 		.ascii	"SCAR_CUR1\000"
 3284      5F435552 
 3284      3100
ARM GAS  C:\Users\DEVELO~1\AppData\Local\Temp\ccvuQ95G.s 			page 60


 3285              	.LASF125:
 3286 01d1 6366676D 		.ascii	"cfgmask\000"
 3286      61736B00 
 3287              	.LASF41:
 3288 01d9 53434152 		.ascii	"SCAR_CUR2\000"
 3288      5F435552 
 3288      3200
 3289              	.LASF65:
 3290 01e3 44334346 		.ascii	"D3CFGR\000"
 3290      475200
 3291              	.LASF67:
 3292 01ea 504C4C43 		.ascii	"PLLCFGR\000"
 3292      46475200 
 3293              	.LASF60:
 3294 01f2 43525243 		.ascii	"CRRCR\000"
 3294      5200
 3295              	.LASF79:
 3296 01f8 43494652 		.ascii	"CIFR\000"
 3296      00
 3297              	.LASF72:
 3298 01fd 504C4C33 		.ascii	"PLL3DIVR\000"
 3298      44495652 
 3298      00
 3299              	.LASF10:
 3300 0206 5F5F7569 		.ascii	"__uint32_t\000"
 3300      6E743332 
 3300      5F7400
 3301              	.LASF130:
 3302 0211 6D61736B 		.ascii	"mask\000"
 3302      00
 3303              	.LASF75:
 3304 0216 44324343 		.ascii	"D2CCIP1R\000"
 3304      49503152 
 3304      00
 3305              	.LASF77:
 3306 021f 44334343 		.ascii	"D3CCIPR\000"
 3306      49505200 
 3307              	.LASF126:
 3308 0227 73746D33 		.ascii	"stm32_clock_init\000"
 3308      325F636C 
 3308      6F636B5F 
 3308      696E6974 
 3308      00
 3309              	.LASF71:
 3310 0238 504C4C32 		.ascii	"PLL2FRACR\000"
 3310      46524143 
 3310      5200
 3311              	.LASF0:
 3312 0242 756E7369 		.ascii	"unsigned int\000"
 3312      676E6564 
 3312      20696E74 
 3312      00
 3313              	.LASF57:
 3314 024f 574B5550 		.ascii	"WKUPEPR\000"
 3314      45505200 
 3315              	.LASF121:
 3316 0257 53797374 		.ascii	"SystemCoreClock\000"
ARM GAS  C:\Users\DEVELO~1\AppData\Local\Temp\ccvuQ95G.s 			page 61


 3316      656D436F 
 3316      7265436C 
 3316      6F636B00 
 3317              	.LASF8:
 3318 0267 6C6F6E67 		.ascii	"long unsigned int\000"
 3318      20756E73 
 3318      69676E65 
 3318      6420696E 
 3318      7400
 3319              	.LASF53:
 3320 0279 43505543 		.ascii	"CPUCR\000"
 3320      5200
 3321              	.LASF116:
 3322 027f 5243435F 		.ascii	"RCC_TypeDef\000"
 3322      54797065 
 3322      44656600 
 3323              	.LASF141:
 3324 028b 474E5520 		.ascii	"GNU C17 11.3.1 20220712 -mcpu=cortex-m7 -mthumb -mf"
 3324      43313720 
 3324      31312E33 
 3324      2E312032 
 3324      30323230 
 3325 02be 6C6F6174 		.ascii	"loat-abi=soft -march=armv7e-m -ggdb -O2 -fomit-fram"
 3325      2D616269 
 3325      3D736F66 
 3325      74202D6D 
 3325      61726368 
 3326 02f1 652D706F 		.ascii	"e-pointer -falign-functions=16 -ffunction-sections "
 3326      696E7465 
 3326      72202D66 
 3326      616C6967 
 3326      6E2D6675 
 3327 0324 2D666461 		.ascii	"-fdata-sections -fno-common\000"
 3327      74612D73 
 3327      65637469 
 3327      6F6E7320 
 3327      2D666E6F 
 3328              	.LASF27:
 3329 0340 424F4F54 		.ascii	"BOOT_PRG\000"
 3329      5F505247 
 3329      00
 3330              	.LASF6:
 3331 0349 73686F72 		.ascii	"short unsigned int\000"
 3331      7420756E 
 3331      7369676E 
 3331      65642069 
 3331      6E7400
 3332              	.LASF66:
 3333 035c 504C4C43 		.ascii	"PLLCKSELR\000"
 3333      4B53454C 
 3333      5200
 3334              	.LASF59:
 3335 0366 48534943 		.ascii	"HSICFGR\000"
 3335      46475200 
 3336              	.LASF84:
 3337 036e 41484233 		.ascii	"AHB3RSTR\000"
 3337      52535452 
ARM GAS  C:\Users\DEVELO~1\AppData\Local\Temp\ccvuQ95G.s 			page 62


 3337      00
 3338              	.LASF102:
 3339 0377 41504231 		.ascii	"APB1HENR\000"
 3339      48454E52 
 3339      00
 3340              	.LASF76:
 3341 0380 44324343 		.ascii	"D2CCIP2R\000"
 3341      49503252 
 3341      00
 3342              	.LASF20:
 3343 0389 50524152 		.ascii	"PRAR_CUR1\000"
 3343      5F435552 
 3343      3100
 3344              	.LASF39:
 3345 0393 50524152 		.ascii	"PRAR_CUR2\000"
 3345      5F435552 
 3345      3200
 3346              	.LASF89:
 3347 039d 41504231 		.ascii	"APB1LRSTR\000"
 3347      4C525354 
 3347      5200
 3348              	.LASF113:
 3349 03a7 41504232 		.ascii	"APB2LPENR\000"
 3349      4C50454E 
 3349      5200
 3350              	.LASF73:
 3351 03b1 504C4C33 		.ascii	"PLL3FRACR\000"
 3351      46524143 
 3351      5200
 3352              	.LASF92:
 3353 03bb 41504234 		.ascii	"APB4RSTR\000"
 3353      52535452 
 3353      00
 3354              	.LASF58:
 3355 03c4 5057525F 		.ascii	"PWR_TypeDef\000"
 3355      54797065 
 3355      44656600 
 3356              	.LASF23:
 3357 03d0 53434152 		.ascii	"SCAR_PRG1\000"
 3357      5F505247 
 3357      3100
 3358              	.LASF42:
 3359 03da 53434152 		.ascii	"SCAR_PRG2\000"
 3359      5F505247 
 3359      3200
 3360              	.LASF104:
 3361 03e4 41504234 		.ascii	"APB4ENR\000"
 3361      454E5200 
 3362              	.LASF132:
 3363 03ec 72636345 		.ascii	"rccEnableAPB4\000"
 3363      6E61626C 
 3363      65415042 
 3363      3400
 3364              	.LASF25:
 3365 03fa 5750534E 		.ascii	"WPSN_PRG1\000"
 3365      5F505247 
 3365      3100
ARM GAS  C:\Users\DEVELO~1\AppData\Local\Temp\ccvuQ95G.s 			page 63


 3366              	.LASF44:
 3367 0404 5750534E 		.ascii	"WPSN_PRG2\000"
 3367      5F505247 
 3367      3200
 3368              	.LASF31:
 3369 040e 43524345 		.ascii	"CRCEADD1\000"
 3369      41444431 
 3369      00
 3370              	.LASF48:
 3371 0417 43524345 		.ascii	"CRCEADD2\000"
 3371      41444432 
 3371      00
 3372              	.LASF128:
 3373 0420 696E6974 		.ascii	"init_pwr\000"
 3373      5F707772 
 3373      00
 3374              	.LASF90:
 3375 0429 41504231 		.ascii	"APB1HRSTR\000"
 3375      48525354 
 3375      5200
 3376              	.LASF29:
 3377 0433 43524343 		.ascii	"CRCCR1\000"
 3377      523100
 3378              	.LASF46:
 3379 043a 43524343 		.ascii	"CRCCR2\000"
 3379      523200
 3380              	.LASF17:
 3381 0441 4F505453 		.ascii	"OPTSR_CUR\000"
 3381      525F4355 
 3381      5200
 3382              	.LASF136:
 3383 044b 5F5F7263 		.ascii	"__rccResetAHB1\000"
 3383      63526573 
 3383      65744148 
 3383      423100
 3384              	.LASF135:
 3385 045a 5F5F7263 		.ascii	"__rccResetAHB2\000"
 3385      63526573 
 3385      65744148 
 3385      423200
 3386              	.LASF134:
 3387 0469 5F5F7263 		.ascii	"__rccResetAHB3\000"
 3387      63526573 
 3387      65744148 
 3387      423300
 3388              	.LASF133:
 3389 0478 5F5F7263 		.ascii	"__rccResetAHB4\000"
 3389      63526573 
 3389      65744148 
 3389      423400
 3390              	.LASF108:
 3391 0487 41484232 		.ascii	"AHB2LPENR\000"
 3391      4C50454E 
 3391      5200
 3392              	.LASF110:
 3393 0491 41504233 		.ascii	"APB3LPENR\000"
 3393      4C50454E 
ARM GAS  C:\Users\DEVELO~1\AppData\Local\Temp\ccvuQ95G.s 			page 64


 3393      5200
 3394              	.LASF124:
 3395 049b 7264796D 		.ascii	"rdymask\000"
 3395      61736B00 
 3396              	.LASF100:
 3397 04a3 41504233 		.ascii	"APB3ENR\000"
 3397      454E5200 
 3398              	.LASF118:
 3399 04ab 69727149 		.ascii	"irqInit\000"
 3399      6E697400 
 3400              	.LASF99:
 3401 04b3 41484234 		.ascii	"AHB4ENR\000"
 3401      454E5200 
 3402              	.LASF28:
 3403 04bb 52455345 		.ascii	"RESERVED0\000"
 3403      52564544 
 3403      3000
 3404              	.LASF34:
 3405 04c5 52455345 		.ascii	"RESERVED1\000"
 3405      52564544 
 3405      3100
 3406              	.LASF36:
 3407 04cf 52455345 		.ascii	"RESERVED2\000"
 3407      52564544 
 3407      3200
 3408              	.LASF38:
 3409 04d9 52455345 		.ascii	"RESERVED3\000"
 3409      52564544 
 3409      3300
 3410              	.LASF64:
 3411 04e3 44324346 		.ascii	"D2CFGR\000"
 3411      475200
 3412              	.LASF81:
 3413 04ea 52455345 		.ascii	"RESERVED5\000"
 3413      52564544 
 3413      3500
 3414              	.LASF83:
 3415 04f4 52455345 		.ascii	"RESERVED6\000"
 3415      52564544 
 3415      3600
 3416              	.LASF93:
 3417 04fe 52455345 		.ascii	"RESERVED8\000"
 3417      52564544 
 3417      3800
 3418              	.LASF117:
 3419 0508 5F426F6F 		.ascii	"_Bool\000"
 3419      6C00
 3420              	.LASF70:
 3421 050e 504C4C32 		.ascii	"PLL2DIVR\000"
 3421      44495652 
 3421      00
 3422              	.LASF4:
 3423 0517 756E7369 		.ascii	"unsigned char\000"
 3423      676E6564 
 3423      20636861 
 3423      7200
 3424              	.LASF5:
ARM GAS  C:\Users\DEVELO~1\AppData\Local\Temp\ccvuQ95G.s 			page 65


 3425 0525 73686F72 		.ascii	"short int\000"
 3425      7420696E 
 3425      7400
 3426              	.LASF106:
 3427 052f 41484233 		.ascii	"AHB3LPENR\000"
 3427      4C50454E 
 3427      5200
 3428              	.LASF114:
 3429 0539 41504234 		.ascii	"APB4LPENR\000"
 3429      4C50454E 
 3429      5200
 3430              	.LASF33:
 3431 0543 4543435F 		.ascii	"ECC_FA1\000"
 3431      46413100 
 3432              	.LASF50:
 3433 054b 4543435F 		.ascii	"ECC_FA2\000"
 3433      46413200 
 3434              	.LASF103:
 3435 0553 41504232 		.ascii	"APB2ENR\000"
 3435      454E5200 
 3436              	.LASF96:
 3437 055b 41484233 		.ascii	"AHB3ENR\000"
 3437      454E5200 
 3438              	.LASF138:
 3439 0563 5F5F7263 		.ascii	"__rccResetAPB3\000"
 3439      63526573 
 3439      65744150 
 3439      423300
 3440              	.LASF45:
 3441 0572 52455345 		.ascii	"RESERVED4\000"
 3441      52564544 
 3441      3400
 3442              	.LASF11:
 3443 057c 75696E74 		.ascii	"uint32_t\000"
 3443      33325F74 
 3443      00
 3444              	.LASF54:
 3445 0585 44334352 		.ascii	"D3CR\000"
 3445      00
 3446              	.LASF74:
 3447 058a 44314343 		.ascii	"D1CCIPR\000"
 3447      49505200 
 3448              	.LASF119:
 3449 0592 646D6149 		.ascii	"dmaInit\000"
 3449      6E697400 
 3450              	.LASF2:
 3451 059a 6C6F6E67 		.ascii	"long double\000"
 3451      20646F75 
 3451      626C6500 
 3452              	.LASF12:
 3453 05a6 63686172 		.ascii	"char\000"
 3453      00
 3454              	.LASF18:
 3455 05ab 4F505453 		.ascii	"OPTSR_PRG\000"
 3455      525F5052 
 3455      4700
 3456              	.LASF86:
ARM GAS  C:\Users\DEVELO~1\AppData\Local\Temp\ccvuQ95G.s 			page 66


 3457 05b5 41484232 		.ascii	"AHB2RSTR\000"
 3457      52535452 
 3457      00
 3458              	.LASF35:
 3459 05be 4B455952 		.ascii	"KEYR2\000"
 3459      3200
 3460              	.LASF109:
 3461 05c4 41484234 		.ascii	"AHB4LPENR\000"
 3461      4C50454E 
 3461      5200
 3462              	.LASF13:
 3463 05ce 4B455952 		.ascii	"KEYR1\000"
 3463      3100
 3464              	.LASF82:
 3465 05d4 42444352 		.ascii	"BDCR\000"
 3465      00
 3466              	.LASF98:
 3467 05d9 41484232 		.ascii	"AHB2ENR\000"
 3467      454E5200 
 3468              	.LASF88:
 3469 05e1 41504233 		.ascii	"APB3RSTR\000"
 3469      52535452 
 3469      00
 3470              	.LASF61:
 3471 05ea 43534943 		.ascii	"CSICFGR\000"
 3471      46475200 
 3472              	.LASF85:
 3473 05f2 41484231 		.ascii	"AHB1RSTR\000"
 3473      52535452 
 3473      00
 3474              	.LASF24:
 3475 05fb 5750534E 		.ascii	"WPSN_CUR1\000"
 3475      5F435552 
 3475      3100
 3476              	.LASF43:
 3477 0605 5750534E 		.ascii	"WPSN_CUR2\000"
 3477      5F435552 
 3477      3200
 3478              	.LASF111:
 3479 060f 41504231 		.ascii	"APB1LLPENR\000"
 3479      4C4C5045 
 3479      4E5200
 3480              	.LASF15:
 3481 061a 43435231 		.ascii	"CCR1\000"
 3481      00
 3482              	.LASF37:
 3483 061f 43435232 		.ascii	"CCR2\000"
 3483      00
 3484              	.LASF80:
 3485 0624 43494352 		.ascii	"CICR\000"
 3485      00
 3486              	.LASF140:
 3487 0629 5F5F7263 		.ascii	"__rccResetAPB1H\000"
 3487      63526573 
 3487      65744150 
 3487      42314800 
 3488              	.LASF144:
ARM GAS  C:\Users\DEVELO~1\AppData\Local\Temp\ccvuQ95G.s 			page 67


 3489 0639 5F5F7263 		.ascii	"__rccResetAPB1L\000"
 3489      63526573 
 3489      65744150 
 3489      42314C00 
 3490              	.LASF30:
 3491 0649 43524353 		.ascii	"CRCSADD1\000"
 3491      41444431 
 3491      00
 3492              	.LASF47:
 3493 0652 43524353 		.ascii	"CRCSADD2\000"
 3493      41444432 
 3493      00
 3494              	.LASF122:
 3495 065b 63666772 		.ascii	"cfgr\000"
 3495      00
 3496              	.LASF97:
 3497 0660 41484231 		.ascii	"AHB1ENR\000"
 3497      454E5200 
 3498              	.LASF62:
 3499 0668 43464752 		.ascii	"CFGR\000"
 3499      00
 3500              	.LASF101:
 3501 066d 41504231 		.ascii	"APB1LENR\000"
 3501      4C454E52 
 3501      00
 3502              	.LASF52:
 3503 0676 43535231 		.ascii	"CSR1\000"
 3503      00
 3504              	.LASF131:
 3505 067b 72636345 		.ascii	"rccEnableAHB2\000"
 3505      6E61626C 
 3505      65414842 
 3505      3200
 3506              	.LASF120:
 3507 0689 62646D61 		.ascii	"bdmaInit\000"
 3507      496E6974 
 3507      00
 3508              	.LASF63:
 3509 0692 44314346 		.ascii	"D1CFGR\000"
 3509      475200
 3510              		.ident	"GCC: (Arm GNU Toolchain 11.3.Rel1) 11.3.1 20220712"
ARM GAS  C:\Users\DEVELO~1\AppData\Local\Temp\ccvuQ95G.s 			page 68


DEFINED SYMBOLS
                            *ABS*:00000000 hal_lld.c
C:\Users\DEVELO~1\AppData\Local\Temp\ccvuQ95G.s:18     .text.hal_lld_init:00000000 $t
C:\Users\DEVELO~1\AppData\Local\Temp\ccvuQ95G.s:25     .text.hal_lld_init:00000000 hal_lld_init
C:\Users\DEVELO~1\AppData\Local\Temp\ccvuQ95G.s:284    .text.hal_lld_init:000000dc $d
C:\Users\DEVELO~1\AppData\Local\Temp\ccvuQ95G.s:292    .text.stm32_clock_init:00000000 $t
C:\Users\DEVELO~1\AppData\Local\Temp\ccvuQ95G.s:299    .text.stm32_clock_init:00000000 stm32_clock_init
C:\Users\DEVELO~1\AppData\Local\Temp\ccvuQ95G.s:763    .text.stm32_clock_init:0000019c $d
C:\Users\DEVELO~1\AppData\Local\Temp\ccvuQ95G.s:783    .data.SystemCoreClock:00000000 SystemCoreClock
C:\Users\DEVELO~1\AppData\Local\Temp\ccvuQ95G.s:780    .data.SystemCoreClock:00000000 $d

UNDEFINED SYMBOLS
bdmaInit
dmaInit
irqInit
