ARM GAS  C:\Users\DEVELO~1\AppData\Local\Temp\ccoIuiqi.s 			page 1


   1              		.cpu cortex-m7
   2              		.arch armv7e-m
   3              		.fpu softvfp
   4              		.eabi_attribute 20, 1
   5              		.eabi_attribute 21, 1
   6              		.eabi_attribute 23, 3
   7              		.eabi_attribute 24, 1
   8              		.eabi_attribute 25, 1
   9              		.eabi_attribute 26, 1
  10              		.eabi_attribute 30, 2
  11              		.eabi_attribute 34, 1
  12              		.eabi_attribute 18, 4
  13              		.file	"hal_adc.c"
  14              		.text
  15              	.Ltext0:
  16              		.cfi_sections	.debug_frame
  17              		.section	.text.adcInit,"ax",%progbits
  18              		.align	1
  19              		.p2align 4,,15
  20              		.global	adcInit
  21              		.syntax unified
  22              		.thumb
  23              		.thumb_func
  24              		.type	adcInit, %function
  25              	adcInit:
  26              	.LFB432:
  27              		.file 1 "../../../os/hal/src/hal_adc.c"
  28              		.loc 1 56 20 view -0
  29              		.cfi_startproc
  30              		@ args = 0, pretend = 0, frame = 0
  31              		@ frame_needed = 0, uses_anonymous_args = 0
  32              		@ link register save eliminated.
  33              		.loc 1 58 3 view .LVU1
  34 0000 FFF7FEBF 		b	adc_lld_init
  35              	.LVL0:
  36              		.cfi_endproc
  37              	.LFE432:
  38              		.size	adcInit, .-adcInit
  39              		.section	.text.adcObjectInit,"ax",%progbits
  40              		.align	1
  41              		.p2align 4,,15
  42              		.global	adcObjectInit
  43              		.syntax unified
  44              		.thumb
  45              		.thumb_func
  46              		.type	adcObjectInit, %function
  47              	adcObjectInit:
  48              	.LVL1:
  49              	.LFB433:
  50              		.loc 1 68 37 view -0
  51              		.cfi_startproc
  52              		@ args = 0, pretend = 0, frame = 0
  53              		@ frame_needed = 0, uses_anonymous_args = 0
  54              		@ link register save eliminated.
  55              		.loc 1 70 3 view .LVU3
  56              		.loc 1 68 37 is_stmt 0 view .LVU4
  57 0000 0346     		mov	r3, r0
ARM GAS  C:\Users\DEVELO~1\AppData\Local\Temp\ccoIuiqi.s 			page 2


  58              		.loc 1 71 18 view .LVU5
  59 0002 0022     		movs	r2, #0
  60              		.loc 1 70 18 view .LVU6
  61 0004 0121     		movs	r1, #1
  62              	.LBB105:
  63              	.LBB106:
  64              		.file 2 "../../../os/hal/osal/rt-nil/osal.h"
  65              		.loc 2 1038 3 view .LVU7
  66 0006 1830     		adds	r0, r0, #24
  67              	.LVL2:
  68              		.loc 2 1038 3 view .LVU8
  69              	.LBE106:
  70              	.LBE105:
  71              		.loc 1 76 18 view .LVU9
  72 0008 5A61     		str	r2, [r3, #20]
  73              		.loc 1 70 18 view .LVU10
  74 000a 1970     		strb	r1, [r3]
  75              		.loc 1 71 3 is_stmt 1 view .LVU11
  76              		.loc 1 72 18 is_stmt 0 view .LVU12
  77 000c C3E90122 		strd	r2, r2, [r3, #4]
  78              		.loc 1 73 3 is_stmt 1 view .LVU13
  79              		.loc 1 74 18 is_stmt 0 view .LVU14
  80 0010 C3E90322 		strd	r2, r2, [r3, #12]
  81              		.loc 1 76 3 is_stmt 1 view .LVU15
  82              		.loc 1 79 3 view .LVU16
  83              	.LVL3:
  84              	.LBB108:
  85              	.LBI105:
  86              		.loc 2 1035 20 view .LVU17
  87              	.LBB107:
  88              		.loc 2 1038 3 view .LVU18
  89 0014 FFF7FEBF 		b	chMtxObjectInit
  90              	.LVL4:
  91              		.loc 2 1038 3 is_stmt 0 view .LVU19
  92              	.LBE107:
  93              	.LBE108:
  94              		.cfi_endproc
  95              	.LFE433:
  96              		.size	adcObjectInit, .-adcObjectInit
  97              		.section	.text.adcStart,"ax",%progbits
  98              		.align	1
  99              		.p2align 4,,15
 100              		.global	adcStart
 101              		.syntax unified
 102              		.thumb
 103              		.thumb_func
 104              		.type	adcStart, %function
 105              	adcStart:
 106              	.LVL5:
 107              	.LFB434:
 108              		.loc 1 96 58 is_stmt 1 view -0
 109              		.cfi_startproc
 110              		@ args = 0, pretend = 0, frame = 0
 111              		@ frame_needed = 0, uses_anonymous_args = 0
 112              		.loc 1 97 3 view .LVU21
 113              		.loc 1 99 3 view .LVU22
 114              		.loc 1 99 3 view .LVU23
ARM GAS  C:\Users\DEVELO~1\AppData\Local\Temp\ccoIuiqi.s 			page 3


 115              		.loc 1 99 3 view .LVU24
 116              		.loc 1 101 3 view .LVU25
 117              	.LBB109:
 118              	.LBI109:
 119              		.loc 2 573 20 view .LVU26
 120              		.loc 2 575 3 view .LVU27
 121              	.LBB110:
 122              	.LBI110:
 123              		.file 3 "../../../os/rt/include/chsys.h"
 124              		.loc 3 407 20 view .LVU28
 125              		.loc 3 409 3 view .LVU29
 126              	.LBB111:
 127              	.LBI111:
 128              		.file 4 "../../../os/common/ports/ARMv7-M/chcore.h"
 129              		.loc 4 823 27 view .LVU30
 130              		.loc 4 831 3 view .LVU31
 131              	.LBB112:
 132              	.LBI112:
 133              		.file 5 "../../../os/common/ext/ARM/CMSIS/Core/Include/cmsis_gcc.h"
 134              		.loc 5 491 27 view .LVU32
 135              	.LBB113:
 136              		.loc 5 493 3 view .LVU33
 137              	.LBE113:
 138              	.LBE112:
 139              	.LBE111:
 140              	.LBE110:
 141              	.LBE109:
 142              		.loc 1 96 58 is_stmt 0 view .LVU34
 143 0000 10B5     		push	{r4, lr}
 144              		.cfi_def_cfa_offset 8
 145              		.cfi_offset 4, -8
 146              		.cfi_offset 14, -4
 147              	.LBB122:
 148              	.LBB120:
 149              	.LBB118:
 150              	.LBB116:
 151              	.LBB114:
 152              		.loc 5 493 3 view .LVU35
 153 0002 3023     		movs	r3, #48
 154              	.LBE114:
 155              	.LBE116:
 156              	.LBE118:
 157              	.LBE120:
 158              	.LBE122:
 159              		.loc 1 96 58 view .LVU36
 160 0004 0446     		mov	r4, r0
 161              	.LBB123:
 162              	.LBB121:
 163              	.LBB119:
 164              	.LBB117:
 165              	.LBB115:
 166              		.loc 5 493 3 view .LVU37
 167              		.syntax unified
 168              	@ 493 "../../../os/common/ext/ARM/CMSIS/Core/Include/cmsis_gcc.h" 1
 169 0006 83F31188 		MSR basepri, r3
 170              	@ 0 "" 2
 171              	.LVL6:
ARM GAS  C:\Users\DEVELO~1\AppData\Local\Temp\ccoIuiqi.s 			page 4


 172              		.loc 5 493 3 view .LVU38
 173              		.thumb
 174              		.syntax unified
 175              	.LBE115:
 176              	.LBE117:
 177              	.LBE119:
 178              		.loc 3 410 35 is_stmt 1 view .LVU39
 179              		.loc 3 411 21 view .LVU40
 180              	.LBE121:
 181              	.LBE123:
 182              		.loc 1 102 3 view .LVU41
 183              		.loc 1 102 3 view .LVU42
 184              		.loc 1 102 3 view .LVU43
 185              		.loc 1 104 3 view .LVU44
 186              		.loc 1 104 16 is_stmt 0 view .LVU45
 187 000a 4160     		str	r1, [r0, #4]
 188              		.loc 1 107 3 is_stmt 1 view .LVU46
 189              		.loc 1 107 9 is_stmt 0 view .LVU47
 190 000c FFF7FEFF 		bl	adc_lld_start
 191              	.LVL7:
 192              		.loc 1 108 3 is_stmt 1 view .LVU48
 193              	.LBB124:
 194              	.LBB125:
 195              	.LBB126:
 196              	.LBB127:
 197              	.LBB128:
 198              	.LBB129:
 199              		.loc 5 493 3 is_stmt 0 view .LVU49
 200 0010 0023     		movs	r3, #0
 201              	.LBE129:
 202              	.LBE128:
 203              	.LBE127:
 204              	.LBE126:
 205              	.LBE125:
 206              	.LBE124:
 207              		.loc 1 109 17 view .LVU50
 208 0012 9842     		cmp	r0, r3
 209 0014 14BF     		ite	ne
 210 0016 0122     		movne	r2, #1
 211 0018 0222     		moveq	r2, #2
 212 001a 2270     		strb	r2, [r4]
 213              		.loc 1 120 3 is_stmt 1 view .LVU51
 214              	.LBB135:
 215              	.LBI124:
 216              		.loc 2 584 20 view .LVU52
 217              		.loc 2 586 3 view .LVU53
 218              	.LBB134:
 219              	.LBI125:
 220              		.loc 3 421 20 view .LVU54
 221              	.LBB133:
 222              		.loc 3 423 23 view .LVU55
 223              		.loc 3 424 34 view .LVU56
 224              		.loc 3 430 3 view .LVU57
 225              		.loc 3 430 3 view .LVU58
 226              		.loc 3 430 3 view .LVU59
 227              		.loc 3 434 3 view .LVU60
 228              	.LBB132:
ARM GAS  C:\Users\DEVELO~1\AppData\Local\Temp\ccoIuiqi.s 			page 5


 229              	.LBI127:
 230              		.loc 4 847 27 view .LVU61
 231              		.loc 4 850 3 view .LVU62
 232              	.LVL8:
 233              	.LBB131:
 234              	.LBI128:
 235              		.loc 5 491 27 view .LVU63
 236              	.LBB130:
 237              		.loc 5 493 3 view .LVU64
 238              		.syntax unified
 239              	@ 493 "../../../os/common/ext/ARM/CMSIS/Core/Include/cmsis_gcc.h" 1
 240 001c 83F31188 		MSR basepri, r3
 241              	@ 0 "" 2
 242              	.LVL9:
 243              		.loc 5 493 3 is_stmt 0 view .LVU65
 244              		.thumb
 245              		.syntax unified
 246              	.LBE130:
 247              	.LBE131:
 248              	.LBE132:
 249              	.LBE133:
 250              	.LBE134:
 251              	.LBE135:
 252              		.loc 1 122 3 is_stmt 1 view .LVU66
 253              		.loc 1 123 1 is_stmt 0 view .LVU67
 254 0020 10BD     		pop	{r4, pc}
 255              		.loc 1 123 1 view .LVU68
 256              		.cfi_endproc
 257              	.LFE434:
 258              		.size	adcStart, .-adcStart
 259 0022 00BF     		.section	.text.adcStop,"ax",%progbits
 260              		.align	1
 261              		.p2align 4,,15
 262              		.global	adcStop
 263              		.syntax unified
 264              		.thumb
 265              		.thumb_func
 266              		.type	adcStop, %function
 267              	adcStop:
 268              	.LVL10:
 269              	.LFB435:
 270              		.loc 1 132 31 is_stmt 1 view -0
 271              		.cfi_startproc
 272              		@ args = 0, pretend = 0, frame = 0
 273              		@ frame_needed = 0, uses_anonymous_args = 0
 274              		.loc 1 134 3 view .LVU70
 275              		.loc 1 134 3 view .LVU71
 276              		.loc 1 134 3 view .LVU72
 277              		.loc 1 136 3 view .LVU73
 278              	.LBB136:
 279              	.LBI136:
 280              		.loc 2 573 20 view .LVU74
 281              		.loc 2 575 3 view .LVU75
 282              	.LBB137:
 283              	.LBI137:
 284              		.loc 3 407 20 view .LVU76
 285              		.loc 3 409 3 view .LVU77
ARM GAS  C:\Users\DEVELO~1\AppData\Local\Temp\ccoIuiqi.s 			page 6


 286              	.LBB138:
 287              	.LBI138:
 288              		.loc 4 823 27 view .LVU78
 289              		.loc 4 831 3 view .LVU79
 290              	.LBB139:
 291              	.LBI139:
 292              		.loc 5 491 27 view .LVU80
 293              	.LBB140:
 294              		.loc 5 493 3 view .LVU81
 295              	.LBE140:
 296              	.LBE139:
 297              	.LBE138:
 298              	.LBE137:
 299              	.LBE136:
 300              		.loc 1 132 31 is_stmt 0 view .LVU82
 301 0000 10B5     		push	{r4, lr}
 302              		.cfi_def_cfa_offset 8
 303              		.cfi_offset 4, -8
 304              		.cfi_offset 14, -4
 305              	.LBB149:
 306              	.LBB147:
 307              	.LBB145:
 308              	.LBB143:
 309              	.LBB141:
 310              		.loc 5 493 3 view .LVU83
 311 0002 3023     		movs	r3, #48
 312              	.LBE141:
 313              	.LBE143:
 314              	.LBE145:
 315              	.LBE147:
 316              	.LBE149:
 317              		.loc 1 132 31 view .LVU84
 318 0004 0446     		mov	r4, r0
 319              	.LBB150:
 320              	.LBB148:
 321              	.LBB146:
 322              	.LBB144:
 323              	.LBB142:
 324              		.loc 5 493 3 view .LVU85
 325              		.syntax unified
 326              	@ 493 "../../../os/common/ext/ARM/CMSIS/Core/Include/cmsis_gcc.h" 1
 327 0006 83F31188 		MSR basepri, r3
 328              	@ 0 "" 2
 329              	.LVL11:
 330              		.loc 5 493 3 view .LVU86
 331              		.thumb
 332              		.syntax unified
 333              	.LBE142:
 334              	.LBE144:
 335              	.LBE146:
 336              		.loc 3 410 35 is_stmt 1 view .LVU87
 337              		.loc 3 411 21 view .LVU88
 338              	.LBE148:
 339              	.LBE150:
 340              		.loc 1 138 3 view .LVU89
 341              		.loc 1 138 3 view .LVU90
 342              		.loc 1 138 3 view .LVU91
ARM GAS  C:\Users\DEVELO~1\AppData\Local\Temp\ccoIuiqi.s 			page 7


 343              		.loc 1 141 3 view .LVU92
 344 000a FFF7FEFF 		bl	adc_lld_stop
 345              	.LVL12:
 346              		.loc 1 142 3 view .LVU93
 347              		.loc 1 142 16 is_stmt 0 view .LVU94
 348 000e 0023     		movs	r3, #0
 349              		.loc 1 143 16 view .LVU95
 350 0010 0122     		movs	r2, #1
 351              		.loc 1 142 16 view .LVU96
 352 0012 6360     		str	r3, [r4, #4]
 353              		.loc 1 143 3 is_stmt 1 view .LVU97
 354              		.loc 1 143 16 is_stmt 0 view .LVU98
 355 0014 2270     		strb	r2, [r4]
 356              		.loc 1 145 3 is_stmt 1 view .LVU99
 357              	.LBB151:
 358              	.LBI151:
 359              		.loc 2 584 20 view .LVU100
 360              		.loc 2 586 3 view .LVU101
 361              	.LBB152:
 362              	.LBI152:
 363              		.loc 3 421 20 view .LVU102
 364              	.LBB153:
 365              		.loc 3 423 23 view .LVU103
 366              		.loc 3 424 34 view .LVU104
 367              		.loc 3 430 3 view .LVU105
 368              		.loc 3 430 3 view .LVU106
 369              		.loc 3 430 3 view .LVU107
 370              		.loc 3 434 3 view .LVU108
 371              	.LBB154:
 372              	.LBI154:
 373              		.loc 4 847 27 view .LVU109
 374              		.loc 4 850 3 view .LVU110
 375              	.LVL13:
 376              	.LBB155:
 377              	.LBI155:
 378              		.loc 5 491 27 view .LVU111
 379              	.LBB156:
 380              		.loc 5 493 3 view .LVU112
 381              		.syntax unified
 382              	@ 493 "../../../os/common/ext/ARM/CMSIS/Core/Include/cmsis_gcc.h" 1
 383 0016 83F31188 		MSR basepri, r3
 384              	@ 0 "" 2
 385              	.LVL14:
 386              		.loc 5 493 3 is_stmt 0 view .LVU113
 387              		.thumb
 388              		.syntax unified
 389              	.LBE156:
 390              	.LBE155:
 391              	.LBE154:
 392              	.LBE153:
 393              	.LBE152:
 394              	.LBE151:
 395              		.loc 1 146 1 view .LVU114
 396 001a 10BD     		pop	{r4, pc}
 397              		.loc 1 146 1 view .LVU115
 398              		.cfi_endproc
 399              	.LFE435:
ARM GAS  C:\Users\DEVELO~1\AppData\Local\Temp\ccoIuiqi.s 			page 8


 400              		.size	adcStop, .-adcStop
 401              		.section	.text.adcStartConversion,"ax",%progbits
 402              		.align	1
 403              		.p2align 4,,15
 404              		.global	adcStartConversion
 405              		.syntax unified
 406              		.thumb
 407              		.thumb_func
 408              		.type	adcStartConversion, %function
 409              	adcStartConversion:
 410              	.LVL15:
 411              	.LFB436:
 412              		.loc 1 167 39 is_stmt 1 view -0
 413              		.cfi_startproc
 414              		@ args = 0, pretend = 0, frame = 0
 415              		@ frame_needed = 0, uses_anonymous_args = 0
 416              		.loc 1 169 3 view .LVU117
 417              	.LBB157:
 418              	.LBI157:
 419              		.loc 2 573 20 view .LVU118
 420              		.loc 2 575 3 view .LVU119
 421              	.LBB158:
 422              	.LBI158:
 423              		.loc 3 407 20 view .LVU120
 424              		.loc 3 409 3 view .LVU121
 425              	.LBB159:
 426              	.LBI159:
 427              		.loc 4 823 27 view .LVU122
 428              		.loc 4 831 3 view .LVU123
 429              	.LBB160:
 430              	.LBI160:
 431              		.loc 5 491 27 view .LVU124
 432              	.LBB161:
 433              		.loc 5 493 3 view .LVU125
 434              	.LBE161:
 435              	.LBE160:
 436              	.LBE159:
 437              	.LBE158:
 438              	.LBE157:
 439              		.loc 1 167 39 is_stmt 0 view .LVU126
 440 0000 08B5     		push	{r3, lr}
 441              		.cfi_def_cfa_offset 8
 442              		.cfi_offset 3, -8
 443              		.cfi_offset 14, -4
 444              	.LBB166:
 445              	.LBB165:
 446              	.LBB164:
 447              	.LBB163:
 448              	.LBB162:
 449              		.loc 5 493 3 view .LVU127
 450 0002 4FF0300E 		mov	lr, #48
 451              		.syntax unified
 452              	@ 493 "../../../os/common/ext/ARM/CMSIS/Core/Include/cmsis_gcc.h" 1
 453 0006 8EF31188 		MSR basepri, lr
 454              	@ 0 "" 2
 455              	.LVL16:
 456              		.loc 5 493 3 view .LVU128
ARM GAS  C:\Users\DEVELO~1\AppData\Local\Temp\ccoIuiqi.s 			page 9


 457              		.thumb
 458              		.syntax unified
 459              	.LBE162:
 460              	.LBE163:
 461              	.LBE164:
 462              		.loc 3 410 35 is_stmt 1 view .LVU129
 463              		.loc 3 411 21 view .LVU130
 464              	.LBE165:
 465              	.LBE166:
 466              		.loc 1 170 3 view .LVU131
 467              	.LBB167:
 468              	.LBI167:
 469              		.loc 1 192 6 view .LVU132
 470              	.LBB168:
 471              		.loc 1 197 23 view .LVU133
 472              		.loc 1 198 3 view .LVU134
 473              		.loc 1 198 3 view .LVU135
 474              		.loc 1 198 3 view .LVU136
 475              		.loc 1 200 3 view .LVU137
 476              		.loc 1 200 3 view .LVU138
 477              		.loc 1 200 3 view .LVU139
 478              		.loc 1 204 3 view .LVU140
 479              		.loc 1 204 18 is_stmt 0 view .LVU141
 480 000a 8260     		str	r2, [r0, #8]
 481              		.loc 1 205 3 is_stmt 1 view .LVU142
 482              		.loc 1 207 18 is_stmt 0 view .LVU143
 483 000c 0322     		movs	r2, #3
 484              	.LVL17:
 485              		.loc 1 206 18 view .LVU144
 486 000e C0E90331 		strd	r3, r1, [r0, #12]
 487              		.loc 1 207 3 is_stmt 1 view .LVU145
 488              		.loc 1 207 18 is_stmt 0 view .LVU146
 489 0012 0270     		strb	r2, [r0]
 490              		.loc 1 208 3 is_stmt 1 view .LVU147
 491 0014 FFF7FEFF 		bl	adc_lld_start_conversion
 492              	.LVL18:
 493              		.loc 1 208 3 is_stmt 0 view .LVU148
 494              	.LBE168:
 495              	.LBE167:
 496              		.loc 1 171 3 is_stmt 1 view .LVU149
 497              	.LBB169:
 498              	.LBI169:
 499              		.loc 2 584 20 view .LVU150
 500              		.loc 2 586 3 view .LVU151
 501              	.LBB170:
 502              	.LBI170:
 503              		.loc 3 421 20 view .LVU152
 504              	.LBB171:
 505              		.loc 3 423 23 view .LVU153
 506              		.loc 3 424 34 view .LVU154
 507              		.loc 3 430 3 view .LVU155
 508              		.loc 3 430 3 view .LVU156
 509              		.loc 3 430 3 view .LVU157
 510              		.loc 3 434 3 view .LVU158
 511              	.LBB172:
 512              	.LBI172:
 513              		.loc 4 847 27 view .LVU159
ARM GAS  C:\Users\DEVELO~1\AppData\Local\Temp\ccoIuiqi.s 			page 10


 514              		.loc 4 850 3 view .LVU160
 515              	.LBB173:
 516              	.LBI173:
 517              		.loc 5 491 27 view .LVU161
 518              	.LBB174:
 519              		.loc 5 493 3 view .LVU162
 520 0018 0023     		movs	r3, #0
 521              		.syntax unified
 522              	@ 493 "../../../os/common/ext/ARM/CMSIS/Core/Include/cmsis_gcc.h" 1
 523 001a 83F31188 		MSR basepri, r3
 524              	@ 0 "" 2
 525              	.LVL19:
 526              		.loc 5 493 3 is_stmt 0 view .LVU163
 527              		.thumb
 528              		.syntax unified
 529              	.LBE174:
 530              	.LBE173:
 531              	.LBE172:
 532              	.LBE171:
 533              	.LBE170:
 534              	.LBE169:
 535              		.loc 1 172 1 view .LVU164
 536 001e 08BD     		pop	{r3, pc}
 537              		.cfi_endproc
 538              	.LFE436:
 539              		.size	adcStartConversion, .-adcStartConversion
 540              		.section	.text.adcStartConversionI,"ax",%progbits
 541              		.align	1
 542              		.p2align 4,,15
 543              		.global	adcStartConversionI
 544              		.syntax unified
 545              		.thumb
 546              		.thumb_func
 547              		.type	adcStartConversionI, %function
 548              	adcStartConversionI:
 549              	.LVL20:
 550              	.LFB437:
 551              		.loc 1 195 40 is_stmt 1 view -0
 552              		.cfi_startproc
 553              		@ args = 0, pretend = 0, frame = 0
 554              		@ frame_needed = 0, uses_anonymous_args = 0
 555              		@ link register save eliminated.
 556              		.loc 1 197 23 view .LVU166
 557              		.loc 1 198 3 view .LVU167
 558              		.loc 1 198 3 view .LVU168
 559              		.loc 1 198 3 view .LVU169
 560              		.loc 1 200 3 view .LVU170
 561              		.loc 1 200 3 view .LVU171
 562              		.loc 1 200 3 view .LVU172
 563              		.loc 1 204 3 view .LVU173
 564              		.loc 1 204 18 is_stmt 0 view .LVU174
 565 0000 8260     		str	r2, [r0, #8]
 566              		.loc 1 205 3 is_stmt 1 view .LVU175
 567              		.loc 1 207 18 is_stmt 0 view .LVU176
 568 0002 0322     		movs	r2, #3
 569              	.LVL21:
 570              		.loc 1 206 18 view .LVU177
ARM GAS  C:\Users\DEVELO~1\AppData\Local\Temp\ccoIuiqi.s 			page 11


 571 0004 C0E90331 		strd	r3, r1, [r0, #12]
 572              		.loc 1 207 3 is_stmt 1 view .LVU178
 573              		.loc 1 207 18 is_stmt 0 view .LVU179
 574 0008 0270     		strb	r2, [r0]
 575              		.loc 1 208 3 is_stmt 1 view .LVU180
 576 000a FFF7FEBF 		b	adc_lld_start_conversion
 577              	.LVL22:
 578              		.loc 1 208 3 is_stmt 0 view .LVU181
 579              		.cfi_endproc
 580              	.LFE437:
 581              		.size	adcStartConversionI, .-adcStartConversionI
 582 000e 00BF     		.section	.text.adcStopConversion,"ax",%progbits
 583              		.align	1
 584              		.p2align 4,,15
 585              		.global	adcStopConversion
 586              		.syntax unified
 587              		.thumb
 588              		.thumb_func
 589              		.type	adcStopConversion, %function
 590              	adcStopConversion:
 591              	.LVL23:
 592              	.LFB438:
 593              		.loc 1 221 41 is_stmt 1 view -0
 594              		.cfi_startproc
 595              		@ args = 0, pretend = 0, frame = 0
 596              		@ frame_needed = 0, uses_anonymous_args = 0
 597              		.loc 1 223 3 view .LVU183
 598              		.loc 1 223 3 view .LVU184
 599              		.loc 1 223 3 view .LVU185
 600              		.loc 1 225 3 view .LVU186
 601              	.LBB175:
 602              	.LBI175:
 603              		.loc 2 573 20 view .LVU187
 604              		.loc 2 575 3 view .LVU188
 605              	.LBB176:
 606              	.LBI176:
 607              		.loc 3 407 20 view .LVU189
 608              		.loc 3 409 3 view .LVU190
 609              	.LBB177:
 610              	.LBI177:
 611              		.loc 4 823 27 view .LVU191
 612              		.loc 4 831 3 view .LVU192
 613              	.LBB178:
 614              	.LBI178:
 615              		.loc 5 491 27 view .LVU193
 616              	.LBB179:
 617              		.loc 5 493 3 view .LVU194
 618 0000 3023     		movs	r3, #48
 619              		.syntax unified
 620              	@ 493 "../../../os/common/ext/ARM/CMSIS/Core/Include/cmsis_gcc.h" 1
 621 0002 83F31188 		MSR basepri, r3
 622              	@ 0 "" 2
 623              	.LVL24:
 624              		.loc 5 493 3 is_stmt 0 view .LVU195
 625              		.thumb
 626              		.syntax unified
 627              	.LBE179:
ARM GAS  C:\Users\DEVELO~1\AppData\Local\Temp\ccoIuiqi.s 			page 12


 628              	.LBE178:
 629              	.LBE177:
 630              		.loc 3 410 35 is_stmt 1 view .LVU196
 631              		.loc 3 411 21 view .LVU197
 632              	.LBE176:
 633              	.LBE175:
 634              		.loc 1 226 3 view .LVU198
 635              		.loc 1 226 3 view .LVU199
 636              		.loc 1 226 3 view .LVU200
 637              		.loc 1 228 3 view .LVU201
 638              		.loc 1 228 6 is_stmt 0 view .LVU202
 639 0006 0378     		ldrb	r3, [r0]	@ zero_extendqisi2
 640 0008 022B     		cmp	r3, #2
 641 000a 03D1     		bne	.L22
 642              		.loc 1 234 3 is_stmt 1 view .LVU203
 643              	.LBB180:
 644              	.LBI180:
 645              		.loc 2 584 20 view .LVU204
 646              		.loc 2 586 3 view .LVU205
 647              	.LBB181:
 648              	.LBI181:
 649              		.loc 3 421 20 view .LVU206
 650              	.LBB182:
 651              		.loc 3 423 23 view .LVU207
 652              		.loc 3 424 34 view .LVU208
 653              		.loc 3 430 3 view .LVU209
 654              		.loc 3 430 3 view .LVU210
 655              		.loc 3 430 3 view .LVU211
 656              		.loc 3 434 3 view .LVU212
 657              	.LBB183:
 658              	.LBI183:
 659              		.loc 4 847 27 view .LVU213
 660              		.loc 4 850 3 view .LVU214
 661              	.LVL25:
 662              	.LBB184:
 663              	.LBI184:
 664              		.loc 5 491 27 view .LVU215
 665              	.LBB185:
 666              		.loc 5 493 3 view .LVU216
 667 000c 0023     		movs	r3, #0
 668              		.syntax unified
 669              	@ 493 "../../../os/common/ext/ARM/CMSIS/Core/Include/cmsis_gcc.h" 1
 670 000e 83F31188 		MSR basepri, r3
 671              	@ 0 "" 2
 672              	.LVL26:
 673              		.loc 5 493 3 is_stmt 0 view .LVU217
 674              		.thumb
 675              		.syntax unified
 676 0012 7047     		bx	lr
 677              	.L22:
 678              	.LBE185:
 679              	.LBE184:
 680              	.LBE183:
 681              	.LBE182:
 682              	.LBE181:
 683              	.LBE180:
 684              		.loc 1 221 41 view .LVU218
ARM GAS  C:\Users\DEVELO~1\AppData\Local\Temp\ccoIuiqi.s 			page 13


 685 0014 10B5     		push	{r4, lr}
 686              		.cfi_def_cfa_offset 8
 687              		.cfi_offset 4, -8
 688              		.cfi_offset 14, -4
 689 0016 0446     		mov	r4, r0
 690              		.loc 1 229 5 is_stmt 1 view .LVU219
 691 0018 FFF7FEFF 		bl	adc_lld_stop_conversion
 692              	.LVL27:
 693              		.loc 1 230 5 view .LVU220
 694              		.loc 1 230 17 is_stmt 0 view .LVU221
 695 001c 0022     		movs	r2, #0
 696              		.loc 1 231 17 view .LVU222
 697 001e 0223     		movs	r3, #2
 698 0020 2046     		mov	r0, r4
 699              	.LBB191:
 700              	.LBB192:
 701              		.loc 2 854 3 view .LVU223
 702 0022 6FF00101 		mvn	r1, #1
 703              	.LBE192:
 704              	.LBE191:
 705              		.loc 1 230 17 view .LVU224
 706 0026 2261     		str	r2, [r4, #16]
 707              		.loc 1 231 5 is_stmt 1 view .LVU225
 708              		.loc 1 231 17 is_stmt 0 view .LVU226
 709 0028 00F8143B 		strb	r3, [r0], #20
 710              		.loc 1 232 5 is_stmt 1 view .LVU227
 711              	.LVL28:
 712              	.LBB194:
 713              	.LBI191:
 714              		.loc 2 852 20 view .LVU228
 715              	.LBB193:
 716              		.loc 2 854 3 view .LVU229
 717 002c FFF7FEFF 		bl	chThdResumeS
 718              	.LVL29:
 719              		.loc 2 854 3 is_stmt 0 view .LVU230
 720              	.LBE193:
 721              	.LBE194:
 722              		.loc 1 234 3 is_stmt 1 view .LVU231
 723              	.LBB195:
 724              		.loc 2 584 20 view .LVU232
 725              		.loc 2 586 3 view .LVU233
 726              	.LBB190:
 727              		.loc 3 421 20 view .LVU234
 728              	.LBB189:
 729              		.loc 3 423 23 view .LVU235
 730              		.loc 3 424 34 view .LVU236
 731              		.loc 3 430 3 view .LVU237
 732              		.loc 3 430 3 view .LVU238
 733              		.loc 3 430 3 view .LVU239
 734              		.loc 3 434 3 view .LVU240
 735              	.LBB188:
 736              		.loc 4 847 27 view .LVU241
 737              		.loc 4 850 3 view .LVU242
 738              	.LBB187:
 739              		.loc 5 491 27 view .LVU243
 740              	.LBB186:
 741              		.loc 5 493 3 view .LVU244
ARM GAS  C:\Users\DEVELO~1\AppData\Local\Temp\ccoIuiqi.s 			page 14


 742 0030 0023     		movs	r3, #0
 743              		.syntax unified
 744              	@ 493 "../../../os/common/ext/ARM/CMSIS/Core/Include/cmsis_gcc.h" 1
 745 0032 83F31188 		MSR basepri, r3
 746              	@ 0 "" 2
 747              	.LVL30:
 748              		.loc 5 493 3 is_stmt 0 view .LVU245
 749              		.thumb
 750              		.syntax unified
 751              	.LBE186:
 752              	.LBE187:
 753              	.LBE188:
 754              	.LBE189:
 755              	.LBE190:
 756              	.LBE195:
 757              		.loc 1 235 1 view .LVU246
 758 0036 10BD     		pop	{r4, pc}
 759              		.loc 1 235 1 view .LVU247
 760              		.cfi_endproc
 761              	.LFE438:
 762              		.size	adcStopConversion, .-adcStopConversion
 763              		.section	.text.adcStopConversionI,"ax",%progbits
 764              		.align	1
 765              		.p2align 4,,15
 766              		.global	adcStopConversionI
 767              		.syntax unified
 768              		.thumb
 769              		.thumb_func
 770              		.type	adcStopConversionI, %function
 771              	adcStopConversionI:
 772              	.LVL31:
 773              	.LFB439:
 774              		.loc 1 247 42 is_stmt 1 view -0
 775              		.cfi_startproc
 776              		@ args = 0, pretend = 0, frame = 0
 777              		@ frame_needed = 0, uses_anonymous_args = 0
 778              		.loc 1 249 23 view .LVU249
 779              		.loc 1 250 3 view .LVU250
 780              		.loc 1 250 3 view .LVU251
 781              		.loc 1 250 3 view .LVU252
 782              		.loc 1 251 3 view .LVU253
 783              		.loc 1 251 3 view .LVU254
 784              		.loc 1 251 3 view .LVU255
 785              		.loc 1 256 3 view .LVU256
 786              		.loc 1 256 6 is_stmt 0 view .LVU257
 787 0000 0378     		ldrb	r3, [r0]	@ zero_extendqisi2
 788 0002 022B     		cmp	r3, #2
 789 0004 00D1     		bne	.L28
 790 0006 7047     		bx	lr
 791              	.L28:
 792              		.loc 1 247 42 view .LVU258
 793 0008 10B5     		push	{r4, lr}
 794              		.cfi_def_cfa_offset 8
 795              		.cfi_offset 4, -8
 796              		.cfi_offset 14, -4
 797 000a 0446     		mov	r4, r0
 798              		.loc 1 257 5 is_stmt 1 view .LVU259
ARM GAS  C:\Users\DEVELO~1\AppData\Local\Temp\ccoIuiqi.s 			page 15


 799 000c FFF7FEFF 		bl	adc_lld_stop_conversion
 800              	.LVL32:
 801              		.loc 1 258 5 view .LVU260
 802              		.loc 1 258 17 is_stmt 0 view .LVU261
 803 0010 0022     		movs	r2, #0
 804              		.loc 1 259 17 view .LVU262
 805 0012 0223     		movs	r3, #2
 806 0014 2046     		mov	r0, r4
 807              	.LBB196:
 808              	.LBB197:
 809              		.loc 2 839 3 view .LVU263
 810 0016 6FF00101 		mvn	r1, #1
 811              	.LBE197:
 812              	.LBE196:
 813              		.loc 1 258 17 view .LVU264
 814 001a 2261     		str	r2, [r4, #16]
 815              		.loc 1 259 5 is_stmt 1 view .LVU265
 816              		.loc 1 259 17 is_stmt 0 view .LVU266
 817 001c 00F8143B 		strb	r3, [r0], #20
 818              		.loc 1 260 5 is_stmt 1 view .LVU267
 819              	.LVL33:
 820              	.LBB200:
 821              	.LBI196:
 822              		.loc 2 837 20 view .LVU268
 823              	.LBB198:
 824              		.loc 2 839 3 view .LVU269
 825              	.LBE198:
 826              	.LBE200:
 827              		.loc 1 262 1 is_stmt 0 view .LVU270
 828 0020 BDE81040 		pop	{r4, lr}
 829              		.cfi_restore 14
 830              		.cfi_restore 4
 831              		.cfi_def_cfa_offset 0
 832              	.LVL34:
 833              	.LBB201:
 834              	.LBB199:
 835              		.loc 2 839 3 view .LVU271
 836 0024 FFF7FEBF 		b	chThdResumeI
 837              	.LVL35:
 838              		.loc 2 839 3 view .LVU272
 839              	.LBE199:
 840              	.LBE201:
 841              		.cfi_endproc
 842              	.LFE439:
 843              		.size	adcStopConversionI, .-adcStopConversionI
 844              		.section	.text.adcConvert,"ax",%progbits
 845              		.align	1
 846              		.p2align 4,,15
 847              		.global	adcConvert
 848              		.syntax unified
 849              		.thumb
 850              		.thumb_func
 851              		.type	adcConvert, %function
 852              	adcConvert:
 853              	.LVL36:
 854              	.LFB440:
 855              		.loc 1 291 32 is_stmt 1 view -0
ARM GAS  C:\Users\DEVELO~1\AppData\Local\Temp\ccoIuiqi.s 			page 16


 856              		.cfi_startproc
 857              		@ args = 0, pretend = 0, frame = 0
 858              		@ frame_needed = 0, uses_anonymous_args = 0
 859              		.loc 1 292 3 view .LVU274
 860              		.loc 1 294 3 view .LVU275
 861              	.LBB202:
 862              	.LBI202:
 863              		.loc 2 573 20 view .LVU276
 864              		.loc 2 575 3 view .LVU277
 865              	.LBB203:
 866              	.LBI203:
 867              		.loc 3 407 20 view .LVU278
 868              		.loc 3 409 3 view .LVU279
 869              	.LBB204:
 870              	.LBI204:
 871              		.loc 4 823 27 view .LVU280
 872              		.loc 4 831 3 view .LVU281
 873              	.LBB205:
 874              	.LBI205:
 875              		.loc 5 491 27 view .LVU282
 876              	.LBB206:
 877              		.loc 5 493 3 view .LVU283
 878              	.LBE206:
 879              	.LBE205:
 880              	.LBE204:
 881              	.LBE203:
 882              	.LBE202:
 883              		.loc 1 291 32 is_stmt 0 view .LVU284
 884 0000 10B5     		push	{r4, lr}
 885              		.cfi_def_cfa_offset 8
 886              		.cfi_offset 4, -8
 887              		.cfi_offset 14, -4
 888              	.LBB211:
 889              	.LBB210:
 890              	.LBB209:
 891              	.LBB208:
 892              	.LBB207:
 893              		.loc 5 493 3 view .LVU285
 894 0002 3024     		movs	r4, #48
 895              		.syntax unified
 896              	@ 493 "../../../os/common/ext/ARM/CMSIS/Core/Include/cmsis_gcc.h" 1
 897 0004 84F31188 		MSR basepri, r4
 898              	@ 0 "" 2
 899              	.LVL37:
 900              		.loc 5 493 3 view .LVU286
 901              		.thumb
 902              		.syntax unified
 903              	.LBE207:
 904              	.LBE208:
 905              	.LBE209:
 906              		.loc 3 410 35 is_stmt 1 view .LVU287
 907              		.loc 3 411 21 view .LVU288
 908              	.LBE210:
 909              	.LBE211:
 910              		.loc 1 295 3 view .LVU289
 911              		.loc 1 295 3 view .LVU290
 912              		.loc 1 295 3 view .LVU291
ARM GAS  C:\Users\DEVELO~1\AppData\Local\Temp\ccoIuiqi.s 			page 17


 913              		.loc 1 296 3 view .LVU292
 914              	.LBB212:
 915              	.LBI212:
 916              		.loc 1 192 6 view .LVU293
 917              	.LBB213:
 918              		.loc 1 197 23 view .LVU294
 919              		.loc 1 198 3 view .LVU295
 920              		.loc 1 198 3 view .LVU296
 921              		.loc 1 198 3 view .LVU297
 922              		.loc 1 200 3 view .LVU298
 923              		.loc 1 200 3 view .LVU299
 924              		.loc 1 200 3 view .LVU300
 925              		.loc 1 204 3 view .LVU301
 926              		.loc 1 207 18 is_stmt 0 view .LVU302
 927 0008 0446     		mov	r4, r0
 928              		.loc 1 204 18 view .LVU303
 929 000a 8260     		str	r2, [r0, #8]
 930              		.loc 1 205 3 is_stmt 1 view .LVU304
 931              		.loc 1 207 18 is_stmt 0 view .LVU305
 932 000c 0322     		movs	r2, #3
 933              	.LVL38:
 934              		.loc 1 206 18 view .LVU306
 935 000e C0E90331 		strd	r3, r1, [r0, #12]
 936              		.loc 1 207 3 is_stmt 1 view .LVU307
 937              		.loc 1 207 18 is_stmt 0 view .LVU308
 938 0012 04F8142B 		strb	r2, [r4], #20
 939              		.loc 1 208 3 is_stmt 1 view .LVU309
 940 0016 FFF7FEFF 		bl	adc_lld_start_conversion
 941              	.LVL39:
 942              		.loc 1 208 3 is_stmt 0 view .LVU310
 943              	.LBE213:
 944              	.LBE212:
 945              		.loc 1 297 3 is_stmt 1 view .LVU311
 946              	.LBB214:
 947              	.LBI214:
 948              		.loc 2 797 21 view .LVU312
 949              	.LBB215:
 950              		.loc 2 799 3 view .LVU313
 951              		.loc 2 799 10 is_stmt 0 view .LVU314
 952 001a 4FF0FF31 		mov	r1, #-1
 953 001e 2046     		mov	r0, r4
 954 0020 FFF7FEFF 		bl	chThdSuspendTimeoutS
 955              	.LVL40:
 956              		.loc 2 799 10 view .LVU315
 957              	.LBE215:
 958              	.LBE214:
 959              		.loc 1 298 3 is_stmt 1 view .LVU316
 960              	.LBB216:
 961              	.LBI216:
 962              		.loc 2 584 20 view .LVU317
 963              		.loc 2 586 3 view .LVU318
 964              	.LBB217:
 965              	.LBI217:
 966              		.loc 3 421 20 view .LVU319
 967              	.LBB218:
 968              		.loc 3 423 23 view .LVU320
 969              		.loc 3 424 34 view .LVU321
ARM GAS  C:\Users\DEVELO~1\AppData\Local\Temp\ccoIuiqi.s 			page 18


 970              		.loc 3 430 3 view .LVU322
 971              		.loc 3 430 3 view .LVU323
 972              		.loc 3 430 3 view .LVU324
 973              		.loc 3 434 3 view .LVU325
 974              	.LBB219:
 975              	.LBI219:
 976              		.loc 4 847 27 view .LVU326
 977              		.loc 4 850 3 view .LVU327
 978              	.LBB220:
 979              	.LBI220:
 980              		.loc 5 491 27 view .LVU328
 981              	.LBB221:
 982              		.loc 5 493 3 view .LVU329
 983 0024 0023     		movs	r3, #0
 984              		.syntax unified
 985              	@ 493 "../../../os/common/ext/ARM/CMSIS/Core/Include/cmsis_gcc.h" 1
 986 0026 83F31188 		MSR basepri, r3
 987              	@ 0 "" 2
 988              	.LVL41:
 989              		.loc 5 493 3 is_stmt 0 view .LVU330
 990              		.thumb
 991              		.syntax unified
 992              	.LBE221:
 993              	.LBE220:
 994              	.LBE219:
 995              	.LBE218:
 996              	.LBE217:
 997              	.LBE216:
 998              		.loc 1 299 3 is_stmt 1 view .LVU331
 999              		.loc 1 300 1 is_stmt 0 view .LVU332
 1000 002a 10BD     		pop	{r4, pc}
 1001              		.loc 1 300 1 view .LVU333
 1002              		.cfi_endproc
 1003              	.LFE440:
 1004              		.size	adcConvert, .-adcConvert
 1005              		.section	.text.adcAcquireBus,"ax",%progbits
 1006              		.align	1
 1007              		.p2align 4,,15
 1008              		.global	adcAcquireBus
 1009              		.syntax unified
 1010              		.thumb
 1011              		.thumb_func
 1012              		.type	adcAcquireBus, %function
 1013              	adcAcquireBus:
 1014              	.LVL42:
 1015              	.LFB441:
 1016              		.loc 1 315 37 is_stmt 1 view -0
 1017              		.cfi_startproc
 1018              		@ args = 0, pretend = 0, frame = 0
 1019              		@ frame_needed = 0, uses_anonymous_args = 0
 1020              		@ link register save eliminated.
 1021              		.loc 1 317 3 view .LVU335
 1022              		.loc 1 317 3 view .LVU336
 1023              		.loc 1 317 3 view .LVU337
 1024              		.loc 1 319 3 view .LVU338
 1025              	.LBB222:
 1026              	.LBI222:
ARM GAS  C:\Users\DEVELO~1\AppData\Local\Temp\ccoIuiqi.s 			page 19


 1027              		.loc 2 1055 20 view .LVU339
 1028              	.LBB223:
 1029              		.loc 2 1058 3 view .LVU340
 1030 0000 1830     		adds	r0, r0, #24
 1031              	.LVL43:
 1032              		.loc 2 1058 3 is_stmt 0 view .LVU341
 1033 0002 FFF7FEBF 		b	chMtxLock
 1034              	.LVL44:
 1035              		.loc 2 1058 3 view .LVU342
 1036              	.LBE223:
 1037              	.LBE222:
 1038              		.cfi_endproc
 1039              	.LFE441:
 1040              		.size	adcAcquireBus, .-adcAcquireBus
 1041 0006 00BF     		.section	.text.adcReleaseBus,"ax",%progbits
 1042              		.align	1
 1043              		.p2align 4,,15
 1044              		.global	adcReleaseBus
 1045              		.syntax unified
 1046              		.thumb
 1047              		.thumb_func
 1048              		.type	adcReleaseBus, %function
 1049              	adcReleaseBus:
 1050              	.LVL45:
 1051              	.LFB442:
 1052              		.loc 1 331 37 is_stmt 1 view -0
 1053              		.cfi_startproc
 1054              		@ args = 0, pretend = 0, frame = 0
 1055              		@ frame_needed = 0, uses_anonymous_args = 0
 1056              		@ link register save eliminated.
 1057              		.loc 1 333 3 view .LVU344
 1058              		.loc 1 333 3 view .LVU345
 1059              		.loc 1 333 3 view .LVU346
 1060              		.loc 1 335 3 view .LVU347
 1061              	.LBB224:
 1062              	.LBI224:
 1063              		.loc 2 1079 20 view .LVU348
 1064              	.LBB225:
 1065              		.loc 2 1082 3 view .LVU349
 1066 0000 1830     		adds	r0, r0, #24
 1067              	.LVL46:
 1068              		.loc 2 1082 3 is_stmt 0 view .LVU350
 1069 0002 FFF7FEBF 		b	chMtxUnlock
 1070              	.LVL47:
 1071              		.loc 2 1082 3 view .LVU351
 1072              	.LBE225:
 1073              	.LBE224:
 1074              		.cfi_endproc
 1075              	.LFE442:
 1076              		.size	adcReleaseBus, .-adcReleaseBus
 1077 0006 00BF     		.text
 1078              	.Letext0:
 1079              		.file 6 "c:\\chibistudio\\tools\\gnu tools arm embedded\\11.3 2022.08\\lib\\gcc\\arm-none-eabi\\11
 1080              		.file 7 "c:\\chibistudio\\tools\\gnu tools arm embedded\\11.3 2022.08\\arm-none-eabi\\include\\mac
 1081              		.file 8 "c:\\chibistudio\\tools\\gnu tools arm embedded\\11.3 2022.08\\arm-none-eabi\\include\\sys
 1082              		.file 9 "../../../os/common/ports/ARM-common/chtypes.h"
 1083              		.file 10 "../../../os/rt/include/chearly.h"
ARM GAS  C:\Users\DEVELO~1\AppData\Local\Temp\ccoIuiqi.s 			page 20


 1084              		.file 11 "../../../os/rt/include/chobjects.h"
 1085              		.file 12 "../../../os/rt/include/chrfcu.h"
 1086              		.file 13 "../../../os/rt/include/chdebug.h"
 1087              		.file 14 "../../../os/rt/include/chtime.h"
 1088              		.file 15 "../../../os/rt/include/chlists.h"
 1089              		.file 16 "../../../os/rt/include/chtrace.h"
 1090              		.file 17 "../../../os/common/ext/ST/STM32H7xx/stm32h743xx.h"
 1091              		.file 18 "../../../os/rt/include/chsem.h"
 1092              		.file 19 "../../../os/rt/include/chmtx.h"
 1093              		.file 20 "../../../os/hal/ports/STM32/LLD/DMAv2/stm32_dma.h"
 1094              		.file 21 "../../../os/hal/include/hal_adc.h"
 1095              		.file 22 "../../../os/hal/ports/STM32/LLD/ADCv4/hal_adc_lld.h"
 1096              		.file 23 "../../../os/rt/include/chthreads.h"