ARM GAS  C:\Users\DEVELO~1\AppData\Local\Temp\ccseWCN8.s 			page 1


   1              		.cpu cortex-m7
   2              		.arch armv7e-m
   3              		.fpu softvfp
   4              		.eabi_attribute 20, 1
   5              		.eabi_attribute 21, 1
   6              		.eabi_attribute 23, 3
   7              		.eabi_attribute 24, 1
   8              		.eabi_attribute 25, 1
   9              		.eabi_attribute 26, 1
  10              		.eabi_attribute 30, 2
  11              		.eabi_attribute 34, 1
  12              		.eabi_attribute 18, 4
  13              		.file	"hal_i2c.c"
  14              		.text
  15              	.Ltext0:
  16              		.cfi_sections	.debug_frame
  17              		.section	.text.i2cInit,"ax",%progbits
  18              		.align	1
  19              		.p2align 4,,15
  20              		.global	i2cInit
  21              		.syntax unified
  22              		.thumb
  23              		.thumb_func
  24              		.type	i2cInit, %function
  25              	i2cInit:
  26              	.LFB432:
  27              		.file 1 "../../../os/hal/src/hal_i2c.c"
  28              		.loc 1 59 20 view -0
  29              		.cfi_startproc
  30              		@ args = 0, pretend = 0, frame = 0
  31              		@ frame_needed = 0, uses_anonymous_args = 0
  32              		@ link register save eliminated.
  33              		.loc 1 61 3 view .LVU1
  34 0000 FFF7FEBF 		b	i2c_lld_init
  35              	.LVL0:
  36              		.cfi_endproc
  37              	.LFE432:
  38              		.size	i2cInit, .-i2cInit
  39              		.section	.text.i2cObjectInit,"ax",%progbits
  40              		.align	1
  41              		.p2align 4,,15
  42              		.global	i2cObjectInit
  43              		.syntax unified
  44              		.thumb
  45              		.thumb_func
  46              		.type	i2cObjectInit, %function
  47              	i2cObjectInit:
  48              	.LVL1:
  49              	.LFB433:
  50              		.loc 1 71 37 view -0
  51              		.cfi_startproc
  52              		@ args = 0, pretend = 0, frame = 0
  53              		@ frame_needed = 0, uses_anonymous_args = 0
  54              		@ link register save eliminated.
  55              		.loc 1 73 3 view .LVU3
  56              		.loc 1 71 37 is_stmt 0 view .LVU4
  57 0000 0346     		mov	r3, r0
ARM GAS  C:\Users\DEVELO~1\AppData\Local\Temp\ccseWCN8.s 			page 2


  58              		.loc 1 73 16 view .LVU5
  59 0002 0121     		movs	r1, #1
  60              		.loc 1 74 16 view .LVU6
  61 0004 0022     		movs	r2, #0
  62              	.LBB82:
  63              	.LBB83:
  64              		.file 2 "../../../os/hal/osal/rt-nil/osal.h"
  65              		.loc 2 1038 3 view .LVU7
  66 0006 0C30     		adds	r0, r0, #12
  67              	.LVL2:
  68              		.loc 2 1038 3 view .LVU8
  69              	.LBE83:
  70              	.LBE82:
  71              		.loc 1 73 16 view .LVU9
  72 0008 1970     		strb	r1, [r3]
  73              		.loc 1 74 3 is_stmt 1 view .LVU10
  74              		.loc 1 74 16 is_stmt 0 view .LVU11
  75 000a 5A60     		str	r2, [r3, #4]
  76              		.loc 1 77 3 is_stmt 1 view .LVU12
  77              	.LVL3:
  78              	.LBB85:
  79              	.LBI82:
  80              		.loc 2 1035 20 view .LVU13
  81              	.LBB84:
  82              		.loc 2 1038 3 view .LVU14
  83 000c FFF7FEBF 		b	chMtxObjectInit
  84              	.LVL4:
  85              		.loc 2 1038 3 is_stmt 0 view .LVU15
  86              	.LBE84:
  87              	.LBE85:
  88              		.cfi_endproc
  89              	.LFE433:
  90              		.size	i2cObjectInit, .-i2cObjectInit
  91              		.section	.text.i2cStart,"ax",%progbits
  92              		.align	1
  93              		.p2align 4,,15
  94              		.global	i2cStart
  95              		.syntax unified
  96              		.thumb
  97              		.thumb_func
  98              		.type	i2cStart, %function
  99              	i2cStart:
 100              	.LVL5:
 101              	.LFB434:
 102              		.loc 1 94 58 is_stmt 1 view -0
 103              		.cfi_startproc
 104              		@ args = 0, pretend = 0, frame = 0
 105              		@ frame_needed = 0, uses_anonymous_args = 0
 106              		.loc 1 95 3 view .LVU17
 107              		.loc 1 97 3 view .LVU18
 108              		.loc 1 97 3 view .LVU19
 109              		.loc 1 97 3 view .LVU20
 110              		.loc 1 99 3 view .LVU21
 111              	.LBB86:
 112              	.LBI86:
 113              		.loc 2 573 20 view .LVU22
 114              		.loc 2 575 3 view .LVU23
ARM GAS  C:\Users\DEVELO~1\AppData\Local\Temp\ccseWCN8.s 			page 3


 115              	.LBB87:
 116              	.LBI87:
 117              		.file 3 "../../../os/rt/include/chsys.h"
 118              		.loc 3 407 20 view .LVU24
 119              		.loc 3 409 3 view .LVU25
 120              	.LBB88:
 121              	.LBI88:
 122              		.file 4 "../../../os/common/ports/ARMv7-M/chcore.h"
 123              		.loc 4 823 27 view .LVU26
 124              		.loc 4 831 3 view .LVU27
 125              	.LBB89:
 126              	.LBI89:
 127              		.file 5 "../../../os/common/ext/ARM/CMSIS/Core/Include/cmsis_gcc.h"
 128              		.loc 5 491 27 view .LVU28
 129              	.LBB90:
 130              		.loc 5 493 3 view .LVU29
 131              	.LBE90:
 132              	.LBE89:
 133              	.LBE88:
 134              	.LBE87:
 135              	.LBE86:
 136              		.loc 1 94 58 is_stmt 0 view .LVU30
 137 0000 10B5     		push	{r4, lr}
 138              		.cfi_def_cfa_offset 8
 139              		.cfi_offset 4, -8
 140              		.cfi_offset 14, -4
 141              	.LBB99:
 142              	.LBB97:
 143              	.LBB95:
 144              	.LBB93:
 145              	.LBB91:
 146              		.loc 5 493 3 view .LVU31
 147 0002 3023     		movs	r3, #48
 148              	.LBE91:
 149              	.LBE93:
 150              	.LBE95:
 151              	.LBE97:
 152              	.LBE99:
 153              		.loc 1 94 58 view .LVU32
 154 0004 0446     		mov	r4, r0
 155              	.LBB100:
 156              	.LBB98:
 157              	.LBB96:
 158              	.LBB94:
 159              	.LBB92:
 160              		.loc 5 493 3 view .LVU33
 161              		.syntax unified
 162              	@ 493 "../../../os/common/ext/ARM/CMSIS/Core/Include/cmsis_gcc.h" 1
 163 0006 83F31188 		MSR basepri, r3
 164              	@ 0 "" 2
 165              	.LVL6:
 166              		.loc 5 493 3 view .LVU34
 167              		.thumb
 168              		.syntax unified
 169              	.LBE92:
 170              	.LBE94:
 171              	.LBE96:
ARM GAS  C:\Users\DEVELO~1\AppData\Local\Temp\ccseWCN8.s 			page 4


 172              		.loc 3 410 35 is_stmt 1 view .LVU35
 173              		.loc 3 411 21 view .LVU36
 174              	.LBE98:
 175              	.LBE100:
 176              		.loc 1 100 3 view .LVU37
 177              		.loc 1 100 3 view .LVU38
 178              		.loc 1 100 3 view .LVU39
 179              		.loc 1 103 3 view .LVU40
 180              		.loc 1 103 16 is_stmt 0 view .LVU41
 181 000a 4160     		str	r1, [r0, #4]
 182              		.loc 1 114 3 is_stmt 1 view .LVU42
 183 000c FFF7FEFF 		bl	i2c_lld_start
 184              	.LVL7:
 185              		.loc 1 115 3 view .LVU43
 186              		.loc 1 115 15 is_stmt 0 view .LVU44
 187 0010 0223     		movs	r3, #2
 188              	.LBB101:
 189              	.LBB102:
 190              	.LBB103:
 191              	.LBB104:
 192              	.LBB105:
 193              	.LBB106:
 194              		.loc 5 493 3 view .LVU45
 195 0012 0020     		movs	r0, #0
 196              	.LBE106:
 197              	.LBE105:
 198              	.LBE104:
 199              	.LBE103:
 200              	.LBE102:
 201              	.LBE101:
 202              		.loc 1 115 15 view .LVU46
 203 0014 2370     		strb	r3, [r4]
 204              		.loc 1 116 3 is_stmt 1 view .LVU47
 205              	.LVL8:
 206              		.loc 1 119 3 view .LVU48
 207              	.LBB112:
 208              	.LBI101:
 209              		.loc 2 584 20 view .LVU49
 210              		.loc 2 586 3 view .LVU50
 211              	.LBB111:
 212              	.LBI102:
 213              		.loc 3 421 20 view .LVU51
 214              	.LBB110:
 215              		.loc 3 423 23 view .LVU52
 216              		.loc 3 424 34 view .LVU53
 217              		.loc 3 430 3 view .LVU54
 218              		.loc 3 430 3 view .LVU55
 219              		.loc 3 430 3 view .LVU56
 220              		.loc 3 434 3 view .LVU57
 221              	.LBB109:
 222              	.LBI104:
 223              		.loc 4 847 27 view .LVU58
 224              		.loc 4 850 3 view .LVU59
 225              	.LBB108:
 226              	.LBI105:
 227              		.loc 5 491 27 view .LVU60
 228              	.LBB107:
ARM GAS  C:\Users\DEVELO~1\AppData\Local\Temp\ccseWCN8.s 			page 5


 229              		.loc 5 493 3 view .LVU61
 230              		.syntax unified
 231              	@ 493 "../../../os/common/ext/ARM/CMSIS/Core/Include/cmsis_gcc.h" 1
 232 0016 80F31188 		MSR basepri, r0
 233              	@ 0 "" 2
 234              	.LVL9:
 235              		.loc 5 493 3 is_stmt 0 view .LVU62
 236              		.thumb
 237              		.syntax unified
 238              	.LBE107:
 239              	.LBE108:
 240              	.LBE109:
 241              	.LBE110:
 242              	.LBE111:
 243              	.LBE112:
 244              		.loc 1 121 3 is_stmt 1 view .LVU63
 245              		.loc 1 122 1 is_stmt 0 view .LVU64
 246 001a 10BD     		pop	{r4, pc}
 247              		.loc 1 122 1 view .LVU65
 248              		.cfi_endproc
 249              	.LFE434:
 250              		.size	i2cStart, .-i2cStart
 251              		.section	.text.i2cStop,"ax",%progbits
 252              		.align	1
 253              		.p2align 4,,15
 254              		.global	i2cStop
 255              		.syntax unified
 256              		.thumb
 257              		.thumb_func
 258              		.type	i2cStop, %function
 259              	i2cStop:
 260              	.LVL10:
 261              	.LFB435:
 262              		.loc 1 131 31 is_stmt 1 view -0
 263              		.cfi_startproc
 264              		@ args = 0, pretend = 0, frame = 0
 265              		@ frame_needed = 0, uses_anonymous_args = 0
 266              		.loc 1 133 3 view .LVU67
 267              		.loc 1 133 3 view .LVU68
 268              		.loc 1 133 3 view .LVU69
 269              		.loc 1 135 3 view .LVU70
 270              	.LBB113:
 271              	.LBI113:
 272              		.loc 2 573 20 view .LVU71
 273              		.loc 2 575 3 view .LVU72
 274              	.LBB114:
 275              	.LBI114:
 276              		.loc 3 407 20 view .LVU73
 277              		.loc 3 409 3 view .LVU74
 278              	.LBB115:
 279              	.LBI115:
 280              		.loc 4 823 27 view .LVU75
 281              		.loc 4 831 3 view .LVU76
 282              	.LBB116:
 283              	.LBI116:
 284              		.loc 5 491 27 view .LVU77
 285              	.LBB117:
ARM GAS  C:\Users\DEVELO~1\AppData\Local\Temp\ccseWCN8.s 			page 6


 286              		.loc 5 493 3 view .LVU78
 287              	.LBE117:
 288              	.LBE116:
 289              	.LBE115:
 290              	.LBE114:
 291              	.LBE113:
 292              		.loc 1 131 31 is_stmt 0 view .LVU79
 293 0000 10B5     		push	{r4, lr}
 294              		.cfi_def_cfa_offset 8
 295              		.cfi_offset 4, -8
 296              		.cfi_offset 14, -4
 297              	.LBB126:
 298              	.LBB124:
 299              	.LBB122:
 300              	.LBB120:
 301              	.LBB118:
 302              		.loc 5 493 3 view .LVU80
 303 0002 3023     		movs	r3, #48
 304              	.LBE118:
 305              	.LBE120:
 306              	.LBE122:
 307              	.LBE124:
 308              	.LBE126:
 309              		.loc 1 131 31 view .LVU81
 310 0004 0446     		mov	r4, r0
 311              	.LBB127:
 312              	.LBB125:
 313              	.LBB123:
 314              	.LBB121:
 315              	.LBB119:
 316              		.loc 5 493 3 view .LVU82
 317              		.syntax unified
 318              	@ 493 "../../../os/common/ext/ARM/CMSIS/Core/Include/cmsis_gcc.h" 1
 319 0006 83F31188 		MSR basepri, r3
 320              	@ 0 "" 2
 321              	.LVL11:
 322              		.loc 5 493 3 view .LVU83
 323              		.thumb
 324              		.syntax unified
 325              	.LBE119:
 326              	.LBE121:
 327              	.LBE123:
 328              		.loc 3 410 35 is_stmt 1 view .LVU84
 329              		.loc 3 411 21 view .LVU85
 330              	.LBE125:
 331              	.LBE127:
 332              		.loc 1 137 3 view .LVU86
 333              		.loc 1 137 3 view .LVU87
 334              		.loc 1 137 3 view .LVU88
 335              		.loc 1 140 3 view .LVU89
 336 000a FFF7FEFF 		bl	i2c_lld_stop
 337              	.LVL12:
 338              		.loc 1 141 3 view .LVU90
 339              		.loc 1 141 16 is_stmt 0 view .LVU91
 340 000e 0023     		movs	r3, #0
 341              		.loc 1 142 16 view .LVU92
 342 0010 0122     		movs	r2, #1
ARM GAS  C:\Users\DEVELO~1\AppData\Local\Temp\ccseWCN8.s 			page 7


 343              		.loc 1 141 16 view .LVU93
 344 0012 6360     		str	r3, [r4, #4]
 345              		.loc 1 142 3 is_stmt 1 view .LVU94
 346              		.loc 1 142 16 is_stmt 0 view .LVU95
 347 0014 2270     		strb	r2, [r4]
 348              		.loc 1 144 3 is_stmt 1 view .LVU96
 349              	.LBB128:
 350              	.LBI128:
 351              		.loc 2 584 20 view .LVU97
 352              		.loc 2 586 3 view .LVU98
 353              	.LBB129:
 354              	.LBI129:
 355              		.loc 3 421 20 view .LVU99
 356              	.LBB130:
 357              		.loc 3 423 23 view .LVU100
 358              		.loc 3 424 34 view .LVU101
 359              		.loc 3 430 3 view .LVU102
 360              		.loc 3 430 3 view .LVU103
 361              		.loc 3 430 3 view .LVU104
 362              		.loc 3 434 3 view .LVU105
 363              	.LBB131:
 364              	.LBI131:
 365              		.loc 4 847 27 view .LVU106
 366              		.loc 4 850 3 view .LVU107
 367              	.LVL13:
 368              	.LBB132:
 369              	.LBI132:
 370              		.loc 5 491 27 view .LVU108
 371              	.LBB133:
 372              		.loc 5 493 3 view .LVU109
 373              		.syntax unified
 374              	@ 493 "../../../os/common/ext/ARM/CMSIS/Core/Include/cmsis_gcc.h" 1
 375 0016 83F31188 		MSR basepri, r3
 376              	@ 0 "" 2
 377              	.LVL14:
 378              		.loc 5 493 3 is_stmt 0 view .LVU110
 379              		.thumb
 380              		.syntax unified
 381              	.LBE133:
 382              	.LBE132:
 383              	.LBE131:
 384              	.LBE130:
 385              	.LBE129:
 386              	.LBE128:
 387              		.loc 1 145 1 view .LVU111
 388 001a 10BD     		pop	{r4, pc}
 389              		.loc 1 145 1 view .LVU112
 390              		.cfi_endproc
 391              	.LFE435:
 392              		.size	i2cStop, .-i2cStop
 393              		.section	.text.i2cGetErrors,"ax",%progbits
 394              		.align	1
 395              		.p2align 4,,15
 396              		.global	i2cGetErrors
 397              		.syntax unified
 398              		.thumb
 399              		.thumb_func
ARM GAS  C:\Users\DEVELO~1\AppData\Local\Temp\ccseWCN8.s 			page 8


 400              		.type	i2cGetErrors, %function
 401              	i2cGetErrors:
 402              	.LVL15:
 403              	.LFB436:
 404              		.loc 1 155 42 is_stmt 1 view -0
 405              		.cfi_startproc
 406              		@ args = 0, pretend = 0, frame = 0
 407              		@ frame_needed = 0, uses_anonymous_args = 0
 408              		@ link register save eliminated.
 409              		.loc 1 157 3 view .LVU114
 410              		.loc 1 157 3 view .LVU115
 411              		.loc 1 157 3 view .LVU116
 412              		.loc 1 159 3 view .LVU117
 413              		.loc 1 160 1 is_stmt 0 view .LVU118
 414 0000 8068     		ldr	r0, [r0, #8]
 415              	.LVL16:
 416              		.loc 1 160 1 view .LVU119
 417 0002 7047     		bx	lr
 418              		.cfi_endproc
 419              	.LFE436:
 420              		.size	i2cGetErrors, .-i2cGetErrors
 421              		.section	.text.i2cMasterTransmitTimeout,"ax",%progbits
 422              		.align	1
 423              		.p2align 4,,15
 424              		.global	i2cMasterTransmitTimeout
 425              		.syntax unified
 426              		.thumb
 427              		.thumb_func
 428              		.type	i2cMasterTransmitTimeout, %function
 429              	i2cMasterTransmitTimeout:
 430              	.LVL17:
 431              	.LFB437:
 432              		.loc 1 193 55 is_stmt 1 view -0
 433              		.cfi_startproc
 434              		@ args = 12, pretend = 0, frame = 0
 435              		@ frame_needed = 0, uses_anonymous_args = 0
 436              		.loc 1 194 3 view .LVU121
 437              		.loc 1 196 3 view .LVU122
 438              		.loc 1 196 3 view .LVU123
 439              		.loc 1 196 3 view .LVU124
 440              		.loc 1 201 3 view .LVU125
 441              		.loc 1 201 3 view .LVU126
 442              		.loc 1 201 3 view .LVU127
 443              		.loc 1 203 3 view .LVU128
 444              	.LBB134:
 445              	.LBI134:
 446              		.loc 2 573 20 view .LVU129
 447              		.loc 2 575 3 view .LVU130
 448              	.LBB135:
 449              	.LBI135:
 450              		.loc 3 407 20 view .LVU131
 451              		.loc 3 409 3 view .LVU132
 452              	.LBB136:
 453              	.LBI136:
 454              		.loc 4 823 27 view .LVU133
 455              		.loc 4 831 3 view .LVU134
 456              	.LBB137:
ARM GAS  C:\Users\DEVELO~1\AppData\Local\Temp\ccseWCN8.s 			page 9


 457              	.LBI137:
 458              		.loc 5 491 27 view .LVU135
 459              	.LBB138:
 460              		.loc 5 493 3 view .LVU136
 461              	.LBE138:
 462              	.LBE137:
 463              	.LBE136:
 464              	.LBE135:
 465              	.LBE134:
 466              		.loc 1 193 55 is_stmt 0 view .LVU137
 467 0000 30B5     		push	{r4, r5, lr}
 468              		.cfi_def_cfa_offset 12
 469              		.cfi_offset 4, -12
 470              		.cfi_offset 5, -8
 471              		.cfi_offset 14, -4
 472 0002 85B0     		sub	sp, sp, #20
 473              		.cfi_def_cfa_offset 32
 474              		.loc 1 193 55 view .LVU138
 475 0004 0446     		mov	r4, r0
 476              	.LBB147:
 477              	.LBB145:
 478              	.LBB143:
 479              	.LBB141:
 480              	.LBB139:
 481              		.loc 5 493 3 view .LVU139
 482 0006 4FF0300C 		mov	ip, #48
 483              	.LBE139:
 484              	.LBE141:
 485              	.LBE143:
 486              	.LBE145:
 487              	.LBE147:
 488              		.loc 1 193 55 view .LVU140
 489 000a 089D     		ldr	r5, [sp, #32]
 490              	.LBB148:
 491              	.LBB146:
 492              	.LBB144:
 493              	.LBB142:
 494              	.LBB140:
 495              		.loc 5 493 3 view .LVU141
 496              		.syntax unified
 497              	@ 493 "../../../os/common/ext/ARM/CMSIS/Core/Include/cmsis_gcc.h" 1
 498 000c 8CF31188 		MSR basepri, ip
 499              	@ 0 "" 2
 500              	.LVL18:
 501              		.loc 5 493 3 view .LVU142
 502              		.thumb
 503              		.syntax unified
 504              	.LBE140:
 505              	.LBE142:
 506              	.LBE144:
 507              		.loc 3 410 35 is_stmt 1 view .LVU143
 508              		.loc 3 411 21 view .LVU144
 509              	.LBE146:
 510              	.LBE148:
 511              		.loc 1 204 3 view .LVU145
 512              		.loc 1 206 12 is_stmt 0 view .LVU146
 513 0010 DDF828C0 		ldr	ip, [sp, #40]
ARM GAS  C:\Users\DEVELO~1\AppData\Local\Temp\ccseWCN8.s 			page 10


 514 0014 CDF808C0 		str	ip, [sp, #8]
 515 0018 DDF824C0 		ldr	ip, [sp, #36]
 516 001c CDE9005C 		strd	r5, ip, [sp]
 517              		.loc 1 205 15 view .LVU147
 518 0020 4FF0030C 		mov	ip, #3
 519              		.loc 1 204 16 view .LVU148
 520 0024 0025     		movs	r5, #0
 521              		.loc 1 205 15 view .LVU149
 522 0026 80F800C0 		strb	ip, [r0]
 523              		.loc 1 204 16 view .LVU150
 524 002a 8560     		str	r5, [r0, #8]
 525              		.loc 1 205 3 is_stmt 1 view .LVU151
 526              		.loc 1 206 3 view .LVU152
 527              		.loc 1 206 12 is_stmt 0 view .LVU153
 528 002c FFF7FEFF 		bl	i2c_lld_master_transmit_timeout
 529              	.LVL19:
 530              		.loc 1 208 3 is_stmt 1 view .LVU154
 531              		.loc 1 209 17 is_stmt 0 view .LVU155
 532 0030 431C     		adds	r3, r0, #1
 533 0032 14BF     		ite	ne
 534 0034 0223     		movne	r3, #2
 535 0036 0523     		moveq	r3, #5
 536 0038 2370     		strb	r3, [r4]
 537              		.loc 1 214 3 is_stmt 1 view .LVU156
 538              	.LBB149:
 539              	.LBI149:
 540              		.loc 2 584 20 view .LVU157
 541              		.loc 2 586 3 view .LVU158
 542              	.LBB150:
 543              	.LBI150:
 544              		.loc 3 421 20 view .LVU159
 545              	.LBB151:
 546              		.loc 3 423 23 view .LVU160
 547              		.loc 3 424 34 view .LVU161
 548              		.loc 3 430 3 view .LVU162
 549              		.loc 3 430 3 view .LVU163
 550              		.loc 3 430 3 view .LVU164
 551              		.loc 3 434 3 view .LVU165
 552              	.LBB152:
 553              	.LBI152:
 554              		.loc 4 847 27 view .LVU166
 555              		.loc 4 850 3 view .LVU167
 556              	.LVL20:
 557              	.LBB153:
 558              	.LBI153:
 559              		.loc 5 491 27 view .LVU168
 560              	.LBB154:
 561              		.loc 5 493 3 view .LVU169
 562              		.syntax unified
 563              	@ 493 "../../../os/common/ext/ARM/CMSIS/Core/Include/cmsis_gcc.h" 1
 564 003a 85F31188 		MSR basepri, r5
 565              	@ 0 "" 2
 566              	.LVL21:
 567              		.loc 5 493 3 is_stmt 0 view .LVU170
 568              		.thumb
 569              		.syntax unified
 570              	.LBE154:
ARM GAS  C:\Users\DEVELO~1\AppData\Local\Temp\ccseWCN8.s 			page 11


 571              	.LBE153:
 572              	.LBE152:
 573              	.LBE151:
 574              	.LBE150:
 575              	.LBE149:
 576              		.loc 1 215 3 is_stmt 1 view .LVU171
 577              		.loc 1 216 1 is_stmt 0 view .LVU172
 578 003e 05B0     		add	sp, sp, #20
 579              		.cfi_def_cfa_offset 12
 580              		@ sp needed
 581 0040 30BD     		pop	{r4, r5, pc}
 582              		.loc 1 216 1 view .LVU173
 583              		.cfi_endproc
 584              	.LFE437:
 585              		.size	i2cMasterTransmitTimeout, .-i2cMasterTransmitTimeout
 586 0042 00BF     		.section	.text.i2cMasterReceiveTimeout,"ax",%progbits
 587              		.align	1
 588              		.p2align 4,,15
 589              		.global	i2cMasterReceiveTimeout
 590              		.syntax unified
 591              		.thumb
 592              		.thumb_func
 593              		.type	i2cMasterReceiveTimeout, %function
 594              	i2cMasterReceiveTimeout:
 595              	.LVL22:
 596              	.LFB438:
 597              		.loc 1 241 54 is_stmt 1 view -0
 598              		.cfi_startproc
 599              		@ args = 4, pretend = 0, frame = 0
 600              		@ frame_needed = 0, uses_anonymous_args = 0
 601              		.loc 1 243 3 view .LVU175
 602              		.loc 1 245 3 view .LVU176
 603              		.loc 1 245 3 view .LVU177
 604              		.loc 1 245 3 view .LVU178
 605              		.loc 1 249 3 view .LVU179
 606              		.loc 1 249 3 view .LVU180
 607              		.loc 1 249 3 view .LVU181
 608              		.loc 1 251 3 view .LVU182
 609              	.LBB155:
 610              	.LBI155:
 611              		.loc 2 573 20 view .LVU183
 612              		.loc 2 575 3 view .LVU184
 613              	.LBB156:
 614              	.LBI156:
 615              		.loc 3 407 20 view .LVU185
 616              		.loc 3 409 3 view .LVU186
 617              	.LBB157:
 618              	.LBI157:
 619              		.loc 4 823 27 view .LVU187
 620              		.loc 4 831 3 view .LVU188
 621              	.LBB158:
 622              	.LBI158:
 623              		.loc 5 491 27 view .LVU189
 624              	.LBB159:
 625              		.loc 5 493 3 view .LVU190
 626              	.LBE159:
 627              	.LBE158:
ARM GAS  C:\Users\DEVELO~1\AppData\Local\Temp\ccseWCN8.s 			page 12


 628              	.LBE157:
 629              	.LBE156:
 630              	.LBE155:
 631              		.loc 1 241 54 is_stmt 0 view .LVU191
 632 0000 30B5     		push	{r4, r5, lr}
 633              		.cfi_def_cfa_offset 12
 634              		.cfi_offset 4, -12
 635              		.cfi_offset 5, -8
 636              		.cfi_offset 14, -4
 637 0002 83B0     		sub	sp, sp, #12
 638              		.cfi_def_cfa_offset 24
 639              		.loc 1 241 54 view .LVU192
 640 0004 0446     		mov	r4, r0
 641              	.LBB168:
 642              	.LBB166:
 643              	.LBB164:
 644              	.LBB162:
 645              	.LBB160:
 646              		.loc 5 493 3 view .LVU193
 647 0006 4FF0300C 		mov	ip, #48
 648              	.LBE160:
 649              	.LBE162:
 650              	.LBE164:
 651              	.LBE166:
 652              	.LBE168:
 653              		.loc 1 241 54 view .LVU194
 654 000a 069D     		ldr	r5, [sp, #24]
 655              	.LBB169:
 656              	.LBB167:
 657              	.LBB165:
 658              	.LBB163:
 659              	.LBB161:
 660              		.loc 5 493 3 view .LVU195
 661              		.syntax unified
 662              	@ 493 "../../../os/common/ext/ARM/CMSIS/Core/Include/cmsis_gcc.h" 1
 663 000c 8CF31188 		MSR basepri, ip
 664              	@ 0 "" 2
 665              	.LVL23:
 666              		.loc 5 493 3 view .LVU196
 667              		.thumb
 668              		.syntax unified
 669              	.LBE161:
 670              	.LBE163:
 671              	.LBE165:
 672              		.loc 3 410 35 is_stmt 1 view .LVU197
 673              		.loc 3 411 21 view .LVU198
 674              	.LBE167:
 675              	.LBE169:
 676              		.loc 1 252 3 view .LVU199
 677              		.loc 1 253 15 is_stmt 0 view .LVU200
 678 0010 4FF0040C 		mov	ip, #4
 679              		.loc 1 254 12 view .LVU201
 680 0014 0095     		str	r5, [sp]
 681              		.loc 1 252 16 view .LVU202
 682 0016 0025     		movs	r5, #0
 683              		.loc 1 253 15 view .LVU203
 684 0018 80F800C0 		strb	ip, [r0]
ARM GAS  C:\Users\DEVELO~1\AppData\Local\Temp\ccseWCN8.s 			page 13


 685              		.loc 1 252 16 view .LVU204
 686 001c 8560     		str	r5, [r0, #8]
 687              		.loc 1 253 3 is_stmt 1 view .LVU205
 688              		.loc 1 254 3 view .LVU206
 689              		.loc 1 254 12 is_stmt 0 view .LVU207
 690 001e FFF7FEFF 		bl	i2c_lld_master_receive_timeout
 691              	.LVL24:
 692              		.loc 1 255 3 is_stmt 1 view .LVU208
 693              		.loc 1 256 17 is_stmt 0 view .LVU209
 694 0022 431C     		adds	r3, r0, #1
 695 0024 14BF     		ite	ne
 696 0026 0223     		movne	r3, #2
 697 0028 0523     		moveq	r3, #5
 698 002a 2370     		strb	r3, [r4]
 699              		.loc 1 261 3 is_stmt 1 view .LVU210
 700              	.LBB170:
 701              	.LBI170:
 702              		.loc 2 584 20 view .LVU211
 703              		.loc 2 586 3 view .LVU212
 704              	.LBB171:
 705              	.LBI171:
 706              		.loc 3 421 20 view .LVU213
 707              	.LBB172:
 708              		.loc 3 423 23 view .LVU214
 709              		.loc 3 424 34 view .LVU215
 710              		.loc 3 430 3 view .LVU216
 711              		.loc 3 430 3 view .LVU217
 712              		.loc 3 430 3 view .LVU218
 713              		.loc 3 434 3 view .LVU219
 714              	.LBB173:
 715              	.LBI173:
 716              		.loc 4 847 27 view .LVU220
 717              		.loc 4 850 3 view .LVU221
 718              	.LVL25:
 719              	.LBB174:
 720              	.LBI174:
 721              		.loc 5 491 27 view .LVU222
 722              	.LBB175:
 723              		.loc 5 493 3 view .LVU223
 724              		.syntax unified
 725              	@ 493 "../../../os/common/ext/ARM/CMSIS/Core/Include/cmsis_gcc.h" 1
 726 002c 85F31188 		MSR basepri, r5
 727              	@ 0 "" 2
 728              	.LVL26:
 729              		.loc 5 493 3 is_stmt 0 view .LVU224
 730              		.thumb
 731              		.syntax unified
 732              	.LBE175:
 733              	.LBE174:
 734              	.LBE173:
 735              	.LBE172:
 736              	.LBE171:
 737              	.LBE170:
 738              		.loc 1 262 3 is_stmt 1 view .LVU225
 739              		.loc 1 263 1 is_stmt 0 view .LVU226
 740 0030 03B0     		add	sp, sp, #12
 741              		.cfi_def_cfa_offset 12
ARM GAS  C:\Users\DEVELO~1\AppData\Local\Temp\ccseWCN8.s 			page 14


 742              		@ sp needed
 743 0032 30BD     		pop	{r4, r5, pc}
 744              		.loc 1 263 1 view .LVU227
 745              		.cfi_endproc
 746              	.LFE438:
 747              		.size	i2cMasterReceiveTimeout, .-i2cMasterReceiveTimeout
 748              		.section	.text.i2cAcquireBus,"ax",%progbits
 749              		.align	1
 750              		.p2align 4,,15
 751              		.global	i2cAcquireBus
 752              		.syntax unified
 753              		.thumb
 754              		.thumb_func
 755              		.type	i2cAcquireBus, %function
 756              	i2cAcquireBus:
 757              	.LVL27:
 758              	.LFB439:
 759              		.loc 1 277 37 is_stmt 1 view -0
 760              		.cfi_startproc
 761              		@ args = 0, pretend = 0, frame = 0
 762              		@ frame_needed = 0, uses_anonymous_args = 0
 763              		@ link register save eliminated.
 764              		.loc 1 279 3 view .LVU229
 765              		.loc 1 279 3 view .LVU230
 766              		.loc 1 279 3 view .LVU231
 767              		.loc 1 281 3 view .LVU232
 768              	.LBB176:
 769              	.LBI176:
 770              		.loc 2 1055 20 view .LVU233
 771              	.LBB177:
 772              		.loc 2 1058 3 view .LVU234
 773 0000 0C30     		adds	r0, r0, #12
 774              	.LVL28:
 775              		.loc 2 1058 3 is_stmt 0 view .LVU235
 776 0002 FFF7FEBF 		b	chMtxLock
 777              	.LVL29:
 778              		.loc 2 1058 3 view .LVU236
 779              	.LBE177:
 780              	.LBE176:
 781              		.cfi_endproc
 782              	.LFE439:
 783              		.size	i2cAcquireBus, .-i2cAcquireBus
 784 0006 00BF     		.section	.text.i2cReleaseBus,"ax",%progbits
 785              		.align	1
 786              		.p2align 4,,15
 787              		.global	i2cReleaseBus
 788              		.syntax unified
 789              		.thumb
 790              		.thumb_func
 791              		.type	i2cReleaseBus, %function
 792              	i2cReleaseBus:
 793              	.LVL30:
 794              	.LFB440:
 795              		.loc 1 293 37 is_stmt 1 view -0
 796              		.cfi_startproc
 797              		@ args = 0, pretend = 0, frame = 0
 798              		@ frame_needed = 0, uses_anonymous_args = 0
ARM GAS  C:\Users\DEVELO~1\AppData\Local\Temp\ccseWCN8.s 			page 15


 799              		@ link register save eliminated.
 800              		.loc 1 295 3 view .LVU238
 801              		.loc 1 295 3 view .LVU239
 802              		.loc 1 295 3 view .LVU240
 803              		.loc 1 297 3 view .LVU241
 804              	.LBB178:
 805              	.LBI178:
 806              		.loc 2 1079 20 view .LVU242
 807              	.LBB179:
 808              		.loc 2 1082 3 view .LVU243
 809 0000 0C30     		adds	r0, r0, #12
 810              	.LVL31:
 811              		.loc 2 1082 3 is_stmt 0 view .LVU244
 812 0002 FFF7FEBF 		b	chMtxUnlock
 813              	.LVL32:
 814              		.loc 2 1082 3 view .LVU245
 815              	.LBE179:
 816              	.LBE178:
 817              		.cfi_endproc
 818              	.LFE440:
 819              		.size	i2cReleaseBus, .-i2cReleaseBus
 820 0006 00BF     		.text
 821              	.Letext0:
 822              		.file 6 "c:\\chibistudio\\tools\\gnu tools arm embedded\\11.3 2022.08\\lib\\gcc\\arm-none-eabi\\11
 823              		.file 7 "c:\\chibistudio\\tools\\gnu tools arm embedded\\11.3 2022.08\\arm-none-eabi\\include\\mac
 824              		.file 8 "c:\\chibistudio\\tools\\gnu tools arm embedded\\11.3 2022.08\\arm-none-eabi\\include\\sys
 825              		.file 9 "../../../os/common/ports/ARM-common/chtypes.h"
 826              		.file 10 "../../../os/rt/include/chearly.h"
 827              		.file 11 "../../../os/rt/include/chobjects.h"
 828              		.file 12 "../../../os/rt/include/chrfcu.h"
 829              		.file 13 "../../../os/rt/include/chdebug.h"
 830              		.file 14 "../../../os/rt/include/chtime.h"
 831              		.file 15 "../../../os/rt/include/chlists.h"
 832              		.file 16 "../../../os/rt/include/chtrace.h"
 833              		.file 17 "../../../os/common/ext/ST/STM32H7xx/stm32h743xx.h"
 834              		.file 18 "../../../os/rt/include/chsem.h"
 835              		.file 19 "../../../os/rt/include/chmtx.h"
 836              		.file 20 "../../../os/hal/ports/STM32/LLD/DMAv2/stm32_dma.h"
 837              		.file 21 "../../../os/hal/include/hal_i2c.h"
 838              		.file 22 "../../../os/hal/ports/STM32/LLD/I2Cv3/hal_i2c_lld.h"