ARM GAS  C:\Users\DEVELO~1\AppData\Local\Temp\ccuygmoc.s 			page 1


   1              		.cpu cortex-m7
   2              		.arch armv7e-m
   3              		.fpu softvfp
   4              		.eabi_attribute 20, 1
   5              		.eabi_attribute 21, 1
   6              		.eabi_attribute 23, 3
   7              		.eabi_attribute 24, 1
   8              		.eabi_attribute 25, 1
   9              		.eabi_attribute 26, 1
  10              		.eabi_attribute 30, 2
  11              		.eabi_attribute 34, 1
  12              		.eabi_attribute 18, 4
  13              		.file	"hal_sai.c"
  14              		.text
  15              	.Ltext0:
  16              		.cfi_sections	.debug_frame
  17              		.section	.text.saiInit,"ax",%progbits
  18              		.align	1
  19              		.p2align 4,,15
  20              		.global	saiInit
  21              		.syntax unified
  22              		.thumb
  23              		.thumb_func
  24              		.type	saiInit, %function
  25              	saiInit:
  26              	.LFB432:
  27              		.file 1 "../../../os/hal/src/hal_sai.c"
  28              		.loc 1 39 20 view -0
  29              		.cfi_startproc
  30              		@ args = 0, pretend = 0, frame = 0
  31              		@ frame_needed = 0, uses_anonymous_args = 0
  32              		@ link register save eliminated.
  33              		.loc 1 41 3 view .LVU1
  34 0000 FFF7FEBF 		b	sai_lld_init
  35              	.LVL0:
  36              		.cfi_endproc
  37              	.LFE432:
  38              		.size	saiInit, .-saiInit
  39              		.section	.text.saiObjectInit,"ax",%progbits
  40              		.align	1
  41              		.p2align 4,,15
  42              		.global	saiObjectInit
  43              		.syntax unified
  44              		.thumb
  45              		.thumb_func
  46              		.type	saiObjectInit, %function
  47              	saiObjectInit:
  48              	.LVL1:
  49              	.LFB433:
  50              		.loc 1 51 37 view -0
  51              		.cfi_startproc
  52              		@ args = 0, pretend = 0, frame = 0
  53              		@ frame_needed = 0, uses_anonymous_args = 0
  54              		@ link register save eliminated.
  55              		.loc 1 53 3 view .LVU3
  56              		.loc 1 53 16 is_stmt 0 view .LVU4
  57 0000 0122     		movs	r2, #1
ARM GAS  C:\Users\DEVELO~1\AppData\Local\Temp\ccuygmoc.s 			page 2


  58              		.loc 1 54 16 view .LVU5
  59 0002 0023     		movs	r3, #0
  60              		.loc 1 53 16 view .LVU6
  61 0004 0270     		strb	r2, [r0]
  62              		.loc 1 54 3 is_stmt 1 view .LVU7
  63              		.loc 1 54 16 is_stmt 0 view .LVU8
  64 0006 4360     		str	r3, [r0, #4]
  65              		.loc 1 55 1 view .LVU9
  66 0008 7047     		bx	lr
  67              		.cfi_endproc
  68              	.LFE433:
  69              		.size	saiObjectInit, .-saiObjectInit
  70 000a 00BF     		.section	.text.saiStart,"ax",%progbits
  71              		.align	1
  72              		.p2align 4,,15
  73              		.global	saiStart
  74              		.syntax unified
  75              		.thumb
  76              		.thumb_func
  77              		.type	saiStart, %function
  78              	saiStart:
  79              	.LVL2:
  80              	.LFB434:
  81              		.loc 1 66 58 is_stmt 1 view -0
  82              		.cfi_startproc
  83              		@ args = 0, pretend = 0, frame = 0
  84              		@ frame_needed = 0, uses_anonymous_args = 0
  85              		.loc 1 67 3 view .LVU11
  86              		.loc 1 69 3 view .LVU12
  87              		.loc 1 69 3 view .LVU13
  88              		.loc 1 69 3 view .LVU14
  89              		.loc 1 71 3 view .LVU15
  90              	.LBB89:
  91              	.LBI89:
  92              		.file 2 "../../../os/hal/osal/rt-nil/osal.h"
  93              		.loc 2 573 20 view .LVU16
  94              		.loc 2 575 3 view .LVU17
  95              	.LBB90:
  96              	.LBI90:
  97              		.file 3 "../../../os/rt/include/chsys.h"
  98              		.loc 3 407 20 view .LVU18
  99              		.loc 3 409 3 view .LVU19
 100              	.LBB91:
 101              	.LBI91:
 102              		.file 4 "../../../os/common/ports/ARMv7-M/chcore.h"
 103              		.loc 4 823 27 view .LVU20
 104              		.loc 4 831 3 view .LVU21
 105              	.LBB92:
 106              	.LBI92:
 107              		.file 5 "../../../os/common/ext/ARM/CMSIS/Core/Include/cmsis_gcc.h"
 108              		.loc 5 491 27 view .LVU22
 109              	.LBB93:
 110              		.loc 5 493 3 view .LVU23
 111              	.LBE93:
 112              	.LBE92:
 113              	.LBE91:
 114              	.LBE90:
ARM GAS  C:\Users\DEVELO~1\AppData\Local\Temp\ccuygmoc.s 			page 3


 115              	.LBE89:
 116              		.loc 1 66 58 is_stmt 0 view .LVU24
 117 0000 10B5     		push	{r4, lr}
 118              		.cfi_def_cfa_offset 8
 119              		.cfi_offset 4, -8
 120              		.cfi_offset 14, -4
 121              	.LBB102:
 122              	.LBB100:
 123              	.LBB98:
 124              	.LBB96:
 125              	.LBB94:
 126              		.loc 5 493 3 view .LVU25
 127 0002 3023     		movs	r3, #48
 128              	.LBE94:
 129              	.LBE96:
 130              	.LBE98:
 131              	.LBE100:
 132              	.LBE102:
 133              		.loc 1 66 58 view .LVU26
 134 0004 0446     		mov	r4, r0
 135              	.LBB103:
 136              	.LBB101:
 137              	.LBB99:
 138              	.LBB97:
 139              	.LBB95:
 140              		.loc 5 493 3 view .LVU27
 141              		.syntax unified
 142              	@ 493 "../../../os/common/ext/ARM/CMSIS/Core/Include/cmsis_gcc.h" 1
 143 0006 83F31188 		MSR basepri, r3
 144              	@ 0 "" 2
 145              	.LVL3:
 146              		.loc 5 493 3 view .LVU28
 147              		.thumb
 148              		.syntax unified
 149              	.LBE95:
 150              	.LBE97:
 151              	.LBE99:
 152              		.loc 3 410 35 is_stmt 1 view .LVU29
 153              		.loc 3 411 21 view .LVU30
 154              	.LBE101:
 155              	.LBE103:
 156              		.loc 1 72 3 view .LVU31
 157              		.loc 1 72 3 view .LVU32
 158              		.loc 1 72 3 view .LVU33
 159              		.loc 1 75 3 view .LVU34
 160              		.loc 1 75 16 is_stmt 0 view .LVU35
 161 000a 4160     		str	r1, [r0, #4]
 162              		.loc 1 86 3 is_stmt 1 view .LVU36
 163 000c FFF7FEFF 		bl	sai_lld_start
 164              	.LVL4:
 165              		.loc 1 87 3 view .LVU37
 166              		.loc 1 87 15 is_stmt 0 view .LVU38
 167 0010 0223     		movs	r3, #2
 168              	.LBB104:
 169              	.LBB105:
 170              	.LBB106:
 171              	.LBB107:
ARM GAS  C:\Users\DEVELO~1\AppData\Local\Temp\ccuygmoc.s 			page 4


 172              	.LBB108:
 173              	.LBB109:
 174              		.loc 5 493 3 view .LVU39
 175 0012 0020     		movs	r0, #0
 176              	.LBE109:
 177              	.LBE108:
 178              	.LBE107:
 179              	.LBE106:
 180              	.LBE105:
 181              	.LBE104:
 182              		.loc 1 87 15 view .LVU40
 183 0014 2370     		strb	r3, [r4]
 184              		.loc 1 88 3 is_stmt 1 view .LVU41
 185              	.LVL5:
 186              		.loc 1 91 3 view .LVU42
 187              	.LBB115:
 188              	.LBI104:
 189              		.loc 2 584 20 view .LVU43
 190              		.loc 2 586 3 view .LVU44
 191              	.LBB114:
 192              	.LBI105:
 193              		.loc 3 421 20 view .LVU45
 194              	.LBB113:
 195              		.loc 3 423 23 view .LVU46
 196              		.loc 3 424 34 view .LVU47
 197              		.loc 3 430 3 view .LVU48
 198              		.loc 3 430 3 view .LVU49
 199              		.loc 3 430 3 view .LVU50
 200              		.loc 3 434 3 view .LVU51
 201              	.LBB112:
 202              	.LBI107:
 203              		.loc 4 847 27 view .LVU52
 204              		.loc 4 850 3 view .LVU53
 205              	.LBB111:
 206              	.LBI108:
 207              		.loc 5 491 27 view .LVU54
 208              	.LBB110:
 209              		.loc 5 493 3 view .LVU55
 210              		.syntax unified
 211              	@ 493 "../../../os/common/ext/ARM/CMSIS/Core/Include/cmsis_gcc.h" 1
 212 0016 80F31188 		MSR basepri, r0
 213              	@ 0 "" 2
 214              	.LVL6:
 215              		.loc 5 493 3 is_stmt 0 view .LVU56
 216              		.thumb
 217              		.syntax unified
 218              	.LBE110:
 219              	.LBE111:
 220              	.LBE112:
 221              	.LBE113:
 222              	.LBE114:
 223              	.LBE115:
 224              		.loc 1 93 3 is_stmt 1 view .LVU57
 225              		.loc 1 94 1 is_stmt 0 view .LVU58
 226 001a 10BD     		pop	{r4, pc}
 227              		.loc 1 94 1 view .LVU59
 228              		.cfi_endproc
ARM GAS  C:\Users\DEVELO~1\AppData\Local\Temp\ccuygmoc.s 			page 5


 229              	.LFE434:
 230              		.size	saiStart, .-saiStart
 231              		.section	.text.saiStop,"ax",%progbits
 232              		.align	1
 233              		.p2align 4,,15
 234              		.global	saiStop
 235              		.syntax unified
 236              		.thumb
 237              		.thumb_func
 238              		.type	saiStop, %function
 239              	saiStop:
 240              	.LVL7:
 241              	.LFB435:
 242              		.loc 1 103 31 is_stmt 1 view -0
 243              		.cfi_startproc
 244              		@ args = 0, pretend = 0, frame = 0
 245              		@ frame_needed = 0, uses_anonymous_args = 0
 246              		.loc 1 105 3 view .LVU61
 247              		.loc 1 105 3 view .LVU62
 248              		.loc 1 105 3 view .LVU63
 249              		.loc 1 107 3 view .LVU64
 250              	.LBB116:
 251              	.LBI116:
 252              		.loc 2 573 20 view .LVU65
 253              		.loc 2 575 3 view .LVU66
 254              	.LBB117:
 255              	.LBI117:
 256              		.loc 3 407 20 view .LVU67
 257              		.loc 3 409 3 view .LVU68
 258              	.LBB118:
 259              	.LBI118:
 260              		.loc 4 823 27 view .LVU69
 261              		.loc 4 831 3 view .LVU70
 262              	.LBB119:
 263              	.LBI119:
 264              		.loc 5 491 27 view .LVU71
 265              	.LBB120:
 266              		.loc 5 493 3 view .LVU72
 267              	.LBE120:
 268              	.LBE119:
 269              	.LBE118:
 270              	.LBE117:
 271              	.LBE116:
 272              		.loc 1 103 31 is_stmt 0 view .LVU73
 273 0000 10B5     		push	{r4, lr}
 274              		.cfi_def_cfa_offset 8
 275              		.cfi_offset 4, -8
 276              		.cfi_offset 14, -4
 277              	.LBB129:
 278              	.LBB127:
 279              	.LBB125:
 280              	.LBB123:
 281              	.LBB121:
 282              		.loc 5 493 3 view .LVU74
 283 0002 3023     		movs	r3, #48
 284              	.LBE121:
 285              	.LBE123:
ARM GAS  C:\Users\DEVELO~1\AppData\Local\Temp\ccuygmoc.s 			page 6


 286              	.LBE125:
 287              	.LBE127:
 288              	.LBE129:
 289              		.loc 1 103 31 view .LVU75
 290 0004 0446     		mov	r4, r0
 291              	.LBB130:
 292              	.LBB128:
 293              	.LBB126:
 294              	.LBB124:
 295              	.LBB122:
 296              		.loc 5 493 3 view .LVU76
 297              		.syntax unified
 298              	@ 493 "../../../os/common/ext/ARM/CMSIS/Core/Include/cmsis_gcc.h" 1
 299 0006 83F31188 		MSR basepri, r3
 300              	@ 0 "" 2
 301              	.LVL8:
 302              		.loc 5 493 3 view .LVU77
 303              		.thumb
 304              		.syntax unified
 305              	.LBE122:
 306              	.LBE124:
 307              	.LBE126:
 308              		.loc 3 410 35 is_stmt 1 view .LVU78
 309              		.loc 3 411 21 view .LVU79
 310              	.LBE128:
 311              	.LBE130:
 312              		.loc 1 108 3 view .LVU80
 313              		.loc 1 108 3 view .LVU81
 314              		.loc 1 108 3 view .LVU82
 315              		.loc 1 111 3 view .LVU83
 316 000a FFF7FEFF 		bl	sai_lld_stop
 317              	.LVL9:
 318              		.loc 1 112 3 view .LVU84
 319              		.loc 1 112 16 is_stmt 0 view .LVU85
 320 000e 0023     		movs	r3, #0
 321              		.loc 1 113 16 view .LVU86
 322 0010 0122     		movs	r2, #1
 323              		.loc 1 112 16 view .LVU87
 324 0012 6360     		str	r3, [r4, #4]
 325              		.loc 1 113 3 is_stmt 1 view .LVU88
 326              		.loc 1 113 16 is_stmt 0 view .LVU89
 327 0014 2270     		strb	r2, [r4]
 328              		.loc 1 115 3 is_stmt 1 view .LVU90
 329              	.LBB131:
 330              	.LBI131:
 331              		.loc 2 584 20 view .LVU91
 332              		.loc 2 586 3 view .LVU92
 333              	.LBB132:
 334              	.LBI132:
 335              		.loc 3 421 20 view .LVU93
 336              	.LBB133:
 337              		.loc 3 423 23 view .LVU94
 338              		.loc 3 424 34 view .LVU95
 339              		.loc 3 430 3 view .LVU96
 340              		.loc 3 430 3 view .LVU97
 341              		.loc 3 430 3 view .LVU98
 342              		.loc 3 434 3 view .LVU99
ARM GAS  C:\Users\DEVELO~1\AppData\Local\Temp\ccuygmoc.s 			page 7


 343              	.LBB134:
 344              	.LBI134:
 345              		.loc 4 847 27 view .LVU100
 346              		.loc 4 850 3 view .LVU101
 347              	.LVL10:
 348              	.LBB135:
 349              	.LBI135:
 350              		.loc 5 491 27 view .LVU102
 351              	.LBB136:
 352              		.loc 5 493 3 view .LVU103
 353              		.syntax unified
 354              	@ 493 "../../../os/common/ext/ARM/CMSIS/Core/Include/cmsis_gcc.h" 1
 355 0016 83F31188 		MSR basepri, r3
 356              	@ 0 "" 2
 357              	.LVL11:
 358              		.loc 5 493 3 is_stmt 0 view .LVU104
 359              		.thumb
 360              		.syntax unified
 361              	.LBE136:
 362              	.LBE135:
 363              	.LBE134:
 364              	.LBE133:
 365              	.LBE132:
 366              	.LBE131:
 367              		.loc 1 116 1 view .LVU105
 368 001a 10BD     		pop	{r4, pc}
 369              		.loc 1 116 1 view .LVU106
 370              		.cfi_endproc
 371              	.LFE435:
 372              		.size	saiStop, .-saiStop
 373              		.section	.text.saiSetBuffers,"ax",%progbits
 374              		.align	1
 375              		.p2align 4,,15
 376              		.global	saiSetBuffers
 377              		.syntax unified
 378              		.thumb
 379              		.thumb_func
 380              		.type	saiSetBuffers, %function
 381              	saiSetBuffers:
 382              	.LVL12:
 383              	.LFB436:
 384              		.loc 1 131 33 is_stmt 1 view -0
 385              		.cfi_startproc
 386              		@ args = 0, pretend = 0, frame = 0
 387              		@ frame_needed = 0, uses_anonymous_args = 0
 388              		.loc 1 133 3 view .LVU108
 389              		.loc 1 133 3 view .LVU109
 390              		.loc 1 133 3 view .LVU110
 391              		.loc 1 135 3 view .LVU111
 392              	.LBB137:
 393              	.LBI137:
 394              		.loc 2 573 20 view .LVU112
 395              		.loc 2 575 3 view .LVU113
 396              	.LBB138:
 397              	.LBI138:
 398              		.loc 3 407 20 view .LVU114
 399              		.loc 3 409 3 view .LVU115
ARM GAS  C:\Users\DEVELO~1\AppData\Local\Temp\ccuygmoc.s 			page 8


 400              	.LBB139:
 401              	.LBI139:
 402              		.loc 4 823 27 view .LVU116
 403              		.loc 4 831 3 view .LVU117
 404              	.LBB140:
 405              	.LBI140:
 406              		.loc 5 491 27 view .LVU118
 407              	.LBB141:
 408              		.loc 5 493 3 view .LVU119
 409 0000 4FF0300C 		mov	ip, #48
 410              	.LBE141:
 411              	.LBE140:
 412              	.LBE139:
 413              	.LBE138:
 414              	.LBE137:
 415              		.loc 1 131 33 is_stmt 0 view .LVU120
 416 0004 08B5     		push	{r3, lr}
 417              		.cfi_def_cfa_offset 8
 418              		.cfi_offset 3, -8
 419              		.cfi_offset 14, -4
 420              	.LBB146:
 421              	.LBB145:
 422              	.LBB144:
 423              	.LBB143:
 424              	.LBB142:
 425              		.loc 5 493 3 view .LVU121
 426              		.syntax unified
 427              	@ 493 "../../../os/common/ext/ARM/CMSIS/Core/Include/cmsis_gcc.h" 1
 428 0006 8CF31188 		MSR basepri, ip
 429              	@ 0 "" 2
 430              	.LVL13:
 431              		.loc 5 493 3 view .LVU122
 432              		.thumb
 433              		.syntax unified
 434              	.LBE142:
 435              	.LBE143:
 436              	.LBE144:
 437              		.loc 3 410 35 is_stmt 1 view .LVU123
 438              		.loc 3 411 21 view .LVU124
 439              	.LBE145:
 440              	.LBE146:
 441              		.loc 1 136 3 view .LVU125
 442              		.loc 1 136 3 view .LVU126
 443              		.loc 1 136 3 view .LVU127
 444              		.loc 1 138 3 view .LVU128
 445 000a FFF7FEFF 		bl	sai_lld_set_buffers
 446              	.LVL14:
 447              		.loc 1 140 3 view .LVU129
 448              	.LBB147:
 449              	.LBI147:
 450              		.loc 2 584 20 view .LVU130
 451              		.loc 2 586 3 view .LVU131
 452              	.LBB148:
 453              	.LBI148:
 454              		.loc 3 421 20 view .LVU132
 455              	.LBB149:
 456              		.loc 3 423 23 view .LVU133
ARM GAS  C:\Users\DEVELO~1\AppData\Local\Temp\ccuygmoc.s 			page 9


 457              		.loc 3 424 34 view .LVU134
 458              		.loc 3 430 3 view .LVU135
 459              		.loc 3 430 3 view .LVU136
 460              		.loc 3 430 3 view .LVU137
 461              		.loc 3 434 3 view .LVU138
 462              	.LBB150:
 463              	.LBI150:
 464              		.loc 4 847 27 view .LVU139
 465              		.loc 4 850 3 view .LVU140
 466              	.LBB151:
 467              	.LBI151:
 468              		.loc 5 491 27 view .LVU141
 469              	.LBB152:
 470              		.loc 5 493 3 view .LVU142
 471 000e 0023     		movs	r3, #0
 472              		.syntax unified
 473              	@ 493 "../../../os/common/ext/ARM/CMSIS/Core/Include/cmsis_gcc.h" 1
 474 0010 83F31188 		MSR basepri, r3
 475              	@ 0 "" 2
 476              	.LVL15:
 477              		.loc 5 493 3 is_stmt 0 view .LVU143
 478              		.thumb
 479              		.syntax unified
 480              	.LBE152:
 481              	.LBE151:
 482              	.LBE150:
 483              	.LBE149:
 484              	.LBE148:
 485              	.LBE147:
 486              		.loc 1 141 1 view .LVU144
 487 0014 08BD     		pop	{r3, pc}
 488              		.cfi_endproc
 489              	.LFE436:
 490              		.size	saiSetBuffers, .-saiSetBuffers
 491 0016 00BF     		.section	.text.saiStartExchange,"ax",%progbits
 492              		.align	1
 493              		.p2align 4,,15
 494              		.global	saiStartExchange
 495              		.syntax unified
 496              		.thumb
 497              		.thumb_func
 498              		.type	saiStartExchange, %function
 499              	saiStartExchange:
 500              	.LVL16:
 501              	.LFB437:
 502              		.loc 1 150 40 is_stmt 1 view -0
 503              		.cfi_startproc
 504              		@ args = 0, pretend = 0, frame = 0
 505              		@ frame_needed = 0, uses_anonymous_args = 0
 506              		.loc 1 152 3 view .LVU146
 507              		.loc 1 152 3 view .LVU147
 508              		.loc 1 152 3 view .LVU148
 509              		.loc 1 154 3 view .LVU149
 510              	.LBB153:
 511              	.LBI153:
 512              		.loc 2 573 20 view .LVU150
 513              		.loc 2 575 3 view .LVU151
ARM GAS  C:\Users\DEVELO~1\AppData\Local\Temp\ccuygmoc.s 			page 10


 514              	.LBB154:
 515              	.LBI154:
 516              		.loc 3 407 20 view .LVU152
 517              		.loc 3 409 3 view .LVU153
 518              	.LBB155:
 519              	.LBI155:
 520              		.loc 4 823 27 view .LVU154
 521              		.loc 4 831 3 view .LVU155
 522              	.LBB156:
 523              	.LBI156:
 524              		.loc 5 491 27 view .LVU156
 525              	.LBB157:
 526              		.loc 5 493 3 view .LVU157
 527              	.LBE157:
 528              	.LBE156:
 529              	.LBE155:
 530              	.LBE154:
 531              	.LBE153:
 532              		.loc 1 150 40 is_stmt 0 view .LVU158
 533 0000 10B5     		push	{r4, lr}
 534              		.cfi_def_cfa_offset 8
 535              		.cfi_offset 4, -8
 536              		.cfi_offset 14, -4
 537              	.LBB166:
 538              	.LBB164:
 539              	.LBB162:
 540              	.LBB160:
 541              	.LBB158:
 542              		.loc 5 493 3 view .LVU159
 543 0002 3023     		movs	r3, #48
 544              	.LBE158:
 545              	.LBE160:
 546              	.LBE162:
 547              	.LBE164:
 548              	.LBE166:
 549              		.loc 1 150 40 view .LVU160
 550 0004 0446     		mov	r4, r0
 551              	.LBB167:
 552              	.LBB165:
 553              	.LBB163:
 554              	.LBB161:
 555              	.LBB159:
 556              		.loc 5 493 3 view .LVU161
 557              		.syntax unified
 558              	@ 493 "../../../os/common/ext/ARM/CMSIS/Core/Include/cmsis_gcc.h" 1
 559 0006 83F31188 		MSR basepri, r3
 560              	@ 0 "" 2
 561              	.LVL17:
 562              		.loc 5 493 3 view .LVU162
 563              		.thumb
 564              		.syntax unified
 565              	.LBE159:
 566              	.LBE161:
 567              	.LBE163:
 568              		.loc 3 410 35 is_stmt 1 view .LVU163
 569              		.loc 3 411 21 view .LVU164
 570              	.LBE165:
ARM GAS  C:\Users\DEVELO~1\AppData\Local\Temp\ccuygmoc.s 			page 11


 571              	.LBE167:
 572              		.loc 1 155 3 view .LVU165
 573              		.loc 1 155 3 view .LVU166
 574              		.loc 1 155 3 view .LVU167
 575              		.loc 1 156 3 view .LVU168
 576 000a FFF7FEFF 		bl	sai_lld_start_exchange
 577              	.LVL18:
 578              		.loc 1 156 3 view .LVU169
 579 000e 0322     		movs	r2, #3
 580              	.LBB168:
 581              	.LBB169:
 582              	.LBB170:
 583              	.LBB171:
 584              	.LBB172:
 585              	.LBB173:
 586              		.loc 5 493 3 is_stmt 0 view .LVU170
 587 0010 0023     		movs	r3, #0
 588              	.LBE173:
 589              	.LBE172:
 590              	.LBE171:
 591              	.LBE170:
 592              	.LBE169:
 593              	.LBE168:
 594              		.loc 1 156 3 view .LVU171
 595 0012 2270     		strb	r2, [r4]
 596              		.loc 1 156 26 is_stmt 1 view .LVU172
 597              		.loc 1 157 3 view .LVU173
 598              	.LBB179:
 599              	.LBI168:
 600              		.loc 2 584 20 view .LVU174
 601              		.loc 2 586 3 view .LVU175
 602              	.LBB178:
 603              	.LBI169:
 604              		.loc 3 421 20 view .LVU176
 605              	.LBB177:
 606              		.loc 3 423 23 view .LVU177
 607              		.loc 3 424 34 view .LVU178
 608              		.loc 3 430 3 view .LVU179
 609              		.loc 3 430 3 view .LVU180
 610              		.loc 3 430 3 view .LVU181
 611              		.loc 3 434 3 view .LVU182
 612              	.LBB176:
 613              	.LBI171:
 614              		.loc 4 847 27 view .LVU183
 615              		.loc 4 850 3 view .LVU184
 616              	.LVL19:
 617              	.LBB175:
 618              	.LBI172:
 619              		.loc 5 491 27 view .LVU185
 620              	.LBB174:
 621              		.loc 5 493 3 view .LVU186
 622              		.syntax unified
 623              	@ 493 "../../../os/common/ext/ARM/CMSIS/Core/Include/cmsis_gcc.h" 1
 624 0014 83F31188 		MSR basepri, r3
 625              	@ 0 "" 2
 626              	.LVL20:
 627              		.loc 5 493 3 is_stmt 0 view .LVU187
ARM GAS  C:\Users\DEVELO~1\AppData\Local\Temp\ccuygmoc.s 			page 12


 628              		.thumb
 629              		.syntax unified
 630              	.LBE174:
 631              	.LBE175:
 632              	.LBE176:
 633              	.LBE177:
 634              	.LBE178:
 635              	.LBE179:
 636              		.loc 1 158 1 view .LVU188
 637 0018 10BD     		pop	{r4, pc}
 638              		.loc 1 158 1 view .LVU189
 639              		.cfi_endproc
 640              	.LFE437:
 641              		.size	saiStartExchange, .-saiStartExchange
 642 001a 00BF     		.section	.text.saiStopExchange,"ax",%progbits
 643              		.align	1
 644              		.p2align 4,,15
 645              		.global	saiStopExchange
 646              		.syntax unified
 647              		.thumb
 648              		.thumb_func
 649              		.type	saiStopExchange, %function
 650              	saiStopExchange:
 651              	.LVL21:
 652              	.LFB438:
 653              		.loc 1 167 39 is_stmt 1 view -0
 654              		.cfi_startproc
 655              		@ args = 0, pretend = 0, frame = 0
 656              		@ frame_needed = 0, uses_anonymous_args = 0
 657              		.loc 1 169 3 view .LVU191
 658              		.loc 1 169 3 view .LVU192
 659              		.loc 1 169 3 view .LVU193
 660              		.loc 1 171 3 view .LVU194
 661              	.LBB180:
 662              	.LBI180:
 663              		.loc 2 573 20 view .LVU195
 664              		.loc 2 575 3 view .LVU196
 665              	.LBB181:
 666              	.LBI181:
 667              		.loc 3 407 20 view .LVU197
 668              		.loc 3 409 3 view .LVU198
 669              	.LBB182:
 670              	.LBI182:
 671              		.loc 4 823 27 view .LVU199
 672              		.loc 4 831 3 view .LVU200
 673              	.LBB183:
 674              	.LBI183:
 675              		.loc 5 491 27 view .LVU201
 676              	.LBB184:
 677              		.loc 5 493 3 view .LVU202
 678              	.LBE184:
 679              	.LBE183:
 680              	.LBE182:
 681              	.LBE181:
 682              	.LBE180:
 683              		.loc 1 167 39 is_stmt 0 view .LVU203
 684 0000 10B5     		push	{r4, lr}
ARM GAS  C:\Users\DEVELO~1\AppData\Local\Temp\ccuygmoc.s 			page 13


 685              		.cfi_def_cfa_offset 8
 686              		.cfi_offset 4, -8
 687              		.cfi_offset 14, -4
 688              	.LBB193:
 689              	.LBB191:
 690              	.LBB189:
 691              	.LBB187:
 692              	.LBB185:
 693              		.loc 5 493 3 view .LVU204
 694 0002 3023     		movs	r3, #48
 695              	.LBE185:
 696              	.LBE187:
 697              	.LBE189:
 698              	.LBE191:
 699              	.LBE193:
 700              		.loc 1 167 39 view .LVU205
 701 0004 0446     		mov	r4, r0
 702              	.LBB194:
 703              	.LBB192:
 704              	.LBB190:
 705              	.LBB188:
 706              	.LBB186:
 707              		.loc 5 493 3 view .LVU206
 708              		.syntax unified
 709              	@ 493 "../../../os/common/ext/ARM/CMSIS/Core/Include/cmsis_gcc.h" 1
 710 0006 83F31188 		MSR basepri, r3
 711              	@ 0 "" 2
 712              	.LVL22:
 713              		.loc 5 493 3 view .LVU207
 714              		.thumb
 715              		.syntax unified
 716              	.LBE186:
 717              	.LBE188:
 718              	.LBE190:
 719              		.loc 3 410 35 is_stmt 1 view .LVU208
 720              		.loc 3 411 21 view .LVU209
 721              	.LBE192:
 722              	.LBE194:
 723              		.loc 1 172 3 view .LVU210
 724              		.loc 1 172 3 view .LVU211
 725              		.loc 1 172 3 view .LVU212
 726              		.loc 1 173 3 view .LVU213
 727 000a FFF7FEFF 		bl	sai_lld_stop_exchange
 728              	.LVL23:
 729              		.loc 1 173 3 view .LVU214
 730 000e 0222     		movs	r2, #2
 731              	.LBB195:
 732              	.LBB196:
 733              	.LBB197:
 734              	.LBB198:
 735              	.LBB199:
 736              	.LBB200:
 737              		.loc 5 493 3 is_stmt 0 view .LVU215
 738 0010 0023     		movs	r3, #0
 739              	.LBE200:
 740              	.LBE199:
 741              	.LBE198:
ARM GAS  C:\Users\DEVELO~1\AppData\Local\Temp\ccuygmoc.s 			page 14


 742              	.LBE197:
 743              	.LBE196:
 744              	.LBE195:
 745              		.loc 1 173 3 view .LVU216
 746 0012 2270     		strb	r2, [r4]
 747              		.loc 1 173 25 is_stmt 1 view .LVU217
 748              		.loc 1 174 3 view .LVU218
 749              	.LBB206:
 750              	.LBI195:
 751              		.loc 2 584 20 view .LVU219
 752              		.loc 2 586 3 view .LVU220
 753              	.LBB205:
 754              	.LBI196:
 755              		.loc 3 421 20 view .LVU221
 756              	.LBB204:
 757              		.loc 3 423 23 view .LVU222
 758              		.loc 3 424 34 view .LVU223
 759              		.loc 3 430 3 view .LVU224
 760              		.loc 3 430 3 view .LVU225
 761              		.loc 3 430 3 view .LVU226
 762              		.loc 3 434 3 view .LVU227
 763              	.LBB203:
 764              	.LBI198:
 765              		.loc 4 847 27 view .LVU228
 766              		.loc 4 850 3 view .LVU229
 767              	.LVL24:
 768              	.LBB202:
 769              	.LBI199:
 770              		.loc 5 491 27 view .LVU230
 771              	.LBB201:
 772              		.loc 5 493 3 view .LVU231
 773              		.syntax unified
 774              	@ 493 "../../../os/common/ext/ARM/CMSIS/Core/Include/cmsis_gcc.h" 1
 775 0014 83F31188 		MSR basepri, r3
 776              	@ 0 "" 2
 777              	.LVL25:
 778              		.loc 5 493 3 is_stmt 0 view .LVU232
 779              		.thumb
 780              		.syntax unified
 781              	.LBE201:
 782              	.LBE202:
 783              	.LBE203:
 784              	.LBE204:
 785              	.LBE205:
 786              	.LBE206:
 787              		.loc 1 175 1 view .LVU233
 788 0018 10BD     		pop	{r4, pc}
 789              		.loc 1 175 1 view .LVU234
 790              		.cfi_endproc
 791              	.LFE438:
 792              		.size	saiStopExchange, .-saiStopExchange
 793 001a 00BF     		.text
 794              	.Letext0:
 795              		.file 6 "c:\\chibistudio\\tools\\gnu tools arm embedded\\11.3 2022.08\\lib\\gcc\\arm-none-eabi\\11
 796              		.file 7 "c:\\chibistudio\\tools\\gnu tools arm embedded\\11.3 2022.08\\arm-none-eabi\\include\\mac
 797              		.file 8 "c:\\chibistudio\\tools\\gnu tools arm embedded\\11.3 2022.08\\arm-none-eabi\\include\\sys
 798              		.file 9 "../../../os/rt/include/chearly.h"
ARM GAS  C:\Users\DEVELO~1\AppData\Local\Temp\ccuygmoc.s 			page 15


 799              		.file 10 "../../../os/common/ext/ST/STM32H7xx/stm32h743xx.h"
 800              		.file 11 "../../../os/hal/ports/STM32/LLD/DMAv2/stm32_dma.h"
 801              		.file 12 "../../../os/hal/include/hal_sai.h"
 802              		.file 13 "../../../os/hal/ports/STM32/LLD/SAIv1/hal_sai_lld.h"