ARM GAS  C:\Users\DEVELO~1\AppData\Local\Temp\ccvAZLUt.s 			page 1


   1              		.cpu cortex-m7
   2              		.arch armv7e-m
   3              		.fpu softvfp
   4              		.eabi_attribute 20, 1
   5              		.eabi_attribute 21, 1
   6              		.eabi_attribute 23, 3
   7              		.eabi_attribute 24, 1
   8              		.eabi_attribute 25, 1
   9              		.eabi_attribute 26, 1
  10              		.eabi_attribute 30, 2
  11              		.eabi_attribute 34, 1
  12              		.eabi_attribute 18, 4
  13              		.file	"hal_fsmc.c"
  14              		.text
  15              	.Ltext0:
  16              		.cfi_sections	.debug_frame
  17              		.section	.text.fsmcInit,"ax",%progbits
  18              		.align	1
  19              		.p2align 4,,15
  20              		.global	fsmcInit
  21              		.syntax unified
  22              		.thumb
  23              		.thumb_func
  24              		.type	fsmcInit, %function
  25              	fsmcInit:
  26              	.LFB432:
  27              		.file 1 "../../../ChibiOS-Contrib-chibios-21.11.x/os/hal/src/hal_fsmc.c"
  28              		.loc 1 70 21 view -0
  29              		.cfi_startproc
  30              		@ args = 0, pretend = 0, frame = 0
  31              		@ frame_needed = 0, uses_anonymous_args = 0
  32              		@ link register save eliminated.
  33              		.loc 1 72 3 view .LVU1
  34              		.loc 1 72 13 is_stmt 0 view .LVU2
  35 0000 034B     		ldr	r3, .L4
  36              		.loc 1 72 6 view .LVU3
  37 0002 1A78     		ldrb	r2, [r3]	@ zero_extendqisi2
  38 0004 1AB9     		cbnz	r2, .L1
  39              		.loc 1 73 5 is_stmt 1 view .LVU4
  40              		.loc 1 73 19 is_stmt 0 view .LVU5
  41 0006 0121     		movs	r1, #1
  42              		.loc 1 110 18 view .LVU6
  43 0008 024A     		ldr	r2, .L4+4
  44              		.loc 1 73 19 view .LVU7
  45 000a 1970     		strb	r1, [r3]
  46              		.loc 1 110 5 is_stmt 1 view .LVU8
  47              		.loc 1 110 18 is_stmt 0 view .LVU9
  48 000c 5A60     		str	r2, [r3, #4]
  49              	.L1:
  50              		.loc 1 115 1 view .LVU10
  51 000e 7047     		bx	lr
  52              	.L5:
  53              		.align	2
  54              	.L4:
  55 0010 00000000 		.word	.LANCHOR0
  56 0014 40410052 		.word	1375748416
  57              		.cfi_endproc
ARM GAS  C:\Users\DEVELO~1\AppData\Local\Temp\ccvAZLUt.s 			page 2


  58              	.LFE432:
  59              		.size	fsmcInit, .-fsmcInit
  60              		.section	.text.fsmcStart,"ax",%progbits
  61              		.align	1
  62              		.p2align 4,,15
  63              		.global	fsmcStart
  64              		.syntax unified
  65              		.thumb
  66              		.thumb_func
  67              		.type	fsmcStart, %function
  68              	fsmcStart:
  69              	.LVL0:
  70              	.LFB433:
  71              		.loc 1 124 35 is_stmt 1 view -0
  72              		.cfi_startproc
  73              		@ args = 0, pretend = 0, frame = 0
  74              		@ frame_needed = 0, uses_anonymous_args = 0
  75              		@ link register save eliminated.
  76              		.loc 1 126 3 view .LVU12
  77              		.loc 1 126 3 view .LVU13
  78              		.loc 1 126 3 view .LVU14
  79              		.loc 1 129 3 view .LVU15
  80              		.loc 1 129 6 is_stmt 0 view .LVU16
  81 0000 0378     		ldrb	r3, [r0]	@ zero_extendqisi2
  82 0002 012B     		cmp	r3, #1
  83 0004 00D0     		beq	.L9
  84              		.loc 1 145 1 view .LVU17
  85 0006 7047     		bx	lr
  86              	.L9:
  87              		.loc 1 132 5 is_stmt 1 view .LVU18
  88              		.loc 1 132 8 is_stmt 0 view .LVU19
  89 0008 0F4B     		ldr	r3, .L11
  90 000a 9842     		cmp	r0, r3
  91 000c 02D0     		beq	.L10
  92              	.L8:
  93              		.loc 1 143 5 is_stmt 1 view .LVU20
  94              		.loc 1 143 18 is_stmt 0 view .LVU21
  95 000e 0223     		movs	r3, #2
  96 0010 0370     		strb	r3, [r0]
  97              		.loc 1 145 1 view .LVU22
  98 0012 7047     		bx	lr
  99              	.L10:
 100              		.loc 1 134 7 is_stmt 1 view .LVU23
 101              	.LVL1:
 102              	.LBB16:
 103              	.LBI16:
 104              		.file 2 "../../../os/hal/ports/STM32/STM32H7xx/stm32_rcc.h"
 105              		.loc 2 830 22 view .LVU24
 106              		.loc 2 842 3 view .LVU25
 107              	.LBB17:
 108              	.LBI17:
 109              		.loc 2 113 22 view .LVU26
 110              	.LBB18:
 111              		.loc 2 116 3 view .LVU27
 112              		.loc 2 116 17 is_stmt 0 view .LVU28
 113 0014 0D4B     		ldr	r3, .L11+4
 114 0016 DA6F     		ldr	r2, [r3, #124]
ARM GAS  C:\Users\DEVELO~1\AppData\Local\Temp\ccvAZLUt.s 			page 3


 115 0018 42F48052 		orr	r2, r2, #4096
 116 001c DA67     		str	r2, [r3, #124]
 117              		.loc 2 117 3 is_stmt 1 view .LVU29
 118              		.loc 2 117 17 is_stmt 0 view .LVU30
 119 001e DA6F     		ldr	r2, [r3, #124]
 120 0020 22F48052 		bic	r2, r2, #4096
 121 0024 DA67     		str	r2, [r3, #124]
 122              		.loc 2 118 3 is_stmt 1 view .LVU31
 123 0026 DA6F     		ldr	r2, [r3, #124]
 124              	.LVL2:
 125              		.loc 2 118 3 is_stmt 0 view .LVU32
 126              	.LBE18:
 127              	.LBE17:
 128              	.LBE16:
 129              		.loc 1 136 7 is_stmt 1 view .LVU33
 130              	.LBB19:
 131              	.LBI19:
 132              		.loc 2 764 22 view .LVU34
 133              	.LBB20:
 134              		.loc 2 768 3 view .LVU35
 135              		.loc 2 768 19 is_stmt 0 view .LVU36
 136 0028 D3F8D420 		ldr	r2, [r3, #212]
 137 002c 42F48052 		orr	r2, r2, #4096
 138 0030 C3F8D420 		str	r2, [r3, #212]
 139              		.loc 2 769 3 is_stmt 1 view .LVU37
 140              		.loc 2 773 5 view .LVU38
 141              		.loc 2 773 23 is_stmt 0 view .LVU39
 142 0034 D3F8FC20 		ldr	r2, [r3, #252]
 143 0038 22F48052 		bic	r2, r2, #4096
 144 003c C3F8FC20 		str	r2, [r3, #252]
 145              		.loc 2 775 3 is_stmt 1 view .LVU40
 146 0040 D3F8FC30 		ldr	r3, [r3, #252]
 147              		.loc 2 787 1 is_stmt 0 view .LVU41
 148 0044 E3E7     		b	.L8
 149              	.L12:
 150 0046 00BF     		.align	2
 151              	.L11:
 152 0048 00000000 		.word	.LANCHOR0
 153 004c 00440258 		.word	1476543488
 154              	.LBE20:
 155              	.LBE19:
 156              		.cfi_endproc
 157              	.LFE433:
 158              		.size	fsmcStart, .-fsmcStart
 159              		.section	.text.fsmcStop,"ax",%progbits
 160              		.align	1
 161              		.p2align 4,,15
 162              		.global	fsmcStop
 163              		.syntax unified
 164              		.thumb
 165              		.thumb_func
 166              		.type	fsmcStop, %function
 167              	fsmcStop:
 168              	.LVL3:
 169              	.LFB434:
 170              		.loc 1 154 34 is_stmt 1 view -0
 171              		.cfi_startproc
ARM GAS  C:\Users\DEVELO~1\AppData\Local\Temp\ccvAZLUt.s 			page 4


 172              		@ args = 0, pretend = 0, frame = 0
 173              		@ frame_needed = 0, uses_anonymous_args = 0
 174              		@ link register save eliminated.
 175              		.loc 1 156 3 view .LVU43
 176              		.loc 1 156 6 is_stmt 0 view .LVU44
 177 0000 0378     		ldrb	r3, [r0]	@ zero_extendqisi2
 178 0002 022B     		cmp	r3, #2
 179 0004 00D0     		beq	.L16
 180              		.loc 1 174 1 view .LVU45
 181 0006 7047     		bx	lr
 182              	.L16:
 183              		.loc 1 159 5 is_stmt 1 view .LVU46
 184              	.LVL4:
 185              	.LBB21:
 186              	.LBI21:
 187              		.loc 2 830 22 view .LVU47
 188              		.loc 2 842 3 view .LVU48
 189              	.LBB22:
 190              	.LBI22:
 191              		.loc 2 113 22 view .LVU49
 192              	.LBB23:
 193              		.loc 2 116 3 view .LVU50
 194              		.loc 2 116 17 is_stmt 0 view .LVU51
 195 0008 0F4B     		ldr	r3, .L18
 196              	.LBE23:
 197              	.LBE22:
 198              	.LBE21:
 199              		.loc 1 164 8 view .LVU52
 200 000a 1049     		ldr	r1, .L18+4
 201              	.LBB28:
 202              	.LBB26:
 203              	.LBB24:
 204              		.loc 2 116 17 view .LVU53
 205 000c DA6F     		ldr	r2, [r3, #124]
 206              	.LBE24:
 207              	.LBE26:
 208              	.LBE28:
 209              		.loc 1 164 8 view .LVU54
 210 000e 8842     		cmp	r0, r1
 211              	.LBB29:
 212              	.LBB27:
 213              	.LBB25:
 214              		.loc 2 116 17 view .LVU55
 215 0010 42F48052 		orr	r2, r2, #4096
 216 0014 DA67     		str	r2, [r3, #124]
 217              		.loc 2 117 3 is_stmt 1 view .LVU56
 218              		.loc 2 117 17 is_stmt 0 view .LVU57
 219 0016 DA6F     		ldr	r2, [r3, #124]
 220 0018 22F48052 		bic	r2, r2, #4096
 221 001c DA67     		str	r2, [r3, #124]
 222              		.loc 2 118 3 is_stmt 1 view .LVU58
 223 001e DA6F     		ldr	r2, [r3, #124]
 224              	.LVL5:
 225              		.loc 2 118 3 is_stmt 0 view .LVU59
 226              	.LBE25:
 227              	.LBE27:
 228              	.LBE29:
ARM GAS  C:\Users\DEVELO~1\AppData\Local\Temp\ccvAZLUt.s 			page 5


 229              		.loc 1 164 5 is_stmt 1 view .LVU60
 230              		.loc 1 164 8 is_stmt 0 view .LVU61
 231 0020 02D0     		beq	.L17
 232              	.L15:
 233              		.loc 1 172 5 is_stmt 1 view .LVU62
 234              		.loc 1 172 18 is_stmt 0 view .LVU63
 235 0022 0123     		movs	r3, #1
 236 0024 0370     		strb	r3, [r0]
 237              		.loc 1 174 1 view .LVU64
 238 0026 7047     		bx	lr
 239              	.L17:
 240              		.loc 1 168 7 is_stmt 1 view .LVU65
 241              	.LVL6:
 242              	.LBB30:
 243              	.LBI30:
 244              		.loc 2 796 22 view .LVU66
 245              	.LBB31:
 246              		.loc 2 806 3 view .LVU67
 247              		.loc 2 806 19 is_stmt 0 view .LVU68
 248 0028 D3F8D420 		ldr	r2, [r3, #212]
 249 002c 22F48052 		bic	r2, r2, #4096
 250 0030 C3F8D420 		str	r2, [r3, #212]
 251              		.loc 2 807 3 is_stmt 1 view .LVU69
 252              		.loc 2 807 21 is_stmt 0 view .LVU70
 253 0034 D3F8FC20 		ldr	r2, [r3, #252]
 254 0038 22F48052 		bic	r2, r2, #4096
 255 003c C3F8FC20 		str	r2, [r3, #252]
 256              		.loc 2 808 3 is_stmt 1 view .LVU71
 257 0040 D3F8FC30 		ldr	r3, [r3, #252]
 258              		.loc 2 821 1 is_stmt 0 view .LVU72
 259 0044 EDE7     		b	.L15
 260              	.L19:
 261 0046 00BF     		.align	2
 262              	.L18:
 263 0048 00440258 		.word	1476543488
 264 004c 00000000 		.word	.LANCHOR0
 265              	.LBE31:
 266              	.LBE30:
 267              		.cfi_endproc
 268              	.LFE434:
 269              		.size	fsmcStop, .-fsmcStop
 270              		.section	.text.Vector100,"ax",%progbits
 271              		.align	1
 272              		.p2align 4,,15
 273              		.global	Vector100
 274              		.syntax unified
 275              		.thumb
 276              		.thumb_func
 277              		.type	Vector100, %function
 278              	Vector100:
 279              	.LFB435:
 280              		.loc 1 181 36 is_stmt 1 view -0
 281              		.cfi_startproc
 282              		@ args = 0, pretend = 0, frame = 0
 283              		@ frame_needed = 0, uses_anonymous_args = 0
 284              		.loc 1 183 3 view .LVU74
 285              		.loc 1 183 3 view .LVU75
ARM GAS  C:\Users\DEVELO~1\AppData\Local\Temp\ccvAZLUt.s 			page 6


 286              		.loc 1 183 3 view .LVU76
 287              		.loc 1 183 3 view .LVU77
 288              		.loc 1 183 3 view .LVU78
 289              		.loc 1 181 36 is_stmt 0 view .LVU79
 290 0000 10B5     		push	{r4, lr}
 291              		.cfi_def_cfa_offset 8
 292              		.cfi_offset 4, -8
 293              		.cfi_offset 14, -4
 294              		.loc 1 183 3 view .LVU80
 295 0002 054C     		ldr	r4, .L22
 296 0004 2046     		mov	r0, r4
 297 0006 FFF7FEFF 		bl	__trace_isr_enter
 298              	.LVL7:
 299              		.loc 1 183 20 is_stmt 1 view .LVU81
 300              		.loc 1 196 3 view .LVU82
 301              		.loc 1 196 3 view .LVU83
 302 000a 2046     		mov	r0, r4
 303 000c FFF7FEFF 		bl	__trace_isr_leave
 304              	.LVL8:
 305              		.loc 1 196 3 view .LVU84
 306              		.loc 1 196 3 view .LVU85
 307              		.loc 1 196 3 view .LVU86
 308              		.loc 1 197 1 is_stmt 0 view .LVU87
 309 0010 BDE81040 		pop	{r4, lr}
 310              		.cfi_restore 14
 311              		.cfi_restore 4
 312              		.cfi_def_cfa_offset 0
 313              		.loc 1 196 3 view .LVU88
 314 0014 FFF7FEBF 		b	__port_irq_epilogue
 315              	.LVL9:
 316              	.L23:
 317              		.align	2
 318              	.L22:
 319 0018 00000000 		.word	.LANCHOR1
 320              		.cfi_endproc
 321              	.LFE435:
 322              		.size	Vector100, .-Vector100
 323              		.global	FSMCD1
 324              		.section	.bss.FSMCD1,"aw",%nobits
 325              		.align	2
 326              		.set	.LANCHOR0,. + 0
 327              		.type	FSMCD1, %object
 328              		.size	FSMCD1, 8
 329              	FSMCD1:
 330 0000 00000000 		.space	8
 330      00000000 
 331              		.section	.rodata.__func__.0,"a"
 332              		.align	2
 333              		.set	.LANCHOR1,. + 0
 334              		.type	__func__.0, %object
 335              		.size	__func__.0, 10
 336              	__func__.0:
 337 0000 56656374 		.ascii	"Vector100\000"
 337      6F723130 
 337      3000
 338              		.text
 339              	.Letext0:
ARM GAS  C:\Users\DEVELO~1\AppData\Local\Temp\ccvAZLUt.s 			page 7


 340              		.file 3 "c:\\chibistudio\\tools\\gnu tools arm embedded\\11.3 2022.08\\arm-none-eabi\\include\\mac
 341              		.file 4 "c:\\chibistudio\\tools\\gnu tools arm embedded\\11.3 2022.08\\arm-none-eabi\\include\\sys
 342              		.file 5 "../../../os/common/ext/ST/STM32H7xx/stm32h743xx.h"
 343              		.file 6 "../../../ChibiOS-Contrib-chibios-21.11.x/os/hal/include/hal_fsmc.h"
 344              		.file 7 "../../../os/rt/include/chtrace.h"
 345              		.file 8 "../../../os/common/ports/ARMv7-M/chcore.h"
 346              		.section	.debug_info,"",%progbits
 347              	.Ldebug_info0:
 348 0000 7B070000 		.4byte	0x77b
 349 0004 0500     		.2byte	0x5
 350 0006 01       		.byte	0x1
 351 0007 04       		.byte	0x4
 352 0008 00000000 		.4byte	.Ldebug_abbrev0
 353 000c 18       		.uleb128 0x18
 354 000d CA000000 		.4byte	.LASF101
 355 0011 1D       		.byte	0x1d
 356 0012 10020000 		.4byte	.LASF102
 357 0016 5C030000 		.4byte	.LASF103
 358 001a 1B000000 		.4byte	.LLRL5
 359 001e 00000000 		.4byte	0
 360 0022 00000000 		.4byte	.Ldebug_line0
 361 0026 19       		.uleb128 0x19
 362 0027 04       		.byte	0x4
 363 0028 05       		.byte	0x5
 364 0029 696E7400 		.ascii	"int\000"
 365 002d 02       		.uleb128 0x2
 366 002e 04       		.byte	0x4
 367 002f 07       		.byte	0x7
 368 0030 46030000 		.4byte	.LASF0
 369 0034 02       		.uleb128 0x2
 370 0035 08       		.byte	0x8
 371 0036 05       		.byte	0x5
 372 0037 B7040000 		.4byte	.LASF1
 373 003b 02       		.uleb128 0x2
 374 003c 08       		.byte	0x8
 375 003d 04       		.byte	0x4
 376 003e E3010000 		.4byte	.LASF2
 377 0042 02       		.uleb128 0x2
 378 0043 01       		.byte	0x1
 379 0044 06       		.byte	0x6
 380 0045 02030000 		.4byte	.LASF3
 381 0049 02       		.uleb128 0x2
 382 004a 01       		.byte	0x1
 383 004b 08       		.byte	0x8
 384 004c A5020000 		.4byte	.LASF4
 385 0050 02       		.uleb128 0x2
 386 0051 02       		.byte	0x2
 387 0052 05       		.byte	0x5
 388 0053 67000000 		.4byte	.LASF5
 389 0057 02       		.uleb128 0x2
 390 0058 02       		.byte	0x2
 391 0059 07       		.byte	0x7
 392 005a E7030000 		.4byte	.LASF6
 393 005e 02       		.uleb128 0x2
 394 005f 04       		.byte	0x4
 395 0060 05       		.byte	0x5
 396 0061 4F020000 		.4byte	.LASF7
ARM GAS  C:\Users\DEVELO~1\AppData\Local\Temp\ccvAZLUt.s 			page 8


 397 0065 07       		.uleb128 0x7
 398 0066 B1000000 		.4byte	.LASF10
 399 006a 03       		.byte	0x3
 400 006b 4F       		.byte	0x4f
 401 006c 19       		.byte	0x19
 402 006d 71000000 		.4byte	0x71
 403 0071 02       		.uleb128 0x2
 404 0072 04       		.byte	0x4
 405 0073 07       		.byte	0x7
 406 0074 B2030000 		.4byte	.LASF8
 407 0078 02       		.uleb128 0x2
 408 0079 08       		.byte	0x8
 409 007a 07       		.byte	0x7
 410 007b 0E030000 		.4byte	.LASF9
 411 007f 07       		.uleb128 0x7
 412 0080 2E030000 		.4byte	.LASF11
 413 0084 04       		.byte	0x4
 414 0085 30       		.byte	0x30
 415 0086 14       		.byte	0x14
 416 0087 65000000 		.4byte	0x65
 417 008b 1A       		.uleb128 0x1a
 418 008c 7F000000 		.4byte	0x7f
 419 0090 08       		.uleb128 0x8
 420 0091 9C000000 		.4byte	0x9c
 421 0095 02       		.uleb128 0x2
 422 0096 01       		.byte	0x1
 423 0097 08       		.byte	0x8
 424 0098 10040000 		.4byte	.LASF12
 425 009c 10       		.uleb128 0x10
 426 009d 95000000 		.4byte	0x95
 427 00a1 09       		.uleb128 0x9
 428 00a2 7F000000 		.4byte	0x7f
 429 00a6 B1000000 		.4byte	0xb1
 430 00aa 0A       		.uleb128 0xa
 431 00ab 2D000000 		.4byte	0x2d
 432 00af 03       		.byte	0x3
 433 00b0 00       		.byte	0
 434 00b1 09       		.uleb128 0x9
 435 00b2 7F000000 		.4byte	0x7f
 436 00b6 C1000000 		.4byte	0xc1
 437 00ba 0A       		.uleb128 0xa
 438 00bb 2D000000 		.4byte	0x2d
 439 00bf 08       		.byte	0x8
 440 00c0 00       		.byte	0
 441 00c1 1B       		.uleb128 0x1b
 442 00c2 3001     		.2byte	0x130
 443 00c4 05       		.byte	0x5
 444 00c5 CE04     		.2byte	0x4ce
 445 00c7 09       		.byte	0x9
 446 00c8 56040000 		.4byte	0x456
 447 00cc 05       		.uleb128 0x5
 448 00cd 435200   		.ascii	"CR\000"
 449 00d0 D004     		.2byte	0x4d0
 450 00d2 10       		.byte	0x10
 451 00d3 8B000000 		.4byte	0x8b
 452 00d7 00       		.byte	0
 453 00d8 01       		.uleb128 0x1
ARM GAS  C:\Users\DEVELO~1\AppData\Local\Temp\ccvAZLUt.s 			page 9


 454 00d9 A1000000 		.4byte	.LASF13
 455 00dd 05       		.byte	0x5
 456 00de D104     		.2byte	0x4d1
 457 00e0 10       		.byte	0x10
 458 00e1 8B000000 		.4byte	0x8b
 459 00e5 04       		.byte	0x4
 460 00e6 01       		.uleb128 0x1
 461 00e7 FC020000 		.4byte	.LASF14
 462 00eb 05       		.byte	0x5
 463 00ec D204     		.2byte	0x4d2
 464 00ee 10       		.byte	0x10
 465 00ef 8B000000 		.4byte	0x8b
 466 00f3 08       		.byte	0x8
 467 00f4 01       		.uleb128 0x1
 468 00f5 93020000 		.4byte	.LASF15
 469 00f9 05       		.byte	0x5
 470 00fa D304     		.2byte	0x4d3
 471 00fc 10       		.byte	0x10
 472 00fd 8B000000 		.4byte	0x8b
 473 0101 0C       		.byte	0xc
 474 0102 01       		.uleb128 0x1
 475 0103 89010000 		.4byte	.LASF16
 476 0107 05       		.byte	0x5
 477 0108 D404     		.2byte	0x4d4
 478 010a 10       		.byte	0x10
 479 010b 8B000000 		.4byte	0x8b
 480 010f 10       		.byte	0x10
 481 0110 01       		.uleb128 0x1
 482 0111 4C040000 		.4byte	.LASF17
 483 0115 05       		.byte	0x5
 484 0116 D504     		.2byte	0x4d5
 485 0118 0F       		.byte	0xf
 486 0119 7F000000 		.4byte	0x7f
 487 011d 14       		.byte	0x14
 488 011e 01       		.uleb128 0x1
 489 011f D0030000 		.4byte	.LASF18
 490 0123 05       		.byte	0x5
 491 0124 D604     		.2byte	0x4d6
 492 0126 10       		.byte	0x10
 493 0127 8B000000 		.4byte	0x8b
 494 012b 18       		.byte	0x18
 495 012c 01       		.uleb128 0x1
 496 012d 9C010000 		.4byte	.LASF19
 497 0131 05       		.byte	0x5
 498 0132 D704     		.2byte	0x4d7
 499 0134 10       		.byte	0x10
 500 0135 8B000000 		.4byte	0x8b
 501 0139 1C       		.byte	0x1c
 502 013a 01       		.uleb128 0x1
 503 013b D2010000 		.4byte	.LASF20
 504 013f 05       		.byte	0x5
 505 0140 D804     		.2byte	0x4d8
 506 0142 10       		.byte	0x10
 507 0143 8B000000 		.4byte	0x8b
 508 0147 20       		.byte	0x20
 509 0148 01       		.uleb128 0x1
 510 0149 56040000 		.4byte	.LASF21
ARM GAS  C:\Users\DEVELO~1\AppData\Local\Temp\ccvAZLUt.s 			page 10


 511 014d 05       		.byte	0x5
 512 014e D904     		.2byte	0x4d9
 513 0150 0F       		.byte	0xf
 514 0151 7F000000 		.4byte	0x7f
 515 0155 24       		.byte	0x24
 516 0156 01       		.uleb128 0x1
 517 0157 F7010000 		.4byte	.LASF22
 518 015b 05       		.byte	0x5
 519 015c DA04     		.2byte	0x4da
 520 015e 10       		.byte	0x10
 521 015f 8B000000 		.4byte	0x8b
 522 0163 28       		.byte	0x28
 523 0164 01       		.uleb128 0x1
 524 0165 DF030000 		.4byte	.LASF23
 525 0169 05       		.byte	0x5
 526 016a DB04     		.2byte	0x4db
 527 016c 10       		.byte	0x10
 528 016d 8B000000 		.4byte	0x8b
 529 0171 2C       		.byte	0x2c
 530 0172 01       		.uleb128 0x1
 531 0173 BC000000 		.4byte	.LASF24
 532 0177 05       		.byte	0x5
 533 0178 DC04     		.2byte	0x4dc
 534 017a 10       		.byte	0x10
 535 017b 8B000000 		.4byte	0x8b
 536 017f 30       		.byte	0x30
 537 0180 01       		.uleb128 0x1
 538 0181 00000000 		.4byte	.LASF25
 539 0185 05       		.byte	0x5
 540 0186 DD04     		.2byte	0x4dd
 541 0188 10       		.byte	0x10
 542 0189 8B000000 		.4byte	0x8b
 543 018d 34       		.byte	0x34
 544 018e 01       		.uleb128 0x1
 545 018f 58020000 		.4byte	.LASF26
 546 0193 05       		.byte	0x5
 547 0194 DE04     		.2byte	0x4de
 548 0196 10       		.byte	0x10
 549 0197 8B000000 		.4byte	0x8b
 550 019b 38       		.byte	0x38
 551 019c 01       		.uleb128 0x1
 552 019d CB020000 		.4byte	.LASF27
 553 01a1 05       		.byte	0x5
 554 01a2 DF04     		.2byte	0x4df
 555 01a4 10       		.byte	0x10
 556 01a5 8B000000 		.4byte	0x8b
 557 01a9 3C       		.byte	0x3c
 558 01aa 01       		.uleb128 0x1
 559 01ab 43040000 		.4byte	.LASF28
 560 01af 05       		.byte	0x5
 561 01b0 E004     		.2byte	0x4e0
 562 01b2 10       		.byte	0x10
 563 01b3 8B000000 		.4byte	0x8b
 564 01b7 40       		.byte	0x40
 565 01b8 01       		.uleb128 0x1
 566 01b9 29050000 		.4byte	.LASF29
 567 01bd 05       		.byte	0x5
ARM GAS  C:\Users\DEVELO~1\AppData\Local\Temp\ccvAZLUt.s 			page 11


 568 01be E104     		.2byte	0x4e1
 569 01c0 10       		.byte	0x10
 570 01c1 8B000000 		.4byte	0x8b
 571 01c5 44       		.byte	0x44
 572 01c6 01       		.uleb128 0x1
 573 01c7 60040000 		.4byte	.LASF30
 574 01cb 05       		.byte	0x5
 575 01cc E204     		.2byte	0x4e2
 576 01ce 10       		.byte	0x10
 577 01cf 7F000000 		.4byte	0x7f
 578 01d3 48       		.byte	0x48
 579 01d4 01       		.uleb128 0x1
 580 01d5 15040000 		.4byte	.LASF31
 581 01d9 05       		.byte	0x5
 582 01da E304     		.2byte	0x4e3
 583 01dc 11       		.byte	0x11
 584 01dd 8B000000 		.4byte	0x8b
 585 01e1 4C       		.byte	0x4c
 586 01e2 01       		.uleb128 0x1
 587 01e3 A1040000 		.4byte	.LASF32
 588 01e7 05       		.byte	0x5
 589 01e8 E404     		.2byte	0x4e4
 590 01ea 11       		.byte	0x11
 591 01eb 8B000000 		.4byte	0x8b
 592 01ef 50       		.byte	0x50
 593 01f0 01       		.uleb128 0x1
 594 01f1 37000000 		.4byte	.LASF33
 595 01f5 05       		.byte	0x5
 596 01f6 E504     		.2byte	0x4e5
 597 01f8 11       		.byte	0x11
 598 01f9 8B000000 		.4byte	0x8b
 599 01fd 54       		.byte	0x54
 600 01fe 01       		.uleb128 0x1
 601 01ff A9000000 		.4byte	.LASF34
 602 0203 05       		.byte	0x5
 603 0204 E604     		.2byte	0x4e6
 604 0206 11       		.byte	0x11
 605 0207 8B000000 		.4byte	0x8b
 606 020b 58       		.byte	0x58
 607 020c 01       		.uleb128 0x1
 608 020d 6A040000 		.4byte	.LASF35
 609 0211 05       		.byte	0x5
 610 0212 E704     		.2byte	0x4e7
 611 0214 10       		.byte	0x10
 612 0215 7F000000 		.4byte	0x7f
 613 0219 5C       		.byte	0x5c
 614 021a 01       		.uleb128 0x1
 615 021b 0B020000 		.4byte	.LASF36
 616 021f 05       		.byte	0x5
 617 0220 E804     		.2byte	0x4e8
 618 0222 11       		.byte	0x11
 619 0223 8B000000 		.4byte	0x8b
 620 0227 60       		.byte	0x60
 621 0228 01       		.uleb128 0x1
 622 0229 9C040000 		.4byte	.LASF37
 623 022d 05       		.byte	0x5
 624 022e E904     		.2byte	0x4e9
ARM GAS  C:\Users\DEVELO~1\AppData\Local\Temp\ccvAZLUt.s 			page 12


 625 0230 11       		.byte	0x11
 626 0231 8B000000 		.4byte	0x8b
 627 0235 64       		.byte	0x64
 628 0236 01       		.uleb128 0x1
 629 0237 C5000000 		.4byte	.LASF38
 630 023b 05       		.byte	0x5
 631 023c EA04     		.2byte	0x4ea
 632 023e 11       		.byte	0x11
 633 023f 8B000000 		.4byte	0x8b
 634 0243 68       		.byte	0x68
 635 0244 01       		.uleb128 0x1
 636 0245 B5010000 		.4byte	.LASF39
 637 0249 05       		.byte	0x5
 638 024a EB04     		.2byte	0x4eb
 639 024c 0F       		.byte	0xf
 640 024d 7F000000 		.4byte	0x7f
 641 0251 6C       		.byte	0x6c
 642 0252 01       		.uleb128 0x1
 643 0253 86000000 		.4byte	.LASF40
 644 0257 05       		.byte	0x5
 645 0258 EC04     		.2byte	0x4ec
 646 025a 11       		.byte	0x11
 647 025b 8B000000 		.4byte	0x8b
 648 025f 70       		.byte	0x70
 649 0260 05       		.uleb128 0x5
 650 0261 43535200 		.ascii	"CSR\000"
 651 0265 ED04     		.2byte	0x4ed
 652 0267 11       		.byte	0x11
 653 0268 8B000000 		.4byte	0x8b
 654 026c 74       		.byte	0x74
 655 026d 01       		.uleb128 0x1
 656 026e BF010000 		.4byte	.LASF41
 657 0272 05       		.byte	0x5
 658 0273 EE04     		.2byte	0x4ee
 659 0275 0F       		.byte	0xf
 660 0276 7F000000 		.4byte	0x7f
 661 027a 78       		.byte	0x78
 662 027b 01       		.uleb128 0x1
 663 027c F3040000 		.4byte	.LASF42
 664 0280 05       		.byte	0x5
 665 0281 EF04     		.2byte	0x4ef
 666 0283 10       		.byte	0x10
 667 0284 8B000000 		.4byte	0x8b
 668 0288 7C       		.byte	0x7c
 669 0289 01       		.uleb128 0x1
 670 028a E4040000 		.4byte	.LASF43
 671 028e 05       		.byte	0x5
 672 028f F004     		.2byte	0x4f0
 673 0291 10       		.byte	0x10
 674 0292 8B000000 		.4byte	0x8b
 675 0296 80       		.byte	0x80
 676 0297 01       		.uleb128 0x1
 677 0298 53030000 		.4byte	.LASF44
 678 029c 05       		.byte	0x5
 679 029d F104     		.2byte	0x4f1
 680 029f 10       		.byte	0x10
 681 02a0 8B000000 		.4byte	0x8b
ARM GAS  C:\Users\DEVELO~1\AppData\Local\Temp\ccvAZLUt.s 			page 13


 682 02a4 84       		.byte	0x84
 683 02a5 01       		.uleb128 0x1
 684 02a6 25030000 		.4byte	.LASF45
 685 02aa 05       		.byte	0x5
 686 02ab F204     		.2byte	0x4f2
 687 02ad 10       		.byte	0x10
 688 02ae 8B000000 		.4byte	0x8b
 689 02b2 88       		.byte	0x88
 690 02b3 01       		.uleb128 0x1
 691 02b4 74040000 		.4byte	.LASF46
 692 02b8 05       		.byte	0x5
 693 02b9 F304     		.2byte	0x4f3
 694 02bb 10       		.byte	0x10
 695 02bc 8B000000 		.4byte	0x8b
 696 02c0 8C       		.byte	0x8c
 697 02c1 01       		.uleb128 0x1
 698 02c2 01020000 		.4byte	.LASF47
 699 02c6 05       		.byte	0x5
 700 02c7 F404     		.2byte	0x4f4
 701 02c9 10       		.byte	0x10
 702 02ca 8B000000 		.4byte	0x8b
 703 02ce 90       		.byte	0x90
 704 02cf 01       		.uleb128 0x1
 705 02d0 48000000 		.4byte	.LASF48
 706 02d4 05       		.byte	0x5
 707 02d5 F504     		.2byte	0x4f5
 708 02d7 10       		.byte	0x10
 709 02d8 8B000000 		.4byte	0x8b
 710 02dc 94       		.byte	0x94
 711 02dd 01       		.uleb128 0x1
 712 02de 6D020000 		.4byte	.LASF49
 713 02e2 05       		.byte	0x5
 714 02e3 F604     		.2byte	0x4f6
 715 02e5 10       		.byte	0x10
 716 02e6 8B000000 		.4byte	0x8b
 717 02ea 98       		.byte	0x98
 718 02eb 01       		.uleb128 0x1
 719 02ec 71000000 		.4byte	.LASF50
 720 02f0 05       		.byte	0x5
 721 02f1 F704     		.2byte	0x4f7
 722 02f3 10       		.byte	0x10
 723 02f4 8B000000 		.4byte	0x8b
 724 02f8 9C       		.byte	0x9c
 725 02f9 05       		.uleb128 0x5
 726 02fa 47435200 		.ascii	"GCR\000"
 727 02fe F804     		.2byte	0x4f8
 728 0300 10       		.byte	0x10
 729 0301 8B000000 		.4byte	0x8b
 730 0305 A0       		.byte	0xa0
 731 0306 01       		.uleb128 0x1
 732 0307 8A040000 		.4byte	.LASF51
 733 030b 05       		.byte	0x5
 734 030c F904     		.2byte	0x4f9
 735 030e 0F       		.byte	0xf
 736 030f 7F000000 		.4byte	0x7f
 737 0313 A4       		.byte	0xa4
 738 0314 01       		.uleb128 0x1
ARM GAS  C:\Users\DEVELO~1\AppData\Local\Temp\ccvAZLUt.s 			page 14


 739 0315 B3020000 		.4byte	.LASF52
 740 0319 05       		.byte	0x5
 741 031a FA04     		.2byte	0x4fa
 742 031c 10       		.byte	0x10
 743 031d 8B000000 		.4byte	0x8b
 744 0321 A8       		.byte	0xa8
 745 0322 01       		.uleb128 0x1
 746 0323 D5020000 		.4byte	.LASF53
 747 0327 05       		.byte	0x5
 748 0328 FB04     		.2byte	0x4fb
 749 032a 0F       		.byte	0xf
 750 032b B1000000 		.4byte	0xb1
 751 032f AC       		.byte	0xac
 752 0330 05       		.uleb128 0x5
 753 0331 52535200 		.ascii	"RSR\000"
 754 0335 FC04     		.2byte	0x4fc
 755 0337 10       		.byte	0x10
 756 0338 8B000000 		.4byte	0x8b
 757 033c D0       		.byte	0xd0
 758 033d 01       		.uleb128 0x1
 759 033e EF010000 		.4byte	.LASF54
 760 0342 05       		.byte	0x5
 761 0343 FD04     		.2byte	0x4fd
 762 0345 10       		.byte	0x10
 763 0346 8B000000 		.4byte	0x8b
 764 034a D4       		.byte	0xd4
 765 034b 01       		.uleb128 0x1
 766 034c AF040000 		.4byte	.LASF55
 767 0350 05       		.byte	0x5
 768 0351 FE04     		.2byte	0x4fe
 769 0353 10       		.byte	0x10
 770 0354 8B000000 		.4byte	0x8b
 771 0358 D8       		.byte	0xd8
 772 0359 01       		.uleb128 0x1
 773 035a 40000000 		.4byte	.LASF56
 774 035e 05       		.byte	0x5
 775 035f FF04     		.2byte	0x4ff
 776 0361 10       		.byte	0x10
 777 0362 8B000000 		.4byte	0x8b
 778 0366 DC       		.byte	0xdc
 779 0367 01       		.uleb128 0x1
 780 0368 D7030000 		.4byte	.LASF57
 781 036c 05       		.byte	0x5
 782 036d 0005     		.2byte	0x500
 783 036f 10       		.byte	0x10
 784 0370 8B000000 		.4byte	0x8b
 785 0374 E0       		.byte	0xe0
 786 0375 01       		.uleb128 0x1
 787 0376 94040000 		.4byte	.LASF58
 788 037a 05       		.byte	0x5
 789 037b 0105     		.2byte	0x501
 790 037d 10       		.byte	0x10
 791 037e 8B000000 		.4byte	0x8b
 792 0382 E4       		.byte	0xe4
 793 0383 01       		.uleb128 0x1
 794 0384 F3020000 		.4byte	.LASF59
 795 0388 05       		.byte	0x5
ARM GAS  C:\Users\DEVELO~1\AppData\Local\Temp\ccvAZLUt.s 			page 15


 796 0389 0205     		.2byte	0x502
 797 038b 10       		.byte	0x10
 798 038c 8B000000 		.4byte	0x8b
 799 0390 E8       		.byte	0xe8
 800 0391 01       		.uleb128 0x1
 801 0392 B9020000 		.4byte	.LASF60
 802 0396 05       		.byte	0x5
 803 0397 0305     		.2byte	0x503
 804 0399 10       		.byte	0x10
 805 039a 8B000000 		.4byte	0x8b
 806 039e EC       		.byte	0xec
 807 039f 01       		.uleb128 0x1
 808 03a0 EB020000 		.4byte	.LASF61
 809 03a4 05       		.byte	0x5
 810 03a5 0405     		.2byte	0x504
 811 03a7 10       		.byte	0x10
 812 03a8 8B000000 		.4byte	0x8b
 813 03ac F0       		.byte	0xf0
 814 03ad 01       		.uleb128 0x1
 815 03ae 1E000000 		.4byte	.LASF62
 816 03b2 05       		.byte	0x5
 817 03b3 0505     		.2byte	0x505
 818 03b5 10       		.byte	0x10
 819 03b6 8B000000 		.4byte	0x8b
 820 03ba F4       		.byte	0xf4
 821 03bb 01       		.uleb128 0x1
 822 03bc E0020000 		.4byte	.LASF63
 823 03c0 05       		.byte	0x5
 824 03c1 0605     		.2byte	0x506
 825 03c3 10       		.byte	0x10
 826 03c4 7F000000 		.4byte	0x7f
 827 03c8 F8       		.byte	0xf8
 828 03c9 01       		.uleb128 0x1
 829 03ca 7F010000 		.4byte	.LASF64
 830 03ce 05       		.byte	0x5
 831 03cf 0705     		.2byte	0x507
 832 03d1 10       		.byte	0x10
 833 03d2 8B000000 		.4byte	0x8b
 834 03d6 FC       		.byte	0xfc
 835 03d7 03       		.uleb128 0x3
 836 03d8 D9010000 		.4byte	.LASF65
 837 03dc 0805     		.2byte	0x508
 838 03de 10       		.byte	0x10
 839 03df 8B000000 		.4byte	0x8b
 840 03e3 0001     		.2byte	0x100
 841 03e5 03       		.uleb128 0x3
 842 03e6 39040000 		.4byte	.LASF66
 843 03ea 0905     		.2byte	0x509
 844 03ec 10       		.byte	0x10
 845 03ed 8B000000 		.4byte	0x8b
 846 03f1 0401     		.2byte	0x104
 847 03f3 03       		.uleb128 0x3
 848 03f4 2F040000 		.4byte	.LASF67
 849 03f8 0A05     		.2byte	0x50a
 850 03fa 10       		.byte	0x10
 851 03fb 8B000000 		.4byte	0x8b
 852 03ff 0801     		.2byte	0x108
ARM GAS  C:\Users\DEVELO~1\AppData\Local\Temp\ccvAZLUt.s 			page 16


 853 0401 03       		.uleb128 0x3
 854 0402 9B020000 		.4byte	.LASF68
 855 0406 0B05     		.2byte	0x50b
 856 0408 10       		.byte	0x10
 857 0409 8B000000 		.4byte	0x8b
 858 040d 0C01     		.2byte	0x10c
 859 040f 03       		.uleb128 0x3
 860 0410 13000000 		.4byte	.LASF69
 861 0414 0C05     		.2byte	0x50c
 862 0416 10       		.byte	0x10
 863 0417 8B000000 		.4byte	0x8b
 864 041b 1001     		.2byte	0x110
 865 041d 03       		.uleb128 0x3
 866 041e 2C000000 		.4byte	.LASF70
 867 0422 0D05     		.2byte	0x50d
 868 0424 10       		.byte	0x10
 869 0425 8B000000 		.4byte	0x8b
 870 0429 1401     		.2byte	0x114
 871 042b 03       		.uleb128 0x3
 872 042c 1F050000 		.4byte	.LASF71
 873 0430 0E05     		.2byte	0x50e
 874 0432 10       		.byte	0x10
 875 0433 8B000000 		.4byte	0x8b
 876 0437 1801     		.2byte	0x118
 877 0439 03       		.uleb128 0x3
 878 043a 15050000 		.4byte	.LASF72
 879 043e 0F05     		.2byte	0x50f
 880 0440 10       		.byte	0x10
 881 0441 8B000000 		.4byte	0x8b
 882 0445 1C01     		.2byte	0x11c
 883 0447 03       		.uleb128 0x3
 884 0448 76020000 		.4byte	.LASF73
 885 044c 1005     		.2byte	0x510
 886 044e 0F       		.byte	0xf
 887 044f A1000000 		.4byte	0xa1
 888 0453 2001     		.2byte	0x120
 889 0455 00       		.byte	0
 890 0456 0B       		.uleb128 0xb
 891 0457 61020000 		.4byte	.LASF74
 892 045b 05       		.byte	0x5
 893 045c 1205     		.2byte	0x512
 894 045e 03       		.byte	0x3
 895 045f C1000000 		.4byte	0xc1
 896 0463 02       		.uleb128 0x2
 897 0464 01       		.byte	0x1
 898 0465 02       		.byte	0x2
 899 0466 29040000 		.4byte	.LASF75
 900 046a 1C       		.uleb128 0x1c
 901 046b 1C       		.byte	0x1c
 902 046c 06       		.byte	0x6
 903 046d AC       		.byte	0xac
 904 046e 09       		.byte	0x9
 905 046f C1040000 		.4byte	0x4c1
 906 0473 04       		.uleb128 0x4
 907 0474 7A000000 		.4byte	.LASF76
 908 0478 AD       		.byte	0xad
 909 0479 8B000000 		.4byte	0x8b
ARM GAS  C:\Users\DEVELO~1\AppData\Local\Temp\ccvAZLUt.s 			page 17


 910 047d 00       		.byte	0
 911 047e 04       		.uleb128 0x4
 912 047f 80000000 		.4byte	.LASF77
 913 0483 AE       		.byte	0xae
 914 0484 8B000000 		.4byte	0x8b
 915 0488 04       		.byte	0x4
 916 0489 04       		.uleb128 0x4
 917 048a 95000000 		.4byte	.LASF78
 918 048e AF       		.byte	0xaf
 919 048f 8B000000 		.4byte	0x8b
 920 0493 08       		.byte	0x8
 921 0494 04       		.uleb128 0x4
 922 0495 9B000000 		.4byte	.LASF79
 923 0499 B0       		.byte	0xb0
 924 049a 8B000000 		.4byte	0x8b
 925 049e 0C       		.byte	0xc
 926 049f 04       		.uleb128 0x4
 927 04a0 ED040000 		.4byte	.LASF80
 928 04a4 B1       		.byte	0xb1
 929 04a5 8B000000 		.4byte	0x8b
 930 04a9 10       		.byte	0x10
 931 04aa 04       		.uleb128 0x4
 932 04ab 26000000 		.4byte	.LASF81
 933 04af B2       		.byte	0xb2
 934 04b0 8B000000 		.4byte	0x8b
 935 04b4 14       		.byte	0x14
 936 04b5 04       		.uleb128 0x4
 937 04b6 AA040000 		.4byte	.LASF82
 938 04ba B3       		.byte	0xb3
 939 04bb 8B000000 		.4byte	0x8b
 940 04bf 18       		.byte	0x18
 941 04c0 00       		.byte	0
 942 04c1 07       		.uleb128 0x7
 943 04c2 FC040000 		.4byte	.LASF83
 944 04c6 06       		.byte	0x6
 945 04c7 B4       		.byte	0xb4
 946 04c8 03       		.byte	0x3
 947 04c9 6A040000 		.4byte	0x46a
 948 04cd 0B       		.uleb128 0xb
 949 04ce 05040000 		.4byte	.LASF84
 950 04d2 06       		.byte	0x6
 951 04d3 1E01     		.2byte	0x11e
 952 04d5 1B       		.byte	0x1b
 953 04d6 DA040000 		.4byte	0x4da
 954 04da 1D       		.uleb128 0x1d
 955 04db 05040000 		.4byte	.LASF84
 956 04df 08       		.byte	0x8
 957 04e0 06       		.byte	0x6
 958 04e1 2C01     		.2byte	0x12c
 959 04e3 08       		.byte	0x8
 960 04e4 05050000 		.4byte	0x505
 961 04e8 01       		.uleb128 0x1
 962 04e9 61000000 		.4byte	.LASF85
 963 04ed 06       		.byte	0x6
 964 04ee 3001     		.2byte	0x130
 965 04f0 1D       		.byte	0x1d
 966 04f1 27050000 		.4byte	0x527
ARM GAS  C:\Users\DEVELO~1\AppData\Local\Temp\ccvAZLUt.s 			page 18


 967 04f5 00       		.byte	0
 968 04f6 01       		.uleb128 0x1
 969 04f7 0F050000 		.4byte	.LASF86
 970 04fb 06       		.byte	0x6
 971 04fc 4F01     		.2byte	0x14f
 972 04fe 1E       		.byte	0x1e
 973 04ff 34050000 		.4byte	0x534
 974 0503 04       		.byte	0x4
 975 0504 00       		.byte	0
 976 0505 1E       		.uleb128 0x1e
 977 0506 07       		.byte	0x7
 978 0507 01       		.byte	0x1
 979 0508 49000000 		.4byte	0x49
 980 050c 06       		.byte	0x6
 981 050d 2301     		.2byte	0x123
 982 050f 0E       		.byte	0xe
 983 0510 27050000 		.4byte	0x527
 984 0514 0C       		.uleb128 0xc
 985 0515 C4030000 		.4byte	.LASF87
 986 0519 00       		.byte	0
 987 051a 0C       		.uleb128 0xc
 988 051b CA040000 		.4byte	.LASF88
 989 051f 01       		.byte	0x1
 990 0520 0C       		.uleb128 0xc
 991 0521 FA030000 		.4byte	.LASF89
 992 0525 02       		.byte	0x2
 993 0526 00       		.byte	0
 994 0527 0B       		.uleb128 0xb
 995 0528 1D040000 		.4byte	.LASF90
 996 052c 06       		.byte	0x6
 997 052d 2701     		.2byte	0x127
 998 052f 03       		.byte	0x3
 999 0530 05050000 		.4byte	0x505
 1000 0534 08       		.uleb128 0x8
 1001 0535 C1040000 		.4byte	0x4c1
 1002 0539 1F       		.uleb128 0x1f
 1003 053a 47050000 		.4byte	.LASF104
 1004 053e 06       		.byte	0x6
 1005 053f 5D01     		.2byte	0x15d
 1006 0541 13       		.byte	0x13
 1007 0542 CD040000 		.4byte	0x4cd
 1008 0546 20       		.uleb128 0x20
 1009 0547 39050000 		.4byte	0x539
 1010 054b 01       		.byte	0x1
 1011 054c 2A       		.byte	0x2a
 1012 054d 0C       		.byte	0xc
 1013 054e 05       		.uleb128 0x5
 1014 054f 03       		.byte	0x3
 1015 0550 00000000 		.4byte	FSMCD1
 1016 0554 21       		.uleb128 0x21
 1017 0555 33050000 		.4byte	.LASF105
 1018 0559 08       		.byte	0x8
 1019 055a F402     		.2byte	0x2f4
 1020 055c 08       		.byte	0x8
 1021 055d 11       		.uleb128 0x11
 1022 055e A3010000 		.4byte	.LASF91
 1023 0562 FF       		.byte	0xff
ARM GAS  C:\Users\DEVELO~1\AppData\Local\Temp\ccvAZLUt.s 			page 19


 1024 0563 6D050000 		.4byte	0x56d
 1025 0567 12       		.uleb128 0x12
 1026 0568 90000000 		.4byte	0x90
 1027 056c 00       		.byte	0
 1028 056d 11       		.uleb128 0x11
 1029 056e 81020000 		.4byte	.LASF92
 1030 0572 FE       		.byte	0xfe
 1031 0573 7D050000 		.4byte	0x57d
 1032 0577 12       		.uleb128 0x12
 1033 0578 90000000 		.4byte	0x90
 1034 057c 00       		.byte	0
 1035 057d 0D       		.uleb128 0xd
 1036 057e 8B000000 		.4byte	.LASF93
 1037 0582 B5       		.byte	0xb5
 1038 0583 01       		.byte	0x1
 1039 0584 00000000 		.4byte	.LFB435
 1040 0588 1C000000 		.4byte	.LFE435-.LFB435
 1041 058c 01       		.uleb128 0x1
 1042 058d 9C       		.byte	0x9c
 1043 058e D3050000 		.4byte	0x5d3
 1044 0592 22       		.uleb128 0x22
 1045 0593 C2020000 		.4byte	.LASF106
 1046 0597 E3050000 		.4byte	0x5e3
 1047 059b 05       		.uleb128 0x5
 1048 059c 03       		.byte	0x3
 1049 059d 00000000 		.4byte	__func__.0
 1050 05a1 13       		.uleb128 0x13
 1051 05a2 0A000000 		.4byte	.LVL7
 1052 05a6 6D050000 		.4byte	0x56d
 1053 05aa B5050000 		.4byte	0x5b5
 1054 05ae 14       		.uleb128 0x14
 1055 05af 01       		.uleb128 0x1
 1056 05b0 50       		.byte	0x50
 1057 05b1 02       		.uleb128 0x2
 1058 05b2 74       		.byte	0x74
 1059 05b3 00       		.sleb128 0
 1060 05b4 00       		.byte	0
 1061 05b5 13       		.uleb128 0x13
 1062 05b6 10000000 		.4byte	.LVL8
 1063 05ba 5D050000 		.4byte	0x55d
 1064 05be C9050000 		.4byte	0x5c9
 1065 05c2 14       		.uleb128 0x14
 1066 05c3 01       		.uleb128 0x1
 1067 05c4 50       		.byte	0x50
 1068 05c5 02       		.uleb128 0x2
 1069 05c6 74       		.byte	0x74
 1070 05c7 00       		.sleb128 0
 1071 05c8 00       		.byte	0
 1072 05c9 23       		.uleb128 0x23
 1073 05ca 18000000 		.4byte	.LVL9
 1074 05ce 54050000 		.4byte	0x554
 1075 05d2 00       		.byte	0
 1076 05d3 09       		.uleb128 0x9
 1077 05d4 9C000000 		.4byte	0x9c
 1078 05d8 E3050000 		.4byte	0x5e3
 1079 05dc 0A       		.uleb128 0xa
 1080 05dd 2D000000 		.4byte	0x2d
ARM GAS  C:\Users\DEVELO~1\AppData\Local\Temp\ccvAZLUt.s 			page 20


 1081 05e1 09       		.byte	0x9
 1082 05e2 00       		.byte	0
 1083 05e3 10       		.uleb128 0x10
 1084 05e4 D3050000 		.4byte	0x5d3
 1085 05e8 0D       		.uleb128 0xd
 1086 05e9 C9010000 		.4byte	.LASF94
 1087 05ed 9A       		.byte	0x9a
 1088 05ee 06       		.byte	0x6
 1089 05ef 00000000 		.4byte	.LFB434
 1090 05f3 50000000 		.4byte	.LFE434-.LFB434
 1091 05f7 01       		.uleb128 0x1
 1092 05f8 9C       		.byte	0x9c
 1093 05f9 67060000 		.4byte	0x667
 1094 05fd 15       		.uleb128 0x15
 1095 05fe DE040000 		.4byte	.LASF96
 1096 0602 9A       		.byte	0x9a
 1097 0603 1B       		.byte	0x1b
 1098 0604 67060000 		.4byte	0x667
 1099 0608 01       		.uleb128 0x1
 1100 0609 50       		.byte	0x50
 1101 060a 24       		.uleb128 0x24
 1102 060b 14070000 		.4byte	0x714
 1103 060f 08000000 		.4byte	.LBI21
 1104 0613 01       		.byte	.LVU47
 1105 0614 0C000000 		.4byte	.LLRL2
 1106 0618 01       		.byte	0x1
 1107 0619 9F       		.byte	0x9f
 1108 061a 05       		.byte	0x5
 1109 061b 4D060000 		.4byte	0x64d
 1110 061f 06       		.uleb128 0x6
 1111 0620 1F070000 		.4byte	0x71f
 1112 0624 0E000000 		.4byte	.LLST3
 1113 0628 0C000000 		.4byte	.LVUS3
 1114 062c 25       		.uleb128 0x25
 1115 062d 68070000 		.4byte	0x768
 1116 0631 08000000 		.4byte	.LBI22
 1117 0635 03       		.byte	.LVU49
 1118 0636 0C000000 		.4byte	.LLRL2
 1119 063a 02       		.byte	0x2
 1120 063b 4A03     		.2byte	0x34a
 1121 063d 03       		.byte	0x3
 1122 063e 06       		.uleb128 0x6
 1123 063f 71070000 		.4byte	0x771
 1124 0643 1C000000 		.4byte	.LLST4
 1125 0647 1A000000 		.4byte	.LVUS4
 1126 064b 00       		.byte	0
 1127 064c 00       		.byte	0
 1128 064d 16       		.uleb128 0x16
 1129 064e 2C070000 		.4byte	0x72c
 1130 0652 28000000 		.4byte	.LBI30
 1131 0656 01       		.byte	.LVU66
 1132 0657 28000000 		.4byte	.LBB30
 1133 065b 28000000 		.4byte	.LBE30-.LBB30
 1134 065f A8       		.byte	0xa8
 1135 0660 17       		.uleb128 0x17
 1136 0661 37070000 		.4byte	0x737
 1137 0665 00       		.byte	0
ARM GAS  C:\Users\DEVELO~1\AppData\Local\Temp\ccvAZLUt.s 			page 21


 1138 0666 00       		.byte	0
 1139 0667 08       		.uleb128 0x8
 1140 0668 CD040000 		.4byte	0x4cd
 1141 066c 0D       		.uleb128 0xd
 1142 066d D4040000 		.4byte	.LASF95
 1143 0671 7C       		.byte	0x7c
 1144 0672 06       		.byte	0x6
 1145 0673 00000000 		.4byte	.LFB433
 1146 0677 50000000 		.4byte	.LFE433-.LFB433
 1147 067b 01       		.uleb128 0x1
 1148 067c 9C       		.byte	0x9c
 1149 067d 02070000 		.4byte	0x702
 1150 0681 15       		.uleb128 0x15
 1151 0682 DE040000 		.4byte	.LASF96
 1152 0686 7C       		.byte	0x7c
 1153 0687 1C       		.byte	0x1c
 1154 0688 67060000 		.4byte	0x667
 1155 068c 01       		.uleb128 0x1
 1156 068d 50       		.byte	0x50
 1157 068e 26       		.uleb128 0x26
 1158 068f C2020000 		.4byte	.LASF106
 1159 0693 E3050000 		.4byte	0x5e3
 1160 0697 27       		.uleb128 0x27
 1161 0698 14070000 		.4byte	0x714
 1162 069c 14000000 		.4byte	.LBI16
 1163 06a0 01       		.byte	.LVU24
 1164 06a1 14000000 		.4byte	.LBB16
 1165 06a5 14000000 		.4byte	.LBE16-.LBB16
 1166 06a9 01       		.byte	0x1
 1167 06aa 86       		.byte	0x86
 1168 06ab 07       		.byte	0x7
 1169 06ac E2060000 		.4byte	0x6e2
 1170 06b0 06       		.uleb128 0x6
 1171 06b1 1F070000 		.4byte	0x71f
 1172 06b5 2A000000 		.4byte	.LLST0
 1173 06b9 28000000 		.4byte	.LVUS0
 1174 06bd 28       		.uleb128 0x28
 1175 06be 68070000 		.4byte	0x768
 1176 06c2 14000000 		.4byte	.LBI17
 1177 06c6 03       		.byte	.LVU26
 1178 06c7 14000000 		.4byte	.LBB17
 1179 06cb 14000000 		.4byte	.LBE17-.LBB17
 1180 06cf 02       		.byte	0x2
 1181 06d0 4A03     		.2byte	0x34a
 1182 06d2 03       		.byte	0x3
 1183 06d3 06       		.uleb128 0x6
 1184 06d4 71070000 		.4byte	0x771
 1185 06d8 38000000 		.4byte	.LLST1
 1186 06dc 36000000 		.4byte	.LVUS1
 1187 06e0 00       		.byte	0
 1188 06e1 00       		.byte	0
 1189 06e2 16       		.uleb128 0x16
 1190 06e3 44070000 		.4byte	0x744
 1191 06e7 28000000 		.4byte	.LBI19
 1192 06eb 02       		.byte	.LVU34
 1193 06ec 28000000 		.4byte	.LBB19
 1194 06f0 28000000 		.4byte	.LBE19-.LBB19
ARM GAS  C:\Users\DEVELO~1\AppData\Local\Temp\ccvAZLUt.s 			page 22


 1195 06f4 88       		.byte	0x88
 1196 06f5 29       		.uleb128 0x29
 1197 06f6 5B070000 		.4byte	0x75b
 1198 06fa 00       		.byte	0
 1199 06fb 17       		.uleb128 0x17
 1200 06fc 4F070000 		.4byte	0x74f
 1201 0700 00       		.byte	0
 1202 0701 00       		.byte	0
 1203 0702 2A       		.uleb128 0x2a
 1204 0703 0A000000 		.4byte	.LASF107
 1205 0707 01       		.byte	0x1
 1206 0708 46       		.byte	0x46
 1207 0709 06       		.byte	0x6
 1208 070a 00000000 		.4byte	.LFB432
 1209 070e 18000000 		.4byte	.LFE432-.LFB432
 1210 0712 01       		.uleb128 0x1
 1211 0713 9C       		.byte	0x9c
 1212 0714 0E       		.uleb128 0xe
 1213 0715 7D040000 		.4byte	.LASF97
 1214 0719 3E03     		.2byte	0x33e
 1215 071b 2C070000 		.4byte	0x72c
 1216 071f 0F       		.uleb128 0xf
 1217 0720 C5040000 		.4byte	.LASF99
 1218 0724 3E03     		.2byte	0x33e
 1219 0726 2C       		.byte	0x2c
 1220 0727 7F000000 		.4byte	0x7f
 1221 072b 00       		.byte	0
 1222 072c 0E       		.uleb128 0xe
 1223 072d 37030000 		.4byte	.LASF98
 1224 0731 1C03     		.2byte	0x31c
 1225 0733 44070000 		.4byte	0x744
 1226 0737 0F       		.uleb128 0xf
 1227 0738 C5040000 		.4byte	.LASF99
 1228 073c 1C03     		.2byte	0x31c
 1229 073e 2E       		.byte	0x2e
 1230 073f 7F000000 		.4byte	0x7f
 1231 0743 00       		.byte	0
 1232 0744 0E       		.uleb128 0xe
 1233 0745 8E010000 		.4byte	.LASF100
 1234 0749 FC02     		.2byte	0x2fc
 1235 074b 68070000 		.4byte	0x768
 1236 074f 0F       		.uleb128 0xf
 1237 0750 C5040000 		.4byte	.LASF99
 1238 0754 FC02     		.2byte	0x2fc
 1239 0756 2D       		.byte	0x2d
 1240 0757 7F000000 		.4byte	0x7f
 1241 075b 2B       		.uleb128 0x2b
 1242 075c 6C7000   		.ascii	"lp\000"
 1243 075f 02       		.byte	0x2
 1244 0760 FC02     		.2byte	0x2fc
 1245 0762 38       		.byte	0x38
 1246 0763 63040000 		.4byte	0x463
 1247 0767 00       		.byte	0
 1248 0768 2C       		.uleb128 0x2c
 1249 0769 52000000 		.4byte	.LASF108
 1250 076d 02       		.byte	0x2
 1251 076e 71       		.byte	0x71
ARM GAS  C:\Users\DEVELO~1\AppData\Local\Temp\ccvAZLUt.s 			page 23


 1252 076f 16       		.byte	0x16
 1253 0770 03       		.byte	0x3
 1254 0771 2D       		.uleb128 0x2d
 1255 0772 C5040000 		.4byte	.LASF99
 1256 0776 02       		.byte	0x2
 1257 0777 71       		.byte	0x71
 1258 0778 2E       		.byte	0x2e
 1259 0779 7F000000 		.4byte	0x7f
 1260 077d 00       		.byte	0
 1261 077e 00       		.byte	0
 1262              		.section	.debug_abbrev,"",%progbits
 1263              	.Ldebug_abbrev0:
 1264 0000 01       		.uleb128 0x1
 1265 0001 0D       		.uleb128 0xd
 1266 0002 00       		.byte	0
 1267 0003 03       		.uleb128 0x3
 1268 0004 0E       		.uleb128 0xe
 1269 0005 3A       		.uleb128 0x3a
 1270 0006 0B       		.uleb128 0xb
 1271 0007 3B       		.uleb128 0x3b
 1272 0008 05       		.uleb128 0x5
 1273 0009 39       		.uleb128 0x39
 1274 000a 0B       		.uleb128 0xb
 1275 000b 49       		.uleb128 0x49
 1276 000c 13       		.uleb128 0x13
 1277 000d 38       		.uleb128 0x38
 1278 000e 0B       		.uleb128 0xb
 1279 000f 00       		.byte	0
 1280 0010 00       		.byte	0
 1281 0011 02       		.uleb128 0x2
 1282 0012 24       		.uleb128 0x24
 1283 0013 00       		.byte	0
 1284 0014 0B       		.uleb128 0xb
 1285 0015 0B       		.uleb128 0xb
 1286 0016 3E       		.uleb128 0x3e
 1287 0017 0B       		.uleb128 0xb
 1288 0018 03       		.uleb128 0x3
 1289 0019 0E       		.uleb128 0xe
 1290 001a 00       		.byte	0
 1291 001b 00       		.byte	0
 1292 001c 03       		.uleb128 0x3
 1293 001d 0D       		.uleb128 0xd
 1294 001e 00       		.byte	0
 1295 001f 03       		.uleb128 0x3
 1296 0020 0E       		.uleb128 0xe
 1297 0021 3A       		.uleb128 0x3a
 1298 0022 21       		.uleb128 0x21
 1299 0023 05       		.sleb128 5
 1300 0024 3B       		.uleb128 0x3b
 1301 0025 05       		.uleb128 0x5
 1302 0026 39       		.uleb128 0x39
 1303 0027 0B       		.uleb128 0xb
 1304 0028 49       		.uleb128 0x49
 1305 0029 13       		.uleb128 0x13
 1306 002a 38       		.uleb128 0x38
 1307 002b 05       		.uleb128 0x5
 1308 002c 00       		.byte	0
ARM GAS  C:\Users\DEVELO~1\AppData\Local\Temp\ccvAZLUt.s 			page 24


 1309 002d 00       		.byte	0
 1310 002e 04       		.uleb128 0x4
 1311 002f 0D       		.uleb128 0xd
 1312 0030 00       		.byte	0
 1313 0031 03       		.uleb128 0x3
 1314 0032 0E       		.uleb128 0xe
 1315 0033 3A       		.uleb128 0x3a
 1316 0034 21       		.uleb128 0x21
 1317 0035 06       		.sleb128 6
 1318 0036 3B       		.uleb128 0x3b
 1319 0037 0B       		.uleb128 0xb
 1320 0038 39       		.uleb128 0x39
 1321 0039 21       		.uleb128 0x21
 1322 003a 11       		.sleb128 17
 1323 003b 49       		.uleb128 0x49
 1324 003c 13       		.uleb128 0x13
 1325 003d 38       		.uleb128 0x38
 1326 003e 0B       		.uleb128 0xb
 1327 003f 00       		.byte	0
 1328 0040 00       		.byte	0
 1329 0041 05       		.uleb128 0x5
 1330 0042 0D       		.uleb128 0xd
 1331 0043 00       		.byte	0
 1332 0044 03       		.uleb128 0x3
 1333 0045 08       		.uleb128 0x8
 1334 0046 3A       		.uleb128 0x3a
 1335 0047 21       		.uleb128 0x21
 1336 0048 05       		.sleb128 5
 1337 0049 3B       		.uleb128 0x3b
 1338 004a 05       		.uleb128 0x5
 1339 004b 39       		.uleb128 0x39
 1340 004c 0B       		.uleb128 0xb
 1341 004d 49       		.uleb128 0x49
 1342 004e 13       		.uleb128 0x13
 1343 004f 38       		.uleb128 0x38
 1344 0050 0B       		.uleb128 0xb
 1345 0051 00       		.byte	0
 1346 0052 00       		.byte	0
 1347 0053 06       		.uleb128 0x6
 1348 0054 05       		.uleb128 0x5
 1349 0055 00       		.byte	0
 1350 0056 31       		.uleb128 0x31
 1351 0057 13       		.uleb128 0x13
 1352 0058 02       		.uleb128 0x2
 1353 0059 17       		.uleb128 0x17
 1354 005a B742     		.uleb128 0x2137
 1355 005c 17       		.uleb128 0x17
 1356 005d 00       		.byte	0
 1357 005e 00       		.byte	0
 1358 005f 07       		.uleb128 0x7
 1359 0060 16       		.uleb128 0x16
 1360 0061 00       		.byte	0
 1361 0062 03       		.uleb128 0x3
 1362 0063 0E       		.uleb128 0xe
 1363 0064 3A       		.uleb128 0x3a
 1364 0065 0B       		.uleb128 0xb
 1365 0066 3B       		.uleb128 0x3b
ARM GAS  C:\Users\DEVELO~1\AppData\Local\Temp\ccvAZLUt.s 			page 25


 1366 0067 0B       		.uleb128 0xb
 1367 0068 39       		.uleb128 0x39
 1368 0069 0B       		.uleb128 0xb
 1369 006a 49       		.uleb128 0x49
 1370 006b 13       		.uleb128 0x13
 1371 006c 00       		.byte	0
 1372 006d 00       		.byte	0
 1373 006e 08       		.uleb128 0x8
 1374 006f 0F       		.uleb128 0xf
 1375 0070 00       		.byte	0
 1376 0071 0B       		.uleb128 0xb
 1377 0072 21       		.uleb128 0x21
 1378 0073 04       		.sleb128 4
 1379 0074 49       		.uleb128 0x49
 1380 0075 13       		.uleb128 0x13
 1381 0076 00       		.byte	0
 1382 0077 00       		.byte	0
 1383 0078 09       		.uleb128 0x9
 1384 0079 01       		.uleb128 0x1
 1385 007a 01       		.byte	0x1
 1386 007b 49       		.uleb128 0x49
 1387 007c 13       		.uleb128 0x13
 1388 007d 01       		.uleb128 0x1
 1389 007e 13       		.uleb128 0x13
 1390 007f 00       		.byte	0
 1391 0080 00       		.byte	0
 1392 0081 0A       		.uleb128 0xa
 1393 0082 21       		.uleb128 0x21
 1394 0083 00       		.byte	0
 1395 0084 49       		.uleb128 0x49
 1396 0085 13       		.uleb128 0x13
 1397 0086 2F       		.uleb128 0x2f
 1398 0087 0B       		.uleb128 0xb
 1399 0088 00       		.byte	0
 1400 0089 00       		.byte	0
 1401 008a 0B       		.uleb128 0xb
 1402 008b 16       		.uleb128 0x16
 1403 008c 00       		.byte	0
 1404 008d 03       		.uleb128 0x3
 1405 008e 0E       		.uleb128 0xe
 1406 008f 3A       		.uleb128 0x3a
 1407 0090 0B       		.uleb128 0xb
 1408 0091 3B       		.uleb128 0x3b
 1409 0092 05       		.uleb128 0x5
 1410 0093 39       		.uleb128 0x39
 1411 0094 0B       		.uleb128 0xb
 1412 0095 49       		.uleb128 0x49
 1413 0096 13       		.uleb128 0x13
 1414 0097 00       		.byte	0
 1415 0098 00       		.byte	0
 1416 0099 0C       		.uleb128 0xc
 1417 009a 28       		.uleb128 0x28
 1418 009b 00       		.byte	0
 1419 009c 03       		.uleb128 0x3
 1420 009d 0E       		.uleb128 0xe
 1421 009e 1C       		.uleb128 0x1c
 1422 009f 0B       		.uleb128 0xb
ARM GAS  C:\Users\DEVELO~1\AppData\Local\Temp\ccvAZLUt.s 			page 26


 1423 00a0 00       		.byte	0
 1424 00a1 00       		.byte	0
 1425 00a2 0D       		.uleb128 0xd
 1426 00a3 2E       		.uleb128 0x2e
 1427 00a4 01       		.byte	0x1
 1428 00a5 3F       		.uleb128 0x3f
 1429 00a6 19       		.uleb128 0x19
 1430 00a7 03       		.uleb128 0x3
 1431 00a8 0E       		.uleb128 0xe
 1432 00a9 3A       		.uleb128 0x3a
 1433 00aa 21       		.uleb128 0x21
 1434 00ab 01       		.sleb128 1
 1435 00ac 3B       		.uleb128 0x3b
 1436 00ad 0B       		.uleb128 0xb
 1437 00ae 39       		.uleb128 0x39
 1438 00af 0B       		.uleb128 0xb
 1439 00b0 27       		.uleb128 0x27
 1440 00b1 19       		.uleb128 0x19
 1441 00b2 11       		.uleb128 0x11
 1442 00b3 01       		.uleb128 0x1
 1443 00b4 12       		.uleb128 0x12
 1444 00b5 06       		.uleb128 0x6
 1445 00b6 40       		.uleb128 0x40
 1446 00b7 18       		.uleb128 0x18
 1447 00b8 7A       		.uleb128 0x7a
 1448 00b9 19       		.uleb128 0x19
 1449 00ba 01       		.uleb128 0x1
 1450 00bb 13       		.uleb128 0x13
 1451 00bc 00       		.byte	0
 1452 00bd 00       		.byte	0
 1453 00be 0E       		.uleb128 0xe
 1454 00bf 2E       		.uleb128 0x2e
 1455 00c0 01       		.byte	0x1
 1456 00c1 03       		.uleb128 0x3
 1457 00c2 0E       		.uleb128 0xe
 1458 00c3 3A       		.uleb128 0x3a
 1459 00c4 21       		.uleb128 0x21
 1460 00c5 02       		.sleb128 2
 1461 00c6 3B       		.uleb128 0x3b
 1462 00c7 05       		.uleb128 0x5
 1463 00c8 39       		.uleb128 0x39
 1464 00c9 21       		.uleb128 0x21
 1465 00ca 16       		.sleb128 22
 1466 00cb 27       		.uleb128 0x27
 1467 00cc 19       		.uleb128 0x19
 1468 00cd 20       		.uleb128 0x20
 1469 00ce 21       		.uleb128 0x21
 1470 00cf 03       		.sleb128 3
 1471 00d0 01       		.uleb128 0x1
 1472 00d1 13       		.uleb128 0x13
 1473 00d2 00       		.byte	0
 1474 00d3 00       		.byte	0
 1475 00d4 0F       		.uleb128 0xf
 1476 00d5 05       		.uleb128 0x5
 1477 00d6 00       		.byte	0
 1478 00d7 03       		.uleb128 0x3
 1479 00d8 0E       		.uleb128 0xe
ARM GAS  C:\Users\DEVELO~1\AppData\Local\Temp\ccvAZLUt.s 			page 27


 1480 00d9 3A       		.uleb128 0x3a
 1481 00da 21       		.uleb128 0x21
 1482 00db 02       		.sleb128 2
 1483 00dc 3B       		.uleb128 0x3b
 1484 00dd 05       		.uleb128 0x5
 1485 00de 39       		.uleb128 0x39
 1486 00df 0B       		.uleb128 0xb
 1487 00e0 49       		.uleb128 0x49
 1488 00e1 13       		.uleb128 0x13
 1489 00e2 00       		.byte	0
 1490 00e3 00       		.byte	0
 1491 00e4 10       		.uleb128 0x10
 1492 00e5 26       		.uleb128 0x26
 1493 00e6 00       		.byte	0
 1494 00e7 49       		.uleb128 0x49
 1495 00e8 13       		.uleb128 0x13
 1496 00e9 00       		.byte	0
 1497 00ea 00       		.byte	0
 1498 00eb 11       		.uleb128 0x11
 1499 00ec 2E       		.uleb128 0x2e
 1500 00ed 01       		.byte	0x1
 1501 00ee 3F       		.uleb128 0x3f
 1502 00ef 19       		.uleb128 0x19
 1503 00f0 03       		.uleb128 0x3
 1504 00f1 0E       		.uleb128 0xe
 1505 00f2 3A       		.uleb128 0x3a
 1506 00f3 21       		.uleb128 0x21
 1507 00f4 07       		.sleb128 7
 1508 00f5 3B       		.uleb128 0x3b
 1509 00f6 0B       		.uleb128 0xb
 1510 00f7 39       		.uleb128 0x39
 1511 00f8 21       		.uleb128 0x21
 1512 00f9 08       		.sleb128 8
 1513 00fa 27       		.uleb128 0x27
 1514 00fb 19       		.uleb128 0x19
 1515 00fc 3C       		.uleb128 0x3c
 1516 00fd 19       		.uleb128 0x19
 1517 00fe 01       		.uleb128 0x1
 1518 00ff 13       		.uleb128 0x13
 1519 0100 00       		.byte	0
 1520 0101 00       		.byte	0
 1521 0102 12       		.uleb128 0x12
 1522 0103 05       		.uleb128 0x5
 1523 0104 00       		.byte	0
 1524 0105 49       		.uleb128 0x49
 1525 0106 13       		.uleb128 0x13
 1526 0107 00       		.byte	0
 1527 0108 00       		.byte	0
 1528 0109 13       		.uleb128 0x13
 1529 010a 48       		.uleb128 0x48
 1530 010b 01       		.byte	0x1
 1531 010c 7D       		.uleb128 0x7d
 1532 010d 01       		.uleb128 0x1
 1533 010e 7F       		.uleb128 0x7f
 1534 010f 13       		.uleb128 0x13
 1535 0110 01       		.uleb128 0x1
 1536 0111 13       		.uleb128 0x13
ARM GAS  C:\Users\DEVELO~1\AppData\Local\Temp\ccvAZLUt.s 			page 28


 1537 0112 00       		.byte	0
 1538 0113 00       		.byte	0
 1539 0114 14       		.uleb128 0x14
 1540 0115 49       		.uleb128 0x49
 1541 0116 00       		.byte	0
 1542 0117 02       		.uleb128 0x2
 1543 0118 18       		.uleb128 0x18
 1544 0119 7E       		.uleb128 0x7e
 1545 011a 18       		.uleb128 0x18
 1546 011b 00       		.byte	0
 1547 011c 00       		.byte	0
 1548 011d 15       		.uleb128 0x15
 1549 011e 05       		.uleb128 0x5
 1550 011f 00       		.byte	0
 1551 0120 03       		.uleb128 0x3
 1552 0121 0E       		.uleb128 0xe
 1553 0122 3A       		.uleb128 0x3a
 1554 0123 21       		.uleb128 0x21
 1555 0124 01       		.sleb128 1
 1556 0125 3B       		.uleb128 0x3b
 1557 0126 0B       		.uleb128 0xb
 1558 0127 39       		.uleb128 0x39
 1559 0128 0B       		.uleb128 0xb
 1560 0129 49       		.uleb128 0x49
 1561 012a 13       		.uleb128 0x13
 1562 012b 02       		.uleb128 0x2
 1563 012c 18       		.uleb128 0x18
 1564 012d 00       		.byte	0
 1565 012e 00       		.byte	0
 1566 012f 16       		.uleb128 0x16
 1567 0130 1D       		.uleb128 0x1d
 1568 0131 01       		.byte	0x1
 1569 0132 31       		.uleb128 0x31
 1570 0133 13       		.uleb128 0x13
 1571 0134 52       		.uleb128 0x52
 1572 0135 01       		.uleb128 0x1
 1573 0136 B842     		.uleb128 0x2138
 1574 0138 0B       		.uleb128 0xb
 1575 0139 11       		.uleb128 0x11
 1576 013a 01       		.uleb128 0x1
 1577 013b 12       		.uleb128 0x12
 1578 013c 06       		.uleb128 0x6
 1579 013d 58       		.uleb128 0x58
 1580 013e 21       		.uleb128 0x21
 1581 013f 01       		.sleb128 1
 1582 0140 59       		.uleb128 0x59
 1583 0141 0B       		.uleb128 0xb
 1584 0142 57       		.uleb128 0x57
 1585 0143 21       		.uleb128 0x21
 1586 0144 07       		.sleb128 7
 1587 0145 00       		.byte	0
 1588 0146 00       		.byte	0
 1589 0147 17       		.uleb128 0x17
 1590 0148 05       		.uleb128 0x5
 1591 0149 00       		.byte	0
 1592 014a 31       		.uleb128 0x31
 1593 014b 13       		.uleb128 0x13
ARM GAS  C:\Users\DEVELO~1\AppData\Local\Temp\ccvAZLUt.s 			page 29


 1594 014c 1C       		.uleb128 0x1c
 1595 014d 21       		.uleb128 0x21
 1596 014e 8020     		.sleb128 4096
 1597 0150 00       		.byte	0
 1598 0151 00       		.byte	0
 1599 0152 18       		.uleb128 0x18
 1600 0153 11       		.uleb128 0x11
 1601 0154 01       		.byte	0x1
 1602 0155 25       		.uleb128 0x25
 1603 0156 0E       		.uleb128 0xe
 1604 0157 13       		.uleb128 0x13
 1605 0158 0B       		.uleb128 0xb
 1606 0159 03       		.uleb128 0x3
 1607 015a 0E       		.uleb128 0xe
 1608 015b 1B       		.uleb128 0x1b
 1609 015c 0E       		.uleb128 0xe
 1610 015d 55       		.uleb128 0x55
 1611 015e 17       		.uleb128 0x17
 1612 015f 11       		.uleb128 0x11
 1613 0160 01       		.uleb128 0x1
 1614 0161 10       		.uleb128 0x10
 1615 0162 17       		.uleb128 0x17
 1616 0163 00       		.byte	0
 1617 0164 00       		.byte	0
 1618 0165 19       		.uleb128 0x19
 1619 0166 24       		.uleb128 0x24
 1620 0167 00       		.byte	0
 1621 0168 0B       		.uleb128 0xb
 1622 0169 0B       		.uleb128 0xb
 1623 016a 3E       		.uleb128 0x3e
 1624 016b 0B       		.uleb128 0xb
 1625 016c 03       		.uleb128 0x3
 1626 016d 08       		.uleb128 0x8
 1627 016e 00       		.byte	0
 1628 016f 00       		.byte	0
 1629 0170 1A       		.uleb128 0x1a
 1630 0171 35       		.uleb128 0x35
 1631 0172 00       		.byte	0
 1632 0173 49       		.uleb128 0x49
 1633 0174 13       		.uleb128 0x13
 1634 0175 00       		.byte	0
 1635 0176 00       		.byte	0
 1636 0177 1B       		.uleb128 0x1b
 1637 0178 13       		.uleb128 0x13
 1638 0179 01       		.byte	0x1
 1639 017a 0B       		.uleb128 0xb
 1640 017b 05       		.uleb128 0x5
 1641 017c 3A       		.uleb128 0x3a
 1642 017d 0B       		.uleb128 0xb
 1643 017e 3B       		.uleb128 0x3b
 1644 017f 05       		.uleb128 0x5
 1645 0180 39       		.uleb128 0x39
 1646 0181 0B       		.uleb128 0xb
 1647 0182 01       		.uleb128 0x1
 1648 0183 13       		.uleb128 0x13
 1649 0184 00       		.byte	0
 1650 0185 00       		.byte	0
ARM GAS  C:\Users\DEVELO~1\AppData\Local\Temp\ccvAZLUt.s 			page 30


 1651 0186 1C       		.uleb128 0x1c
 1652 0187 13       		.uleb128 0x13
 1653 0188 01       		.byte	0x1
 1654 0189 0B       		.uleb128 0xb
 1655 018a 0B       		.uleb128 0xb
 1656 018b 3A       		.uleb128 0x3a
 1657 018c 0B       		.uleb128 0xb
 1658 018d 3B       		.uleb128 0x3b
 1659 018e 0B       		.uleb128 0xb
 1660 018f 39       		.uleb128 0x39
 1661 0190 0B       		.uleb128 0xb
 1662 0191 01       		.uleb128 0x1
 1663 0192 13       		.uleb128 0x13
 1664 0193 00       		.byte	0
 1665 0194 00       		.byte	0
 1666 0195 1D       		.uleb128 0x1d
 1667 0196 13       		.uleb128 0x13
 1668 0197 01       		.byte	0x1
 1669 0198 03       		.uleb128 0x3
 1670 0199 0E       		.uleb128 0xe
 1671 019a 0B       		.uleb128 0xb
 1672 019b 0B       		.uleb128 0xb
 1673 019c 3A       		.uleb128 0x3a
 1674 019d 0B       		.uleb128 0xb
 1675 019e 3B       		.uleb128 0x3b
 1676 019f 05       		.uleb128 0x5
 1677 01a0 39       		.uleb128 0x39
 1678 01a1 0B       		.uleb128 0xb
 1679 01a2 01       		.uleb128 0x1
 1680 01a3 13       		.uleb128 0x13
 1681 01a4 00       		.byte	0
 1682 01a5 00       		.byte	0
 1683 01a6 1E       		.uleb128 0x1e
 1684 01a7 04       		.uleb128 0x4
 1685 01a8 01       		.byte	0x1
 1686 01a9 3E       		.uleb128 0x3e
 1687 01aa 0B       		.uleb128 0xb
 1688 01ab 0B       		.uleb128 0xb
 1689 01ac 0B       		.uleb128 0xb
 1690 01ad 49       		.uleb128 0x49
 1691 01ae 13       		.uleb128 0x13
 1692 01af 3A       		.uleb128 0x3a
 1693 01b0 0B       		.uleb128 0xb
 1694 01b1 3B       		.uleb128 0x3b
 1695 01b2 05       		.uleb128 0x5
 1696 01b3 39       		.uleb128 0x39
 1697 01b4 0B       		.uleb128 0xb
 1698 01b5 01       		.uleb128 0x1
 1699 01b6 13       		.uleb128 0x13
 1700 01b7 00       		.byte	0
 1701 01b8 00       		.byte	0
 1702 01b9 1F       		.uleb128 0x1f
 1703 01ba 34       		.uleb128 0x34
 1704 01bb 00       		.byte	0
 1705 01bc 03       		.uleb128 0x3
 1706 01bd 0E       		.uleb128 0xe
 1707 01be 3A       		.uleb128 0x3a
ARM GAS  C:\Users\DEVELO~1\AppData\Local\Temp\ccvAZLUt.s 			page 31


 1708 01bf 0B       		.uleb128 0xb
 1709 01c0 3B       		.uleb128 0x3b
 1710 01c1 05       		.uleb128 0x5
 1711 01c2 39       		.uleb128 0x39
 1712 01c3 0B       		.uleb128 0xb
 1713 01c4 49       		.uleb128 0x49
 1714 01c5 13       		.uleb128 0x13
 1715 01c6 3F       		.uleb128 0x3f
 1716 01c7 19       		.uleb128 0x19
 1717 01c8 3C       		.uleb128 0x3c
 1718 01c9 19       		.uleb128 0x19
 1719 01ca 00       		.byte	0
 1720 01cb 00       		.byte	0
 1721 01cc 20       		.uleb128 0x20
 1722 01cd 34       		.uleb128 0x34
 1723 01ce 00       		.byte	0
 1724 01cf 47       		.uleb128 0x47
 1725 01d0 13       		.uleb128 0x13
 1726 01d1 3A       		.uleb128 0x3a
 1727 01d2 0B       		.uleb128 0xb
 1728 01d3 3B       		.uleb128 0x3b
 1729 01d4 0B       		.uleb128 0xb
 1730 01d5 39       		.uleb128 0x39
 1731 01d6 0B       		.uleb128 0xb
 1732 01d7 02       		.uleb128 0x2
 1733 01d8 18       		.uleb128 0x18
 1734 01d9 00       		.byte	0
 1735 01da 00       		.byte	0
 1736 01db 21       		.uleb128 0x21
 1737 01dc 2E       		.uleb128 0x2e
 1738 01dd 00       		.byte	0
 1739 01de 3F       		.uleb128 0x3f
 1740 01df 19       		.uleb128 0x19
 1741 01e0 03       		.uleb128 0x3
 1742 01e1 0E       		.uleb128 0xe
 1743 01e2 3A       		.uleb128 0x3a
 1744 01e3 0B       		.uleb128 0xb
 1745 01e4 3B       		.uleb128 0x3b
 1746 01e5 05       		.uleb128 0x5
 1747 01e6 39       		.uleb128 0x39
 1748 01e7 0B       		.uleb128 0xb
 1749 01e8 27       		.uleb128 0x27
 1750 01e9 19       		.uleb128 0x19
 1751 01ea 3C       		.uleb128 0x3c
 1752 01eb 19       		.uleb128 0x19
 1753 01ec 00       		.byte	0
 1754 01ed 00       		.byte	0
 1755 01ee 22       		.uleb128 0x22
 1756 01ef 34       		.uleb128 0x34
 1757 01f0 00       		.byte	0
 1758 01f1 03       		.uleb128 0x3
 1759 01f2 0E       		.uleb128 0xe
 1760 01f3 49       		.uleb128 0x49
 1761 01f4 13       		.uleb128 0x13
 1762 01f5 34       		.uleb128 0x34
 1763 01f6 19       		.uleb128 0x19
 1764 01f7 02       		.uleb128 0x2
ARM GAS  C:\Users\DEVELO~1\AppData\Local\Temp\ccvAZLUt.s 			page 32


 1765 01f8 18       		.uleb128 0x18
 1766 01f9 00       		.byte	0
 1767 01fa 00       		.byte	0
 1768 01fb 23       		.uleb128 0x23
 1769 01fc 48       		.uleb128 0x48
 1770 01fd 00       		.byte	0
 1771 01fe 7D       		.uleb128 0x7d
 1772 01ff 01       		.uleb128 0x1
 1773 0200 8201     		.uleb128 0x82
 1774 0202 19       		.uleb128 0x19
 1775 0203 7F       		.uleb128 0x7f
 1776 0204 13       		.uleb128 0x13
 1777 0205 00       		.byte	0
 1778 0206 00       		.byte	0
 1779 0207 24       		.uleb128 0x24
 1780 0208 1D       		.uleb128 0x1d
 1781 0209 01       		.byte	0x1
 1782 020a 31       		.uleb128 0x31
 1783 020b 13       		.uleb128 0x13
 1784 020c 52       		.uleb128 0x52
 1785 020d 01       		.uleb128 0x1
 1786 020e B842     		.uleb128 0x2138
 1787 0210 0B       		.uleb128 0xb
 1788 0211 55       		.uleb128 0x55
 1789 0212 17       		.uleb128 0x17
 1790 0213 58       		.uleb128 0x58
 1791 0214 0B       		.uleb128 0xb
 1792 0215 59       		.uleb128 0x59
 1793 0216 0B       		.uleb128 0xb
 1794 0217 57       		.uleb128 0x57
 1795 0218 0B       		.uleb128 0xb
 1796 0219 01       		.uleb128 0x1
 1797 021a 13       		.uleb128 0x13
 1798 021b 00       		.byte	0
 1799 021c 00       		.byte	0
 1800 021d 25       		.uleb128 0x25
 1801 021e 1D       		.uleb128 0x1d
 1802 021f 01       		.byte	0x1
 1803 0220 31       		.uleb128 0x31
 1804 0221 13       		.uleb128 0x13
 1805 0222 52       		.uleb128 0x52
 1806 0223 01       		.uleb128 0x1
 1807 0224 B842     		.uleb128 0x2138
 1808 0226 0B       		.uleb128 0xb
 1809 0227 55       		.uleb128 0x55
 1810 0228 17       		.uleb128 0x17
 1811 0229 58       		.uleb128 0x58
 1812 022a 0B       		.uleb128 0xb
 1813 022b 59       		.uleb128 0x59
 1814 022c 05       		.uleb128 0x5
 1815 022d 57       		.uleb128 0x57
 1816 022e 0B       		.uleb128 0xb
 1817 022f 00       		.byte	0
 1818 0230 00       		.byte	0
 1819 0231 26       		.uleb128 0x26
 1820 0232 34       		.uleb128 0x34
 1821 0233 00       		.byte	0
ARM GAS  C:\Users\DEVELO~1\AppData\Local\Temp\ccvAZLUt.s 			page 33


 1822 0234 03       		.uleb128 0x3
 1823 0235 0E       		.uleb128 0xe
 1824 0236 49       		.uleb128 0x49
 1825 0237 13       		.uleb128 0x13
 1826 0238 34       		.uleb128 0x34
 1827 0239 19       		.uleb128 0x19
 1828 023a 00       		.byte	0
 1829 023b 00       		.byte	0
 1830 023c 27       		.uleb128 0x27
 1831 023d 1D       		.uleb128 0x1d
 1832 023e 01       		.byte	0x1
 1833 023f 31       		.uleb128 0x31
 1834 0240 13       		.uleb128 0x13
 1835 0241 52       		.uleb128 0x52
 1836 0242 01       		.uleb128 0x1
 1837 0243 B842     		.uleb128 0x2138
 1838 0245 0B       		.uleb128 0xb
 1839 0246 11       		.uleb128 0x11
 1840 0247 01       		.uleb128 0x1
 1841 0248 12       		.uleb128 0x12
 1842 0249 06       		.uleb128 0x6
 1843 024a 58       		.uleb128 0x58
 1844 024b 0B       		.uleb128 0xb
 1845 024c 59       		.uleb128 0x59
 1846 024d 0B       		.uleb128 0xb
 1847 024e 57       		.uleb128 0x57
 1848 024f 0B       		.uleb128 0xb
 1849 0250 01       		.uleb128 0x1
 1850 0251 13       		.uleb128 0x13
 1851 0252 00       		.byte	0
 1852 0253 00       		.byte	0
 1853 0254 28       		.uleb128 0x28
 1854 0255 1D       		.uleb128 0x1d
 1855 0256 01       		.byte	0x1
 1856 0257 31       		.uleb128 0x31
 1857 0258 13       		.uleb128 0x13
 1858 0259 52       		.uleb128 0x52
 1859 025a 01       		.uleb128 0x1
 1860 025b B842     		.uleb128 0x2138
 1861 025d 0B       		.uleb128 0xb
 1862 025e 11       		.uleb128 0x11
 1863 025f 01       		.uleb128 0x1
 1864 0260 12       		.uleb128 0x12
 1865 0261 06       		.uleb128 0x6
 1866 0262 58       		.uleb128 0x58
 1867 0263 0B       		.uleb128 0xb
 1868 0264 59       		.uleb128 0x59
 1869 0265 05       		.uleb128 0x5
 1870 0266 57       		.uleb128 0x57
 1871 0267 0B       		.uleb128 0xb
 1872 0268 00       		.byte	0
 1873 0269 00       		.byte	0
 1874 026a 29       		.uleb128 0x29
 1875 026b 05       		.uleb128 0x5
 1876 026c 00       		.byte	0
 1877 026d 31       		.uleb128 0x31
 1878 026e 13       		.uleb128 0x13
ARM GAS  C:\Users\DEVELO~1\AppData\Local\Temp\ccvAZLUt.s 			page 34


 1879 026f 1C       		.uleb128 0x1c
 1880 0270 0B       		.uleb128 0xb
 1881 0271 00       		.byte	0
 1882 0272 00       		.byte	0
 1883 0273 2A       		.uleb128 0x2a
 1884 0274 2E       		.uleb128 0x2e
 1885 0275 00       		.byte	0
 1886 0276 3F       		.uleb128 0x3f
 1887 0277 19       		.uleb128 0x19
 1888 0278 03       		.uleb128 0x3
 1889 0279 0E       		.uleb128 0xe
 1890 027a 3A       		.uleb128 0x3a
 1891 027b 0B       		.uleb128 0xb
 1892 027c 3B       		.uleb128 0x3b
 1893 027d 0B       		.uleb128 0xb
 1894 027e 39       		.uleb128 0x39
 1895 027f 0B       		.uleb128 0xb
 1896 0280 27       		.uleb128 0x27
 1897 0281 19       		.uleb128 0x19
 1898 0282 11       		.uleb128 0x11
 1899 0283 01       		.uleb128 0x1
 1900 0284 12       		.uleb128 0x12
 1901 0285 06       		.uleb128 0x6
 1902 0286 40       		.uleb128 0x40
 1903 0287 18       		.uleb128 0x18
 1904 0288 7A       		.uleb128 0x7a
 1905 0289 19       		.uleb128 0x19
 1906 028a 00       		.byte	0
 1907 028b 00       		.byte	0
 1908 028c 2B       		.uleb128 0x2b
 1909 028d 05       		.uleb128 0x5
 1910 028e 00       		.byte	0
 1911 028f 03       		.uleb128 0x3
 1912 0290 08       		.uleb128 0x8
 1913 0291 3A       		.uleb128 0x3a
 1914 0292 0B       		.uleb128 0xb
 1915 0293 3B       		.uleb128 0x3b
 1916 0294 05       		.uleb128 0x5
 1917 0295 39       		.uleb128 0x39
 1918 0296 0B       		.uleb128 0xb
 1919 0297 49       		.uleb128 0x49
 1920 0298 13       		.uleb128 0x13
 1921 0299 00       		.byte	0
 1922 029a 00       		.byte	0
 1923 029b 2C       		.uleb128 0x2c
 1924 029c 2E       		.uleb128 0x2e
 1925 029d 01       		.byte	0x1
 1926 029e 03       		.uleb128 0x3
 1927 029f 0E       		.uleb128 0xe
 1928 02a0 3A       		.uleb128 0x3a
 1929 02a1 0B       		.uleb128 0xb
 1930 02a2 3B       		.uleb128 0x3b
 1931 02a3 0B       		.uleb128 0xb
 1932 02a4 39       		.uleb128 0x39
 1933 02a5 0B       		.uleb128 0xb
 1934 02a6 27       		.uleb128 0x27
 1935 02a7 19       		.uleb128 0x19
ARM GAS  C:\Users\DEVELO~1\AppData\Local\Temp\ccvAZLUt.s 			page 35


 1936 02a8 20       		.uleb128 0x20
 1937 02a9 0B       		.uleb128 0xb
 1938 02aa 00       		.byte	0
 1939 02ab 00       		.byte	0
 1940 02ac 2D       		.uleb128 0x2d
 1941 02ad 05       		.uleb128 0x5
 1942 02ae 00       		.byte	0
 1943 02af 03       		.uleb128 0x3
 1944 02b0 0E       		.uleb128 0xe
 1945 02b1 3A       		.uleb128 0x3a
 1946 02b2 0B       		.uleb128 0xb
 1947 02b3 3B       		.uleb128 0x3b
 1948 02b4 0B       		.uleb128 0xb
 1949 02b5 39       		.uleb128 0x39
 1950 02b6 0B       		.uleb128 0xb
 1951 02b7 49       		.uleb128 0x49
 1952 02b8 13       		.uleb128 0x13
 1953 02b9 00       		.byte	0
 1954 02ba 00       		.byte	0
 1955 02bb 00       		.byte	0
 1956              		.section	.debug_loclists,"",%progbits
 1957 0000 40000000 		.4byte	.Ldebug_loc3-.Ldebug_loc2
 1958              	.Ldebug_loc2:
 1959 0004 0500     		.2byte	0x5
 1960 0006 04       		.byte	0x4
 1961 0007 00       		.byte	0
 1962 0008 00000000 		.4byte	0
 1963              	.Ldebug_loc0:
 1964              	.LVUS3:
 1965 000c 01       		.uleb128 .LVU47
 1966 000d 00       		.uleb128 .LVU59
 1967              	.LLST3:
 1968 000e 08       		.byte	0x8
 1969 000f 08000000 		.4byte	.LVL4
 1970 0013 18       		.uleb128 .LVL5-.LVL4
 1971 0014 04       		.uleb128 0x4
 1972 0015 0A       		.byte	0xa
 1973 0016 0010     		.2byte	0x1000
 1974 0018 9F       		.byte	0x9f
 1975 0019 00       		.byte	0
 1976              	.LVUS4:
 1977 001a 03       		.uleb128 .LVU49
 1978 001b 00       		.uleb128 .LVU59
 1979              	.LLST4:
 1980 001c 08       		.byte	0x8
 1981 001d 08000000 		.4byte	.LVL4
 1982 0021 18       		.uleb128 .LVL5-.LVL4
 1983 0022 04       		.uleb128 0x4
 1984 0023 0A       		.byte	0xa
 1985 0024 0010     		.2byte	0x1000
 1986 0026 9F       		.byte	0x9f
 1987 0027 00       		.byte	0
 1988              	.LVUS0:
 1989 0028 01       		.uleb128 .LVU24
 1990 0029 00       		.uleb128 .LVU32
 1991              	.LLST0:
 1992 002a 08       		.byte	0x8
ARM GAS  C:\Users\DEVELO~1\AppData\Local\Temp\ccvAZLUt.s 			page 36


 1993 002b 14000000 		.4byte	.LVL1
 1994 002f 14       		.uleb128 .LVL2-.LVL1
 1995 0030 04       		.uleb128 0x4
 1996 0031 0A       		.byte	0xa
 1997 0032 0010     		.2byte	0x1000
 1998 0034 9F       		.byte	0x9f
 1999 0035 00       		.byte	0
 2000              	.LVUS1:
 2001 0036 03       		.uleb128 .LVU26
 2002 0037 00       		.uleb128 .LVU32
 2003              	.LLST1:
 2004 0038 08       		.byte	0x8
 2005 0039 14000000 		.4byte	.LVL1
 2006 003d 14       		.uleb128 .LVL2-.LVL1
 2007 003e 04       		.uleb128 0x4
 2008 003f 0A       		.byte	0xa
 2009 0040 0010     		.2byte	0x1000
 2010 0042 9F       		.byte	0x9f
 2011 0043 00       		.byte	0
 2012              	.Ldebug_loc3:
 2013              		.section	.debug_aranges,"",%progbits
 2014 0000 34000000 		.4byte	0x34
 2015 0004 0200     		.2byte	0x2
 2016 0006 00000000 		.4byte	.Ldebug_info0
 2017 000a 04       		.byte	0x4
 2018 000b 00       		.byte	0
 2019 000c 0000     		.2byte	0
 2020 000e 0000     		.2byte	0
 2021 0010 00000000 		.4byte	.LFB432
 2022 0014 18000000 		.4byte	.LFE432-.LFB432
 2023 0018 00000000 		.4byte	.LFB433
 2024 001c 50000000 		.4byte	.LFE433-.LFB433
 2025 0020 00000000 		.4byte	.LFB434
 2026 0024 50000000 		.4byte	.LFE434-.LFB434
 2027 0028 00000000 		.4byte	.LFB435
 2028 002c 1C000000 		.4byte	.LFE435-.LFB435
 2029 0030 00000000 		.4byte	0
 2030 0034 00000000 		.4byte	0
 2031              		.section	.debug_rnglists,"",%progbits
 2032              	.Ldebug_ranges0:
 2033 0000 30000000 		.4byte	.Ldebug_ranges3-.Ldebug_ranges2
 2034              	.Ldebug_ranges2:
 2035 0004 0500     		.2byte	0x5
 2036 0006 04       		.byte	0x4
 2037 0007 00       		.byte	0
 2038 0008 00000000 		.4byte	0
 2039              	.LLRL2:
 2040 000c 05       		.byte	0x5
 2041 000d 08000000 		.4byte	.LBB21
 2042 0011 04       		.byte	0x4
 2043 0012 00       		.uleb128 .LBB21-.LBB21
 2044 0013 02       		.uleb128 .LBE21-.LBB21
 2045 0014 04       		.byte	0x4
 2046 0015 04       		.uleb128 .LBB28-.LBB21
 2047 0016 06       		.uleb128 .LBE28-.LBB21
 2048 0017 04       		.byte	0x4
 2049 0018 08       		.uleb128 .LBB29-.LBB21
ARM GAS  C:\Users\DEVELO~1\AppData\Local\Temp\ccvAZLUt.s 			page 37


 2050 0019 18       		.uleb128 .LBE29-.LBB21
 2051 001a 00       		.byte	0
 2052              	.LLRL5:
 2053 001b 07       		.byte	0x7
 2054 001c 00000000 		.4byte	.LFB432
 2055 0020 18       		.uleb128 .LFE432-.LFB432
 2056 0021 07       		.byte	0x7
 2057 0022 00000000 		.4byte	.LFB433
 2058 0026 50       		.uleb128 .LFE433-.LFB433
 2059 0027 07       		.byte	0x7
 2060 0028 00000000 		.4byte	.LFB434
 2061 002c 50       		.uleb128 .LFE434-.LFB434
 2062 002d 07       		.byte	0x7
 2063 002e 00000000 		.4byte	.LFB435
 2064 0032 1C       		.uleb128 .LFE435-.LFB435
 2065 0033 00       		.byte	0
 2066              	.Ldebug_ranges3:
 2067              		.section	.debug_line,"",%progbits
 2068              	.Ldebug_line0:
 2069 0000 D0030000 		.section	.debug_str,"MS",%progbits,1
 2069      03002102 
 2069      00000201 
 2069      FB0E0D00 
 2069      01010101 
 2070              	.LASF25:
 2071 0000 504C4C31 		.ascii	"PLL1FRACR\000"
 2071      46524143 
 2071      5200
 2072              	.LASF107:
 2073 000a 66736D63 		.ascii	"fsmcInit\000"
 2073      496E6974 
 2073      00
 2074              	.LASF69:
 2075 0013 41504231 		.ascii	"APB1LLPENR\000"
 2075      4C4C5045 
 2075      4E5200
 2076              	.LASF62:
 2077 001e 41504234 		.ascii	"APB4ENR\000"
 2077      454E5200 
 2078              	.LASF81:
 2079 0026 53445254 		.ascii	"SDRTR\000"
 2079      5200
 2080              	.LASF70:
 2081 002c 41504231 		.ascii	"APB1HLPENR\000"
 2081      484C5045 
 2081      4E5200
 2082              	.LASF33:
 2083 0037 44324343 		.ascii	"D2CCIP2R\000"
 2083      49503252 
 2083      00
 2084              	.LASF56:
 2085 0040 41484232 		.ascii	"AHB2ENR\000"
 2085      454E5200 
 2086              	.LASF48:
 2087 0048 41504231 		.ascii	"APB1HRSTR\000"
 2087      48525354 
 2087      5200
ARM GAS  C:\Users\DEVELO~1\AppData\Local\Temp\ccvAZLUt.s 			page 38


 2088              	.LASF108:
 2089 0052 5F5F7263 		.ascii	"__rccResetAHB3\000"
 2089      63526573 
 2089      65744148 
 2089      423300
 2090              	.LASF85:
 2091 0061 73746174 		.ascii	"state\000"
 2091      6500
 2092              	.LASF5:
 2093 0067 73686F72 		.ascii	"short int\000"
 2093      7420696E 
 2093      7400
 2094              	.LASF50:
 2095 0071 41504234 		.ascii	"APB4RSTR\000"
 2095      52535452 
 2095      00
 2096              	.LASF76:
 2097 007a 53444352 		.ascii	"SDCR1\000"
 2097      3100
 2098              	.LASF77:
 2099 0080 53444352 		.ascii	"SDCR2\000"
 2099      3200
 2100              	.LASF40:
 2101 0086 42444352 		.ascii	"BDCR\000"
 2101      00
 2102              	.LASF93:
 2103 008b 56656374 		.ascii	"Vector100\000"
 2103      6F723130 
 2103      3000
 2104              	.LASF78:
 2105 0095 53445452 		.ascii	"SDTR1\000"
 2105      3100
 2106              	.LASF79:
 2107 009b 53445452 		.ascii	"SDTR2\000"
 2107      3200
 2108              	.LASF13:
 2109 00a1 48534943 		.ascii	"HSICFGR\000"
 2109      46475200 
 2110              	.LASF34:
 2111 00a9 44334343 		.ascii	"D3CCIPR\000"
 2111      49505200 
 2112              	.LASF10:
 2113 00b1 5F5F7569 		.ascii	"__uint32_t\000"
 2113      6E743332 
 2113      5F7400
 2114              	.LASF24:
 2115 00bc 504C4C31 		.ascii	"PLL1DIVR\000"
 2115      44495652 
 2115      00
 2116              	.LASF38:
 2117 00c5 43494352 		.ascii	"CICR\000"
 2117      00
 2118              	.LASF101:
 2119 00ca 474E5520 		.ascii	"GNU C17 11.3.1 20220712 -mcpu=cortex-m7 -mthumb -mf"
 2119      43313720 
 2119      31312E33 
 2119      2E312032 
ARM GAS  C:\Users\DEVELO~1\AppData\Local\Temp\ccvAZLUt.s 			page 39


 2119      30323230 
 2120 00fd 6C6F6174 		.ascii	"loat-abi=soft -march=armv7e-m -ggdb -O2 -fomit-fram"
 2120      2D616269 
 2120      3D736F66 
 2120      74202D6D 
 2120      61726368 
 2121 0130 652D706F 		.ascii	"e-pointer -falign-functions=16 -ffunction-sections "
 2121      696E7465 
 2121      72202D66 
 2121      616C6967 
 2121      6E2D6675 
 2122 0163 2D666461 		.ascii	"-fdata-sections -fno-common\000"
 2122      74612D73 
 2122      65637469 
 2122      6F6E7320 
 2122      2D666E6F 
 2123              	.LASF64:
 2124 017f 41484233 		.ascii	"AHB3LPENR\000"
 2124      4C50454E 
 2124      5200
 2125              	.LASF16:
 2126 0189 43464752 		.ascii	"CFGR\000"
 2126      00
 2127              	.LASF100:
 2128 018e 72636345 		.ascii	"rccEnableAHB3\000"
 2128      6E61626C 
 2128      65414842 
 2128      3300
 2129              	.LASF19:
 2130 019c 44324346 		.ascii	"D2CFGR\000"
 2130      475200
 2131              	.LASF91:
 2132 01a3 5F5F7472 		.ascii	"__trace_isr_leave\000"
 2132      6163655F 
 2132      6973725F 
 2132      6C656176 
 2132      6500
 2133              	.LASF39:
 2134 01b5 52455345 		.ascii	"RESERVED5\000"
 2134      52564544 
 2134      3500
 2135              	.LASF41:
 2136 01bf 52455345 		.ascii	"RESERVED6\000"
 2136      52564544 
 2136      3600
 2137              	.LASF94:
 2138 01c9 66736D63 		.ascii	"fsmcStop\000"
 2138      53746F70 
 2138      00
 2139              	.LASF20:
 2140 01d2 44334346 		.ascii	"D3CFGR\000"
 2140      475200
 2141              	.LASF65:
 2142 01d9 41484231 		.ascii	"AHB1LPENR\000"
 2142      4C50454E 
 2142      5200
 2143              	.LASF2:
ARM GAS  C:\Users\DEVELO~1\AppData\Local\Temp\ccvAZLUt.s 			page 40


 2144 01e3 6C6F6E67 		.ascii	"long double\000"
 2144      20646F75 
 2144      626C6500 
 2145              	.LASF54:
 2146 01ef 41484233 		.ascii	"AHB3ENR\000"
 2146      454E5200 
 2147              	.LASF22:
 2148 01f7 504C4C43 		.ascii	"PLLCKSELR\000"
 2148      4B53454C 
 2148      5200
 2149              	.LASF47:
 2150 0201 41504231 		.ascii	"APB1LRSTR\000"
 2150      4C525354 
 2150      5200
 2151              	.LASF36:
 2152 020b 43494552 		.ascii	"CIER\000"
 2152      00
 2153              	.LASF102:
 2154 0210 2E2E2F2E 		.ascii	"../../../ChibiOS-Contrib-chibios-21.11.x/os/hal/src"
 2154      2E2F2E2E 
 2154      2F436869 
 2154      62694F53 
 2154      2D436F6E 
 2155 0243 2F68616C 		.ascii	"/hal_fsmc.c\000"
 2155      5F66736D 
 2155      632E6300 
 2156              	.LASF7:
 2157 024f 6C6F6E67 		.ascii	"long int\000"
 2157      20696E74 
 2157      00
 2158              	.LASF26:
 2159 0258 504C4C32 		.ascii	"PLL2DIVR\000"
 2159      44495652 
 2159      00
 2160              	.LASF74:
 2161 0261 5243435F 		.ascii	"RCC_TypeDef\000"
 2161      54797065 
 2161      44656600 
 2162              	.LASF49:
 2163 026d 41504232 		.ascii	"APB2RSTR\000"
 2163      52535452 
 2163      00
 2164              	.LASF73:
 2165 0276 52455345 		.ascii	"RESERVED13\000"
 2165      52564544 
 2165      313300
 2166              	.LASF92:
 2167 0281 5F5F7472 		.ascii	"__trace_isr_enter\000"
 2167      6163655F 
 2167      6973725F 
 2167      656E7465 
 2167      7200
 2168              	.LASF15:
 2169 0293 43534943 		.ascii	"CSICFGR\000"
 2169      46475200 
 2170              	.LASF68:
 2171 029b 41504233 		.ascii	"APB3LPENR\000"
ARM GAS  C:\Users\DEVELO~1\AppData\Local\Temp\ccvAZLUt.s 			page 41


 2171      4C50454E 
 2171      5200
 2172              	.LASF4:
 2173 02a5 756E7369 		.ascii	"unsigned char\000"
 2173      676E6564 
 2173      20636861 
 2173      7200
 2174              	.LASF52:
 2175 02b3 4433414D 		.ascii	"D3AMR\000"
 2175      5200
 2176              	.LASF60:
 2177 02b9 41504231 		.ascii	"APB1HENR\000"
 2177      48454E52 
 2177      00
 2178              	.LASF106:
 2179 02c2 5F5F6675 		.ascii	"__func__\000"
 2179      6E635F5F 
 2179      00
 2180              	.LASF27:
 2181 02cb 504C4C32 		.ascii	"PLL2FRACR\000"
 2181      46524143 
 2181      5200
 2182              	.LASF53:
 2183 02d5 52455345 		.ascii	"RESERVED11\000"
 2183      52564544 
 2183      313100
 2184              	.LASF63:
 2185 02e0 52455345 		.ascii	"RESERVED12\000"
 2185      52564544 
 2185      313200
 2186              	.LASF61:
 2187 02eb 41504232 		.ascii	"APB2ENR\000"
 2187      454E5200 
 2188              	.LASF59:
 2189 02f3 41504231 		.ascii	"APB1LENR\000"
 2189      4C454E52 
 2189      00
 2190              	.LASF14:
 2191 02fc 43525243 		.ascii	"CRRCR\000"
 2191      5200
 2192              	.LASF3:
 2193 0302 7369676E 		.ascii	"signed char\000"
 2193      65642063 
 2193      68617200 
 2194              	.LASF9:
 2195 030e 6C6F6E67 		.ascii	"long long unsigned int\000"
 2195      206C6F6E 
 2195      6720756E 
 2195      7369676E 
 2195      65642069 
 2196              	.LASF45:
 2197 0325 41484234 		.ascii	"AHB4RSTR\000"
 2197      52535452 
 2197      00
 2198              	.LASF11:
 2199 032e 75696E74 		.ascii	"uint32_t\000"
 2199      33325F74 
ARM GAS  C:\Users\DEVELO~1\AppData\Local\Temp\ccvAZLUt.s 			page 42


 2199      00
 2200              	.LASF98:
 2201 0337 72636344 		.ascii	"rccDisableAHB3\000"
 2201      69736162 
 2201      6C654148 
 2201      423300
 2202              	.LASF0:
 2203 0346 756E7369 		.ascii	"unsigned int\000"
 2203      676E6564 
 2203      20696E74 
 2203      00
 2204              	.LASF44:
 2205 0353 41484232 		.ascii	"AHB2RSTR\000"
 2205      52535452 
 2205      00
 2206              	.LASF103:
 2207 035c 433A5C50 		.ascii	"C:\\PROJET\\ChibiOS project\\ChibiOS_21.11.4\\demos"
 2207      524F4A45 
 2207      545C4368 
 2207      6962694F 
 2207      53207072 
 2208 038b 5C53544D 		.ascii	"\\STM32\\RT-STM32H743ZI_REV_XY-NUCLEO144\000"
 2208      33325C52 
 2208      542D5354 
 2208      4D333248 
 2208      3734335A 
 2209              	.LASF8:
 2210 03b2 6C6F6E67 		.ascii	"long unsigned int\000"
 2210      20756E73 
 2210      69676E65 
 2210      6420696E 
 2210      7400
 2211              	.LASF87:
 2212 03c4 46534D43 		.ascii	"FSMC_UNINIT\000"
 2212      5F554E49 
 2212      4E495400 
 2213              	.LASF18:
 2214 03d0 44314346 		.ascii	"D1CFGR\000"
 2214      475200
 2215              	.LASF57:
 2216 03d7 41484234 		.ascii	"AHB4ENR\000"
 2216      454E5200 
 2217              	.LASF23:
 2218 03df 504C4C43 		.ascii	"PLLCFGR\000"
 2218      46475200 
 2219              	.LASF6:
 2220 03e7 73686F72 		.ascii	"short unsigned int\000"
 2220      7420756E 
 2220      7369676E 
 2220      65642069 
 2220      6E7400
 2221              	.LASF89:
 2222 03fa 46534D43 		.ascii	"FSMC_READY\000"
 2222      5F524541 
 2222      445900
 2223              	.LASF84:
 2224 0405 46534D43 		.ascii	"FSMCDriver\000"
ARM GAS  C:\Users\DEVELO~1\AppData\Local\Temp\ccvAZLUt.s 			page 43


 2224      44726976 
 2224      657200
 2225              	.LASF12:
 2226 0410 63686172 		.ascii	"char\000"
 2226      00
 2227              	.LASF31:
 2228 0415 44314343 		.ascii	"D1CCIPR\000"
 2228      49505200 
 2229              	.LASF90:
 2230 041d 66736D63 		.ascii	"fsmcstate_t\000"
 2230      73746174 
 2230      655F7400 
 2231              	.LASF75:
 2232 0429 5F426F6F 		.ascii	"_Bool\000"
 2232      6C00
 2233              	.LASF67:
 2234 042f 41484234 		.ascii	"AHB4LPENR\000"
 2234      4C50454E 
 2234      5200
 2235              	.LASF66:
 2236 0439 41484232 		.ascii	"AHB2LPENR\000"
 2236      4C50454E 
 2236      5200
 2237              	.LASF28:
 2238 0443 504C4C33 		.ascii	"PLL3DIVR\000"
 2238      44495652 
 2238      00
 2239              	.LASF17:
 2240 044c 52455345 		.ascii	"RESERVED1\000"
 2240      52564544 
 2240      3100
 2241              	.LASF21:
 2242 0456 52455345 		.ascii	"RESERVED2\000"
 2242      52564544 
 2242      3200
 2243              	.LASF30:
 2244 0460 52455345 		.ascii	"RESERVED3\000"
 2244      52564544 
 2244      3300
 2245              	.LASF35:
 2246 046a 52455345 		.ascii	"RESERVED4\000"
 2246      52564544 
 2246      3400
 2247              	.LASF46:
 2248 0474 41504233 		.ascii	"APB3RSTR\000"
 2248      52535452 
 2248      00
 2249              	.LASF97:
 2250 047d 72636352 		.ascii	"rccResetAHB3\000"
 2250      65736574 
 2250      41484233 
 2250      00
 2251              	.LASF51:
 2252 048a 52455345 		.ascii	"RESERVED8\000"
 2252      52564544 
 2252      3800
 2253              	.LASF58:
ARM GAS  C:\Users\DEVELO~1\AppData\Local\Temp\ccvAZLUt.s 			page 44


 2254 0494 41504233 		.ascii	"APB3ENR\000"
 2254      454E5200 
 2255              	.LASF37:
 2256 049c 43494652 		.ascii	"CIFR\000"
 2256      00
 2257              	.LASF32:
 2258 04a1 44324343 		.ascii	"D2CCIP1R\000"
 2258      49503152 
 2258      00
 2259              	.LASF82:
 2260 04aa 53445352 		.ascii	"SDSR\000"
 2260      00
 2261              	.LASF55:
 2262 04af 41484231 		.ascii	"AHB1ENR\000"
 2262      454E5200 
 2263              	.LASF1:
 2264 04b7 6C6F6E67 		.ascii	"long long int\000"
 2264      206C6F6E 
 2264      6720696E 
 2264      7400
 2265              	.LASF99:
 2266 04c5 6D61736B 		.ascii	"mask\000"
 2266      00
 2267              	.LASF88:
 2268 04ca 46534D43 		.ascii	"FSMC_STOP\000"
 2268      5F53544F 
 2268      5000
 2269              	.LASF95:
 2270 04d4 66736D63 		.ascii	"fsmcStart\000"
 2270      53746172 
 2270      7400
 2271              	.LASF96:
 2272 04de 66736D63 		.ascii	"fsmcp\000"
 2272      7000
 2273              	.LASF43:
 2274 04e4 41484231 		.ascii	"AHB1RSTR\000"
 2274      52535452 
 2274      00
 2275              	.LASF80:
 2276 04ed 5344434D 		.ascii	"SDCMR\000"
 2276      5200
 2277              	.LASF42:
 2278 04f3 41484233 		.ascii	"AHB3RSTR\000"
 2278      52535452 
 2278      00
 2279              	.LASF83:
 2280 04fc 46534D43 		.ascii	"FSMC_SDRAM_TypeDef\000"
 2280      5F534452 
 2280      414D5F54 
 2280      79706544 
 2280      656600
 2281              	.LASF86:
 2282 050f 73647261 		.ascii	"sdram\000"
 2282      6D00
 2283              	.LASF72:
 2284 0515 41504234 		.ascii	"APB4LPENR\000"
 2284      4C50454E 
ARM GAS  C:\Users\DEVELO~1\AppData\Local\Temp\ccvAZLUt.s 			page 45


 2284      5200
 2285              	.LASF71:
 2286 051f 41504232 		.ascii	"APB2LPENR\000"
 2286      4C50454E 
 2286      5200
 2287              	.LASF29:
 2288 0529 504C4C33 		.ascii	"PLL3FRACR\000"
 2288      46524143 
 2288      5200
 2289              	.LASF105:
 2290 0533 5F5F706F 		.ascii	"__port_irq_epilogue\000"
 2290      72745F69 
 2290      72715F65 
 2290      70696C6F 
 2290      67756500 
 2291              	.LASF104:
 2292 0547 46534D43 		.ascii	"FSMCD1\000"
 2292      443100
 2293              		.ident	"GCC: (Arm GNU Toolchain 11.3.Rel1) 11.3.1 20220712"
ARM GAS  C:\Users\DEVELO~1\AppData\Local\Temp\ccvAZLUt.s 			page 46


DEFINED SYMBOLS
                            *ABS*:00000000 hal_fsmc.c
C:\Users\DEVELO~1\AppData\Local\Temp\ccvAZLUt.s:18     .text.fsmcInit:00000000 $t
C:\Users\DEVELO~1\AppData\Local\Temp\ccvAZLUt.s:25     .text.fsmcInit:00000000 fsmcInit
C:\Users\DEVELO~1\AppData\Local\Temp\ccvAZLUt.s:55     .text.fsmcInit:00000010 $d
C:\Users\DEVELO~1\AppData\Local\Temp\ccvAZLUt.s:61     .text.fsmcStart:00000000 $t
C:\Users\DEVELO~1\AppData\Local\Temp\ccvAZLUt.s:68     .text.fsmcStart:00000000 fsmcStart
C:\Users\DEVELO~1\AppData\Local\Temp\ccvAZLUt.s:152    .text.fsmcStart:00000048 $d
C:\Users\DEVELO~1\AppData\Local\Temp\ccvAZLUt.s:160    .text.fsmcStop:00000000 $t
C:\Users\DEVELO~1\AppData\Local\Temp\ccvAZLUt.s:167    .text.fsmcStop:00000000 fsmcStop
C:\Users\DEVELO~1\AppData\Local\Temp\ccvAZLUt.s:263    .text.fsmcStop:00000048 $d
C:\Users\DEVELO~1\AppData\Local\Temp\ccvAZLUt.s:271    .text.Vector100:00000000 $t
C:\Users\DEVELO~1\AppData\Local\Temp\ccvAZLUt.s:278    .text.Vector100:00000000 Vector100
C:\Users\DEVELO~1\AppData\Local\Temp\ccvAZLUt.s:319    .text.Vector100:00000018 $d
C:\Users\DEVELO~1\AppData\Local\Temp\ccvAZLUt.s:329    .bss.FSMCD1:00000000 FSMCD1
C:\Users\DEVELO~1\AppData\Local\Temp\ccvAZLUt.s:325    .bss.FSMCD1:00000000 $d
C:\Users\DEVELO~1\AppData\Local\Temp\ccvAZLUt.s:332    .rodata.__func__.0:00000000 $d
C:\Users\DEVELO~1\AppData\Local\Temp\ccvAZLUt.s:336    .rodata.__func__.0:00000000 __func__.0

UNDEFINED SYMBOLS
__trace_isr_enter
__trace_isr_leave
__port_irq_epilogue
