ARM GAS  C:\Users\DEVELO~1\AppData\Local\Temp\ccSjQEbd.s 			page 1


   1              		.cpu cortex-m7
   2              		.arch armv7e-m
   3              		.fpu softvfp
   4              		.eabi_attribute 20, 1
   5              		.eabi_attribute 21, 1
   6              		.eabi_attribute 23, 3
   7              		.eabi_attribute 24, 1
   8              		.eabi_attribute 25, 1
   9              		.eabi_attribute 26, 1
  10              		.eabi_attribute 30, 2
  11              		.eabi_attribute 34, 1
  12              		.eabi_attribute 18, 4
  13              		.file	"hal_serial.c"
  14              		.text
  15              	.Ltext0:
  16              		.cfi_sections	.debug_frame
  17              		.section	.text._readt,"ax",%progbits
  18              		.align	1
  19              		.p2align 4,,15
  20              		.syntax unified
  21              		.thumb
  22              		.thumb_func
  23              		.type	_readt, %function
  24              	_readt:
  25              	.LVL0:
  26              	.LFB439:
  27              		.file 1 "../../../os/hal/src/hal_serial.c"
  28              		.loc 1 89 45 view -0
  29              		.cfi_startproc
  30              		@ args = 0, pretend = 0, frame = 0
  31              		@ frame_needed = 0, uses_anonymous_args = 0
  32              		@ link register save eliminated.
  33              		.loc 1 91 3 view .LVU1
  34              		.loc 1 91 10 is_stmt 0 view .LVU2
  35 0000 0C30     		adds	r0, r0, #12
  36              	.LVL1:
  37              		.loc 1 91 10 view .LVU3
  38 0002 FFF7FEBF 		b	iqReadTimeout
  39              	.LVL2:
  40              		.loc 1 91 10 view .LVU4
  41              		.cfi_endproc
  42              	.LFE439:
  43              		.size	_readt, .-_readt
  44 0006 00BF     		.section	.text._read,"ax",%progbits
  45              		.align	1
  46              		.p2align 4,,15
  47              		.syntax unified
  48              		.thumb
  49              		.thumb_func
  50              		.type	_read, %function
  51              	_read:
  52              	.LVL3:
  53              	.LFB433:
  54              		.loc 1 56 54 is_stmt 1 view -0
  55              		.cfi_startproc
  56              		@ args = 0, pretend = 0, frame = 0
  57              		@ frame_needed = 0, uses_anonymous_args = 0
ARM GAS  C:\Users\DEVELO~1\AppData\Local\Temp\ccSjQEbd.s 			page 2


  58              		@ link register save eliminated.
  59              		.loc 1 58 3 view .LVU6
  60              		.loc 1 58 10 is_stmt 0 view .LVU7
  61 0000 4FF0FF33 		mov	r3, #-1
  62 0004 0C30     		adds	r0, r0, #12
  63              	.LVL4:
  64              		.loc 1 58 10 view .LVU8
  65 0006 FFF7FEBF 		b	iqReadTimeout
  66              	.LVL5:
  67              		.loc 1 58 10 view .LVU9
  68              		.cfi_endproc
  69              	.LFE433:
  70              		.size	_read, .-_read
  71 000a 00BF     		.section	.text._writet,"ax",%progbits
  72              		.align	1
  73              		.p2align 4,,15
  74              		.syntax unified
  75              		.thumb
  76              		.thumb_func
  77              		.type	_writet, %function
  78              	_writet:
  79              	.LVL6:
  80              	.LFB438:
  81              		.loc 1 83 46 is_stmt 1 view -0
  82              		.cfi_startproc
  83              		@ args = 0, pretend = 0, frame = 0
  84              		@ frame_needed = 0, uses_anonymous_args = 0
  85              		@ link register save eliminated.
  86              		.loc 1 85 3 view .LVU11
  87              		.loc 1 85 10 is_stmt 0 view .LVU12
  88 0000 3030     		adds	r0, r0, #48
  89              	.LVL7:
  90              		.loc 1 85 10 view .LVU13
  91 0002 FFF7FEBF 		b	oqWriteTimeout
  92              	.LVL8:
  93              		.loc 1 85 10 view .LVU14
  94              		.cfi_endproc
  95              	.LFE438:
  96              		.size	_writet, .-_writet
  97 0006 00BF     		.section	.text._write,"ax",%progbits
  98              		.align	1
  99              		.p2align 4,,15
 100              		.syntax unified
 101              		.thumb
 102              		.thumb_func
 103              		.type	_write, %function
 104              	_write:
 105              	.LVL9:
 106              	.LFB432:
 107              		.loc 1 50 61 is_stmt 1 view -0
 108              		.cfi_startproc
 109              		@ args = 0, pretend = 0, frame = 0
 110              		@ frame_needed = 0, uses_anonymous_args = 0
 111              		@ link register save eliminated.
 112              		.loc 1 52 3 view .LVU16
 113              		.loc 1 52 10 is_stmt 0 view .LVU17
 114 0000 4FF0FF33 		mov	r3, #-1
ARM GAS  C:\Users\DEVELO~1\AppData\Local\Temp\ccSjQEbd.s 			page 3


 115 0004 3030     		adds	r0, r0, #48
 116              	.LVL10:
 117              		.loc 1 52 10 view .LVU18
 118 0006 FFF7FEBF 		b	oqWriteTimeout
 119              	.LVL11:
 120              		.loc 1 52 10 view .LVU19
 121              		.cfi_endproc
 122              	.LFE432:
 123              		.size	_write, .-_write
 124 000a 00BF     		.section	.text._gett,"ax",%progbits
 125              		.align	1
 126              		.p2align 4,,15
 127              		.syntax unified
 128              		.thumb
 129              		.thumb_func
 130              		.type	_gett, %function
 131              	_gett:
 132              	.LVL12:
 133              	.LFB437:
 134              		.loc 1 77 53 is_stmt 1 view -0
 135              		.cfi_startproc
 136              		@ args = 0, pretend = 0, frame = 0
 137              		@ frame_needed = 0, uses_anonymous_args = 0
 138              		@ link register save eliminated.
 139              		.loc 1 79 3 view .LVU21
 140              		.loc 1 79 10 is_stmt 0 view .LVU22
 141 0000 0C30     		adds	r0, r0, #12
 142              	.LVL13:
 143              		.loc 1 79 10 view .LVU23
 144 0002 FFF7FEBF 		b	iqGetTimeout
 145              	.LVL14:
 146              		.loc 1 79 10 view .LVU24
 147              		.cfi_endproc
 148              	.LFE437:
 149              		.size	_gett, .-_gett
 150 0006 00BF     		.section	.text._get,"ax",%progbits
 151              		.align	1
 152              		.p2align 4,,15
 153              		.syntax unified
 154              		.thumb
 155              		.thumb_func
 156              		.type	_get, %function
 157              	_get:
 158              	.LVL15:
 159              	.LFB435:
 160              		.loc 1 67 29 is_stmt 1 view -0
 161              		.cfi_startproc
 162              		@ args = 0, pretend = 0, frame = 0
 163              		@ frame_needed = 0, uses_anonymous_args = 0
 164              		@ link register save eliminated.
 165              		.loc 1 69 3 view .LVU26
 166              		.loc 1 69 10 is_stmt 0 view .LVU27
 167 0000 4FF0FF31 		mov	r1, #-1
 168 0004 0C30     		adds	r0, r0, #12
 169              	.LVL16:
 170              		.loc 1 69 10 view .LVU28
 171 0006 FFF7FEBF 		b	iqGetTimeout
ARM GAS  C:\Users\DEVELO~1\AppData\Local\Temp\ccSjQEbd.s 			page 4


 172              	.LVL17:
 173              		.loc 1 69 10 view .LVU29
 174              		.cfi_endproc
 175              	.LFE435:
 176              		.size	_get, .-_get
 177 000a 00BF     		.section	.text._putt,"ax",%progbits
 178              		.align	1
 179              		.p2align 4,,15
 180              		.syntax unified
 181              		.thumb
 182              		.thumb_func
 183              		.type	_putt, %function
 184              	_putt:
 185              	.LVL18:
 186              	.LFB436:
 187              		.loc 1 72 64 is_stmt 1 view -0
 188              		.cfi_startproc
 189              		@ args = 0, pretend = 0, frame = 0
 190              		@ frame_needed = 0, uses_anonymous_args = 0
 191              		@ link register save eliminated.
 192              		.loc 1 74 3 view .LVU31
 193              		.loc 1 74 10 is_stmt 0 view .LVU32
 194 0000 3030     		adds	r0, r0, #48
 195              	.LVL19:
 196              		.loc 1 74 10 view .LVU33
 197 0002 FFF7FEBF 		b	oqPutTimeout
 198              	.LVL20:
 199              		.loc 1 74 10 view .LVU34
 200              		.cfi_endproc
 201              	.LFE436:
 202              		.size	_putt, .-_putt
 203 0006 00BF     		.section	.text._put,"ax",%progbits
 204              		.align	1
 205              		.p2align 4,,15
 206              		.syntax unified
 207              		.thumb
 208              		.thumb_func
 209              		.type	_put, %function
 210              	_put:
 211              	.LVL21:
 212              	.LFB434:
 213              		.loc 1 62 40 is_stmt 1 view -0
 214              		.cfi_startproc
 215              		@ args = 0, pretend = 0, frame = 0
 216              		@ frame_needed = 0, uses_anonymous_args = 0
 217              		@ link register save eliminated.
 218              		.loc 1 64 3 view .LVU36
 219              		.loc 1 64 10 is_stmt 0 view .LVU37
 220 0000 4FF0FF32 		mov	r2, #-1
 221 0004 3030     		adds	r0, r0, #48
 222              	.LVL22:
 223              		.loc 1 64 10 view .LVU38
 224 0006 FFF7FEBF 		b	oqPutTimeout
 225              	.LVL23:
 226              		.loc 1 64 10 view .LVU39
 227              		.cfi_endproc
 228              	.LFE434:
ARM GAS  C:\Users\DEVELO~1\AppData\Local\Temp\ccSjQEbd.s 			page 5


 229              		.size	_put, .-_put
 230 000a 00BF     		.section	.text._ctl,"ax",%progbits
 231              		.align	1
 232              		.p2align 4,,15
 233              		.syntax unified
 234              		.thumb
 235              		.thumb_func
 236              		.type	_ctl, %function
 237              	_ctl:
 238              	.LFB451:
 239              		.cfi_startproc
 240              		@ args = 0, pretend = 0, frame = 0
 241              		@ frame_needed = 0, uses_anonymous_args = 0
 242              		@ link register save eliminated.
 243 0000 0129     		cmp	r1, #1
 244 0002 14BF     		ite	ne
 245 0004 6FF01300 		mvnne	r0, #19
 246 0008 0020     		moveq	r0, #0
 247 000a 7047     		bx	lr
 248              		.cfi_endproc
 249              	.LFE451:
 250              		.size	_ctl, .-_ctl
 251              		.section	.text.sdInit,"ax",%progbits
 252              		.align	1
 253              		.p2align 4,,15
 254              		.global	sdInit
 255              		.syntax unified
 256              		.thumb
 257              		.thumb_func
 258              		.type	sdInit, %function
 259              	sdInit:
 260              	.LFB441:
 261              		.loc 1 134 19 is_stmt 1 view -0
 262              		.cfi_startproc
 263              		@ args = 0, pretend = 0, frame = 0
 264              		@ frame_needed = 0, uses_anonymous_args = 0
 265              		@ link register save eliminated.
 266              		.loc 1 136 3 view .LVU41
 267 0000 FFF7FEBF 		b	sd_lld_init
 268              	.LVL24:
 269              		.cfi_endproc
 270              	.LFE441:
 271              		.size	sdInit, .-sdInit
 272              		.section	.text.sdObjectInit,"ax",%progbits
 273              		.align	1
 274              		.p2align 4,,15
 275              		.global	sdObjectInit
 276              		.syntax unified
 277              		.thumb
 278              		.thumb_func
 279              		.type	sdObjectInit, %function
 280              	sdObjectInit:
 281              	.LVL25:
 282              	.LFB442:
 283              		.loc 1 166 38 view -0
 284              		.cfi_startproc
 285              		@ args = 0, pretend = 0, frame = 0
ARM GAS  C:\Users\DEVELO~1\AppData\Local\Temp\ccSjQEbd.s 			page 6


 286              		@ frame_needed = 0, uses_anonymous_args = 0
 287              		@ link register save eliminated.
 288              		.loc 1 168 3 view .LVU43
 289              		.loc 1 168 12 is_stmt 0 view .LVU44
 290 0000 0346     		mov	r3, r0
 291 0002 0349     		ldr	r1, .L15
 292              		.loc 1 170 14 view .LVU45
 293 0004 0122     		movs	r2, #1
 294              		.loc 1 168 12 view .LVU46
 295 0006 43F8041B 		str	r1, [r3], #4
 296              		.loc 1 169 3 is_stmt 1 view .LVU47
 297              	.LVL26:
 298              	.LBB92:
 299              	.LBI92:
 300              		.file 2 "../../../os/hal/osal/rt-nil/osal.h"
 301              		.loc 2 932 20 view .LVU48
 302              		.loc 2 934 3 view .LVU49
 303              	.LBB93:
 304              	.LBI93:
 305              		.file 3 "../../../os/rt/include/chevents.h"
 306              		.loc 3 175 20 view .LVU50
 307              	.LBB94:
 308              		.loc 3 177 3 view .LVU51
 309              	.LBE94:
 310              	.LBE93:
 311              	.LBE92:
 312              		.loc 1 170 14 is_stmt 0 view .LVU52
 313 000a 0272     		strb	r2, [r0, #8]
 314              	.LBB97:
 315              	.LBB96:
 316              	.LBB95:
 317              		.loc 3 177 13 view .LVU53
 318 000c 4360     		str	r3, [r0, #4]
 319              	.LVL27:
 320              		.loc 3 177 13 view .LVU54
 321              	.LBE95:
 322              	.LBE96:
 323              	.LBE97:
 324              		.loc 1 170 3 is_stmt 1 view .LVU55
 325              		.loc 1 171 1 is_stmt 0 view .LVU56
 326 000e 7047     		bx	lr
 327              	.L16:
 328              		.align	2
 329              	.L15:
 330 0010 00000000 		.word	.LANCHOR0
 331              		.cfi_endproc
 332              	.LFE442:
 333              		.size	sdObjectInit, .-sdObjectInit
 334              		.section	.text.sdStart,"ax",%progbits
 335              		.align	1
 336              		.p2align 4,,15
 337              		.global	sdStart
 338              		.syntax unified
 339              		.thumb
 340              		.thumb_func
 341              		.type	sdStart, %function
 342              	sdStart:
ARM GAS  C:\Users\DEVELO~1\AppData\Local\Temp\ccSjQEbd.s 			page 7


 343              	.LVL28:
 344              	.LFB443:
 345              		.loc 1 185 62 is_stmt 1 view -0
 346              		.cfi_startproc
 347              		@ args = 0, pretend = 0, frame = 0
 348              		@ frame_needed = 0, uses_anonymous_args = 0
 349              		.loc 1 186 3 view .LVU58
 350              		.loc 1 188 3 view .LVU59
 351              		.loc 1 188 3 view .LVU60
 352              		.loc 1 188 3 view .LVU61
 353              		.loc 1 190 3 view .LVU62
 354              	.LBB98:
 355              	.LBI98:
 356              		.loc 2 573 20 view .LVU63
 357              		.loc 2 575 3 view .LVU64
 358              	.LBB99:
 359              	.LBI99:
 360              		.file 4 "../../../os/rt/include/chsys.h"
 361              		.loc 4 407 20 view .LVU65
 362              		.loc 4 409 3 view .LVU66
 363              	.LBB100:
 364              	.LBI100:
 365              		.file 5 "../../../os/common/ports/ARMv7-M/chcore.h"
 366              		.loc 5 823 27 view .LVU67
 367              		.loc 5 831 3 view .LVU68
 368              	.LBB101:
 369              	.LBI101:
 370              		.file 6 "../../../os/common/ext/ARM/CMSIS/Core/Include/cmsis_gcc.h"
 371              		.loc 6 491 27 view .LVU69
 372              	.LBB102:
 373              		.loc 6 493 3 view .LVU70
 374              	.LBE102:
 375              	.LBE101:
 376              	.LBE100:
 377              	.LBE99:
 378              	.LBE98:
 379              		.loc 1 185 62 is_stmt 0 view .LVU71
 380 0000 10B5     		push	{r4, lr}
 381              		.cfi_def_cfa_offset 8
 382              		.cfi_offset 4, -8
 383              		.cfi_offset 14, -4
 384              	.LBB111:
 385              	.LBB109:
 386              	.LBB107:
 387              	.LBB105:
 388              	.LBB103:
 389              		.loc 6 493 3 view .LVU72
 390 0002 3023     		movs	r3, #48
 391              	.LBE103:
 392              	.LBE105:
 393              	.LBE107:
 394              	.LBE109:
 395              	.LBE111:
 396              		.loc 1 185 62 view .LVU73
 397 0004 0446     		mov	r4, r0
 398              	.LBB112:
 399              	.LBB110:
ARM GAS  C:\Users\DEVELO~1\AppData\Local\Temp\ccSjQEbd.s 			page 8


 400              	.LBB108:
 401              	.LBB106:
 402              	.LBB104:
 403              		.loc 6 493 3 view .LVU74
 404              		.syntax unified
 405              	@ 493 "../../../os/common/ext/ARM/CMSIS/Core/Include/cmsis_gcc.h" 1
 406 0006 83F31188 		MSR basepri, r3
 407              	@ 0 "" 2
 408              	.LVL29:
 409              		.loc 6 493 3 view .LVU75
 410              		.thumb
 411              		.syntax unified
 412              	.LBE104:
 413              	.LBE106:
 414              	.LBE108:
 415              		.loc 4 410 35 is_stmt 1 view .LVU76
 416              		.loc 4 411 21 view .LVU77
 417              	.LBE110:
 418              	.LBE112:
 419              		.loc 1 191 3 view .LVU78
 420              		.loc 1 191 3 view .LVU79
 421              		.loc 1 191 3 view .LVU80
 422              		.loc 1 203 3 view .LVU81
 423 000a FFF7FEFF 		bl	sd_lld_start
 424              	.LVL30:
 425              		.loc 1 204 3 view .LVU82
 426              		.loc 1 204 14 is_stmt 0 view .LVU83
 427 000e 0223     		movs	r3, #2
 428              	.LBB113:
 429              	.LBB114:
 430              	.LBB115:
 431              	.LBB116:
 432              	.LBB117:
 433              	.LBB118:
 434              		.loc 6 493 3 view .LVU84
 435 0010 0020     		movs	r0, #0
 436              	.LBE118:
 437              	.LBE117:
 438              	.LBE116:
 439              	.LBE115:
 440              	.LBE114:
 441              	.LBE113:
 442              		.loc 1 204 14 view .LVU85
 443 0012 2372     		strb	r3, [r4, #8]
 444              		.loc 1 205 3 is_stmt 1 view .LVU86
 445              	.LVL31:
 446              		.loc 1 208 3 view .LVU87
 447              	.LBB124:
 448              	.LBI113:
 449              		.loc 2 584 20 view .LVU88
 450              		.loc 2 586 3 view .LVU89
 451              	.LBB123:
 452              	.LBI114:
 453              		.loc 4 421 20 view .LVU90
 454              	.LBB122:
 455              		.loc 4 423 23 view .LVU91
 456              		.loc 4 424 34 view .LVU92
ARM GAS  C:\Users\DEVELO~1\AppData\Local\Temp\ccSjQEbd.s 			page 9


 457              		.loc 4 430 3 view .LVU93
 458              		.loc 4 430 3 view .LVU94
 459              		.loc 4 430 3 view .LVU95
 460              		.loc 4 434 3 view .LVU96
 461              	.LBB121:
 462              	.LBI116:
 463              		.loc 5 847 27 view .LVU97
 464              		.loc 5 850 3 view .LVU98
 465              	.LBB120:
 466              	.LBI117:
 467              		.loc 6 491 27 view .LVU99
 468              	.LBB119:
 469              		.loc 6 493 3 view .LVU100
 470              		.syntax unified
 471              	@ 493 "../../../os/common/ext/ARM/CMSIS/Core/Include/cmsis_gcc.h" 1
 472 0014 80F31188 		MSR basepri, r0
 473              	@ 0 "" 2
 474              	.LVL32:
 475              		.loc 6 493 3 is_stmt 0 view .LVU101
 476              		.thumb
 477              		.syntax unified
 478              	.LBE119:
 479              	.LBE120:
 480              	.LBE121:
 481              	.LBE122:
 482              	.LBE123:
 483              	.LBE124:
 484              		.loc 1 210 3 is_stmt 1 view .LVU102
 485              		.loc 1 211 1 is_stmt 0 view .LVU103
 486 0018 10BD     		pop	{r4, pc}
 487              		.loc 1 211 1 view .LVU104
 488              		.cfi_endproc
 489              	.LFE443:
 490              		.size	sdStart, .-sdStart
 491 001a 00BF     		.section	.text.sdStop,"ax",%progbits
 492              		.align	1
 493              		.p2align 4,,15
 494              		.global	sdStop
 495              		.syntax unified
 496              		.thumb
 497              		.thumb_func
 498              		.type	sdStop, %function
 499              	sdStop:
 500              	.LVL33:
 501              	.LFB444:
 502              		.loc 1 222 32 is_stmt 1 view -0
 503              		.cfi_startproc
 504              		@ args = 0, pretend = 0, frame = 0
 505              		@ frame_needed = 0, uses_anonymous_args = 0
 506              		.loc 1 224 3 view .LVU106
 507              		.loc 1 224 3 view .LVU107
 508              		.loc 1 224 3 view .LVU108
 509              		.loc 1 226 3 view .LVU109
 510              	.LBB125:
 511              	.LBI125:
 512              		.loc 2 573 20 view .LVU110
 513              		.loc 2 575 3 view .LVU111
ARM GAS  C:\Users\DEVELO~1\AppData\Local\Temp\ccSjQEbd.s 			page 10


 514              	.LBB126:
 515              	.LBI126:
 516              		.loc 4 407 20 view .LVU112
 517              		.loc 4 409 3 view .LVU113
 518              	.LBB127:
 519              	.LBI127:
 520              		.loc 5 823 27 view .LVU114
 521              		.loc 5 831 3 view .LVU115
 522              	.LBB128:
 523              	.LBI128:
 524              		.loc 6 491 27 view .LVU116
 525              	.LBB129:
 526              		.loc 6 493 3 view .LVU117
 527              	.LBE129:
 528              	.LBE128:
 529              	.LBE127:
 530              	.LBE126:
 531              	.LBE125:
 532              		.loc 1 222 32 is_stmt 0 view .LVU118
 533 0000 10B5     		push	{r4, lr}
 534              		.cfi_def_cfa_offset 8
 535              		.cfi_offset 4, -8
 536              		.cfi_offset 14, -4
 537              	.LBB138:
 538              	.LBB136:
 539              	.LBB134:
 540              	.LBB132:
 541              	.LBB130:
 542              		.loc 6 493 3 view .LVU119
 543 0002 3023     		movs	r3, #48
 544              	.LBE130:
 545              	.LBE132:
 546              	.LBE134:
 547              	.LBE136:
 548              	.LBE138:
 549              		.loc 1 222 32 view .LVU120
 550 0004 0446     		mov	r4, r0
 551              	.LBB139:
 552              	.LBB137:
 553              	.LBB135:
 554              	.LBB133:
 555              	.LBB131:
 556              		.loc 6 493 3 view .LVU121
 557              		.syntax unified
 558              	@ 493 "../../../os/common/ext/ARM/CMSIS/Core/Include/cmsis_gcc.h" 1
 559 0006 83F31188 		MSR basepri, r3
 560              	@ 0 "" 2
 561              	.LVL34:
 562              		.loc 6 493 3 view .LVU122
 563              		.thumb
 564              		.syntax unified
 565              	.LBE131:
 566              	.LBE133:
 567              	.LBE135:
 568              		.loc 4 410 35 is_stmt 1 view .LVU123
 569              		.loc 4 411 21 view .LVU124
 570              	.LBE137:
ARM GAS  C:\Users\DEVELO~1\AppData\Local\Temp\ccSjQEbd.s 			page 11


 571              	.LBE139:
 572              		.loc 1 228 3 view .LVU125
 573              		.loc 1 228 3 view .LVU126
 574              		.loc 1 228 3 view .LVU127
 575              		.loc 1 231 3 view .LVU128
 576 000a FFF7FEFF 		bl	sd_lld_stop
 577              	.LVL35:
 578              		.loc 1 232 3 view .LVU129
 579              		.loc 1 232 14 is_stmt 0 view .LVU130
 580 000e 0123     		movs	r3, #1
 581              		.loc 1 233 3 view .LVU131
 582 0010 04F13000 		add	r0, r4, #48
 583              		.loc 1 232 14 view .LVU132
 584 0014 2372     		strb	r3, [r4, #8]
 585              		.loc 1 233 3 is_stmt 1 view .LVU133
 586 0016 FFF7FEFF 		bl	oqResetI
 587              	.LVL36:
 588              		.loc 1 234 3 view .LVU134
 589 001a 04F10C00 		add	r0, r4, #12
 590 001e FFF7FEFF 		bl	iqResetI
 591              	.LVL37:
 592              		.loc 1 235 3 view .LVU135
 593              	.LBB140:
 594              	.LBI140:
 595              		.loc 2 680 20 view .LVU136
 596              	.LBB141:
 597              		.loc 2 682 3 view .LVU137
 598 0022 FFF7FEFF 		bl	chSchRescheduleS
 599              	.LVL38:
 600              	.LBE141:
 601              	.LBE140:
 602              		.loc 1 237 3 view .LVU138
 603              	.LBB142:
 604              	.LBI142:
 605              		.loc 2 584 20 view .LVU139
 606              		.loc 2 586 3 view .LVU140
 607              	.LBB143:
 608              	.LBI143:
 609              		.loc 4 421 20 view .LVU141
 610              	.LBB144:
 611              		.loc 4 423 23 view .LVU142
 612              		.loc 4 424 34 view .LVU143
 613              		.loc 4 430 3 view .LVU144
 614              		.loc 4 430 3 view .LVU145
 615              		.loc 4 430 3 view .LVU146
 616              		.loc 4 434 3 view .LVU147
 617              	.LBB145:
 618              	.LBI145:
 619              		.loc 5 847 27 view .LVU148
 620              		.loc 5 850 3 view .LVU149
 621              	.LBB146:
 622              	.LBI146:
 623              		.loc 6 491 27 view .LVU150
 624              	.LBB147:
 625              		.loc 6 493 3 view .LVU151
 626 0026 0023     		movs	r3, #0
 627              		.syntax unified
ARM GAS  C:\Users\DEVELO~1\AppData\Local\Temp\ccSjQEbd.s 			page 12


 628              	@ 493 "../../../os/common/ext/ARM/CMSIS/Core/Include/cmsis_gcc.h" 1
 629 0028 83F31188 		MSR basepri, r3
 630              	@ 0 "" 2
 631              	.LVL39:
 632              		.loc 6 493 3 is_stmt 0 view .LVU152
 633              		.thumb
 634              		.syntax unified
 635              	.LBE147:
 636              	.LBE146:
 637              	.LBE145:
 638              	.LBE144:
 639              	.LBE143:
 640              	.LBE142:
 641              		.loc 1 238 1 view .LVU153
 642 002c 10BD     		pop	{r4, pc}
 643              		.loc 1 238 1 view .LVU154
 644              		.cfi_endproc
 645              	.LFE444:
 646              		.size	sdStop, .-sdStop
 647 002e 00BF     		.section	.text.sdIncomingDataI,"ax",%progbits
 648              		.align	1
 649              		.p2align 4,,15
 650              		.global	sdIncomingDataI
 651              		.syntax unified
 652              		.thumb
 653              		.thumb_func
 654              		.type	sdIncomingDataI, %function
 655              	sdIncomingDataI:
 656              	.LVL40:
 657              	.LFB445:
 658              		.loc 1 256 52 is_stmt 1 view -0
 659              		.cfi_startproc
 660              		@ args = 0, pretend = 0, frame = 0
 661              		@ frame_needed = 0, uses_anonymous_args = 0
 662              		.loc 1 258 23 view .LVU156
 663              		.loc 1 259 3 view .LVU157
 664              		.loc 1 259 3 view .LVU158
 665              		.loc 1 259 3 view .LVU159
 666              		.loc 1 261 3 view .LVU160
 667              		.loc 1 256 52 is_stmt 0 view .LVU161
 668 0000 38B5     		push	{r3, r4, r5, lr}
 669              		.cfi_def_cfa_offset 16
 670              		.cfi_offset 3, -16
 671              		.cfi_offset 4, -12
 672              		.cfi_offset 5, -8
 673              		.cfi_offset 14, -4
 674              		.loc 1 261 7 view .LVU162
 675 0002 4369     		ldr	r3, [r0, #20]
 676              		.loc 1 256 52 view .LVU163
 677 0004 0446     		mov	r4, r0
 678 0006 0D46     		mov	r5, r1
 679              		.loc 1 261 6 view .LVU164
 680 0008 3BB1     		cbz	r3, .L25
 681              		.loc 1 262 43 is_stmt 1 discriminator 1 view .LVU165
 682              		.loc 1 263 3 discriminator 1 view .LVU166
 683              		.loc 1 263 7 is_stmt 0 discriminator 1 view .LVU167
 684 000a 2946     		mov	r1, r5
ARM GAS  C:\Users\DEVELO~1\AppData\Local\Temp\ccSjQEbd.s 			page 13


 685              	.LVL41:
 686              		.loc 1 263 7 discriminator 1 view .LVU168
 687 000c 04F10C00 		add	r0, r4, #12
 688              	.LVL42:
 689              		.loc 1 263 7 discriminator 1 view .LVU169
 690 0010 FFF7FEFF 		bl	iqPutI
 691              	.LVL43:
 692              		.loc 1 263 6 discriminator 1 view .LVU170
 693 0014 0028     		cmp	r0, #0
 694 0016 0BDB     		blt	.L26
 695              	.L21:
 696              		.loc 1 265 1 view .LVU171
 697 0018 38BD     		pop	{r3, r4, r5, pc}
 698              	.LVL44:
 699              	.L25:
 700              		.loc 1 262 5 is_stmt 1 view .LVU172
 701              	.LBB148:
 702              	.LBI148:
 703              		.loc 2 956 20 view .LVU173
 704              	.LBB149:
 705              		.loc 2 959 3 view .LVU174
 706 001a 0421     		movs	r1, #4
 707              	.LVL45:
 708              		.loc 2 959 3 is_stmt 0 view .LVU175
 709 001c 0844     		add	r0, r0, r1
 710              	.LVL46:
 711              		.loc 2 959 3 view .LVU176
 712 001e FFF7FEFF 		bl	chEvtBroadcastFlagsI
 713              	.LVL47:
 714              		.loc 2 959 3 view .LVU177
 715              	.LBE149:
 716              	.LBE148:
 717              		.loc 1 262 43 is_stmt 1 view .LVU178
 718              		.loc 1 263 3 view .LVU179
 719              		.loc 1 263 7 is_stmt 0 view .LVU180
 720 0022 2946     		mov	r1, r5
 721 0024 04F10C00 		add	r0, r4, #12
 722 0028 FFF7FEFF 		bl	iqPutI
 723              	.LVL48:
 724              		.loc 1 263 6 view .LVU181
 725 002c 0028     		cmp	r0, #0
 726 002e F3DA     		bge	.L21
 727              	.L26:
 728              		.loc 1 264 5 is_stmt 1 view .LVU182
 729              	.LVL49:
 730              	.LBB150:
 731              	.LBI150:
 732              		.loc 2 956 20 view .LVU183
 733              	.LBB151:
 734              		.loc 2 959 3 view .LVU184
 735 0030 201D     		adds	r0, r4, #4
 736              	.LVL50:
 737              		.loc 2 959 3 is_stmt 0 view .LVU185
 738 0032 4FF40061 		mov	r1, #2048
 739              	.LBE151:
 740              	.LBE150:
 741              		.loc 1 265 1 view .LVU186
ARM GAS  C:\Users\DEVELO~1\AppData\Local\Temp\ccSjQEbd.s 			page 14


 742 0036 BDE83840 		pop	{r3, r4, r5, lr}
 743              		.cfi_restore 14
 744              		.cfi_restore 5
 745              		.cfi_restore 4
 746              		.cfi_restore 3
 747              		.cfi_def_cfa_offset 0
 748              	.LVL51:
 749              	.LBB153:
 750              	.LBB152:
 751              		.loc 2 959 3 view .LVU187
 752 003a FFF7FEBF 		b	chEvtBroadcastFlagsI
 753              	.LVL52:
 754              		.loc 2 959 3 view .LVU188
 755              	.LBE152:
 756              	.LBE153:
 757              		.cfi_endproc
 758              	.LFE445:
 759              		.size	sdIncomingDataI, .-sdIncomingDataI
 760 003e 00BF     		.section	.text.sdRequestDataI,"ax",%progbits
 761              		.align	1
 762              		.p2align 4,,15
 763              		.global	sdRequestDataI
 764              		.syntax unified
 765              		.thumb
 766              		.thumb_func
 767              		.type	sdRequestDataI, %function
 768              	sdRequestDataI:
 769              	.LVL53:
 770              	.LFB446:
 771              		.loc 1 282 41 is_stmt 1 view -0
 772              		.cfi_startproc
 773              		@ args = 0, pretend = 0, frame = 0
 774              		@ frame_needed = 0, uses_anonymous_args = 0
 775              		.loc 1 283 3 view .LVU190
 776              		.loc 1 285 23 view .LVU191
 777              		.loc 1 286 3 view .LVU192
 778              		.loc 1 286 3 view .LVU193
 779              		.loc 1 286 3 view .LVU194
 780              		.loc 1 288 3 view .LVU195
 781              		.loc 1 282 41 is_stmt 0 view .LVU196
 782 0000 38B5     		push	{r3, r4, r5, lr}
 783              		.cfi_def_cfa_offset 16
 784              		.cfi_offset 3, -16
 785              		.cfi_offset 4, -12
 786              		.cfi_offset 5, -8
 787              		.cfi_offset 14, -4
 788              		.loc 1 282 41 view .LVU197
 789 0002 0546     		mov	r5, r0
 790              		.loc 1 288 7 view .LVU198
 791 0004 3030     		adds	r0, r0, #48
 792              	.LVL54:
 793              		.loc 1 288 7 view .LVU199
 794 0006 FFF7FEFF 		bl	oqGetI
 795              	.LVL55:
 796              		.loc 1 289 3 is_stmt 1 view .LVU200
 797              		.loc 1 289 6 is_stmt 0 view .LVU201
 798 000a 041E     		subs	r4, r0, #0
ARM GAS  C:\Users\DEVELO~1\AppData\Local\Temp\ccSjQEbd.s 			page 15


 799 000c 01DB     		blt	.L30
 800              		.loc 1 292 1 view .LVU202
 801 000e 2046     		mov	r0, r4
 802              		.loc 1 292 1 view .LVU203
 803 0010 38BD     		pop	{r3, r4, r5, pc}
 804              	.LVL56:
 805              	.L30:
 806              		.loc 1 290 5 is_stmt 1 view .LVU204
 807              	.LBB154:
 808              	.LBI154:
 809              		.loc 2 956 20 view .LVU205
 810              	.LBB155:
 811              		.loc 2 959 3 view .LVU206
 812 0012 281D     		adds	r0, r5, #4
 813              	.LVL57:
 814              		.loc 2 959 3 is_stmt 0 view .LVU207
 815 0014 0821     		movs	r1, #8
 816 0016 FFF7FEFF 		bl	chEvtBroadcastFlagsI
 817              	.LVL58:
 818              		.loc 2 959 3 view .LVU208
 819              	.LBE155:
 820              	.LBE154:
 821              		.loc 1 290 40 is_stmt 1 view .LVU209
 822              		.loc 1 291 3 view .LVU210
 823              		.loc 1 292 1 is_stmt 0 view .LVU211
 824 001a 2046     		mov	r0, r4
 825 001c 38BD     		pop	{r3, r4, r5, pc}
 826              		.loc 1 292 1 view .LVU212
 827              		.cfi_endproc
 828              	.LFE446:
 829              		.size	sdRequestDataI, .-sdRequestDataI
 830 001e 00BF     		.section	.text.sdPutWouldBlock,"ax",%progbits
 831              		.align	1
 832              		.p2align 4,,15
 833              		.global	sdPutWouldBlock
 834              		.syntax unified
 835              		.thumb
 836              		.thumb_func
 837              		.type	sdPutWouldBlock, %function
 838              	sdPutWouldBlock:
 839              	.LVL59:
 840              	.LFB447:
 841              		.loc 1 309 41 is_stmt 1 view -0
 842              		.cfi_startproc
 843              		@ args = 0, pretend = 0, frame = 0
 844              		@ frame_needed = 0, uses_anonymous_args = 0
 845              		@ link register save eliminated.
 846              		.loc 1 310 3 view .LVU214
 847              		.loc 1 312 3 view .LVU215
 848              	.LBB156:
 849              	.LBI156:
 850              		.loc 2 573 20 view .LVU216
 851              		.loc 2 575 3 view .LVU217
 852              	.LBB157:
 853              	.LBI157:
 854              		.loc 4 407 20 view .LVU218
 855              		.loc 4 409 3 view .LVU219
ARM GAS  C:\Users\DEVELO~1\AppData\Local\Temp\ccSjQEbd.s 			page 16


 856              	.LBB158:
 857              	.LBI158:
 858              		.loc 5 823 27 view .LVU220
 859              		.loc 5 831 3 view .LVU221
 860              	.LBB159:
 861              	.LBI159:
 862              		.loc 6 491 27 view .LVU222
 863              	.LBB160:
 864              		.loc 6 493 3 view .LVU223
 865 0000 3023     		movs	r3, #48
 866              		.syntax unified
 867              	@ 493 "../../../os/common/ext/ARM/CMSIS/Core/Include/cmsis_gcc.h" 1
 868 0002 83F31188 		MSR basepri, r3
 869              	@ 0 "" 2
 870              	.LVL60:
 871              		.loc 6 493 3 is_stmt 0 view .LVU224
 872              		.thumb
 873              		.syntax unified
 874              	.LBE160:
 875              	.LBE159:
 876              	.LBE158:
 877              		.loc 4 410 35 is_stmt 1 view .LVU225
 878              		.loc 4 411 21 view .LVU226
 879              	.LBE157:
 880              	.LBE156:
 881              		.loc 1 313 3 view .LVU227
 882              	.LBB161:
 883              	.LBB162:
 884              	.LBB163:
 885              	.LBB164:
 886              	.LBB165:
 887              	.LBB166:
 888              		.loc 6 493 3 is_stmt 0 view .LVU228
 889 0006 0023     		movs	r3, #0
 890              	.LBE166:
 891              	.LBE165:
 892              	.LBE164:
 893              	.LBE163:
 894              	.LBE162:
 895              	.LBE161:
 896              		.loc 1 313 7 view .LVU229
 897 0008 806B     		ldr	r0, [r0, #56]
 898              	.LVL61:
 899              		.loc 1 314 3 is_stmt 1 view .LVU230
 900              	.LBB172:
 901              	.LBI161:
 902              		.loc 2 584 20 view .LVU231
 903              		.loc 2 586 3 view .LVU232
 904              	.LBB171:
 905              	.LBI162:
 906              		.loc 4 421 20 view .LVU233
 907              	.LBB170:
 908              		.loc 4 423 23 view .LVU234
 909              		.loc 4 424 34 view .LVU235
 910              		.loc 4 430 3 view .LVU236
 911              		.loc 4 430 3 view .LVU237
 912              		.loc 4 430 3 view .LVU238
ARM GAS  C:\Users\DEVELO~1\AppData\Local\Temp\ccSjQEbd.s 			page 17


 913              		.loc 4 434 3 view .LVU239
 914              	.LBB169:
 915              	.LBI164:
 916              		.loc 5 847 27 view .LVU240
 917              		.loc 5 850 3 view .LVU241
 918              	.LBB168:
 919              	.LBI165:
 920              		.loc 6 491 27 view .LVU242
 921              	.LBB167:
 922              		.loc 6 493 3 view .LVU243
 923              		.syntax unified
 924              	@ 493 "../../../os/common/ext/ARM/CMSIS/Core/Include/cmsis_gcc.h" 1
 925 000a 83F31188 		MSR basepri, r3
 926              	@ 0 "" 2
 927              	.LVL62:
 928              		.loc 6 493 3 is_stmt 0 view .LVU244
 929              		.thumb
 930              		.syntax unified
 931              	.LBE167:
 932              	.LBE168:
 933              	.LBE169:
 934              	.LBE170:
 935              	.LBE171:
 936              	.LBE172:
 937              		.loc 1 316 3 is_stmt 1 view .LVU245
 938              		.loc 1 317 1 is_stmt 0 view .LVU246
 939 000e B0FA80F0 		clz	r0, r0
 940              	.LVL63:
 941              		.loc 1 317 1 view .LVU247
 942 0012 4009     		lsrs	r0, r0, #5
 943 0014 7047     		bx	lr
 944              		.cfi_endproc
 945              	.LFE447:
 946              		.size	sdPutWouldBlock, .-sdPutWouldBlock
 947 0016 00BF     		.section	.text.sdGetWouldBlock,"ax",%progbits
 948              		.align	1
 949              		.p2align 4,,15
 950              		.global	sdGetWouldBlock
 951              		.syntax unified
 952              		.thumb
 953              		.thumb_func
 954              		.type	sdGetWouldBlock, %function
 955              	sdGetWouldBlock:
 956              	.LVL64:
 957              	.LFB448:
 958              		.loc 1 334 41 is_stmt 1 view -0
 959              		.cfi_startproc
 960              		@ args = 0, pretend = 0, frame = 0
 961              		@ frame_needed = 0, uses_anonymous_args = 0
 962              		@ link register save eliminated.
 963              		.loc 1 335 3 view .LVU249
 964              		.loc 1 337 3 view .LVU250
 965              	.LBB173:
 966              	.LBI173:
 967              		.loc 2 573 20 view .LVU251
 968              		.loc 2 575 3 view .LVU252
 969              	.LBB174:
ARM GAS  C:\Users\DEVELO~1\AppData\Local\Temp\ccSjQEbd.s 			page 18


 970              	.LBI174:
 971              		.loc 4 407 20 view .LVU253
 972              		.loc 4 409 3 view .LVU254
 973              	.LBB175:
 974              	.LBI175:
 975              		.loc 5 823 27 view .LVU255
 976              		.loc 5 831 3 view .LVU256
 977              	.LBB176:
 978              	.LBI176:
 979              		.loc 6 491 27 view .LVU257
 980              	.LBB177:
 981              		.loc 6 493 3 view .LVU258
 982 0000 3023     		movs	r3, #48
 983              		.syntax unified
 984              	@ 493 "../../../os/common/ext/ARM/CMSIS/Core/Include/cmsis_gcc.h" 1
 985 0002 83F31188 		MSR basepri, r3
 986              	@ 0 "" 2
 987              	.LVL65:
 988              		.loc 6 493 3 is_stmt 0 view .LVU259
 989              		.thumb
 990              		.syntax unified
 991              	.LBE177:
 992              	.LBE176:
 993              	.LBE175:
 994              		.loc 4 410 35 is_stmt 1 view .LVU260
 995              		.loc 4 411 21 view .LVU261
 996              	.LBE174:
 997              	.LBE173:
 998              		.loc 1 338 3 view .LVU262
 999              	.LBB178:
 1000              	.LBB179:
 1001              	.LBB180:
 1002              	.LBB181:
 1003              	.LBB182:
 1004              	.LBB183:
 1005              		.loc 6 493 3 is_stmt 0 view .LVU263
 1006 0006 0023     		movs	r3, #0
 1007              	.LBE183:
 1008              	.LBE182:
 1009              	.LBE181:
 1010              	.LBE180:
 1011              	.LBE179:
 1012              	.LBE178:
 1013              		.loc 1 338 7 view .LVU264
 1014 0008 4069     		ldr	r0, [r0, #20]
 1015              	.LVL66:
 1016              		.loc 1 339 3 is_stmt 1 view .LVU265
 1017              	.LBB189:
 1018              	.LBI178:
 1019              		.loc 2 584 20 view .LVU266
 1020              		.loc 2 586 3 view .LVU267
 1021              	.LBB188:
 1022              	.LBI179:
 1023              		.loc 4 421 20 view .LVU268
 1024              	.LBB187:
 1025              		.loc 4 423 23 view .LVU269
 1026              		.loc 4 424 34 view .LVU270
ARM GAS  C:\Users\DEVELO~1\AppData\Local\Temp\ccSjQEbd.s 			page 19


 1027              		.loc 4 430 3 view .LVU271
 1028              		.loc 4 430 3 view .LVU272
 1029              		.loc 4 430 3 view .LVU273
 1030              		.loc 4 434 3 view .LVU274
 1031              	.LBB186:
 1032              	.LBI181:
 1033              		.loc 5 847 27 view .LVU275
 1034              		.loc 5 850 3 view .LVU276
 1035              	.LBB185:
 1036              	.LBI182:
 1037              		.loc 6 491 27 view .LVU277
 1038              	.LBB184:
 1039              		.loc 6 493 3 view .LVU278
 1040              		.syntax unified
 1041              	@ 493 "../../../os/common/ext/ARM/CMSIS/Core/Include/cmsis_gcc.h" 1
 1042 000a 83F31188 		MSR basepri, r3
 1043              	@ 0 "" 2
 1044              	.LVL67:
 1045              		.loc 6 493 3 is_stmt 0 view .LVU279
 1046              		.thumb
 1047              		.syntax unified
 1048              	.LBE184:
 1049              	.LBE185:
 1050              	.LBE186:
 1051              	.LBE187:
 1052              	.LBE188:
 1053              	.LBE189:
 1054              		.loc 1 341 3 is_stmt 1 view .LVU280
 1055              		.loc 1 342 1 is_stmt 0 view .LVU281
 1056 000e B0FA80F0 		clz	r0, r0
 1057              	.LVL68:
 1058              		.loc 1 342 1 view .LVU282
 1059 0012 4009     		lsrs	r0, r0, #5
 1060 0014 7047     		bx	lr
 1061              		.cfi_endproc
 1062              	.LFE448:
 1063              		.size	sdGetWouldBlock, .-sdGetWouldBlock
 1064 0016 00BF     		.section	.text.sdControl,"ax",%progbits
 1065              		.align	1
 1066              		.p2align 4,,15
 1067              		.global	sdControl
 1068              		.syntax unified
 1069              		.thumb
 1070              		.thumb_func
 1071              		.type	sdControl, %function
 1072              	sdControl:
 1073              	.LVL69:
 1074              	.LFB449:
 1075              		.loc 1 358 71 is_stmt 1 view -0
 1076              		.cfi_startproc
 1077              		@ args = 0, pretend = 0, frame = 0
 1078              		@ frame_needed = 0, uses_anonymous_args = 0
 1079              		@ link register save eliminated.
 1080              		.loc 1 360 3 view .LVU284
 1081              	.LBB190:
 1082              	.LBI190:
 1083              		.loc 1 94 14 view .LVU285
ARM GAS  C:\Users\DEVELO~1\AppData\Local\Temp\ccSjQEbd.s 			page 20


 1084              	.LBB191:
 1085              		.loc 1 95 3 view .LVU286
 1086              		.loc 1 97 3 view .LVU287
 1087              		.loc 1 97 3 view .LVU288
 1088              		.loc 1 97 3 view .LVU289
 1089              		.loc 1 99 3 view .LVU290
 1090              		.loc 1 113 10 is_stmt 0 view .LVU291
 1091 0000 0129     		cmp	r1, #1
 1092              	.LBE191:
 1093              	.LBE190:
 1094              		.loc 1 361 1 view .LVU292
 1095 0002 14BF     		ite	ne
 1096 0004 6FF01300 		mvnne	r0, #19
 1097              	.LVL70:
 1098              		.loc 1 361 1 view .LVU293
 1099 0008 0020     		moveq	r0, #0
 1100 000a 7047     		bx	lr
 1101              		.cfi_endproc
 1102              	.LFE449:
 1103              		.size	sdControl, .-sdControl
 1104              		.section	.rodata.vmt,"a"
 1105              		.align	2
 1106              		.set	.LANCHOR0,. + 0
 1107              		.type	vmt, %object
 1108              		.size	vmt, 40
 1109              	vmt:
 1110 0000 00000000 		.word	0
 1111 0004 00000000 		.word	_write
 1112 0008 00000000 		.word	_read
 1113 000c 00000000 		.word	_put
 1114 0010 00000000 		.word	_get
 1115 0014 00000000 		.word	_putt
 1116 0018 00000000 		.word	_gett
 1117 001c 00000000 		.word	_writet
 1118 0020 00000000 		.word	_readt
 1119 0024 00000000 		.word	_ctl
 1120              		.text
 1121              	.Letext0:
 1122              		.file 7 "c:\\chibistudio\\tools\\gnu tools arm embedded\\11.3 2022.08\\lib\\gcc\\arm-none-eabi\\11
 1123              		.file 8 "c:\\chibistudio\\tools\\gnu tools arm embedded\\11.3 2022.08\\arm-none-eabi\\include\\mac
 1124              		.file 9 "c:\\chibistudio\\tools\\gnu tools arm embedded\\11.3 2022.08\\arm-none-eabi\\include\\sys
 1125              		.file 10 "../../../os/common/ports/ARM-common/chtypes.h"
 1126              		.file 11 "../../../os/rt/include/chearly.h"
 1127              		.file 12 "../../../os/rt/include/chobjects.h"
 1128              		.file 13 "../../../os/rt/include/chrfcu.h"
 1129              		.file 14 "../../../os/rt/include/chdebug.h"
 1130              		.file 15 "../../../os/rt/include/chtime.h"
 1131              		.file 16 "../../../os/rt/include/chlists.h"
 1132              		.file 17 "../../../os/rt/include/chtrace.h"
 1133              		.file 18 "../../../os/common/ext/ST/STM32H7xx/stm32h743xx.h"
 1134              		.file 19 "../../../os/rt/include/chsem.h"
 1135              		.file 20 "../../../os/rt/include/chmtx.h"
 1136              		.file 21 "../../../os/hal/include/hal_queues.h"
 1137              		.file 22 "../../../os/hal/include/hal_serial.h"
 1138              		.file 23 "../../../os/hal/ports/STM32/LLD/USARTv3/hal_serial_lld.h"
 1139              		.file 24 "../../../os/rt/include/chschd.h"