ARM GAS  C:\Users\DEVELO~1\AppData\Local\Temp\ccdu9vsZ.s 			page 1


   1              		.cpu cortex-m7
   2              		.arch armv7e-m
   3              		.fpu softvfp
   4              		.eabi_attribute 20, 1
   5              		.eabi_attribute 21, 1
   6              		.eabi_attribute 23, 3
   7              		.eabi_attribute 24, 1
   8              		.eabi_attribute 25, 1
   9              		.eabi_attribute 26, 1
  10              		.eabi_attribute 30, 2
  11              		.eabi_attribute 34, 1
  12              		.eabi_attribute 18, 4
  13              		.file	"hal_lld.c"
  14              		.text
  15              	.Ltext0:
  16              		.cfi_sections	.debug_frame
  17              		.section	.text.hal_lld_init,"ax",%progbits
  18              		.align	1
  19              		.p2align 4,,15
  20              		.global	hal_lld_init
  21              		.syntax unified
  22              		.thumb
  23              		.thumb_func
  24              		.type	hal_lld_init, %function
  25              	hal_lld_init:
  26              	.LFB434:
  27              		.file 1 "../../../os/hal/ports/STM32/STM32H7xx/hal_lld.c"
  28              		.loc 1 150 25 view -0
  29              		.cfi_startproc
  30              		@ args = 0, pretend = 0, frame = 0
  31              		@ frame_needed = 0, uses_anonymous_args = 0
  32              		.loc 1 160 3 view .LVU1
  33              	.LVL0:
  34              	.LBB61:
  35              	.LBI61:
  36              		.file 2 "../../../os/hal/ports/STM32/STM32H7xx/stm32_rcc.h"
  37              		.loc 2 97 22 view .LVU2
  38              	.LBB62:
  39              		.loc 2 100 3 view .LVU3
  40              	.LBE62:
  41              	.LBE61:
  42              		.loc 1 150 25 is_stmt 0 view .LVU4
  43 0000 38B5     		push	{r3, r4, r5, lr}
  44              		.cfi_def_cfa_offset 16
  45              		.cfi_offset 3, -16
  46              		.cfi_offset 4, -12
  47              		.cfi_offset 5, -8
  48              		.cfi_offset 14, -4
  49              	.LBB66:
  50              	.LBB63:
  51              		.loc 2 100 17 view .LVU5
  52 0002 4F4B     		ldr	r3, .L8
  53              	.LBE63:
  54              	.LBE66:
  55              	.LBB67:
  56              	.LBB68:
  57              		.loc 2 109 17 view .LVU6
ARM GAS  C:\Users\DEVELO~1\AppData\Local\Temp\ccdu9vsZ.s 			page 2


  58 0004 0024     		movs	r4, #0
  59              		.loc 2 108 17 view .LVU7
  60 0006 4FF0FF32 		mov	r2, #-1
  61              	.LBE68:
  62              	.LBE67:
  63              	.LBB70:
  64              	.LBB71:
  65              		.loc 2 116 17 view .LVU8
  66 000a 4E48     		ldr	r0, .L8+4
  67              	.LBE71:
  68              	.LBE70:
  69              	.LBB75:
  70              	.LBB64:
  71              		.loc 2 100 17 view .LVU9
  72 000c D3F88010 		ldr	r1, [r3, #128]
  73              	.LBE64:
  74              	.LBE75:
  75              	.LBB76:
  76              	.LBB72:
  77              		.loc 2 117 17 view .LVU10
  78 0010 4D4D     		ldr	r5, .L8+8
  79              	.LBE72:
  80              	.LBE76:
  81              	.LBB77:
  82              	.LBB65:
  83              		.loc 2 100 17 view .LVU11
  84 0012 61F00041 		orn	r1, r1, #-2147483648
  85 0016 C3F88010 		str	r1, [r3, #128]
  86              		.loc 2 101 3 is_stmt 1 view .LVU12
  87              		.loc 2 101 17 is_stmt 0 view .LVU13
  88 001a D3F88010 		ldr	r1, [r3, #128]
  89 001e 01F00041 		and	r1, r1, #-2147483648
  90 0022 C3F88010 		str	r1, [r3, #128]
  91              		.loc 2 102 3 is_stmt 1 view .LVU14
  92 0026 D3F88010 		ldr	r1, [r3, #128]
  93              	.LVL1:
  94              		.loc 2 102 3 is_stmt 0 view .LVU15
  95              	.LBE65:
  96              	.LBE77:
  97              		.loc 1 161 3 is_stmt 1 view .LVU16
  98              	.LBB78:
  99              	.LBI67:
 100              		.loc 2 105 22 view .LVU17
 101              	.LBB69:
 102              		.loc 2 108 3 view .LVU18
 103              		.loc 2 108 17 is_stmt 0 view .LVU19
 104 002a D3F88410 		ldr	r1, [r3, #132]
 105 002e C3F88420 		str	r2, [r3, #132]
 106              		.loc 2 109 3 is_stmt 1 view .LVU20
 107              		.loc 2 109 17 is_stmt 0 view .LVU21
 108 0032 D3F88410 		ldr	r1, [r3, #132]
 109 0036 C3F88440 		str	r4, [r3, #132]
 110              		.loc 2 110 3 is_stmt 1 view .LVU22
 111 003a D3F88410 		ldr	r1, [r3, #132]
 112              	.LVL2:
 113              		.loc 2 110 3 is_stmt 0 view .LVU23
 114              	.LBE69:
ARM GAS  C:\Users\DEVELO~1\AppData\Local\Temp\ccdu9vsZ.s 			page 3


 115              	.LBE78:
 116              		.loc 1 162 3 is_stmt 1 view .LVU24
 117              	.LBB79:
 118              	.LBI70:
 119              		.loc 2 113 22 view .LVU25
 120              	.LBB73:
 121              		.loc 2 116 3 view .LVU26
 122              		.loc 2 116 17 is_stmt 0 view .LVU27
 123 003e D96F     		ldr	r1, [r3, #124]
 124 0040 0143     		orrs	r1, r1, r0
 125 0042 D967     		str	r1, [r3, #124]
 126              		.loc 2 117 3 is_stmt 1 view .LVU28
 127              		.loc 2 117 17 is_stmt 0 view .LVU29
 128 0044 D86F     		ldr	r0, [r3, #124]
 129              	.LBE73:
 130              	.LBE79:
 131              	.LBB80:
 132              	.LBB81:
 133              		.loc 2 124 17 view .LVU30
 134 0046 4149     		ldr	r1, .L8+12
 135              	.LBE81:
 136              	.LBE80:
 137              	.LBB83:
 138              	.LBB74:
 139              		.loc 2 117 17 view .LVU31
 140 0048 2840     		ands	r0, r0, r5
 141 004a D867     		str	r0, [r3, #124]
 142              		.loc 2 118 3 is_stmt 1 view .LVU32
 143 004c D86F     		ldr	r0, [r3, #124]
 144              	.LVL3:
 145              		.loc 2 118 3 is_stmt 0 view .LVU33
 146              	.LBE74:
 147              	.LBE83:
 148              		.loc 1 177 3 is_stmt 1 view .LVU34
 149              	.LBB84:
 150              	.LBI80:
 151              		.loc 2 121 22 view .LVU35
 152              	.LBB82:
 153              		.loc 2 124 3 view .LVU36
 154              		.loc 2 124 17 is_stmt 0 view .LVU37
 155 004e D3F88800 		ldr	r0, [r3, #136]
 156 0052 0143     		orrs	r1, r1, r0
 157 0054 C3F88810 		str	r1, [r3, #136]
 158              		.loc 2 125 3 is_stmt 1 view .LVU38
 159              		.loc 2 125 17 is_stmt 0 view .LVU39
 160 0058 D3F88810 		ldr	r1, [r3, #136]
 161 005c C1F30A01 		ubfx	r1, r1, #0, #11
 162 0060 C3F88810 		str	r1, [r3, #136]
 163              		.loc 2 126 3 is_stmt 1 view .LVU40
 164 0064 D3F88810 		ldr	r1, [r3, #136]
 165              	.LVL4:
 166              		.loc 2 126 3 is_stmt 0 view .LVU41
 167              	.LBE82:
 168              	.LBE84:
 169              		.loc 1 178 3 is_stmt 1 view .LVU42
 170              	.LBB85:
 171              	.LBI85:
ARM GAS  C:\Users\DEVELO~1\AppData\Local\Temp\ccdu9vsZ.s 			page 4


 172              		.loc 2 57 22 view .LVU43
 173              	.LBB86:
 174              		.loc 2 60 3 view .LVU44
 175              		.loc 2 60 18 is_stmt 0 view .LVU45
 176 0068 D3F89010 		ldr	r1, [r3, #144]
 177 006c C3F89020 		str	r2, [r3, #144]
 178              		.loc 2 61 3 is_stmt 1 view .LVU46
 179              		.loc 2 61 18 is_stmt 0 view .LVU47
 180 0070 D3F89010 		ldr	r1, [r3, #144]
 181 0074 C3F89040 		str	r4, [r3, #144]
 182              		.loc 2 62 3 is_stmt 1 view .LVU48
 183 0078 D3F89010 		ldr	r1, [r3, #144]
 184              	.LVL5:
 185              		.loc 2 62 3 is_stmt 0 view .LVU49
 186              	.LBE86:
 187              	.LBE85:
 188              		.loc 1 179 3 is_stmt 1 view .LVU50
 189              	.LBB87:
 190              	.LBI87:
 191              		.loc 2 65 22 view .LVU51
 192              	.LBB88:
 193              		.loc 2 68 3 view .LVU52
 194              		.loc 2 68 18 is_stmt 0 view .LVU53
 195 007c D3F89410 		ldr	r1, [r3, #148]
 196 0080 C3F89420 		str	r2, [r3, #148]
 197              		.loc 2 69 3 is_stmt 1 view .LVU54
 198              		.loc 2 69 18 is_stmt 0 view .LVU55
 199 0084 D3F89410 		ldr	r1, [r3, #148]
 200 0088 C3F89440 		str	r4, [r3, #148]
 201              		.loc 2 70 3 is_stmt 1 view .LVU56
 202 008c D3F89410 		ldr	r1, [r3, #148]
 203              	.LVL6:
 204              		.loc 2 70 3 is_stmt 0 view .LVU57
 205              	.LBE88:
 206              	.LBE87:
 207              		.loc 1 180 3 is_stmt 1 view .LVU58
 208              	.LBB89:
 209              	.LBI89:
 210              		.loc 2 73 22 view .LVU59
 211              	.LBB90:
 212              		.loc 2 76 3 view .LVU60
 213              		.loc 2 76 17 is_stmt 0 view .LVU61
 214 0090 D3F89810 		ldr	r1, [r3, #152]
 215 0094 C3F89820 		str	r2, [r3, #152]
 216              		.loc 2 77 3 is_stmt 1 view .LVU62
 217              		.loc 2 77 17 is_stmt 0 view .LVU63
 218 0098 D3F89810 		ldr	r1, [r3, #152]
 219 009c C3F89840 		str	r4, [r3, #152]
 220              		.loc 2 78 3 is_stmt 1 view .LVU64
 221 00a0 D3F89810 		ldr	r1, [r3, #152]
 222              	.LVL7:
 223              		.loc 2 78 3 is_stmt 0 view .LVU65
 224              	.LBE90:
 225              	.LBE89:
 226              		.loc 1 181 3 is_stmt 1 view .LVU66
 227              	.LBB91:
 228              	.LBI91:
ARM GAS  C:\Users\DEVELO~1\AppData\Local\Temp\ccdu9vsZ.s 			page 5


 229              		.loc 2 81 22 view .LVU67
 230              	.LBB92:
 231              		.loc 2 84 3 view .LVU68
 232              		.loc 2 84 17 is_stmt 0 view .LVU69
 233 00a4 D3F88C10 		ldr	r1, [r3, #140]
 234 00a8 C3F88C20 		str	r2, [r3, #140]
 235              		.loc 2 85 3 is_stmt 1 view .LVU70
 236              		.loc 2 85 17 is_stmt 0 view .LVU71
 237 00ac D3F88C10 		ldr	r1, [r3, #140]
 238 00b0 C3F88C40 		str	r4, [r3, #140]
 239              		.loc 2 86 3 is_stmt 1 view .LVU72
 240 00b4 D3F88C10 		ldr	r1, [r3, #140]
 241              	.LVL8:
 242              		.loc 2 86 3 is_stmt 0 view .LVU73
 243              	.LBE92:
 244              	.LBE91:
 245              		.loc 1 182 3 is_stmt 1 view .LVU74
 246              	.LBB93:
 247              	.LBI93:
 248              		.loc 2 89 22 view .LVU75
 249              	.LBB94:
 250              		.loc 2 92 3 view .LVU76
 251              		.loc 2 92 17 is_stmt 0 view .LVU77
 252 00b8 D3F89C10 		ldr	r1, [r3, #156]
 253 00bc C3F89C20 		str	r2, [r3, #156]
 254              		.loc 2 93 3 is_stmt 1 view .LVU78
 255              		.loc 2 93 17 is_stmt 0 view .LVU79
 256 00c0 D3F89C20 		ldr	r2, [r3, #156]
 257 00c4 C3F89C40 		str	r4, [r3, #156]
 258              		.loc 2 94 3 is_stmt 1 view .LVU80
 259 00c8 D3F89C30 		ldr	r3, [r3, #156]
 260              	.LVL9:
 261              		.loc 2 94 3 is_stmt 0 view .LVU81
 262              	.LBE94:
 263              	.LBE93:
 264              		.loc 1 187 3 is_stmt 1 view .LVU82
 265 00cc FFF7FEFF 		bl	bdmaInit
 266              	.LVL10:
 267              		.loc 1 190 3 view .LVU83
 268 00d0 FFF7FEFF 		bl	dmaInit
 269              	.LVL11:
 270              		.loc 1 197 3 view .LVU84
 271 00d4 FFF7FEFF 		bl	irqInit
 272              	.LVL12:
 273              		.loc 1 202 5 view .LVU85
 274 00d8 1D48     		ldr	r0, .L8+16
 275 00da 0621     		movs	r1, #6
 276 00dc 4FF01053 		mov	r3, #603979776
 277 00e0 1C4A     		ldr	r2, .L8+20
 278 00e2 C0F89810 		str	r1, [r0, #152]
 279              		.loc 1 202 5 view .LVU86
 280 00e6 C0F89C30 		str	r3, [r0, #156]
 281              		.loc 1 202 5 view .LVU87
 282              		.loc 1 209 5 is_stmt 0 view .LVU88
 283 00ea 0523     		movs	r3, #5
 284              		.loc 1 202 5 view .LVU89
 285 00ec C0F8A020 		str	r2, [r0, #160]
ARM GAS  C:\Users\DEVELO~1\AppData\Local\Temp\ccdu9vsZ.s 			page 6


 286              		.loc 1 208 40 is_stmt 1 view .LVU90
 287              		.loc 1 209 5 view .LVU91
 288 00f0 C0F89430 		str	r3, [r0, #148]
 289              		.loc 1 209 5 view .LVU92
 290 00f4 436A     		ldr	r3, [r0, #36]
 291 00f6 43F48033 		orr	r3, r3, #65536
 292 00fa 4362     		str	r3, [r0, #36]
 293              		.loc 1 209 35 view .LVU93
 294              		.loc 1 214 5 view .LVU94
 295              	.LBB95:
 296              	.LBI95:
 297              		.file 3 "../../../os/common/ext/ARM/CMSIS/Core/Include/core_cm7.h"
 298              		.loc 3 2427 22 view .LVU95
 299              	.LBB96:
 300              		.loc 3 2430 5 view .LVU96
 301              		.loc 3 2431 5 view .LVU97
 302              		.loc 3 2432 5 view .LVU98
 303              		.loc 3 2434 5 view .LVU99
 304              		.loc 3 2434 17 is_stmt 0 view .LVU100
 305 00fc C0F88440 		str	r4, [r0, #132]
 306              		.loc 3 2435 5 is_stmt 1 view .LVU101
 307              	.LBB97:
 308              	.LBI97:
 309              		.file 4 "../../../os/common/ext/ARM/CMSIS/Core/Include/cmsis_gcc.h"
 310              		.loc 4 877 27 view .LVU102
 311              	.LBB98:
 312              		.loc 4 879 3 view .LVU103
 313              		.syntax unified
 314              	@ 879 "../../../os/common/ext/ARM/CMSIS/Core/Include/cmsis_gcc.h" 1
 315 0100 BFF34F8F 		dsb 0xF
 316              	@ 0 "" 2
 317              		.thumb
 318              		.syntax unified
 319              	.LBE98:
 320              	.LBE97:
 321              		.loc 3 2437 5 view .LVU104
 322              		.loc 3 2437 12 is_stmt 0 view .LVU105
 323 0104 D0F88030 		ldr	r3, [r0, #128]
 324              	.LVL13:
 325              		.loc 3 2440 5 is_stmt 1 view .LVU106
 326              		.loc 3 2444 54 is_stmt 0 view .LVU107
 327 0108 43F6E074 		movw	r4, #16352
 328              		.loc 3 2440 10 view .LVU108
 329 010c C3F34E3C 		ubfx	ip, r3, #13, #15
 330              		.loc 3 2442 12 view .LVU109
 331 0110 C3F3C90E 		ubfx	lr, r3, #3, #10
 332 0114 4FEA4C1C 		lsl	ip, ip, #5
 333              	.LVL14:
 334              	.L3:
 335              		.loc 3 2441 5 is_stmt 1 view .LVU110
 336              		.loc 3 2442 7 view .LVU111
 337              		.loc 3 2444 54 is_stmt 0 view .LVU112
 338 0118 0CEA0401 		and	r1, ip, r4
 339              		.loc 3 2442 12 view .LVU113
 340 011c 7346     		mov	r3, lr
 341              	.L2:
 342              	.LVL15:
ARM GAS  C:\Users\DEVELO~1\AppData\Local\Temp\ccdu9vsZ.s 			page 7


 343              		.loc 3 2443 7 is_stmt 1 view .LVU114
 344              		.loc 3 2444 9 view .LVU115
 345              		.loc 3 2444 76 is_stmt 0 view .LVU116
 346 011e 41EA8372 		orr	r2, r1, r3, lsl #30
 347              		.loc 3 2449 20 view .LVU117
 348 0122 013B     		subs	r3, r3, #1
 349              	.LVL16:
 350              		.loc 3 2444 21 view .LVU118
 351 0124 C0F87422 		str	r2, [r0, #628]
 352              		.loc 3 2449 23 is_stmt 1 view .LVU119
 353              	.LVL17:
 354              		.loc 3 2449 23 is_stmt 0 view .LVU120
 355 0128 5A1C     		adds	r2, r3, #1
 356 012a F8D1     		bne	.L2
 357              		.loc 3 2450 20 is_stmt 1 view .LVU121
 358 012c ACF1200C 		sub	ip, ip, #32
 359 0130 1CF1200F 		cmn	ip, #32
 360 0134 F0D1     		bne	.L3
 361              		.loc 3 2452 5 view .LVU122
 362              	.LBB99:
 363              	.LBI99:
 364              		.loc 4 877 27 view .LVU123
 365              	.LBB100:
 366              		.loc 4 879 3 view .LVU124
 367              		.syntax unified
 368              	@ 879 "../../../os/common/ext/ARM/CMSIS/Core/Include/cmsis_gcc.h" 1
 369 0136 BFF34F8F 		dsb 0xF
 370              	@ 0 "" 2
 371              		.thumb
 372              		.syntax unified
 373              	.LBE100:
 374              	.LBE99:
 375              		.loc 3 2453 5 view .LVU125
 376              	.LBB101:
 377              	.LBI101:
 378              		.loc 4 866 27 view .LVU126
 379              	.LBB102:
 380              		.loc 4 868 3 view .LVU127
 381              		.syntax unified
 382              	@ 868 "../../../os/common/ext/ARM/CMSIS/Core/Include/cmsis_gcc.h" 1
 383 013a BFF36F8F 		isb 0xF
 384              	@ 0 "" 2
 385              	.LVL18:
 386              		.loc 4 868 3 is_stmt 0 view .LVU128
 387              		.thumb
 388              		.syntax unified
 389              	.LBE102:
 390              	.LBE101:
 391              	.LBE96:
 392              	.LBE95:
 393              		.loc 1 218 1 view .LVU129
 394 013e 38BD     		pop	{r3, r4, r5, pc}
 395              	.L9:
 396              		.align	2
 397              	.L8:
 398 0140 00440258 		.word	1476543488
 399 0144 FFEFFF7F 		.word	2147479551
ARM GAS  C:\Users\DEVELO~1\AppData\Local\Temp\ccdu9vsZ.s 			page 8


 400 0148 00100080 		.word	-2147479552
 401 014c 00F8FFFF 		.word	-2048
 402 0150 00ED00E0 		.word	-536810240
 403 0154 1B000C03 		.word	51118107
 404              		.cfi_endproc
 405              	.LFE434:
 406              		.size	hal_lld_init, .-hal_lld_init
 407              		.section	.text.stm32_clock_init,"ax",%progbits
 408              		.align	1
 409              		.p2align 4,,15
 410              		.global	stm32_clock_init
 411              		.syntax unified
 412              		.thumb
 413              		.thumb_func
 414              		.type	stm32_clock_init, %function
 415              	stm32_clock_init:
 416              	.LFB435:
 417              		.loc 1 227 29 is_stmt 1 view -0
 418              		.cfi_startproc
 419              		@ args = 0, pretend = 0, frame = 0
 420              		@ frame_needed = 0, uses_anonymous_args = 0
 421              		@ link register save eliminated.
 422              		.loc 1 229 3 view .LVU131
 423              		.loc 1 240 3 view .LVU132
 424              	.LBB116:
 425              	.LBB117:
 426              		.loc 2 501 19 is_stmt 0 view .LVU133
 427 0000 654B     		ldr	r3, .L39
 428              	.LBE117:
 429              	.LBE116:
 430              	.LBB119:
 431              	.LBB120:
 432              		.loc 1 106 14 view .LVU134
 433 0002 0220     		movs	r0, #2
 434              	.LBE120:
 435              	.LBE119:
 436              		.loc 1 240 58 view .LVU135
 437 0004 6549     		ldr	r1, .L39+4
 438              	.LBB123:
 439              	.LBB121:
 440              		.loc 1 106 14 view .LVU136
 441 0006 664A     		ldr	r2, .L39+8
 442              	.LBE121:
 443              	.LBE123:
 444              		.loc 1 227 29 view .LVU137
 445 0008 10B4     		push	{r4}
 446              		.cfi_def_cfa_offset 4
 447              		.cfi_offset 4, -4
 448              		.loc 1 240 58 view .LVU138
 449 000a 0124     		movs	r4, #1
 450 000c C1F80841 		str	r4, [r1, #264]
 451              		.loc 1 245 3 is_stmt 1 view .LVU139
 452              	.LVL19:
 453              	.LBB124:
 454              	.LBI116:
 455              		.loc 2 497 22 view .LVU140
 456              	.LBB118:
ARM GAS  C:\Users\DEVELO~1\AppData\Local\Temp\ccdu9vsZ.s 			page 9


 457              		.loc 2 501 3 view .LVU141
 458              		.loc 2 501 19 is_stmt 0 view .LVU142
 459 0010 D3F8F410 		ldr	r1, [r3, #244]
 460 0014 0143     		orrs	r1, r1, r0
 461 0016 C3F8F410 		str	r1, [r3, #244]
 462              		.loc 2 502 3 is_stmt 1 view .LVU143
 463              		.loc 2 503 5 view .LVU144
 464              		.loc 2 503 23 is_stmt 0 view .LVU145
 465 001a D3F81C11 		ldr	r1, [r3, #284]
 466 001e 0143     		orrs	r1, r1, r0
 467 0020 C3F81C11 		str	r1, [r3, #284]
 468              		.loc 2 508 3 is_stmt 1 view .LVU146
 469 0024 D3F81C31 		ldr	r3, [r3, #284]
 470              	.LVL20:
 471              		.loc 2 508 3 is_stmt 0 view .LVU147
 472              	.LBE118:
 473              	.LBE124:
 474              		.loc 1 248 3 is_stmt 1 view .LVU148
 475              	.LBB125:
 476              	.LBI119:
 477              		.loc 1 98 20 view .LVU149
 478              	.LBB122:
 479              		.loc 1 106 3 view .LVU150
 480              		.loc 1 106 14 is_stmt 0 view .LVU151
 481 0028 D060     		str	r0, [r2, #12]
 482              		.loc 1 107 3 is_stmt 1 view .LVU152
 483              	.L11:
 484              		.loc 1 107 43 view .LVU153
 485              		.loc 1 107 14 is_stmt 0 view .LVU154
 486 002a 5368     		ldr	r3, [r2, #4]
 487              		.loc 1 107 43 view .LVU155
 488 002c 9904     		lsls	r1, r3, #18
 489 002e FCD5     		bpl	.L11
 490              		.loc 1 110 3 is_stmt 1 view .LVU156
 491              		.loc 1 110 14 is_stmt 0 view .LVU157
 492 0030 5C49     		ldr	r1, .L39+12
 493              		.loc 1 111 14 view .LVU158
 494 0032 0123     		movs	r3, #1
 495              		.loc 1 112 14 view .LVU159
 496 0034 5C4C     		ldr	r4, .L39+16
 497              		.loc 1 113 14 view .LVU160
 498 0036 0020     		movs	r0, #0
 499              		.loc 1 110 14 view .LVU161
 500 0038 1160     		str	r1, [r2]
 501              		.loc 1 111 3 is_stmt 1 view .LVU162
 502              		.loc 1 111 14 is_stmt 0 view .LVU163
 503 003a 9360     		str	r3, [r2, #8]
 504              		.loc 1 112 3 is_stmt 1 view .LVU164
 505              		.loc 1 117 14 is_stmt 0 view .LVU165
 506 003c 4FF44043 		mov	r3, #49152
 507              		.loc 1 127 14 view .LVU166
 508 0040 5749     		ldr	r1, .L39+8
 509              		.loc 1 112 14 view .LVU167
 510 0042 D460     		str	r4, [r2, #12]
 511              		.loc 1 113 3 is_stmt 1 view .LVU168
 512              		.loc 1 113 14 is_stmt 0 view .LVU169
 513 0044 1061     		str	r0, [r2, #16]
ARM GAS  C:\Users\DEVELO~1\AppData\Local\Temp\ccdu9vsZ.s 			page 10


 514              		.loc 1 117 3 is_stmt 1 view .LVU170
 515              		.loc 1 117 14 is_stmt 0 view .LVU171
 516 0046 9361     		str	r3, [r2, #24]
 517              		.loc 1 127 3 is_stmt 1 view .LVU172
 518              	.L12:
 519              		.loc 1 127 40 view .LVU173
 520              		.loc 1 127 14 is_stmt 0 view .LVU174
 521 0048 8B69     		ldr	r3, [r1, #24]
 522              		.loc 1 127 40 view .LVU175
 523 004a 9B04     		lsls	r3, r3, #18
 524 004c FCD5     		bpl	.L12
 525              	.LBE122:
 526              	.LBE125:
 527              		.loc 1 251 3 is_stmt 1 view .LVU176
 528              	.LBB126:
 529              	.LBI126:
 530              		.loc 1 58 20 view .LVU177
 531              	.LBB127:
 532              		.loc 1 61 3 view .LVU178
 533              		.loc 1 61 12 is_stmt 0 view .LVU179
 534 004e 0B68     		ldr	r3, [r1]
 535              		.loc 1 64 11 view .LVU180
 536 0050 514A     		ldr	r2, .L39
 537              		.loc 1 61 12 view .LVU181
 538 0052 43F48073 		orr	r3, r3, #256
 539 0056 0B60     		str	r3, [r1]
 540              		.loc 1 64 3 is_stmt 1 view .LVU182
 541              		.loc 1 64 11 is_stmt 0 view .LVU183
 542 0058 136F     		ldr	r3, [r2, #112]
 543              		.loc 1 64 18 view .LVU184
 544 005a 03F44073 		and	r3, r3, #768
 545              		.loc 1 64 6 view .LVU185
 546 005e B3F5007F 		cmp	r3, #512
 547 0062 04D0     		beq	.L13
 548              		.loc 1 66 5 is_stmt 1 view .LVU186
 549              		.loc 1 66 15 is_stmt 0 view .LVU187
 550 0064 4FF48031 		mov	r1, #65536
 551              		.loc 1 67 15 view .LVU188
 552 0068 0023     		movs	r3, #0
 553              		.loc 1 66 15 view .LVU189
 554 006a 1167     		str	r1, [r2, #112]
 555              		.loc 1 67 5 is_stmt 1 view .LVU190
 556              		.loc 1 67 15 is_stmt 0 view .LVU191
 557 006c 1367     		str	r3, [r2, #112]
 558              	.L13:
 559              	.LBE127:
 560              	.LBE126:
 561              		.loc 1 255 3 is_stmt 1 view .LVU192
 562              		.loc 1 255 11 is_stmt 0 view .LVU193
 563 006e 4A49     		ldr	r1, .L39
 564 0070 0B68     		ldr	r3, [r1]
 565 0072 43F00103 		orr	r3, r3, #1
 566 0076 0B60     		str	r3, [r1]
 567              		.loc 1 256 3 is_stmt 1 view .LVU194
 568              	.L14:
 569              		.loc 1 256 10 discriminator 1 view .LVU195
 570              		.loc 1 256 15 is_stmt 0 discriminator 1 view .LVU196
ARM GAS  C:\Users\DEVELO~1\AppData\Local\Temp\ccdu9vsZ.s 			page 11


 571 0078 0B68     		ldr	r3, [r1]
 572              		.loc 1 256 10 discriminator 1 view .LVU197
 573 007a 5C07     		lsls	r4, r3, #29
 574 007c FCD5     		bpl	.L14
 575              		.loc 1 262 3 is_stmt 1 view .LVU198
 576              		.loc 1 262 16 is_stmt 0 view .LVU199
 577 007e 0023     		movs	r3, #0
 578              		.loc 1 263 14 view .LVU200
 579 0080 454A     		ldr	r2, .L39
 580              		.loc 1 262 16 view .LVU201
 581 0082 0B61     		str	r3, [r1, #16]
 582              		.loc 1 263 3 is_stmt 1 view .LVU202
 583              	.L15:
 584              		.loc 1 263 37 discriminator 1 view .LVU203
 585              		.loc 1 263 14 is_stmt 0 discriminator 1 view .LVU204
 586 0084 1369     		ldr	r3, [r2, #16]
 587              		.loc 1 263 37 discriminator 1 view .LVU205
 588 0086 13F03803 		ands	r3, r3, #56
 589 008a FBD1     		bne	.L15
 590              		.loc 1 267 3 is_stmt 1 view .LVU206
 591              		.loc 1 268 16 is_stmt 0 view .LVU207
 592 008c 4FF08040 		mov	r0, #1073741824
 593              		.loc 1 267 16 view .LVU208
 594 0090 0124     		movs	r4, #1
 595              		.loc 1 273 16 view .LVU209
 596 0092 4649     		ldr	r1, .L39+20
 597              		.loc 1 267 16 view .LVU210
 598 0094 1460     		str	r4, [r2]
 599              		.loc 1 268 3 is_stmt 1 view .LVU211
 600              		.loc 1 268 16 is_stmt 0 view .LVU212
 601 0096 5060     		str	r0, [r2, #4]
 602              		.loc 1 272 3 is_stmt 1 view .LVU213
 603              		.loc 1 287 13 is_stmt 0 view .LVU214
 604 0098 4548     		ldr	r0, .L39+24
 605              		.loc 1 272 16 view .LVU215
 606 009a 5367     		str	r3, [r2, #116]
 607              		.loc 1 273 3 is_stmt 1 view .LVU216
 608              		.loc 1 273 16 is_stmt 0 view .LVU217
 609 009c D162     		str	r1, [r2, #44]
 610              		.loc 1 277 3 is_stmt 1 view .LVU218
 611              	.LVL21:
 612              		.loc 1 282 3 view .LVU219
 613              		.loc 1 285 3 view .LVU220
 614              		.loc 1 287 3 view .LVU221
 615              		.loc 1 287 13 is_stmt 0 view .LVU222
 616 009e 1061     		str	r0, [r2, #16]
 617              		.loc 1 294 3 is_stmt 1 view .LVU223
 618              		.loc 1 294 11 is_stmt 0 view .LVU224
 619 00a0 1368     		ldr	r3, [r2]
 620              		.loc 1 296 14 view .LVU225
 621 00a2 3D49     		ldr	r1, .L39
 622              		.loc 1 294 11 view .LVU226
 623 00a4 43F48033 		orr	r3, r3, #65536
 624 00a8 1360     		str	r3, [r2]
 625              		.loc 1 296 3 is_stmt 1 view .LVU227
 626              	.L16:
 627              		.loc 1 296 36 discriminator 1 view .LVU228
ARM GAS  C:\Users\DEVELO~1\AppData\Local\Temp\ccdu9vsZ.s 			page 12


 628              		.loc 1 296 14 is_stmt 0 discriminator 1 view .LVU229
 629 00aa 0B68     		ldr	r3, [r1]
 630              		.loc 1 296 36 discriminator 1 view .LVU230
 631 00ac 9803     		lsls	r0, r3, #14
 632 00ae FCD5     		bpl	.L16
 633              		.loc 1 302 3 is_stmt 1 view .LVU231
 634              		.loc 1 302 11 is_stmt 0 view .LVU232
 635 00b0 0A68     		ldr	r2, [r1]
 636              		.loc 1 303 14 view .LVU233
 637 00b2 394B     		ldr	r3, .L39
 638              		.loc 1 302 11 view .LVU234
 639 00b4 42F48052 		orr	r2, r2, #4096
 640 00b8 0A60     		str	r2, [r1]
 641              		.loc 1 303 3 is_stmt 1 view .LVU235
 642              	.L17:
 643              		.loc 1 303 38 discriminator 1 view .LVU236
 644              		.loc 1 303 14 is_stmt 0 discriminator 1 view .LVU237
 645 00ba 1A68     		ldr	r2, [r3]
 646              		.loc 1 303 38 discriminator 1 view .LVU238
 647 00bc 9204     		lsls	r2, r2, #18
 648 00be FCD5     		bpl	.L17
 649              	.LBB128:
 650              		.loc 1 328 5 is_stmt 1 view .LVU239
 651              	.LVL22:
 652              		.loc 1 329 5 view .LVU240
 653              		.loc 1 330 5 view .LVU241
 654              		.loc 1 332 5 view .LVU242
 655              		.loc 1 342 20 is_stmt 0 view .LVU243
 656 00c0 0022     		movs	r2, #0
 657              		.loc 1 332 20 view .LVU244
 658 00c2 3C48     		ldr	r0, .L39+28
 659              		.loc 1 343 20 view .LVU245
 660 00c4 3C49     		ldr	r1, .L39+32
 661              		.loc 1 359 20 view .LVU246
 662 00c6 44F6F054 		movw	r4, #19952
 663              		.loc 1 332 20 view .LVU247
 664 00ca 9862     		str	r0, [r3, #40]
 665              		.loc 1 337 5 is_stmt 1 view .LVU248
 666              	.LVL23:
 667              		.loc 1 342 5 view .LVU249
 668              		.loc 1 342 20 is_stmt 0 view .LVU250
 669 00cc 5A63     		str	r2, [r3, #52]
 670              		.loc 1 343 5 is_stmt 1 view .LVU251
 671              		.loc 1 343 20 is_stmt 0 view .LVU252
 672 00ce 1963     		str	r1, [r3, #48]
 673              		.loc 1 345 5 is_stmt 1 view .LVU253
 674              	.LVL24:
 675              		.loc 1 346 5 view .LVU254
 676              		.loc 1 348 5 view .LVU255
 677              		.loc 1 351 5 view .LVU256
 678              		.loc 1 359 5 view .LVU257
 679              		.loc 1 360 20 is_stmt 0 view .LVU258
 680 00d0 3A49     		ldr	r1, .L39+36
 681              		.loc 1 359 20 view .LVU259
 682 00d2 DC63     		str	r4, [r3, #60]
 683              		.loc 1 360 5 is_stmt 1 view .LVU260
 684              		.loc 1 377 20 is_stmt 0 view .LVU261
ARM GAS  C:\Users\DEVELO~1\AppData\Local\Temp\ccdu9vsZ.s 			page 13


 685 00d4 3A48     		ldr	r0, .L39+40
 686              		.loc 1 360 20 view .LVU262
 687 00d6 9963     		str	r1, [r3, #56]
 688              		.loc 1 362 5 is_stmt 1 view .LVU263
 689              	.LVL25:
 690              		.loc 1 363 5 view .LVU264
 691              		.loc 1 365 5 view .LVU265
 692              		.loc 1 371 5 view .LVU266
 693              		.loc 1 376 5 view .LVU267
 694              		.loc 1 393 18 is_stmt 0 view .LVU268
 695 00d8 3A49     		ldr	r1, .L39+44
 696              		.loc 1 376 20 view .LVU269
 697 00da 5A64     		str	r2, [r3, #68]
 698              		.loc 1 377 5 is_stmt 1 view .LVU270
 699              		.loc 1 377 20 is_stmt 0 view .LVU271
 700 00dc 1864     		str	r0, [r3, #64]
 701              		.loc 1 379 5 is_stmt 1 view .LVU272
 702              	.LVL26:
 703              		.loc 1 380 5 view .LVU273
 704              		.loc 1 382 5 view .LVU274
 705              		.loc 1 388 5 view .LVU275
 706              		.loc 1 393 5 view .LVU276
 707              		.loc 1 393 18 is_stmt 0 view .LVU277
 708 00de D962     		str	r1, [r3, #44]
 709              		.loc 1 394 5 is_stmt 1 view .LVU278
 710              		.loc 1 394 17 is_stmt 0 view .LVU279
 711 00e0 1968     		ldr	r1, [r3]
 712              		.loc 1 395 16 view .LVU280
 713 00e2 2D4A     		ldr	r2, .L39
 714              		.loc 1 394 17 view .LVU281
 715 00e4 41F0A851 		orr	r1, r1, #352321536
 716 00e8 1960     		str	r1, [r3]
 717              		.loc 1 395 5 is_stmt 1 view .LVU282
 718              	.L18:
 719              		.loc 1 395 32 discriminator 1 view .LVU283
 720              		.loc 1 395 16 is_stmt 0 discriminator 1 view .LVU284
 721 00ea 1368     		ldr	r3, [r2]
 722              		.loc 1 395 21 discriminator 1 view .LVU285
 723 00ec 03F02853 		and	r3, r3, #704643072
 724              		.loc 1 395 32 discriminator 1 view .LVU286
 725 00f0 B3F1285F 		cmp	r3, #704643072
 726 00f4 F9D1     		bne	.L18
 727              	.LBE128:
 728              		.loc 1 406 3 is_stmt 1 view .LVU287
 729              		.loc 1 406 15 is_stmt 0 view .LVU288
 730 00f6 4824     		movs	r4, #72
 731              		.loc 1 407 15 view .LVU289
 732 00f8 4FF48863 		mov	r3, #1088
 733              		.loc 1 408 15 view .LVU290
 734 00fc 4020     		movs	r0, #64
 735              		.loc 1 413 17 view .LVU291
 736 00fe 4FF48031 		mov	r1, #65536
 737              		.loc 1 406 15 view .LVU292
 738 0102 9461     		str	r4, [r2, #24]
 739              		.loc 1 407 3 is_stmt 1 view .LVU293
 740              		.loc 1 415 17 is_stmt 0 view .LVU294
 741 0104 4FF08054 		mov	r4, #268435456
ARM GAS  C:\Users\DEVELO~1\AppData\Local\Temp\ccdu9vsZ.s 			page 14


 742              		.loc 1 407 15 view .LVU295
 743 0108 D361     		str	r3, [r2, #28]
 744              		.loc 1 408 3 is_stmt 1 view .LVU296
 745              		.loc 1 418 17 is_stmt 0 view .LVU297
 746 010a 4FF4E003 		mov	r3, #7340032
 747              		.loc 1 408 15 view .LVU298
 748 010e 1062     		str	r0, [r2, #32]
 749              		.loc 1 413 3 is_stmt 1 view .LVU299
 750              		.loc 1 421 17 is_stmt 0 view .LVU300
 751 0110 4FF44030 		mov	r0, #196608
 752              		.loc 1 413 17 view .LVU301
 753 0114 D164     		str	r1, [r2, #76]
 754              		.loc 1 415 3 is_stmt 1 view .LVU302
 755              		.loc 1 415 17 is_stmt 0 view .LVU303
 756 0116 1465     		str	r4, [r2, #80]
 757              		.loc 1 418 3 is_stmt 1 view .LVU304
 758              		.loc 1 452 14 is_stmt 0 view .LVU305
 759 0118 2B49     		ldr	r1, .L39+48
 760              		.loc 1 418 17 view .LVU306
 761 011a 5365     		str	r3, [r2, #84]
 762              		.loc 1 421 3 is_stmt 1 view .LVU307
 763              		.loc 1 452 14 is_stmt 0 view .LVU308
 764 011c 3223     		movs	r3, #50
 765              		.loc 1 421 17 view .LVU309
 766 011e 9065     		str	r0, [r2, #88]
 767              		.loc 1 452 3 is_stmt 1 view .LVU310
 768              		.loc 1 452 14 is_stmt 0 view .LVU311
 769 0120 0B60     		str	r3, [r1]
 770              		.loc 1 454 3 is_stmt 1 view .LVU312
 771              	.L19:
 772              		.loc 1 456 3 discriminator 1 view .LVU313
 773              		.loc 1 454 43 discriminator 1 view .LVU314
 774              		.loc 1 454 16 is_stmt 0 discriminator 1 view .LVU315
 775 0122 0B68     		ldr	r3, [r1]
 776              		.loc 1 454 22 discriminator 1 view .LVU316
 777 0124 03F00F03 		and	r3, r3, #15
 778              		.loc 1 454 43 discriminator 1 view .LVU317
 779 0128 022B     		cmp	r3, #2
 780 012a FAD1     		bne	.L19
 781              		.loc 1 461 3 is_stmt 1 view .LVU318
 782              		.loc 1 461 13 is_stmt 0 view .LVU319
 783 012c 1A4A     		ldr	r2, .L39
 784 012e 1369     		ldr	r3, [r2, #16]
 785 0130 43F00303 		orr	r3, r3, #3
 786 0134 1361     		str	r3, [r2, #16]
 787              		.loc 1 462 3 is_stmt 1 view .LVU320
 788              	.L20:
 789              		.loc 1 462 41 discriminator 1 view .LVU321
 790              		.loc 1 462 14 is_stmt 0 discriminator 1 view .LVU322
 791 0136 1369     		ldr	r3, [r2, #16]
 792              		.loc 1 462 21 discriminator 1 view .LVU323
 793 0138 03F03803 		and	r3, r3, #56
 794              		.loc 1 462 41 discriminator 1 view .LVU324
 795 013c 182B     		cmp	r3, #24
 796 013e FAD1     		bne	.L20
 797              		.loc 1 477 3 is_stmt 1 view .LVU325
 798              	.LVL27:
ARM GAS  C:\Users\DEVELO~1\AppData\Local\Temp\ccdu9vsZ.s 			page 15


 799              	.LBB129:
 800              	.LBI129:
 801              		.loc 2 675 22 view .LVU326
 802              	.LBB130:
 803              		.loc 2 679 3 view .LVU327
 804              		.loc 2 679 19 is_stmt 0 view .LVU328
 805 0140 D2F8DC30 		ldr	r3, [r2, #220]
 806              	.LBE130:
 807              	.LBE129:
 808              		.loc 1 483 1 view .LVU329
 809 0144 10BC     		pop	{r4}
 810              		.cfi_restore 4
 811              		.cfi_def_cfa_offset 0
 812              	.LBB132:
 813              	.LBB131:
 814              		.loc 2 679 19 view .LVU330
 815 0146 43F00053 		orr	r3, r3, #536870912
 816 014a C2F8DC30 		str	r3, [r2, #220]
 817              		.loc 2 680 3 is_stmt 1 view .LVU331
 818              		.loc 2 681 5 view .LVU332
 819              		.loc 2 681 23 is_stmt 0 view .LVU333
 820 014e D2F80431 		ldr	r3, [r2, #260]
 821 0152 43F00053 		orr	r3, r3, #536870912
 822 0156 C2F80431 		str	r3, [r2, #260]
 823              		.loc 2 686 3 is_stmt 1 view .LVU334
 824 015a D2F80431 		ldr	r3, [r2, #260]
 825              	.LVL28:
 826              		.loc 2 686 3 is_stmt 0 view .LVU335
 827              	.LBE131:
 828              	.LBE132:
 829              		.loc 1 478 3 is_stmt 1 view .LVU336
 830              	.LBB133:
 831              	.LBI133:
 832              		.loc 2 675 22 view .LVU337
 833              	.LBB134:
 834              		.loc 2 679 3 view .LVU338
 835              		.loc 2 679 19 is_stmt 0 view .LVU339
 836 015e D2F8DC30 		ldr	r3, [r2, #220]
 837 0162 43F08043 		orr	r3, r3, #1073741824
 838 0166 C2F8DC30 		str	r3, [r2, #220]
 839              		.loc 2 680 3 is_stmt 1 view .LVU340
 840              		.loc 2 681 5 view .LVU341
 841              		.loc 2 681 23 is_stmt 0 view .LVU342
 842 016a D2F80431 		ldr	r3, [r2, #260]
 843 016e 43F08043 		orr	r3, r3, #1073741824
 844 0172 C2F80431 		str	r3, [r2, #260]
 845              		.loc 2 686 3 is_stmt 1 view .LVU343
 846 0176 D2F80431 		ldr	r3, [r2, #260]
 847              	.LVL29:
 848              		.loc 2 686 3 is_stmt 0 view .LVU344
 849              	.LBE134:
 850              	.LBE133:
 851              		.loc 1 480 3 is_stmt 1 view .LVU345
 852              	.LBB135:
 853              	.LBI135:
 854              		.loc 2 675 22 view .LVU346
 855              	.LBB136:
ARM GAS  C:\Users\DEVELO~1\AppData\Local\Temp\ccdu9vsZ.s 			page 16


 856              		.loc 2 679 3 view .LVU347
 857              		.loc 2 679 19 is_stmt 0 view .LVU348
 858 017a D2F8DC30 		ldr	r3, [r2, #220]
 859 017e 43F00043 		orr	r3, r3, #-2147483648
 860 0182 C2F8DC30 		str	r3, [r2, #220]
 861              		.loc 2 680 3 is_stmt 1 view .LVU349
 862              		.loc 2 681 5 view .LVU350
 863              		.loc 2 681 23 is_stmt 0 view .LVU351
 864 0186 D2F80431 		ldr	r3, [r2, #260]
 865 018a 43F00043 		orr	r3, r3, #-2147483648
 866 018e C2F80431 		str	r3, [r2, #260]
 867              		.loc 2 686 3 is_stmt 1 view .LVU352
 868 0192 D2F80431 		ldr	r3, [r2, #260]
 869              	.LVL30:
 870              		.loc 2 686 3 is_stmt 0 view .LVU353
 871              	.LBE136:
 872              	.LBE135:
 873              		.loc 1 483 1 view .LVU354
 874 0196 7047     		bx	lr
 875              	.L40:
 876              		.align	2
 877              	.L39:
 878 0198 00440258 		.word	1476543488
 879 019c 00800051 		.word	1358987264
 880 01a0 00480258 		.word	1476544512
 881 01a4 00C000F0 		.word	-268386304
 882 01a8 02000001 		.word	16777218
 883 01ac 0000FF01 		.word	33488896
 884 01b0 00881008 		.word	135301120
 885 01b4 52509001 		.word	26234962
 886 01b8 9F020901 		.word	17367711
 887 01bc 6112010B 		.word	184619617
 888 01c0 1F070507 		.word	117770015
 889 01c4 99036B01 		.word	23790489
 890 01c8 00200052 		.word	1375739904
 891              		.cfi_endproc
 892              	.LFE435:
 893              		.size	stm32_clock_init, .-stm32_clock_init
 894              		.global	SystemCoreClock
 895              		.section	.data.SystemCoreClock,"aw"
 896              		.align	2
 897              		.type	SystemCoreClock, %object
 898              		.size	SystemCoreClock, 4
 899              	SystemCoreClock:
 900 0000 0084D717 		.word	400000000
 901              		.text
 902              	.Letext0:
 903              		.file 5 "c:\\chibistudio\\tools\\gnu tools arm embedded\\11.3 2022.08\\arm-none-eabi\\include\\mac
 904              		.file 6 "c:\\chibistudio\\tools\\gnu tools arm embedded\\11.3 2022.08\\arm-none-eabi\\include\\sys
 905              		.file 7 "../../../os/common/ext/ST/STM32H7xx/stm32h743xx.h"
 906              		.file 8 "../../../os/hal/ports/STM32/STM32H7xx/stm32_isr.h"
 907              		.file 9 "../../../os/hal/ports/STM32/LLD/DMAv2/stm32_dma.h"
 908              		.file 10 "../../../os/hal/ports/STM32/LLD/BDMAv1/stm32_bdma.h"
 909              		.file 11 "../../../os/common/ext/ST/STM32H7xx/system_stm32h7xx.h"
 910              		.section	.debug_info,"",%progbits
 911              	.Ldebug_info0:
 912 0000 E2100000 		.4byte	0x10e2
ARM GAS  C:\Users\DEVELO~1\AppData\Local\Temp\ccdu9vsZ.s 			page 17


 913 0004 0500     		.2byte	0x5
 914 0006 01       		.byte	0x1
 915 0007 04       		.byte	0x4
 916 0008 00000000 		.4byte	.Ldebug_abbrev0
 917 000c 1F       		.uleb128 0x1f
 918 000d 36030000 		.4byte	.LASF203
 919 0011 1D       		.byte	0x1d
 920 0012 88000000 		.4byte	.LASF204
 921 0016 96010000 		.4byte	.LASF205
 922 001a 6F000000 		.4byte	.LLRL31
 923 001e 00000000 		.4byte	0
 924 0022 00000000 		.4byte	.Ldebug_line0
 925 0026 20       		.uleb128 0x20
 926 0027 04       		.byte	0x4
 927 0028 05       		.byte	0x5
 928 0029 696E7400 		.ascii	"int\000"
 929 002d 05       		.uleb128 0x5
 930 002e 04       		.byte	0x4
 931 002f 07       		.byte	0x7
 932 0030 EB020000 		.4byte	.LASF0
 933 0034 05       		.uleb128 0x5
 934 0035 08       		.byte	0x8
 935 0036 05       		.byte	0x5
 936 0037 19010000 		.4byte	.LASF1
 937 003b 05       		.uleb128 0x5
 938 003c 08       		.byte	0x8
 939 003d 04       		.byte	0x4
 940 003e EB060000 		.4byte	.LASF2
 941 0042 05       		.uleb128 0x5
 942 0043 01       		.byte	0x1
 943 0044 06       		.byte	0x6
 944 0045 30000000 		.4byte	.LASF3
 945 0049 0E       		.uleb128 0xe
 946 004a 3C000000 		.4byte	.LASF8
 947 004e 05       		.byte	0x5
 948 004f 2B       		.byte	0x2b
 949 0050 18       		.byte	0x18
 950 0051 55000000 		.4byte	0x55
 951 0055 05       		.uleb128 0x5
 952 0056 01       		.byte	0x1
 953 0057 08       		.byte	0x8
 954 0058 12060000 		.4byte	.LASF4
 955 005c 05       		.uleb128 0x5
 956 005d 02       		.byte	0x2
 957 005e 05       		.byte	0x5
 958 005f 37060000 		.4byte	.LASF5
 959 0063 05       		.uleb128 0x5
 960 0064 02       		.byte	0x2
 961 0065 07       		.byte	0x7
 962 0066 02040000 		.4byte	.LASF6
 963 006a 05       		.uleb128 0x5
 964 006b 04       		.byte	0x4
 965 006c 05       		.byte	0x5
 966 006d 5F000000 		.4byte	.LASF7
 967 0071 0E       		.uleb128 0xe
 968 0072 78020000 		.4byte	.LASF9
 969 0076 05       		.byte	0x5
ARM GAS  C:\Users\DEVELO~1\AppData\Local\Temp\ccdu9vsZ.s 			page 18


 970 0077 4F       		.byte	0x4f
 971 0078 19       		.byte	0x19
 972 0079 7D000000 		.4byte	0x7d
 973 007d 05       		.uleb128 0x5
 974 007e 04       		.byte	0x4
 975 007f 07       		.byte	0x7
 976 0080 4C010000 		.4byte	.LASF10
 977 0084 05       		.uleb128 0x5
 978 0085 08       		.byte	0x8
 979 0086 07       		.byte	0x7
 980 0087 BE020000 		.4byte	.LASF11
 981 008b 0E       		.uleb128 0xe
 982 008c CE070000 		.4byte	.LASF12
 983 0090 06       		.byte	0x6
 984 0091 18       		.byte	0x18
 985 0092 13       		.byte	0x13
 986 0093 49000000 		.4byte	0x49
 987 0097 0A       		.uleb128 0xa
 988 0098 8B000000 		.4byte	0x8b
 989 009c 0E       		.uleb128 0xe
 990 009d BF060000 		.4byte	.LASF13
 991 00a1 06       		.byte	0x6
 992 00a2 30       		.byte	0x30
 993 00a3 14       		.byte	0x14
 994 00a4 71000000 		.4byte	0x71
 995 00a8 0A       		.uleb128 0xa
 996 00a9 9C000000 		.4byte	0x9c
 997 00ad 0F       		.uleb128 0xf
 998 00ae A8000000 		.4byte	0xa8
 999 00b2 05       		.uleb128 0x5
 1000 00b3 01       		.byte	0x1
 1001 00b4 08       		.byte	0x8
 1002 00b5 F7060000 		.4byte	.LASF14
 1003 00b9 10       		.uleb128 0x10
 1004 00ba AC02     		.2byte	0x2ac
 1005 00bc 03       		.byte	0x3
 1006 00bd C701     		.2byte	0x1c7
 1007 00bf 98030000 		.4byte	0x398
 1008 00c3 01       		.uleb128 0x1
 1009 00c4 F4000000 		.4byte	.LASF15
 1010 00c8 03       		.byte	0x3
 1011 00c9 C901     		.2byte	0x1c9
 1012 00cb 12       		.byte	0x12
 1013 00cc AD000000 		.4byte	0xad
 1014 00d0 00       		.byte	0
 1015 00d1 01       		.uleb128 0x1
 1016 00d2 25040000 		.4byte	.LASF16
 1017 00d6 03       		.byte	0x3
 1018 00d7 CA01     		.2byte	0x1ca
 1019 00d9 12       		.byte	0x12
 1020 00da A8000000 		.4byte	0xa8
 1021 00de 04       		.byte	0x4
 1022 00df 01       		.uleb128 0x1
 1023 00e0 EB030000 		.4byte	.LASF17
 1024 00e4 03       		.byte	0x3
 1025 00e5 CB01     		.2byte	0x1cb
 1026 00e7 12       		.byte	0x12
ARM GAS  C:\Users\DEVELO~1\AppData\Local\Temp\ccdu9vsZ.s 			page 19


 1027 00e8 A8000000 		.4byte	0xa8
 1028 00ec 08       		.byte	0x8
 1029 00ed 01       		.uleb128 0x1
 1030 00ee 32040000 		.4byte	.LASF18
 1031 00f2 03       		.byte	0x3
 1032 00f3 CC01     		.2byte	0x1cc
 1033 00f5 12       		.byte	0x12
 1034 00f6 A8000000 		.4byte	0xa8
 1035 00fa 0C       		.byte	0xc
 1036 00fb 04       		.uleb128 0x4
 1037 00fc 53435200 		.ascii	"SCR\000"
 1038 0100 03       		.byte	0x3
 1039 0101 CD01     		.2byte	0x1cd
 1040 0103 12       		.byte	0x12
 1041 0104 A8000000 		.4byte	0xa8
 1042 0108 10       		.byte	0x10
 1043 0109 04       		.uleb128 0x4
 1044 010a 43435200 		.ascii	"CCR\000"
 1045 010e 03       		.byte	0x3
 1046 010f CE01     		.2byte	0x1ce
 1047 0111 12       		.byte	0x12
 1048 0112 A8000000 		.4byte	0xa8
 1049 0116 14       		.byte	0x14
 1050 0117 01       		.uleb128 0x1
 1051 0118 0D000000 		.4byte	.LASF19
 1052 011c 03       		.byte	0x3
 1053 011d CF01     		.2byte	0x1cf
 1054 011f 12       		.byte	0x12
 1055 0120 A8030000 		.4byte	0x3a8
 1056 0124 18       		.byte	0x18
 1057 0125 01       		.uleb128 0x1
 1058 0126 28060000 		.4byte	.LASF20
 1059 012a 03       		.byte	0x3
 1060 012b D001     		.2byte	0x1d0
 1061 012d 12       		.byte	0x12
 1062 012e A8000000 		.4byte	0xa8
 1063 0132 24       		.byte	0x24
 1064 0133 01       		.uleb128 0x1
 1065 0134 EB040000 		.4byte	.LASF21
 1066 0138 03       		.byte	0x3
 1067 0139 D101     		.2byte	0x1d1
 1068 013b 12       		.byte	0x12
 1069 013c A8000000 		.4byte	0xa8
 1070 0140 28       		.byte	0x28
 1071 0141 01       		.uleb128 0x1
 1072 0142 11080000 		.4byte	.LASF22
 1073 0146 03       		.byte	0x3
 1074 0147 D201     		.2byte	0x1d2
 1075 0149 12       		.byte	0x12
 1076 014a A8000000 		.4byte	0xa8
 1077 014e 2C       		.byte	0x2c
 1078 014f 01       		.uleb128 0x1
 1079 0150 38040000 		.4byte	.LASF23
 1080 0154 03       		.byte	0x3
 1081 0155 D301     		.2byte	0x1d3
 1082 0157 12       		.byte	0x12
 1083 0158 A8000000 		.4byte	0xa8
ARM GAS  C:\Users\DEVELO~1\AppData\Local\Temp\ccdu9vsZ.s 			page 20


 1084 015c 30       		.byte	0x30
 1085 015d 01       		.uleb128 0x1
 1086 015e 4D040000 		.4byte	.LASF24
 1087 0162 03       		.byte	0x3
 1088 0163 D401     		.2byte	0x1d4
 1089 0165 12       		.byte	0x12
 1090 0166 A8000000 		.4byte	0xa8
 1091 016a 34       		.byte	0x34
 1092 016b 01       		.uleb128 0x1
 1093 016c 5F020000 		.4byte	.LASF25
 1094 0170 03       		.byte	0x3
 1095 0171 D501     		.2byte	0x1d5
 1096 0173 12       		.byte	0x12
 1097 0174 A8000000 		.4byte	0xa8
 1098 0178 38       		.byte	0x38
 1099 0179 01       		.uleb128 0x1
 1100 017a CD060000 		.4byte	.LASF26
 1101 017e 03       		.byte	0x3
 1102 017f D601     		.2byte	0x1d6
 1103 0181 12       		.byte	0x12
 1104 0182 A8000000 		.4byte	0xa8
 1105 0186 3C       		.byte	0x3c
 1106 0187 01       		.uleb128 0x1
 1107 0188 FA000000 		.4byte	.LASF27
 1108 018c 03       		.byte	0x3
 1109 018d D701     		.2byte	0x1d7
 1110 018f 12       		.byte	0x12
 1111 0190 C2030000 		.4byte	0x3c2
 1112 0194 40       		.byte	0x40
 1113 0195 01       		.uleb128 0x1
 1114 0196 9E020000 		.4byte	.LASF28
 1115 019a 03       		.byte	0x3
 1116 019b D801     		.2byte	0x1d8
 1117 019d 12       		.byte	0x12
 1118 019e AD000000 		.4byte	0xad
 1119 01a2 48       		.byte	0x48
 1120 01a3 01       		.uleb128 0x1
 1121 01a4 64070000 		.4byte	.LASF29
 1122 01a8 03       		.byte	0x3
 1123 01a9 D901     		.2byte	0x1d9
 1124 01ab 12       		.byte	0x12
 1125 01ac AD000000 		.4byte	0xad
 1126 01b0 4C       		.byte	0x4c
 1127 01b1 01       		.uleb128 0x1
 1128 01b2 41060000 		.4byte	.LASF30
 1129 01b6 03       		.byte	0x3
 1130 01b7 DA01     		.2byte	0x1da
 1131 01b9 12       		.byte	0x12
 1132 01ba DC030000 		.4byte	0x3dc
 1133 01be 50       		.byte	0x50
 1134 01bf 01       		.uleb128 0x1
 1135 01c0 ED070000 		.4byte	.LASF31
 1136 01c4 03       		.byte	0x3
 1137 01c5 DB01     		.2byte	0x1db
 1138 01c7 12       		.byte	0x12
 1139 01c8 F6030000 		.4byte	0x3f6
 1140 01cc 60       		.byte	0x60
ARM GAS  C:\Users\DEVELO~1\AppData\Local\Temp\ccdu9vsZ.s 			page 21


 1141 01cd 01       		.uleb128 0x1
 1142 01ce AE050000 		.4byte	.LASF32
 1143 01d2 03       		.byte	0x3
 1144 01d3 DC01     		.2byte	0x1dc
 1145 01d5 12       		.byte	0x12
 1146 01d6 FB030000 		.4byte	0x3fb
 1147 01da 74       		.byte	0x74
 1148 01db 01       		.uleb128 0x1
 1149 01dc 82000000 		.4byte	.LASF33
 1150 01e0 03       		.byte	0x3
 1151 01e1 DD01     		.2byte	0x1dd
 1152 01e3 12       		.byte	0x12
 1153 01e4 AD000000 		.4byte	0xad
 1154 01e8 78       		.byte	0x78
 1155 01e9 04       		.uleb128 0x4
 1156 01ea 43545200 		.ascii	"CTR\000"
 1157 01ee 03       		.byte	0x3
 1158 01ef DE01     		.2byte	0x1de
 1159 01f1 12       		.byte	0x12
 1160 01f2 AD000000 		.4byte	0xad
 1161 01f6 7C       		.byte	0x7c
 1162 01f7 01       		.uleb128 0x1
 1163 01f8 5E010000 		.4byte	.LASF34
 1164 01fc 03       		.byte	0x3
 1165 01fd DF01     		.2byte	0x1df
 1166 01ff 12       		.byte	0x12
 1167 0200 AD000000 		.4byte	0xad
 1168 0204 80       		.byte	0x80
 1169 0205 01       		.uleb128 0x1
 1170 0206 E4020000 		.4byte	.LASF35
 1171 020a 03       		.byte	0x3
 1172 020b E001     		.2byte	0x1e0
 1173 020d 12       		.byte	0x12
 1174 020e A8000000 		.4byte	0xa8
 1175 0212 84       		.byte	0x84
 1176 0213 01       		.uleb128 0x1
 1177 0214 0B080000 		.4byte	.LASF36
 1178 0218 03       		.byte	0x3
 1179 0219 E101     		.2byte	0x1e1
 1180 021b 12       		.byte	0x12
 1181 021c A8000000 		.4byte	0xa8
 1182 0220 88       		.byte	0x88
 1183 0221 01       		.uleb128 0x1
 1184 0222 CA050000 		.4byte	.LASF37
 1185 0226 03       		.byte	0x3
 1186 0227 E201     		.2byte	0x1e2
 1187 0229 12       		.byte	0x12
 1188 022a 0B040000 		.4byte	0x40b
 1189 022e 8C       		.byte	0x8c
 1190 022f 02       		.uleb128 0x2
 1191 0230 46000000 		.4byte	.LASF38
 1192 0234 03       		.byte	0x3
 1193 0235 E301     		.2byte	0x1e3
 1194 0237 12       		.byte	0x12
 1195 0238 A8000000 		.4byte	0xa8
 1196 023c 0002     		.2byte	0x200
 1197 023e 02       		.uleb128 0x2
ARM GAS  C:\Users\DEVELO~1\AppData\Local\Temp\ccdu9vsZ.s 			page 22


 1198 023f AC060000 		.4byte	.LASF39
 1199 0243 03       		.byte	0x3
 1200 0244 E401     		.2byte	0x1e4
 1201 0246 12       		.byte	0x12
 1202 0247 1B040000 		.4byte	0x41b
 1203 024b 0402     		.2byte	0x204
 1204 024d 02       		.uleb128 0x2
 1205 024e 9C050000 		.4byte	.LASF40
 1206 0252 03       		.byte	0x3
 1207 0253 E501     		.2byte	0x1e5
 1208 0255 12       		.byte	0x12
 1209 0256 AD000000 		.4byte	0xad
 1210 025a 4002     		.2byte	0x240
 1211 025c 02       		.uleb128 0x2
 1212 025d A2050000 		.4byte	.LASF41
 1213 0261 03       		.byte	0x3
 1214 0262 E601     		.2byte	0x1e6
 1215 0264 12       		.byte	0x12
 1216 0265 AD000000 		.4byte	0xad
 1217 0269 4402     		.2byte	0x244
 1218 026b 02       		.uleb128 0x2
 1219 026c A8050000 		.4byte	.LASF42
 1220 0270 03       		.byte	0x3
 1221 0271 E701     		.2byte	0x1e7
 1222 0273 12       		.byte	0x12
 1223 0274 AD000000 		.4byte	0xad
 1224 0278 4802     		.2byte	0x248
 1225 027a 02       		.uleb128 0x2
 1226 027b DB050000 		.4byte	.LASF43
 1227 027f 03       		.byte	0x3
 1228 0280 E801     		.2byte	0x1e8
 1229 0282 12       		.byte	0x12
 1230 0283 FB030000 		.4byte	0x3fb
 1231 0287 4C02     		.2byte	0x24c
 1232 0289 02       		.uleb128 0x2
 1233 028a C2050000 		.4byte	.LASF44
 1234 028e 03       		.byte	0x3
 1235 028f E901     		.2byte	0x1e9
 1236 0291 12       		.byte	0x12
 1237 0292 A8000000 		.4byte	0xa8
 1238 0296 5002     		.2byte	0x250
 1239 0298 02       		.uleb128 0x2
 1240 0299 E5050000 		.4byte	.LASF45
 1241 029d 03       		.byte	0x3
 1242 029e EA01     		.2byte	0x1ea
 1243 02a0 12       		.byte	0x12
 1244 02a1 FB030000 		.4byte	0x3fb
 1245 02a5 5402     		.2byte	0x254
 1246 02a7 02       		.uleb128 0x2
 1247 02a8 5C060000 		.4byte	.LASF46
 1248 02ac 03       		.byte	0x3
 1249 02ad EB01     		.2byte	0x1eb
 1250 02af 12       		.byte	0x12
 1251 02b0 A8000000 		.4byte	0xa8
 1252 02b4 5802     		.2byte	0x258
 1253 02b6 02       		.uleb128 0x2
 1254 02b7 4E070000 		.4byte	.LASF47
ARM GAS  C:\Users\DEVELO~1\AppData\Local\Temp\ccdu9vsZ.s 			page 23


 1255 02bb 03       		.byte	0x3
 1256 02bc EC01     		.2byte	0x1ec
 1257 02be 12       		.byte	0x12
 1258 02bf A8000000 		.4byte	0xa8
 1259 02c3 5C02     		.2byte	0x25c
 1260 02c5 02       		.uleb128 0x2
 1261 02c6 74060000 		.4byte	.LASF48
 1262 02ca 03       		.byte	0x3
 1263 02cb ED01     		.2byte	0x1ed
 1264 02cd 12       		.byte	0x12
 1265 02ce A8000000 		.4byte	0xa8
 1266 02d2 6002     		.2byte	0x260
 1267 02d4 02       		.uleb128 0x2
 1268 02d5 10030000 		.4byte	.LASF49
 1269 02d9 03       		.byte	0x3
 1270 02da EE01     		.2byte	0x1ee
 1271 02dc 12       		.byte	0x12
 1272 02dd A8000000 		.4byte	0xa8
 1273 02e1 6402     		.2byte	0x264
 1274 02e3 02       		.uleb128 0x2
 1275 02e4 A5020000 		.4byte	.LASF50
 1276 02e8 03       		.byte	0x3
 1277 02e9 EF01     		.2byte	0x1ef
 1278 02eb 12       		.byte	0x12
 1279 02ec A8000000 		.4byte	0xa8
 1280 02f0 6802     		.2byte	0x268
 1281 02f2 02       		.uleb128 0x2
 1282 02f3 2E070000 		.4byte	.LASF51
 1283 02f7 03       		.byte	0x3
 1284 02f8 F001     		.2byte	0x1f0
 1285 02fa 12       		.byte	0x12
 1286 02fb A8000000 		.4byte	0xa8
 1287 02ff 6C02     		.2byte	0x26c
 1288 0301 02       		.uleb128 0x2
 1289 0302 2E060000 		.4byte	.LASF52
 1290 0306 03       		.byte	0x3
 1291 0307 F101     		.2byte	0x1f1
 1292 0309 12       		.byte	0x12
 1293 030a A8000000 		.4byte	0xa8
 1294 030e 7002     		.2byte	0x270
 1295 0310 02       		.uleb128 0x2
 1296 0311 1D030000 		.4byte	.LASF53
 1297 0315 03       		.byte	0x3
 1298 0316 F201     		.2byte	0x1f2
 1299 0318 12       		.byte	0x12
 1300 0319 A8000000 		.4byte	0xa8
 1301 031d 7402     		.2byte	0x274
 1302 031f 02       		.uleb128 0x2
 1303 0320 EF050000 		.4byte	.LASF54
 1304 0324 03       		.byte	0x3
 1305 0325 F301     		.2byte	0x1f3
 1306 0327 12       		.byte	0x12
 1307 0328 2B040000 		.4byte	0x42b
 1308 032c 7802     		.2byte	0x278
 1309 032e 02       		.uleb128 0x2
 1310 032f 46040000 		.4byte	.LASF55
 1311 0333 03       		.byte	0x3
ARM GAS  C:\Users\DEVELO~1\AppData\Local\Temp\ccdu9vsZ.s 			page 24


 1312 0334 F401     		.2byte	0x1f4
 1313 0336 12       		.byte	0x12
 1314 0337 A8000000 		.4byte	0xa8
 1315 033b 9002     		.2byte	0x290
 1316 033d 02       		.uleb128 0x2
 1317 033e C7070000 		.4byte	.LASF56
 1318 0342 03       		.byte	0x3
 1319 0343 F501     		.2byte	0x1f5
 1320 0345 12       		.byte	0x12
 1321 0346 A8000000 		.4byte	0xa8
 1322 034a 9402     		.2byte	0x294
 1323 034c 02       		.uleb128 0x2
 1324 034d 73050000 		.4byte	.LASF57
 1325 0351 03       		.byte	0x3
 1326 0352 F601     		.2byte	0x1f6
 1327 0354 12       		.byte	0x12
 1328 0355 A8000000 		.4byte	0xa8
 1329 0359 9802     		.2byte	0x298
 1330 035b 02       		.uleb128 0x2
 1331 035c DF020000 		.4byte	.LASF58
 1332 0360 03       		.byte	0x3
 1333 0361 F701     		.2byte	0x1f7
 1334 0363 12       		.byte	0x12
 1335 0364 A8000000 		.4byte	0xa8
 1336 0368 9C02     		.2byte	0x29c
 1337 036a 02       		.uleb128 0x2
 1338 036b 12000000 		.4byte	.LASF59
 1339 036f 03       		.byte	0x3
 1340 0370 F801     		.2byte	0x1f8
 1341 0372 12       		.byte	0x12
 1342 0373 A8000000 		.4byte	0xa8
 1343 0377 A002     		.2byte	0x2a0
 1344 0379 02       		.uleb128 0x2
 1345 037a F9050000 		.4byte	.LASF60
 1346 037e 03       		.byte	0x3
 1347 037f F901     		.2byte	0x1f9
 1348 0381 12       		.byte	0x12
 1349 0382 FB030000 		.4byte	0x3fb
 1350 0386 A402     		.2byte	0x2a4
 1351 0388 02       		.uleb128 0x2
 1352 0389 85040000 		.4byte	.LASF61
 1353 038d 03       		.byte	0x3
 1354 038e FA01     		.2byte	0x1fa
 1355 0390 12       		.byte	0x12
 1356 0391 A8000000 		.4byte	0xa8
 1357 0395 A802     		.2byte	0x2a8
 1358 0397 00       		.byte	0
 1359 0398 06       		.uleb128 0x6
 1360 0399 97000000 		.4byte	0x97
 1361 039d A8030000 		.4byte	0x3a8
 1362 03a1 07       		.uleb128 0x7
 1363 03a2 2D000000 		.4byte	0x2d
 1364 03a6 0B       		.byte	0xb
 1365 03a7 00       		.byte	0
 1366 03a8 0A       		.uleb128 0xa
 1367 03a9 98030000 		.4byte	0x398
 1368 03ad 06       		.uleb128 0x6
ARM GAS  C:\Users\DEVELO~1\AppData\Local\Temp\ccdu9vsZ.s 			page 25


 1369 03ae AD000000 		.4byte	0xad
 1370 03b2 BD030000 		.4byte	0x3bd
 1371 03b6 07       		.uleb128 0x7
 1372 03b7 2D000000 		.4byte	0x2d
 1373 03bb 01       		.byte	0x1
 1374 03bc 00       		.byte	0
 1375 03bd 0F       		.uleb128 0xf
 1376 03be AD030000 		.4byte	0x3ad
 1377 03c2 0A       		.uleb128 0xa
 1378 03c3 BD030000 		.4byte	0x3bd
 1379 03c7 06       		.uleb128 0x6
 1380 03c8 AD000000 		.4byte	0xad
 1381 03cc D7030000 		.4byte	0x3d7
 1382 03d0 07       		.uleb128 0x7
 1383 03d1 2D000000 		.4byte	0x2d
 1384 03d5 03       		.byte	0x3
 1385 03d6 00       		.byte	0
 1386 03d7 0F       		.uleb128 0xf
 1387 03d8 C7030000 		.4byte	0x3c7
 1388 03dc 0A       		.uleb128 0xa
 1389 03dd D7030000 		.4byte	0x3d7
 1390 03e1 06       		.uleb128 0x6
 1391 03e2 AD000000 		.4byte	0xad
 1392 03e6 F1030000 		.4byte	0x3f1
 1393 03ea 07       		.uleb128 0x7
 1394 03eb 2D000000 		.4byte	0x2d
 1395 03ef 04       		.byte	0x4
 1396 03f0 00       		.byte	0
 1397 03f1 0F       		.uleb128 0xf
 1398 03f2 E1030000 		.4byte	0x3e1
 1399 03f6 0A       		.uleb128 0xa
 1400 03f7 F1030000 		.4byte	0x3f1
 1401 03fb 06       		.uleb128 0x6
 1402 03fc 9C000000 		.4byte	0x9c
 1403 0400 0B040000 		.4byte	0x40b
 1404 0404 07       		.uleb128 0x7
 1405 0405 2D000000 		.4byte	0x2d
 1406 0409 00       		.byte	0
 1407 040a 00       		.byte	0
 1408 040b 06       		.uleb128 0x6
 1409 040c 9C000000 		.4byte	0x9c
 1410 0410 1B040000 		.4byte	0x41b
 1411 0414 07       		.uleb128 0x7
 1412 0415 2D000000 		.4byte	0x2d
 1413 0419 5C       		.byte	0x5c
 1414 041a 00       		.byte	0
 1415 041b 06       		.uleb128 0x6
 1416 041c 9C000000 		.4byte	0x9c
 1417 0420 2B040000 		.4byte	0x42b
 1418 0424 07       		.uleb128 0x7
 1419 0425 2D000000 		.4byte	0x2d
 1420 0429 0E       		.byte	0xe
 1421 042a 00       		.byte	0
 1422 042b 06       		.uleb128 0x6
 1423 042c 9C000000 		.4byte	0x9c
 1424 0430 3B040000 		.4byte	0x43b
 1425 0434 07       		.uleb128 0x7
ARM GAS  C:\Users\DEVELO~1\AppData\Local\Temp\ccdu9vsZ.s 			page 26


 1426 0435 2D000000 		.4byte	0x2d
 1427 0439 05       		.byte	0x5
 1428 043a 00       		.byte	0
 1429 043b 0C       		.uleb128 0xc
 1430 043c 4B000000 		.4byte	.LASF62
 1431 0440 03       		.byte	0x3
 1432 0441 FB01     		.2byte	0x1fb
 1433 0443 B9000000 		.4byte	0xb9
 1434 0447 06       		.uleb128 0x6
 1435 0448 9C000000 		.4byte	0x9c
 1436 044c 57040000 		.4byte	0x457
 1437 0450 07       		.uleb128 0x7
 1438 0451 2D000000 		.4byte	0x2d
 1439 0455 01       		.byte	0x1
 1440 0456 00       		.byte	0
 1441 0457 18       		.uleb128 0x18
 1442 0458 03       		.byte	0x3
 1443 0459 9405     		.2byte	0x594
 1444 045b FA040000 		.4byte	0x4fa
 1445 045f 01       		.uleb128 0x1
 1446 0460 34070000 		.4byte	.LASF63
 1447 0464 03       		.byte	0x3
 1448 0465 9605     		.2byte	0x596
 1449 0467 12       		.byte	0x12
 1450 0468 AD000000 		.4byte	0xad
 1451 046c 00       		.byte	0
 1452 046d 01       		.uleb128 0x1
 1453 046e 6B070000 		.4byte	.LASF64
 1454 0472 03       		.byte	0x3
 1455 0473 9705     		.2byte	0x597
 1456 0475 12       		.byte	0x12
 1457 0476 A8000000 		.4byte	0xa8
 1458 047a 04       		.byte	0x4
 1459 047b 04       		.uleb128 0x4
 1460 047c 524E5200 		.ascii	"RNR\000"
 1461 0480 03       		.byte	0x3
 1462 0481 9805     		.2byte	0x598
 1463 0483 12       		.byte	0x12
 1464 0484 A8000000 		.4byte	0xa8
 1465 0488 08       		.byte	0x8
 1466 0489 01       		.uleb128 0x1
 1467 048a 27020000 		.4byte	.LASF65
 1468 048e 03       		.byte	0x3
 1469 048f 9905     		.2byte	0x599
 1470 0491 12       		.byte	0x12
 1471 0492 A8000000 		.4byte	0xa8
 1472 0496 0C       		.byte	0xc
 1473 0497 01       		.uleb128 0x1
 1474 0498 16070000 		.4byte	.LASF66
 1475 049c 03       		.byte	0x3
 1476 049d 9A05     		.2byte	0x59a
 1477 049f 12       		.byte	0x12
 1478 04a0 A8000000 		.4byte	0xa8
 1479 04a4 10       		.byte	0x10
 1480 04a5 01       		.uleb128 0x1
 1481 04a6 0F020000 		.4byte	.LASF67
 1482 04aa 03       		.byte	0x3
ARM GAS  C:\Users\DEVELO~1\AppData\Local\Temp\ccdu9vsZ.s 			page 27


 1483 04ab 9B05     		.2byte	0x59b
 1484 04ad 12       		.byte	0x12
 1485 04ae A8000000 		.4byte	0xa8
 1486 04b2 14       		.byte	0x14
 1487 04b3 01       		.uleb128 0x1
 1488 04b4 DC000000 		.4byte	.LASF68
 1489 04b8 03       		.byte	0x3
 1490 04b9 9C05     		.2byte	0x59c
 1491 04bb 12       		.byte	0x12
 1492 04bc A8000000 		.4byte	0xa8
 1493 04c0 18       		.byte	0x18
 1494 04c1 01       		.uleb128 0x1
 1495 04c2 17020000 		.4byte	.LASF69
 1496 04c6 03       		.byte	0x3
 1497 04c7 9D05     		.2byte	0x59d
 1498 04c9 12       		.byte	0x12
 1499 04ca A8000000 		.4byte	0xa8
 1500 04ce 1C       		.byte	0x1c
 1501 04cf 01       		.uleb128 0x1
 1502 04d0 E4000000 		.4byte	.LASF70
 1503 04d4 03       		.byte	0x3
 1504 04d5 9E05     		.2byte	0x59e
 1505 04d7 12       		.byte	0x12
 1506 04d8 A8000000 		.4byte	0xa8
 1507 04dc 20       		.byte	0x20
 1508 04dd 01       		.uleb128 0x1
 1509 04de 1F020000 		.4byte	.LASF71
 1510 04e2 03       		.byte	0x3
 1511 04e3 9F05     		.2byte	0x59f
 1512 04e5 12       		.byte	0x12
 1513 04e6 A8000000 		.4byte	0xa8
 1514 04ea 24       		.byte	0x24
 1515 04eb 01       		.uleb128 0x1
 1516 04ec EC000000 		.4byte	.LASF72
 1517 04f0 03       		.byte	0x3
 1518 04f1 A005     		.2byte	0x5a0
 1519 04f3 12       		.byte	0x12
 1520 04f4 A8000000 		.4byte	0xa8
 1521 04f8 28       		.byte	0x28
 1522 04f9 00       		.byte	0
 1523 04fa 0C       		.uleb128 0xc
 1524 04fb F5070000 		.4byte	.LASF73
 1525 04ff 03       		.byte	0x3
 1526 0500 A105     		.2byte	0x5a1
 1527 0502 57040000 		.4byte	0x457
 1528 0506 21       		.uleb128 0x21
 1529 0507 00030000 		.4byte	.LASF176
 1530 050b 0B       		.byte	0xb
 1531 050c 39       		.byte	0x39
 1532 050d 11       		.byte	0x11
 1533 050e 9C000000 		.4byte	0x9c
 1534 0512 06       		.uleb128 0x6
 1535 0513 9C000000 		.4byte	0x9c
 1536 0517 22050000 		.4byte	0x522
 1537 051b 07       		.uleb128 0x7
 1538 051c 2D000000 		.4byte	0x2d
 1539 0520 03       		.byte	0x3
ARM GAS  C:\Users\DEVELO~1\AppData\Local\Temp\ccdu9vsZ.s 			page 28


 1540 0521 00       		.byte	0
 1541 0522 06       		.uleb128 0x6
 1542 0523 9C000000 		.4byte	0x9c
 1543 0527 32050000 		.4byte	0x532
 1544 052b 07       		.uleb128 0x7
 1545 052c 2D000000 		.4byte	0x2d
 1546 0530 08       		.byte	0x8
 1547 0531 00       		.byte	0
 1548 0532 10       		.uleb128 0x10
 1549 0533 6401     		.2byte	0x164
 1550 0535 07       		.byte	0x7
 1551 0536 9303     		.2byte	0x393
 1552 0538 A5070000 		.4byte	0x7a5
 1553 053c 04       		.uleb128 0x4
 1554 053d 41435200 		.ascii	"ACR\000"
 1555 0541 07       		.byte	0x7
 1556 0542 9503     		.2byte	0x395
 1557 0544 11       		.byte	0x11
 1558 0545 A8000000 		.4byte	0xa8
 1559 0549 00       		.byte	0
 1560 054a 01       		.uleb128 0x1
 1561 054b 43070000 		.4byte	.LASF74
 1562 054f 07       		.byte	0x7
 1563 0550 9603     		.2byte	0x396
 1564 0552 11       		.byte	0x11
 1565 0553 A8000000 		.4byte	0xa8
 1566 0557 04       		.byte	0x4
 1567 0558 01       		.uleb128 0x1
 1568 0559 2C020000 		.4byte	.LASF75
 1569 055d 07       		.byte	0x7
 1570 055e 9703     		.2byte	0x397
 1571 0560 11       		.byte	0x11
 1572 0561 A8000000 		.4byte	0xa8
 1573 0565 08       		.byte	0x8
 1574 0566 04       		.uleb128 0x4
 1575 0567 43523100 		.ascii	"CR1\000"
 1576 056b 07       		.byte	0x7
 1577 056c 9803     		.2byte	0x398
 1578 056e 11       		.byte	0x11
 1579 056f A8000000 		.4byte	0xa8
 1580 0573 0C       		.byte	0xc
 1581 0574 04       		.uleb128 0x4
 1582 0575 53523100 		.ascii	"SR1\000"
 1583 0579 07       		.byte	0x7
 1584 057a 9903     		.2byte	0x399
 1585 057c 11       		.byte	0x11
 1586 057d A8000000 		.4byte	0xa8
 1587 0581 10       		.byte	0x10
 1588 0582 01       		.uleb128 0x1
 1589 0583 98070000 		.4byte	.LASF76
 1590 0587 07       		.byte	0x7
 1591 0588 9A03     		.2byte	0x39a
 1592 058a 11       		.byte	0x11
 1593 058b A8000000 		.4byte	0xa8
 1594 058f 14       		.byte	0x14
 1595 0590 01       		.uleb128 0x1
 1596 0591 68000000 		.4byte	.LASF77
ARM GAS  C:\Users\DEVELO~1\AppData\Local\Temp\ccdu9vsZ.s 			page 29


 1597 0595 07       		.byte	0x7
 1598 0596 9B03     		.2byte	0x39b
 1599 0598 11       		.byte	0x11
 1600 0599 A8000000 		.4byte	0xa8
 1601 059d 18       		.byte	0x18
 1602 059e 01       		.uleb128 0x1
 1603 059f 23050000 		.4byte	.LASF78
 1604 05a3 07       		.byte	0x7
 1605 05a4 9C03     		.2byte	0x39c
 1606 05a6 11       		.byte	0x11
 1607 05a7 A8000000 		.4byte	0xa8
 1608 05ab 1C       		.byte	0x1c
 1609 05ac 01       		.uleb128 0x1
 1610 05ad 1B070000 		.4byte	.LASF79
 1611 05b1 07       		.byte	0x7
 1612 05b2 9D03     		.2byte	0x39d
 1613 05b4 11       		.byte	0x11
 1614 05b5 A8000000 		.4byte	0xa8
 1615 05b9 20       		.byte	0x20
 1616 05ba 01       		.uleb128 0x1
 1617 05bb 65010000 		.4byte	.LASF80
 1618 05bf 07       		.byte	0x7
 1619 05c0 9E03     		.2byte	0x39e
 1620 05c2 11       		.byte	0x11
 1621 05c3 A8000000 		.4byte	0xa8
 1622 05c7 24       		.byte	0x24
 1623 05c8 01       		.uleb128 0x1
 1624 05c9 53040000 		.4byte	.LASF81
 1625 05cd 07       		.byte	0x7
 1626 05ce 9F03     		.2byte	0x39f
 1627 05d0 11       		.byte	0x11
 1628 05d1 A8000000 		.4byte	0xa8
 1629 05d5 28       		.byte	0x28
 1630 05d6 01       		.uleb128 0x1
 1631 05d7 6E000000 		.4byte	.LASF82
 1632 05db 07       		.byte	0x7
 1633 05dc A003     		.2byte	0x3a0
 1634 05de 11       		.byte	0x11
 1635 05df A8000000 		.4byte	0xa8
 1636 05e3 2C       		.byte	0x2c
 1637 05e4 01       		.uleb128 0x1
 1638 05e5 34020000 		.4byte	.LASF83
 1639 05e9 07       		.byte	0x7
 1640 05ea A103     		.2byte	0x3a1
 1641 05ec 11       		.byte	0x11
 1642 05ed A8000000 		.4byte	0xa8
 1643 05f1 30       		.byte	0x30
 1644 05f2 01       		.uleb128 0x1
 1645 05f3 A6040000 		.4byte	.LASF84
 1646 05f7 07       		.byte	0x7
 1647 05f8 A203     		.2byte	0x3a2
 1648 05fa 11       		.byte	0x11
 1649 05fb A8000000 		.4byte	0xa8
 1650 05ff 34       		.byte	0x34
 1651 0600 01       		.uleb128 0x1
 1652 0601 79070000 		.4byte	.LASF85
 1653 0605 07       		.byte	0x7
ARM GAS  C:\Users\DEVELO~1\AppData\Local\Temp\ccdu9vsZ.s 			page 30


 1654 0606 A303     		.2byte	0x3a3
 1655 0608 11       		.byte	0x11
 1656 0609 A8000000 		.4byte	0xa8
 1657 060d 38       		.byte	0x38
 1658 060e 01       		.uleb128 0x1
 1659 060f D7040000 		.4byte	.LASF86
 1660 0613 07       		.byte	0x7
 1661 0614 A403     		.2byte	0x3a4
 1662 0616 11       		.byte	0x11
 1663 0617 A8000000 		.4byte	0xa8
 1664 061b 3C       		.byte	0x3c
 1665 061c 01       		.uleb128 0x1
 1666 061d 27010000 		.4byte	.LASF87
 1667 0621 07       		.byte	0x7
 1668 0622 A503     		.2byte	0x3a5
 1669 0624 11       		.byte	0x11
 1670 0625 A8000000 		.4byte	0xa8
 1671 0629 40       		.byte	0x40
 1672 062a 01       		.uleb128 0x1
 1673 062b F0030000 		.4byte	.LASF88
 1674 062f 07       		.byte	0x7
 1675 0630 A603     		.2byte	0x3a6
 1676 0632 11       		.byte	0x11
 1677 0633 A8000000 		.4byte	0xa8
 1678 0637 44       		.byte	0x44
 1679 0638 01       		.uleb128 0x1
 1680 0639 AE050000 		.4byte	.LASF32
 1681 063d 07       		.byte	0x7
 1682 063e A703     		.2byte	0x3a7
 1683 0640 11       		.byte	0x11
 1684 0641 47040000 		.4byte	0x447
 1685 0645 48       		.byte	0x48
 1686 0646 01       		.uleb128 0x1
 1687 0647 15050000 		.4byte	.LASF89
 1688 064b 07       		.byte	0x7
 1689 064c A803     		.2byte	0x3a8
 1690 064e 11       		.byte	0x11
 1691 064f A8000000 		.4byte	0xa8
 1692 0653 50       		.byte	0x50
 1693 0654 01       		.uleb128 0x1
 1694 0655 D6070000 		.4byte	.LASF90
 1695 0659 07       		.byte	0x7
 1696 065a A903     		.2byte	0x3a9
 1697 065c 11       		.byte	0x11
 1698 065d A8000000 		.4byte	0xa8
 1699 0661 54       		.byte	0x54
 1700 0662 01       		.uleb128 0x1
 1701 0663 F0040000 		.4byte	.LASF91
 1702 0667 07       		.byte	0x7
 1703 0668 AA03     		.2byte	0x3aa
 1704 066a 11       		.byte	0x11
 1705 066b A8000000 		.4byte	0xa8
 1706 066f 58       		.byte	0x58
 1707 0670 01       		.uleb128 0x1
 1708 0671 28000000 		.4byte	.LASF92
 1709 0675 07       		.byte	0x7
 1710 0676 AB03     		.2byte	0x3ab
ARM GAS  C:\Users\DEVELO~1\AppData\Local\Temp\ccdu9vsZ.s 			page 31


 1711 0678 11       		.byte	0x11
 1712 0679 A8000000 		.4byte	0xa8
 1713 067d 5C       		.byte	0x5c
 1714 067e 01       		.uleb128 0x1
 1715 067f 64060000 		.4byte	.LASF93
 1716 0683 07       		.byte	0x7
 1717 0684 AC03     		.2byte	0x3ac
 1718 0686 11       		.byte	0x11
 1719 0687 A8000000 		.4byte	0xa8
 1720 068b 60       		.byte	0x60
 1721 068c 01       		.uleb128 0x1
 1722 068d B8050000 		.4byte	.LASF94
 1723 0691 07       		.byte	0x7
 1724 0692 AD03     		.2byte	0x3ad
 1725 0694 11       		.byte	0x11
 1726 0695 A5070000 		.4byte	0x7a5
 1727 0699 64       		.byte	0x64
 1728 069a 02       		.uleb128 0x2
 1729 069b 56070000 		.4byte	.LASF95
 1730 069f 07       		.byte	0x7
 1731 06a0 AE03     		.2byte	0x3ae
 1732 06a2 11       		.byte	0x11
 1733 06a3 A8000000 		.4byte	0xa8
 1734 06a7 0401     		.2byte	0x104
 1735 06a9 02       		.uleb128 0x2
 1736 06aa 93060000 		.4byte	.LASF96
 1737 06ae 07       		.byte	0x7
 1738 06af AF03     		.2byte	0x3af
 1739 06b1 11       		.byte	0x11
 1740 06b2 9C000000 		.4byte	0x9c
 1741 06b6 0801     		.2byte	0x108
 1742 06b8 19       		.uleb128 0x19
 1743 06b9 43523200 		.ascii	"CR2\000"
 1744 06bd B003     		.2byte	0x3b0
 1745 06bf A8000000 		.4byte	0xa8
 1746 06c3 0C01     		.2byte	0x10c
 1747 06c5 19       		.uleb128 0x19
 1748 06c6 53523200 		.ascii	"SR2\000"
 1749 06ca B103     		.2byte	0x3b1
 1750 06cc A8000000 		.4byte	0xa8
 1751 06d0 1001     		.2byte	0x110
 1752 06d2 02       		.uleb128 0x2
 1753 06d3 9D070000 		.4byte	.LASF97
 1754 06d7 07       		.byte	0x7
 1755 06d8 B203     		.2byte	0x3b2
 1756 06da 11       		.byte	0x11
 1757 06db A8000000 		.4byte	0xa8
 1758 06df 1401     		.2byte	0x114
 1759 06e1 02       		.uleb128 0x2
 1760 06e2 CA050000 		.4byte	.LASF37
 1761 06e6 07       		.byte	0x7
 1762 06e7 B303     		.2byte	0x3b3
 1763 06e9 11       		.byte	0x11
 1764 06ea 12050000 		.4byte	0x512
 1765 06ee 1801     		.2byte	0x118
 1766 06f0 02       		.uleb128 0x2
 1767 06f1 5D040000 		.4byte	.LASF98
ARM GAS  C:\Users\DEVELO~1\AppData\Local\Temp\ccdu9vsZ.s 			page 32


 1768 06f5 07       		.byte	0x7
 1769 06f6 B403     		.2byte	0x3b4
 1770 06f8 11       		.byte	0x11
 1771 06f9 A8000000 		.4byte	0xa8
 1772 06fd 2801     		.2byte	0x128
 1773 06ff 02       		.uleb128 0x2
 1774 0700 78000000 		.4byte	.LASF99
 1775 0704 07       		.byte	0x7
 1776 0705 B503     		.2byte	0x3b5
 1777 0707 11       		.byte	0x11
 1778 0708 A8000000 		.4byte	0xa8
 1779 070c 2C01     		.2byte	0x12c
 1780 070e 02       		.uleb128 0x2
 1781 070f 46020000 		.4byte	.LASF100
 1782 0713 07       		.byte	0x7
 1783 0714 B603     		.2byte	0x3b6
 1784 0716 11       		.byte	0x11
 1785 0717 A8000000 		.4byte	0xa8
 1786 071b 3001     		.2byte	0x130
 1787 071d 02       		.uleb128 0x2
 1788 071e B0040000 		.4byte	.LASF101
 1789 0722 07       		.byte	0x7
 1790 0723 B703     		.2byte	0x3b7
 1791 0725 11       		.byte	0x11
 1792 0726 A8000000 		.4byte	0xa8
 1793 072a 3401     		.2byte	0x134
 1794 072c 02       		.uleb128 0x2
 1795 072d 83070000 		.4byte	.LASF102
 1796 0731 07       		.byte	0x7
 1797 0732 B803     		.2byte	0x3b8
 1798 0734 11       		.byte	0x11
 1799 0735 A8000000 		.4byte	0xa8
 1800 0739 3801     		.2byte	0x138
 1801 073b 02       		.uleb128 0x2
 1802 073c E1040000 		.4byte	.LASF103
 1803 0740 07       		.byte	0x7
 1804 0741 B903     		.2byte	0x3b9
 1805 0743 11       		.byte	0x11
 1806 0744 A8000000 		.4byte	0xa8
 1807 0748 3C01     		.2byte	0x13c
 1808 074a 02       		.uleb128 0x2
 1809 074b AC060000 		.4byte	.LASF39
 1810 074f 07       		.byte	0x7
 1811 0750 BA03     		.2byte	0x3ba
 1812 0752 11       		.byte	0x11
 1813 0753 12050000 		.4byte	0x512
 1814 0757 4001     		.2byte	0x140
 1815 0759 02       		.uleb128 0x2
 1816 075a 1C050000 		.4byte	.LASF104
 1817 075e 07       		.byte	0x7
 1818 075f BB03     		.2byte	0x3bb
 1819 0761 11       		.byte	0x11
 1820 0762 A8000000 		.4byte	0xa8
 1821 0766 5001     		.2byte	0x150
 1822 0768 02       		.uleb128 0x2
 1823 0769 DF070000 		.4byte	.LASF105
 1824 076d 07       		.byte	0x7
ARM GAS  C:\Users\DEVELO~1\AppData\Local\Temp\ccdu9vsZ.s 			page 33


 1825 076e BC03     		.2byte	0x3bc
 1826 0770 11       		.byte	0x11
 1827 0771 A8000000 		.4byte	0xa8
 1828 0775 5401     		.2byte	0x154
 1829 0777 02       		.uleb128 0x2
 1830 0778 F9040000 		.4byte	.LASF106
 1831 077c 07       		.byte	0x7
 1832 077d BD03     		.2byte	0x3bd
 1833 077f 11       		.byte	0x11
 1834 0780 A8000000 		.4byte	0xa8
 1835 0784 5801     		.2byte	0x158
 1836 0786 02       		.uleb128 0x2
 1837 0787 8D010000 		.4byte	.LASF107
 1838 078b 07       		.byte	0x7
 1839 078c BE03     		.2byte	0x3be
 1840 078e 11       		.byte	0x11
 1841 078f A8000000 		.4byte	0xa8
 1842 0793 5C01     		.2byte	0x15c
 1843 0795 02       		.uleb128 0x2
 1844 0796 6C060000 		.4byte	.LASF108
 1845 079a 07       		.byte	0x7
 1846 079b BF03     		.2byte	0x3bf
 1847 079d 11       		.byte	0x11
 1848 079e A8000000 		.4byte	0xa8
 1849 07a2 6001     		.2byte	0x160
 1850 07a4 00       		.byte	0
 1851 07a5 06       		.uleb128 0x6
 1852 07a6 9C000000 		.4byte	0x9c
 1853 07aa B5070000 		.4byte	0x7b5
 1854 07ae 07       		.uleb128 0x7
 1855 07af 2D000000 		.4byte	0x2d
 1856 07b3 27       		.byte	0x27
 1857 07b4 00       		.byte	0
 1858 07b5 0C       		.uleb128 0xc
 1859 07b6 3E010000 		.4byte	.LASF109
 1860 07ba 07       		.byte	0x7
 1861 07bb C003     		.2byte	0x3c0
 1862 07bd 32050000 		.4byte	0x532
 1863 07c1 18       		.uleb128 0x18
 1864 07c2 07       		.byte	0x7
 1865 07c3 BB04     		.2byte	0x4bb
 1866 07c5 64080000 		.4byte	0x864
 1867 07c9 04       		.uleb128 0x4
 1868 07ca 43523100 		.ascii	"CR1\000"
 1869 07ce 07       		.byte	0x7
 1870 07cf BD04     		.2byte	0x4bd
 1871 07d1 11       		.byte	0x11
 1872 07d2 A8000000 		.4byte	0xa8
 1873 07d6 00       		.byte	0
 1874 07d7 01       		.uleb128 0x1
 1875 07d8 1F080000 		.4byte	.LASF110
 1876 07dc 07       		.byte	0x7
 1877 07dd BE04     		.2byte	0x4be
 1878 07df 11       		.byte	0x11
 1879 07e0 A8000000 		.4byte	0xa8
 1880 07e4 04       		.byte	0x4
 1881 07e5 04       		.uleb128 0x4
ARM GAS  C:\Users\DEVELO~1\AppData\Local\Temp\ccdu9vsZ.s 			page 34


 1882 07e6 43523200 		.ascii	"CR2\000"
 1883 07ea 07       		.byte	0x7
 1884 07eb BF04     		.2byte	0x4bf
 1885 07ed 11       		.byte	0x11
 1886 07ee A8000000 		.4byte	0xa8
 1887 07f2 08       		.byte	0x8
 1888 07f3 04       		.uleb128 0x4
 1889 07f4 43523300 		.ascii	"CR3\000"
 1890 07f8 07       		.byte	0x7
 1891 07f9 C004     		.2byte	0x4c0
 1892 07fb 11       		.byte	0x11
 1893 07fc A8000000 		.4byte	0xa8
 1894 0800 0C       		.byte	0xc
 1895 0801 01       		.uleb128 0x1
 1896 0802 24030000 		.4byte	.LASF111
 1897 0806 07       		.byte	0x7
 1898 0807 C104     		.2byte	0x4c1
 1899 0809 11       		.byte	0x11
 1900 080a A8000000 		.4byte	0xa8
 1901 080e 10       		.byte	0x10
 1902 080f 01       		.uleb128 0x1
 1903 0810 AE050000 		.4byte	.LASF32
 1904 0814 07       		.byte	0x7
 1905 0815 C204     		.2byte	0x4c2
 1906 0817 11       		.byte	0x11
 1907 0818 9C000000 		.4byte	0x9c
 1908 081c 14       		.byte	0x14
 1909 081d 01       		.uleb128 0x1
 1910 081e C8060000 		.4byte	.LASF112
 1911 0822 07       		.byte	0x7
 1912 0823 C304     		.2byte	0x4c3
 1913 0825 11       		.byte	0x11
 1914 0826 A8000000 		.4byte	0xa8
 1915 082a 18       		.byte	0x18
 1916 082b 01       		.uleb128 0x1
 1917 082c B8050000 		.4byte	.LASF94
 1918 0830 07       		.byte	0x7
 1919 0831 C404     		.2byte	0x4c4
 1920 0833 11       		.byte	0x11
 1921 0834 9C000000 		.4byte	0x9c
 1922 0838 1C       		.byte	0x1c
 1923 0839 01       		.uleb128 0x1
 1924 083a 30010000 		.4byte	.LASF113
 1925 083e 07       		.byte	0x7
 1926 083f C504     		.2byte	0x4c5
 1927 0841 11       		.byte	0x11
 1928 0842 A8000000 		.4byte	0xa8
 1929 0846 20       		.byte	0x20
 1930 0847 01       		.uleb128 0x1
 1931 0848 21000000 		.4byte	.LASF114
 1932 084c 07       		.byte	0x7
 1933 084d C604     		.2byte	0x4c6
 1934 084f 11       		.byte	0x11
 1935 0850 A8000000 		.4byte	0xa8
 1936 0854 24       		.byte	0x24
 1937 0855 01       		.uleb128 0x1
 1938 0856 F8020000 		.4byte	.LASF115
ARM GAS  C:\Users\DEVELO~1\AppData\Local\Temp\ccdu9vsZ.s 			page 35


 1939 085a 07       		.byte	0x7
 1940 085b C704     		.2byte	0x4c7
 1941 085d 11       		.byte	0x11
 1942 085e A8000000 		.4byte	0xa8
 1943 0862 28       		.byte	0x28
 1944 0863 00       		.byte	0
 1945 0864 0C       		.uleb128 0xc
 1946 0865 94040000 		.4byte	.LASF116
 1947 0869 07       		.byte	0x7
 1948 086a C804     		.2byte	0x4c8
 1949 086c C1070000 		.4byte	0x7c1
 1950 0870 10       		.uleb128 0x10
 1951 0871 3001     		.2byte	0x130
 1952 0873 07       		.byte	0x7
 1953 0874 CE04     		.2byte	0x4ce
 1954 0876 110C0000 		.4byte	0xc11
 1955 087a 04       		.uleb128 0x4
 1956 087b 435200   		.ascii	"CR\000"
 1957 087e 07       		.byte	0x7
 1958 087f D004     		.2byte	0x4d0
 1959 0881 10       		.byte	0x10
 1960 0882 A8000000 		.4byte	0xa8
 1961 0886 00       		.byte	0
 1962 0887 01       		.uleb128 0x1
 1963 0888 2A040000 		.4byte	.LASF117
 1964 088c 07       		.byte	0x7
 1965 088d D104     		.2byte	0x4d1
 1966 088f 10       		.byte	0x10
 1967 0890 A8000000 		.4byte	0xa8
 1968 0894 04       		.byte	0x4
 1969 0895 01       		.uleb128 0x1
 1970 0896 64020000 		.4byte	.LASF118
 1971 089a 07       		.byte	0x7
 1972 089b D204     		.2byte	0x4d2
 1973 089d 10       		.byte	0x10
 1974 089e A8000000 		.4byte	0xa8
 1975 08a2 08       		.byte	0x8
 1976 08a3 01       		.uleb128 0x1
 1977 08a4 5C070000 		.4byte	.LASF119
 1978 08a8 07       		.byte	0x7
 1979 08a9 D304     		.2byte	0x4d3
 1980 08ab 10       		.byte	0x10
 1981 08ac A8000000 		.4byte	0xa8
 1982 08b0 0C       		.byte	0xc
 1983 08b1 01       		.uleb128 0x1
 1984 08b2 06080000 		.4byte	.LASF120
 1985 08b6 07       		.byte	0x7
 1986 08b7 D404     		.2byte	0x4d4
 1987 08b9 10       		.byte	0x10
 1988 08ba A8000000 		.4byte	0xa8
 1989 08be 10       		.byte	0x10
 1990 08bf 01       		.uleb128 0x1
 1991 08c0 B8050000 		.4byte	.LASF94
 1992 08c4 07       		.byte	0x7
 1993 08c5 D504     		.2byte	0x4d5
 1994 08c7 0F       		.byte	0xf
 1995 08c8 9C000000 		.4byte	0x9c
ARM GAS  C:\Users\DEVELO~1\AppData\Local\Temp\ccdu9vsZ.s 			page 36


 1996 08cc 14       		.byte	0x14
 1997 08cd 01       		.uleb128 0x1
 1998 08ce 3B080000 		.4byte	.LASF121
 1999 08d2 07       		.byte	0x7
 2000 08d3 D604     		.2byte	0x4d6
 2001 08d5 10       		.byte	0x10
 2002 08d6 A8000000 		.4byte	0xa8
 2003 08da 18       		.byte	0x18
 2004 08db 01       		.uleb128 0x1
 2005 08dc D4050000 		.4byte	.LASF122
 2006 08e0 07       		.byte	0x7
 2007 08e1 D704     		.2byte	0x4d7
 2008 08e3 10       		.byte	0x10
 2009 08e4 A8000000 		.4byte	0xa8
 2010 08e8 1C       		.byte	0x1c
 2011 08e9 01       		.uleb128 0x1
 2012 08ea 50020000 		.4byte	.LASF123
 2013 08ee 07       		.byte	0x7
 2014 08ef D804     		.2byte	0x4d8
 2015 08f1 10       		.byte	0x10
 2016 08f2 A8000000 		.4byte	0xa8
 2017 08f6 20       		.byte	0x20
 2018 08f7 01       		.uleb128 0x1
 2019 08f8 93060000 		.4byte	.LASF96
 2020 08fc 07       		.byte	0x7
 2021 08fd D904     		.2byte	0x4d9
 2022 08ff 0F       		.byte	0xf
 2023 0900 9C000000 		.4byte	0x9c
 2024 0904 24       		.byte	0x24
 2025 0905 01       		.uleb128 0x1
 2026 0906 1B040000 		.4byte	.LASF124
 2027 090a 07       		.byte	0x7
 2028 090b DA04     		.2byte	0x4da
 2029 090d 10       		.byte	0x10
 2030 090e A8000000 		.4byte	0xa8
 2031 0912 28       		.byte	0x28
 2032 0913 01       		.uleb128 0x1
 2033 0914 57020000 		.4byte	.LASF125
 2034 0918 07       		.byte	0x7
 2035 0919 DB04     		.2byte	0x4db
 2036 091b 10       		.byte	0x10
 2037 091c A8000000 		.4byte	0xa8
 2038 0920 2C       		.byte	0x2c
 2039 0921 01       		.uleb128 0x1
 2040 0922 D2060000 		.4byte	.LASF126
 2041 0926 07       		.byte	0x7
 2042 0927 DC04     		.2byte	0x4dc
 2043 0929 10       		.byte	0x10
 2044 092a A8000000 		.4byte	0xa8
 2045 092e 30       		.byte	0x30
 2046 092f 01       		.uleb128 0x1
 2047 0930 EC010000 		.4byte	.LASF127
 2048 0934 07       		.byte	0x7
 2049 0935 DD04     		.2byte	0x4dd
 2050 0937 10       		.byte	0x10
 2051 0938 A8000000 		.4byte	0xa8
 2052 093c 34       		.byte	0x34
ARM GAS  C:\Users\DEVELO~1\AppData\Local\Temp\ccdu9vsZ.s 			page 37


 2053 093d 01       		.uleb128 0x1
 2054 093e 09060000 		.4byte	.LASF128
 2055 0942 07       		.byte	0x7
 2056 0943 DE04     		.2byte	0x4de
 2057 0945 10       		.byte	0x10
 2058 0946 A8000000 		.4byte	0xa8
 2059 094a 38       		.byte	0x38
 2060 094b 01       		.uleb128 0x1
 2061 094c D5020000 		.4byte	.LASF129
 2062 0950 07       		.byte	0x7
 2063 0951 DF04     		.2byte	0x4df
 2064 0953 10       		.byte	0x10
 2065 0954 A8000000 		.4byte	0xa8
 2066 0958 3C       		.byte	0x3c
 2067 0959 01       		.uleb128 0x1
 2068 095a 6F020000 		.4byte	.LASF130
 2069 095e 07       		.byte	0x7
 2070 095f E004     		.2byte	0x4e0
 2071 0961 10       		.byte	0x10
 2072 0962 A8000000 		.4byte	0xa8
 2073 0966 40       		.byte	0x40
 2074 0967 01       		.uleb128 0x1
 2075 0968 7B040000 		.4byte	.LASF131
 2076 096c 07       		.byte	0x7
 2077 096d E104     		.2byte	0x4e1
 2078 096f 10       		.byte	0x10
 2079 0970 A8000000 		.4byte	0xa8
 2080 0974 44       		.byte	0x44
 2081 0975 01       		.uleb128 0x1
 2082 0976 CA050000 		.4byte	.LASF37
 2083 097a 07       		.byte	0x7
 2084 097b E204     		.2byte	0x4e2
 2085 097d 10       		.byte	0x10
 2086 097e 9C000000 		.4byte	0x9c
 2087 0982 48       		.byte	0x48
 2088 0983 01       		.uleb128 0x1
 2089 0984 DB060000 		.4byte	.LASF132
 2090 0988 07       		.byte	0x7
 2091 0989 E304     		.2byte	0x4e3
 2092 098b 11       		.byte	0x11
 2093 098c A8000000 		.4byte	0xa8
 2094 0990 4C       		.byte	0x4c
 2095 0991 01       		.uleb128 0x1
 2096 0992 88020000 		.4byte	.LASF133
 2097 0996 07       		.byte	0x7
 2098 0997 E404     		.2byte	0x4e4
 2099 0999 11       		.byte	0x11
 2100 099a A8000000 		.4byte	0xa8
 2101 099e 50       		.byte	0x50
 2102 099f 01       		.uleb128 0x1
 2103 09a0 F9030000 		.4byte	.LASF134
 2104 09a4 07       		.byte	0x7
 2105 09a5 E504     		.2byte	0x4e5
 2106 09a7 11       		.byte	0x11
 2107 09a8 A8000000 		.4byte	0xa8
 2108 09ac 54       		.byte	0x54
 2109 09ad 01       		.uleb128 0x1
ARM GAS  C:\Users\DEVELO~1\AppData\Local\Temp\ccdu9vsZ.s 			page 38


 2110 09ae 96020000 		.4byte	.LASF135
 2111 09b2 07       		.byte	0x7
 2112 09b3 E604     		.2byte	0x4e6
 2113 09b5 11       		.byte	0x11
 2114 09b6 A8000000 		.4byte	0xa8
 2115 09ba 58       		.byte	0x58
 2116 09bb 01       		.uleb128 0x1
 2117 09bc AC060000 		.4byte	.LASF39
 2118 09c0 07       		.byte	0x7
 2119 09c1 E704     		.2byte	0x4e7
 2120 09c3 10       		.byte	0x10
 2121 09c4 9C000000 		.4byte	0x9c
 2122 09c8 5C       		.byte	0x5c
 2123 09c9 01       		.uleb128 0x1
 2124 09ca 0B010000 		.4byte	.LASF136
 2125 09ce 07       		.byte	0x7
 2126 09cf E804     		.2byte	0x4e8
 2127 09d1 11       		.byte	0x11
 2128 09d2 A8000000 		.4byte	0xa8
 2129 09d6 60       		.byte	0x60
 2130 09d7 01       		.uleb128 0x1
 2131 09d8 6A020000 		.4byte	.LASF137
 2132 09dc 07       		.byte	0x7
 2133 09dd E904     		.2byte	0x4e9
 2134 09df 11       		.byte	0x11
 2135 09e0 A8000000 		.4byte	0xa8
 2136 09e4 64       		.byte	0x64
 2137 09e5 01       		.uleb128 0x1
 2138 09e6 A2070000 		.4byte	.LASF138
 2139 09ea 07       		.byte	0x7
 2140 09eb EA04     		.2byte	0x4ea
 2141 09ed 11       		.byte	0x11
 2142 09ee A8000000 		.4byte	0xa8
 2143 09f2 68       		.byte	0x68
 2144 09f3 01       		.uleb128 0x1
 2145 09f4 DB050000 		.4byte	.LASF43
 2146 09f8 07       		.byte	0x7
 2147 09f9 EB04     		.2byte	0x4eb
 2148 09fb 0F       		.byte	0xf
 2149 09fc 9C000000 		.4byte	0x9c
 2150 0a00 6C       		.byte	0x6c
 2151 0a01 01       		.uleb128 0x1
 2152 0a02 49070000 		.4byte	.LASF139
 2153 0a06 07       		.byte	0x7
 2154 0a07 EC04     		.2byte	0x4ec
 2155 0a09 11       		.byte	0x11
 2156 0a0a A8000000 		.4byte	0xa8
 2157 0a0e 70       		.byte	0x70
 2158 0a0f 04       		.uleb128 0x4
 2159 0a10 43535200 		.ascii	"CSR\000"
 2160 0a14 07       		.byte	0x7
 2161 0a15 ED04     		.2byte	0x4ed
 2162 0a17 11       		.byte	0x11
 2163 0a18 A8000000 		.4byte	0xa8
 2164 0a1c 74       		.byte	0x74
 2165 0a1d 01       		.uleb128 0x1
 2166 0a1e E5050000 		.4byte	.LASF45
ARM GAS  C:\Users\DEVELO~1\AppData\Local\Temp\ccdu9vsZ.s 			page 39


 2167 0a22 07       		.byte	0x7
 2168 0a23 EE04     		.2byte	0x4ee
 2169 0a25 0F       		.byte	0xf
 2170 0a26 9C000000 		.4byte	0x9c
 2171 0a2a 78       		.byte	0x78
 2172 0a2b 01       		.uleb128 0x1
 2173 0a2c 82060000 		.4byte	.LASF140
 2174 0a30 07       		.byte	0x7
 2175 0a31 EF04     		.2byte	0x4ef
 2176 0a33 10       		.byte	0x10
 2177 0a34 A8000000 		.4byte	0xa8
 2178 0a38 7C       		.byte	0x7c
 2179 0a39 01       		.uleb128 0x1
 2180 0a3a 70070000 		.4byte	.LASF141
 2181 0a3e 07       		.byte	0x7
 2182 0a3f F004     		.2byte	0x4f0
 2183 0a41 10       		.byte	0x10
 2184 0a42 A8000000 		.4byte	0xa8
 2185 0a46 80       		.byte	0x80
 2186 0a47 01       		.uleb128 0x1
 2187 0a48 25070000 		.4byte	.LASF142
 2188 0a4c 07       		.byte	0x7
 2189 0a4d F104     		.2byte	0x4f1
 2190 0a4f 10       		.byte	0x10
 2191 0a50 A8000000 		.4byte	0xa8
 2192 0a54 84       		.byte	0x84
 2193 0a55 01       		.uleb128 0x1
 2194 0a56 10010000 		.4byte	.LASF143
 2195 0a5a 07       		.byte	0x7
 2196 0a5b F204     		.2byte	0x4f2
 2197 0a5d 10       		.byte	0x10
 2198 0a5e A8000000 		.4byte	0xa8
 2199 0a62 88       		.byte	0x88
 2200 0a63 01       		.uleb128 0x1
 2201 0a64 B6060000 		.4byte	.LASF144
 2202 0a68 07       		.byte	0x7
 2203 0a69 F304     		.2byte	0x4f3
 2204 0a6b 10       		.byte	0x10
 2205 0a6c A8000000 		.4byte	0xa8
 2206 0a70 8C       		.byte	0x8c
 2207 0a71 01       		.uleb128 0x1
 2208 0a72 67040000 		.4byte	.LASF145
 2209 0a76 07       		.byte	0x7
 2210 0a77 F404     		.2byte	0x4f4
 2211 0a79 10       		.byte	0x10
 2212 0a7a A8000000 		.4byte	0xa8
 2213 0a7e 90       		.byte	0x90
 2214 0a7f 01       		.uleb128 0x1
 2215 0a80 0B050000 		.4byte	.LASF146
 2216 0a84 07       		.byte	0x7
 2217 0a85 F504     		.2byte	0x4f5
 2218 0a87 10       		.byte	0x10
 2219 0a88 A8000000 		.4byte	0xa8
 2220 0a8c 94       		.byte	0x94
 2221 0a8d 01       		.uleb128 0x1
 2222 0a8e F6010000 		.4byte	.LASF147
 2223 0a92 07       		.byte	0x7
ARM GAS  C:\Users\DEVELO~1\AppData\Local\Temp\ccdu9vsZ.s 			page 40


 2224 0a93 F604     		.2byte	0x4f6
 2225 0a95 10       		.byte	0x10
 2226 0a96 A8000000 		.4byte	0xa8
 2227 0a9a 98       		.byte	0x98
 2228 0a9b 01       		.uleb128 0x1
 2229 0a9c 8B040000 		.4byte	.LASF148
 2230 0aa0 07       		.byte	0x7
 2231 0aa1 F704     		.2byte	0x4f7
 2232 0aa3 10       		.byte	0x10
 2233 0aa4 A8000000 		.4byte	0xa8
 2234 0aa8 9C       		.byte	0x9c
 2235 0aa9 04       		.uleb128 0x4
 2236 0aaa 47435200 		.ascii	"GCR\000"
 2237 0aae 07       		.byte	0x7
 2238 0aaf F804     		.2byte	0x4f8
 2239 0ab1 10       		.byte	0x10
 2240 0ab2 A8000000 		.4byte	0xa8
 2241 0ab6 A0       		.byte	0xa0
 2242 0ab7 01       		.uleb128 0x1
 2243 0ab8 F9050000 		.4byte	.LASF60
 2244 0abc 07       		.byte	0x7
 2245 0abd F904     		.2byte	0x4f9
 2246 0abf 0F       		.byte	0xf
 2247 0ac0 9C000000 		.4byte	0x9c
 2248 0ac4 A4       		.byte	0xa4
 2249 0ac5 01       		.uleb128 0x1
 2250 0ac6 C7000000 		.4byte	.LASF149
 2251 0aca 07       		.byte	0x7
 2252 0acb FA04     		.2byte	0x4fa
 2253 0acd 10       		.byte	0x10
 2254 0ace A8000000 		.4byte	0xa8
 2255 0ad2 A8       		.byte	0xa8
 2256 0ad3 01       		.uleb128 0x1
 2257 0ad4 6C010000 		.4byte	.LASF150
 2258 0ad8 07       		.byte	0x7
 2259 0ad9 FB04     		.2byte	0x4fb
 2260 0adb 0F       		.byte	0xf
 2261 0adc 22050000 		.4byte	0x522
 2262 0ae0 AC       		.byte	0xac
 2263 0ae1 04       		.uleb128 0x4
 2264 0ae2 52535200 		.ascii	"RSR\000"
 2265 0ae6 07       		.byte	0x7
 2266 0ae7 FC04     		.2byte	0x4fc
 2267 0ae9 10       		.byte	0x10
 2268 0aea A8000000 		.4byte	0xa8
 2269 0aee D0       		.byte	0xd0
 2270 0aef 01       		.uleb128 0x1
 2271 0af0 8B060000 		.4byte	.LASF151
 2272 0af4 07       		.byte	0x7
 2273 0af5 FD04     		.2byte	0x4fd
 2274 0af7 10       		.byte	0x10
 2275 0af8 A8000000 		.4byte	0xa8
 2276 0afc D4       		.byte	0xd4
 2277 0afd 01       		.uleb128 0x1
 2278 0afe FE070000 		.4byte	.LASF152
 2279 0b02 07       		.byte	0x7
 2280 0b03 FE04     		.2byte	0x4fe
ARM GAS  C:\Users\DEVELO~1\AppData\Local\Temp\ccdu9vsZ.s 			page 41


 2281 0b05 10       		.byte	0x10
 2282 0b06 A8000000 		.4byte	0xa8
 2283 0b0a D8       		.byte	0xd8
 2284 0b0b 01       		.uleb128 0x1
 2285 0b0c 19000000 		.4byte	.LASF153
 2286 0b10 07       		.byte	0x7
 2287 0b11 FF04     		.2byte	0x4ff
 2288 0b13 10       		.byte	0x10
 2289 0b14 A8000000 		.4byte	0xa8
 2290 0b18 DC       		.byte	0xdc
 2291 0b19 01       		.uleb128 0x1
 2292 0b1a 20060000 		.4byte	.LASF154
 2293 0b1e 07       		.byte	0x7
 2294 0b1f 0005     		.2byte	0x500
 2295 0b21 10       		.byte	0x10
 2296 0b22 A8000000 		.4byte	0xa8
 2297 0b26 E0       		.byte	0xe0
 2298 0b27 01       		.uleb128 0x1
 2299 0b28 8C050000 		.4byte	.LASF155
 2300 0b2c 07       		.byte	0x7
 2301 0b2d 0105     		.2byte	0x501
 2302 0b2f 10       		.byte	0x10
 2303 0b30 A8000000 		.4byte	0xa8
 2304 0b34 E4       		.byte	0xe4
 2305 0b35 01       		.uleb128 0x1
 2306 0b36 16080000 		.4byte	.LASF156
 2307 0b3a 07       		.byte	0x7
 2308 0b3b 0205     		.2byte	0x502
 2309 0b3d 10       		.byte	0x10
 2310 0b3e A8000000 		.4byte	0xa8
 2311 0b42 E8       		.byte	0xe8
 2312 0b43 01       		.uleb128 0x1
 2313 0b44 3D040000 		.4byte	.LASF157
 2314 0b48 07       		.byte	0x7
 2315 0b49 0305     		.2byte	0x503
 2316 0b4b 10       		.byte	0x10
 2317 0b4c A8000000 		.4byte	0xa8
 2318 0b50 EC       		.byte	0xec
 2319 0b51 01       		.uleb128 0x1
 2320 0b52 7A060000 		.4byte	.LASF158
 2321 0b56 07       		.byte	0x7
 2322 0b57 0405     		.2byte	0x504
 2323 0b59 10       		.byte	0x10
 2324 0b5a A8000000 		.4byte	0xa8
 2325 0b5e F0       		.byte	0xf0
 2326 0b5f 01       		.uleb128 0x1
 2327 0b60 BA040000 		.4byte	.LASF159
 2328 0b64 07       		.byte	0x7
 2329 0b65 0505     		.2byte	0x505
 2330 0b67 10       		.byte	0x10
 2331 0b68 A8000000 		.4byte	0xa8
 2332 0b6c F4       		.byte	0xf4
 2333 0b6d 01       		.uleb128 0x1
 2334 0b6e 77010000 		.4byte	.LASF160
 2335 0b72 07       		.byte	0x7
 2336 0b73 0605     		.2byte	0x506
 2337 0b75 10       		.byte	0x10
ARM GAS  C:\Users\DEVELO~1\AppData\Local\Temp\ccdu9vsZ.s 			page 42


 2338 0b76 9C000000 		.4byte	0x9c
 2339 0b7a F8       		.byte	0xf8
 2340 0b7b 01       		.uleb128 0x1
 2341 0b7c 48060000 		.4byte	.LASF161
 2342 0b80 07       		.byte	0x7
 2343 0b81 0705     		.2byte	0x507
 2344 0b83 10       		.byte	0x10
 2345 0b84 A8000000 		.4byte	0xa8
 2346 0b88 FC       		.byte	0xfc
 2347 0b89 02       		.uleb128 0x2
 2348 0b8a 01010000 		.4byte	.LASF162
 2349 0b8e 07       		.byte	0x7
 2350 0b8f 0805     		.2byte	0x508
 2351 0b91 10       		.byte	0x10
 2352 0b92 A8000000 		.4byte	0xa8
 2353 0b96 0001     		.2byte	0x100
 2354 0b98 02       		.uleb128 0x2
 2355 0b99 69050000 		.4byte	.LASF163
 2356 0b9d 07       		.byte	0x7
 2357 0b9e 0905     		.2byte	0x509
 2358 0ba0 10       		.byte	0x10
 2359 0ba1 A8000000 		.4byte	0xa8
 2360 0ba5 0401     		.2byte	0x104
 2361 0ba7 02       		.uleb128 0x2
 2362 0ba8 39070000 		.4byte	.LASF164
 2363 0bac 07       		.byte	0x7
 2364 0bad 0A05     		.2byte	0x50a
 2365 0baf 10       		.byte	0x10
 2366 0bb0 A8000000 		.4byte	0xa8
 2367 0bb4 0801     		.2byte	0x108
 2368 0bb6 02       		.uleb128 0x2
 2369 0bb7 7A050000 		.4byte	.LASF165
 2370 0bbb 07       		.byte	0x7
 2371 0bbc 0B05     		.2byte	0x50b
 2372 0bbe 10       		.byte	0x10
 2373 0bbf A8000000 		.4byte	0xa8
 2374 0bc3 0C01     		.2byte	0x10c
 2375 0bc5 02       		.uleb128 0x2
 2376 0bc6 8D070000 		.4byte	.LASF166
 2377 0bca 07       		.byte	0x7
 2378 0bcb 0C05     		.2byte	0x50c
 2379 0bcd 10       		.byte	0x10
 2380 0bce A8000000 		.4byte	0xa8
 2381 0bd2 1001     		.2byte	0x110
 2382 0bd4 02       		.uleb128 0x2
 2383 0bd5 54000000 		.4byte	.LASF167
 2384 0bd9 07       		.byte	0x7
 2385 0bda 0D05     		.2byte	0x50d
 2386 0bdc 10       		.byte	0x10
 2387 0bdd A8000000 		.4byte	0xa8
 2388 0be1 1401     		.2byte	0x114
 2389 0be3 02       		.uleb128 0x2
 2390 0be4 71040000 		.4byte	.LASF168
 2391 0be8 07       		.byte	0x7
 2392 0be9 0E05     		.2byte	0x50e
 2393 0beb 10       		.byte	0x10
 2394 0bec A8000000 		.4byte	0xa8
ARM GAS  C:\Users\DEVELO~1\AppData\Local\Temp\ccdu9vsZ.s 			page 43


 2395 0bf0 1801     		.2byte	0x118
 2396 0bf2 02       		.uleb128 0x2
 2397 0bf3 52060000 		.4byte	.LASF169
 2398 0bf7 07       		.byte	0x7
 2399 0bf8 0F05     		.2byte	0x50f
 2400 0bfa 10       		.byte	0x10
 2401 0bfb A8000000 		.4byte	0xa8
 2402 0bff 1C01     		.2byte	0x11c
 2403 0c01 02       		.uleb128 0x2
 2404 0c02 82010000 		.4byte	.LASF170
 2405 0c06 07       		.byte	0x7
 2406 0c07 1005     		.2byte	0x510
 2407 0c09 0F       		.byte	0xf
 2408 0c0a 12050000 		.4byte	0x512
 2409 0c0e 2001     		.2byte	0x120
 2410 0c10 00       		.byte	0
 2411 0c11 0C       		.uleb128 0xc
 2412 0c12 2A030000 		.4byte	.LASF171
 2413 0c16 07       		.byte	0x7
 2414 0c17 1205     		.2byte	0x512
 2415 0c19 70080000 		.4byte	0x870
 2416 0c1d 05       		.uleb128 0x5
 2417 0c1e 01       		.byte	0x1
 2418 0c1f 02       		.byte	0x2
 2419 0c20 03060000 		.4byte	.LASF172
 2420 0c24 22       		.uleb128 0x22
 2421 0c25 06050000 		.4byte	0x506
 2422 0c29 01       		.byte	0x1
 2423 0c2a 2B       		.byte	0x2b
 2424 0c2b 0A       		.byte	0xa
 2425 0c2c 05       		.uleb128 0x5
 2426 0c2d 03       		.byte	0x3
 2427 0c2e 00000000 		.4byte	SystemCoreClock
 2428 0c32 11       		.uleb128 0x11
 2429 0c33 94050000 		.4byte	.LASF173
 2430 0c37 08       		.byte	0x8
 2431 0c38 8F01     		.2byte	0x18f
 2432 0c3a 11       		.uleb128 0x11
 2433 0c3b E3060000 		.4byte	.LASF174
 2434 0c3f 09       		.byte	0x9
 2435 0c40 9B02     		.2byte	0x29b
 2436 0c42 11       		.uleb128 0x11
 2437 0c43 32080000 		.4byte	.LASF175
 2438 0c47 0A       		.byte	0xa
 2439 0c48 CC01     		.2byte	0x1cc
 2440 0c4a 1A       		.uleb128 0x1a
 2441 0c4b AD020000 		.4byte	.LASF181
 2442 0c4f E3       		.byte	0xe3
 2443 0c50 00000000 		.4byte	.LFB435
 2444 0c54 CC010000 		.4byte	.LFE435-.LFB435
 2445 0c58 01       		.uleb128 0x1
 2446 0c59 9C       		.byte	0x9c
 2447 0c5a A50D0000 		.4byte	0xda5
 2448 0c5e 23       		.uleb128 0x23
 2449 0c5f E8070000 		.4byte	.LASF177
 2450 0c63 01       		.byte	0x1
 2451 0c64 E5       		.byte	0xe5
ARM GAS  C:\Users\DEVELO~1\AppData\Local\Temp\ccdu9vsZ.s 			page 44


 2452 0c65 0C       		.byte	0xc
 2453 0c66 9C000000 		.4byte	0x9c
 2454 0c6a 10000000 		.4byte	.LLST16
 2455 0c6e 0C000000 		.4byte	.LVUS16
 2456 0c72 24       		.uleb128 0x24
 2457 0c73 C0000000 		.4byte	.LBB128
 2458 0c77 36000000 		.4byte	.LBE128-.LBB128
 2459 0c7b B90C0000 		.4byte	0xcb9
 2460 0c7f 12       		.uleb128 0x12
 2461 0c80 37010000 		.4byte	.LASF178
 2462 0c84 4801     		.2byte	0x148
 2463 0c86 9C000000 		.4byte	0x9c
 2464 0c8a 33000000 		.4byte	.LLST21
 2465 0c8e 2B000000 		.4byte	.LVUS21
 2466 0c92 12       		.uleb128 0x12
 2467 0c93 84050000 		.4byte	.LASF179
 2468 0c97 4901     		.2byte	0x149
 2469 0c99 9C000000 		.4byte	0x9c
 2470 0c9d 60000000 		.4byte	.LLST22
 2471 0ca1 58000000 		.4byte	.LVUS22
 2472 0ca5 12       		.uleb128 0x12
 2473 0ca6 3E020000 		.4byte	.LASF180
 2474 0caa 4A01     		.2byte	0x14a
 2475 0cac 9C000000 		.4byte	0x9c
 2476 0cb0 95000000 		.4byte	.LLST23
 2477 0cb4 85000000 		.4byte	.LVUS23
 2478 0cb8 00       		.byte	0
 2479 0cb9 0D       		.uleb128 0xd
 2480 0cba C10F0000 		.4byte	0xfc1
 2481 0cbe 10000000 		.4byte	.LBI116
 2482 0cc2 01       		.byte	.LVU140
 2483 0cc3 48000000 		.4byte	.LLRL17
 2484 0cc7 F5       		.byte	0xf5
 2485 0cc8 E70C0000 		.4byte	0xce7
 2486 0ccc 03       		.uleb128 0x3
 2487 0ccd D80F0000 		.4byte	0xfd8
 2488 0cd1 E8000000 		.4byte	.LLST18
 2489 0cd5 E6000000 		.4byte	.LVUS18
 2490 0cd9 03       		.uleb128 0x3
 2491 0cda CD0F0000 		.4byte	0xfcd
 2492 0cde F4000000 		.4byte	.LLST19
 2493 0ce2 F2000000 		.4byte	.LVUS19
 2494 0ce6 00       		.byte	0
 2495 0ce7 25       		.uleb128 0x25
 2496 0ce8 930F0000 		.4byte	0xf93
 2497 0cec 28000000 		.4byte	.LBI119
 2498 0cf0 02       		.byte	.LVU149
 2499 0cf1 54000000 		.4byte	.LLRL20
 2500 0cf5 01       		.byte	0x1
 2501 0cf6 F8       		.byte	0xf8
 2502 0cf7 03       		.byte	0x3
 2503 0cf8 26       		.uleb128 0x26
 2504 0cf9 990F0000 		.4byte	0xf99
 2505 0cfd 4E000000 		.4byte	.LBI126
 2506 0d01 01       		.byte	.LVU177
 2507 0d02 4E000000 		.4byte	.LBB126
 2508 0d06 20000000 		.4byte	.LBE126-.LBB126
ARM GAS  C:\Users\DEVELO~1\AppData\Local\Temp\ccdu9vsZ.s 			page 45


 2509 0d0a 01       		.byte	0x1
 2510 0d0b FB       		.byte	0xfb
 2511 0d0c 03       		.byte	0x3
 2512 0d0d 27       		.uleb128 0x27
 2513 0d0e 9F0F0000 		.4byte	0xf9f
 2514 0d12 40010000 		.4byte	.LBI129
 2515 0d16 01       		.byte	.LVU326
 2516 0d17 63000000 		.4byte	.LLRL24
 2517 0d1b 01       		.byte	0x1
 2518 0d1c DD01     		.2byte	0x1dd
 2519 0d1e 03       		.byte	0x3
 2520 0d1f 3E0D0000 		.4byte	0xd3e
 2521 0d23 03       		.uleb128 0x3
 2522 0d24 B60F0000 		.4byte	0xfb6
 2523 0d28 00010000 		.4byte	.LLST25
 2524 0d2c FE000000 		.4byte	.LVUS25
 2525 0d30 03       		.uleb128 0x3
 2526 0d31 AB0F0000 		.4byte	0xfab
 2527 0d35 0C010000 		.4byte	.LLST26
 2528 0d39 0A010000 		.4byte	.LVUS26
 2529 0d3d 00       		.byte	0
 2530 0d3e 28       		.uleb128 0x28
 2531 0d3f 9F0F0000 		.4byte	0xf9f
 2532 0d43 5E010000 		.4byte	.LBI133
 2533 0d47 02       		.byte	.LVU337
 2534 0d48 5E010000 		.4byte	.LBB133
 2535 0d4c 1C000000 		.4byte	.LBE133-.LBB133
 2536 0d50 01       		.byte	0x1
 2537 0d51 DE01     		.2byte	0x1de
 2538 0d53 03       		.byte	0x3
 2539 0d54 730D0000 		.4byte	0xd73
 2540 0d58 03       		.uleb128 0x3
 2541 0d59 B60F0000 		.4byte	0xfb6
 2542 0d5d 1A010000 		.4byte	.LLST27
 2543 0d61 18010000 		.4byte	.LVUS27
 2544 0d65 03       		.uleb128 0x3
 2545 0d66 AB0F0000 		.4byte	0xfab
 2546 0d6a 26010000 		.4byte	.LLST28
 2547 0d6e 24010000 		.4byte	.LVUS28
 2548 0d72 00       		.byte	0
 2549 0d73 29       		.uleb128 0x29
 2550 0d74 9F0F0000 		.4byte	0xf9f
 2551 0d78 7A010000 		.4byte	.LBI135
 2552 0d7c 02       		.byte	.LVU346
 2553 0d7d 7A010000 		.4byte	.LBB135
 2554 0d81 1C000000 		.4byte	.LBE135-.LBB135
 2555 0d85 01       		.byte	0x1
 2556 0d86 E001     		.2byte	0x1e0
 2557 0d88 03       		.byte	0x3
 2558 0d89 03       		.uleb128 0x3
 2559 0d8a B60F0000 		.4byte	0xfb6
 2560 0d8e 34010000 		.4byte	.LLST29
 2561 0d92 32010000 		.4byte	.LVUS29
 2562 0d96 03       		.uleb128 0x3
 2563 0d97 AB0F0000 		.4byte	0xfab
 2564 0d9b 40010000 		.4byte	.LLST30
 2565 0d9f 3E010000 		.4byte	.LVUS30
ARM GAS  C:\Users\DEVELO~1\AppData\Local\Temp\ccdu9vsZ.s 			page 46


 2566 0da3 00       		.byte	0
 2567 0da4 00       		.byte	0
 2568 0da5 1A       		.uleb128 0x1a
 2569 0da6 00000000 		.4byte	.LASF182
 2570 0daa 96       		.byte	0x96
 2571 0dab 00000000 		.4byte	.LFB434
 2572 0daf 58010000 		.4byte	.LFE434-.LFB434
 2573 0db3 01       		.uleb128 0x1
 2574 0db4 9C       		.byte	0x9c
 2575 0db5 930F0000 		.4byte	0xf93
 2576 0db9 0D       		.uleb128 0xd
 2577 0dba 25100000 		.4byte	0x1025
 2578 0dbe 00000000 		.4byte	.LBI61
 2579 0dc2 02       		.byte	.LVU2
 2580 0dc3 0C000000 		.4byte	.LLRL0
 2581 0dc7 A0       		.byte	0xa0
 2582 0dc8 DA0D0000 		.4byte	0xdda
 2583 0dcc 03       		.uleb128 0x3
 2584 0dcd 2F100000 		.4byte	0x102f
 2585 0dd1 4F010000 		.4byte	.LLST1
 2586 0dd5 4D010000 		.4byte	.LVUS1
 2587 0dd9 00       		.byte	0
 2588 0dda 0D       		.uleb128 0xd
 2589 0ddb 0F100000 		.4byte	0x100f
 2590 0ddf 2A000000 		.4byte	.LBI67
 2591 0de3 02       		.byte	.LVU17
 2592 0de4 1E000000 		.4byte	.LLRL2
 2593 0de8 A1       		.byte	0xa1
 2594 0de9 FB0D0000 		.4byte	0xdfb
 2595 0ded 03       		.uleb128 0x3
 2596 0dee 19100000 		.4byte	0x1019
 2597 0df2 5F010000 		.4byte	.LLST3
 2598 0df6 5D010000 		.4byte	.LVUS3
 2599 0dfa 00       		.byte	0
 2600 0dfb 0D       		.uleb128 0xd
 2601 0dfc F90F0000 		.4byte	0xff9
 2602 0e00 3E000000 		.4byte	.LBI70
 2603 0e04 02       		.byte	.LVU25
 2604 0e05 2A000000 		.4byte	.LLRL4
 2605 0e09 A2       		.byte	0xa2
 2606 0e0a 1C0E0000 		.4byte	0xe1c
 2607 0e0e 03       		.uleb128 0x3
 2608 0e0f 03100000 		.4byte	0x1003
 2609 0e13 6C010000 		.4byte	.LLST5
 2610 0e17 6A010000 		.4byte	.LVUS5
 2611 0e1b 00       		.byte	0
 2612 0e1c 0D       		.uleb128 0xd
 2613 0e1d E30F0000 		.4byte	0xfe3
 2614 0e21 4E000000 		.4byte	.LBI80
 2615 0e25 02       		.byte	.LVU35
 2616 0e26 3C000000 		.4byte	.LLRL6
 2617 0e2a B1       		.byte	0xb1
 2618 0e2b 3D0E0000 		.4byte	0xe3d
 2619 0e2f 03       		.uleb128 0x3
 2620 0e30 ED0F0000 		.4byte	0xfed
 2621 0e34 7C010000 		.4byte	.LLST7
 2622 0e38 7A010000 		.4byte	.LVUS7
ARM GAS  C:\Users\DEVELO~1\AppData\Local\Temp\ccdu9vsZ.s 			page 47


 2623 0e3c 00       		.byte	0
 2624 0e3d 0B       		.uleb128 0xb
 2625 0e3e 93100000 		.4byte	0x1093
 2626 0e42 68000000 		.4byte	.LBI85
 2627 0e46 02       		.byte	.LVU43
 2628 0e47 68000000 		.4byte	.LBB85
 2629 0e4b 14000000 		.4byte	.LBE85-.LBB85
 2630 0e4f B2       		.byte	0xb2
 2631 0e50 03       		.byte	0x3
 2632 0e51 630E0000 		.4byte	0xe63
 2633 0e55 03       		.uleb128 0x3
 2634 0e56 9D100000 		.4byte	0x109d
 2635 0e5a 8A010000 		.4byte	.LLST8
 2636 0e5e 88010000 		.4byte	.LVUS8
 2637 0e62 00       		.byte	0
 2638 0e63 0B       		.uleb128 0xb
 2639 0e64 7D100000 		.4byte	0x107d
 2640 0e68 7C000000 		.4byte	.LBI87
 2641 0e6c 02       		.byte	.LVU51
 2642 0e6d 7C000000 		.4byte	.LBB87
 2643 0e71 14000000 		.4byte	.LBE87-.LBB87
 2644 0e75 B3       		.byte	0xb3
 2645 0e76 03       		.byte	0x3
 2646 0e77 890E0000 		.4byte	0xe89
 2647 0e7b 03       		.uleb128 0x3
 2648 0e7c 87100000 		.4byte	0x1087
 2649 0e80 97010000 		.4byte	.LLST9
 2650 0e84 95010000 		.4byte	.LVUS9
 2651 0e88 00       		.byte	0
 2652 0e89 0B       		.uleb128 0xb
 2653 0e8a 67100000 		.4byte	0x1067
 2654 0e8e 90000000 		.4byte	.LBI89
 2655 0e92 02       		.byte	.LVU59
 2656 0e93 90000000 		.4byte	.LBB89
 2657 0e97 14000000 		.4byte	.LBE89-.LBB89
 2658 0e9b B4       		.byte	0xb4
 2659 0e9c 03       		.byte	0x3
 2660 0e9d AF0E0000 		.4byte	0xeaf
 2661 0ea1 03       		.uleb128 0x3
 2662 0ea2 71100000 		.4byte	0x1071
 2663 0ea6 A4010000 		.4byte	.LLST10
 2664 0eaa A2010000 		.4byte	.LVUS10
 2665 0eae 00       		.byte	0
 2666 0eaf 0B       		.uleb128 0xb
 2667 0eb0 51100000 		.4byte	0x1051
 2668 0eb4 A4000000 		.4byte	.LBI91
 2669 0eb8 02       		.byte	.LVU67
 2670 0eb9 A4000000 		.4byte	.LBB91
 2671 0ebd 14000000 		.4byte	.LBE91-.LBB91
 2672 0ec1 B5       		.byte	0xb5
 2673 0ec2 03       		.byte	0x3
 2674 0ec3 D50E0000 		.4byte	0xed5
 2675 0ec7 03       		.uleb128 0x3
 2676 0ec8 5B100000 		.4byte	0x105b
 2677 0ecc B1010000 		.4byte	.LLST11
 2678 0ed0 AF010000 		.4byte	.LVUS11
 2679 0ed4 00       		.byte	0
ARM GAS  C:\Users\DEVELO~1\AppData\Local\Temp\ccdu9vsZ.s 			page 48


 2680 0ed5 0B       		.uleb128 0xb
 2681 0ed6 3B100000 		.4byte	0x103b
 2682 0eda B8000000 		.4byte	.LBI93
 2683 0ede 02       		.byte	.LVU75
 2684 0edf B8000000 		.4byte	.LBB93
 2685 0ee3 14000000 		.4byte	.LBE93-.LBB93
 2686 0ee7 B6       		.byte	0xb6
 2687 0ee8 03       		.byte	0x3
 2688 0ee9 FB0E0000 		.4byte	0xefb
 2689 0eed 03       		.uleb128 0x3
 2690 0eee 45100000 		.4byte	0x1045
 2691 0ef2 BE010000 		.4byte	.LLST12
 2692 0ef6 BC010000 		.4byte	.LVUS12
 2693 0efa 00       		.byte	0
 2694 0efb 0B       		.uleb128 0xb
 2695 0efc A9100000 		.4byte	0x10a9
 2696 0f00 FC000000 		.4byte	.LBI95
 2697 0f04 02       		.byte	.LVU95
 2698 0f05 FC000000 		.4byte	.LBB95
 2699 0f09 42000000 		.4byte	.LBE95-.LBB95
 2700 0f0d D6       		.byte	0xd6
 2701 0f0e 05       		.byte	0x5
 2702 0f0f 770F0000 		.4byte	0xf77
 2703 0f13 13       		.uleb128 0x13
 2704 0f14 B5100000 		.4byte	0x10b5
 2705 0f18 CB010000 		.4byte	.LLST13
 2706 0f1c C9010000 		.4byte	.LVUS13
 2707 0f20 13       		.uleb128 0x13
 2708 0f21 C0100000 		.4byte	0x10c0
 2709 0f25 D6010000 		.4byte	.LLST14
 2710 0f29 D4010000 		.4byte	.LVUS14
 2711 0f2d 13       		.uleb128 0x13
 2712 0f2e CB100000 		.4byte	0x10cb
 2713 0f32 ED010000 		.4byte	.LLST15
 2714 0f36 E7010000 		.4byte	.LVUS15
 2715 0f3a 14       		.uleb128 0x14
 2716 0f3b D7100000 		.4byte	0x10d7
 2717 0f3f 00010000 		.4byte	.LBI97
 2718 0f43 01       		.byte	.LVU102
 2719 0f44 00010000 		.4byte	.LBB97
 2720 0f48 04000000 		.4byte	.LBE97-.LBB97
 2721 0f4c 8309     		.2byte	0x983
 2722 0f4e 14       		.uleb128 0x14
 2723 0f4f D7100000 		.4byte	0x10d7
 2724 0f53 36010000 		.4byte	.LBI99
 2725 0f57 01       		.byte	.LVU123
 2726 0f58 36010000 		.4byte	.LBB99
 2727 0f5c 04000000 		.4byte	.LBE99-.LBB99
 2728 0f60 9409     		.2byte	0x994
 2729 0f62 14       		.uleb128 0x14
 2730 0f63 DE100000 		.4byte	0x10de
 2731 0f67 3A010000 		.4byte	.LBI101
 2732 0f6b 01       		.byte	.LVU126
 2733 0f6c 3A010000 		.4byte	.LBB101
 2734 0f70 04000000 		.4byte	.LBE101-.LBB101
 2735 0f74 9509     		.2byte	0x995
 2736 0f76 00       		.byte	0
ARM GAS  C:\Users\DEVELO~1\AppData\Local\Temp\ccdu9vsZ.s 			page 49


 2737 0f77 15       		.uleb128 0x15
 2738 0f78 D0000000 		.4byte	.LVL10
 2739 0f7c 420C0000 		.4byte	0xc42
 2740 0f80 15       		.uleb128 0x15
 2741 0f81 D4000000 		.4byte	.LVL11
 2742 0f85 3A0C0000 		.4byte	0xc3a
 2743 0f89 15       		.uleb128 0x15
 2744 0f8a D8000000 		.4byte	.LVL12
 2745 0f8e 320C0000 		.4byte	0xc32
 2746 0f92 00       		.byte	0
 2747 0f93 1B       		.uleb128 0x1b
 2748 0f94 02050000 		.4byte	.LASF183
 2749 0f98 62       		.byte	0x62
 2750 0f99 1B       		.uleb128 0x1b
 2751 0f9a FF010000 		.4byte	.LASF184
 2752 0f9e 3A       		.byte	0x3a
 2753 0f9f 16       		.uleb128 0x16
 2754 0fa0 24080000 		.4byte	.LASF186
 2755 0fa4 02       		.byte	0x2
 2756 0fa5 A302     		.2byte	0x2a3
 2757 0fa7 C10F0000 		.4byte	0xfc1
 2758 0fab 1C       		.uleb128 0x1c
 2759 0fac 83020000 		.4byte	.LASF185
 2760 0fb0 A302     		.2byte	0x2a3
 2761 0fb2 9C000000 		.4byte	0x9c
 2762 0fb6 1D       		.uleb128 0x1d
 2763 0fb7 6C7000   		.ascii	"lp\000"
 2764 0fba A302     		.2byte	0x2a3
 2765 0fbc 1D0C0000 		.4byte	0xc1d
 2766 0fc0 00       		.byte	0
 2767 0fc1 16       		.uleb128 0x16
 2768 0fc2 C9040000 		.4byte	.LASF187
 2769 0fc6 02       		.byte	0x2
 2770 0fc7 F101     		.2byte	0x1f1
 2771 0fc9 E30F0000 		.4byte	0xfe3
 2772 0fcd 1C       		.uleb128 0x1c
 2773 0fce 83020000 		.4byte	.LASF185
 2774 0fd2 F101     		.2byte	0x1f1
 2775 0fd4 9C000000 		.4byte	0x9c
 2776 0fd8 1D       		.uleb128 0x1d
 2777 0fd9 6C7000   		.ascii	"lp\000"
 2778 0fdc F101     		.2byte	0x1f1
 2779 0fde 1D0C0000 		.4byte	0xc1d
 2780 0fe2 00       		.byte	0
 2781 0fe3 08       		.uleb128 0x8
 2782 0fe4 5A050000 		.4byte	.LASF188
 2783 0fe8 79       		.byte	0x79
 2784 0fe9 F90F0000 		.4byte	0xff9
 2785 0fed 09       		.uleb128 0x9
 2786 0fee 83020000 		.4byte	.LASF185
 2787 0ff2 79       		.byte	0x79
 2788 0ff3 2E       		.byte	0x2e
 2789 0ff4 9C000000 		.4byte	0x9c
 2790 0ff8 00       		.byte	0
 2791 0ff9 08       		.uleb128 0x8
 2792 0ffa 4B050000 		.4byte	.LASF189
 2793 0ffe 71       		.byte	0x71
ARM GAS  C:\Users\DEVELO~1\AppData\Local\Temp\ccdu9vsZ.s 			page 50


 2794 0fff 0F100000 		.4byte	0x100f
 2795 1003 09       		.uleb128 0x9
 2796 1004 83020000 		.4byte	.LASF185
 2797 1008 71       		.byte	0x71
 2798 1009 2E       		.byte	0x2e
 2799 100a 9C000000 		.4byte	0x9c
 2800 100e 00       		.byte	0
 2801 100f 08       		.uleb128 0x8
 2802 1010 3C050000 		.4byte	.LASF190
 2803 1014 69       		.byte	0x69
 2804 1015 25100000 		.4byte	0x1025
 2805 1019 09       		.uleb128 0x9
 2806 101a 83020000 		.4byte	.LASF185
 2807 101e 69       		.byte	0x69
 2808 101f 2E       		.byte	0x2e
 2809 1020 9C000000 		.4byte	0x9c
 2810 1024 00       		.byte	0
 2811 1025 08       		.uleb128 0x8
 2812 1026 2D050000 		.4byte	.LASF191
 2813 102a 61       		.byte	0x61
 2814 102b 3B100000 		.4byte	0x103b
 2815 102f 09       		.uleb128 0x9
 2816 1030 83020000 		.4byte	.LASF185
 2817 1034 61       		.byte	0x61
 2818 1035 2E       		.byte	0x2e
 2819 1036 9C000000 		.4byte	0x9c
 2820 103a 00       		.byte	0
 2821 103b 08       		.uleb128 0x8
 2822 103c CD000000 		.4byte	.LASF192
 2823 1040 59       		.byte	0x59
 2824 1041 51100000 		.4byte	0x1051
 2825 1045 09       		.uleb128 0x9
 2826 1046 83020000 		.4byte	.LASF185
 2827 104a 59       		.byte	0x59
 2828 104b 2E       		.byte	0x2e
 2829 104c 9C000000 		.4byte	0x9c
 2830 1050 00       		.byte	0
 2831 1051 08       		.uleb128 0x8
 2832 1052 9D060000 		.4byte	.LASF193
 2833 1056 51       		.byte	0x51
 2834 1057 67100000 		.4byte	0x1067
 2835 105b 09       		.uleb128 0x9
 2836 105c 83020000 		.4byte	.LASF185
 2837 1060 51       		.byte	0x51
 2838 1061 2E       		.byte	0x2e
 2839 1062 9C000000 		.4byte	0x9c
 2840 1066 00       		.byte	0
 2841 1067 08       		.uleb128 0x8
 2842 1068 B8000000 		.4byte	.LASF194
 2843 106c 49       		.byte	0x49
 2844 106d 7D100000 		.4byte	0x107d
 2845 1071 09       		.uleb128 0x9
 2846 1072 83020000 		.4byte	.LASF185
 2847 1076 49       		.byte	0x49
 2848 1077 2E       		.byte	0x2e
 2849 1078 9C000000 		.4byte	0x9c
 2850 107c 00       		.byte	0
ARM GAS  C:\Users\DEVELO~1\AppData\Local\Temp\ccdu9vsZ.s 			page 51


 2851 107d 08       		.uleb128 0x8
 2852 107e A7070000 		.4byte	.LASF195
 2853 1082 41       		.byte	0x41
 2854 1083 93100000 		.4byte	0x1093
 2855 1087 09       		.uleb128 0x9
 2856 1088 83020000 		.4byte	.LASF185
 2857 108c 41       		.byte	0x41
 2858 108d 2F       		.byte	0x2f
 2859 108e 9C000000 		.4byte	0x9c
 2860 1092 00       		.byte	0
 2861 1093 08       		.uleb128 0x8
 2862 1094 B7070000 		.4byte	.LASF196
 2863 1098 39       		.byte	0x39
 2864 1099 A9100000 		.4byte	0x10a9
 2865 109d 09       		.uleb128 0x9
 2866 109e 83020000 		.4byte	.LASF185
 2867 10a2 39       		.byte	0x39
 2868 10a3 2F       		.byte	0x2f
 2869 10a4 9C000000 		.4byte	0x9c
 2870 10a8 00       		.byte	0
 2871 10a9 16       		.uleb128 0x16
 2872 10aa FC060000 		.4byte	.LASF197
 2873 10ae 03       		.byte	0x3
 2874 10af 7B09     		.2byte	0x97b
 2875 10b1 D7100000 		.4byte	0x10d7
 2876 10b5 17       		.uleb128 0x17
 2877 10b6 C2040000 		.4byte	.LASF198
 2878 10ba 7E09     		.2byte	0x97e
 2879 10bc 9C000000 		.4byte	0x9c
 2880 10c0 17       		.uleb128 0x17
 2881 10c1 18030000 		.4byte	.LASF199
 2882 10c5 7F09     		.2byte	0x97f
 2883 10c7 9C000000 		.4byte	0x9c
 2884 10cb 17       		.uleb128 0x17
 2885 10cc 91020000 		.4byte	.LASF200
 2886 10d0 8009     		.2byte	0x980
 2887 10d2 9C000000 		.4byte	0x9c
 2888 10d6 00       		.byte	0
 2889 10d7 1E       		.uleb128 0x1e
 2890 10d8 A0040000 		.4byte	.LASF201
 2891 10dc 6D03     		.2byte	0x36d
 2892 10de 1E       		.uleb128 0x1e
 2893 10df 15040000 		.4byte	.LASF202
 2894 10e3 6203     		.2byte	0x362
 2895 10e5 00       		.byte	0
 2896              		.section	.debug_abbrev,"",%progbits
 2897              	.Ldebug_abbrev0:
 2898 0000 01       		.uleb128 0x1
 2899 0001 0D       		.uleb128 0xd
 2900 0002 00       		.byte	0
 2901 0003 03       		.uleb128 0x3
 2902 0004 0E       		.uleb128 0xe
 2903 0005 3A       		.uleb128 0x3a
 2904 0006 0B       		.uleb128 0xb
 2905 0007 3B       		.uleb128 0x3b
 2906 0008 05       		.uleb128 0x5
 2907 0009 39       		.uleb128 0x39
ARM GAS  C:\Users\DEVELO~1\AppData\Local\Temp\ccdu9vsZ.s 			page 52


 2908 000a 0B       		.uleb128 0xb
 2909 000b 49       		.uleb128 0x49
 2910 000c 13       		.uleb128 0x13
 2911 000d 38       		.uleb128 0x38
 2912 000e 0B       		.uleb128 0xb
 2913 000f 00       		.byte	0
 2914 0010 00       		.byte	0
 2915 0011 02       		.uleb128 0x2
 2916 0012 0D       		.uleb128 0xd
 2917 0013 00       		.byte	0
 2918 0014 03       		.uleb128 0x3
 2919 0015 0E       		.uleb128 0xe
 2920 0016 3A       		.uleb128 0x3a
 2921 0017 0B       		.uleb128 0xb
 2922 0018 3B       		.uleb128 0x3b
 2923 0019 05       		.uleb128 0x5
 2924 001a 39       		.uleb128 0x39
 2925 001b 0B       		.uleb128 0xb
 2926 001c 49       		.uleb128 0x49
 2927 001d 13       		.uleb128 0x13
 2928 001e 38       		.uleb128 0x38
 2929 001f 05       		.uleb128 0x5
 2930 0020 00       		.byte	0
 2931 0021 00       		.byte	0
 2932 0022 03       		.uleb128 0x3
 2933 0023 05       		.uleb128 0x5
 2934 0024 00       		.byte	0
 2935 0025 31       		.uleb128 0x31
 2936 0026 13       		.uleb128 0x13
 2937 0027 02       		.uleb128 0x2
 2938 0028 17       		.uleb128 0x17
 2939 0029 B742     		.uleb128 0x2137
 2940 002b 17       		.uleb128 0x17
 2941 002c 00       		.byte	0
 2942 002d 00       		.byte	0
 2943 002e 04       		.uleb128 0x4
 2944 002f 0D       		.uleb128 0xd
 2945 0030 00       		.byte	0
 2946 0031 03       		.uleb128 0x3
 2947 0032 08       		.uleb128 0x8
 2948 0033 3A       		.uleb128 0x3a
 2949 0034 0B       		.uleb128 0xb
 2950 0035 3B       		.uleb128 0x3b
 2951 0036 05       		.uleb128 0x5
 2952 0037 39       		.uleb128 0x39
 2953 0038 0B       		.uleb128 0xb
 2954 0039 49       		.uleb128 0x49
 2955 003a 13       		.uleb128 0x13
 2956 003b 38       		.uleb128 0x38
 2957 003c 0B       		.uleb128 0xb
 2958 003d 00       		.byte	0
 2959 003e 00       		.byte	0
 2960 003f 05       		.uleb128 0x5
 2961 0040 24       		.uleb128 0x24
 2962 0041 00       		.byte	0
 2963 0042 0B       		.uleb128 0xb
 2964 0043 0B       		.uleb128 0xb
ARM GAS  C:\Users\DEVELO~1\AppData\Local\Temp\ccdu9vsZ.s 			page 53


 2965 0044 3E       		.uleb128 0x3e
 2966 0045 0B       		.uleb128 0xb
 2967 0046 03       		.uleb128 0x3
 2968 0047 0E       		.uleb128 0xe
 2969 0048 00       		.byte	0
 2970 0049 00       		.byte	0
 2971 004a 06       		.uleb128 0x6
 2972 004b 01       		.uleb128 0x1
 2973 004c 01       		.byte	0x1
 2974 004d 49       		.uleb128 0x49
 2975 004e 13       		.uleb128 0x13
 2976 004f 01       		.uleb128 0x1
 2977 0050 13       		.uleb128 0x13
 2978 0051 00       		.byte	0
 2979 0052 00       		.byte	0
 2980 0053 07       		.uleb128 0x7
 2981 0054 21       		.uleb128 0x21
 2982 0055 00       		.byte	0
 2983 0056 49       		.uleb128 0x49
 2984 0057 13       		.uleb128 0x13
 2985 0058 2F       		.uleb128 0x2f
 2986 0059 0B       		.uleb128 0xb
 2987 005a 00       		.byte	0
 2988 005b 00       		.byte	0
 2989 005c 08       		.uleb128 0x8
 2990 005d 2E       		.uleb128 0x2e
 2991 005e 01       		.byte	0x1
 2992 005f 03       		.uleb128 0x3
 2993 0060 0E       		.uleb128 0xe
 2994 0061 3A       		.uleb128 0x3a
 2995 0062 21       		.uleb128 0x21
 2996 0063 02       		.sleb128 2
 2997 0064 3B       		.uleb128 0x3b
 2998 0065 0B       		.uleb128 0xb
 2999 0066 39       		.uleb128 0x39
 3000 0067 21       		.uleb128 0x21
 3001 0068 16       		.sleb128 22
 3002 0069 27       		.uleb128 0x27
 3003 006a 19       		.uleb128 0x19
 3004 006b 20       		.uleb128 0x20
 3005 006c 21       		.uleb128 0x21
 3006 006d 03       		.sleb128 3
 3007 006e 01       		.uleb128 0x1
 3008 006f 13       		.uleb128 0x13
 3009 0070 00       		.byte	0
 3010 0071 00       		.byte	0
 3011 0072 09       		.uleb128 0x9
 3012 0073 05       		.uleb128 0x5
 3013 0074 00       		.byte	0
 3014 0075 03       		.uleb128 0x3
 3015 0076 0E       		.uleb128 0xe
 3016 0077 3A       		.uleb128 0x3a
 3017 0078 21       		.uleb128 0x21
 3018 0079 02       		.sleb128 2
 3019 007a 3B       		.uleb128 0x3b
 3020 007b 0B       		.uleb128 0xb
 3021 007c 39       		.uleb128 0x39
ARM GAS  C:\Users\DEVELO~1\AppData\Local\Temp\ccdu9vsZ.s 			page 54


 3022 007d 0B       		.uleb128 0xb
 3023 007e 49       		.uleb128 0x49
 3024 007f 13       		.uleb128 0x13
 3025 0080 00       		.byte	0
 3026 0081 00       		.byte	0
 3027 0082 0A       		.uleb128 0xa
 3028 0083 35       		.uleb128 0x35
 3029 0084 00       		.byte	0
 3030 0085 49       		.uleb128 0x49
 3031 0086 13       		.uleb128 0x13
 3032 0087 00       		.byte	0
 3033 0088 00       		.byte	0
 3034 0089 0B       		.uleb128 0xb
 3035 008a 1D       		.uleb128 0x1d
 3036 008b 01       		.byte	0x1
 3037 008c 31       		.uleb128 0x31
 3038 008d 13       		.uleb128 0x13
 3039 008e 52       		.uleb128 0x52
 3040 008f 01       		.uleb128 0x1
 3041 0090 B842     		.uleb128 0x2138
 3042 0092 0B       		.uleb128 0xb
 3043 0093 11       		.uleb128 0x11
 3044 0094 01       		.uleb128 0x1
 3045 0095 12       		.uleb128 0x12
 3046 0096 06       		.uleb128 0x6
 3047 0097 58       		.uleb128 0x58
 3048 0098 21       		.uleb128 0x21
 3049 0099 01       		.sleb128 1
 3050 009a 59       		.uleb128 0x59
 3051 009b 0B       		.uleb128 0xb
 3052 009c 57       		.uleb128 0x57
 3053 009d 0B       		.uleb128 0xb
 3054 009e 01       		.uleb128 0x1
 3055 009f 13       		.uleb128 0x13
 3056 00a0 00       		.byte	0
 3057 00a1 00       		.byte	0
 3058 00a2 0C       		.uleb128 0xc
 3059 00a3 16       		.uleb128 0x16
 3060 00a4 00       		.byte	0
 3061 00a5 03       		.uleb128 0x3
 3062 00a6 0E       		.uleb128 0xe
 3063 00a7 3A       		.uleb128 0x3a
 3064 00a8 0B       		.uleb128 0xb
 3065 00a9 3B       		.uleb128 0x3b
 3066 00aa 05       		.uleb128 0x5
 3067 00ab 39       		.uleb128 0x39
 3068 00ac 21       		.uleb128 0x21
 3069 00ad 03       		.sleb128 3
 3070 00ae 49       		.uleb128 0x49
 3071 00af 13       		.uleb128 0x13
 3072 00b0 00       		.byte	0
 3073 00b1 00       		.byte	0
 3074 00b2 0D       		.uleb128 0xd
 3075 00b3 1D       		.uleb128 0x1d
 3076 00b4 01       		.byte	0x1
 3077 00b5 31       		.uleb128 0x31
 3078 00b6 13       		.uleb128 0x13
ARM GAS  C:\Users\DEVELO~1\AppData\Local\Temp\ccdu9vsZ.s 			page 55


 3079 00b7 52       		.uleb128 0x52
 3080 00b8 01       		.uleb128 0x1
 3081 00b9 B842     		.uleb128 0x2138
 3082 00bb 0B       		.uleb128 0xb
 3083 00bc 55       		.uleb128 0x55
 3084 00bd 17       		.uleb128 0x17
 3085 00be 58       		.uleb128 0x58
 3086 00bf 21       		.uleb128 0x21
 3087 00c0 01       		.sleb128 1
 3088 00c1 59       		.uleb128 0x59
 3089 00c2 0B       		.uleb128 0xb
 3090 00c3 57       		.uleb128 0x57
 3091 00c4 21       		.uleb128 0x21
 3092 00c5 03       		.sleb128 3
 3093 00c6 01       		.uleb128 0x1
 3094 00c7 13       		.uleb128 0x13
 3095 00c8 00       		.byte	0
 3096 00c9 00       		.byte	0
 3097 00ca 0E       		.uleb128 0xe
 3098 00cb 16       		.uleb128 0x16
 3099 00cc 00       		.byte	0
 3100 00cd 03       		.uleb128 0x3
 3101 00ce 0E       		.uleb128 0xe
 3102 00cf 3A       		.uleb128 0x3a
 3103 00d0 0B       		.uleb128 0xb
 3104 00d1 3B       		.uleb128 0x3b
 3105 00d2 0B       		.uleb128 0xb
 3106 00d3 39       		.uleb128 0x39
 3107 00d4 0B       		.uleb128 0xb
 3108 00d5 49       		.uleb128 0x49
 3109 00d6 13       		.uleb128 0x13
 3110 00d7 00       		.byte	0
 3111 00d8 00       		.byte	0
 3112 00d9 0F       		.uleb128 0xf
 3113 00da 26       		.uleb128 0x26
 3114 00db 00       		.byte	0
 3115 00dc 49       		.uleb128 0x49
 3116 00dd 13       		.uleb128 0x13
 3117 00de 00       		.byte	0
 3118 00df 00       		.byte	0
 3119 00e0 10       		.uleb128 0x10
 3120 00e1 13       		.uleb128 0x13
 3121 00e2 01       		.byte	0x1
 3122 00e3 0B       		.uleb128 0xb
 3123 00e4 05       		.uleb128 0x5
 3124 00e5 3A       		.uleb128 0x3a
 3125 00e6 0B       		.uleb128 0xb
 3126 00e7 3B       		.uleb128 0x3b
 3127 00e8 05       		.uleb128 0x5
 3128 00e9 39       		.uleb128 0x39
 3129 00ea 21       		.uleb128 0x21
 3130 00eb 09       		.sleb128 9
 3131 00ec 01       		.uleb128 0x1
 3132 00ed 13       		.uleb128 0x13
 3133 00ee 00       		.byte	0
 3134 00ef 00       		.byte	0
 3135 00f0 11       		.uleb128 0x11
ARM GAS  C:\Users\DEVELO~1\AppData\Local\Temp\ccdu9vsZ.s 			page 56


 3136 00f1 2E       		.uleb128 0x2e
 3137 00f2 00       		.byte	0
 3138 00f3 3F       		.uleb128 0x3f
 3139 00f4 19       		.uleb128 0x19
 3140 00f5 03       		.uleb128 0x3
 3141 00f6 0E       		.uleb128 0xe
 3142 00f7 3A       		.uleb128 0x3a
 3143 00f8 0B       		.uleb128 0xb
 3144 00f9 3B       		.uleb128 0x3b
 3145 00fa 05       		.uleb128 0x5
 3146 00fb 39       		.uleb128 0x39
 3147 00fc 21       		.uleb128 0x21
 3148 00fd 08       		.sleb128 8
 3149 00fe 27       		.uleb128 0x27
 3150 00ff 19       		.uleb128 0x19
 3151 0100 3C       		.uleb128 0x3c
 3152 0101 19       		.uleb128 0x19
 3153 0102 00       		.byte	0
 3154 0103 00       		.byte	0
 3155 0104 12       		.uleb128 0x12
 3156 0105 34       		.uleb128 0x34
 3157 0106 00       		.byte	0
 3158 0107 03       		.uleb128 0x3
 3159 0108 0E       		.uleb128 0xe
 3160 0109 3A       		.uleb128 0x3a
 3161 010a 21       		.uleb128 0x21
 3162 010b 01       		.sleb128 1
 3163 010c 3B       		.uleb128 0x3b
 3164 010d 05       		.uleb128 0x5
 3165 010e 39       		.uleb128 0x39
 3166 010f 21       		.uleb128 0x21
 3167 0110 0E       		.sleb128 14
 3168 0111 49       		.uleb128 0x49
 3169 0112 13       		.uleb128 0x13
 3170 0113 02       		.uleb128 0x2
 3171 0114 17       		.uleb128 0x17
 3172 0115 B742     		.uleb128 0x2137
 3173 0117 17       		.uleb128 0x17
 3174 0118 00       		.byte	0
 3175 0119 00       		.byte	0
 3176 011a 13       		.uleb128 0x13
 3177 011b 34       		.uleb128 0x34
 3178 011c 00       		.byte	0
 3179 011d 31       		.uleb128 0x31
 3180 011e 13       		.uleb128 0x13
 3181 011f 02       		.uleb128 0x2
 3182 0120 17       		.uleb128 0x17
 3183 0121 B742     		.uleb128 0x2137
 3184 0123 17       		.uleb128 0x17
 3185 0124 00       		.byte	0
 3186 0125 00       		.byte	0
 3187 0126 14       		.uleb128 0x14
 3188 0127 1D       		.uleb128 0x1d
 3189 0128 00       		.byte	0
 3190 0129 31       		.uleb128 0x31
 3191 012a 13       		.uleb128 0x13
 3192 012b 52       		.uleb128 0x52
ARM GAS  C:\Users\DEVELO~1\AppData\Local\Temp\ccdu9vsZ.s 			page 57


 3193 012c 01       		.uleb128 0x1
 3194 012d B842     		.uleb128 0x2138
 3195 012f 0B       		.uleb128 0xb
 3196 0130 11       		.uleb128 0x11
 3197 0131 01       		.uleb128 0x1
 3198 0132 12       		.uleb128 0x12
 3199 0133 06       		.uleb128 0x6
 3200 0134 58       		.uleb128 0x58
 3201 0135 21       		.uleb128 0x21
 3202 0136 03       		.sleb128 3
 3203 0137 59       		.uleb128 0x59
 3204 0138 05       		.uleb128 0x5
 3205 0139 57       		.uleb128 0x57
 3206 013a 21       		.uleb128 0x21
 3207 013b 05       		.sleb128 5
 3208 013c 00       		.byte	0
 3209 013d 00       		.byte	0
 3210 013e 15       		.uleb128 0x15
 3211 013f 48       		.uleb128 0x48
 3212 0140 00       		.byte	0
 3213 0141 7D       		.uleb128 0x7d
 3214 0142 01       		.uleb128 0x1
 3215 0143 7F       		.uleb128 0x7f
 3216 0144 13       		.uleb128 0x13
 3217 0145 00       		.byte	0
 3218 0146 00       		.byte	0
 3219 0147 16       		.uleb128 0x16
 3220 0148 2E       		.uleb128 0x2e
 3221 0149 01       		.byte	0x1
 3222 014a 03       		.uleb128 0x3
 3223 014b 0E       		.uleb128 0xe
 3224 014c 3A       		.uleb128 0x3a
 3225 014d 0B       		.uleb128 0xb
 3226 014e 3B       		.uleb128 0x3b
 3227 014f 05       		.uleb128 0x5
 3228 0150 39       		.uleb128 0x39
 3229 0151 21       		.uleb128 0x21
 3230 0152 16       		.sleb128 22
 3231 0153 27       		.uleb128 0x27
 3232 0154 19       		.uleb128 0x19
 3233 0155 20       		.uleb128 0x20
 3234 0156 21       		.uleb128 0x21
 3235 0157 03       		.sleb128 3
 3236 0158 01       		.uleb128 0x1
 3237 0159 13       		.uleb128 0x13
 3238 015a 00       		.byte	0
 3239 015b 00       		.byte	0
 3240 015c 17       		.uleb128 0x17
 3241 015d 34       		.uleb128 0x34
 3242 015e 00       		.byte	0
 3243 015f 03       		.uleb128 0x3
 3244 0160 0E       		.uleb128 0xe
 3245 0161 3A       		.uleb128 0x3a
 3246 0162 21       		.uleb128 0x21
 3247 0163 03       		.sleb128 3
 3248 0164 3B       		.uleb128 0x3b
 3249 0165 05       		.uleb128 0x5
ARM GAS  C:\Users\DEVELO~1\AppData\Local\Temp\ccdu9vsZ.s 			page 58


 3250 0166 39       		.uleb128 0x39
 3251 0167 21       		.uleb128 0x21
 3252 0168 0E       		.sleb128 14
 3253 0169 49       		.uleb128 0x49
 3254 016a 13       		.uleb128 0x13
 3255 016b 00       		.byte	0
 3256 016c 00       		.byte	0
 3257 016d 18       		.uleb128 0x18
 3258 016e 13       		.uleb128 0x13
 3259 016f 01       		.byte	0x1
 3260 0170 0B       		.uleb128 0xb
 3261 0171 21       		.uleb128 0x21
 3262 0172 2C       		.sleb128 44
 3263 0173 3A       		.uleb128 0x3a
 3264 0174 0B       		.uleb128 0xb
 3265 0175 3B       		.uleb128 0x3b
 3266 0176 05       		.uleb128 0x5
 3267 0177 39       		.uleb128 0x39
 3268 0178 21       		.uleb128 0x21
 3269 0179 09       		.sleb128 9
 3270 017a 01       		.uleb128 0x1
 3271 017b 13       		.uleb128 0x13
 3272 017c 00       		.byte	0
 3273 017d 00       		.byte	0
 3274 017e 19       		.uleb128 0x19
 3275 017f 0D       		.uleb128 0xd
 3276 0180 00       		.byte	0
 3277 0181 03       		.uleb128 0x3
 3278 0182 08       		.uleb128 0x8
 3279 0183 3A       		.uleb128 0x3a
 3280 0184 21       		.uleb128 0x21
 3281 0185 07       		.sleb128 7
 3282 0186 3B       		.uleb128 0x3b
 3283 0187 05       		.uleb128 0x5
 3284 0188 39       		.uleb128 0x39
 3285 0189 21       		.uleb128 0x21
 3286 018a 11       		.sleb128 17
 3287 018b 49       		.uleb128 0x49
 3288 018c 13       		.uleb128 0x13
 3289 018d 38       		.uleb128 0x38
 3290 018e 05       		.uleb128 0x5
 3291 018f 00       		.byte	0
 3292 0190 00       		.byte	0
 3293 0191 1A       		.uleb128 0x1a
 3294 0192 2E       		.uleb128 0x2e
 3295 0193 01       		.byte	0x1
 3296 0194 3F       		.uleb128 0x3f
 3297 0195 19       		.uleb128 0x19
 3298 0196 03       		.uleb128 0x3
 3299 0197 0E       		.uleb128 0xe
 3300 0198 3A       		.uleb128 0x3a
 3301 0199 21       		.uleb128 0x21
 3302 019a 01       		.sleb128 1
 3303 019b 3B       		.uleb128 0x3b
 3304 019c 0B       		.uleb128 0xb
 3305 019d 39       		.uleb128 0x39
 3306 019e 21       		.uleb128 0x21
ARM GAS  C:\Users\DEVELO~1\AppData\Local\Temp\ccdu9vsZ.s 			page 59


 3307 019f 06       		.sleb128 6
 3308 01a0 27       		.uleb128 0x27
 3309 01a1 19       		.uleb128 0x19
 3310 01a2 11       		.uleb128 0x11
 3311 01a3 01       		.uleb128 0x1
 3312 01a4 12       		.uleb128 0x12
 3313 01a5 06       		.uleb128 0x6
 3314 01a6 40       		.uleb128 0x40
 3315 01a7 18       		.uleb128 0x18
 3316 01a8 7A       		.uleb128 0x7a
 3317 01a9 19       		.uleb128 0x19
 3318 01aa 01       		.uleb128 0x1
 3319 01ab 13       		.uleb128 0x13
 3320 01ac 00       		.byte	0
 3321 01ad 00       		.byte	0
 3322 01ae 1B       		.uleb128 0x1b
 3323 01af 2E       		.uleb128 0x2e
 3324 01b0 00       		.byte	0
 3325 01b1 03       		.uleb128 0x3
 3326 01b2 0E       		.uleb128 0xe
 3327 01b3 3A       		.uleb128 0x3a
 3328 01b4 21       		.uleb128 0x21
 3329 01b5 01       		.sleb128 1
 3330 01b6 3B       		.uleb128 0x3b
 3331 01b7 0B       		.uleb128 0xb
 3332 01b8 39       		.uleb128 0x39
 3333 01b9 21       		.uleb128 0x21
 3334 01ba 14       		.sleb128 20
 3335 01bb 27       		.uleb128 0x27
 3336 01bc 19       		.uleb128 0x19
 3337 01bd 20       		.uleb128 0x20
 3338 01be 21       		.uleb128 0x21
 3339 01bf 03       		.sleb128 3
 3340 01c0 00       		.byte	0
 3341 01c1 00       		.byte	0
 3342 01c2 1C       		.uleb128 0x1c
 3343 01c3 05       		.uleb128 0x5
 3344 01c4 00       		.byte	0
 3345 01c5 03       		.uleb128 0x3
 3346 01c6 0E       		.uleb128 0xe
 3347 01c7 3A       		.uleb128 0x3a
 3348 01c8 21       		.uleb128 0x21
 3349 01c9 02       		.sleb128 2
 3350 01ca 3B       		.uleb128 0x3b
 3351 01cb 05       		.uleb128 0x5
 3352 01cc 39       		.uleb128 0x39
 3353 01cd 21       		.uleb128 0x21
 3354 01ce 2D       		.sleb128 45
 3355 01cf 49       		.uleb128 0x49
 3356 01d0 13       		.uleb128 0x13
 3357 01d1 00       		.byte	0
 3358 01d2 00       		.byte	0
 3359 01d3 1D       		.uleb128 0x1d
 3360 01d4 05       		.uleb128 0x5
 3361 01d5 00       		.byte	0
 3362 01d6 03       		.uleb128 0x3
 3363 01d7 08       		.uleb128 0x8
ARM GAS  C:\Users\DEVELO~1\AppData\Local\Temp\ccdu9vsZ.s 			page 60


 3364 01d8 3A       		.uleb128 0x3a
 3365 01d9 21       		.uleb128 0x21
 3366 01da 02       		.sleb128 2
 3367 01db 3B       		.uleb128 0x3b
 3368 01dc 05       		.uleb128 0x5
 3369 01dd 39       		.uleb128 0x39
 3370 01de 21       		.uleb128 0x21
 3371 01df 38       		.sleb128 56
 3372 01e0 49       		.uleb128 0x49
 3373 01e1 13       		.uleb128 0x13
 3374 01e2 00       		.byte	0
 3375 01e3 00       		.byte	0
 3376 01e4 1E       		.uleb128 0x1e
 3377 01e5 2E       		.uleb128 0x2e
 3378 01e6 00       		.byte	0
 3379 01e7 03       		.uleb128 0x3
 3380 01e8 0E       		.uleb128 0xe
 3381 01e9 3A       		.uleb128 0x3a
 3382 01ea 21       		.uleb128 0x21
 3383 01eb 04       		.sleb128 4
 3384 01ec 3B       		.uleb128 0x3b
 3385 01ed 05       		.uleb128 0x5
 3386 01ee 39       		.uleb128 0x39
 3387 01ef 21       		.uleb128 0x21
 3388 01f0 1B       		.sleb128 27
 3389 01f1 27       		.uleb128 0x27
 3390 01f2 19       		.uleb128 0x19
 3391 01f3 20       		.uleb128 0x20
 3392 01f4 21       		.uleb128 0x21
 3393 01f5 03       		.sleb128 3
 3394 01f6 00       		.byte	0
 3395 01f7 00       		.byte	0
 3396 01f8 1F       		.uleb128 0x1f
 3397 01f9 11       		.uleb128 0x11
 3398 01fa 01       		.byte	0x1
 3399 01fb 25       		.uleb128 0x25
 3400 01fc 0E       		.uleb128 0xe
 3401 01fd 13       		.uleb128 0x13
 3402 01fe 0B       		.uleb128 0xb
 3403 01ff 03       		.uleb128 0x3
 3404 0200 0E       		.uleb128 0xe
 3405 0201 1B       		.uleb128 0x1b
 3406 0202 0E       		.uleb128 0xe
 3407 0203 55       		.uleb128 0x55
 3408 0204 17       		.uleb128 0x17
 3409 0205 11       		.uleb128 0x11
 3410 0206 01       		.uleb128 0x1
 3411 0207 10       		.uleb128 0x10
 3412 0208 17       		.uleb128 0x17
 3413 0209 00       		.byte	0
 3414 020a 00       		.byte	0
 3415 020b 20       		.uleb128 0x20
 3416 020c 24       		.uleb128 0x24
 3417 020d 00       		.byte	0
 3418 020e 0B       		.uleb128 0xb
 3419 020f 0B       		.uleb128 0xb
 3420 0210 3E       		.uleb128 0x3e
ARM GAS  C:\Users\DEVELO~1\AppData\Local\Temp\ccdu9vsZ.s 			page 61


 3421 0211 0B       		.uleb128 0xb
 3422 0212 03       		.uleb128 0x3
 3423 0213 08       		.uleb128 0x8
 3424 0214 00       		.byte	0
 3425 0215 00       		.byte	0
 3426 0216 21       		.uleb128 0x21
 3427 0217 34       		.uleb128 0x34
 3428 0218 00       		.byte	0
 3429 0219 03       		.uleb128 0x3
 3430 021a 0E       		.uleb128 0xe
 3431 021b 3A       		.uleb128 0x3a
 3432 021c 0B       		.uleb128 0xb
 3433 021d 3B       		.uleb128 0x3b
 3434 021e 0B       		.uleb128 0xb
 3435 021f 39       		.uleb128 0x39
 3436 0220 0B       		.uleb128 0xb
 3437 0221 49       		.uleb128 0x49
 3438 0222 13       		.uleb128 0x13
 3439 0223 3F       		.uleb128 0x3f
 3440 0224 19       		.uleb128 0x19
 3441 0225 3C       		.uleb128 0x3c
 3442 0226 19       		.uleb128 0x19
 3443 0227 00       		.byte	0
 3444 0228 00       		.byte	0
 3445 0229 22       		.uleb128 0x22
 3446 022a 34       		.uleb128 0x34
 3447 022b 00       		.byte	0
 3448 022c 47       		.uleb128 0x47
 3449 022d 13       		.uleb128 0x13
 3450 022e 3A       		.uleb128 0x3a
 3451 022f 0B       		.uleb128 0xb
 3452 0230 3B       		.uleb128 0x3b
 3453 0231 0B       		.uleb128 0xb
 3454 0232 39       		.uleb128 0x39
 3455 0233 0B       		.uleb128 0xb
 3456 0234 02       		.uleb128 0x2
 3457 0235 18       		.uleb128 0x18
 3458 0236 00       		.byte	0
 3459 0237 00       		.byte	0
 3460 0238 23       		.uleb128 0x23
 3461 0239 34       		.uleb128 0x34
 3462 023a 00       		.byte	0
 3463 023b 03       		.uleb128 0x3
 3464 023c 0E       		.uleb128 0xe
 3465 023d 3A       		.uleb128 0x3a
 3466 023e 0B       		.uleb128 0xb
 3467 023f 3B       		.uleb128 0x3b
 3468 0240 0B       		.uleb128 0xb
 3469 0241 39       		.uleb128 0x39
 3470 0242 0B       		.uleb128 0xb
 3471 0243 49       		.uleb128 0x49
 3472 0244 13       		.uleb128 0x13
 3473 0245 02       		.uleb128 0x2
 3474 0246 17       		.uleb128 0x17
 3475 0247 B742     		.uleb128 0x2137
 3476 0249 17       		.uleb128 0x17
 3477 024a 00       		.byte	0
ARM GAS  C:\Users\DEVELO~1\AppData\Local\Temp\ccdu9vsZ.s 			page 62


 3478 024b 00       		.byte	0
 3479 024c 24       		.uleb128 0x24
 3480 024d 0B       		.uleb128 0xb
 3481 024e 01       		.byte	0x1
 3482 024f 11       		.uleb128 0x11
 3483 0250 01       		.uleb128 0x1
 3484 0251 12       		.uleb128 0x12
 3485 0252 06       		.uleb128 0x6
 3486 0253 01       		.uleb128 0x1
 3487 0254 13       		.uleb128 0x13
 3488 0255 00       		.byte	0
 3489 0256 00       		.byte	0
 3490 0257 25       		.uleb128 0x25
 3491 0258 1D       		.uleb128 0x1d
 3492 0259 00       		.byte	0
 3493 025a 31       		.uleb128 0x31
 3494 025b 13       		.uleb128 0x13
 3495 025c 52       		.uleb128 0x52
 3496 025d 01       		.uleb128 0x1
 3497 025e B842     		.uleb128 0x2138
 3498 0260 0B       		.uleb128 0xb
 3499 0261 55       		.uleb128 0x55
 3500 0262 17       		.uleb128 0x17
 3501 0263 58       		.uleb128 0x58
 3502 0264 0B       		.uleb128 0xb
 3503 0265 59       		.uleb128 0x59
 3504 0266 0B       		.uleb128 0xb
 3505 0267 57       		.uleb128 0x57
 3506 0268 0B       		.uleb128 0xb
 3507 0269 00       		.byte	0
 3508 026a 00       		.byte	0
 3509 026b 26       		.uleb128 0x26
 3510 026c 1D       		.uleb128 0x1d
 3511 026d 00       		.byte	0
 3512 026e 31       		.uleb128 0x31
 3513 026f 13       		.uleb128 0x13
 3514 0270 52       		.uleb128 0x52
 3515 0271 01       		.uleb128 0x1
 3516 0272 B842     		.uleb128 0x2138
 3517 0274 0B       		.uleb128 0xb
 3518 0275 11       		.uleb128 0x11
 3519 0276 01       		.uleb128 0x1
 3520 0277 12       		.uleb128 0x12
 3521 0278 06       		.uleb128 0x6
 3522 0279 58       		.uleb128 0x58
 3523 027a 0B       		.uleb128 0xb
 3524 027b 59       		.uleb128 0x59
 3525 027c 0B       		.uleb128 0xb
 3526 027d 57       		.uleb128 0x57
 3527 027e 0B       		.uleb128 0xb
 3528 027f 00       		.byte	0
 3529 0280 00       		.byte	0
 3530 0281 27       		.uleb128 0x27
 3531 0282 1D       		.uleb128 0x1d
 3532 0283 01       		.byte	0x1
 3533 0284 31       		.uleb128 0x31
 3534 0285 13       		.uleb128 0x13
ARM GAS  C:\Users\DEVELO~1\AppData\Local\Temp\ccdu9vsZ.s 			page 63


 3535 0286 52       		.uleb128 0x52
 3536 0287 01       		.uleb128 0x1
 3537 0288 B842     		.uleb128 0x2138
 3538 028a 0B       		.uleb128 0xb
 3539 028b 55       		.uleb128 0x55
 3540 028c 17       		.uleb128 0x17
 3541 028d 58       		.uleb128 0x58
 3542 028e 0B       		.uleb128 0xb
 3543 028f 59       		.uleb128 0x59
 3544 0290 05       		.uleb128 0x5
 3545 0291 57       		.uleb128 0x57
 3546 0292 0B       		.uleb128 0xb
 3547 0293 01       		.uleb128 0x1
 3548 0294 13       		.uleb128 0x13
 3549 0295 00       		.byte	0
 3550 0296 00       		.byte	0
 3551 0297 28       		.uleb128 0x28
 3552 0298 1D       		.uleb128 0x1d
 3553 0299 01       		.byte	0x1
 3554 029a 31       		.uleb128 0x31
 3555 029b 13       		.uleb128 0x13
 3556 029c 52       		.uleb128 0x52
 3557 029d 01       		.uleb128 0x1
 3558 029e B842     		.uleb128 0x2138
 3559 02a0 0B       		.uleb128 0xb
 3560 02a1 11       		.uleb128 0x11
 3561 02a2 01       		.uleb128 0x1
 3562 02a3 12       		.uleb128 0x12
 3563 02a4 06       		.uleb128 0x6
 3564 02a5 58       		.uleb128 0x58
 3565 02a6 0B       		.uleb128 0xb
 3566 02a7 59       		.uleb128 0x59
 3567 02a8 05       		.uleb128 0x5
 3568 02a9 57       		.uleb128 0x57
 3569 02aa 0B       		.uleb128 0xb
 3570 02ab 01       		.uleb128 0x1
 3571 02ac 13       		.uleb128 0x13
 3572 02ad 00       		.byte	0
 3573 02ae 00       		.byte	0
 3574 02af 29       		.uleb128 0x29
 3575 02b0 1D       		.uleb128 0x1d
 3576 02b1 01       		.byte	0x1
 3577 02b2 31       		.uleb128 0x31
 3578 02b3 13       		.uleb128 0x13
 3579 02b4 52       		.uleb128 0x52
 3580 02b5 01       		.uleb128 0x1
 3581 02b6 B842     		.uleb128 0x2138
 3582 02b8 0B       		.uleb128 0xb
 3583 02b9 11       		.uleb128 0x11
 3584 02ba 01       		.uleb128 0x1
 3585 02bb 12       		.uleb128 0x12
 3586 02bc 06       		.uleb128 0x6
 3587 02bd 58       		.uleb128 0x58
 3588 02be 0B       		.uleb128 0xb
 3589 02bf 59       		.uleb128 0x59
 3590 02c0 05       		.uleb128 0x5
 3591 02c1 57       		.uleb128 0x57
ARM GAS  C:\Users\DEVELO~1\AppData\Local\Temp\ccdu9vsZ.s 			page 64


 3592 02c2 0B       		.uleb128 0xb
 3593 02c3 00       		.byte	0
 3594 02c4 00       		.byte	0
 3595 02c5 00       		.byte	0
 3596              		.section	.debug_loclists,"",%progbits
 3597 0000 00020000 		.4byte	.Ldebug_loc3-.Ldebug_loc2
 3598              	.Ldebug_loc2:
 3599 0004 0500     		.2byte	0x5
 3600 0006 04       		.byte	0x4
 3601 0007 00       		.byte	0
 3602 0008 00000000 		.4byte	0
 3603              	.Ldebug_loc0:
 3604              	.LVUS16:
 3605 000c 01       		.uleb128 .LVU219
 3606 000d 03       		.uleb128 .LVU221
 3607 000e 03       		.uleb128 .LVU221
 3608 000f 00       		.uleb128 0
 3609              	.LLST16:
 3610 0010 06       		.byte	0x6
 3611 0011 9E000000 		.4byte	.LVL21
 3612 0015 04       		.byte	0x4
 3613 0016 00       		.uleb128 .LVL21-.LVL21
 3614 0017 00       		.uleb128 .LVL21-.LVL21
 3615 0018 06       		.uleb128 0x6
 3616 0019 0C       		.byte	0xc
 3617 001a 00081008 		.4byte	0x8100800
 3618 001e 9F       		.byte	0x9f
 3619 001f 04       		.byte	0x4
 3620 0020 00       		.uleb128 .LVL21-.LVL21
 3621 0021 AE02     		.uleb128 .LFE435-.LVL21
 3622 0023 06       		.uleb128 0x6
 3623 0024 0C       		.byte	0xc
 3624 0025 00881008 		.4byte	0x8108800
 3625 0029 9F       		.byte	0x9f
 3626 002a 00       		.byte	0
 3627              	.LVUS21:
 3628 002b 01       		.uleb128 .LVU240
 3629 002c 01       		.uleb128 .LVU254
 3630 002d 01       		.uleb128 .LVU254
 3631 002e 01       		.uleb128 .LVU264
 3632 002f 01       		.uleb128 .LVU264
 3633 0030 01       		.uleb128 .LVU273
 3634 0031 01       		.uleb128 .LVU273
 3635 0032 00       		.uleb128 0
 3636              	.LLST21:
 3637 0033 06       		.byte	0x6
 3638 0034 C0000000 		.4byte	.LVL22
 3639 0038 04       		.byte	0x4
 3640 0039 00       		.uleb128 .LVL22-.LVL22
 3641 003a 10       		.uleb128 .LVL24-.LVL22
 3642 003b 02       		.uleb128 0x2
 3643 003c 30       		.byte	0x30
 3644 003d 9F       		.byte	0x9f
 3645 003e 04       		.byte	0x4
 3646 003f 10       		.uleb128 .LVL24-.LVL22
 3647 0040 18       		.uleb128 .LVL25-.LVL22
 3648 0041 04       		.uleb128 0x4
ARM GAS  C:\Users\DEVELO~1\AppData\Local\Temp\ccdu9vsZ.s 			page 65


 3649 0042 40       		.byte	0x40
 3650 0043 44       		.byte	0x44
 3651 0044 24       		.byte	0x24
 3652 0045 9F       		.byte	0x9f
 3653 0046 04       		.byte	0x4
 3654 0047 18       		.uleb128 .LVL25-.LVL22
 3655 0048 1E       		.uleb128 .LVL26-.LVL22
 3656 0049 04       		.uleb128 0x4
 3657 004a 44       		.byte	0x44
 3658 004b 46       		.byte	0x46
 3659 004c 24       		.byte	0x24
 3660 004d 9F       		.byte	0x9f
 3661 004e 04       		.byte	0x4
 3662 004f 1E       		.uleb128 .LVL26-.LVL22
 3663 0050 8C02     		.uleb128 .LFE435-.LVL22
 3664 0052 04       		.uleb128 0x4
 3665 0053 45       		.byte	0x45
 3666 0054 48       		.byte	0x48
 3667 0055 24       		.byte	0x24
 3668 0056 9F       		.byte	0x9f
 3669 0057 00       		.byte	0
 3670              	.LVUS22:
 3671 0058 02       		.uleb128 .LVU241
 3672 0059 02       		.uleb128 .LVU255
 3673 005a 02       		.uleb128 .LVU255
 3674 005b 02       		.uleb128 .LVU265
 3675 005c 02       		.uleb128 .LVU265
 3676 005d 02       		.uleb128 .LVU274
 3677 005e 02       		.uleb128 .LVU274
 3678 005f 00       		.uleb128 0
 3679              	.LLST22:
 3680 0060 06       		.byte	0x6
 3681 0061 C0000000 		.4byte	.LVL22
 3682 0065 04       		.byte	0x4
 3683 0066 00       		.uleb128 .LVL22-.LVL22
 3684 0067 10       		.uleb128 .LVL24-.LVL22
 3685 0068 02       		.uleb128 0x2
 3686 0069 30       		.byte	0x30
 3687 006a 9F       		.byte	0x9f
 3688 006b 04       		.byte	0x4
 3689 006c 10       		.uleb128 .LVL24-.LVL22
 3690 006d 18       		.uleb128 .LVL25-.LVL22
 3691 006e 04       		.uleb128 0x4
 3692 006f 40       		.byte	0x40
 3693 0070 45       		.byte	0x45
 3694 0071 24       		.byte	0x24
 3695 0072 9F       		.byte	0x9f
 3696 0073 04       		.byte	0x4
 3697 0074 18       		.uleb128 .LVL25-.LVL22
 3698 0075 1E       		.uleb128 .LVL26-.LVL22
 3699 0076 04       		.uleb128 0x4
 3700 0077 44       		.byte	0x44
 3701 0078 47       		.byte	0x47
 3702 0079 24       		.byte	0x24
 3703 007a 9F       		.byte	0x9f
 3704 007b 04       		.byte	0x4
 3705 007c 1E       		.uleb128 .LVL26-.LVL22
ARM GAS  C:\Users\DEVELO~1\AppData\Local\Temp\ccdu9vsZ.s 			page 66


 3706 007d 8C02     		.uleb128 .LFE435-.LVL22
 3707 007f 04       		.uleb128 0x4
 3708 0080 45       		.byte	0x45
 3709 0081 49       		.byte	0x49
 3710 0082 24       		.byte	0x24
 3711 0083 9F       		.byte	0x9f
 3712 0084 00       		.byte	0
 3713              	.LVUS23:
 3714 0085 03       		.uleb128 .LVU242
 3715 0086 01       		.uleb128 .LVU249
 3716 0087 01       		.uleb128 .LVU249
 3717 0088 03       		.uleb128 .LVU256
 3718 0089 03       		.uleb128 .LVU256
 3719 008a 04       		.uleb128 .LVU257
 3720 008b 04       		.uleb128 .LVU257
 3721 008c 03       		.uleb128 .LVU266
 3722 008d 03       		.uleb128 .LVU266
 3723 008e 04       		.uleb128 .LVU267
 3724 008f 04       		.uleb128 .LVU267
 3725 0090 03       		.uleb128 .LVU275
 3726 0091 03       		.uleb128 .LVU275
 3727 0092 04       		.uleb128 .LVU276
 3728 0093 04       		.uleb128 .LVU276
 3729 0094 00       		.uleb128 0
 3730              	.LLST23:
 3731 0095 06       		.byte	0x6
 3732 0096 C0000000 		.4byte	.LVL22
 3733 009a 04       		.byte	0x4
 3734 009b 00       		.uleb128 .LVL22-.LVL22
 3735 009c 0C       		.uleb128 .LVL23-.LVL22
 3736 009d 02       		.uleb128 0x2
 3737 009e 30       		.byte	0x30
 3738 009f 9F       		.byte	0x9f
 3739 00a0 04       		.byte	0x4
 3740 00a1 0C       		.uleb128 .LVL23-.LVL22
 3741 00a2 10       		.uleb128 .LVL24-.LVL22
 3742 00a3 04       		.uleb128 0x4
 3743 00a4 0A       		.byte	0xa
 3744 00a5 9903     		.2byte	0x399
 3745 00a7 9F       		.byte	0x9f
 3746 00a8 04       		.byte	0x4
 3747 00a9 10       		.uleb128 .LVL24-.LVL22
 3748 00aa 10       		.uleb128 .LVL24-.LVL22
 3749 00ab 06       		.uleb128 0x6
 3750 00ac 0C       		.byte	0xc
 3751 00ad 99030100 		.4byte	0x10399
 3752 00b1 9F       		.byte	0x9f
 3753 00b2 04       		.byte	0x4
 3754 00b3 10       		.uleb128 .LVL24-.LVL22
 3755 00b4 18       		.uleb128 .LVL25-.LVL22
 3756 00b5 06       		.uleb128 0x6
 3757 00b6 0C       		.byte	0xc
 3758 00b7 99030300 		.4byte	0x30399
 3759 00bb 9F       		.byte	0x9f
 3760 00bc 04       		.byte	0x4
 3761 00bd 18       		.uleb128 .LVL25-.LVL22
 3762 00be 18       		.uleb128 .LVL25-.LVL22
ARM GAS  C:\Users\DEVELO~1\AppData\Local\Temp\ccdu9vsZ.s 			page 67


 3763 00bf 06       		.uleb128 0x6
 3764 00c0 0C       		.byte	0xc
 3765 00c1 99030B00 		.4byte	0xb0399
 3766 00c5 9F       		.byte	0x9f
 3767 00c6 04       		.byte	0x4
 3768 00c7 18       		.uleb128 .LVL25-.LVL22
 3769 00c8 1E       		.uleb128 .LVL26-.LVL22
 3770 00c9 06       		.uleb128 0x6
 3771 00ca 0C       		.byte	0xc
 3772 00cb 99032B00 		.4byte	0x2b0399
 3773 00cf 9F       		.byte	0x9f
 3774 00d0 04       		.byte	0x4
 3775 00d1 1E       		.uleb128 .LVL26-.LVL22
 3776 00d2 1E       		.uleb128 .LVL26-.LVL22
 3777 00d3 06       		.uleb128 0x6
 3778 00d4 0C       		.byte	0xc
 3779 00d5 99036B00 		.4byte	0x6b0399
 3780 00d9 9F       		.byte	0x9f
 3781 00da 04       		.byte	0x4
 3782 00db 1E       		.uleb128 .LVL26-.LVL22
 3783 00dc 8C02     		.uleb128 .LFE435-.LVL22
 3784 00de 06       		.uleb128 0x6
 3785 00df 0C       		.byte	0xc
 3786 00e0 99036B01 		.4byte	0x16b0399
 3787 00e4 9F       		.byte	0x9f
 3788 00e5 00       		.byte	0
 3789              	.LVUS18:
 3790 00e6 01       		.uleb128 .LVU140
 3791 00e7 00       		.uleb128 .LVU147
 3792              	.LLST18:
 3793 00e8 08       		.byte	0x8
 3794 00e9 10000000 		.4byte	.LVL19
 3795 00ed 18       		.uleb128 .LVL20-.LVL19
 3796 00ee 02       		.uleb128 0x2
 3797 00ef 31       		.byte	0x31
 3798 00f0 9F       		.byte	0x9f
 3799 00f1 00       		.byte	0
 3800              	.LVUS19:
 3801 00f2 01       		.uleb128 .LVU140
 3802 00f3 00       		.uleb128 .LVU147
 3803              	.LLST19:
 3804 00f4 08       		.byte	0x8
 3805 00f5 10000000 		.4byte	.LVL19
 3806 00f9 18       		.uleb128 .LVL20-.LVL19
 3807 00fa 02       		.uleb128 0x2
 3808 00fb 32       		.byte	0x32
 3809 00fc 9F       		.byte	0x9f
 3810 00fd 00       		.byte	0
 3811              	.LVUS25:
 3812 00fe 01       		.uleb128 .LVU326
 3813 00ff 00       		.uleb128 .LVU335
 3814              	.LLST25:
 3815 0100 08       		.byte	0x8
 3816 0101 40010000 		.4byte	.LVL27
 3817 0105 1E       		.uleb128 .LVL28-.LVL27
 3818 0106 02       		.uleb128 0x2
 3819 0107 31       		.byte	0x31
ARM GAS  C:\Users\DEVELO~1\AppData\Local\Temp\ccdu9vsZ.s 			page 68


 3820 0108 9F       		.byte	0x9f
 3821 0109 00       		.byte	0
 3822              	.LVUS26:
 3823 010a 01       		.uleb128 .LVU326
 3824 010b 00       		.uleb128 .LVU335
 3825              	.LLST26:
 3826 010c 08       		.byte	0x8
 3827 010d 40010000 		.4byte	.LVL27
 3828 0111 1E       		.uleb128 .LVL28-.LVL27
 3829 0112 04       		.uleb128 0x4
 3830 0113 40       		.byte	0x40
 3831 0114 49       		.byte	0x49
 3832 0115 24       		.byte	0x24
 3833 0116 9F       		.byte	0x9f
 3834 0117 00       		.byte	0
 3835              	.LVUS27:
 3836 0118 02       		.uleb128 .LVU337
 3837 0119 00       		.uleb128 .LVU344
 3838              	.LLST27:
 3839 011a 08       		.byte	0x8
 3840 011b 5E010000 		.4byte	.LVL28
 3841 011f 1C       		.uleb128 .LVL29-.LVL28
 3842 0120 02       		.uleb128 0x2
 3843 0121 31       		.byte	0x31
 3844 0122 9F       		.byte	0x9f
 3845 0123 00       		.byte	0
 3846              	.LVUS28:
 3847 0124 02       		.uleb128 .LVU337
 3848 0125 00       		.uleb128 .LVU344
 3849              	.LLST28:
 3850 0126 08       		.byte	0x8
 3851 0127 5E010000 		.4byte	.LVL28
 3852 012b 1C       		.uleb128 .LVL29-.LVL28
 3853 012c 04       		.uleb128 0x4
 3854 012d 40       		.byte	0x40
 3855 012e 4A       		.byte	0x4a
 3856 012f 24       		.byte	0x24
 3857 0130 9F       		.byte	0x9f
 3858 0131 00       		.byte	0
 3859              	.LVUS29:
 3860 0132 02       		.uleb128 .LVU346
 3861 0133 00       		.uleb128 .LVU353
 3862              	.LLST29:
 3863 0134 08       		.byte	0x8
 3864 0135 7A010000 		.4byte	.LVL29
 3865 0139 1C       		.uleb128 .LVL30-.LVL29
 3866 013a 02       		.uleb128 0x2
 3867 013b 31       		.byte	0x31
 3868 013c 9F       		.byte	0x9f
 3869 013d 00       		.byte	0
 3870              	.LVUS30:
 3871 013e 02       		.uleb128 .LVU346
 3872 013f 00       		.uleb128 .LVU353
 3873              	.LLST30:
 3874 0140 08       		.byte	0x8
 3875 0141 7A010000 		.4byte	.LVL29
 3876 0145 1C       		.uleb128 .LVL30-.LVL29
ARM GAS  C:\Users\DEVELO~1\AppData\Local\Temp\ccdu9vsZ.s 			page 69


 3877 0146 05       		.uleb128 0x5
 3878 0147 40       		.byte	0x40
 3879 0148 4B       		.byte	0x4b
 3880 0149 24       		.byte	0x24
 3881 014a 1F       		.byte	0x1f
 3882 014b 9F       		.byte	0x9f
 3883 014c 00       		.byte	0
 3884              	.LVUS1:
 3885 014d 02       		.uleb128 .LVU2
 3886 014e 00       		.uleb128 .LVU15
 3887              	.LLST1:
 3888 014f 08       		.byte	0x8
 3889 0150 00000000 		.4byte	.LVL0
 3890 0154 2A       		.uleb128 .LVL1-.LVL0
 3891 0155 06       		.uleb128 0x6
 3892 0156 0C       		.byte	0xc
 3893 0157 FFFFFF7F 		.4byte	0x7fffffff
 3894 015b 9F       		.byte	0x9f
 3895 015c 00       		.byte	0
 3896              	.LVUS3:
 3897 015d 02       		.uleb128 .LVU17
 3898 015e 00       		.uleb128 .LVU23
 3899              	.LLST3:
 3900 015f 08       		.byte	0x8
 3901 0160 2A000000 		.4byte	.LVL1
 3902 0164 14       		.uleb128 .LVL2-.LVL1
 3903 0165 03       		.uleb128 0x3
 3904 0166 09       		.byte	0x9
 3905 0167 FF       		.byte	0xff
 3906 0168 9F       		.byte	0x9f
 3907 0169 00       		.byte	0
 3908              	.LVUS5:
 3909 016a 02       		.uleb128 .LVU25
 3910 016b 00       		.uleb128 .LVU33
 3911              	.LLST5:
 3912 016c 08       		.byte	0x8
 3913 016d 3E000000 		.4byte	.LVL2
 3914 0171 10       		.uleb128 .LVL3-.LVL2
 3915 0172 06       		.uleb128 0x6
 3916 0173 0C       		.byte	0xc
 3917 0174 FFEFFF7F 		.4byte	0x7fffefff
 3918 0178 9F       		.byte	0x9f
 3919 0179 00       		.byte	0
 3920              	.LVUS7:
 3921 017a 02       		.uleb128 .LVU35
 3922 017b 00       		.uleb128 .LVU41
 3923              	.LLST7:
 3924 017c 08       		.byte	0x8
 3925 017d 4E000000 		.4byte	.LVL3
 3926 0181 1A       		.uleb128 .LVL4-.LVL3
 3927 0182 04       		.uleb128 0x4
 3928 0183 0B       		.byte	0xb
 3929 0184 00F8     		.2byte	0xf800
 3930 0186 9F       		.byte	0x9f
 3931 0187 00       		.byte	0
 3932              	.LVUS8:
 3933 0188 02       		.uleb128 .LVU43
ARM GAS  C:\Users\DEVELO~1\AppData\Local\Temp\ccdu9vsZ.s 			page 70


 3934 0189 00       		.uleb128 .LVU49
 3935              	.LLST8:
 3936 018a 08       		.byte	0x8
 3937 018b 68000000 		.4byte	.LVL4
 3938 018f 14       		.uleb128 .LVL5-.LVL4
 3939 0190 03       		.uleb128 0x3
 3940 0191 09       		.byte	0x9
 3941 0192 FF       		.byte	0xff
 3942 0193 9F       		.byte	0x9f
 3943 0194 00       		.byte	0
 3944              	.LVUS9:
 3945 0195 02       		.uleb128 .LVU51
 3946 0196 00       		.uleb128 .LVU57
 3947              	.LLST9:
 3948 0197 08       		.byte	0x8
 3949 0198 7C000000 		.4byte	.LVL5
 3950 019c 14       		.uleb128 .LVL6-.LVL5
 3951 019d 03       		.uleb128 0x3
 3952 019e 09       		.byte	0x9
 3953 019f FF       		.byte	0xff
 3954 01a0 9F       		.byte	0x9f
 3955 01a1 00       		.byte	0
 3956              	.LVUS10:
 3957 01a2 02       		.uleb128 .LVU59
 3958 01a3 00       		.uleb128 .LVU65
 3959              	.LLST10:
 3960 01a4 08       		.byte	0x8
 3961 01a5 90000000 		.4byte	.LVL6
 3962 01a9 14       		.uleb128 .LVL7-.LVL6
 3963 01aa 03       		.uleb128 0x3
 3964 01ab 09       		.byte	0x9
 3965 01ac FF       		.byte	0xff
 3966 01ad 9F       		.byte	0x9f
 3967 01ae 00       		.byte	0
 3968              	.LVUS11:
 3969 01af 02       		.uleb128 .LVU67
 3970 01b0 00       		.uleb128 .LVU73
 3971              	.LLST11:
 3972 01b1 08       		.byte	0x8
 3973 01b2 A4000000 		.4byte	.LVL7
 3974 01b6 14       		.uleb128 .LVL8-.LVL7
 3975 01b7 03       		.uleb128 0x3
 3976 01b8 09       		.byte	0x9
 3977 01b9 FF       		.byte	0xff
 3978 01ba 9F       		.byte	0x9f
 3979 01bb 00       		.byte	0
 3980              	.LVUS12:
 3981 01bc 02       		.uleb128 .LVU75
 3982 01bd 00       		.uleb128 .LVU81
 3983              	.LLST12:
 3984 01be 08       		.byte	0x8
 3985 01bf B8000000 		.4byte	.LVL8
 3986 01c3 14       		.uleb128 .LVL9-.LVL8
 3987 01c4 03       		.uleb128 0x3
 3988 01c5 09       		.byte	0x9
 3989 01c6 FF       		.byte	0xff
 3990 01c7 9F       		.byte	0x9f
ARM GAS  C:\Users\DEVELO~1\AppData\Local\Temp\ccdu9vsZ.s 			page 71


 3991 01c8 00       		.byte	0
 3992              	.LVUS13:
 3993 01c9 00       		.uleb128 .LVU106
 3994 01ca 00       		.uleb128 .LVU110
 3995              	.LLST13:
 3996 01cb 08       		.byte	0x8
 3997 01cc 08010000 		.4byte	.LVL13
 3998 01d0 10       		.uleb128 .LVL14-.LVL13
 3999 01d1 01       		.uleb128 0x1
 4000 01d2 53       		.byte	0x53
 4001 01d3 00       		.byte	0
 4002              	.LVUS14:
 4003 01d4 01       		.uleb128 .LVU107
 4004 01d5 00       		.uleb128 .LVU110
 4005              	.LLST14:
 4006 01d6 08       		.byte	0x8
 4007 01d7 08010000 		.4byte	.LVL13
 4008 01db 10       		.uleb128 .LVL14-.LVL13
 4009 01dc 09       		.uleb128 0x9
 4010 01dd 73       		.byte	0x73
 4011 01de 00       		.sleb128 0
 4012 01df 3D       		.byte	0x3d
 4013 01e0 25       		.byte	0x25
 4014 01e1 0A       		.byte	0xa
 4015 01e2 FF7F     		.2byte	0x7fff
 4016 01e4 1A       		.byte	0x1a
 4017 01e5 9F       		.byte	0x9f
 4018 01e6 00       		.byte	0
 4019              	.LVUS15:
 4020 01e7 00       		.uleb128 .LVU114
 4021 01e8 00       		.uleb128 .LVU118
 4022 01e9 00       		.uleb128 .LVU118
 4023 01ea 01       		.uleb128 .LVU120
 4024 01eb 01       		.uleb128 .LVU120
 4025 01ec 00       		.uleb128 .LVU128
 4026              	.LLST15:
 4027 01ed 06       		.byte	0x6
 4028 01ee 1E010000 		.4byte	.LVL15
 4029 01f2 04       		.byte	0x4
 4030 01f3 00       		.uleb128 .LVL15-.LVL15
 4031 01f4 06       		.uleb128 .LVL16-.LVL15
 4032 01f5 01       		.uleb128 0x1
 4033 01f6 53       		.byte	0x53
 4034 01f7 04       		.byte	0x4
 4035 01f8 06       		.uleb128 .LVL16-.LVL15
 4036 01f9 0A       		.uleb128 .LVL17-.LVL15
 4037 01fa 03       		.uleb128 0x3
 4038 01fb 73       		.byte	0x73
 4039 01fc 01       		.sleb128 1
 4040 01fd 9F       		.byte	0x9f
 4041 01fe 04       		.byte	0x4
 4042 01ff 0A       		.uleb128 .LVL17-.LVL15
 4043 0200 20       		.uleb128 .LVL18-.LVL15
 4044 0201 01       		.uleb128 0x1
 4045 0202 53       		.byte	0x53
 4046 0203 00       		.byte	0
 4047              	.Ldebug_loc3:
ARM GAS  C:\Users\DEVELO~1\AppData\Local\Temp\ccdu9vsZ.s 			page 72


 4048              		.section	.debug_aranges,"",%progbits
 4049 0000 24000000 		.4byte	0x24
 4050 0004 0200     		.2byte	0x2
 4051 0006 00000000 		.4byte	.Ldebug_info0
 4052 000a 04       		.byte	0x4
 4053 000b 00       		.byte	0
 4054 000c 0000     		.2byte	0
 4055 000e 0000     		.2byte	0
 4056 0010 00000000 		.4byte	.LFB434
 4057 0014 58010000 		.4byte	.LFE434-.LFB434
 4058 0018 00000000 		.4byte	.LFB435
 4059 001c CC010000 		.4byte	.LFE435-.LFB435
 4060 0020 00000000 		.4byte	0
 4061 0024 00000000 		.4byte	0
 4062              		.section	.debug_rnglists,"",%progbits
 4063              	.Ldebug_ranges0:
 4064 0000 7A000000 		.4byte	.Ldebug_ranges3-.Ldebug_ranges2
 4065              	.Ldebug_ranges2:
 4066 0004 0500     		.2byte	0x5
 4067 0006 04       		.byte	0x4
 4068 0007 00       		.byte	0
 4069 0008 00000000 		.4byte	0
 4070              	.LLRL0:
 4071 000c 05       		.byte	0x5
 4072 000d 00000000 		.4byte	.LBB61
 4073 0011 04       		.byte	0x4
 4074 0012 00       		.uleb128 .LBB61-.LBB61
 4075 0013 00       		.uleb128 .LBE61-.LBB61
 4076 0014 04       		.byte	0x4
 4077 0015 02       		.uleb128 .LBB66-.LBB61
 4078 0016 04       		.uleb128 .LBE66-.LBB61
 4079 0017 04       		.byte	0x4
 4080 0018 0C       		.uleb128 .LBB75-.LBB61
 4081 0019 10       		.uleb128 .LBE75-.LBB61
 4082 001a 04       		.byte	0x4
 4083 001b 12       		.uleb128 .LBB77-.LBB61
 4084 001c 2A       		.uleb128 .LBE77-.LBB61
 4085 001d 00       		.byte	0
 4086              	.LLRL2:
 4087 001e 05       		.byte	0x5
 4088 001f 04000000 		.4byte	.LBB67
 4089 0023 04       		.byte	0x4
 4090 0024 00       		.uleb128 .LBB67-.LBB67
 4091 0025 06       		.uleb128 .LBE67-.LBB67
 4092 0026 04       		.byte	0x4
 4093 0027 26       		.uleb128 .LBB78-.LBB67
 4094 0028 3A       		.uleb128 .LBE78-.LBB67
 4095 0029 00       		.byte	0
 4096              	.LLRL4:
 4097 002a 05       		.byte	0x5
 4098 002b 0A000000 		.4byte	.LBB70
 4099 002f 04       		.byte	0x4
 4100 0030 00       		.uleb128 .LBB70-.LBB70
 4101 0031 02       		.uleb128 .LBE70-.LBB70
 4102 0032 04       		.byte	0x4
 4103 0033 06       		.uleb128 .LBB76-.LBB70
 4104 0034 08       		.uleb128 .LBE76-.LBB70
ARM GAS  C:\Users\DEVELO~1\AppData\Local\Temp\ccdu9vsZ.s 			page 73


 4105 0035 04       		.byte	0x4
 4106 0036 34       		.uleb128 .LBB79-.LBB70
 4107 0037 3C       		.uleb128 .LBE79-.LBB70
 4108 0038 04       		.byte	0x4
 4109 0039 3E       		.uleb128 .LBB83-.LBB70
 4110 003a 44       		.uleb128 .LBE83-.LBB70
 4111 003b 00       		.byte	0
 4112              	.LLRL6:
 4113 003c 05       		.byte	0x5
 4114 003d 46000000 		.4byte	.LBB80
 4115 0041 04       		.byte	0x4
 4116 0042 00       		.uleb128 .LBB80-.LBB80
 4117 0043 02       		.uleb128 .LBE80-.LBB80
 4118 0044 04       		.byte	0x4
 4119 0045 08       		.uleb128 .LBB84-.LBB80
 4120 0046 22       		.uleb128 .LBE84-.LBB80
 4121 0047 00       		.byte	0
 4122              	.LLRL17:
 4123 0048 05       		.byte	0x5
 4124 0049 00000000 		.4byte	.LBB116
 4125 004d 04       		.byte	0x4
 4126 004e 00       		.uleb128 .LBB116-.LBB116
 4127 004f 02       		.uleb128 .LBE116-.LBB116
 4128 0050 04       		.byte	0x4
 4129 0051 10       		.uleb128 .LBB124-.LBB116
 4130 0052 28       		.uleb128 .LBE124-.LBB116
 4131 0053 00       		.byte	0
 4132              	.LLRL20:
 4133 0054 05       		.byte	0x5
 4134 0055 02000000 		.4byte	.LBB119
 4135 0059 04       		.byte	0x4
 4136 005a 00       		.uleb128 .LBB119-.LBB119
 4137 005b 02       		.uleb128 .LBE119-.LBB119
 4138 005c 04       		.byte	0x4
 4139 005d 04       		.uleb128 .LBB123-.LBB119
 4140 005e 06       		.uleb128 .LBE123-.LBB119
 4141 005f 04       		.byte	0x4
 4142 0060 26       		.uleb128 .LBB125-.LBB119
 4143 0061 4C       		.uleb128 .LBE125-.LBB119
 4144 0062 00       		.byte	0
 4145              	.LLRL24:
 4146 0063 05       		.byte	0x5
 4147 0064 40010000 		.4byte	.LBB129
 4148 0068 04       		.byte	0x4
 4149 0069 00       		.uleb128 .LBB129-.LBB129
 4150 006a 04       		.uleb128 .LBE129-.LBB129
 4151 006b 04       		.byte	0x4
 4152 006c 06       		.uleb128 .LBB132-.LBB129
 4153 006d 1E       		.uleb128 .LBE132-.LBB129
 4154 006e 00       		.byte	0
 4155              	.LLRL31:
 4156 006f 07       		.byte	0x7
 4157 0070 00000000 		.4byte	.LFB434
 4158 0074 D802     		.uleb128 .LFE434-.LFB434
 4159 0076 07       		.byte	0x7
 4160 0077 00000000 		.4byte	.LFB435
 4161 007b CC03     		.uleb128 .LFE435-.LFB435
ARM GAS  C:\Users\DEVELO~1\AppData\Local\Temp\ccdu9vsZ.s 			page 74


 4162 007d 00       		.byte	0
 4163              	.Ldebug_ranges3:
 4164              		.section	.debug_line,"",%progbits
 4165              	.Ldebug_line0:
 4166 0000 08080000 		.section	.debug_str,"MS",%progbits,1
 4166      03003102 
 4166      00000201 
 4166      FB0E0D00 
 4166      01010101 
 4167              	.LASF182:
 4168 0000 68616C5F 		.ascii	"hal_lld_init\000"
 4168      6C6C645F 
 4168      696E6974 
 4168      00
 4169              	.LASF19:
 4170 000d 53485052 		.ascii	"SHPR\000"
 4170      00
 4171              	.LASF59:
 4172 0012 41484253 		.ascii	"AHBSCR\000"
 4172      435200
 4173              	.LASF153:
 4174 0019 41484232 		.ascii	"AHB2ENR\000"
 4174      454E5200 
 4175              	.LASF114:
 4176 0021 574B5550 		.ascii	"WKUPFR\000"
 4176      465200
 4177              	.LASF92:
 4178 0028 43524344 		.ascii	"CRCDATA\000"
 4178      41544100 
 4179              	.LASF3:
 4180 0030 7369676E 		.ascii	"signed char\000"
 4180      65642063 
 4180      68617200 
 4181              	.LASF8:
 4182 003c 5F5F7569 		.ascii	"__uint8_t\000"
 4182      6E74385F 
 4182      7400
 4183              	.LASF38:
 4184 0046 53544952 		.ascii	"STIR\000"
 4184      00
 4185              	.LASF62:
 4186 004b 5343425F 		.ascii	"SCB_Type\000"
 4186      54797065 
 4186      00
 4187              	.LASF167:
 4188 0054 41504231 		.ascii	"APB1HLPENR\000"
 4188      484C5045 
 4188      4E5200
 4189              	.LASF7:
 4190 005f 6C6F6E67 		.ascii	"long int\000"
 4190      20696E74 
 4190      00
 4191              	.LASF77:
 4192 0068 4F505443 		.ascii	"OPTCR\000"
 4192      5200
 4193              	.LASF82:
 4194 006e 50524152 		.ascii	"PRAR_PRG1\000"
ARM GAS  C:\Users\DEVELO~1\AppData\Local\Temp\ccdu9vsZ.s 			page 75


 4194      5F505247 
 4194      3100
 4195              	.LASF99:
 4196 0078 50524152 		.ascii	"PRAR_PRG2\000"
 4196      5F505247 
 4196      3200
 4197              	.LASF33:
 4198 0082 434C4944 		.ascii	"CLIDR\000"
 4198      5200
 4199              	.LASF204:
 4200 0088 2E2E2F2E 		.ascii	"../../../os/hal/ports/STM32/STM32H7xx/hal_lld.c\000"
 4200      2E2F2E2E 
 4200      2F6F732F 
 4200      68616C2F 
 4200      706F7274 
 4201              	.LASF194:
 4202 00b8 5F5F7263 		.ascii	"__rccResetAPB2\000"
 4202      63526573 
 4202      65744150 
 4202      423200
 4203              	.LASF149:
 4204 00c7 4433414D 		.ascii	"D3AMR\000"
 4204      5200
 4205              	.LASF192:
 4206 00cd 5F5F7263 		.ascii	"__rccResetAPB4\000"
 4206      63526573 
 4206      65744150 
 4206      423400
 4207              	.LASF68:
 4208 00dc 52415352 		.ascii	"RASR_A1\000"
 4208      5F413100 
 4209              	.LASF70:
 4210 00e4 52415352 		.ascii	"RASR_A2\000"
 4210      5F413200 
 4211              	.LASF72:
 4212 00ec 52415352 		.ascii	"RASR_A3\000"
 4212      5F413300 
 4213              	.LASF15:
 4214 00f4 43505549 		.ascii	"CPUID\000"
 4214      4400
 4215              	.LASF27:
 4216 00fa 49445F50 		.ascii	"ID_PFR\000"
 4216      465200
 4217              	.LASF162:
 4218 0101 41484231 		.ascii	"AHB1LPENR\000"
 4218      4C50454E 
 4218      5200
 4219              	.LASF136:
 4220 010b 43494552 		.ascii	"CIER\000"
 4220      00
 4221              	.LASF143:
 4222 0110 41484234 		.ascii	"AHB4RSTR\000"
 4222      52535452 
 4222      00
 4223              	.LASF1:
 4224 0119 6C6F6E67 		.ascii	"long long int\000"
 4224      206C6F6E 
ARM GAS  C:\Users\DEVELO~1\AppData\Local\Temp\ccdu9vsZ.s 			page 76


 4224      6720696E 
 4224      7400
 4225              	.LASF87:
 4226 0127 424F4F54 		.ascii	"BOOT_CUR\000"
 4226      5F435552 
 4226      00
 4227              	.LASF113:
 4228 0130 574B5550 		.ascii	"WKUPCR\000"
 4228      435200
 4229              	.LASF178:
 4230 0137 6F6E6D61 		.ascii	"onmask\000"
 4230      736B00
 4231              	.LASF109:
 4232 013e 464C4153 		.ascii	"FLASH_TypeDef\000"
 4232      485F5479 
 4232      70654465 
 4232      6600
 4233              	.LASF10:
 4234 014c 6C6F6E67 		.ascii	"long unsigned int\000"
 4234      20756E73 
 4234      69676E65 
 4234      6420696E 
 4234      7400
 4235              	.LASF34:
 4236 015e 43435349 		.ascii	"CCSIDR\000"
 4236      445200
 4237              	.LASF80:
 4238 0165 4F505443 		.ascii	"OPTCCR\000"
 4238      435200
 4239              	.LASF150:
 4240 016c 52455345 		.ascii	"RESERVED11\000"
 4240      52564544 
 4240      313100
 4241              	.LASF160:
 4242 0177 52455345 		.ascii	"RESERVED12\000"
 4242      52564544 
 4242      313200
 4243              	.LASF170:
 4244 0182 52455345 		.ascii	"RESERVED13\000"
 4244      52564544 
 4244      313300
 4245              	.LASF107:
 4246 018d 43524344 		.ascii	"CRCDATA2\000"
 4246      41544132 
 4246      00
 4247              	.LASF205:
 4248 0196 433A5C50 		.ascii	"C:\\PROJET\\ChibiOS project\\ChibiOS_21.11.4\\demos"
 4248      524F4A45 
 4248      545C4368 
 4248      6962694F 
 4248      53207072 
 4249 01c5 5C53544D 		.ascii	"\\STM32\\RT-STM32H743ZI_REV_XY-NUCLEO144\000"
 4249      33325C52 
 4249      542D5354 
 4249      4D333248 
 4249      3734335A 
 4250              	.LASF127:
ARM GAS  C:\Users\DEVELO~1\AppData\Local\Temp\ccdu9vsZ.s 			page 77


 4251 01ec 504C4C31 		.ascii	"PLL1FRACR\000"
 4251      46524143 
 4251      5200
 4252              	.LASF147:
 4253 01f6 41504232 		.ascii	"APB2RSTR\000"
 4253      52535452 
 4253      00
 4254              	.LASF184:
 4255 01ff 696E6974 		.ascii	"init_bkp_domain\000"
 4255      5F626B70 
 4255      5F646F6D 
 4255      61696E00 
 4256              	.LASF67:
 4257 020f 52424152 		.ascii	"RBAR_A1\000"
 4257      5F413100 
 4258              	.LASF69:
 4259 0217 52424152 		.ascii	"RBAR_A2\000"
 4259      5F413200 
 4260              	.LASF71:
 4261 021f 52424152 		.ascii	"RBAR_A3\000"
 4261      5F413300 
 4262              	.LASF65:
 4263 0227 52424152 		.ascii	"RBAR\000"
 4263      00
 4264              	.LASF75:
 4265 022c 4F50544B 		.ascii	"OPTKEYR\000"
 4265      45595200 
 4266              	.LASF83:
 4267 0234 53434152 		.ascii	"SCAR_CUR1\000"
 4267      5F435552 
 4267      3100
 4268              	.LASF180:
 4269 023e 6366676D 		.ascii	"cfgmask\000"
 4269      61736B00 
 4270              	.LASF100:
 4271 0246 53434152 		.ascii	"SCAR_CUR2\000"
 4271      5F435552 
 4271      3200
 4272              	.LASF123:
 4273 0250 44334346 		.ascii	"D3CFGR\000"
 4273      475200
 4274              	.LASF125:
 4275 0257 504C4C43 		.ascii	"PLLCFGR\000"
 4275      46475200 
 4276              	.LASF25:
 4277 025f 42464152 		.ascii	"BFAR\000"
 4277      00
 4278              	.LASF118:
 4279 0264 43525243 		.ascii	"CRRCR\000"
 4279      5200
 4280              	.LASF137:
 4281 026a 43494652 		.ascii	"CIFR\000"
 4281      00
 4282              	.LASF130:
 4283 026f 504C4C33 		.ascii	"PLL3DIVR\000"
 4283      44495652 
 4283      00
ARM GAS  C:\Users\DEVELO~1\AppData\Local\Temp\ccdu9vsZ.s 			page 78


 4284              	.LASF9:
 4285 0278 5F5F7569 		.ascii	"__uint32_t\000"
 4285      6E743332 
 4285      5F7400
 4286              	.LASF185:
 4287 0283 6D61736B 		.ascii	"mask\000"
 4287      00
 4288              	.LASF133:
 4289 0288 44324343 		.ascii	"D2CCIP1R\000"
 4289      49503152 
 4289      00
 4290              	.LASF200:
 4291 0291 77617973 		.ascii	"ways\000"
 4291      00
 4292              	.LASF135:
 4293 0296 44334343 		.ascii	"D3CCIPR\000"
 4293      49505200 
 4294              	.LASF28:
 4295 029e 49445F44 		.ascii	"ID_DFR\000"
 4295      465200
 4296              	.LASF50:
 4297 02a5 4443434D 		.ascii	"DCCMVAC\000"
 4297      56414300 
 4298              	.LASF181:
 4299 02ad 73746D33 		.ascii	"stm32_clock_init\000"
 4299      325F636C 
 4299      6F636B5F 
 4299      696E6974 
 4299      00
 4300              	.LASF11:
 4301 02be 6C6F6E67 		.ascii	"long long unsigned int\000"
 4301      206C6F6E 
 4301      6720756E 
 4301      7369676E 
 4301      65642069 
 4302              	.LASF129:
 4303 02d5 504C4C32 		.ascii	"PLL2FRACR\000"
 4303      46524143 
 4303      5200
 4304              	.LASF58:
 4305 02df 43414352 		.ascii	"CACR\000"
 4305      00
 4306              	.LASF35:
 4307 02e4 43535345 		.ascii	"CSSELR\000"
 4307      4C5200
 4308              	.LASF0:
 4309 02eb 756E7369 		.ascii	"unsigned int\000"
 4309      676E6564 
 4309      20696E74 
 4309      00
 4310              	.LASF115:
 4311 02f8 574B5550 		.ascii	"WKUPEPR\000"
 4311      45505200 
 4312              	.LASF176:
 4313 0300 53797374 		.ascii	"SystemCoreClock\000"
 4313      656D436F 
 4313      7265436C 
ARM GAS  C:\Users\DEVELO~1\AppData\Local\Temp\ccdu9vsZ.s 			page 79


 4313      6F636B00 
 4314              	.LASF49:
 4315 0310 4443434D 		.ascii	"DCCMVAU\000"
 4315      56415500 
 4316              	.LASF199:
 4317 0318 73657473 		.ascii	"sets\000"
 4317      00
 4318              	.LASF53:
 4319 031d 44434349 		.ascii	"DCCISW\000"
 4319      535700
 4320              	.LASF111:
 4321 0324 43505543 		.ascii	"CPUCR\000"
 4321      5200
 4322              	.LASF171:
 4323 032a 5243435F 		.ascii	"RCC_TypeDef\000"
 4323      54797065 
 4323      44656600 
 4324              	.LASF203:
 4325 0336 474E5520 		.ascii	"GNU C17 11.3.1 20220712 -mcpu=cortex-m7 -mthumb -mf"
 4325      43313720 
 4325      31312E33 
 4325      2E312032 
 4325      30323230 
 4326 0369 6C6F6174 		.ascii	"loat-abi=soft -march=armv7e-m -ggdb -O2 -fomit-fram"
 4326      2D616269 
 4326      3D736F66 
 4326      74202D6D 
 4326      61726368 
 4327 039c 652D706F 		.ascii	"e-pointer -falign-functions=16 -ffunction-sections "
 4327      696E7465 
 4327      72202D66 
 4327      616C6967 
 4327      6E2D6675 
 4328 03cf 2D666461 		.ascii	"-fdata-sections -fno-common\000"
 4328      74612D73 
 4328      65637469 
 4328      6F6E7320 
 4328      2D666E6F 
 4329              	.LASF17:
 4330 03eb 56544F52 		.ascii	"VTOR\000"
 4330      00
 4331              	.LASF88:
 4332 03f0 424F4F54 		.ascii	"BOOT_PRG\000"
 4332      5F505247 
 4332      00
 4333              	.LASF134:
 4334 03f9 44324343 		.ascii	"D2CCIP2R\000"
 4334      49503252 
 4334      00
 4335              	.LASF6:
 4336 0402 73686F72 		.ascii	"short unsigned int\000"
 4336      7420756E 
 4336      7369676E 
 4336      65642069 
 4336      6E7400
 4337              	.LASF202:
 4338 0415 5F5F4953 		.ascii	"__ISB\000"
ARM GAS  C:\Users\DEVELO~1\AppData\Local\Temp\ccdu9vsZ.s 			page 80


 4338      4200
 4339              	.LASF124:
 4340 041b 504C4C43 		.ascii	"PLLCKSELR\000"
 4340      4B53454C 
 4340      5200
 4341              	.LASF16:
 4342 0425 49435352 		.ascii	"ICSR\000"
 4342      00
 4343              	.LASF117:
 4344 042a 48534943 		.ascii	"HSICFGR\000"
 4344      46475200 
 4345              	.LASF18:
 4346 0432 41495243 		.ascii	"AIRCR\000"
 4346      5200
 4347              	.LASF23:
 4348 0438 44465352 		.ascii	"DFSR\000"
 4348      00
 4349              	.LASF157:
 4350 043d 41504231 		.ascii	"APB1HENR\000"
 4350      48454E52 
 4350      00
 4351              	.LASF55:
 4352 0446 4954434D 		.ascii	"ITCMCR\000"
 4352      435200
 4353              	.LASF24:
 4354 044d 4D4D4641 		.ascii	"MMFAR\000"
 4354      5200
 4355              	.LASF81:
 4356 0453 50524152 		.ascii	"PRAR_CUR1\000"
 4356      5F435552 
 4356      3100
 4357              	.LASF98:
 4358 045d 50524152 		.ascii	"PRAR_CUR2\000"
 4358      5F435552 
 4358      3200
 4359              	.LASF145:
 4360 0467 41504231 		.ascii	"APB1LRSTR\000"
 4360      4C525354 
 4360      5200
 4361              	.LASF168:
 4362 0471 41504232 		.ascii	"APB2LPENR\000"
 4362      4C50454E 
 4362      5200
 4363              	.LASF131:
 4364 047b 504C4C33 		.ascii	"PLL3FRACR\000"
 4364      46524143 
 4364      5200
 4365              	.LASF61:
 4366 0485 41424653 		.ascii	"ABFSR\000"
 4366      5200
 4367              	.LASF148:
 4368 048b 41504234 		.ascii	"APB4RSTR\000"
 4368      52535452 
 4368      00
 4369              	.LASF116:
 4370 0494 5057525F 		.ascii	"PWR_TypeDef\000"
 4370      54797065 
ARM GAS  C:\Users\DEVELO~1\AppData\Local\Temp\ccdu9vsZ.s 			page 81


 4370      44656600 
 4371              	.LASF201:
 4372 04a0 5F5F4453 		.ascii	"__DSB\000"
 4372      4200
 4373              	.LASF84:
 4374 04a6 53434152 		.ascii	"SCAR_PRG1\000"
 4374      5F505247 
 4374      3100
 4375              	.LASF101:
 4376 04b0 53434152 		.ascii	"SCAR_PRG2\000"
 4376      5F505247 
 4376      3200
 4377              	.LASF159:
 4378 04ba 41504234 		.ascii	"APB4ENR\000"
 4378      454E5200 
 4379              	.LASF198:
 4380 04c2 63637369 		.ascii	"ccsidr\000"
 4380      647200
 4381              	.LASF187:
 4382 04c9 72636345 		.ascii	"rccEnableAPB4\000"
 4382      6E61626C 
 4382      65415042 
 4382      3400
 4383              	.LASF86:
 4384 04d7 5750534E 		.ascii	"WPSN_PRG1\000"
 4384      5F505247 
 4384      3100
 4385              	.LASF103:
 4386 04e1 5750534E 		.ascii	"WPSN_PRG2\000"
 4386      5F505247 
 4386      3200
 4387              	.LASF21:
 4388 04eb 43465352 		.ascii	"CFSR\000"
 4388      00
 4389              	.LASF91:
 4390 04f0 43524345 		.ascii	"CRCEADD1\000"
 4390      41444431 
 4390      00
 4391              	.LASF106:
 4392 04f9 43524345 		.ascii	"CRCEADD2\000"
 4392      41444432 
 4392      00
 4393              	.LASF183:
 4394 0502 696E6974 		.ascii	"init_pwr\000"
 4394      5F707772 
 4394      00
 4395              	.LASF146:
 4396 050b 41504231 		.ascii	"APB1HRSTR\000"
 4396      48525354 
 4396      5200
 4397              	.LASF89:
 4398 0515 43524343 		.ascii	"CRCCR1\000"
 4398      523100
 4399              	.LASF104:
 4400 051c 43524343 		.ascii	"CRCCR2\000"
 4400      523200
 4401              	.LASF78:
ARM GAS  C:\Users\DEVELO~1\AppData\Local\Temp\ccdu9vsZ.s 			page 82


 4402 0523 4F505453 		.ascii	"OPTSR_CUR\000"
 4402      525F4355 
 4402      5200
 4403              	.LASF191:
 4404 052d 5F5F7263 		.ascii	"__rccResetAHB1\000"
 4404      63526573 
 4404      65744148 
 4404      423100
 4405              	.LASF190:
 4406 053c 5F5F7263 		.ascii	"__rccResetAHB2\000"
 4406      63526573 
 4406      65744148 
 4406      423200
 4407              	.LASF189:
 4408 054b 5F5F7263 		.ascii	"__rccResetAHB3\000"
 4408      63526573 
 4408      65744148 
 4408      423300
 4409              	.LASF188:
 4410 055a 5F5F7263 		.ascii	"__rccResetAHB4\000"
 4410      63526573 
 4410      65744148 
 4410      423400
 4411              	.LASF163:
 4412 0569 41484232 		.ascii	"AHB2LPENR\000"
 4412      4C50454E 
 4412      5200
 4413              	.LASF57:
 4414 0573 41484250 		.ascii	"AHBPCR\000"
 4414      435200
 4415              	.LASF165:
 4416 057a 41504233 		.ascii	"APB3LPENR\000"
 4416      4C50454E 
 4416      5200
 4417              	.LASF179:
 4418 0584 7264796D 		.ascii	"rdymask\000"
 4418      61736B00 
 4419              	.LASF155:
 4420 058c 41504233 		.ascii	"APB3ENR\000"
 4420      454E5200 
 4421              	.LASF173:
 4422 0594 69727149 		.ascii	"irqInit\000"
 4422      6E697400 
 4423              	.LASF40:
 4424 059c 4D564652 		.ascii	"MVFR0\000"
 4424      3000
 4425              	.LASF41:
 4426 05a2 4D564652 		.ascii	"MVFR1\000"
 4426      3100
 4427              	.LASF42:
 4428 05a8 4D564652 		.ascii	"MVFR2\000"
 4428      3200
 4429              	.LASF32:
 4430 05ae 52455345 		.ascii	"RESERVED0\000"
 4430      52564544 
 4430      3000
 4431              	.LASF94:
ARM GAS  C:\Users\DEVELO~1\AppData\Local\Temp\ccdu9vsZ.s 			page 83


 4432 05b8 52455345 		.ascii	"RESERVED1\000"
 4432      52564544 
 4432      3100
 4433              	.LASF44:
 4434 05c2 49434941 		.ascii	"ICIALLU\000"
 4434      4C4C5500 
 4435              	.LASF37:
 4436 05ca 52455345 		.ascii	"RESERVED3\000"
 4436      52564544 
 4436      3300
 4437              	.LASF122:
 4438 05d4 44324346 		.ascii	"D2CFGR\000"
 4438      475200
 4439              	.LASF43:
 4440 05db 52455345 		.ascii	"RESERVED5\000"
 4440      52564544 
 4440      3500
 4441              	.LASF45:
 4442 05e5 52455345 		.ascii	"RESERVED6\000"
 4442      52564544 
 4442      3600
 4443              	.LASF54:
 4444 05ef 52455345 		.ascii	"RESERVED7\000"
 4444      52564544 
 4444      3700
 4445              	.LASF60:
 4446 05f9 52455345 		.ascii	"RESERVED8\000"
 4446      52564544 
 4446      3800
 4447              	.LASF172:
 4448 0603 5F426F6F 		.ascii	"_Bool\000"
 4448      6C00
 4449              	.LASF128:
 4450 0609 504C4C32 		.ascii	"PLL2DIVR\000"
 4450      44495652 
 4450      00
 4451              	.LASF4:
 4452 0612 756E7369 		.ascii	"unsigned char\000"
 4452      676E6564 
 4452      20636861 
 4452      7200
 4453              	.LASF154:
 4454 0620 41484234 		.ascii	"AHB4ENR\000"
 4454      454E5200 
 4455              	.LASF20:
 4456 0628 53484353 		.ascii	"SHCSR\000"
 4456      5200
 4457              	.LASF52:
 4458 062e 44434349 		.ascii	"DCCIMVAC\000"
 4458      4D564143 
 4458      00
 4459              	.LASF5:
 4460 0637 73686F72 		.ascii	"short int\000"
 4460      7420696E 
 4460      7400
 4461              	.LASF30:
 4462 0641 49445F4D 		.ascii	"ID_MFR\000"
ARM GAS  C:\Users\DEVELO~1\AppData\Local\Temp\ccdu9vsZ.s 			page 84


 4462      465200
 4463              	.LASF161:
 4464 0648 41484233 		.ascii	"AHB3LPENR\000"
 4464      4C50454E 
 4464      5200
 4465              	.LASF169:
 4466 0652 41504234 		.ascii	"APB4LPENR\000"
 4466      4C50454E 
 4466      5200
 4467              	.LASF46:
 4468 065c 4943494D 		.ascii	"ICIMVAU\000"
 4468      56415500 
 4469              	.LASF93:
 4470 0664 4543435F 		.ascii	"ECC_FA1\000"
 4470      46413100 
 4471              	.LASF108:
 4472 066c 4543435F 		.ascii	"ECC_FA2\000"
 4472      46413200 
 4473              	.LASF48:
 4474 0674 44434953 		.ascii	"DCISW\000"
 4474      5700
 4475              	.LASF158:
 4476 067a 41504232 		.ascii	"APB2ENR\000"
 4476      454E5200 
 4477              	.LASF140:
 4478 0682 41484233 		.ascii	"AHB3RSTR\000"
 4478      52535452 
 4478      00
 4479              	.LASF151:
 4480 068b 41484233 		.ascii	"AHB3ENR\000"
 4480      454E5200 
 4481              	.LASF96:
 4482 0693 52455345 		.ascii	"RESERVED2\000"
 4482      52564544 
 4482      3200
 4483              	.LASF193:
 4484 069d 5F5F7263 		.ascii	"__rccResetAPB3\000"
 4484      63526573 
 4484      65744150 
 4484      423300
 4485              	.LASF39:
 4486 06ac 52455345 		.ascii	"RESERVED4\000"
 4486      52564544 
 4486      3400
 4487              	.LASF144:
 4488 06b6 41504233 		.ascii	"APB3RSTR\000"
 4488      52535452 
 4488      00
 4489              	.LASF13:
 4490 06bf 75696E74 		.ascii	"uint32_t\000"
 4490      33325F74 
 4490      00
 4491              	.LASF112:
 4492 06c8 44334352 		.ascii	"D3CR\000"
 4492      00
 4493              	.LASF26:
 4494 06cd 41465352 		.ascii	"AFSR\000"
ARM GAS  C:\Users\DEVELO~1\AppData\Local\Temp\ccdu9vsZ.s 			page 85


 4494      00
 4495              	.LASF126:
 4496 06d2 504C4C31 		.ascii	"PLL1DIVR\000"
 4496      44495652 
 4496      00
 4497              	.LASF132:
 4498 06db 44314343 		.ascii	"D1CCIPR\000"
 4498      49505200 
 4499              	.LASF174:
 4500 06e3 646D6149 		.ascii	"dmaInit\000"
 4500      6E697400 
 4501              	.LASF2:
 4502 06eb 6C6F6E67 		.ascii	"long double\000"
 4502      20646F75 
 4502      626C6500 
 4503              	.LASF14:
 4504 06f7 63686172 		.ascii	"char\000"
 4504      00
 4505              	.LASF197:
 4506 06fc 5343425F 		.ascii	"SCB_CleanInvalidateDCache\000"
 4506      436C6561 
 4506      6E496E76 
 4506      616C6964 
 4506      61746544 
 4507              	.LASF66:
 4508 0716 52415352 		.ascii	"RASR\000"
 4508      00
 4509              	.LASF79:
 4510 071b 4F505453 		.ascii	"OPTSR_PRG\000"
 4510      525F5052 
 4510      4700
 4511              	.LASF142:
 4512 0725 41484232 		.ascii	"AHB2RSTR\000"
 4512      52535452 
 4512      00
 4513              	.LASF51:
 4514 072e 44434353 		.ascii	"DCCSW\000"
 4514      5700
 4515              	.LASF63:
 4516 0734 54595045 		.ascii	"TYPE\000"
 4516      00
 4517              	.LASF164:
 4518 0739 41484234 		.ascii	"AHB4LPENR\000"
 4518      4C50454E 
 4518      5200
 4519              	.LASF74:
 4520 0743 4B455952 		.ascii	"KEYR1\000"
 4520      3100
 4521              	.LASF139:
 4522 0749 42444352 		.ascii	"BDCR\000"
 4522      00
 4523              	.LASF47:
 4524 074e 4443494D 		.ascii	"DCIMVAC\000"
 4524      56414300 
 4525              	.LASF95:
 4526 0756 4B455952 		.ascii	"KEYR2\000"
 4526      3200
ARM GAS  C:\Users\DEVELO~1\AppData\Local\Temp\ccdu9vsZ.s 			page 86


 4527              	.LASF119:
 4528 075c 43534943 		.ascii	"CSICFGR\000"
 4528      46475200 
 4529              	.LASF29:
 4530 0764 49445F41 		.ascii	"ID_AFR\000"
 4530      465200
 4531              	.LASF64:
 4532 076b 4354524C 		.ascii	"CTRL\000"
 4532      00
 4533              	.LASF141:
 4534 0770 41484231 		.ascii	"AHB1RSTR\000"
 4534      52535452 
 4534      00
 4535              	.LASF85:
 4536 0779 5750534E 		.ascii	"WPSN_CUR1\000"
 4536      5F435552 
 4536      3100
 4537              	.LASF102:
 4538 0783 5750534E 		.ascii	"WPSN_CUR2\000"
 4538      5F435552 
 4538      3200
 4539              	.LASF166:
 4540 078d 41504231 		.ascii	"APB1LLPENR\000"
 4540      4C4C5045 
 4540      4E5200
 4541              	.LASF76:
 4542 0798 43435231 		.ascii	"CCR1\000"
 4542      00
 4543              	.LASF97:
 4544 079d 43435232 		.ascii	"CCR2\000"
 4544      00
 4545              	.LASF138:
 4546 07a2 43494352 		.ascii	"CICR\000"
 4546      00
 4547              	.LASF195:
 4548 07a7 5F5F7263 		.ascii	"__rccResetAPB1H\000"
 4548      63526573 
 4548      65744150 
 4548      42314800 
 4549              	.LASF196:
 4550 07b7 5F5F7263 		.ascii	"__rccResetAPB1L\000"
 4550      63526573 
 4550      65744150 
 4550      42314C00 
 4551              	.LASF56:
 4552 07c7 4454434D 		.ascii	"DTCMCR\000"
 4552      435200
 4553              	.LASF12:
 4554 07ce 75696E74 		.ascii	"uint8_t\000"
 4554      385F7400 
 4555              	.LASF90:
 4556 07d6 43524353 		.ascii	"CRCSADD1\000"
 4556      41444431 
 4556      00
 4557              	.LASF105:
 4558 07df 43524353 		.ascii	"CRCSADD2\000"
 4558      41444432 
ARM GAS  C:\Users\DEVELO~1\AppData\Local\Temp\ccdu9vsZ.s 			page 87


 4558      00
 4559              	.LASF177:
 4560 07e8 63666772 		.ascii	"cfgr\000"
 4560      00
 4561              	.LASF31:
 4562 07ed 49445F49 		.ascii	"ID_ISAR\000"
 4562      53415200 
 4563              	.LASF73:
 4564 07f5 4D50555F 		.ascii	"MPU_Type\000"
 4564      54797065 
 4564      00
 4565              	.LASF152:
 4566 07fe 41484231 		.ascii	"AHB1ENR\000"
 4566      454E5200 
 4567              	.LASF120:
 4568 0806 43464752 		.ascii	"CFGR\000"
 4568      00
 4569              	.LASF36:
 4570 080b 43504143 		.ascii	"CPACR\000"
 4570      5200
 4571              	.LASF22:
 4572 0811 48465352 		.ascii	"HFSR\000"
 4572      00
 4573              	.LASF156:
 4574 0816 41504231 		.ascii	"APB1LENR\000"
 4574      4C454E52 
 4574      00
 4575              	.LASF110:
 4576 081f 43535231 		.ascii	"CSR1\000"
 4576      00
 4577              	.LASF186:
 4578 0824 72636345 		.ascii	"rccEnableAHB2\000"
 4578      6E61626C 
 4578      65414842 
 4578      3200
 4579              	.LASF175:
 4580 0832 62646D61 		.ascii	"bdmaInit\000"
 4580      496E6974 
 4580      00
 4581              	.LASF121:
 4582 083b 44314346 		.ascii	"D1CFGR\000"
 4582      475200
 4583              		.ident	"GCC: (Arm GNU Toolchain 11.3.Rel1) 11.3.1 20220712"
ARM GAS  C:\Users\DEVELO~1\AppData\Local\Temp\ccdu9vsZ.s 			page 88


DEFINED SYMBOLS
                            *ABS*:00000000 hal_lld.c
C:\Users\DEVELO~1\AppData\Local\Temp\ccdu9vsZ.s:18     .text.hal_lld_init:00000000 $t
C:\Users\DEVELO~1\AppData\Local\Temp\ccdu9vsZ.s:25     .text.hal_lld_init:00000000 hal_lld_init
C:\Users\DEVELO~1\AppData\Local\Temp\ccdu9vsZ.s:398    .text.hal_lld_init:00000140 $d
C:\Users\DEVELO~1\AppData\Local\Temp\ccdu9vsZ.s:408    .text.stm32_clock_init:00000000 $t
C:\Users\DEVELO~1\AppData\Local\Temp\ccdu9vsZ.s:415    .text.stm32_clock_init:00000000 stm32_clock_init
C:\Users\DEVELO~1\AppData\Local\Temp\ccdu9vsZ.s:878    .text.stm32_clock_init:00000198 $d
C:\Users\DEVELO~1\AppData\Local\Temp\ccdu9vsZ.s:899    .data.SystemCoreClock:00000000 SystemCoreClock
C:\Users\DEVELO~1\AppData\Local\Temp\ccdu9vsZ.s:896    .data.SystemCoreClock:00000000 $d

UNDEFINED SYMBOLS
bdmaInit
dmaInit
irqInit
