ARM GAS  C:\Users\DEVELO~1\AppData\Local\Temp\cc5EUJSb.s 			page 1


   1              		.cpu cortex-m7
   2              		.arch armv7e-m
   3              		.fpu softvfp
   4              		.eabi_attribute 20, 1
   5              		.eabi_attribute 21, 1
   6              		.eabi_attribute 23, 3
   7              		.eabi_attribute 24, 1
   8              		.eabi_attribute 25, 1
   9              		.eabi_attribute 26, 1
  10              		.eabi_attribute 30, 2
  11              		.eabi_attribute 34, 1
  12              		.eabi_attribute 18, 4
  13              		.file	"hal_spi_v2_lld.c"
  14              		.text
  15              	.Ltext0:
  16              		.cfi_sections	.debug_frame
  17              		.section	.text.spi_lld_configure.isra.0,"ax",%progbits
  18              		.align	1
  19              		.p2align 4,,15
  20              		.syntax unified
  21              		.thumb
  22              		.thumb_func
  23              		.type	spi_lld_configure.isra.0, %function
  24              	spi_lld_configure.isra.0:
  25              	.LFB462:
  26              		.file 1 "../../../os/hal/ports/STM32/LLD/SPIv3/hal_spi_v2_lld.c"
  27              		.loc 1 99 13 view -0
  28              		.cfi_startproc
  29              		@ args = 0, pretend = 0, frame = 0
  30              		@ frame_needed = 0, uses_anonymous_args = 0
  31              		@ link register save eliminated.
  32              	.LVL0:
  33              		.loc 1 102 3 view .LVU1
  34              		.loc 1 102 19 is_stmt 0 view .LVU2
  35 0000 0022     		movs	r2, #0
  36              		.loc 1 107 38 view .LVU3
  37 0002 124B     		ldr	r3, .L6
  38              		.loc 1 102 19 view .LVU4
  39 0004 0A60     		str	r2, [r1]
  40              		.loc 1 103 3 is_stmt 1 view .LVU5
  41              		.loc 1 103 19 is_stmt 0 view .LVU6
  42 0006 4A60     		str	r2, [r1, #4]
  43              		.loc 1 104 3 is_stmt 1 view .LVU7
  44              		.loc 1 107 38 is_stmt 0 view .LVU8
  45 0008 4269     		ldr	r2, [r0, #20]
  46              		.loc 1 99 13 view .LVU9
  47 000a 10B4     		push	{r4}
  48              		.cfi_def_cfa_offset 4
  49              		.cfi_offset 4, -4
  50              		.loc 1 107 38 view .LVU10
  51 000c 1340     		ands	r3, r3, r2
  52              		.loc 1 104 19 view .LVU11
  53 000e 4024     		movs	r4, #64
  54              		.loc 1 108 6 view .LVU12
  55 0010 4278     		ldrb	r2, [r0, #1]	@ zero_extendqisi2
  56              		.loc 1 104 19 view .LVU13
  57 0012 0C61     		str	r4, [r1, #16]
ARM GAS  C:\Users\DEVELO~1\AppData\Local\Temp\cc5EUJSb.s 			page 2


  58              		.loc 1 105 3 is_stmt 1 view .LVU14
  59              		.loc 1 107 38 is_stmt 0 view .LVU15
  60 0014 43F44043 		orr	r3, r3, #49152
  61              		.loc 1 105 19 view .LVU16
  62 0018 4FF0FF34 		mov	r4, #-1
  63 001c 8C61     		str	r4, [r1, #24]
  64              		.loc 1 106 3 is_stmt 1 view .LVU17
  65              		.loc 1 106 19 is_stmt 0 view .LVU18
  66 001e 8B60     		str	r3, [r1, #8]
  67              		.loc 1 108 3 is_stmt 1 view .LVU19
  68              		.loc 1 108 6 is_stmt 0 view .LVU20
  69 0020 42B1     		cbz	r2, .L2
  70              		.loc 1 109 5 is_stmt 1 view .LVU21
  71              		.loc 1 109 42 is_stmt 0 view .LVU22
  72 0022 8369     		ldr	r3, [r0, #24]
  73              		.loc 1 116 1 view .LVU23
  74 0024 10BC     		pop	{r4}
  75              		.cfi_remember_state
  76              		.cfi_restore 4
  77              		.cfi_def_cfa_offset 0
  78              		.loc 1 109 42 view .LVU24
  79 0026 23F4C023 		bic	r3, r3, #393216
  80              		.loc 1 109 21 view .LVU25
  81 002a CB60     		str	r3, [r1, #12]
  82              		.loc 1 115 3 is_stmt 1 view .LVU26
  83              		.loc 1 115 19 is_stmt 0 view .LVU27
  84 002c 40F20113 		movw	r3, #257
  85 0030 0B60     		str	r3, [r1]
  86              		.loc 1 116 1 view .LVU28
  87 0032 7047     		bx	lr
  88              	.L2:
  89              		.cfi_restore_state
  90              		.loc 1 112 5 is_stmt 1 view .LVU29
  91              		.loc 1 112 78 is_stmt 0 view .LVU30
  92 0034 8269     		ldr	r2, [r0, #24]
  93 0036 064B     		ldr	r3, .L6+4
  94              		.loc 1 116 1 view .LVU31
  95 0038 10BC     		pop	{r4}
  96              		.cfi_restore 4
  97              		.cfi_def_cfa_offset 0
  98              		.loc 1 112 78 view .LVU32
  99 003a 1340     		ands	r3, r3, r2
 100 003c 43F00153 		orr	r3, r3, #541065216
 101              		.loc 1 112 21 view .LVU33
 102 0040 CB60     		str	r3, [r1, #12]
 103              		.loc 1 115 3 is_stmt 1 view .LVU34
 104              		.loc 1 115 19 is_stmt 0 view .LVU35
 105 0042 40F20113 		movw	r3, #257
 106 0046 0B60     		str	r3, [r1]
 107              		.loc 1 116 1 view .LVU36
 108 0048 7047     		bx	lr
 109              	.L7:
 110 004a 00BF     		.align	2
 111              	.L6:
 112 004c 1F3EFFFF 		.word	-49633
 113 0050 FFFFB9DF 		.word	-541458433
 114              		.cfi_endproc
ARM GAS  C:\Users\DEVELO~1\AppData\Local\Temp\cc5EUJSb.s 			page 3


 115              	.LFE462:
 116              		.size	spi_lld_configure.isra.0, .-spi_lld_configure.isra.0
 117              		.section	.text.spi_lld_stop_abort,"ax",%progbits
 118              		.align	1
 119              		.p2align 4,,15
 120              		.syntax unified
 121              		.thumb
 122              		.thumb_func
 123              		.type	spi_lld_stop_abort, %function
 124              	spi_lld_stop_abort:
 125              	.LVL1:
 126              	.LFB435:
 127              		.loc 1 138 49 is_stmt 1 view -0
 128              		.cfi_startproc
 129              		@ args = 0, pretend = 0, frame = 0
 130              		@ frame_needed = 0, uses_anonymous_args = 0
 131              		@ link register save eliminated.
 132              		.loc 1 142 3 view .LVU38
 133              		.loc 1 142 6 is_stmt 0 view .LVU39
 134 0000 90F82030 		ldrb	r3, [r0, #32]	@ zero_extendqisi2
 135              		.loc 1 138 49 view .LVU40
 136 0004 10B4     		push	{r4}
 137              		.cfi_def_cfa_offset 4
 138              		.cfi_offset 4, -4
 139              		.loc 1 142 6 view .LVU41
 140 0006 002B     		cmp	r3, #0
 141 0008 34D0     		beq	.L9
 142              		.loc 1 146 5 is_stmt 1 view .LVU42
 143 000a 836A     		ldr	r3, [r0, #40]
 144 000c D3E90041 		ldrd	r4, r1, [r3]
 145 0010 0A68     		ldr	r2, [r1]
 146 0012 22F00F02 		bic	r2, r2, #15
 147 0016 0A60     		str	r2, [r1]
 148              		.loc 1 146 5 view .LVU43
 149 0018 197A     		ldrb	r1, [r3, #8]	@ zero_extendqisi2
 150 001a 0E23     		movs	r3, #14
 151              		.loc 1 147 5 is_stmt 0 view .LVU44
 152 001c 426A     		ldr	r2, [r0, #36]
 153              		.loc 1 146 5 view .LVU45
 154 001e 03FA01F1 		lsl	r1, r3, r1
 155 0022 6160     		str	r1, [r4, #4]
 156              		.loc 1 146 5 is_stmt 1 view .LVU46
 157              		.loc 1 146 37 view .LVU47
 158              		.loc 1 147 5 view .LVU48
 159 0024 5468     		ldr	r4, [r2, #4]
 160 0026 2168     		ldr	r1, [r4]
 161 0028 21F00F01 		bic	r1, r1, #15
 162 002c 2160     		str	r1, [r4]
 163              		.loc 1 147 5 view .LVU49
 164 002e 117A     		ldrb	r1, [r2, #8]	@ zero_extendqisi2
 165 0030 1268     		ldr	r2, [r2]
 166 0032 8B40     		lsls	r3, r3, r1
 167 0034 5360     		str	r3, [r2, #4]
 168              		.loc 1 147 5 view .LVU50
 169              		.loc 1 147 37 view .LVU51
 170              		.loc 1 156 5 view .LVU52
 171              		.loc 1 156 35 view .LVU53
ARM GAS  C:\Users\DEVELO~1\AppData\Local\Temp\cc5EUJSb.s 			page 4


 172              		.loc 1 162 3 view .LVU54
 173              		.loc 1 166 8 view .LVU55
 174              		.loc 1 166 11 is_stmt 0 view .LVU56
 175 0036 474B     		ldr	r3, .L25
 176 0038 9842     		cmp	r0, r3
 177 003a 3AD0     		beq	.L21
 178              	.L13:
 179              		.loc 1 172 8 is_stmt 1 view .LVU57
 180              		.loc 1 172 11 is_stmt 0 view .LVU58
 181 003c 464B     		ldr	r3, .L25+4
 182 003e 9842     		cmp	r0, r3
 183 0040 4BD0     		beq	.L22
 184              		.loc 1 178 8 is_stmt 1 view .LVU59
 185              		.loc 1 178 11 is_stmt 0 view .LVU60
 186 0042 464B     		ldr	r3, .L25+8
 187 0044 9842     		cmp	r0, r3
 188 0046 5CD0     		beq	.L23
 189              		.loc 1 190 8 is_stmt 1 view .LVU61
 190              		.loc 1 190 11 is_stmt 0 view .LVU62
 191 0048 454B     		ldr	r3, .L25+12
 192 004a 9842     		cmp	r0, r3
 193 004c 6DD0     		beq	.L24
 194              		.loc 1 196 8 is_stmt 1 view .LVU63
 195              		.loc 1 196 11 is_stmt 0 view .LVU64
 196 004e 454B     		ldr	r3, .L25+16
 197 0050 9842     		cmp	r0, r3
 198 0052 51D1     		bne	.L14
 199              		.loc 1 197 5 is_stmt 1 view .LVU65
 200              	.LVL2:
 201              	.LBB271:
 202              	.LBI271:
 203              		.file 2 "../../../os/hal/ports/STM32/STM32H7xx/stm32_rcc.h"
 204              		.loc 2 563 22 view .LVU66
 205              	.LBB272:
 206              		.loc 2 575 3 view .LVU67
 207              	.LBB273:
 208              	.LBI273:
 209              		.loc 2 89 22 view .LVU68
 210              	.LBB274:
 211              		.loc 2 92 3 view .LVU69
 212              		.loc 2 92 17 is_stmt 0 view .LVU70
 213 0054 444B     		ldr	r3, .L25+20
 214 0056 D3F89C20 		ldr	r2, [r3, #156]
 215 005a 42F02002 		orr	r2, r2, #32
 216 005e C3F89C20 		str	r2, [r3, #156]
 217              		.loc 2 93 3 is_stmt 1 view .LVU71
 218              		.loc 2 93 17 is_stmt 0 view .LVU72
 219 0062 D3F89C20 		ldr	r2, [r3, #156]
 220 0066 22F02002 		bic	r2, r2, #32
 221 006a C3F89C20 		str	r2, [r3, #156]
 222              		.loc 2 94 3 is_stmt 1 view .LVU73
 223 006e D3F89C30 		ldr	r3, [r3, #156]
 224              	.LVL3:
 225              		.loc 2 94 3 is_stmt 0 view .LVU74
 226              	.LBE274:
 227              	.LBE273:
 228              		.loc 2 576 1 view .LVU75
ARM GAS  C:\Users\DEVELO~1\AppData\Local\Temp\cc5EUJSb.s 			page 5


 229 0072 41E0     		b	.L14
 230              	.LVL4:
 231              	.L9:
 232              		.loc 2 576 1 view .LVU76
 233              	.LBE272:
 234              	.LBE271:
 235              		.loc 1 155 5 is_stmt 1 view .LVU77
 236 0074 846A     		ldr	r4, [r0, #40]
 237 0076 2268     		ldr	r2, [r4]
 238 0078 1368     		ldr	r3, [r2]
 239 007a 23F01F03 		bic	r3, r3, #31
 240 007e 1360     		str	r3, [r2]
 241              		.loc 1 155 5 view .LVU78
 242              	.L11:
 243              		.loc 1 155 5 discriminator 2 view .LVU79
 244 0080 1368     		ldr	r3, [r2]
 245 0082 D907     		lsls	r1, r3, #31
 246 0084 FCD4     		bmi	.L11
 247              		.loc 1 155 5 discriminator 3 view .LVU80
 248 0086 227B     		ldrb	r2, [r4, #12]	@ zero_extendqisi2
 249 0088 3D23     		movs	r3, #61
 250              		.loc 1 156 5 is_stmt 0 discriminator 3 view .LVU81
 251 008a 416A     		ldr	r1, [r0, #36]
 252              		.loc 1 155 5 discriminator 3 view .LVU82
 253 008c 9340     		lsls	r3, r3, r2
 254 008e 6468     		ldr	r4, [r4, #4]
 255              		.loc 1 156 5 discriminator 3 view .LVU83
 256 0090 0A68     		ldr	r2, [r1]
 257              		.loc 1 155 5 discriminator 3 view .LVU84
 258 0092 2360     		str	r3, [r4]
 259              		.loc 1 155 5 is_stmt 1 discriminator 3 view .LVU85
 260              		.loc 1 155 35 discriminator 3 view .LVU86
 261              		.loc 1 156 5 discriminator 3 view .LVU87
 262 0094 1368     		ldr	r3, [r2]
 263 0096 23F01F03 		bic	r3, r3, #31
 264 009a 1360     		str	r3, [r2]
 265              		.loc 1 156 5 discriminator 3 view .LVU88
 266              	.L12:
 267              		.loc 1 156 5 discriminator 2 view .LVU89
 268 009c 1368     		ldr	r3, [r2]
 269 009e DB07     		lsls	r3, r3, #31
 270 00a0 FCD4     		bmi	.L12
 271              		.loc 1 156 5 discriminator 3 view .LVU90
 272 00a2 0C7B     		ldrb	r4, [r1, #12]	@ zero_extendqisi2
 273 00a4 3D23     		movs	r3, #61
 274 00a6 4A68     		ldr	r2, [r1, #4]
 275 00a8 A340     		lsls	r3, r3, r4
 276 00aa 1360     		str	r3, [r2]
 277              		.loc 1 156 5 discriminator 3 view .LVU91
 278              		.loc 1 156 35 discriminator 3 view .LVU92
 279              		.loc 1 162 3 discriminator 3 view .LVU93
 280              		.loc 1 166 8 discriminator 3 view .LVU94
 281              		.loc 1 166 11 is_stmt 0 discriminator 3 view .LVU95
 282 00ac 294B     		ldr	r3, .L25
 283 00ae 9842     		cmp	r0, r3
 284 00b0 C4D1     		bne	.L13
 285              	.L21:
ARM GAS  C:\Users\DEVELO~1\AppData\Local\Temp\cc5EUJSb.s 			page 6


 286              		.loc 1 167 5 is_stmt 1 view .LVU96
 287              	.LVL5:
 288              	.LBB275:
 289              	.LBI275:
 290              		.loc 2 385 22 view .LVU97
 291              	.LBB276:
 292              		.loc 2 397 3 view .LVU98
 293              	.LBB277:
 294              	.LBI277:
 295              		.loc 2 73 22 view .LVU99
 296              	.LBB278:
 297              		.loc 2 76 3 view .LVU100
 298              		.loc 2 76 17 is_stmt 0 view .LVU101
 299 00b2 2D4B     		ldr	r3, .L25+20
 300              	.LBE278:
 301              	.LBE277:
 302              	.LBE276:
 303              	.LBE275:
 304              		.loc 1 206 3 view .LVU102
 305 00b4 C169     		ldr	r1, [r0, #28]
 306              	.LBB288:
 307              	.LBB285:
 308              	.LBB282:
 309              	.LBB279:
 310              		.loc 2 76 17 view .LVU103
 311 00b6 D3F89820 		ldr	r2, [r3, #152]
 312              	.LBE279:
 313              	.LBE282:
 314              	.LBE285:
 315              	.LBE288:
 316              		.loc 1 206 3 view .LVU104
 317 00ba 4068     		ldr	r0, [r0, #4]
 318              	.LVL6:
 319              	.LBB289:
 320              	.LBB286:
 321              	.LBB283:
 322              	.LBB280:
 323              		.loc 2 76 17 view .LVU105
 324 00bc 42F48052 		orr	r2, r2, #4096
 325              	.LBE280:
 326              	.LBE283:
 327              	.LBE286:
 328              	.LBE289:
 329              		.loc 1 207 1 view .LVU106
 330 00c0 10BC     		pop	{r4}
 331              		.cfi_remember_state
 332              		.cfi_restore 4
 333              		.cfi_def_cfa_offset 0
 334              	.LBB290:
 335              	.LBB287:
 336              	.LBB284:
 337              	.LBB281:
 338              		.loc 2 76 17 view .LVU107
 339 00c2 C3F89820 		str	r2, [r3, #152]
 340              		.loc 2 77 3 is_stmt 1 view .LVU108
 341              		.loc 2 77 17 is_stmt 0 view .LVU109
 342 00c6 D3F89820 		ldr	r2, [r3, #152]
ARM GAS  C:\Users\DEVELO~1\AppData\Local\Temp\cc5EUJSb.s 			page 7


 343 00ca 22F48052 		bic	r2, r2, #4096
 344 00ce C3F89820 		str	r2, [r3, #152]
 345              		.loc 2 78 3 is_stmt 1 view .LVU110
 346 00d2 D3F89830 		ldr	r3, [r3, #152]
 347              	.LVL7:
 348              		.loc 2 78 3 is_stmt 0 view .LVU111
 349              	.LBE281:
 350              	.LBE284:
 351              	.LBE287:
 352              	.LBE290:
 353              		.loc 1 202 5 is_stmt 1 view .LVU112
 354              		.loc 1 206 3 view .LVU113
 355 00d6 FFF7FEBF 		b	spi_lld_configure.isra.0
 356              	.LVL8:
 357              	.L22:
 358              		.cfi_restore_state
 359              		.loc 1 173 5 view .LVU114
 360              	.LBB291:
 361              	.LBI291:
 362              		.loc 2 207 22 view .LVU115
 363              	.LBB292:
 364              		.loc 2 219 3 view .LVU116
 365              	.LBB293:
 366              	.LBI293:
 367              		.loc 2 57 22 view .LVU117
 368              	.LBB294:
 369              		.loc 2 60 3 view .LVU118
 370              		.loc 2 60 18 is_stmt 0 view .LVU119
 371 00da 234B     		ldr	r3, .L25+20
 372 00dc D3F89020 		ldr	r2, [r3, #144]
 373 00e0 42F48042 		orr	r2, r2, #16384
 374 00e4 C3F89020 		str	r2, [r3, #144]
 375              		.loc 2 61 3 is_stmt 1 view .LVU120
 376              		.loc 2 61 18 is_stmt 0 view .LVU121
 377 00e8 D3F89020 		ldr	r2, [r3, #144]
 378 00ec 22F48042 		bic	r2, r2, #16384
 379 00f0 C3F89020 		str	r2, [r3, #144]
 380              		.loc 2 62 3 is_stmt 1 view .LVU122
 381 00f4 D3F89030 		ldr	r3, [r3, #144]
 382              	.LVL9:
 383              	.L14:
 384              		.loc 2 62 3 is_stmt 0 view .LVU123
 385              	.LBE294:
 386              	.LBE293:
 387              	.LBE292:
 388              	.LBE291:
 389              		.loc 1 202 5 is_stmt 1 discriminator 5 view .LVU124
 390              		.loc 1 206 3 discriminator 5 view .LVU125
 391 00f8 C169     		ldr	r1, [r0, #28]
 392              		.loc 1 207 1 is_stmt 0 discriminator 5 view .LVU126
 393 00fa 10BC     		pop	{r4}
 394              		.cfi_remember_state
 395              		.cfi_restore 4
 396              		.cfi_def_cfa_offset 0
 397              		.loc 1 206 3 discriminator 5 view .LVU127
 398 00fc 4068     		ldr	r0, [r0, #4]
 399              	.LVL10:
ARM GAS  C:\Users\DEVELO~1\AppData\Local\Temp\cc5EUJSb.s 			page 8


 400              		.loc 1 206 3 discriminator 5 view .LVU128
 401 00fe FFF7FEBF 		b	spi_lld_configure.isra.0
 402              	.LVL11:
 403              	.L23:
 404              		.cfi_restore_state
 405              		.loc 1 179 5 is_stmt 1 view .LVU129
 406              	.LBB295:
 407              	.LBI295:
 408              		.loc 2 207 22 view .LVU130
 409              	.LBB296:
 410              		.loc 2 219 3 view .LVU131
 411              	.LBB297:
 412              	.LBI297:
 413              		.loc 2 57 22 view .LVU132
 414              	.LBB298:
 415              		.loc 2 60 3 view .LVU133
 416              		.loc 2 60 18 is_stmt 0 view .LVU134
 417 0102 194B     		ldr	r3, .L25+20
 418              	.LBE298:
 419              	.LBE297:
 420              	.LBE296:
 421              	.LBE295:
 422              		.loc 1 206 3 view .LVU135
 423 0104 C169     		ldr	r1, [r0, #28]
 424              	.LBB308:
 425              	.LBB305:
 426              	.LBB302:
 427              	.LBB299:
 428              		.loc 2 60 18 view .LVU136
 429 0106 D3F89020 		ldr	r2, [r3, #144]
 430              	.LBE299:
 431              	.LBE302:
 432              	.LBE305:
 433              	.LBE308:
 434              		.loc 1 206 3 view .LVU137
 435 010a 4068     		ldr	r0, [r0, #4]
 436              	.LVL12:
 437              	.LBB309:
 438              	.LBB306:
 439              	.LBB303:
 440              	.LBB300:
 441              		.loc 2 60 18 view .LVU138
 442 010c 42F40042 		orr	r2, r2, #32768
 443              	.LBE300:
 444              	.LBE303:
 445              	.LBE306:
 446              	.LBE309:
 447              		.loc 1 207 1 view .LVU139
 448 0110 10BC     		pop	{r4}
 449              		.cfi_remember_state
 450              		.cfi_restore 4
 451              		.cfi_def_cfa_offset 0
 452              	.LBB310:
 453              	.LBB307:
 454              	.LBB304:
 455              	.LBB301:
 456              		.loc 2 60 18 view .LVU140
ARM GAS  C:\Users\DEVELO~1\AppData\Local\Temp\cc5EUJSb.s 			page 9


 457 0112 C3F89020 		str	r2, [r3, #144]
 458              		.loc 2 61 3 is_stmt 1 view .LVU141
 459              		.loc 2 61 18 is_stmt 0 view .LVU142
 460 0116 D3F89020 		ldr	r2, [r3, #144]
 461 011a 22F40042 		bic	r2, r2, #32768
 462 011e C3F89020 		str	r2, [r3, #144]
 463              		.loc 2 62 3 is_stmt 1 view .LVU143
 464 0122 D3F89030 		ldr	r3, [r3, #144]
 465              	.LVL13:
 466              		.loc 2 62 3 is_stmt 0 view .LVU144
 467              	.LBE301:
 468              	.LBE304:
 469              	.LBE307:
 470              	.LBE310:
 471              		.loc 1 202 5 is_stmt 1 view .LVU145
 472              		.loc 1 206 3 view .LVU146
 473 0126 FFF7FEBF 		b	spi_lld_configure.isra.0
 474              	.LVL14:
 475              	.L24:
 476              		.cfi_restore_state
 477              		.loc 1 191 5 view .LVU147
 478              	.LBB311:
 479              	.LBI311:
 480              		.loc 2 385 22 view .LVU148
 481              	.LBB312:
 482              		.loc 2 397 3 view .LVU149
 483              	.LBB313:
 484              	.LBI313:
 485              		.loc 2 73 22 view .LVU150
 486              	.LBB314:
 487              		.loc 2 76 3 view .LVU151
 488              		.loc 2 76 17 is_stmt 0 view .LVU152
 489 012a 0F4B     		ldr	r3, .L25+20
 490              	.LBE314:
 491              	.LBE313:
 492              	.LBE312:
 493              	.LBE311:
 494              		.loc 1 206 3 view .LVU153
 495 012c C169     		ldr	r1, [r0, #28]
 496              	.LBB324:
 497              	.LBB321:
 498              	.LBB318:
 499              	.LBB315:
 500              		.loc 2 76 17 view .LVU154
 501 012e D3F89820 		ldr	r2, [r3, #152]
 502              	.LBE315:
 503              	.LBE318:
 504              	.LBE321:
 505              	.LBE324:
 506              		.loc 1 206 3 view .LVU155
 507 0132 4068     		ldr	r0, [r0, #4]
 508              	.LVL15:
 509              	.LBB325:
 510              	.LBB322:
 511              	.LBB319:
 512              	.LBB316:
 513              		.loc 2 76 17 view .LVU156
ARM GAS  C:\Users\DEVELO~1\AppData\Local\Temp\cc5EUJSb.s 			page 10


 514 0134 42F48012 		orr	r2, r2, #1048576
 515              	.LBE316:
 516              	.LBE319:
 517              	.LBE322:
 518              	.LBE325:
 519              		.loc 1 207 1 view .LVU157
 520 0138 10BC     		pop	{r4}
 521              		.cfi_restore 4
 522              		.cfi_def_cfa_offset 0
 523              	.LBB326:
 524              	.LBB323:
 525              	.LBB320:
 526              	.LBB317:
 527              		.loc 2 76 17 view .LVU158
 528 013a C3F89820 		str	r2, [r3, #152]
 529              		.loc 2 77 3 is_stmt 1 view .LVU159
 530              		.loc 2 77 17 is_stmt 0 view .LVU160
 531 013e D3F89820 		ldr	r2, [r3, #152]
 532 0142 22F48012 		bic	r2, r2, #1048576
 533 0146 C3F89820 		str	r2, [r3, #152]
 534              		.loc 2 78 3 is_stmt 1 view .LVU161
 535 014a D3F89830 		ldr	r3, [r3, #152]
 536              	.LVL16:
 537              		.loc 2 78 3 is_stmt 0 view .LVU162
 538              	.LBE317:
 539              	.LBE320:
 540              	.LBE323:
 541              	.LBE326:
 542              		.loc 1 202 5 is_stmt 1 view .LVU163
 543              		.loc 1 206 3 view .LVU164
 544 014e FFF7FEBF 		b	spi_lld_configure.isra.0
 545              	.LVL17:
 546              	.L26:
 547 0152 00BF     		.align	2
 548              	.L25:
 549 0154 00000000 		.word	.LANCHOR0
 550 0158 00000000 		.word	.LANCHOR1
 551 015c 00000000 		.word	.LANCHOR2
 552 0160 00000000 		.word	.LANCHOR3
 553 0164 00000000 		.word	.LANCHOR4
 554 0168 00440258 		.word	1476543488
 555              		.cfi_endproc
 556              	.LFE435:
 557              		.size	spi_lld_stop_abort, .-spi_lld_stop_abort
 558              		.section	.text.spi_lld_stop_nicely,"ax",%progbits
 559              		.align	1
 560              		.p2align 4,,15
 561              		.syntax unified
 562              		.thumb
 563              		.thumb_func
 564              		.type	spi_lld_stop_nicely, %function
 565              	spi_lld_stop_nicely:
 566              	.LVL18:
 567              	.LFB436:
 568              		.loc 1 214 51 view -0
 569              		.cfi_startproc
 570              		@ args = 0, pretend = 0, frame = 0
ARM GAS  C:\Users\DEVELO~1\AppData\Local\Temp\cc5EUJSb.s 			page 11


 571              		@ frame_needed = 0, uses_anonymous_args = 0
 572              		.loc 1 216 3 view .LVU166
 573              		.loc 1 216 19 is_stmt 0 view .LVU167
 574 0000 4368     		ldr	r3, [r0, #4]
 575              		.loc 1 216 6 view .LVU168
 576 0002 5B78     		ldrb	r3, [r3, #1]	@ zero_extendqisi2
 577              		.loc 1 214 51 view .LVU169
 578 0004 10B5     		push	{r4, lr}
 579              		.cfi_def_cfa_offset 8
 580              		.cfi_offset 4, -8
 581              		.cfi_offset 14, -4
 582              		.loc 1 216 6 view .LVU170
 583 0006 002B     		cmp	r3, #0
 584 0008 50D1     		bne	.L43
 585              		.loc 1 225 3 is_stmt 1 view .LVU171
 586              		.loc 1 225 6 is_stmt 0 view .LVU172
 587 000a 90F82030 		ldrb	r3, [r0, #32]	@ zero_extendqisi2
 588 000e 0146     		mov	r1, r0
 589 0010 DBB1     		cbz	r3, .L30
 590              		.loc 1 229 5 is_stmt 1 view .LVU173
 591 0012 836A     		ldr	r3, [r0, #40]
 592 0014 D3E90040 		ldrd	r4, r0, [r3]
 593              	.LVL19:
 594              		.loc 1 229 5 is_stmt 0 view .LVU174
 595 0018 0268     		ldr	r2, [r0]
 596 001a 22F00F02 		bic	r2, r2, #15
 597 001e 0260     		str	r2, [r0]
 598              		.loc 1 229 5 is_stmt 1 view .LVU175
 599 0020 0E22     		movs	r2, #14
 600 0022 187A     		ldrb	r0, [r3, #8]	@ zero_extendqisi2
 601              		.loc 1 232 17 is_stmt 0 view .LVU176
 602 0024 CB69     		ldr	r3, [r1, #28]
 603              		.loc 1 229 5 view .LVU177
 604 0026 8240     		lsls	r2, r2, r0
 605 0028 6260     		str	r2, [r4, #4]
 606              		.loc 1 229 5 is_stmt 1 view .LVU178
 607              		.loc 1 229 37 view .LVU179
 608              		.loc 1 232 5 view .LVU180
 609              	.L31:
 610              		.loc 1 234 5 discriminator 1 view .LVU181
 611              		.loc 1 232 61 discriminator 1 view .LVU182
 612              		.loc 1 232 22 is_stmt 0 discriminator 1 view .LVU183
 613 002a 5A69     		ldr	r2, [r3, #20]
 614              		.loc 1 232 61 discriminator 1 view .LVU184
 615 002c 12F4604F 		tst	r2, #57344
 616 0030 FBD1     		bne	.L31
 617              		.loc 1 236 5 is_stmt 1 view .LVU185
 618 0032 496A     		ldr	r1, [r1, #36]
 619              	.LVL20:
 620              		.loc 1 236 5 is_stmt 0 view .LVU186
 621 0034 D1E90040 		ldrd	r4, r0, [r1]
 622 0038 0268     		ldr	r2, [r0]
 623 003a 22F00F02 		bic	r2, r2, #15
 624 003e 0260     		str	r2, [r0]
 625              		.loc 1 236 5 is_stmt 1 view .LVU187
 626 0040 0E22     		movs	r2, #14
 627 0042 097A     		ldrb	r1, [r1, #8]	@ zero_extendqisi2
ARM GAS  C:\Users\DEVELO~1\AppData\Local\Temp\cc5EUJSb.s 			page 12


 628 0044 8A40     		lsls	r2, r2, r1
 629 0046 6260     		str	r2, [r4, #4]
 630              		.loc 1 236 5 view .LVU188
 631              		.loc 1 236 37 view .LVU189
 632 0048 24E0     		b	.L32
 633              	.LVL21:
 634              	.L30:
 635              		.loc 1 244 5 view .LVU190
 636 004a 806A     		ldr	r0, [r0, #40]
 637              	.LVL22:
 638              		.loc 1 244 5 is_stmt 0 view .LVU191
 639 004c 0268     		ldr	r2, [r0]
 640 004e 1368     		ldr	r3, [r2]
 641 0050 23F01F03 		bic	r3, r3, #31
 642 0054 1360     		str	r3, [r2]
 643              		.loc 1 244 5 is_stmt 1 view .LVU192
 644              	.L33:
 645              		.loc 1 244 5 discriminator 2 view .LVU193
 646 0056 1368     		ldr	r3, [r2]
 647 0058 DB07     		lsls	r3, r3, #31
 648 005a FCD4     		bmi	.L33
 649              		.loc 1 244 5 discriminator 3 view .LVU194
 650 005c 90F80CC0 		ldrb	ip, [r0, #12]	@ zero_extendqisi2
 651 0060 3D22     		movs	r2, #61
 652 0062 4068     		ldr	r0, [r0, #4]
 653 0064 02FA0CF2 		lsl	r2, r2, ip
 654              		.loc 1 247 17 is_stmt 0 discriminator 3 view .LVU195
 655 0068 CB69     		ldr	r3, [r1, #28]
 656              		.loc 1 244 5 discriminator 3 view .LVU196
 657 006a 0260     		str	r2, [r0]
 658              		.loc 1 244 5 is_stmt 1 discriminator 3 view .LVU197
 659              		.loc 1 244 35 discriminator 3 view .LVU198
 660              		.loc 1 247 5 discriminator 3 view .LVU199
 661              	.L34:
 662              		.loc 1 249 5 discriminator 1 view .LVU200
 663              		.loc 1 247 61 discriminator 1 view .LVU201
 664              		.loc 1 247 22 is_stmt 0 discriminator 1 view .LVU202
 665 006c 5A69     		ldr	r2, [r3, #20]
 666              		.loc 1 247 61 discriminator 1 view .LVU203
 667 006e 12F4604F 		tst	r2, #57344
 668 0072 FBD1     		bne	.L34
 669              		.loc 1 251 5 is_stmt 1 view .LVU204
 670 0074 486A     		ldr	r0, [r1, #36]
 671 0076 0168     		ldr	r1, [r0]
 672              	.LVL23:
 673              		.loc 1 251 5 is_stmt 0 view .LVU205
 674 0078 0A68     		ldr	r2, [r1]
 675 007a 22F01F02 		bic	r2, r2, #31
 676 007e 0A60     		str	r2, [r1]
 677              		.loc 1 251 5 is_stmt 1 view .LVU206
 678              	.L35:
 679              		.loc 1 251 5 discriminator 2 view .LVU207
 680 0080 0A68     		ldr	r2, [r1]
 681 0082 D407     		lsls	r4, r2, #31
 682 0084 FCD4     		bmi	.L35
 683              		.loc 1 251 5 discriminator 3 view .LVU208
 684 0086 90F80CC0 		ldrb	ip, [r0, #12]	@ zero_extendqisi2
ARM GAS  C:\Users\DEVELO~1\AppData\Local\Temp\cc5EUJSb.s 			page 13


 685 008a 3D22     		movs	r2, #61
 686 008c 4168     		ldr	r1, [r0, #4]
 687 008e 02FA0CF2 		lsl	r2, r2, ip
 688 0092 0A60     		str	r2, [r1]
 689              	.L32:
 690              		.loc 1 251 5 discriminator 4 view .LVU209
 691              		.loc 1 251 35 discriminator 4 view .LVU210
 692              		.loc 1 256 3 discriminator 4 view .LVU211
 693              	.LBB329:
 694              	.LBI329:
 695              		.loc 1 125 13 discriminator 4 view .LVU212
 696              	.LVL24:
 697              	.LBB330:
 698              		.loc 1 127 3 discriminator 4 view .LVU213
 699              		.loc 1 128 5 discriminator 4 view .LVU214
 700              		.loc 1 128 20 is_stmt 0 discriminator 4 view .LVU215
 701 0094 1A68     		ldr	r2, [r3]
 702 0096 42F48062 		orr	r2, r2, #1024
 703 009a 1A60     		str	r2, [r3]
 704              		.loc 1 129 5 is_stmt 1 discriminator 4 view .LVU216
 705              	.L36:
 706              		.loc 1 130 5 view .LVU217
 707              		.loc 1 129 46 view .LVU218
 708              		.loc 1 129 22 is_stmt 0 view .LVU219
 709 009c 1A68     		ldr	r2, [r3]
 710              		.loc 1 129 46 view .LVU220
 711 009e 9205     		lsls	r2, r2, #22
 712 00a0 FCD4     		bmi	.L36
 713              		.loc 1 132 3 is_stmt 1 view .LVU221
 714              		.loc 1 132 19 is_stmt 0 view .LVU222
 715 00a2 4FF0FF32 		mov	r2, #-1
 716              	.LBE330:
 717              	.LBE329:
 718              		.loc 1 260 1 view .LVU223
 719 00a6 0020     		movs	r0, #0
 720              	.LBB332:
 721              	.LBB331:
 722              		.loc 1 132 19 view .LVU224
 723 00a8 9A61     		str	r2, [r3, #24]
 724              	.LVL25:
 725              		.loc 1 132 19 view .LVU225
 726              	.LBE331:
 727              	.LBE332:
 728              		.loc 1 260 1 view .LVU226
 729 00aa 10BD     		pop	{r4, pc}
 730              	.LVL26:
 731              	.L43:
 732              		.loc 1 218 5 is_stmt 1 view .LVU227
 733 00ac FFF7FEFF 		bl	spi_lld_stop_abort
 734              	.LVL27:
 735              		.loc 1 220 5 view .LVU228
 736              		.loc 1 260 1 is_stmt 0 view .LVU229
 737 00b0 0020     		movs	r0, #0
 738 00b2 10BD     		pop	{r4, pc}
 739              		.cfi_endproc
 740              	.LFE436:
 741              		.size	spi_lld_stop_nicely, .-spi_lld_stop_nicely
ARM GAS  C:\Users\DEVELO~1\AppData\Local\Temp\cc5EUJSb.s 			page 14


 742              		.section	.rodata.spi_lld_serve_dma_tx_interrupt.part.0.str1.4,"aMS",%progbits,1
 743              		.align	2
 744              	.LC0:
 745 0000 444D4120 		.ascii	"DMA failure\000"
 745      6661696C 
 745      75726500 
 746              		.section	.text.spi_lld_serve_dma_tx_interrupt.part.0,"ax",%progbits
 747              		.align	1
 748              		.p2align 4,,15
 749              		.syntax unified
 750              		.thumb
 751              		.thumb_func
 752              		.type	spi_lld_serve_dma_tx_interrupt.part.0, %function
 753              	spi_lld_serve_dma_tx_interrupt.part.0:
 754              	.LVL28:
 755              	.LFB460:
 756              		.loc 1 373 13 is_stmt 1 view -0
 757              		.cfi_startproc
 758              		@ args = 0, pretend = 0, frame = 0
 759              		@ frame_needed = 0, uses_anonymous_args = 0
 760              		.loc 1 378 5 view .LVU231
 761              	.LBB333:
 762              	.LBI333:
 763              		.file 3 "../../../os/hal/osal/rt-nil/osal.h"
 764              		.loc 3 542 20 view .LVU232
 765              	.LBB334:
 766              		.loc 3 544 3 view .LVU233
 767              	.LBE334:
 768              	.LBE333:
 769              		.loc 1 373 13 is_stmt 0 view .LVU234
 770 0000 10B5     		push	{r4, lr}
 771              		.cfi_def_cfa_offset 8
 772              		.cfi_offset 4, -8
 773              		.cfi_offset 14, -4
 774              		.loc 1 373 13 view .LVU235
 775 0002 0446     		mov	r4, r0
 776              	.LBB336:
 777              	.LBB335:
 778              		.loc 3 544 3 view .LVU236
 779 0004 0B48     		ldr	r0, .L50
 780              	.LVL29:
 781              		.loc 3 544 3 view .LVU237
 782 0006 FFF7FEFF 		bl	chSysHalt
 783              	.LVL30:
 784              		.loc 3 544 3 view .LVU238
 785              	.LBE335:
 786              	.LBE336:
 787              		.loc 1 382 5 is_stmt 1 view .LVU239
 788 000a 2046     		mov	r0, r4
 789 000c FFF7FEFF 		bl	spi_lld_stop_abort
 790              	.LVL31:
 791              		.loc 1 385 5 view .LVU240
 792 0010 6368     		ldr	r3, [r4, #4]
 793 0012 9B68     		ldr	r3, [r3, #8]
 794 0014 0BB1     		cbz	r3, .L45
 795              		.loc 1 385 5 view .LVU241
 796 0016 2046     		mov	r0, r4
ARM GAS  C:\Users\DEVELO~1\AppData\Local\Temp\cc5EUJSb.s 			page 15


 797 0018 9847     		blx	r3
 798              	.LVL32:
 799              	.L45:
 800              		.loc 1 385 5 view .LVU242
 801              	.LBB337:
 802              	.LBI337:
 803              		.loc 3 595 20 view .LVU243
 804              		.loc 3 597 3 view .LVU244
 805              	.LBB338:
 806              	.LBI338:
 807              		.file 4 "../../../os/rt/include/chsys.h"
 808              		.loc 4 451 20 view .LVU245
 809              		.loc 4 453 3 view .LVU246
 810              	.LBB339:
 811              	.LBI339:
 812              		.file 5 "../../../os/common/ports/ARMv7-M/chcore.h"
 813              		.loc 5 862 27 view .LVU247
 814              		.loc 5 864 3 view .LVU248
 815              	.LBB340:
 816              	.LBI340:
 817              		.loc 5 823 27 view .LVU249
 818              		.loc 5 831 3 view .LVU250
 819              	.LBB341:
 820              	.LBI341:
 821              		.file 6 "../../../os/common/ext/ARM/CMSIS/Core/Include/cmsis_gcc.h"
 822              		.loc 6 491 27 view .LVU251
 823              	.LBB342:
 824              		.loc 6 493 3 view .LVU252
 825 001a 3023     		movs	r3, #48
 826              		.syntax unified
 827              	@ 493 "../../../os/common/ext/ARM/CMSIS/Core/Include/cmsis_gcc.h" 1
 828 001c 83F31188 		MSR basepri, r3
 829              	@ 0 "" 2
 830              	.LVL33:
 831              		.loc 6 493 3 is_stmt 0 view .LVU253
 832              		.thumb
 833              		.syntax unified
 834              	.LBE342:
 835              	.LBE341:
 836              	.LBE340:
 837              	.LBE339:
 838              		.loc 4 454 35 is_stmt 1 view .LVU254
 839              		.loc 4 455 30 view .LVU255
 840              	.LBE338:
 841              	.LBE337:
 842              		.loc 1 385 5 view .LVU256
 843              	.LBB343:
 844              	.LBI343:
 845              		.loc 3 837 20 view .LVU257
 846              	.LBB344:
 847              		.loc 3 839 3 view .LVU258
 848 0020 6FF01201 		mvn	r1, #18
 849 0024 04F10800 		add	r0, r4, #8
 850              	.LVL34:
 851              		.loc 3 839 3 is_stmt 0 view .LVU259
 852 0028 FFF7FEFF 		bl	chThdResumeI
 853              	.LVL35:
ARM GAS  C:\Users\DEVELO~1\AppData\Local\Temp\cc5EUJSb.s 			page 16


 854              		.loc 3 839 3 view .LVU260
 855              	.LBE344:
 856              	.LBE343:
 857              		.loc 1 385 5 is_stmt 1 view .LVU261
 858              	.LBB345:
 859              	.LBI345:
 860              		.loc 3 606 20 view .LVU262
 861              		.loc 3 608 3 view .LVU263
 862              	.LBB346:
 863              	.LBI346:
 864              		.loc 4 473 20 view .LVU264
 865              		.loc 4 475 32 view .LVU265
 866              		.loc 4 476 34 view .LVU266
 867              		.loc 4 477 3 view .LVU267
 868              	.LBB347:
 869              	.LBI347:
 870              		.loc 5 873 27 view .LVU268
 871              		.loc 5 875 3 view .LVU269
 872              	.LBB348:
 873              	.LBI348:
 874              		.loc 5 847 27 view .LVU270
 875              		.loc 5 850 3 view .LVU271
 876              	.LBB349:
 877              	.LBI349:
 878              		.loc 6 491 27 view .LVU272
 879              	.LBB350:
 880              		.loc 6 493 3 view .LVU273
 881 002c 0023     		movs	r3, #0
 882              		.syntax unified
 883              	@ 493 "../../../os/common/ext/ARM/CMSIS/Core/Include/cmsis_gcc.h" 1
 884 002e 83F31188 		MSR basepri, r3
 885              	@ 0 "" 2
 886              	.LVL36:
 887              		.loc 6 493 3 is_stmt 0 view .LVU274
 888              		.thumb
 889              		.syntax unified
 890              	.LBE350:
 891              	.LBE349:
 892              	.LBE348:
 893              	.LBE347:
 894              	.LBE346:
 895              	.LBE345:
 896              		.loc 1 385 5 is_stmt 1 view .LVU275
 897              		.loc 1 385 51 view .LVU276
 898              		.loc 1 387 1 is_stmt 0 view .LVU277
 899 0032 10BD     		pop	{r4, pc}
 900              	.LVL37:
 901              	.L51:
 902              		.loc 1 387 1 view .LVU278
 903              		.align	2
 904              	.L50:
 905 0034 00000000 		.word	.LC0
 906              		.cfi_endproc
 907              	.LFE460:
 908              		.size	spi_lld_serve_dma_tx_interrupt.part.0, .-spi_lld_serve_dma_tx_interrupt.part.0
 909              		.thumb_set spi_lld_serve_bdma_tx_interrupt.part.0,spi_lld_serve_dma_tx_interrupt.part.0
 910              		.section	.text.spi_lld_serve_bdma_tx_interrupt,"ax",%progbits
ARM GAS  C:\Users\DEVELO~1\AppData\Local\Temp\cc5EUJSb.s 			page 17


 911              		.align	1
 912              		.p2align 4,,15
 913              		.syntax unified
 914              		.thumb
 915              		.thumb_func
 916              		.type	spi_lld_serve_bdma_tx_interrupt, %function
 917              	spi_lld_serve_bdma_tx_interrupt:
 918              	.LVL38:
 919              	.LFB438:
 920              		.loc 1 309 78 is_stmt 1 view -0
 921              		.cfi_startproc
 922              		@ args = 0, pretend = 0, frame = 0
 923              		@ frame_needed = 0, uses_anonymous_args = 0
 924              		@ link register save eliminated.
 925              		.loc 1 312 3 view .LVU280
 926              		.loc 1 312 6 is_stmt 0 view .LVU281
 927 0000 0B07     		lsls	r3, r1, #28
 928 0002 00D4     		bmi	.L54
 929              		.loc 1 323 1 view .LVU282
 930 0004 7047     		bx	lr
 931              	.L54:
 932 0006 FFF7FEBF 		b	spi_lld_serve_bdma_tx_interrupt.part.0
 933              	.LVL39:
 934              		.loc 1 323 1 view .LVU283
 935              		.cfi_endproc
 936              	.LFE438:
 937              		.size	spi_lld_serve_bdma_tx_interrupt, .-spi_lld_serve_bdma_tx_interrupt
 938 000a 00BF     		.section	.text.spi_lld_serve_dma_tx_interrupt,"ax",%progbits
 939              		.align	1
 940              		.p2align 4,,15
 941              		.syntax unified
 942              		.thumb
 943              		.thumb_func
 944              		.type	spi_lld_serve_dma_tx_interrupt, %function
 945              	spi_lld_serve_dma_tx_interrupt:
 946              	.LVL40:
 947              	.LFB440:
 948              		.loc 1 373 77 is_stmt 1 view -0
 949              		.cfi_startproc
 950              		@ args = 0, pretend = 0, frame = 0
 951              		@ frame_needed = 0, uses_anonymous_args = 0
 952              		@ link register save eliminated.
 953              		.loc 1 376 3 view .LVU285
 954              		.loc 1 376 6 is_stmt 0 view .LVU286
 955 0000 11F00C0F 		tst	r1, #12
 956 0004 00D1     		bne	.L57
 957              		.loc 1 387 1 view .LVU287
 958 0006 7047     		bx	lr
 959              	.L57:
 960 0008 FFF7FEBF 		b	spi_lld_serve_dma_tx_interrupt.part.0
 961              	.LVL41:
 962              		.loc 1 387 1 view .LVU288
 963              		.cfi_endproc
 964              	.LFE440:
 965              		.size	spi_lld_serve_dma_tx_interrupt, .-spi_lld_serve_dma_tx_interrupt
 966              		.section	.text.spi_lld_serve_dma_rx_interrupt,"ax",%progbits
 967              		.align	1
ARM GAS  C:\Users\DEVELO~1\AppData\Local\Temp\cc5EUJSb.s 			page 18


 968              		.p2align 4,,15
 969              		.syntax unified
 970              		.thumb
 971              		.thumb_func
 972              		.type	spi_lld_serve_dma_rx_interrupt, %function
 973              	spi_lld_serve_dma_rx_interrupt:
 974              	.LVL42:
 975              	.LFB439:
 976              		.loc 1 333 77 is_stmt 1 view -0
 977              		.cfi_startproc
 978              		@ args = 0, pretend = 0, frame = 0
 979              		@ frame_needed = 0, uses_anonymous_args = 0
 980              		.loc 1 336 3 view .LVU290
 981              		.loc 1 336 6 is_stmt 0 view .LVU291
 982 0000 11F00C0F 		tst	r1, #12
 983              		.loc 1 333 77 view .LVU292
 984 0004 70B5     		push	{r4, r5, r6, lr}
 985              		.cfi_def_cfa_offset 16
 986              		.cfi_offset 4, -16
 987              		.cfi_offset 5, -12
 988              		.cfi_offset 6, -8
 989              		.cfi_offset 14, -4
 990              		.loc 1 333 77 view .LVU293
 991 0006 0D46     		mov	r5, r1
 992 0008 0446     		mov	r4, r0
 993              		.loc 1 336 6 view .LVU294
 994 000a 2DD1     		bne	.L89
 995              	.LVL43:
 996              	.L59:
 997              		.loc 1 345 5 is_stmt 1 discriminator 4 view .LVU295
 998              		.loc 1 345 51 discriminator 4 view .LVU296
 999              		.loc 1 348 3 discriminator 4 view .LVU297
 1000              		.loc 1 348 11 is_stmt 0 discriminator 4 view .LVU298
 1001 000c 6668     		ldr	r6, [r4, #4]
 1002              		.loc 1 348 6 discriminator 4 view .LVU299
 1003 000e 3378     		ldrb	r3, [r6]	@ zero_extendqisi2
 1004 0010 93B1     		cbz	r3, .L61
 1005              		.loc 1 349 5 is_stmt 1 view .LVU300
 1006              		.loc 1 349 8 is_stmt 0 view .LVU301
 1007 0012 EA06     		lsls	r2, r5, #27
 1008 0014 03D5     		bpl	.L62
 1009              		.loc 1 351 7 is_stmt 1 view .LVU302
 1010 0016 7368     		ldr	r3, [r6, #4]
 1011 0018 6BB1     		cbz	r3, .L58
 1012              		.loc 1 351 7 discriminator 1 view .LVU303
 1013 001a 2046     		mov	r0, r4
 1014 001c 9847     		blx	r3
 1015              	.LVL44:
 1016              	.L62:
 1017              		.loc 1 351 32 discriminator 3 view .LVU304
 1018              		.loc 1 353 5 discriminator 3 view .LVU305
 1019              		.loc 1 353 8 is_stmt 0 discriminator 3 view .LVU306
 1020 001e AB06     		lsls	r3, r5, #26
 1021 0020 09D5     		bpl	.L58
 1022              		.loc 1 355 7 is_stmt 1 view .LVU307
 1023 0022 6368     		ldr	r3, [r4, #4]
 1024 0024 5B68     		ldr	r3, [r3, #4]
ARM GAS  C:\Users\DEVELO~1\AppData\Local\Temp\cc5EUJSb.s 			page 19


 1025 0026 33B1     		cbz	r3, .L58
 1026              		.loc 1 355 7 discriminator 1 view .LVU308
 1027 0028 0422     		movs	r2, #4
 1028 002a 2046     		mov	r0, r4
 1029 002c 2270     		strb	r2, [r4]
 1030              		.loc 1 355 7 discriminator 1 view .LVU309
 1031 002e 9847     		blx	r3
 1032              	.LVL45:
 1033              		.loc 1 355 7 discriminator 1 view .LVU310
 1034 0030 2378     		ldrb	r3, [r4]	@ zero_extendqisi2
 1035 0032 042B     		cmp	r3, #4
 1036 0034 30D0     		beq	.L90
 1037              	.L58:
 1038              		.loc 1 365 1 is_stmt 0 view .LVU311
 1039 0036 70BD     		pop	{r4, r5, r6, pc}
 1040              	.LVL46:
 1041              	.L61:
 1042              		.loc 1 360 5 is_stmt 1 view .LVU312
 1043              		.loc 1 360 12 is_stmt 0 view .LVU313
 1044 0038 2046     		mov	r0, r4
 1045 003a FFF7FEFF 		bl	spi_lld_stop_nicely
 1046              	.LVL47:
 1047              		.loc 1 363 5 is_stmt 1 view .LVU314
 1048 003e 7368     		ldr	r3, [r6, #4]
 1049 0040 6BB3     		cbz	r3, .L65
 1050              		.loc 1 363 5 discriminator 1 view .LVU315
 1051 0042 0422     		movs	r2, #4
 1052 0044 2046     		mov	r0, r4
 1053 0046 2270     		strb	r2, [r4]
 1054              		.loc 1 363 5 discriminator 1 view .LVU316
 1055 0048 9847     		blx	r3
 1056              	.LVL48:
 1057              		.loc 1 363 5 discriminator 1 view .LVU317
 1058 004a 2378     		ldrb	r3, [r4]	@ zero_extendqisi2
 1059 004c 042B     		cmp	r3, #4
 1060 004e 26D0     		beq	.L65
 1061              	.L66:
 1062              		.loc 1 363 5 discriminator 4 view .LVU318
 1063              	.LBB351:
 1064              	.LBI351:
 1065              		.loc 3 595 20 discriminator 4 view .LVU319
 1066              		.loc 3 597 3 discriminator 4 view .LVU320
 1067              	.LBB352:
 1068              	.LBI352:
 1069              		.loc 4 451 20 discriminator 4 view .LVU321
 1070              		.loc 4 453 3 discriminator 4 view .LVU322
 1071              	.LBB353:
 1072              	.LBI353:
 1073              		.loc 5 862 27 discriminator 4 view .LVU323
 1074              		.loc 5 864 3 discriminator 4 view .LVU324
 1075              	.LBB354:
 1076              	.LBI354:
 1077              		.loc 5 823 27 discriminator 4 view .LVU325
 1078              		.loc 5 831 3 discriminator 4 view .LVU326
 1079              	.LVL49:
 1080              	.LBB355:
 1081              	.LBI355:
ARM GAS  C:\Users\DEVELO~1\AppData\Local\Temp\cc5EUJSb.s 			page 20


 1082              		.loc 6 491 27 discriminator 4 view .LVU327
 1083              	.LBB356:
 1084              		.loc 6 493 3 discriminator 4 view .LVU328
 1085 0050 3023     		movs	r3, #48
 1086              		.syntax unified
 1087              	@ 493 "../../../os/common/ext/ARM/CMSIS/Core/Include/cmsis_gcc.h" 1
 1088 0052 83F31188 		MSR basepri, r3
 1089              	@ 0 "" 2
 1090              	.LVL50:
 1091              		.loc 6 493 3 is_stmt 0 discriminator 4 view .LVU329
 1092              		.thumb
 1093              		.syntax unified
 1094              	.LBE356:
 1095              	.LBE355:
 1096              	.LBE354:
 1097              	.LBE353:
 1098              		.loc 4 454 35 is_stmt 1 discriminator 4 view .LVU330
 1099              		.loc 4 455 30 discriminator 4 view .LVU331
 1100              	.LBE352:
 1101              	.LBE351:
 1102              		.loc 1 363 5 discriminator 4 view .LVU332
 1103              	.LBB357:
 1104              	.LBI357:
 1105              		.loc 3 837 20 discriminator 4 view .LVU333
 1106              	.LBB358:
 1107              		.loc 3 839 3 discriminator 4 view .LVU334
 1108 0056 0021     		movs	r1, #0
 1109 0058 04F10800 		add	r0, r4, #8
 1110              	.LVL51:
 1111              		.loc 3 839 3 is_stmt 0 discriminator 4 view .LVU335
 1112 005c FFF7FEFF 		bl	chThdResumeI
 1113              	.LVL52:
 1114              		.loc 3 839 3 discriminator 4 view .LVU336
 1115              	.LBE358:
 1116              	.LBE357:
 1117              		.loc 1 363 5 is_stmt 1 discriminator 4 view .LVU337
 1118              	.LBB359:
 1119              	.LBI359:
 1120              		.loc 3 606 20 discriminator 4 view .LVU338
 1121              	.LBB360:
 1122              		.loc 3 608 3 discriminator 4 view .LVU339
 1123              	.LBB361:
 1124              	.LBI361:
 1125              		.loc 4 473 20 discriminator 4 view .LVU340
 1126              		.loc 4 475 32 discriminator 4 view .LVU341
 1127              		.loc 4 476 34 discriminator 4 view .LVU342
 1128              		.loc 4 477 3 discriminator 4 view .LVU343
 1129              	.LBB362:
 1130              	.LBI362:
 1131              		.loc 5 873 27 discriminator 4 view .LVU344
 1132              		.loc 5 875 3 discriminator 4 view .LVU345
 1133              	.LBB363:
 1134              	.LBI363:
 1135              		.loc 5 847 27 discriminator 4 view .LVU346
 1136              		.loc 5 850 3 discriminator 4 view .LVU347
 1137              	.LBB364:
 1138              	.LBI364:
ARM GAS  C:\Users\DEVELO~1\AppData\Local\Temp\cc5EUJSb.s 			page 21


 1139              		.loc 6 491 27 discriminator 4 view .LVU348
 1140              	.LBB365:
 1141              		.loc 6 493 3 discriminator 4 view .LVU349
 1142 0060 0023     		movs	r3, #0
 1143              		.syntax unified
 1144              	@ 493 "../../../os/common/ext/ARM/CMSIS/Core/Include/cmsis_gcc.h" 1
 1145 0062 83F31188 		MSR basepri, r3
 1146              	@ 0 "" 2
 1147              	.LVL53:
 1148              		.loc 6 493 3 is_stmt 0 discriminator 4 view .LVU350
 1149              		.thumb
 1150              		.syntax unified
 1151              	.LBE365:
 1152              	.LBE364:
 1153              	.LBE363:
 1154              	.LBE362:
 1155              	.LBE361:
 1156              	.LBE360:
 1157              	.LBE359:
 1158              		.loc 1 363 5 is_stmt 1 discriminator 4 view .LVU351
 1159              		.loc 1 363 34 discriminator 4 view .LVU352
 1160              		.loc 1 365 1 is_stmt 0 discriminator 4 view .LVU353
 1161 0066 70BD     		pop	{r4, r5, r6, pc}
 1162              	.LVL54:
 1163              	.L89:
 1164              		.loc 1 338 5 is_stmt 1 view .LVU354
 1165              	.LBB366:
 1166              	.LBI366:
 1167              		.loc 3 542 20 view .LVU355
 1168              	.LBB367:
 1169              		.loc 3 544 3 view .LVU356
 1170 0068 0E48     		ldr	r0, .L91
 1171              	.LVL55:
 1172              		.loc 3 544 3 is_stmt 0 view .LVU357
 1173 006a FFF7FEFF 		bl	chSysHalt
 1174              	.LVL56:
 1175              		.loc 3 544 3 view .LVU358
 1176              	.LBE367:
 1177              	.LBE366:
 1178              		.loc 1 342 5 is_stmt 1 view .LVU359
 1179 006e 2046     		mov	r0, r4
 1180 0070 FFF7FEFF 		bl	spi_lld_stop_abort
 1181              	.LVL57:
 1182              		.loc 1 345 5 view .LVU360
 1183 0074 6368     		ldr	r3, [r4, #4]
 1184 0076 9B68     		ldr	r3, [r3, #8]
 1185 0078 0BB1     		cbz	r3, .L60
 1186              		.loc 1 345 5 discriminator 1 view .LVU361
 1187 007a 2046     		mov	r0, r4
 1188 007c 9847     		blx	r3
 1189              	.LVL58:
 1190              	.L60:
 1191              		.loc 1 345 5 discriminator 3 view .LVU362
 1192              	.LBB368:
 1193              	.LBI368:
 1194              		.loc 3 595 20 discriminator 3 view .LVU363
 1195              		.loc 3 597 3 discriminator 3 view .LVU364
ARM GAS  C:\Users\DEVELO~1\AppData\Local\Temp\cc5EUJSb.s 			page 22


 1196              	.LBB369:
 1197              	.LBI369:
 1198              		.loc 4 451 20 discriminator 3 view .LVU365
 1199              		.loc 4 453 3 discriminator 3 view .LVU366
 1200              	.LBB370:
 1201              	.LBI370:
 1202              		.loc 5 862 27 discriminator 3 view .LVU367
 1203              		.loc 5 864 3 discriminator 3 view .LVU368
 1204              	.LBB371:
 1205              	.LBI371:
 1206              		.loc 5 823 27 discriminator 3 view .LVU369
 1207              		.loc 5 831 3 discriminator 3 view .LVU370
 1208              	.LBB372:
 1209              	.LBI372:
 1210              		.loc 6 491 27 discriminator 3 view .LVU371
 1211              	.LBB373:
 1212              		.loc 6 493 3 discriminator 3 view .LVU372
 1213 007e 3023     		movs	r3, #48
 1214              		.syntax unified
 1215              	@ 493 "../../../os/common/ext/ARM/CMSIS/Core/Include/cmsis_gcc.h" 1
 1216 0080 83F31188 		MSR basepri, r3
 1217              	@ 0 "" 2
 1218              	.LVL59:
 1219              		.loc 6 493 3 is_stmt 0 discriminator 3 view .LVU373
 1220              		.thumb
 1221              		.syntax unified
 1222              	.LBE373:
 1223              	.LBE372:
 1224              	.LBE371:
 1225              	.LBE370:
 1226              		.loc 4 454 35 is_stmt 1 discriminator 3 view .LVU374
 1227              		.loc 4 455 30 discriminator 3 view .LVU375
 1228              	.LBE369:
 1229              	.LBE368:
 1230              		.loc 1 345 5 discriminator 3 view .LVU376
 1231              	.LBB374:
 1232              	.LBI374:
 1233              		.loc 3 837 20 discriminator 3 view .LVU377
 1234              	.LBB375:
 1235              		.loc 3 839 3 discriminator 3 view .LVU378
 1236 0084 6FF01201 		mvn	r1, #18
 1237 0088 04F10800 		add	r0, r4, #8
 1238              	.LVL60:
 1239              		.loc 3 839 3 is_stmt 0 discriminator 3 view .LVU379
 1240 008c FFF7FEFF 		bl	chThdResumeI
 1241              	.LVL61:
 1242              		.loc 3 839 3 discriminator 3 view .LVU380
 1243              	.LBE375:
 1244              	.LBE374:
 1245              		.loc 1 345 5 is_stmt 1 discriminator 3 view .LVU381
 1246              	.LBB376:
 1247              	.LBI376:
 1248              		.loc 3 606 20 discriminator 3 view .LVU382
 1249              	.LBB377:
 1250              		.loc 3 608 3 discriminator 3 view .LVU383
 1251              	.LBB378:
 1252              	.LBI378:
ARM GAS  C:\Users\DEVELO~1\AppData\Local\Temp\cc5EUJSb.s 			page 23


 1253              		.loc 4 473 20 discriminator 3 view .LVU384
 1254              		.loc 4 475 32 discriminator 3 view .LVU385
 1255              		.loc 4 476 34 discriminator 3 view .LVU386
 1256              		.loc 4 477 3 discriminator 3 view .LVU387
 1257              	.LBB379:
 1258              	.LBI379:
 1259              		.loc 5 873 27 discriminator 3 view .LVU388
 1260              		.loc 5 875 3 discriminator 3 view .LVU389
 1261              	.LBB380:
 1262              	.LBI380:
 1263              		.loc 5 847 27 discriminator 3 view .LVU390
 1264              		.loc 5 850 3 discriminator 3 view .LVU391
 1265              	.LBB381:
 1266              	.LBI381:
 1267              		.loc 6 491 27 discriminator 3 view .LVU392
 1268              	.LBB382:
 1269              		.loc 6 493 3 discriminator 3 view .LVU393
 1270 0090 0023     		movs	r3, #0
 1271              		.syntax unified
 1272              	@ 493 "../../../os/common/ext/ARM/CMSIS/Core/Include/cmsis_gcc.h" 1
 1273 0092 83F31188 		MSR basepri, r3
 1274              	@ 0 "" 2
 1275              	.LVL62:
 1276              		.loc 6 493 3 is_stmt 0 discriminator 3 view .LVU394
 1277              		.thumb
 1278              		.syntax unified
 1279              	.LBE382:
 1280              	.LBE381:
 1281              	.LBE380:
 1282              	.LBE379:
 1283              	.LBE378:
 1284              		.loc 3 609 1 discriminator 3 view .LVU395
 1285 0096 B9E7     		b	.L59
 1286              	.L90:
 1287              		.loc 3 609 1 discriminator 3 view .LVU396
 1288              	.LBE377:
 1289              	.LBE376:
 1290              		.loc 1 355 7 is_stmt 1 discriminator 3 view .LVU397
 1291 0098 0323     		movs	r3, #3
 1292 009a 2370     		strb	r3, [r4]
 1293              		.loc 1 365 1 is_stmt 0 discriminator 3 view .LVU398
 1294 009c 70BD     		pop	{r4, r5, r6, pc}
 1295              	.LVL63:
 1296              	.L65:
 1297              		.loc 1 363 5 is_stmt 1 discriminator 3 view .LVU399
 1298 009e 0223     		movs	r3, #2
 1299 00a0 2370     		strb	r3, [r4]
 1300 00a2 D5E7     		b	.L66
 1301              	.L92:
 1302              		.align	2
 1303              	.L91:
 1304 00a4 00000000 		.word	.LC0
 1305              		.cfi_endproc
 1306              	.LFE439:
 1307              		.size	spi_lld_serve_dma_rx_interrupt, .-spi_lld_serve_dma_rx_interrupt
 1308              		.section	.text.spi_lld_serve_bdma_rx_interrupt,"ax",%progbits
 1309              		.align	1
ARM GAS  C:\Users\DEVELO~1\AppData\Local\Temp\cc5EUJSb.s 			page 24


 1310              		.p2align 4,,15
 1311              		.syntax unified
 1312              		.thumb
 1313              		.thumb_func
 1314              		.type	spi_lld_serve_bdma_rx_interrupt, %function
 1315              	spi_lld_serve_bdma_rx_interrupt:
 1316              	.LVL64:
 1317              	.LFB437:
 1318              		.loc 1 269 78 view -0
 1319              		.cfi_startproc
 1320              		@ args = 0, pretend = 0, frame = 0
 1321              		@ frame_needed = 0, uses_anonymous_args = 0
 1322              		.loc 1 272 3 view .LVU401
 1323              		.loc 1 269 78 is_stmt 0 view .LVU402
 1324 0000 70B5     		push	{r4, r5, r6, lr}
 1325              		.cfi_def_cfa_offset 16
 1326              		.cfi_offset 4, -16
 1327              		.cfi_offset 5, -12
 1328              		.cfi_offset 6, -8
 1329              		.cfi_offset 14, -4
 1330              		.loc 1 269 78 view .LVU403
 1331 0002 0D46     		mov	r5, r1
 1332              		.loc 1 272 6 view .LVU404
 1333 0004 0907     		lsls	r1, r1, #28
 1334              	.LVL65:
 1335              		.loc 1 269 78 view .LVU405
 1336 0006 0446     		mov	r4, r0
 1337              		.loc 1 272 6 view .LVU406
 1338 0008 2DD4     		bmi	.L124
 1339              	.LVL66:
 1340              	.L94:
 1341              		.loc 1 281 5 is_stmt 1 discriminator 4 view .LVU407
 1342              		.loc 1 281 51 discriminator 4 view .LVU408
 1343              		.loc 1 284 3 discriminator 4 view .LVU409
 1344              		.loc 1 284 11 is_stmt 0 discriminator 4 view .LVU410
 1345 000a 6668     		ldr	r6, [r4, #4]
 1346              		.loc 1 284 6 discriminator 4 view .LVU411
 1347 000c 3378     		ldrb	r3, [r6]	@ zero_extendqisi2
 1348 000e 93B1     		cbz	r3, .L96
 1349              		.loc 1 285 5 is_stmt 1 view .LVU412
 1350              		.loc 1 285 8 is_stmt 0 view .LVU413
 1351 0010 6A07     		lsls	r2, r5, #29
 1352 0012 03D5     		bpl	.L97
 1353              		.loc 1 287 7 is_stmt 1 view .LVU414
 1354 0014 7368     		ldr	r3, [r6, #4]
 1355 0016 6BB1     		cbz	r3, .L93
 1356              		.loc 1 287 7 discriminator 1 view .LVU415
 1357 0018 2046     		mov	r0, r4
 1358 001a 9847     		blx	r3
 1359              	.LVL67:
 1360              	.L97:
 1361              		.loc 1 287 32 discriminator 3 view .LVU416
 1362              		.loc 1 289 5 discriminator 3 view .LVU417
 1363              		.loc 1 289 8 is_stmt 0 discriminator 3 view .LVU418
 1364 001c AB07     		lsls	r3, r5, #30
 1365 001e 09D5     		bpl	.L93
 1366              		.loc 1 291 7 is_stmt 1 view .LVU419
ARM GAS  C:\Users\DEVELO~1\AppData\Local\Temp\cc5EUJSb.s 			page 25


 1367 0020 6368     		ldr	r3, [r4, #4]
 1368 0022 5B68     		ldr	r3, [r3, #4]
 1369 0024 33B1     		cbz	r3, .L93
 1370              		.loc 1 291 7 discriminator 1 view .LVU420
 1371 0026 0422     		movs	r2, #4
 1372 0028 2046     		mov	r0, r4
 1373 002a 2270     		strb	r2, [r4]
 1374              		.loc 1 291 7 discriminator 1 view .LVU421
 1375 002c 9847     		blx	r3
 1376              	.LVL68:
 1377              		.loc 1 291 7 discriminator 1 view .LVU422
 1378 002e 2378     		ldrb	r3, [r4]	@ zero_extendqisi2
 1379 0030 042B     		cmp	r3, #4
 1380 0032 30D0     		beq	.L125
 1381              	.L93:
 1382              		.loc 1 301 1 is_stmt 0 view .LVU423
 1383 0034 70BD     		pop	{r4, r5, r6, pc}
 1384              	.LVL69:
 1385              	.L96:
 1386              		.loc 1 296 5 is_stmt 1 view .LVU424
 1387              		.loc 1 296 12 is_stmt 0 view .LVU425
 1388 0036 2046     		mov	r0, r4
 1389 0038 FFF7FEFF 		bl	spi_lld_stop_nicely
 1390              	.LVL70:
 1391              		.loc 1 299 5 is_stmt 1 view .LVU426
 1392 003c 7368     		ldr	r3, [r6, #4]
 1393 003e 6BB3     		cbz	r3, .L100
 1394              		.loc 1 299 5 discriminator 1 view .LVU427
 1395 0040 0422     		movs	r2, #4
 1396 0042 2046     		mov	r0, r4
 1397 0044 2270     		strb	r2, [r4]
 1398              		.loc 1 299 5 discriminator 1 view .LVU428
 1399 0046 9847     		blx	r3
 1400              	.LVL71:
 1401              		.loc 1 299 5 discriminator 1 view .LVU429
 1402 0048 2378     		ldrb	r3, [r4]	@ zero_extendqisi2
 1403 004a 042B     		cmp	r3, #4
 1404 004c 26D0     		beq	.L100
 1405              	.L101:
 1406              		.loc 1 299 5 discriminator 4 view .LVU430
 1407              	.LBB383:
 1408              	.LBI383:
 1409              		.loc 3 595 20 discriminator 4 view .LVU431
 1410              		.loc 3 597 3 discriminator 4 view .LVU432
 1411              	.LBB384:
 1412              	.LBI384:
 1413              		.loc 4 451 20 discriminator 4 view .LVU433
 1414              		.loc 4 453 3 discriminator 4 view .LVU434
 1415              	.LBB385:
 1416              	.LBI385:
 1417              		.loc 5 862 27 discriminator 4 view .LVU435
 1418              		.loc 5 864 3 discriminator 4 view .LVU436
 1419              	.LBB386:
 1420              	.LBI386:
 1421              		.loc 5 823 27 discriminator 4 view .LVU437
 1422              		.loc 5 831 3 discriminator 4 view .LVU438
 1423              	.LVL72:
ARM GAS  C:\Users\DEVELO~1\AppData\Local\Temp\cc5EUJSb.s 			page 26


 1424              	.LBB387:
 1425              	.LBI387:
 1426              		.loc 6 491 27 discriminator 4 view .LVU439
 1427              	.LBB388:
 1428              		.loc 6 493 3 discriminator 4 view .LVU440
 1429 004e 3023     		movs	r3, #48
 1430              		.syntax unified
 1431              	@ 493 "../../../os/common/ext/ARM/CMSIS/Core/Include/cmsis_gcc.h" 1
 1432 0050 83F31188 		MSR basepri, r3
 1433              	@ 0 "" 2
 1434              	.LVL73:
 1435              		.loc 6 493 3 is_stmt 0 discriminator 4 view .LVU441
 1436              		.thumb
 1437              		.syntax unified
 1438              	.LBE388:
 1439              	.LBE387:
 1440              	.LBE386:
 1441              	.LBE385:
 1442              		.loc 4 454 35 is_stmt 1 discriminator 4 view .LVU442
 1443              		.loc 4 455 30 discriminator 4 view .LVU443
 1444              	.LBE384:
 1445              	.LBE383:
 1446              		.loc 1 299 5 discriminator 4 view .LVU444
 1447              	.LBB389:
 1448              	.LBI389:
 1449              		.loc 3 837 20 discriminator 4 view .LVU445
 1450              	.LBB390:
 1451              		.loc 3 839 3 discriminator 4 view .LVU446
 1452 0054 0021     		movs	r1, #0
 1453 0056 04F10800 		add	r0, r4, #8
 1454              	.LVL74:
 1455              		.loc 3 839 3 is_stmt 0 discriminator 4 view .LVU447
 1456 005a FFF7FEFF 		bl	chThdResumeI
 1457              	.LVL75:
 1458              		.loc 3 839 3 discriminator 4 view .LVU448
 1459              	.LBE390:
 1460              	.LBE389:
 1461              		.loc 1 299 5 is_stmt 1 discriminator 4 view .LVU449
 1462              	.LBB391:
 1463              	.LBI391:
 1464              		.loc 3 606 20 discriminator 4 view .LVU450
 1465              	.LBB392:
 1466              		.loc 3 608 3 discriminator 4 view .LVU451
 1467              	.LBB393:
 1468              	.LBI393:
 1469              		.loc 4 473 20 discriminator 4 view .LVU452
 1470              		.loc 4 475 32 discriminator 4 view .LVU453
 1471              		.loc 4 476 34 discriminator 4 view .LVU454
 1472              		.loc 4 477 3 discriminator 4 view .LVU455
 1473              	.LBB394:
 1474              	.LBI394:
 1475              		.loc 5 873 27 discriminator 4 view .LVU456
 1476              		.loc 5 875 3 discriminator 4 view .LVU457
 1477              	.LBB395:
 1478              	.LBI395:
 1479              		.loc 5 847 27 discriminator 4 view .LVU458
 1480              		.loc 5 850 3 discriminator 4 view .LVU459
ARM GAS  C:\Users\DEVELO~1\AppData\Local\Temp\cc5EUJSb.s 			page 27


 1481              	.LBB396:
 1482              	.LBI396:
 1483              		.loc 6 491 27 discriminator 4 view .LVU460
 1484              	.LBB397:
 1485              		.loc 6 493 3 discriminator 4 view .LVU461
 1486 005e 0023     		movs	r3, #0
 1487              		.syntax unified
 1488              	@ 493 "../../../os/common/ext/ARM/CMSIS/Core/Include/cmsis_gcc.h" 1
 1489 0060 83F31188 		MSR basepri, r3
 1490              	@ 0 "" 2
 1491              	.LVL76:
 1492              		.loc 6 493 3 is_stmt 0 discriminator 4 view .LVU462
 1493              		.thumb
 1494              		.syntax unified
 1495              	.LBE397:
 1496              	.LBE396:
 1497              	.LBE395:
 1498              	.LBE394:
 1499              	.LBE393:
 1500              	.LBE392:
 1501              	.LBE391:
 1502              		.loc 1 299 5 is_stmt 1 discriminator 4 view .LVU463
 1503              		.loc 1 299 34 discriminator 4 view .LVU464
 1504              		.loc 1 301 1 is_stmt 0 discriminator 4 view .LVU465
 1505 0064 70BD     		pop	{r4, r5, r6, pc}
 1506              	.LVL77:
 1507              	.L124:
 1508              		.loc 1 274 5 is_stmt 1 view .LVU466
 1509              	.LBB398:
 1510              	.LBI398:
 1511              		.loc 3 542 20 view .LVU467
 1512              	.LBB399:
 1513              		.loc 3 544 3 view .LVU468
 1514 0066 0F48     		ldr	r0, .L126
 1515              	.LVL78:
 1516              		.loc 3 544 3 is_stmt 0 view .LVU469
 1517 0068 FFF7FEFF 		bl	chSysHalt
 1518              	.LVL79:
 1519              		.loc 3 544 3 view .LVU470
 1520              	.LBE399:
 1521              	.LBE398:
 1522              		.loc 1 278 5 is_stmt 1 view .LVU471
 1523 006c 2046     		mov	r0, r4
 1524 006e FFF7FEFF 		bl	spi_lld_stop_abort
 1525              	.LVL80:
 1526              		.loc 1 281 5 view .LVU472
 1527 0072 6368     		ldr	r3, [r4, #4]
 1528 0074 9B68     		ldr	r3, [r3, #8]
 1529 0076 0BB1     		cbz	r3, .L95
 1530              		.loc 1 281 5 discriminator 1 view .LVU473
 1531 0078 2046     		mov	r0, r4
 1532 007a 9847     		blx	r3
 1533              	.LVL81:
 1534              	.L95:
 1535              		.loc 1 281 5 discriminator 3 view .LVU474
 1536              	.LBB400:
 1537              	.LBI400:
ARM GAS  C:\Users\DEVELO~1\AppData\Local\Temp\cc5EUJSb.s 			page 28


 1538              		.loc 3 595 20 discriminator 3 view .LVU475
 1539              		.loc 3 597 3 discriminator 3 view .LVU476
 1540              	.LBB401:
 1541              	.LBI401:
 1542              		.loc 4 451 20 discriminator 3 view .LVU477
 1543              		.loc 4 453 3 discriminator 3 view .LVU478
 1544              	.LBB402:
 1545              	.LBI402:
 1546              		.loc 5 862 27 discriminator 3 view .LVU479
 1547              		.loc 5 864 3 discriminator 3 view .LVU480
 1548              	.LBB403:
 1549              	.LBI403:
 1550              		.loc 5 823 27 discriminator 3 view .LVU481
 1551              		.loc 5 831 3 discriminator 3 view .LVU482
 1552              	.LBB404:
 1553              	.LBI404:
 1554              		.loc 6 491 27 discriminator 3 view .LVU483
 1555              	.LBB405:
 1556              		.loc 6 493 3 discriminator 3 view .LVU484
 1557 007c 3023     		movs	r3, #48
 1558              		.syntax unified
 1559              	@ 493 "../../../os/common/ext/ARM/CMSIS/Core/Include/cmsis_gcc.h" 1
 1560 007e 83F31188 		MSR basepri, r3
 1561              	@ 0 "" 2
 1562              	.LVL82:
 1563              		.loc 6 493 3 is_stmt 0 discriminator 3 view .LVU485
 1564              		.thumb
 1565              		.syntax unified
 1566              	.LBE405:
 1567              	.LBE404:
 1568              	.LBE403:
 1569              	.LBE402:
 1570              		.loc 4 454 35 is_stmt 1 discriminator 3 view .LVU486
 1571              		.loc 4 455 30 discriminator 3 view .LVU487
 1572              	.LBE401:
 1573              	.LBE400:
 1574              		.loc 1 281 5 discriminator 3 view .LVU488
 1575              	.LBB406:
 1576              	.LBI406:
 1577              		.loc 3 837 20 discriminator 3 view .LVU489
 1578              	.LBB407:
 1579              		.loc 3 839 3 discriminator 3 view .LVU490
 1580 0082 6FF01201 		mvn	r1, #18
 1581 0086 04F10800 		add	r0, r4, #8
 1582              	.LVL83:
 1583              		.loc 3 839 3 is_stmt 0 discriminator 3 view .LVU491
 1584 008a FFF7FEFF 		bl	chThdResumeI
 1585              	.LVL84:
 1586              		.loc 3 839 3 discriminator 3 view .LVU492
 1587              	.LBE407:
 1588              	.LBE406:
 1589              		.loc 1 281 5 is_stmt 1 discriminator 3 view .LVU493
 1590              	.LBB408:
 1591              	.LBI408:
 1592              		.loc 3 606 20 discriminator 3 view .LVU494
 1593              	.LBB409:
 1594              		.loc 3 608 3 discriminator 3 view .LVU495
ARM GAS  C:\Users\DEVELO~1\AppData\Local\Temp\cc5EUJSb.s 			page 29


 1595              	.LBB410:
 1596              	.LBI410:
 1597              		.loc 4 473 20 discriminator 3 view .LVU496
 1598              		.loc 4 475 32 discriminator 3 view .LVU497
 1599              		.loc 4 476 34 discriminator 3 view .LVU498
 1600              		.loc 4 477 3 discriminator 3 view .LVU499
 1601              	.LBB411:
 1602              	.LBI411:
 1603              		.loc 5 873 27 discriminator 3 view .LVU500
 1604              		.loc 5 875 3 discriminator 3 view .LVU501
 1605              	.LBB412:
 1606              	.LBI412:
 1607              		.loc 5 847 27 discriminator 3 view .LVU502
 1608              		.loc 5 850 3 discriminator 3 view .LVU503
 1609              	.LBB413:
 1610              	.LBI413:
 1611              		.loc 6 491 27 discriminator 3 view .LVU504
 1612              	.LBB414:
 1613              		.loc 6 493 3 discriminator 3 view .LVU505
 1614 008e 0023     		movs	r3, #0
 1615              		.syntax unified
 1616              	@ 493 "../../../os/common/ext/ARM/CMSIS/Core/Include/cmsis_gcc.h" 1
 1617 0090 83F31188 		MSR basepri, r3
 1618              	@ 0 "" 2
 1619              	.LVL85:
 1620              		.loc 6 493 3 is_stmt 0 discriminator 3 view .LVU506
 1621              		.thumb
 1622              		.syntax unified
 1623              	.LBE414:
 1624              	.LBE413:
 1625              	.LBE412:
 1626              	.LBE411:
 1627              	.LBE410:
 1628              		.loc 3 609 1 discriminator 3 view .LVU507
 1629 0094 B9E7     		b	.L94
 1630              	.L125:
 1631              		.loc 3 609 1 discriminator 3 view .LVU508
 1632              	.LBE409:
 1633              	.LBE408:
 1634              		.loc 1 291 7 is_stmt 1 discriminator 3 view .LVU509
 1635 0096 0323     		movs	r3, #3
 1636 0098 2370     		strb	r3, [r4]
 1637              		.loc 1 301 1 is_stmt 0 discriminator 3 view .LVU510
 1638 009a 70BD     		pop	{r4, r5, r6, pc}
 1639              	.LVL86:
 1640              	.L100:
 1641              		.loc 1 299 5 is_stmt 1 discriminator 3 view .LVU511
 1642 009c 0223     		movs	r3, #2
 1643 009e 2370     		strb	r3, [r4]
 1644 00a0 D5E7     		b	.L101
 1645              	.L127:
 1646 00a2 00BF     		.align	2
 1647              	.L126:
 1648 00a4 00000000 		.word	.LC0
 1649              		.cfi_endproc
 1650              	.LFE437:
 1651              		.size	spi_lld_serve_bdma_rx_interrupt, .-spi_lld_serve_bdma_rx_interrupt
ARM GAS  C:\Users\DEVELO~1\AppData\Local\Temp\cc5EUJSb.s 			page 30


 1652              		.section	.text.VectorCC,"ax",%progbits
 1653              		.align	1
 1654              		.p2align 4,,15
 1655              		.global	VectorCC
 1656              		.syntax unified
 1657              		.thumb
 1658              		.thumb_func
 1659              		.type	VectorCC, %function
 1660              	VectorCC:
 1661              	.LFB444:
 1662              		.loc 1 489 38 view -0
 1663              		.cfi_startproc
 1664              		@ args = 0, pretend = 0, frame = 0
 1665              		@ frame_needed = 0, uses_anonymous_args = 0
 1666              		.loc 1 491 3 view .LVU513
 1667              		.loc 1 491 3 view .LVU514
 1668              		.loc 1 491 3 view .LVU515
 1669              		.loc 1 491 3 view .LVU516
 1670              		.loc 1 491 3 view .LVU517
 1671              		.loc 1 489 38 is_stmt 0 view .LVU518
 1672 0000 10B5     		push	{r4, lr}
 1673              		.cfi_def_cfa_offset 8
 1674              		.cfi_offset 4, -8
 1675              		.cfi_offset 14, -4
 1676              	.LBB434:
 1677              	.LBB435:
 1678              		.loc 1 398 12 view .LVU519
 1679 0002 164C     		ldr	r4, .L139
 1680              	.LBE435:
 1681              	.LBE434:
 1682              		.loc 1 491 3 view .LVU520
 1683 0004 1648     		ldr	r0, .L139+4
 1684 0006 FFF7FEFF 		bl	__trace_isr_enter
 1685              	.LVL87:
 1686              		.loc 1 491 22 is_stmt 1 view .LVU521
 1687              		.loc 1 493 3 view .LVU522
 1688              	.LBB454:
 1689              	.LBI434:
 1690              		.loc 1 395 13 view .LVU523
 1691              	.LBB452:
 1692              		.loc 1 396 3 view .LVU524
 1693              		.loc 1 398 3 view .LVU525
 1694              		.loc 1 398 12 is_stmt 0 view .LVU526
 1695 000a E269     		ldr	r2, [r4, #28]
 1696              		.loc 1 398 17 view .LVU527
 1697 000c 5369     		ldr	r3, [r2, #20]
 1698              		.loc 1 398 33 view .LVU528
 1699 000e 1169     		ldr	r1, [r2, #16]
 1700              		.loc 1 398 6 view .LVU529
 1701 0010 0B40     		ands	r3, r3, r1
 1702              	.LVL88:
 1703              		.loc 1 399 3 is_stmt 1 view .LVU530
 1704              		.loc 1 399 19 is_stmt 0 view .LVU531
 1705 0012 9361     		str	r3, [r2, #24]
 1706              		.loc 1 401 3 is_stmt 1 view .LVU532
 1707              		.loc 1 401 6 is_stmt 0 view .LVU533
 1708 0014 5B06     		lsls	r3, r3, #25
ARM GAS  C:\Users\DEVELO~1\AppData\Local\Temp\cc5EUJSb.s 			page 31


 1709              	.LVL89:
 1710              		.loc 1 401 6 view .LVU534
 1711 0016 06D4     		bmi	.L138
 1712              		.loc 1 407 5 is_stmt 1 view .LVU535
 1713              		.loc 1 407 51 view .LVU536
 1714              	.LVL90:
 1715              		.loc 1 407 51 is_stmt 0 view .LVU537
 1716              	.LBE452:
 1717              	.LBE454:
 1718              		.loc 1 495 3 is_stmt 1 view .LVU538
 1719              		.loc 1 495 3 view .LVU539
 1720 0018 1148     		ldr	r0, .L139+4
 1721 001a FFF7FEFF 		bl	__trace_isr_leave
 1722              	.LVL91:
 1723              		.loc 1 495 3 view .LVU540
 1724              		.loc 1 495 3 view .LVU541
 1725              		.loc 1 495 3 view .LVU542
 1726              		.loc 1 496 1 is_stmt 0 view .LVU543
 1727 001e BDE81040 		pop	{r4, lr}
 1728              		.cfi_remember_state
 1729              		.cfi_restore 14
 1730              		.cfi_restore 4
 1731              		.cfi_def_cfa_offset 0
 1732              		.loc 1 495 3 view .LVU544
 1733 0022 FFF7FEBF 		b	__port_irq_epilogue
 1734              	.LVL92:
 1735              	.L138:
 1736              		.cfi_restore_state
 1737              	.LBB455:
 1738              	.LBB453:
 1739              	.LBB436:
 1740              	.LBI436:
 1741              		.loc 1 395 13 is_stmt 1 view .LVU545
 1742              	.LBB437:
 1743              		.loc 1 404 5 view .LVU546
 1744 0026 2046     		mov	r0, r4
 1745 0028 FFF7FEFF 		bl	spi_lld_stop_abort
 1746              	.LVL93:
 1747              		.loc 1 407 5 view .LVU547
 1748 002c 6368     		ldr	r3, [r4, #4]
 1749 002e 9B68     		ldr	r3, [r3, #8]
 1750 0030 0BB1     		cbz	r3, .L130
 1751              		.loc 1 407 5 view .LVU548
 1752 0032 2046     		mov	r0, r4
 1753 0034 9847     		blx	r3
 1754              	.LVL94:
 1755              	.L130:
 1756              		.loc 1 407 5 view .LVU549
 1757              	.LBB438:
 1758              	.LBI438:
 1759              		.loc 3 595 20 view .LVU550
 1760              		.loc 3 597 3 view .LVU551
 1761              	.LBB439:
 1762              	.LBI439:
 1763              		.loc 4 451 20 view .LVU552
 1764              		.loc 4 453 3 view .LVU553
 1765              	.LBB440:
ARM GAS  C:\Users\DEVELO~1\AppData\Local\Temp\cc5EUJSb.s 			page 32


 1766              	.LBI440:
 1767              		.loc 5 862 27 view .LVU554
 1768              		.loc 5 864 3 view .LVU555
 1769              	.LBB441:
 1770              	.LBI441:
 1771              		.loc 5 823 27 view .LVU556
 1772              		.loc 5 831 3 view .LVU557
 1773              	.LBB442:
 1774              	.LBI442:
 1775              		.loc 6 491 27 view .LVU558
 1776              	.LBB443:
 1777              		.loc 6 493 3 view .LVU559
 1778 0036 3023     		movs	r3, #48
 1779              		.syntax unified
 1780              	@ 493 "../../../os/common/ext/ARM/CMSIS/Core/Include/cmsis_gcc.h" 1
 1781 0038 83F31188 		MSR basepri, r3
 1782              	@ 0 "" 2
 1783              	.LVL95:
 1784              		.loc 6 493 3 is_stmt 0 view .LVU560
 1785              		.thumb
 1786              		.syntax unified
 1787              	.LBE443:
 1788              	.LBE442:
 1789              	.LBE441:
 1790              	.LBE440:
 1791              		.loc 4 454 35 is_stmt 1 view .LVU561
 1792              		.loc 4 455 30 view .LVU562
 1793              	.LBE439:
 1794              	.LBE438:
 1795              		.loc 1 407 5 view .LVU563
 1796              	.LBB444:
 1797              	.LBI444:
 1798              		.loc 3 837 20 view .LVU564
 1799              	.LBB445:
 1800              		.loc 3 839 3 view .LVU565
 1801 003c 6FF01201 		mvn	r1, #18
 1802 0040 0848     		ldr	r0, .L139+8
 1803 0042 FFF7FEFF 		bl	chThdResumeI
 1804              	.LVL96:
 1805              		.loc 3 839 3 is_stmt 0 view .LVU566
 1806              	.LBE445:
 1807              	.LBE444:
 1808              		.loc 1 407 5 is_stmt 1 view .LVU567
 1809              	.LBB446:
 1810              	.LBI446:
 1811              		.loc 3 606 20 view .LVU568
 1812              		.loc 3 608 3 view .LVU569
 1813              	.LBB447:
 1814              	.LBI447:
 1815              		.loc 4 473 20 view .LVU570
 1816              		.loc 4 475 32 view .LVU571
 1817              		.loc 4 476 34 view .LVU572
 1818              		.loc 4 477 3 view .LVU573
 1819              	.LBB448:
 1820              	.LBI448:
 1821              		.loc 5 873 27 view .LVU574
 1822              		.loc 5 875 3 view .LVU575
ARM GAS  C:\Users\DEVELO~1\AppData\Local\Temp\cc5EUJSb.s 			page 33


 1823              	.LBB449:
 1824              	.LBI449:
 1825              		.loc 5 847 27 view .LVU576
 1826              		.loc 5 850 3 view .LVU577
 1827              	.LBB450:
 1828              	.LBI450:
 1829              		.loc 6 491 27 view .LVU578
 1830              	.LBB451:
 1831              		.loc 6 493 3 view .LVU579
 1832 0046 0023     		movs	r3, #0
 1833              		.syntax unified
 1834              	@ 493 "../../../os/common/ext/ARM/CMSIS/Core/Include/cmsis_gcc.h" 1
 1835 0048 83F31188 		MSR basepri, r3
 1836              	@ 0 "" 2
 1837              	.LVL97:
 1838              		.loc 6 493 3 is_stmt 0 view .LVU580
 1839              		.thumb
 1840              		.syntax unified
 1841              	.LBE451:
 1842              	.LBE450:
 1843              	.LBE449:
 1844              	.LBE448:
 1845              	.LBE447:
 1846              	.LBE446:
 1847              		.loc 1 407 5 is_stmt 1 view .LVU581
 1848              		.loc 1 407 51 view .LVU582
 1849              		.loc 1 407 51 is_stmt 0 view .LVU583
 1850              	.LBE437:
 1851              	.LBE436:
 1852              		.loc 1 407 5 is_stmt 1 view .LVU584
 1853              		.loc 1 407 51 view .LVU585
 1854              		.loc 1 407 51 is_stmt 0 view .LVU586
 1855              	.LBE453:
 1856              	.LBE455:
 1857              		.loc 1 495 3 is_stmt 1 view .LVU587
 1858              		.loc 1 495 3 view .LVU588
 1859 004c 0448     		ldr	r0, .L139+4
 1860 004e FFF7FEFF 		bl	__trace_isr_leave
 1861              	.LVL98:
 1862              		.loc 1 495 3 view .LVU589
 1863              		.loc 1 495 3 view .LVU590
 1864              		.loc 1 495 3 view .LVU591
 1865              		.loc 1 496 1 is_stmt 0 view .LVU592
 1866 0052 BDE81040 		pop	{r4, lr}
 1867              		.cfi_restore 14
 1868              		.cfi_restore 4
 1869              		.cfi_def_cfa_offset 0
 1870              		.loc 1 495 3 view .LVU593
 1871 0056 FFF7FEBF 		b	__port_irq_epilogue
 1872              	.LVL99:
 1873              	.L140:
 1874 005a 00BF     		.align	2
 1875              	.L139:
 1876 005c 00000000 		.word	.LANCHOR0
 1877 0060 00000000 		.word	.LANCHOR5
 1878 0064 08000000 		.word	.LANCHOR0+8
 1879              		.cfi_endproc
ARM GAS  C:\Users\DEVELO~1\AppData\Local\Temp\cc5EUJSb.s 			page 34


 1880              	.LFE444:
 1881              		.size	VectorCC, .-VectorCC
 1882              		.section	.text.VectorD0,"ax",%progbits
 1883              		.align	1
 1884              		.p2align 4,,15
 1885              		.global	VectorD0
 1886              		.syntax unified
 1887              		.thumb
 1888              		.thumb_func
 1889              		.type	VectorD0, %function
 1890              	VectorD0:
 1891              	.LFB445:
 1892              		.loc 1 510 38 is_stmt 1 view -0
 1893              		.cfi_startproc
 1894              		@ args = 0, pretend = 0, frame = 0
 1895              		@ frame_needed = 0, uses_anonymous_args = 0
 1896              		.loc 1 512 3 view .LVU595
 1897              		.loc 1 512 3 view .LVU596
 1898              		.loc 1 512 3 view .LVU597
 1899              		.loc 1 512 3 view .LVU598
 1900              		.loc 1 512 3 view .LVU599
 1901              		.loc 1 510 38 is_stmt 0 view .LVU600
 1902 0000 10B5     		push	{r4, lr}
 1903              		.cfi_def_cfa_offset 8
 1904              		.cfi_offset 4, -8
 1905              		.cfi_offset 14, -4
 1906              	.LBB475:
 1907              	.LBB476:
 1908              		.loc 1 398 12 view .LVU601
 1909 0002 164C     		ldr	r4, .L152
 1910              	.LBE476:
 1911              	.LBE475:
 1912              		.loc 1 512 3 view .LVU602
 1913 0004 1648     		ldr	r0, .L152+4
 1914 0006 FFF7FEFF 		bl	__trace_isr_enter
 1915              	.LVL100:
 1916              		.loc 1 512 22 is_stmt 1 view .LVU603
 1917              		.loc 1 514 3 view .LVU604
 1918              	.LBB495:
 1919              	.LBI475:
 1920              		.loc 1 395 13 view .LVU605
 1921              	.LBB493:
 1922              		.loc 1 396 3 view .LVU606
 1923              		.loc 1 398 3 view .LVU607
 1924              		.loc 1 398 12 is_stmt 0 view .LVU608
 1925 000a E269     		ldr	r2, [r4, #28]
 1926              		.loc 1 398 17 view .LVU609
 1927 000c 5369     		ldr	r3, [r2, #20]
 1928              		.loc 1 398 33 view .LVU610
 1929 000e 1169     		ldr	r1, [r2, #16]
 1930              		.loc 1 398 6 view .LVU611
 1931 0010 0B40     		ands	r3, r3, r1
 1932              	.LVL101:
 1933              		.loc 1 399 3 is_stmt 1 view .LVU612
 1934              		.loc 1 399 19 is_stmt 0 view .LVU613
 1935 0012 9361     		str	r3, [r2, #24]
 1936              		.loc 1 401 3 is_stmt 1 view .LVU614
ARM GAS  C:\Users\DEVELO~1\AppData\Local\Temp\cc5EUJSb.s 			page 35


 1937              		.loc 1 401 6 is_stmt 0 view .LVU615
 1938 0014 5B06     		lsls	r3, r3, #25
 1939              	.LVL102:
 1940              		.loc 1 401 6 view .LVU616
 1941 0016 06D4     		bmi	.L151
 1942              		.loc 1 407 5 is_stmt 1 view .LVU617
 1943              		.loc 1 407 51 view .LVU618
 1944              	.LVL103:
 1945              		.loc 1 407 51 is_stmt 0 view .LVU619
 1946              	.LBE493:
 1947              	.LBE495:
 1948              		.loc 1 516 3 is_stmt 1 view .LVU620
 1949              		.loc 1 516 3 view .LVU621
 1950 0018 1148     		ldr	r0, .L152+4
 1951 001a FFF7FEFF 		bl	__trace_isr_leave
 1952              	.LVL104:
 1953              		.loc 1 516 3 view .LVU622
 1954              		.loc 1 516 3 view .LVU623
 1955              		.loc 1 516 3 view .LVU624
 1956              		.loc 1 517 1 is_stmt 0 view .LVU625
 1957 001e BDE81040 		pop	{r4, lr}
 1958              		.cfi_remember_state
 1959              		.cfi_restore 14
 1960              		.cfi_restore 4
 1961              		.cfi_def_cfa_offset 0
 1962              		.loc 1 516 3 view .LVU626
 1963 0022 FFF7FEBF 		b	__port_irq_epilogue
 1964              	.LVL105:
 1965              	.L151:
 1966              		.cfi_restore_state
 1967              	.LBB496:
 1968              	.LBB494:
 1969              	.LBB477:
 1970              	.LBI477:
 1971              		.loc 1 395 13 is_stmt 1 view .LVU627
 1972              	.LBB478:
 1973              		.loc 1 404 5 view .LVU628
 1974 0026 2046     		mov	r0, r4
 1975 0028 FFF7FEFF 		bl	spi_lld_stop_abort
 1976              	.LVL106:
 1977              		.loc 1 407 5 view .LVU629
 1978 002c 6368     		ldr	r3, [r4, #4]
 1979 002e 9B68     		ldr	r3, [r3, #8]
 1980 0030 0BB1     		cbz	r3, .L143
 1981              		.loc 1 407 5 view .LVU630
 1982 0032 2046     		mov	r0, r4
 1983 0034 9847     		blx	r3
 1984              	.LVL107:
 1985              	.L143:
 1986              		.loc 1 407 5 view .LVU631
 1987              	.LBB479:
 1988              	.LBI479:
 1989              		.loc 3 595 20 view .LVU632
 1990              		.loc 3 597 3 view .LVU633
 1991              	.LBB480:
 1992              	.LBI480:
 1993              		.loc 4 451 20 view .LVU634
ARM GAS  C:\Users\DEVELO~1\AppData\Local\Temp\cc5EUJSb.s 			page 36


 1994              		.loc 4 453 3 view .LVU635
 1995              	.LBB481:
 1996              	.LBI481:
 1997              		.loc 5 862 27 view .LVU636
 1998              		.loc 5 864 3 view .LVU637
 1999              	.LBB482:
 2000              	.LBI482:
 2001              		.loc 5 823 27 view .LVU638
 2002              		.loc 5 831 3 view .LVU639
 2003              	.LBB483:
 2004              	.LBI483:
 2005              		.loc 6 491 27 view .LVU640
 2006              	.LBB484:
 2007              		.loc 6 493 3 view .LVU641
 2008 0036 3023     		movs	r3, #48
 2009              		.syntax unified
 2010              	@ 493 "../../../os/common/ext/ARM/CMSIS/Core/Include/cmsis_gcc.h" 1
 2011 0038 83F31188 		MSR basepri, r3
 2012              	@ 0 "" 2
 2013              	.LVL108:
 2014              		.loc 6 493 3 is_stmt 0 view .LVU642
 2015              		.thumb
 2016              		.syntax unified
 2017              	.LBE484:
 2018              	.LBE483:
 2019              	.LBE482:
 2020              	.LBE481:
 2021              		.loc 4 454 35 is_stmt 1 view .LVU643
 2022              		.loc 4 455 30 view .LVU644
 2023              	.LBE480:
 2024              	.LBE479:
 2025              		.loc 1 407 5 view .LVU645
 2026              	.LBB485:
 2027              	.LBI485:
 2028              		.loc 3 837 20 view .LVU646
 2029              	.LBB486:
 2030              		.loc 3 839 3 view .LVU647
 2031 003c 6FF01201 		mvn	r1, #18
 2032 0040 0848     		ldr	r0, .L152+8
 2033 0042 FFF7FEFF 		bl	chThdResumeI
 2034              	.LVL109:
 2035              		.loc 3 839 3 is_stmt 0 view .LVU648
 2036              	.LBE486:
 2037              	.LBE485:
 2038              		.loc 1 407 5 is_stmt 1 view .LVU649
 2039              	.LBB487:
 2040              	.LBI487:
 2041              		.loc 3 606 20 view .LVU650
 2042              		.loc 3 608 3 view .LVU651
 2043              	.LBB488:
 2044              	.LBI488:
 2045              		.loc 4 473 20 view .LVU652
 2046              		.loc 4 475 32 view .LVU653
 2047              		.loc 4 476 34 view .LVU654
 2048              		.loc 4 477 3 view .LVU655
 2049              	.LBB489:
 2050              	.LBI489:
ARM GAS  C:\Users\DEVELO~1\AppData\Local\Temp\cc5EUJSb.s 			page 37


 2051              		.loc 5 873 27 view .LVU656
 2052              		.loc 5 875 3 view .LVU657
 2053              	.LBB490:
 2054              	.LBI490:
 2055              		.loc 5 847 27 view .LVU658
 2056              		.loc 5 850 3 view .LVU659
 2057              	.LBB491:
 2058              	.LBI491:
 2059              		.loc 6 491 27 view .LVU660
 2060              	.LBB492:
 2061              		.loc 6 493 3 view .LVU661
 2062 0046 0023     		movs	r3, #0
 2063              		.syntax unified
 2064              	@ 493 "../../../os/common/ext/ARM/CMSIS/Core/Include/cmsis_gcc.h" 1
 2065 0048 83F31188 		MSR basepri, r3
 2066              	@ 0 "" 2
 2067              	.LVL110:
 2068              		.loc 6 493 3 is_stmt 0 view .LVU662
 2069              		.thumb
 2070              		.syntax unified
 2071              	.LBE492:
 2072              	.LBE491:
 2073              	.LBE490:
 2074              	.LBE489:
 2075              	.LBE488:
 2076              	.LBE487:
 2077              		.loc 1 407 5 is_stmt 1 view .LVU663
 2078              		.loc 1 407 51 view .LVU664
 2079              		.loc 1 407 51 is_stmt 0 view .LVU665
 2080              	.LBE478:
 2081              	.LBE477:
 2082              		.loc 1 407 5 is_stmt 1 view .LVU666
 2083              		.loc 1 407 51 view .LVU667
 2084              		.loc 1 407 51 is_stmt 0 view .LVU668
 2085              	.LBE494:
 2086              	.LBE496:
 2087              		.loc 1 516 3 is_stmt 1 view .LVU669
 2088              		.loc 1 516 3 view .LVU670
 2089 004c 0448     		ldr	r0, .L152+4
 2090 004e FFF7FEFF 		bl	__trace_isr_leave
 2091              	.LVL111:
 2092              		.loc 1 516 3 view .LVU671
 2093              		.loc 1 516 3 view .LVU672
 2094              		.loc 1 516 3 view .LVU673
 2095              		.loc 1 517 1 is_stmt 0 view .LVU674
 2096 0052 BDE81040 		pop	{r4, lr}
 2097              		.cfi_restore 14
 2098              		.cfi_restore 4
 2099              		.cfi_def_cfa_offset 0
 2100              		.loc 1 516 3 view .LVU675
 2101 0056 FFF7FEBF 		b	__port_irq_epilogue
 2102              	.LVL112:
 2103              	.L153:
 2104 005a 00BF     		.align	2
 2105              	.L152:
 2106 005c 00000000 		.word	.LANCHOR1
 2107 0060 00000000 		.word	.LANCHOR6
ARM GAS  C:\Users\DEVELO~1\AppData\Local\Temp\cc5EUJSb.s 			page 38


 2108 0064 08000000 		.word	.LANCHOR1+8
 2109              		.cfi_endproc
 2110              	.LFE445:
 2111              		.size	VectorD0, .-VectorD0
 2112              		.section	.text.Vector10C,"ax",%progbits
 2113              		.align	1
 2114              		.p2align 4,,15
 2115              		.global	Vector10C
 2116              		.syntax unified
 2117              		.thumb
 2118              		.thumb_func
 2119              		.type	Vector10C, %function
 2120              	Vector10C:
 2121              	.LFB446:
 2122              		.loc 1 531 38 is_stmt 1 view -0
 2123              		.cfi_startproc
 2124              		@ args = 0, pretend = 0, frame = 0
 2125              		@ frame_needed = 0, uses_anonymous_args = 0
 2126              		.loc 1 533 3 view .LVU677
 2127              		.loc 1 533 3 view .LVU678
 2128              		.loc 1 533 3 view .LVU679
 2129              		.loc 1 533 3 view .LVU680
 2130              		.loc 1 533 3 view .LVU681
 2131              		.loc 1 531 38 is_stmt 0 view .LVU682
 2132 0000 10B5     		push	{r4, lr}
 2133              		.cfi_def_cfa_offset 8
 2134              		.cfi_offset 4, -8
 2135              		.cfi_offset 14, -4
 2136              	.LBB516:
 2137              	.LBB517:
 2138              		.loc 1 398 12 view .LVU683
 2139 0002 164C     		ldr	r4, .L165
 2140              	.LBE517:
 2141              	.LBE516:
 2142              		.loc 1 533 3 view .LVU684
 2143 0004 1648     		ldr	r0, .L165+4
 2144 0006 FFF7FEFF 		bl	__trace_isr_enter
 2145              	.LVL113:
 2146              		.loc 1 533 22 is_stmt 1 view .LVU685
 2147              		.loc 1 535 3 view .LVU686
 2148              	.LBB536:
 2149              	.LBI516:
 2150              		.loc 1 395 13 view .LVU687
 2151              	.LBB534:
 2152              		.loc 1 396 3 view .LVU688
 2153              		.loc 1 398 3 view .LVU689
 2154              		.loc 1 398 12 is_stmt 0 view .LVU690
 2155 000a E269     		ldr	r2, [r4, #28]
 2156              		.loc 1 398 17 view .LVU691
 2157 000c 5369     		ldr	r3, [r2, #20]
 2158              		.loc 1 398 33 view .LVU692
 2159 000e 1169     		ldr	r1, [r2, #16]
 2160              		.loc 1 398 6 view .LVU693
 2161 0010 0B40     		ands	r3, r3, r1
 2162              	.LVL114:
 2163              		.loc 1 399 3 is_stmt 1 view .LVU694
 2164              		.loc 1 399 19 is_stmt 0 view .LVU695
ARM GAS  C:\Users\DEVELO~1\AppData\Local\Temp\cc5EUJSb.s 			page 39


 2165 0012 9361     		str	r3, [r2, #24]
 2166              		.loc 1 401 3 is_stmt 1 view .LVU696
 2167              		.loc 1 401 6 is_stmt 0 view .LVU697
 2168 0014 5B06     		lsls	r3, r3, #25
 2169              	.LVL115:
 2170              		.loc 1 401 6 view .LVU698
 2171 0016 06D4     		bmi	.L164
 2172              		.loc 1 407 5 is_stmt 1 view .LVU699
 2173              		.loc 1 407 51 view .LVU700
 2174              	.LVL116:
 2175              		.loc 1 407 51 is_stmt 0 view .LVU701
 2176              	.LBE534:
 2177              	.LBE536:
 2178              		.loc 1 537 3 is_stmt 1 view .LVU702
 2179              		.loc 1 537 3 view .LVU703
 2180 0018 1148     		ldr	r0, .L165+4
 2181 001a FFF7FEFF 		bl	__trace_isr_leave
 2182              	.LVL117:
 2183              		.loc 1 537 3 view .LVU704
 2184              		.loc 1 537 3 view .LVU705
 2185              		.loc 1 537 3 view .LVU706
 2186              		.loc 1 538 1 is_stmt 0 view .LVU707
 2187 001e BDE81040 		pop	{r4, lr}
 2188              		.cfi_remember_state
 2189              		.cfi_restore 14
 2190              		.cfi_restore 4
 2191              		.cfi_def_cfa_offset 0
 2192              		.loc 1 537 3 view .LVU708
 2193 0022 FFF7FEBF 		b	__port_irq_epilogue
 2194              	.LVL118:
 2195              	.L164:
 2196              		.cfi_restore_state
 2197              	.LBB537:
 2198              	.LBB535:
 2199              	.LBB518:
 2200              	.LBI518:
 2201              		.loc 1 395 13 is_stmt 1 view .LVU709
 2202              	.LBB519:
 2203              		.loc 1 404 5 view .LVU710
 2204 0026 2046     		mov	r0, r4
 2205 0028 FFF7FEFF 		bl	spi_lld_stop_abort
 2206              	.LVL119:
 2207              		.loc 1 407 5 view .LVU711
 2208 002c 6368     		ldr	r3, [r4, #4]
 2209 002e 9B68     		ldr	r3, [r3, #8]
 2210 0030 0BB1     		cbz	r3, .L156
 2211              		.loc 1 407 5 view .LVU712
 2212 0032 2046     		mov	r0, r4
 2213 0034 9847     		blx	r3
 2214              	.LVL120:
 2215              	.L156:
 2216              		.loc 1 407 5 view .LVU713
 2217              	.LBB520:
 2218              	.LBI520:
 2219              		.loc 3 595 20 view .LVU714
 2220              		.loc 3 597 3 view .LVU715
 2221              	.LBB521:
ARM GAS  C:\Users\DEVELO~1\AppData\Local\Temp\cc5EUJSb.s 			page 40


 2222              	.LBI521:
 2223              		.loc 4 451 20 view .LVU716
 2224              		.loc 4 453 3 view .LVU717
 2225              	.LBB522:
 2226              	.LBI522:
 2227              		.loc 5 862 27 view .LVU718
 2228              		.loc 5 864 3 view .LVU719
 2229              	.LBB523:
 2230              	.LBI523:
 2231              		.loc 5 823 27 view .LVU720
 2232              		.loc 5 831 3 view .LVU721
 2233              	.LBB524:
 2234              	.LBI524:
 2235              		.loc 6 491 27 view .LVU722
 2236              	.LBB525:
 2237              		.loc 6 493 3 view .LVU723
 2238 0036 3023     		movs	r3, #48
 2239              		.syntax unified
 2240              	@ 493 "../../../os/common/ext/ARM/CMSIS/Core/Include/cmsis_gcc.h" 1
 2241 0038 83F31188 		MSR basepri, r3
 2242              	@ 0 "" 2
 2243              	.LVL121:
 2244              		.loc 6 493 3 is_stmt 0 view .LVU724
 2245              		.thumb
 2246              		.syntax unified
 2247              	.LBE525:
 2248              	.LBE524:
 2249              	.LBE523:
 2250              	.LBE522:
 2251              		.loc 4 454 35 is_stmt 1 view .LVU725
 2252              		.loc 4 455 30 view .LVU726
 2253              	.LBE521:
 2254              	.LBE520:
 2255              		.loc 1 407 5 view .LVU727
 2256              	.LBB526:
 2257              	.LBI526:
 2258              		.loc 3 837 20 view .LVU728
 2259              	.LBB527:
 2260              		.loc 3 839 3 view .LVU729
 2261 003c 6FF01201 		mvn	r1, #18
 2262 0040 0848     		ldr	r0, .L165+8
 2263 0042 FFF7FEFF 		bl	chThdResumeI
 2264              	.LVL122:
 2265              		.loc 3 839 3 is_stmt 0 view .LVU730
 2266              	.LBE527:
 2267              	.LBE526:
 2268              		.loc 1 407 5 is_stmt 1 view .LVU731
 2269              	.LBB528:
 2270              	.LBI528:
 2271              		.loc 3 606 20 view .LVU732
 2272              		.loc 3 608 3 view .LVU733
 2273              	.LBB529:
 2274              	.LBI529:
 2275              		.loc 4 473 20 view .LVU734
 2276              		.loc 4 475 32 view .LVU735
 2277              		.loc 4 476 34 view .LVU736
 2278              		.loc 4 477 3 view .LVU737
ARM GAS  C:\Users\DEVELO~1\AppData\Local\Temp\cc5EUJSb.s 			page 41


 2279              	.LBB530:
 2280              	.LBI530:
 2281              		.loc 5 873 27 view .LVU738
 2282              		.loc 5 875 3 view .LVU739
 2283              	.LBB531:
 2284              	.LBI531:
 2285              		.loc 5 847 27 view .LVU740
 2286              		.loc 5 850 3 view .LVU741
 2287              	.LBB532:
 2288              	.LBI532:
 2289              		.loc 6 491 27 view .LVU742
 2290              	.LBB533:
 2291              		.loc 6 493 3 view .LVU743
 2292 0046 0023     		movs	r3, #0
 2293              		.syntax unified
 2294              	@ 493 "../../../os/common/ext/ARM/CMSIS/Core/Include/cmsis_gcc.h" 1
 2295 0048 83F31188 		MSR basepri, r3
 2296              	@ 0 "" 2
 2297              	.LVL123:
 2298              		.loc 6 493 3 is_stmt 0 view .LVU744
 2299              		.thumb
 2300              		.syntax unified
 2301              	.LBE533:
 2302              	.LBE532:
 2303              	.LBE531:
 2304              	.LBE530:
 2305              	.LBE529:
 2306              	.LBE528:
 2307              		.loc 1 407 5 is_stmt 1 view .LVU745
 2308              		.loc 1 407 51 view .LVU746
 2309              		.loc 1 407 51 is_stmt 0 view .LVU747
 2310              	.LBE519:
 2311              	.LBE518:
 2312              		.loc 1 407 5 is_stmt 1 view .LVU748
 2313              		.loc 1 407 51 view .LVU749
 2314              		.loc 1 407 51 is_stmt 0 view .LVU750
 2315              	.LBE535:
 2316              	.LBE537:
 2317              		.loc 1 537 3 is_stmt 1 view .LVU751
 2318              		.loc 1 537 3 view .LVU752
 2319 004c 0448     		ldr	r0, .L165+4
 2320 004e FFF7FEFF 		bl	__trace_isr_leave
 2321              	.LVL124:
 2322              		.loc 1 537 3 view .LVU753
 2323              		.loc 1 537 3 view .LVU754
 2324              		.loc 1 537 3 view .LVU755
 2325              		.loc 1 538 1 is_stmt 0 view .LVU756
 2326 0052 BDE81040 		pop	{r4, lr}
 2327              		.cfi_restore 14
 2328              		.cfi_restore 4
 2329              		.cfi_def_cfa_offset 0
 2330              		.loc 1 537 3 view .LVU757
 2331 0056 FFF7FEBF 		b	__port_irq_epilogue
 2332              	.LVL125:
 2333              	.L166:
 2334 005a 00BF     		.align	2
 2335              	.L165:
ARM GAS  C:\Users\DEVELO~1\AppData\Local\Temp\cc5EUJSb.s 			page 42


 2336 005c 00000000 		.word	.LANCHOR2
 2337 0060 00000000 		.word	.LANCHOR7
 2338 0064 08000000 		.word	.LANCHOR2+8
 2339              		.cfi_endproc
 2340              	.LFE446:
 2341              		.size	Vector10C, .-Vector10C
 2342              		.section	.text.Vector194,"ax",%progbits
 2343              		.align	1
 2344              		.p2align 4,,15
 2345              		.global	Vector194
 2346              		.syntax unified
 2347              		.thumb
 2348              		.thumb_func
 2349              		.type	Vector194, %function
 2350              	Vector194:
 2351              	.LFB447:
 2352              		.loc 1 573 38 is_stmt 1 view -0
 2353              		.cfi_startproc
 2354              		@ args = 0, pretend = 0, frame = 0
 2355              		@ frame_needed = 0, uses_anonymous_args = 0
 2356              		.loc 1 575 3 view .LVU759
 2357              		.loc 1 575 3 view .LVU760
 2358              		.loc 1 575 3 view .LVU761
 2359              		.loc 1 575 3 view .LVU762
 2360              		.loc 1 575 3 view .LVU763
 2361              		.loc 1 573 38 is_stmt 0 view .LVU764
 2362 0000 10B5     		push	{r4, lr}
 2363              		.cfi_def_cfa_offset 8
 2364              		.cfi_offset 4, -8
 2365              		.cfi_offset 14, -4
 2366              	.LBB557:
 2367              	.LBB558:
 2368              		.loc 1 398 12 view .LVU765
 2369 0002 164C     		ldr	r4, .L178
 2370              	.LBE558:
 2371              	.LBE557:
 2372              		.loc 1 575 3 view .LVU766
 2373 0004 1648     		ldr	r0, .L178+4
 2374 0006 FFF7FEFF 		bl	__trace_isr_enter
 2375              	.LVL126:
 2376              		.loc 1 575 22 is_stmt 1 view .LVU767
 2377              		.loc 1 577 3 view .LVU768
 2378              	.LBB577:
 2379              	.LBI557:
 2380              		.loc 1 395 13 view .LVU769
 2381              	.LBB575:
 2382              		.loc 1 396 3 view .LVU770
 2383              		.loc 1 398 3 view .LVU771
 2384              		.loc 1 398 12 is_stmt 0 view .LVU772
 2385 000a E269     		ldr	r2, [r4, #28]
 2386              		.loc 1 398 17 view .LVU773
 2387 000c 5369     		ldr	r3, [r2, #20]
 2388              		.loc 1 398 33 view .LVU774
 2389 000e 1169     		ldr	r1, [r2, #16]
 2390              		.loc 1 398 6 view .LVU775
 2391 0010 0B40     		ands	r3, r3, r1
 2392              	.LVL127:
ARM GAS  C:\Users\DEVELO~1\AppData\Local\Temp\cc5EUJSb.s 			page 43


 2393              		.loc 1 399 3 is_stmt 1 view .LVU776
 2394              		.loc 1 399 19 is_stmt 0 view .LVU777
 2395 0012 9361     		str	r3, [r2, #24]
 2396              		.loc 1 401 3 is_stmt 1 view .LVU778
 2397              		.loc 1 401 6 is_stmt 0 view .LVU779
 2398 0014 5B06     		lsls	r3, r3, #25
 2399              	.LVL128:
 2400              		.loc 1 401 6 view .LVU780
 2401 0016 06D4     		bmi	.L177
 2402              		.loc 1 407 5 is_stmt 1 view .LVU781
 2403              		.loc 1 407 51 view .LVU782
 2404              	.LVL129:
 2405              		.loc 1 407 51 is_stmt 0 view .LVU783
 2406              	.LBE575:
 2407              	.LBE577:
 2408              		.loc 1 579 3 is_stmt 1 view .LVU784
 2409              		.loc 1 579 3 view .LVU785
 2410 0018 1148     		ldr	r0, .L178+4
 2411 001a FFF7FEFF 		bl	__trace_isr_leave
 2412              	.LVL130:
 2413              		.loc 1 579 3 view .LVU786
 2414              		.loc 1 579 3 view .LVU787
 2415              		.loc 1 579 3 view .LVU788
 2416              		.loc 1 580 1 is_stmt 0 view .LVU789
 2417 001e BDE81040 		pop	{r4, lr}
 2418              		.cfi_remember_state
 2419              		.cfi_restore 14
 2420              		.cfi_restore 4
 2421              		.cfi_def_cfa_offset 0
 2422              		.loc 1 579 3 view .LVU790
 2423 0022 FFF7FEBF 		b	__port_irq_epilogue
 2424              	.LVL131:
 2425              	.L177:
 2426              		.cfi_restore_state
 2427              	.LBB578:
 2428              	.LBB576:
 2429              	.LBB559:
 2430              	.LBI559:
 2431              		.loc 1 395 13 is_stmt 1 view .LVU791
 2432              	.LBB560:
 2433              		.loc 1 404 5 view .LVU792
 2434 0026 2046     		mov	r0, r4
 2435 0028 FFF7FEFF 		bl	spi_lld_stop_abort
 2436              	.LVL132:
 2437              		.loc 1 407 5 view .LVU793
 2438 002c 6368     		ldr	r3, [r4, #4]
 2439 002e 9B68     		ldr	r3, [r3, #8]
 2440 0030 0BB1     		cbz	r3, .L169
 2441              		.loc 1 407 5 view .LVU794
 2442 0032 2046     		mov	r0, r4
 2443 0034 9847     		blx	r3
 2444              	.LVL133:
 2445              	.L169:
 2446              		.loc 1 407 5 view .LVU795
 2447              	.LBB561:
 2448              	.LBI561:
 2449              		.loc 3 595 20 view .LVU796
ARM GAS  C:\Users\DEVELO~1\AppData\Local\Temp\cc5EUJSb.s 			page 44


 2450              		.loc 3 597 3 view .LVU797
 2451              	.LBB562:
 2452              	.LBI562:
 2453              		.loc 4 451 20 view .LVU798
 2454              		.loc 4 453 3 view .LVU799
 2455              	.LBB563:
 2456              	.LBI563:
 2457              		.loc 5 862 27 view .LVU800
 2458              		.loc 5 864 3 view .LVU801
 2459              	.LBB564:
 2460              	.LBI564:
 2461              		.loc 5 823 27 view .LVU802
 2462              		.loc 5 831 3 view .LVU803
 2463              	.LBB565:
 2464              	.LBI565:
 2465              		.loc 6 491 27 view .LVU804
 2466              	.LBB566:
 2467              		.loc 6 493 3 view .LVU805
 2468 0036 3023     		movs	r3, #48
 2469              		.syntax unified
 2470              	@ 493 "../../../os/common/ext/ARM/CMSIS/Core/Include/cmsis_gcc.h" 1
 2471 0038 83F31188 		MSR basepri, r3
 2472              	@ 0 "" 2
 2473              	.LVL134:
 2474              		.loc 6 493 3 is_stmt 0 view .LVU806
 2475              		.thumb
 2476              		.syntax unified
 2477              	.LBE566:
 2478              	.LBE565:
 2479              	.LBE564:
 2480              	.LBE563:
 2481              		.loc 4 454 35 is_stmt 1 view .LVU807
 2482              		.loc 4 455 30 view .LVU808
 2483              	.LBE562:
 2484              	.LBE561:
 2485              		.loc 1 407 5 view .LVU809
 2486              	.LBB567:
 2487              	.LBI567:
 2488              		.loc 3 837 20 view .LVU810
 2489              	.LBB568:
 2490              		.loc 3 839 3 view .LVU811
 2491 003c 6FF01201 		mvn	r1, #18
 2492 0040 0848     		ldr	r0, .L178+8
 2493 0042 FFF7FEFF 		bl	chThdResumeI
 2494              	.LVL135:
 2495              		.loc 3 839 3 is_stmt 0 view .LVU812
 2496              	.LBE568:
 2497              	.LBE567:
 2498              		.loc 1 407 5 is_stmt 1 view .LVU813
 2499              	.LBB569:
 2500              	.LBI569:
 2501              		.loc 3 606 20 view .LVU814
 2502              		.loc 3 608 3 view .LVU815
 2503              	.LBB570:
 2504              	.LBI570:
 2505              		.loc 4 473 20 view .LVU816
 2506              		.loc 4 475 32 view .LVU817
ARM GAS  C:\Users\DEVELO~1\AppData\Local\Temp\cc5EUJSb.s 			page 45


 2507              		.loc 4 476 34 view .LVU818
 2508              		.loc 4 477 3 view .LVU819
 2509              	.LBB571:
 2510              	.LBI571:
 2511              		.loc 5 873 27 view .LVU820
 2512              		.loc 5 875 3 view .LVU821
 2513              	.LBB572:
 2514              	.LBI572:
 2515              		.loc 5 847 27 view .LVU822
 2516              		.loc 5 850 3 view .LVU823
 2517              	.LBB573:
 2518              	.LBI573:
 2519              		.loc 6 491 27 view .LVU824
 2520              	.LBB574:
 2521              		.loc 6 493 3 view .LVU825
 2522 0046 0023     		movs	r3, #0
 2523              		.syntax unified
 2524              	@ 493 "../../../os/common/ext/ARM/CMSIS/Core/Include/cmsis_gcc.h" 1
 2525 0048 83F31188 		MSR basepri, r3
 2526              	@ 0 "" 2
 2527              	.LVL136:
 2528              		.loc 6 493 3 is_stmt 0 view .LVU826
 2529              		.thumb
 2530              		.syntax unified
 2531              	.LBE574:
 2532              	.LBE573:
 2533              	.LBE572:
 2534              	.LBE571:
 2535              	.LBE570:
 2536              	.LBE569:
 2537              		.loc 1 407 5 is_stmt 1 view .LVU827
 2538              		.loc 1 407 51 view .LVU828
 2539              		.loc 1 407 51 is_stmt 0 view .LVU829
 2540              	.LBE560:
 2541              	.LBE559:
 2542              		.loc 1 407 5 is_stmt 1 view .LVU830
 2543              		.loc 1 407 51 view .LVU831
 2544              		.loc 1 407 51 is_stmt 0 view .LVU832
 2545              	.LBE576:
 2546              	.LBE578:
 2547              		.loc 1 579 3 is_stmt 1 view .LVU833
 2548              		.loc 1 579 3 view .LVU834
 2549 004c 0448     		ldr	r0, .L178+4
 2550 004e FFF7FEFF 		bl	__trace_isr_leave
 2551              	.LVL137:
 2552              		.loc 1 579 3 view .LVU835
 2553              		.loc 1 579 3 view .LVU836
 2554              		.loc 1 579 3 view .LVU837
 2555              		.loc 1 580 1 is_stmt 0 view .LVU838
 2556 0052 BDE81040 		pop	{r4, lr}
 2557              		.cfi_restore 14
 2558              		.cfi_restore 4
 2559              		.cfi_def_cfa_offset 0
 2560              		.loc 1 579 3 view .LVU839
 2561 0056 FFF7FEBF 		b	__port_irq_epilogue
 2562              	.LVL138:
 2563              	.L179:
ARM GAS  C:\Users\DEVELO~1\AppData\Local\Temp\cc5EUJSb.s 			page 46


 2564 005a 00BF     		.align	2
 2565              	.L178:
 2566 005c 00000000 		.word	.LANCHOR3
 2567 0060 00000000 		.word	.LANCHOR8
 2568 0064 08000000 		.word	.LANCHOR3+8
 2569              		.cfi_endproc
 2570              	.LFE447:
 2571              		.size	Vector194, .-Vector194
 2572              		.section	.text.Vector198,"ax",%progbits
 2573              		.align	1
 2574              		.p2align 4,,15
 2575              		.global	Vector198
 2576              		.syntax unified
 2577              		.thumb
 2578              		.thumb_func
 2579              		.type	Vector198, %function
 2580              	Vector198:
 2581              	.LFB448:
 2582              		.loc 1 594 38 is_stmt 1 view -0
 2583              		.cfi_startproc
 2584              		@ args = 0, pretend = 0, frame = 0
 2585              		@ frame_needed = 0, uses_anonymous_args = 0
 2586              		.loc 1 596 3 view .LVU841
 2587              		.loc 1 596 3 view .LVU842
 2588              		.loc 1 596 3 view .LVU843
 2589              		.loc 1 596 3 view .LVU844
 2590              		.loc 1 596 3 view .LVU845
 2591              		.loc 1 594 38 is_stmt 0 view .LVU846
 2592 0000 10B5     		push	{r4, lr}
 2593              		.cfi_def_cfa_offset 8
 2594              		.cfi_offset 4, -8
 2595              		.cfi_offset 14, -4
 2596              	.LBB598:
 2597              	.LBB599:
 2598              		.loc 1 398 12 view .LVU847
 2599 0002 164C     		ldr	r4, .L191
 2600              	.LBE599:
 2601              	.LBE598:
 2602              		.loc 1 596 3 view .LVU848
 2603 0004 1648     		ldr	r0, .L191+4
 2604 0006 FFF7FEFF 		bl	__trace_isr_enter
 2605              	.LVL139:
 2606              		.loc 1 596 22 is_stmt 1 view .LVU849
 2607              		.loc 1 598 3 view .LVU850
 2608              	.LBB618:
 2609              	.LBI598:
 2610              		.loc 1 395 13 view .LVU851
 2611              	.LBB616:
 2612              		.loc 1 396 3 view .LVU852
 2613              		.loc 1 398 3 view .LVU853
 2614              		.loc 1 398 12 is_stmt 0 view .LVU854
 2615 000a E269     		ldr	r2, [r4, #28]
 2616              		.loc 1 398 17 view .LVU855
 2617 000c 5369     		ldr	r3, [r2, #20]
 2618              		.loc 1 398 33 view .LVU856
 2619 000e 1169     		ldr	r1, [r2, #16]
 2620              		.loc 1 398 6 view .LVU857
ARM GAS  C:\Users\DEVELO~1\AppData\Local\Temp\cc5EUJSb.s 			page 47


 2621 0010 0B40     		ands	r3, r3, r1
 2622              	.LVL140:
 2623              		.loc 1 399 3 is_stmt 1 view .LVU858
 2624              		.loc 1 399 19 is_stmt 0 view .LVU859
 2625 0012 9361     		str	r3, [r2, #24]
 2626              		.loc 1 401 3 is_stmt 1 view .LVU860
 2627              		.loc 1 401 6 is_stmt 0 view .LVU861
 2628 0014 5B06     		lsls	r3, r3, #25
 2629              	.LVL141:
 2630              		.loc 1 401 6 view .LVU862
 2631 0016 06D4     		bmi	.L190
 2632              		.loc 1 407 5 is_stmt 1 view .LVU863
 2633              		.loc 1 407 51 view .LVU864
 2634              	.LVL142:
 2635              		.loc 1 407 51 is_stmt 0 view .LVU865
 2636              	.LBE616:
 2637              	.LBE618:
 2638              		.loc 1 600 3 is_stmt 1 view .LVU866
 2639              		.loc 1 600 3 view .LVU867
 2640 0018 1148     		ldr	r0, .L191+4
 2641 001a FFF7FEFF 		bl	__trace_isr_leave
 2642              	.LVL143:
 2643              		.loc 1 600 3 view .LVU868
 2644              		.loc 1 600 3 view .LVU869
 2645              		.loc 1 600 3 view .LVU870
 2646              		.loc 1 601 1 is_stmt 0 view .LVU871
 2647 001e BDE81040 		pop	{r4, lr}
 2648              		.cfi_remember_state
 2649              		.cfi_restore 14
 2650              		.cfi_restore 4
 2651              		.cfi_def_cfa_offset 0
 2652              		.loc 1 600 3 view .LVU872
 2653 0022 FFF7FEBF 		b	__port_irq_epilogue
 2654              	.LVL144:
 2655              	.L190:
 2656              		.cfi_restore_state
 2657              	.LBB619:
 2658              	.LBB617:
 2659              	.LBB600:
 2660              	.LBI600:
 2661              		.loc 1 395 13 is_stmt 1 view .LVU873
 2662              	.LBB601:
 2663              		.loc 1 404 5 view .LVU874
 2664 0026 2046     		mov	r0, r4
 2665 0028 FFF7FEFF 		bl	spi_lld_stop_abort
 2666              	.LVL145:
 2667              		.loc 1 407 5 view .LVU875
 2668 002c 6368     		ldr	r3, [r4, #4]
 2669 002e 9B68     		ldr	r3, [r3, #8]
 2670 0030 0BB1     		cbz	r3, .L182
 2671              		.loc 1 407 5 view .LVU876
 2672 0032 2046     		mov	r0, r4
 2673 0034 9847     		blx	r3
 2674              	.LVL146:
 2675              	.L182:
 2676              		.loc 1 407 5 view .LVU877
 2677              	.LBB602:
ARM GAS  C:\Users\DEVELO~1\AppData\Local\Temp\cc5EUJSb.s 			page 48


 2678              	.LBI602:
 2679              		.loc 3 595 20 view .LVU878
 2680              		.loc 3 597 3 view .LVU879
 2681              	.LBB603:
 2682              	.LBI603:
 2683              		.loc 4 451 20 view .LVU880
 2684              		.loc 4 453 3 view .LVU881
 2685              	.LBB604:
 2686              	.LBI604:
 2687              		.loc 5 862 27 view .LVU882
 2688              		.loc 5 864 3 view .LVU883
 2689              	.LBB605:
 2690              	.LBI605:
 2691              		.loc 5 823 27 view .LVU884
 2692              		.loc 5 831 3 view .LVU885
 2693              	.LBB606:
 2694              	.LBI606:
 2695              		.loc 6 491 27 view .LVU886
 2696              	.LBB607:
 2697              		.loc 6 493 3 view .LVU887
 2698 0036 3023     		movs	r3, #48
 2699              		.syntax unified
 2700              	@ 493 "../../../os/common/ext/ARM/CMSIS/Core/Include/cmsis_gcc.h" 1
 2701 0038 83F31188 		MSR basepri, r3
 2702              	@ 0 "" 2
 2703              	.LVL147:
 2704              		.loc 6 493 3 is_stmt 0 view .LVU888
 2705              		.thumb
 2706              		.syntax unified
 2707              	.LBE607:
 2708              	.LBE606:
 2709              	.LBE605:
 2710              	.LBE604:
 2711              		.loc 4 454 35 is_stmt 1 view .LVU889
 2712              		.loc 4 455 30 view .LVU890
 2713              	.LBE603:
 2714              	.LBE602:
 2715              		.loc 1 407 5 view .LVU891
 2716              	.LBB608:
 2717              	.LBI608:
 2718              		.loc 3 837 20 view .LVU892
 2719              	.LBB609:
 2720              		.loc 3 839 3 view .LVU893
 2721 003c 6FF01201 		mvn	r1, #18
 2722 0040 0848     		ldr	r0, .L191+8
 2723 0042 FFF7FEFF 		bl	chThdResumeI
 2724              	.LVL148:
 2725              		.loc 3 839 3 is_stmt 0 view .LVU894
 2726              	.LBE609:
 2727              	.LBE608:
 2728              		.loc 1 407 5 is_stmt 1 view .LVU895
 2729              	.LBB610:
 2730              	.LBI610:
 2731              		.loc 3 606 20 view .LVU896
 2732              		.loc 3 608 3 view .LVU897
 2733              	.LBB611:
 2734              	.LBI611:
ARM GAS  C:\Users\DEVELO~1\AppData\Local\Temp\cc5EUJSb.s 			page 49


 2735              		.loc 4 473 20 view .LVU898
 2736              		.loc 4 475 32 view .LVU899
 2737              		.loc 4 476 34 view .LVU900
 2738              		.loc 4 477 3 view .LVU901
 2739              	.LBB612:
 2740              	.LBI612:
 2741              		.loc 5 873 27 view .LVU902
 2742              		.loc 5 875 3 view .LVU903
 2743              	.LBB613:
 2744              	.LBI613:
 2745              		.loc 5 847 27 view .LVU904
 2746              		.loc 5 850 3 view .LVU905
 2747              	.LBB614:
 2748              	.LBI614:
 2749              		.loc 6 491 27 view .LVU906
 2750              	.LBB615:
 2751              		.loc 6 493 3 view .LVU907
 2752 0046 0023     		movs	r3, #0
 2753              		.syntax unified
 2754              	@ 493 "../../../os/common/ext/ARM/CMSIS/Core/Include/cmsis_gcc.h" 1
 2755 0048 83F31188 		MSR basepri, r3
 2756              	@ 0 "" 2
 2757              	.LVL149:
 2758              		.loc 6 493 3 is_stmt 0 view .LVU908
 2759              		.thumb
 2760              		.syntax unified
 2761              	.LBE615:
 2762              	.LBE614:
 2763              	.LBE613:
 2764              	.LBE612:
 2765              	.LBE611:
 2766              	.LBE610:
 2767              		.loc 1 407 5 is_stmt 1 view .LVU909
 2768              		.loc 1 407 51 view .LVU910
 2769              		.loc 1 407 51 is_stmt 0 view .LVU911
 2770              	.LBE601:
 2771              	.LBE600:
 2772              		.loc 1 407 5 is_stmt 1 view .LVU912
 2773              		.loc 1 407 51 view .LVU913
 2774              		.loc 1 407 51 is_stmt 0 view .LVU914
 2775              	.LBE617:
 2776              	.LBE619:
 2777              		.loc 1 600 3 is_stmt 1 view .LVU915
 2778              		.loc 1 600 3 view .LVU916
 2779 004c 0448     		ldr	r0, .L191+4
 2780 004e FFF7FEFF 		bl	__trace_isr_leave
 2781              	.LVL150:
 2782              		.loc 1 600 3 view .LVU917
 2783              		.loc 1 600 3 view .LVU918
 2784              		.loc 1 600 3 view .LVU919
 2785              		.loc 1 601 1 is_stmt 0 view .LVU920
 2786 0052 BDE81040 		pop	{r4, lr}
 2787              		.cfi_restore 14
 2788              		.cfi_restore 4
 2789              		.cfi_def_cfa_offset 0
 2790              		.loc 1 600 3 view .LVU921
 2791 0056 FFF7FEBF 		b	__port_irq_epilogue
ARM GAS  C:\Users\DEVELO~1\AppData\Local\Temp\cc5EUJSb.s 			page 50


 2792              	.LVL151:
 2793              	.L192:
 2794 005a 00BF     		.align	2
 2795              	.L191:
 2796 005c 00000000 		.word	.LANCHOR4
 2797 0060 00000000 		.word	.LANCHOR9
 2798 0064 08000000 		.word	.LANCHOR4+8
 2799              		.cfi_endproc
 2800              	.LFE448:
 2801              		.size	Vector198, .-Vector198
 2802              		.section	.text.spi_lld_init,"ax",%progbits
 2803              		.align	1
 2804              		.p2align 4,,15
 2805              		.global	spi_lld_init
 2806              		.syntax unified
 2807              		.thumb
 2808              		.thumb_func
 2809              		.type	spi_lld_init, %function
 2810              	spi_lld_init:
 2811              	.LFB449:
 2812              		.loc 1 614 25 is_stmt 1 view -0
 2813              		.cfi_startproc
 2814              		@ args = 0, pretend = 0, frame = 0
 2815              		@ frame_needed = 0, uses_anonymous_args = 0
 2816              		.loc 1 617 3 view .LVU923
 2817              		.loc 1 614 25 is_stmt 0 view .LVU924
 2818 0000 2DE9F041 		push	{r4, r5, r6, r7, r8, lr}
 2819              		.cfi_def_cfa_offset 24
 2820              		.cfi_offset 4, -24
 2821              		.cfi_offset 5, -20
 2822              		.cfi_offset 6, -16
 2823              		.cfi_offset 7, -12
 2824              		.cfi_offset 8, -8
 2825              		.cfi_offset 14, -4
 2826              		.loc 1 617 3 view .LVU925
 2827 0004 2D4D     		ldr	r5, .L195
 2828              		.loc 1 620 19 view .LVU926
 2829 0006 0024     		movs	r4, #0
 2830              		.loc 1 624 19 view .LVU927
 2831 0008 DFF8B480 		ldr	r8, .L195+4
 2832              		.loc 1 617 3 view .LVU928
 2833 000c 2846     		mov	r0, r5
 2834              		.loc 1 629 19 view .LVU929
 2835 000e 2D4F     		ldr	r7, .L195+8
 2836              		.loc 1 617 3 view .LVU930
 2837 0010 FFF7FEFF 		bl	spiObjectInit
 2838              	.LVL152:
 2839              		.loc 1 618 3 is_stmt 1 view .LVU931
 2840              		.loc 1 618 19 is_stmt 0 view .LVU932
 2841 0014 2C4B     		ldr	r3, .L195+12
 2842              		.loc 1 620 19 view .LVU933
 2843 0016 85F82040 		strb	r4, [r5, #32]
 2844              		.loc 1 634 3 view .LVU934
 2845 001a 0A21     		movs	r1, #10
 2846              		.loc 1 618 19 view .LVU935
 2847 001c EB61     		str	r3, [r5, #28]
 2848              		.loc 1 620 3 is_stmt 1 view .LVU936
ARM GAS  C:\Users\DEVELO~1\AppData\Local\Temp\cc5EUJSb.s 			page 51


 2849              		.loc 1 622 3 view .LVU937
 2850              		.loc 1 623 3 view .LVU938
 2851              		.loc 1 634 3 is_stmt 0 view .LVU939
 2852 001e 2320     		movs	r0, #35
 2853              		.loc 1 622 19 view .LVU940
 2854 0020 6C62     		str	r4, [r5, #36]
 2855              		.loc 1 629 19 view .LVU941
 2856 0022 2F63     		str	r7, [r5, #48]
 2857              		.loc 1 705 3 view .LVU942
 2858 0024 294E     		ldr	r6, .L195+16
 2859              		.loc 1 624 19 view .LVU943
 2860 0026 C5E90A48 		strd	r4, r8, [r5, #40]
 2861              		.loc 1 629 3 is_stmt 1 view .LVU944
 2862              		.loc 1 634 3 view .LVU945
 2863              		.loc 1 639 3 is_stmt 0 view .LVU946
 2864 002a 294D     		ldr	r5, .L195+20
 2865              		.loc 1 634 3 view .LVU947
 2866 002c FFF7FEFF 		bl	nvicEnableVector
 2867              	.LVL153:
 2868              		.loc 1 639 3 is_stmt 1 view .LVU948
 2869 0030 2846     		mov	r0, r5
 2870 0032 FFF7FEFF 		bl	spiObjectInit
 2871              	.LVL154:
 2872              		.loc 1 640 3 view .LVU949
 2873              		.loc 1 640 19 is_stmt 0 view .LVU950
 2874 0036 274B     		ldr	r3, .L195+24
 2875              		.loc 1 642 19 view .LVU951
 2876 0038 85F82040 		strb	r4, [r5, #32]
 2877              		.loc 1 656 3 view .LVU952
 2878 003c 0A21     		movs	r1, #10
 2879              		.loc 1 640 19 view .LVU953
 2880 003e EB61     		str	r3, [r5, #28]
 2881              		.loc 1 642 3 is_stmt 1 view .LVU954
 2882              		.loc 1 644 3 view .LVU955
 2883              		.loc 1 645 3 view .LVU956
 2884              		.loc 1 656 3 is_stmt 0 view .LVU957
 2885 0040 2420     		movs	r0, #36
 2886              		.loc 1 644 19 view .LVU958
 2887 0042 6C62     		str	r4, [r5, #36]
 2888              		.loc 1 651 19 view .LVU959
 2889 0044 2F63     		str	r7, [r5, #48]
 2890              		.loc 1 646 19 view .LVU960
 2891 0046 C5E90A48 		strd	r4, r8, [r5, #40]
 2892              		.loc 1 651 3 is_stmt 1 view .LVU961
 2893              		.loc 1 656 3 view .LVU962
 2894              		.loc 1 661 3 is_stmt 0 view .LVU963
 2895 004a 234D     		ldr	r5, .L195+28
 2896              		.loc 1 656 3 view .LVU964
 2897 004c FFF7FEFF 		bl	nvicEnableVector
 2898              	.LVL155:
 2899              		.loc 1 661 3 is_stmt 1 view .LVU965
 2900 0050 2846     		mov	r0, r5
 2901 0052 FFF7FEFF 		bl	spiObjectInit
 2902              	.LVL156:
 2903              		.loc 1 662 3 view .LVU966
 2904              		.loc 1 662 19 is_stmt 0 view .LVU967
 2905 0056 214B     		ldr	r3, .L195+32
ARM GAS  C:\Users\DEVELO~1\AppData\Local\Temp\cc5EUJSb.s 			page 52


 2906              		.loc 1 678 3 view .LVU968
 2907 0058 0A21     		movs	r1, #10
 2908 005a 3320     		movs	r0, #51
 2909              		.loc 1 662 19 view .LVU969
 2910 005c EB61     		str	r3, [r5, #28]
 2911              		.loc 1 664 3 is_stmt 1 view .LVU970
 2912              		.loc 1 666 3 view .LVU971
 2913              		.loc 1 667 3 view .LVU972
 2914              		.loc 1 664 19 is_stmt 0 view .LVU973
 2915 005e 85F82040 		strb	r4, [r5, #32]
 2916              		.loc 1 666 19 view .LVU974
 2917 0062 6C62     		str	r4, [r5, #36]
 2918              		.loc 1 673 19 view .LVU975
 2919 0064 2F63     		str	r7, [r5, #48]
 2920              		.loc 1 668 19 view .LVU976
 2921 0066 C5E90A48 		strd	r4, r8, [r5, #40]
 2922              		.loc 1 673 3 is_stmt 1 view .LVU977
 2923              		.loc 1 678 3 view .LVU978
 2924 006a FFF7FEFF 		bl	nvicEnableVector
 2925              	.LVL157:
 2926              		.loc 1 705 3 view .LVU979
 2927 006e 3046     		mov	r0, r6
 2928 0070 FFF7FEFF 		bl	spiObjectInit
 2929              	.LVL158:
 2930              		.loc 1 706 3 view .LVU980
 2931              		.loc 1 727 3 is_stmt 0 view .LVU981
 2932 0074 1A4D     		ldr	r5, .L195+36
 2933              		.loc 1 706 19 view .LVU982
 2934 0076 1B4B     		ldr	r3, .L195+40
 2935              		.loc 1 722 3 view .LVU983
 2936 0078 0A21     		movs	r1, #10
 2937 007a 5520     		movs	r0, #85
 2938              		.loc 1 708 19 view .LVU984
 2939 007c 86F82040 		strb	r4, [r6, #32]
 2940              		.loc 1 706 19 view .LVU985
 2941 0080 F361     		str	r3, [r6, #28]
 2942              		.loc 1 708 3 is_stmt 1 view .LVU986
 2943              		.loc 1 710 3 view .LVU987
 2944              		.loc 1 711 3 view .LVU988
 2945              		.loc 1 710 19 is_stmt 0 view .LVU989
 2946 0082 7462     		str	r4, [r6, #36]
 2947              		.loc 1 717 19 view .LVU990
 2948 0084 3763     		str	r7, [r6, #48]
 2949              		.loc 1 712 19 view .LVU991
 2950 0086 C6E90A48 		strd	r4, r8, [r6, #40]
 2951              		.loc 1 717 3 is_stmt 1 view .LVU992
 2952              		.loc 1 722 3 view .LVU993
 2953 008a FFF7FEFF 		bl	nvicEnableVector
 2954              	.LVL159:
 2955              		.loc 1 727 3 view .LVU994
 2956 008e 2846     		mov	r0, r5
 2957 0090 FFF7FEFF 		bl	spiObjectInit
 2958              	.LVL160:
 2959              		.loc 1 728 3 view .LVU995
 2960              		.loc 1 730 19 is_stmt 0 view .LVU996
 2961 0094 0123     		movs	r3, #1
 2962              		.loc 1 728 19 view .LVU997
ARM GAS  C:\Users\DEVELO~1\AppData\Local\Temp\cc5EUJSb.s 			page 53


 2963 0096 1449     		ldr	r1, .L195+44
 2964              		.loc 1 734 19 view .LVU998
 2965 0098 41F20A02 		movw	r2, #4106
 2966              		.loc 1 730 19 view .LVU999
 2967 009c 85F82030 		strb	r3, [r5, #32]
 2968              		.loc 1 738 19 view .LVU1000
 2969 00a0 41F21803 		movw	r3, #4120
 2970              		.loc 1 728 19 view .LVU1001
 2971 00a4 E961     		str	r1, [r5, #28]
 2972              		.loc 1 730 3 is_stmt 1 view .LVU1002
 2973              		.loc 1 732 3 view .LVU1003
 2974              		.loc 1 733 3 view .LVU1004
 2975              		.loc 1 742 3 is_stmt 0 view .LVU1005
 2976 00a6 5620     		movs	r0, #86
 2977              		.loc 1 732 19 view .LVU1006
 2978 00a8 6C62     		str	r4, [r5, #36]
 2979              		.loc 1 742 3 view .LVU1007
 2980 00aa 0A21     		movs	r1, #10
 2981              		.loc 1 738 19 view .LVU1008
 2982 00ac 2B63     		str	r3, [r5, #48]
 2983              		.loc 1 734 19 view .LVU1009
 2984 00ae C5E90A42 		strd	r4, r2, [r5, #40]
 2985              		.loc 1 738 3 is_stmt 1 view .LVU1010
 2986              		.loc 1 742 3 view .LVU1011
 2987              		.loc 1 745 1 is_stmt 0 view .LVU1012
 2988 00b2 BDE8F041 		pop	{r4, r5, r6, r7, r8, lr}
 2989              		.cfi_restore 14
 2990              		.cfi_restore 8
 2991              		.cfi_restore 7
 2992              		.cfi_restore 6
 2993              		.cfi_restore 5
 2994              		.cfi_restore 4
 2995              		.cfi_def_cfa_offset 0
 2996              		.loc 1 742 3 view .LVU1013
 2997 00b6 FFF7FEBF 		b	nvicEnableVector
 2998              	.LVL161:
 2999              	.L196:
 3000 00ba 00BF     		.align	2
 3001              	.L195:
 3002 00bc 00000000 		.word	.LANCHOR0
 3003 00c0 16000100 		.word	65558
 3004 00c4 46000100 		.word	65606
 3005 00c8 00300140 		.word	1073819648
 3006 00cc 00000000 		.word	.LANCHOR3
 3007 00d0 00000000 		.word	.LANCHOR1
 3008 00d4 00380040 		.word	1073756160
 3009 00d8 00000000 		.word	.LANCHOR2
 3010 00dc 003C0040 		.word	1073757184
 3011 00e0 00000000 		.word	.LANCHOR4
 3012 00e4 00500140 		.word	1073827840
 3013 00e8 00140058 		.word	1476400128
 3014              		.cfi_endproc
 3015              	.LFE449:
 3016              		.size	spi_lld_init, .-spi_lld_init
 3017              		.section	.text.spi_lld_start,"ax",%progbits
 3018              		.align	1
 3019              		.p2align 4,,15
ARM GAS  C:\Users\DEVELO~1\AppData\Local\Temp\cc5EUJSb.s 			page 54


 3020              		.global	spi_lld_start
 3021              		.syntax unified
 3022              		.thumb
 3023              		.thumb_func
 3024              		.type	spi_lld_start, %function
 3025              	spi_lld_start:
 3026              	.LVL162:
 3027              	.LFB450:
 3028              		.loc 1 755 38 is_stmt 1 view -0
 3029              		.cfi_startproc
 3030              		@ args = 0, pretend = 0, frame = 0
 3031              		@ frame_needed = 0, uses_anonymous_args = 0
 3032              		.loc 1 756 3 view .LVU1015
 3033              		.loc 1 757 3 view .LVU1016
 3034              		.loc 1 760 3 view .LVU1017
 3035              		.loc 1 755 38 is_stmt 0 view .LVU1018
 3036 0000 10B5     		push	{r4, lr}
 3037              		.cfi_def_cfa_offset 8
 3038              		.cfi_offset 4, -8
 3039              		.cfi_offset 14, -4
 3040              		.loc 1 763 6 view .LVU1019
 3041 0002 0378     		ldrb	r3, [r0]	@ zero_extendqisi2
 3042              		.loc 1 760 18 view .LVU1020
 3043 0004 4FF0FF32 		mov	r2, #-1
 3044              		.loc 1 755 38 view .LVU1021
 3045 0008 0446     		mov	r4, r0
 3046              		.loc 1 763 6 view .LVU1022
 3047 000a 012B     		cmp	r3, #1
 3048              		.loc 1 760 18 view .LVU1023
 3049 000c 8263     		str	r2, [r0, #56]
 3050              		.loc 1 763 3 is_stmt 1 view .LVU1024
 3051              		.loc 1 763 6 is_stmt 0 view .LVU1025
 3052 000e 20D0     		beq	.L244
 3053              		.loc 1 892 61 is_stmt 1 discriminator 1 view .LVU1026
 3054              		.loc 1 898 3 discriminator 1 view .LVU1027
 3055              		.loc 1 898 16 is_stmt 0 discriminator 1 view .LVU1028
 3056 0010 4068     		ldr	r0, [r0, #4]
 3057              	.LVL163:
 3058              		.loc 1 900 6 discriminator 1 view .LVU1029
 3059 0012 94F82020 		ldrb	r2, [r4, #32]	@ zero_extendqisi2
 3060              		.loc 1 898 31 discriminator 1 view .LVU1030
 3061 0016 4369     		ldr	r3, [r0, #20]
 3062 0018 03F01F03 		and	r3, r3, #31
 3063              		.loc 1 898 9 discriminator 1 view .LVU1031
 3064 001c 0133     		adds	r3, r3, #1
 3065              	.LVL164:
 3066              		.loc 1 900 3 is_stmt 1 discriminator 1 view .LVU1032
 3067              		.loc 1 900 6 is_stmt 0 discriminator 1 view .LVU1033
 3068 001e 002A     		cmp	r2, #0
 3069 0020 77D1     		bne	.L213
 3070              	.L214:
 3071              		.loc 1 940 5 is_stmt 1 view .LVU1034
 3072              		.loc 1 940 8 is_stmt 0 view .LVU1035
 3073 0022 082B     		cmp	r3, #8
 3074              		.loc 1 943 49 view .LVU1036
 3075 0024 E26A     		ldr	r2, [r4, #44]
 3076              		.loc 1 940 8 view .LVU1037
ARM GAS  C:\Users\DEVELO~1\AppData\Local\Temp\cc5EUJSb.s 			page 55


 3077 0026 00F29980 		bhi	.L220
 3078              		.loc 1 942 7 is_stmt 1 view .LVU1038
 3079              		.loc 1 945 49 is_stmt 0 view .LVU1039
 3080 002a 236B     		ldr	r3, [r4, #48]
 3081              	.LVL165:
 3082              		.loc 1 943 49 view .LVU1040
 3083 002c 22F4F042 		bic	r2, r2, #30720
 3084              		.loc 1 944 7 is_stmt 1 view .LVU1041
 3085              		.loc 1 945 49 is_stmt 0 view .LVU1042
 3086 0030 23F4F043 		bic	r3, r3, #30720
 3087              	.L221:
 3088              		.loc 1 961 5 is_stmt 1 view .LVU1043
 3089              		.loc 1 961 8 is_stmt 0 view .LVU1044
 3090 0034 0178     		ldrb	r1, [r0]	@ zero_extendqisi2
 3091 0036 0029     		cmp	r1, #0
 3092 0038 00F08B80 		beq	.L223
 3093              		.loc 1 962 7 is_stmt 1 view .LVU1045
 3094              		.loc 1 962 23 is_stmt 0 view .LVU1046
 3095 003c 42F48472 		orr	r2, r2, #264
 3096              		.loc 1 963 7 is_stmt 1 view .LVU1047
 3097              		.loc 1 963 23 is_stmt 0 view .LVU1048
 3098 0040 43F48473 		orr	r3, r3, #264
 3099              	.L219:
 3100              		.loc 1 973 3 view .LVU1049
 3101 0044 E169     		ldr	r1, [r4, #28]
 3102              		.loc 1 931 23 view .LVU1050
 3103 0046 C4E90B23 		strd	r2, r3, [r4, #44]
 3104              		.loc 1 973 3 is_stmt 1 view .LVU1051
 3105 004a FFF7FEFF 		bl	spi_lld_configure.isra.0
 3106              	.LVL166:
 3107              		.loc 1 975 3 view .LVU1052
 3108              		.loc 1 975 10 is_stmt 0 view .LVU1053
 3109 004e 0020     		movs	r0, #0
 3110              		.loc 1 976 1 view .LVU1054
 3111 0050 10BD     		pop	{r4, pc}
 3112              	.LVL167:
 3113              	.L244:
 3114              		.loc 1 766 5 is_stmt 1 view .LVU1055
 3115              		.loc 1 770 10 view .LVU1056
 3116              		.loc 1 770 13 is_stmt 0 view .LVU1057
 3117 0052 C94B     		ldr	r3, .L250
 3118 0054 9842     		cmp	r0, r3
 3119 0056 00F0A280 		beq	.L245
 3120              		.loc 1 787 10 is_stmt 1 view .LVU1058
 3121              		.loc 1 787 13 is_stmt 0 view .LVU1059
 3122 005a C84B     		ldr	r3, .L250+4
 3123 005c 9842     		cmp	r0, r3
 3124 005e 00F01281 		beq	.L246
 3125              		.loc 1 804 10 is_stmt 1 view .LVU1060
 3126              		.loc 1 804 13 is_stmt 0 view .LVU1061
 3127 0062 C74B     		ldr	r3, .L250+8
 3128 0064 9842     		cmp	r0, r3
 3129 0066 00F0D480 		beq	.L247
 3130              		.loc 1 838 10 is_stmt 1 view .LVU1062
 3131              		.loc 1 838 13 is_stmt 0 view .LVU1063
 3132 006a C64B     		ldr	r3, .L250+12
 3133 006c 9842     		cmp	r0, r3
ARM GAS  C:\Users\DEVELO~1\AppData\Local\Temp\cc5EUJSb.s 			page 56


 3134 006e 00F04281 		beq	.L248
 3135              		.loc 1 855 10 is_stmt 1 view .LVU1064
 3136              		.loc 1 855 13 is_stmt 0 view .LVU1065
 3137 0072 C54B     		ldr	r3, .L250+16
 3138 0074 9842     		cmp	r0, r3
 3139 0076 40F07581 		bne	.L224
 3140              		.loc 1 856 7 is_stmt 1 view .LVU1066
 3141              	.LBB660:
 3142              	.LBI660:
 3143              		.loc 1 453 14 view .LVU1067
 3144              	.LVL168:
 3145              	.LBB661:
 3146              		.loc 1 456 3 view .LVU1068
 3147              		.loc 1 456 19 is_stmt 0 view .LVU1069
 3148 007a 0346     		mov	r3, r0
 3149 007c C34A     		ldr	r2, .L250+20
 3150 007e 0A21     		movs	r1, #10
 3151 0080 0820     		movs	r0, #8
 3152              	.LVL169:
 3153              		.loc 1 456 19 view .LVU1070
 3154 0082 FFF7FEFF 		bl	bdmaStreamAllocI
 3155              	.LVL170:
 3156              		.loc 1 456 17 view .LVU1071
 3157 0086 6062     		str	r0, [r4, #36]
 3158              		.loc 1 459 3 is_stmt 1 view .LVU1072
 3159              		.loc 1 459 6 is_stmt 0 view .LVU1073
 3160 0088 0028     		cmp	r0, #0
 3161 008a 00F07181 		beq	.L241
 3162              		.loc 1 463 3 is_stmt 1 view .LVU1074
 3163              		.loc 1 463 19 is_stmt 0 view .LVU1075
 3164 008e 2346     		mov	r3, r4
 3165 0090 BF4A     		ldr	r2, .L250+24
 3166 0092 0A21     		movs	r1, #10
 3167 0094 0820     		movs	r0, #8
 3168 0096 FFF7FEFF 		bl	bdmaStreamAllocI
 3169              	.LVL171:
 3170              		.loc 1 463 17 view .LVU1076
 3171 009a A062     		str	r0, [r4, #40]
 3172              		.loc 1 466 3 is_stmt 1 view .LVU1077
 3173              		.loc 1 466 6 is_stmt 0 view .LVU1078
 3174 009c 0028     		cmp	r0, #0
 3175 009e 00F06481 		beq	.L249
 3176              	.LVL172:
 3177              		.loc 1 466 6 view .LVU1079
 3178              	.LBE661:
 3179              	.LBE660:
 3180              		.loc 1 860 7 is_stmt 1 view .LVU1080
 3181              		.loc 1 863 7 view .LVU1081
 3182 00a2 0B21     		movs	r1, #11
 3183 00a4 606A     		ldr	r0, [r4, #36]
 3184 00a6 FFF7FEFF 		bl	bdmaSetRequestSource
 3185              	.LVL173:
 3186              		.loc 1 864 7 view .LVU1082
 3187 00aa 0C21     		movs	r1, #12
 3188 00ac A06A     		ldr	r0, [r4, #40]
 3189 00ae FFF7FEFF 		bl	bdmaSetRequestSource
 3190              	.LVL174:
ARM GAS  C:\Users\DEVELO~1\AppData\Local\Temp\cc5EUJSb.s 			page 57


 3191              		.loc 1 866 7 view .LVU1083
 3192              	.LBB664:
 3193              	.LBI664:
 3194              		.loc 2 497 22 view .LVU1084
 3195              	.LBB665:
 3196              		.loc 2 501 3 view .LVU1085
 3197              		.loc 2 501 19 is_stmt 0 view .LVU1086
 3198 00b2 B84B     		ldr	r3, .L250+28
 3199 00b4 D3F8F420 		ldr	r2, [r3, #244]
 3200 00b8 42F02002 		orr	r2, r2, #32
 3201 00bc C3F8F420 		str	r2, [r3, #244]
 3202              		.loc 2 502 3 is_stmt 1 view .LVU1087
 3203              		.loc 2 503 5 view .LVU1088
 3204              		.loc 2 503 23 is_stmt 0 view .LVU1089
 3205 00c0 D3F81C21 		ldr	r2, [r3, #284]
 3206 00c4 42F02002 		orr	r2, r2, #32
 3207 00c8 C3F81C21 		str	r2, [r3, #284]
 3208              		.loc 2 508 3 is_stmt 1 view .LVU1090
 3209 00cc D3F81C21 		ldr	r2, [r3, #284]
 3210              	.LVL175:
 3211              		.loc 2 508 3 is_stmt 0 view .LVU1091
 3212              	.LBE665:
 3213              	.LBE664:
 3214              		.loc 1 867 7 is_stmt 1 view .LVU1092
 3215              	.LBB666:
 3216              	.LBI666:
 3217              		.loc 2 563 22 view .LVU1093
 3218              	.LBB667:
 3219              		.loc 2 575 3 view .LVU1094
 3220              	.LBB668:
 3221              	.LBI668:
 3222              		.loc 2 89 22 view .LVU1095
 3223              	.LBB669:
 3224              		.loc 2 92 3 view .LVU1096
 3225              		.loc 2 92 17 is_stmt 0 view .LVU1097
 3226 00d0 D3F89C20 		ldr	r2, [r3, #156]
 3227 00d4 42F02002 		orr	r2, r2, #32
 3228 00d8 C3F89C20 		str	r2, [r3, #156]
 3229              		.loc 2 93 3 is_stmt 1 view .LVU1098
 3230              		.loc 2 93 17 is_stmt 0 view .LVU1099
 3231 00dc D3F89C20 		ldr	r2, [r3, #156]
 3232 00e0 22F02002 		bic	r2, r2, #32
 3233 00e4 C3F89C20 		str	r2, [r3, #156]
 3234              		.loc 2 94 3 is_stmt 1 view .LVU1100
 3235 00e8 D3F89C30 		ldr	r3, [r3, #156]
 3236              	.LVL176:
 3237              	.L203:
 3238              		.loc 2 94 3 is_stmt 0 view .LVU1101
 3239              	.LBE669:
 3240              	.LBE668:
 3241              	.LBE667:
 3242              	.LBE666:
 3243              		.loc 1 878 5 is_stmt 1 view .LVU1102
 3244              		.loc 1 882 7 is_stmt 0 view .LVU1103
 3245 00ec E269     		ldr	r2, [r4, #28]
 3246              		.loc 1 878 8 view .LVU1104
 3247 00ee 94F82030 		ldrb	r3, [r4, #32]	@ zero_extendqisi2
ARM GAS  C:\Users\DEVELO~1\AppData\Local\Temp\cc5EUJSb.s 			page 58


 3248              		.loc 1 882 7 view .LVU1105
 3249 00f2 02F13001 		add	r1, r2, #48
 3250              		.loc 1 898 16 view .LVU1106
 3251 00f6 6068     		ldr	r0, [r4, #4]
 3252              		.loc 1 883 7 view .LVU1107
 3253 00f8 2032     		adds	r2, r2, #32
 3254              		.loc 1 878 8 view .LVU1108
 3255 00fa 002B     		cmp	r3, #0
 3256 00fc 44D0     		beq	.L212
 3257              		.loc 1 882 7 is_stmt 1 view .LVU1109
 3258 00fe 636A     		ldr	r3, [r4, #36]
 3259 0100 5B68     		ldr	r3, [r3, #4]
 3260 0102 9960     		str	r1, [r3, #8]
 3261              		.loc 1 882 63 view .LVU1110
 3262              		.loc 1 883 7 view .LVU1111
 3263              		.loc 1 898 31 is_stmt 0 view .LVU1112
 3264 0104 4369     		ldr	r3, [r0, #20]
 3265              		.loc 1 883 7 view .LVU1113
 3266 0106 A16A     		ldr	r1, [r4, #40]
 3267              		.loc 1 898 31 view .LVU1114
 3268 0108 03F01F03 		and	r3, r3, #31
 3269              		.loc 1 883 7 view .LVU1115
 3270 010c 4968     		ldr	r1, [r1, #4]
 3271              		.loc 1 898 9 view .LVU1116
 3272 010e 0133     		adds	r3, r3, #1
 3273              		.loc 1 883 7 view .LVU1117
 3274 0110 8A60     		str	r2, [r1, #8]
 3275              		.loc 1 883 63 is_stmt 1 view .LVU1118
 3276              		.loc 1 892 61 view .LVU1119
 3277              		.loc 1 898 3 view .LVU1120
 3278              	.LVL177:
 3279              		.loc 1 900 3 view .LVU1121
 3280              	.L213:
 3281              		.loc 1 904 5 view .LVU1122
 3282              		.loc 1 904 8 is_stmt 0 view .LVU1123
 3283 0112 082B     		cmp	r3, #8
 3284              		.loc 1 907 50 view .LVU1124
 3285 0114 E26A     		ldr	r2, [r4, #44]
 3286              		.loc 1 904 8 view .LVU1125
 3287 0116 10D8     		bhi	.L215
 3288              		.loc 1 906 7 is_stmt 1 view .LVU1126
 3289              		.loc 1 909 50 is_stmt 0 view .LVU1127
 3290 0118 236B     		ldr	r3, [r4, #48]
 3291              	.LVL178:
 3292              		.loc 1 907 50 view .LVU1128
 3293 011a 22F47062 		bic	r2, r2, #3840
 3294              		.loc 1 908 7 is_stmt 1 view .LVU1129
 3295              		.loc 1 909 50 is_stmt 0 view .LVU1130
 3296 011e 23F47063 		bic	r3, r3, #3840
 3297              	.L216:
 3298              		.loc 1 925 5 is_stmt 1 view .LVU1131
 3299              		.loc 1 925 8 is_stmt 0 view .LVU1132
 3300 0122 0178     		ldrb	r1, [r0]	@ zero_extendqisi2
 3301 0124 21B1     		cbz	r1, .L218
 3302              		.loc 1 926 7 is_stmt 1 view .LVU1133
 3303              		.loc 1 926 23 is_stmt 0 view .LVU1134
 3304 0126 42F02402 		orr	r2, r2, #36
ARM GAS  C:\Users\DEVELO~1\AppData\Local\Temp\cc5EUJSb.s 			page 59


 3305              		.loc 1 927 7 is_stmt 1 view .LVU1135
 3306              		.loc 1 927 23 is_stmt 0 view .LVU1136
 3307 012a 43F02403 		orr	r3, r3, #36
 3308 012e 89E7     		b	.L219
 3309              	.L218:
 3310              		.loc 1 930 7 is_stmt 1 view .LVU1137
 3311              		.loc 1 930 23 is_stmt 0 view .LVU1138
 3312 0130 22F02402 		bic	r2, r2, #36
 3313              		.loc 1 931 7 is_stmt 1 view .LVU1139
 3314              		.loc 1 931 23 is_stmt 0 view .LVU1140
 3315 0134 23F02403 		bic	r3, r3, #36
 3316 0138 84E7     		b	.L219
 3317              	.LVL179:
 3318              	.L215:
 3319              		.loc 1 911 10 is_stmt 1 view .LVU1141
 3320              		.loc 1 911 13 is_stmt 0 view .LVU1142
 3321 013a 102B     		cmp	r3, #16
 3322              		.loc 1 915 42 view .LVU1143
 3323 013c 236B     		ldr	r3, [r4, #48]
 3324              	.LVL180:
 3325              		.loc 1 913 42 view .LVU1144
 3326 013e 22F47062 		bic	r2, r2, #3840
 3327              		.loc 1 915 42 view .LVU1145
 3328 0142 23F47063 		bic	r3, r3, #3840
 3329              		.loc 1 911 13 view .LVU1146
 3330 0146 1AD8     		bhi	.L217
 3331              		.loc 1 913 7 is_stmt 1 view .LVU1147
 3332              		.loc 1 914 51 is_stmt 0 view .LVU1148
 3333 0148 42F4A062 		orr	r2, r2, #1280
 3334              		.loc 1 915 7 is_stmt 1 view .LVU1149
 3335              		.loc 1 916 51 is_stmt 0 view .LVU1150
 3336 014c 43F4A063 		orr	r3, r3, #1280
 3337 0150 E7E7     		b	.L216
 3338              	.L223:
 3339              		.loc 1 966 7 is_stmt 1 view .LVU1151
 3340              		.loc 1 966 23 is_stmt 0 view .LVU1152
 3341 0152 22F48472 		bic	r2, r2, #264
 3342              		.loc 1 967 7 is_stmt 1 view .LVU1153
 3343              		.loc 1 967 23 is_stmt 0 view .LVU1154
 3344 0156 23F48473 		bic	r3, r3, #264
 3345 015a 73E7     		b	.L219
 3346              	.LVL181:
 3347              	.L220:
 3348              		.loc 1 947 10 is_stmt 1 view .LVU1155
 3349              		.loc 1 947 13 is_stmt 0 view .LVU1156
 3350 015c 102B     		cmp	r3, #16
 3351              		.loc 1 951 42 view .LVU1157
 3352 015e 236B     		ldr	r3, [r4, #48]
 3353              	.LVL182:
 3354              		.loc 1 949 42 view .LVU1158
 3355 0160 22F4F042 		bic	r2, r2, #30720
 3356              		.loc 1 951 42 view .LVU1159
 3357 0164 23F4F043 		bic	r3, r3, #30720
 3358              		.loc 1 947 13 view .LVU1160
 3359 0168 04D8     		bhi	.L222
 3360              		.loc 1 949 7 is_stmt 1 view .LVU1161
 3361              		.loc 1 950 50 is_stmt 0 view .LVU1162
ARM GAS  C:\Users\DEVELO~1\AppData\Local\Temp\cc5EUJSb.s 			page 60


 3362 016a 42F42052 		orr	r2, r2, #10240
 3363              		.loc 1 951 7 is_stmt 1 view .LVU1163
 3364              		.loc 1 952 50 is_stmt 0 view .LVU1164
 3365 016e 43F42053 		orr	r3, r3, #10240
 3366 0172 5FE7     		b	.L221
 3367              	.L222:
 3368              		.loc 1 956 7 is_stmt 1 view .LVU1165
 3369              		.loc 1 957 49 is_stmt 0 view .LVU1166
 3370 0174 42F4A042 		orr	r2, r2, #20480
 3371              		.loc 1 958 7 is_stmt 1 view .LVU1167
 3372              		.loc 1 959 49 is_stmt 0 view .LVU1168
 3373 0178 43F4A043 		orr	r3, r3, #20480
 3374 017c 5AE7     		b	.L221
 3375              	.L217:
 3376              		.loc 1 920 7 is_stmt 1 view .LVU1169
 3377              		.loc 1 921 50 is_stmt 0 view .LVU1170
 3378 017e 42F42062 		orr	r2, r2, #2560
 3379              		.loc 1 922 7 is_stmt 1 view .LVU1171
 3380              		.loc 1 923 50 is_stmt 0 view .LVU1172
 3381 0182 43F42063 		orr	r3, r3, #2560
 3382 0186 CCE7     		b	.L216
 3383              	.LVL183:
 3384              	.L212:
 3385              		.loc 1 891 7 is_stmt 1 view .LVU1173
 3386 0188 636A     		ldr	r3, [r4, #36]
 3387 018a 1B68     		ldr	r3, [r3]
 3388 018c 9960     		str	r1, [r3, #8]
 3389              		.loc 1 891 61 view .LVU1174
 3390              		.loc 1 892 7 view .LVU1175
 3391 018e A16A     		ldr	r1, [r4, #40]
 3392              		.loc 1 898 31 is_stmt 0 view .LVU1176
 3393 0190 4369     		ldr	r3, [r0, #20]
 3394              		.loc 1 892 7 view .LVU1177
 3395 0192 0968     		ldr	r1, [r1]
 3396              		.loc 1 898 31 view .LVU1178
 3397 0194 03F01F03 		and	r3, r3, #31
 3398              		.loc 1 892 7 view .LVU1179
 3399 0198 8A60     		str	r2, [r1, #8]
 3400              		.loc 1 892 61 is_stmt 1 view .LVU1180
 3401              		.loc 1 898 3 view .LVU1181
 3402              		.loc 1 898 9 is_stmt 0 view .LVU1182
 3403 019a 0133     		adds	r3, r3, #1
 3404              	.LVL184:
 3405              		.loc 1 900 3 is_stmt 1 view .LVU1183
 3406 019c 41E7     		b	.L214
 3407              	.LVL185:
 3408              	.L245:
 3409              		.loc 1 771 7 view .LVU1184
 3410              	.LBB670:
 3411              	.LBI670:
 3412              		.loc 1 421 14 view .LVU1185
 3413              	.LBB671:
 3414              		.loc 1 424 3 view .LVU1186
 3415              		.loc 1 424 18 is_stmt 0 view .LVU1187
 3416 019e 0346     		mov	r3, r0
 3417 01a0 7D4A     		ldr	r2, .L250+32
 3418 01a2 0A21     		movs	r1, #10
ARM GAS  C:\Users\DEVELO~1\AppData\Local\Temp\cc5EUJSb.s 			page 61


 3419 01a4 1020     		movs	r0, #16
 3420              	.LVL186:
 3421              		.loc 1 424 18 view .LVU1188
 3422 01a6 FFF7FEFF 		bl	dmaStreamAllocI
 3423              	.LVL187:
 3424              		.loc 1 424 16 view .LVU1189
 3425 01aa 6062     		str	r0, [r4, #36]
 3426              		.loc 1 427 3 is_stmt 1 view .LVU1190
 3427              		.loc 1 427 6 is_stmt 0 view .LVU1191
 3428 01ac 0028     		cmp	r0, #0
 3429 01ae 00F0DF80 		beq	.L241
 3430              		.loc 1 431 3 is_stmt 1 view .LVU1192
 3431              		.loc 1 431 18 is_stmt 0 view .LVU1193
 3432 01b2 2346     		mov	r3, r4
 3433 01b4 794A     		ldr	r2, .L250+36
 3434 01b6 0A21     		movs	r1, #10
 3435 01b8 1020     		movs	r0, #16
 3436 01ba FFF7FEFF 		bl	dmaStreamAllocI
 3437              	.LVL188:
 3438              		.loc 1 431 16 view .LVU1194
 3439 01be A062     		str	r0, [r4, #40]
 3440              		.loc 1 434 3 is_stmt 1 view .LVU1195
 3441              		.loc 1 434 6 is_stmt 0 view .LVU1196
 3442 01c0 0028     		cmp	r0, #0
 3443 01c2 00F0ED80 		beq	.L243
 3444              	.LVL189:
 3445              		.loc 1 434 6 view .LVU1197
 3446              	.LBE671:
 3447              	.LBE670:
 3448              		.loc 1 775 7 is_stmt 1 view .LVU1198
 3449              		.loc 1 778 7 view .LVU1199
 3450 01c6 2521     		movs	r1, #37
 3451 01c8 606A     		ldr	r0, [r4, #36]
 3452 01ca FFF7FEFF 		bl	dmaSetRequestSource
 3453              	.LVL190:
 3454              		.loc 1 779 7 view .LVU1200
 3455 01ce 2621     		movs	r1, #38
 3456 01d0 A06A     		ldr	r0, [r4, #40]
 3457 01d2 FFF7FEFF 		bl	dmaSetRequestSource
 3458              	.LVL191:
 3459              		.loc 1 781 7 view .LVU1201
 3460              	.LBB672:
 3461              	.LBI672:
 3462              		.loc 2 319 22 view .LVU1202
 3463              	.LBB673:
 3464              		.loc 2 323 3 view .LVU1203
 3465              		.loc 2 323 19 is_stmt 0 view .LVU1204
 3466 01d6 6F4B     		ldr	r3, .L250+28
 3467 01d8 D3F8F020 		ldr	r2, [r3, #240]
 3468 01dc 42F48052 		orr	r2, r2, #4096
 3469 01e0 C3F8F020 		str	r2, [r3, #240]
 3470              		.loc 2 324 3 is_stmt 1 view .LVU1205
 3471              		.loc 2 325 5 view .LVU1206
 3472              		.loc 2 325 23 is_stmt 0 view .LVU1207
 3473 01e4 D3F81821 		ldr	r2, [r3, #280]
 3474 01e8 42F48052 		orr	r2, r2, #4096
 3475 01ec C3F81821 		str	r2, [r3, #280]
ARM GAS  C:\Users\DEVELO~1\AppData\Local\Temp\cc5EUJSb.s 			page 62


 3476              		.loc 2 330 3 is_stmt 1 view .LVU1208
 3477 01f0 D3F81821 		ldr	r2, [r3, #280]
 3478              	.LVL192:
 3479              		.loc 2 330 3 is_stmt 0 view .LVU1209
 3480              	.LBE673:
 3481              	.LBE672:
 3482              		.loc 1 782 7 is_stmt 1 view .LVU1210
 3483              	.LBB674:
 3484              	.LBI674:
 3485              		.loc 2 385 22 view .LVU1211
 3486              	.LBB675:
 3487              		.loc 2 397 3 view .LVU1212
 3488              	.LBB676:
 3489              	.LBI676:
 3490              		.loc 2 73 22 view .LVU1213
 3491              	.LBB677:
 3492              		.loc 2 76 3 view .LVU1214
 3493              		.loc 2 76 17 is_stmt 0 view .LVU1215
 3494 01f4 D3F89820 		ldr	r2, [r3, #152]
 3495 01f8 42F48052 		orr	r2, r2, #4096
 3496 01fc C3F89820 		str	r2, [r3, #152]
 3497              		.loc 2 77 3 is_stmt 1 view .LVU1216
 3498              		.loc 2 77 17 is_stmt 0 view .LVU1217
 3499 0200 D3F89820 		ldr	r2, [r3, #152]
 3500 0204 22F48052 		bic	r2, r2, #4096
 3501 0208 C3F89820 		str	r2, [r3, #152]
 3502              		.loc 2 78 3 is_stmt 1 view .LVU1218
 3503 020c D3F89830 		ldr	r3, [r3, #152]
 3504              	.LVL193:
 3505              		.loc 2 78 3 is_stmt 0 view .LVU1219
 3506              	.LBE677:
 3507              	.LBE676:
 3508              		.loc 2 398 1 view .LVU1220
 3509 0210 6CE7     		b	.L203
 3510              	.LVL194:
 3511              	.L247:
 3512              		.loc 2 398 1 view .LVU1221
 3513              	.LBE675:
 3514              	.LBE674:
 3515              		.loc 1 805 7 is_stmt 1 view .LVU1222
 3516              	.LBB678:
 3517              	.LBI678:
 3518              		.loc 1 421 14 view .LVU1223
 3519              	.LBB679:
 3520              		.loc 1 424 3 view .LVU1224
 3521              		.loc 1 424 18 is_stmt 0 view .LVU1225
 3522 0212 0346     		mov	r3, r0
 3523 0214 604A     		ldr	r2, .L250+32
 3524 0216 0A21     		movs	r1, #10
 3525 0218 1020     		movs	r0, #16
 3526              	.LVL195:
 3527              		.loc 1 424 18 view .LVU1226
 3528 021a FFF7FEFF 		bl	dmaStreamAllocI
 3529              	.LVL196:
 3530              		.loc 1 424 16 view .LVU1227
 3531 021e 6062     		str	r0, [r4, #36]
 3532              		.loc 1 427 3 is_stmt 1 view .LVU1228
ARM GAS  C:\Users\DEVELO~1\AppData\Local\Temp\cc5EUJSb.s 			page 63


 3533              		.loc 1 427 6 is_stmt 0 view .LVU1229
 3534 0220 0028     		cmp	r0, #0
 3535 0222 00F0A580 		beq	.L241
 3536              		.loc 1 431 3 is_stmt 1 view .LVU1230
 3537              		.loc 1 431 18 is_stmt 0 view .LVU1231
 3538 0226 2346     		mov	r3, r4
 3539 0228 5C4A     		ldr	r2, .L250+36
 3540 022a 0A21     		movs	r1, #10
 3541 022c 1020     		movs	r0, #16
 3542 022e FFF7FEFF 		bl	dmaStreamAllocI
 3543              	.LVL197:
 3544              		.loc 1 431 16 view .LVU1232
 3545 0232 A062     		str	r0, [r4, #40]
 3546              		.loc 1 434 3 is_stmt 1 view .LVU1233
 3547              		.loc 1 434 6 is_stmt 0 view .LVU1234
 3548 0234 0028     		cmp	r0, #0
 3549 0236 00F0B380 		beq	.L243
 3550              	.LVL198:
 3551              		.loc 1 434 6 view .LVU1235
 3552              	.LBE679:
 3553              	.LBE678:
 3554              		.loc 1 809 7 is_stmt 1 view .LVU1236
 3555              		.loc 1 812 7 view .LVU1237
 3556 023a 3D21     		movs	r1, #61
 3557 023c 606A     		ldr	r0, [r4, #36]
 3558 023e FFF7FEFF 		bl	dmaSetRequestSource
 3559              	.LVL199:
 3560              		.loc 1 813 7 view .LVU1238
 3561 0242 3E21     		movs	r1, #62
 3562 0244 A06A     		ldr	r0, [r4, #40]
 3563 0246 FFF7FEFF 		bl	dmaSetRequestSource
 3564              	.LVL200:
 3565              		.loc 1 815 7 view .LVU1239
 3566              	.LBB680:
 3567              	.LBI680:
 3568              		.loc 2 141 22 view .LVU1240
 3569              	.LBB681:
 3570              		.loc 2 145 3 view .LVU1241
 3571              		.loc 2 145 20 is_stmt 0 view .LVU1242
 3572 024a 524B     		ldr	r3, .L250+28
 3573 024c D3F8E820 		ldr	r2, [r3, #232]
 3574 0250 42F40042 		orr	r2, r2, #32768
 3575 0254 C3F8E820 		str	r2, [r3, #232]
 3576              		.loc 2 146 3 is_stmt 1 view .LVU1243
 3577              		.loc 2 147 5 view .LVU1244
 3578              		.loc 2 147 24 is_stmt 0 view .LVU1245
 3579 0258 D3F81021 		ldr	r2, [r3, #272]
 3580 025c 42F40042 		orr	r2, r2, #32768
 3581 0260 C3F81021 		str	r2, [r3, #272]
 3582              		.loc 2 152 3 is_stmt 1 view .LVU1246
 3583 0264 D3F81021 		ldr	r2, [r3, #272]
 3584              	.LVL201:
 3585              		.loc 2 152 3 is_stmt 0 view .LVU1247
 3586              	.LBE681:
 3587              	.LBE680:
 3588              		.loc 1 816 7 is_stmt 1 view .LVU1248
 3589              	.LBB682:
ARM GAS  C:\Users\DEVELO~1\AppData\Local\Temp\cc5EUJSb.s 			page 64


 3590              	.LBI682:
 3591              		.loc 2 207 22 view .LVU1249
 3592              	.LBB683:
 3593              		.loc 2 219 3 view .LVU1250
 3594              	.LBB684:
 3595              	.LBI684:
 3596              		.loc 2 57 22 view .LVU1251
 3597              	.LBB685:
 3598              		.loc 2 60 3 view .LVU1252
 3599              		.loc 2 60 18 is_stmt 0 view .LVU1253
 3600 0268 D3F89020 		ldr	r2, [r3, #144]
 3601 026c 42F40042 		orr	r2, r2, #32768
 3602 0270 C3F89020 		str	r2, [r3, #144]
 3603              		.loc 2 61 3 is_stmt 1 view .LVU1254
 3604              		.loc 2 61 18 is_stmt 0 view .LVU1255
 3605 0274 D3F89020 		ldr	r2, [r3, #144]
 3606 0278 22F40042 		bic	r2, r2, #32768
 3607 027c C3F89020 		str	r2, [r3, #144]
 3608              		.loc 2 62 3 is_stmt 1 view .LVU1256
 3609 0280 D3F89030 		ldr	r3, [r3, #144]
 3610              	.LVL202:
 3611              		.loc 2 62 3 is_stmt 0 view .LVU1257
 3612              	.LBE685:
 3613              	.LBE684:
 3614              		.loc 2 220 1 view .LVU1258
 3615 0284 32E7     		b	.L203
 3616              	.LVL203:
 3617              	.L246:
 3618              		.loc 2 220 1 view .LVU1259
 3619              	.LBE683:
 3620              	.LBE682:
 3621              		.loc 1 788 7 is_stmt 1 view .LVU1260
 3622              	.LBB686:
 3623              	.LBI686:
 3624              		.loc 1 421 14 view .LVU1261
 3625              	.LBB687:
 3626              		.loc 1 424 3 view .LVU1262
 3627              		.loc 1 424 18 is_stmt 0 view .LVU1263
 3628 0286 0346     		mov	r3, r0
 3629 0288 434A     		ldr	r2, .L250+32
 3630 028a 0A21     		movs	r1, #10
 3631 028c 1020     		movs	r0, #16
 3632              	.LVL204:
 3633              		.loc 1 424 18 view .LVU1264
 3634 028e FFF7FEFF 		bl	dmaStreamAllocI
 3635              	.LVL205:
 3636              		.loc 1 424 16 view .LVU1265
 3637 0292 6062     		str	r0, [r4, #36]
 3638              		.loc 1 427 3 is_stmt 1 view .LVU1266
 3639              		.loc 1 427 6 is_stmt 0 view .LVU1267
 3640 0294 0028     		cmp	r0, #0
 3641 0296 6BD0     		beq	.L241
 3642              		.loc 1 431 3 is_stmt 1 view .LVU1268
 3643              		.loc 1 431 18 is_stmt 0 view .LVU1269
 3644 0298 2346     		mov	r3, r4
 3645 029a 404A     		ldr	r2, .L250+36
 3646 029c 0A21     		movs	r1, #10
ARM GAS  C:\Users\DEVELO~1\AppData\Local\Temp\cc5EUJSb.s 			page 65


 3647 029e 1020     		movs	r0, #16
 3648 02a0 FFF7FEFF 		bl	dmaStreamAllocI
 3649              	.LVL206:
 3650              		.loc 1 431 16 view .LVU1270
 3651 02a4 A062     		str	r0, [r4, #40]
 3652              		.loc 1 434 3 is_stmt 1 view .LVU1271
 3653              		.loc 1 434 6 is_stmt 0 view .LVU1272
 3654 02a6 0028     		cmp	r0, #0
 3655 02a8 7AD0     		beq	.L243
 3656              	.LVL207:
 3657              		.loc 1 434 6 view .LVU1273
 3658              	.LBE687:
 3659              	.LBE686:
 3660              		.loc 1 792 7 is_stmt 1 view .LVU1274
 3661              		.loc 1 795 7 view .LVU1275
 3662 02aa 2721     		movs	r1, #39
 3663 02ac 606A     		ldr	r0, [r4, #36]
 3664 02ae FFF7FEFF 		bl	dmaSetRequestSource
 3665              	.LVL208:
 3666              		.loc 1 796 7 view .LVU1276
 3667 02b2 2821     		movs	r1, #40
 3668 02b4 A06A     		ldr	r0, [r4, #40]
 3669 02b6 FFF7FEFF 		bl	dmaSetRequestSource
 3670              	.LVL209:
 3671              		.loc 1 798 7 view .LVU1277
 3672              	.LBB688:
 3673              	.LBI688:
 3674              		.loc 2 141 22 view .LVU1278
 3675              	.LBB689:
 3676              		.loc 2 145 3 view .LVU1279
 3677              		.loc 2 145 20 is_stmt 0 view .LVU1280
 3678 02ba 364B     		ldr	r3, .L250+28
 3679 02bc D3F8E820 		ldr	r2, [r3, #232]
 3680 02c0 42F48042 		orr	r2, r2, #16384
 3681 02c4 C3F8E820 		str	r2, [r3, #232]
 3682              		.loc 2 146 3 is_stmt 1 view .LVU1281
 3683              		.loc 2 147 5 view .LVU1282
 3684              		.loc 2 147 24 is_stmt 0 view .LVU1283
 3685 02c8 D3F81021 		ldr	r2, [r3, #272]
 3686 02cc 42F48042 		orr	r2, r2, #16384
 3687 02d0 C3F81021 		str	r2, [r3, #272]
 3688              		.loc 2 152 3 is_stmt 1 view .LVU1284
 3689 02d4 D3F81021 		ldr	r2, [r3, #272]
 3690              	.LVL210:
 3691              		.loc 2 152 3 is_stmt 0 view .LVU1285
 3692              	.LBE689:
 3693              	.LBE688:
 3694              		.loc 1 799 7 is_stmt 1 view .LVU1286
 3695              	.LBB690:
 3696              	.LBI690:
 3697              		.loc 2 207 22 view .LVU1287
 3698              	.LBB691:
 3699              		.loc 2 219 3 view .LVU1288
 3700              	.LBB692:
 3701              	.LBI692:
 3702              		.loc 2 57 22 view .LVU1289
 3703              	.LBB693:
ARM GAS  C:\Users\DEVELO~1\AppData\Local\Temp\cc5EUJSb.s 			page 66


 3704              		.loc 2 60 3 view .LVU1290
 3705              		.loc 2 60 18 is_stmt 0 view .LVU1291
 3706 02d8 D3F89020 		ldr	r2, [r3, #144]
 3707 02dc 42F48042 		orr	r2, r2, #16384
 3708 02e0 C3F89020 		str	r2, [r3, #144]
 3709              		.loc 2 61 3 is_stmt 1 view .LVU1292
 3710              		.loc 2 61 18 is_stmt 0 view .LVU1293
 3711 02e4 D3F89020 		ldr	r2, [r3, #144]
 3712 02e8 22F48042 		bic	r2, r2, #16384
 3713 02ec C3F89020 		str	r2, [r3, #144]
 3714              		.loc 2 62 3 is_stmt 1 view .LVU1294
 3715 02f0 D3F89030 		ldr	r3, [r3, #144]
 3716              	.LVL211:
 3717              		.loc 2 62 3 is_stmt 0 view .LVU1295
 3718              	.LBE693:
 3719              	.LBE692:
 3720              		.loc 2 220 1 view .LVU1296
 3721 02f4 FAE6     		b	.L203
 3722              	.LVL212:
 3723              	.L248:
 3724              		.loc 2 220 1 view .LVU1297
 3725              	.LBE691:
 3726              	.LBE690:
 3727              		.loc 1 839 7 is_stmt 1 view .LVU1298
 3728              	.LBB694:
 3729              	.LBI694:
 3730              		.loc 1 421 14 view .LVU1299
 3731              	.LBB695:
 3732              		.loc 1 424 3 view .LVU1300
 3733              		.loc 1 424 18 is_stmt 0 view .LVU1301
 3734 02f6 0346     		mov	r3, r0
 3735 02f8 274A     		ldr	r2, .L250+32
 3736 02fa 0A21     		movs	r1, #10
 3737 02fc 1020     		movs	r0, #16
 3738              	.LVL213:
 3739              		.loc 1 424 18 view .LVU1302
 3740 02fe FFF7FEFF 		bl	dmaStreamAllocI
 3741              	.LVL214:
 3742              		.loc 1 424 16 view .LVU1303
 3743 0302 6062     		str	r0, [r4, #36]
 3744              		.loc 1 427 3 is_stmt 1 view .LVU1304
 3745              		.loc 1 427 6 is_stmt 0 view .LVU1305
 3746 0304 A0B3     		cbz	r0, .L241
 3747              		.loc 1 431 3 is_stmt 1 view .LVU1306
 3748              		.loc 1 431 18 is_stmt 0 view .LVU1307
 3749 0306 2346     		mov	r3, r4
 3750 0308 244A     		ldr	r2, .L250+36
 3751 030a 0A21     		movs	r1, #10
 3752 030c 1020     		movs	r0, #16
 3753 030e FFF7FEFF 		bl	dmaStreamAllocI
 3754              	.LVL215:
 3755              		.loc 1 431 16 view .LVU1308
 3756 0312 A062     		str	r0, [r4, #40]
 3757              		.loc 1 434 3 is_stmt 1 view .LVU1309
 3758              		.loc 1 434 6 is_stmt 0 view .LVU1310
 3759 0314 0028     		cmp	r0, #0
 3760 0316 43D0     		beq	.L243
ARM GAS  C:\Users\DEVELO~1\AppData\Local\Temp\cc5EUJSb.s 			page 67


 3761              	.LVL216:
 3762              		.loc 1 434 6 view .LVU1311
 3763              	.LBE695:
 3764              	.LBE694:
 3765              		.loc 1 843 7 is_stmt 1 view .LVU1312
 3766              		.loc 1 846 7 view .LVU1313
 3767 0318 5521     		movs	r1, #85
 3768 031a 606A     		ldr	r0, [r4, #36]
 3769 031c FFF7FEFF 		bl	dmaSetRequestSource
 3770              	.LVL217:
 3771              		.loc 1 847 7 view .LVU1314
 3772 0320 5621     		movs	r1, #86
 3773 0322 A06A     		ldr	r0, [r4, #40]
 3774 0324 FFF7FEFF 		bl	dmaSetRequestSource
 3775              	.LVL218:
 3776              		.loc 1 849 7 view .LVU1315
 3777              	.LBB698:
 3778              	.LBI698:
 3779              		.loc 2 319 22 view .LVU1316
 3780              	.LBB699:
 3781              		.loc 2 323 3 view .LVU1317
 3782              		.loc 2 323 19 is_stmt 0 view .LVU1318
 3783 0328 1A4B     		ldr	r3, .L250+28
 3784 032a D3F8F020 		ldr	r2, [r3, #240]
 3785 032e 42F48012 		orr	r2, r2, #1048576
 3786 0332 C3F8F020 		str	r2, [r3, #240]
 3787              		.loc 2 324 3 is_stmt 1 view .LVU1319
 3788              		.loc 2 325 5 view .LVU1320
 3789              		.loc 2 325 23 is_stmt 0 view .LVU1321
 3790 0336 D3F81821 		ldr	r2, [r3, #280]
 3791 033a 42F48012 		orr	r2, r2, #1048576
 3792 033e C3F81821 		str	r2, [r3, #280]
 3793              		.loc 2 330 3 is_stmt 1 view .LVU1322
 3794 0342 D3F81821 		ldr	r2, [r3, #280]
 3795              	.LVL219:
 3796              		.loc 2 330 3 is_stmt 0 view .LVU1323
 3797              	.LBE699:
 3798              	.LBE698:
 3799              		.loc 1 850 7 is_stmt 1 view .LVU1324
 3800              	.LBB700:
 3801              	.LBI700:
 3802              		.loc 2 385 22 view .LVU1325
 3803              	.LBB701:
 3804              		.loc 2 397 3 view .LVU1326
 3805              	.LBB702:
 3806              	.LBI702:
 3807              		.loc 2 73 22 view .LVU1327
 3808              	.LBB703:
 3809              		.loc 2 76 3 view .LVU1328
 3810              		.loc 2 76 17 is_stmt 0 view .LVU1329
 3811 0346 D3F89820 		ldr	r2, [r3, #152]
 3812 034a 42F48012 		orr	r2, r2, #1048576
 3813 034e C3F89820 		str	r2, [r3, #152]
 3814              		.loc 2 77 3 is_stmt 1 view .LVU1330
 3815              		.loc 2 77 17 is_stmt 0 view .LVU1331
 3816 0352 D3F89820 		ldr	r2, [r3, #152]
 3817 0356 22F48012 		bic	r2, r2, #1048576
ARM GAS  C:\Users\DEVELO~1\AppData\Local\Temp\cc5EUJSb.s 			page 68


 3818 035a C3F89820 		str	r2, [r3, #152]
 3819              		.loc 2 78 3 is_stmt 1 view .LVU1332
 3820 035e D3F89830 		ldr	r3, [r3, #152]
 3821              	.LVL220:
 3822              		.loc 2 78 3 is_stmt 0 view .LVU1333
 3823              	.LBE703:
 3824              	.LBE702:
 3825              		.loc 2 398 1 view .LVU1334
 3826 0362 C3E6     		b	.L203
 3827              	.LVL221:
 3828              	.L224:
 3829              		.loc 2 398 1 view .LVU1335
 3830              	.LBE701:
 3831              	.LBE700:
 3832              		.loc 1 873 14 view .LVU1336
 3833 0364 6FF01400 		mvn	r0, #20
 3834              	.LVL222:
 3835              		.loc 1 976 1 view .LVU1337
 3836 0368 10BD     		pop	{r4, pc}
 3837              	.LVL223:
 3838              	.L249:
 3839              	.LBB704:
 3840              	.LBB662:
 3841              		.loc 1 467 5 is_stmt 1 view .LVU1338
 3842 036a 606A     		ldr	r0, [r4, #36]
 3843 036c FFF7FEFF 		bl	bdmaStreamFreeI
 3844              	.LVL224:
 3845              	.L241:
 3846              		.loc 1 468 5 view .LVU1339
 3847              		.loc 1 468 5 is_stmt 0 view .LVU1340
 3848              	.LBE662:
 3849              	.LBE704:
 3850              		.loc 1 860 7 is_stmt 1 view .LVU1341
 3851              	.LBB705:
 3852              	.LBB663:
 3853              		.loc 1 468 12 is_stmt 0 view .LVU1342
 3854 0370 6FF01000 		mvn	r0, #16
 3855              	.LBE663:
 3856              	.LBE705:
 3857              		.loc 1 976 1 view .LVU1343
 3858 0374 10BD     		pop	{r4, pc}
 3859              	.LVL225:
 3860              	.L251:
 3861              		.loc 1 976 1 view .LVU1344
 3862 0376 00BF     		.align	2
 3863              	.L250:
 3864 0378 00000000 		.word	.LANCHOR0
 3865 037c 00000000 		.word	.LANCHOR1
 3866 0380 00000000 		.word	.LANCHOR2
 3867 0384 00000000 		.word	.LANCHOR3
 3868 0388 00000000 		.word	.LANCHOR4
 3869 038c 00000000 		.word	spi_lld_serve_bdma_rx_interrupt
 3870 0390 00000000 		.word	spi_lld_serve_bdma_tx_interrupt
 3871 0394 00440258 		.word	1476543488
 3872 0398 00000000 		.word	spi_lld_serve_dma_rx_interrupt
 3873 039c 00000000 		.word	spi_lld_serve_dma_tx_interrupt
 3874              	.LVL226:
ARM GAS  C:\Users\DEVELO~1\AppData\Local\Temp\cc5EUJSb.s 			page 69


 3875              	.L243:
 3876              	.LBB706:
 3877              	.LBB696:
 3878              		.loc 1 435 5 is_stmt 1 view .LVU1345
 3879 03a0 606A     		ldr	r0, [r4, #36]
 3880 03a2 FFF7FEFF 		bl	dmaStreamFreeI
 3881              	.LVL227:
 3882              		.loc 1 436 5 view .LVU1346
 3883              		.loc 1 436 5 is_stmt 0 view .LVU1347
 3884              	.LBE696:
 3885              	.LBE706:
 3886              		.loc 1 843 7 is_stmt 1 view .LVU1348
 3887              	.LBB707:
 3888              	.LBB697:
 3889              		.loc 1 436 12 is_stmt 0 view .LVU1349
 3890 03a6 6FF01000 		mvn	r0, #16
 3891              	.LBE697:
 3892              	.LBE707:
 3893              		.loc 1 976 1 view .LVU1350
 3894 03aa 10BD     		pop	{r4, pc}
 3895              		.loc 1 976 1 view .LVU1351
 3896              		.cfi_endproc
 3897              	.LFE450:
 3898              		.size	spi_lld_start, .-spi_lld_start
 3899              		.section	.text.spi_lld_stop,"ax",%progbits
 3900              		.align	1
 3901              		.p2align 4,,15
 3902              		.global	spi_lld_stop
 3903              		.syntax unified
 3904              		.thumb
 3905              		.thumb_func
 3906              		.type	spi_lld_stop, %function
 3907              	spi_lld_stop:
 3908              	.LVL228:
 3909              	.LFB451:
 3910              		.loc 1 985 36 is_stmt 1 view -0
 3911              		.cfi_startproc
 3912              		@ args = 0, pretend = 0, frame = 0
 3913              		@ frame_needed = 0, uses_anonymous_args = 0
 3914              		.loc 1 988 3 view .LVU1353
 3915              		.loc 1 988 6 is_stmt 0 view .LVU1354
 3916 0000 0378     		ldrb	r3, [r0]	@ zero_extendqisi2
 3917 0002 022B     		cmp	r3, #2
 3918 0004 00D0     		beq	.L266
 3919 0006 7047     		bx	lr
 3920              	.L266:
 3921              		.loc 1 991 5 is_stmt 1 view .LVU1355
 3922              		.loc 1 985 36 is_stmt 0 view .LVU1356
 3923 0008 10B5     		push	{r4, lr}
 3924              		.cfi_def_cfa_offset 8
 3925              		.cfi_offset 4, -8
 3926              		.cfi_offset 14, -4
 3927 000a 0446     		mov	r4, r0
 3928              		.loc 1 991 5 view .LVU1357
 3929 000c FFF7FEFF 		bl	spi_lld_stop_abort
 3930              	.LVL229:
 3931              		.loc 1 994 5 is_stmt 1 view .LVU1358
ARM GAS  C:\Users\DEVELO~1\AppData\Local\Temp\cc5EUJSb.s 			page 70


 3932              		.loc 1 994 8 is_stmt 0 view .LVU1359
 3933 0010 94F82030 		ldrb	r3, [r4, #32]	@ zero_extendqisi2
 3934              		.loc 1 998 7 view .LVU1360
 3935 0014 606A     		ldr	r0, [r4, #36]
 3936              		.loc 1 994 8 view .LVU1361
 3937 0016 1BBB     		cbnz	r3, .L267
 3938              		.loc 1 1007 7 is_stmt 1 view .LVU1362
 3939 0018 FFF7FEFF 		bl	dmaStreamFreeI
 3940              	.LVL230:
 3941              		.loc 1 1008 7 view .LVU1363
 3942 001c A06A     		ldr	r0, [r4, #40]
 3943 001e FFF7FEFF 		bl	dmaStreamFreeI
 3944              	.LVL231:
 3945              	.L256:
 3946              		.loc 1 1013 5 view .LVU1364
 3947              		.loc 1 1017 10 view .LVU1365
 3948              		.loc 1 1017 13 is_stmt 0 view .LVU1366
 3949 0022 324B     		ldr	r3, .L272
 3950 0024 9C42     		cmp	r4, r3
 3951 0026 21D0     		beq	.L268
 3952              		.loc 1 1023 10 is_stmt 1 view .LVU1367
 3953              		.loc 1 1023 13 is_stmt 0 view .LVU1368
 3954 0028 314B     		ldr	r3, .L272+4
 3955 002a 9C42     		cmp	r4, r3
 3956 002c 3ED0     		beq	.L269
 3957              		.loc 1 1029 10 is_stmt 1 view .LVU1369
 3958              		.loc 1 1029 13 is_stmt 0 view .LVU1370
 3959 002e 314B     		ldr	r3, .L272+8
 3960 0030 9C42     		cmp	r4, r3
 3961 0032 4BD0     		beq	.L270
 3962              		.loc 1 1041 10 is_stmt 1 view .LVU1371
 3963              		.loc 1 1041 13 is_stmt 0 view .LVU1372
 3964 0034 304B     		ldr	r3, .L272+12
 3965 0036 9C42     		cmp	r4, r3
 3966 0038 28D0     		beq	.L271
 3967              		.loc 1 1047 10 is_stmt 1 view .LVU1373
 3968              		.loc 1 1047 13 is_stmt 0 view .LVU1374
 3969 003a 304B     		ldr	r3, .L272+16
 3970 003c 9C42     		cmp	r4, r3
 3971 003e 0ED1     		bne	.L252
 3972              		.loc 1 1048 7 is_stmt 1 view .LVU1375
 3973              	.LVL232:
 3974              	.LBB708:
 3975              	.LBI708:
 3976              		.loc 2 529 22 view .LVU1376
 3977              	.LBB709:
 3978              		.loc 2 539 3 view .LVU1377
 3979              		.loc 2 539 19 is_stmt 0 view .LVU1378
 3980 0040 2F4B     		ldr	r3, .L272+20
 3981 0042 D3F8F420 		ldr	r2, [r3, #244]
 3982 0046 22F02002 		bic	r2, r2, #32
 3983 004a C3F8F420 		str	r2, [r3, #244]
 3984              		.loc 2 540 3 is_stmt 1 view .LVU1379
 3985              		.loc 2 540 21 is_stmt 0 view .LVU1380
 3986 004e D3F81C21 		ldr	r2, [r3, #284]
 3987 0052 22F02002 		bic	r2, r2, #32
 3988 0056 C3F81C21 		str	r2, [r3, #284]
ARM GAS  C:\Users\DEVELO~1\AppData\Local\Temp\cc5EUJSb.s 			page 71


 3989              		.loc 2 541 3 is_stmt 1 view .LVU1381
 3990 005a D3F81C31 		ldr	r3, [r3, #284]
 3991              	.LVL233:
 3992              		.loc 2 541 3 is_stmt 0 view .LVU1382
 3993              	.LBE709:
 3994              	.LBE708:
 3995              		.loc 1 1053 7 is_stmt 1 view .LVU1383
 3996              	.L252:
 3997              		.loc 1 1056 1 is_stmt 0 view .LVU1384
 3998 005e 10BD     		pop	{r4, pc}
 3999              	.LVL234:
 4000              	.L267:
 4001              		.loc 1 998 7 is_stmt 1 view .LVU1385
 4002 0060 FFF7FEFF 		bl	bdmaStreamFreeI
 4003              	.LVL235:
 4004              		.loc 1 999 7 view .LVU1386
 4005 0064 A06A     		ldr	r0, [r4, #40]
 4006 0066 FFF7FEFF 		bl	bdmaStreamFreeI
 4007              	.LVL236:
 4008 006a DAE7     		b	.L256
 4009              	.L268:
 4010              		.loc 1 1018 7 view .LVU1387
 4011              	.LVL237:
 4012              	.LBB710:
 4013              	.LBI710:
 4014              		.loc 2 351 22 view .LVU1388
 4015              	.LBB711:
 4016              		.loc 2 361 3 view .LVU1389
 4017              		.loc 2 361 19 is_stmt 0 view .LVU1390
 4018 006c 244B     		ldr	r3, .L272+20
 4019 006e D3F8F020 		ldr	r2, [r3, #240]
 4020 0072 22F48052 		bic	r2, r2, #4096
 4021 0076 C3F8F020 		str	r2, [r3, #240]
 4022              		.loc 2 362 3 is_stmt 1 view .LVU1391
 4023              		.loc 2 362 21 is_stmt 0 view .LVU1392
 4024 007a D3F81821 		ldr	r2, [r3, #280]
 4025 007e 22F48052 		bic	r2, r2, #4096
 4026 0082 C3F81821 		str	r2, [r3, #280]
 4027              		.loc 2 363 3 is_stmt 1 view .LVU1393
 4028 0086 D3F81831 		ldr	r3, [r3, #280]
 4029              	.LBE711:
 4030              	.LBE710:
 4031              		.loc 1 1056 1 is_stmt 0 view .LVU1394
 4032 008a 10BD     		pop	{r4, pc}
 4033              	.LVL238:
 4034              	.L271:
 4035              		.loc 1 1042 7 is_stmt 1 view .LVU1395
 4036              	.LBB712:
 4037              	.LBI712:
 4038              		.loc 2 351 22 view .LVU1396
 4039              	.LBB713:
 4040              		.loc 2 361 3 view .LVU1397
 4041              		.loc 2 361 19 is_stmt 0 view .LVU1398
 4042 008c 1C4B     		ldr	r3, .L272+20
 4043 008e D3F8F020 		ldr	r2, [r3, #240]
 4044 0092 22F48012 		bic	r2, r2, #1048576
 4045 0096 C3F8F020 		str	r2, [r3, #240]
ARM GAS  C:\Users\DEVELO~1\AppData\Local\Temp\cc5EUJSb.s 			page 72


 4046              		.loc 2 362 3 is_stmt 1 view .LVU1399
 4047              		.loc 2 362 21 is_stmt 0 view .LVU1400
 4048 009a D3F81821 		ldr	r2, [r3, #280]
 4049 009e 22F48012 		bic	r2, r2, #1048576
 4050 00a2 C3F81821 		str	r2, [r3, #280]
 4051              		.loc 2 363 3 is_stmt 1 view .LVU1401
 4052 00a6 D3F81831 		ldr	r3, [r3, #280]
 4053              	.LBE713:
 4054              	.LBE712:
 4055              		.loc 1 1056 1 is_stmt 0 view .LVU1402
 4056 00aa 10BD     		pop	{r4, pc}
 4057              	.LVL239:
 4058              	.L269:
 4059              		.loc 1 1024 7 is_stmt 1 view .LVU1403
 4060              	.LBB714:
 4061              	.LBI714:
 4062              		.loc 2 173 22 view .LVU1404
 4063              	.LBB715:
 4064              		.loc 2 183 3 view .LVU1405
 4065              		.loc 2 183 20 is_stmt 0 view .LVU1406
 4066 00ac 144B     		ldr	r3, .L272+20
 4067 00ae D3F8E820 		ldr	r2, [r3, #232]
 4068 00b2 22F48042 		bic	r2, r2, #16384
 4069 00b6 C3F8E820 		str	r2, [r3, #232]
 4070              		.loc 2 184 3 is_stmt 1 view .LVU1407
 4071              		.loc 2 184 22 is_stmt 0 view .LVU1408
 4072 00ba D3F81021 		ldr	r2, [r3, #272]
 4073 00be 22F48042 		bic	r2, r2, #16384
 4074 00c2 C3F81021 		str	r2, [r3, #272]
 4075              		.loc 2 185 3 is_stmt 1 view .LVU1409
 4076 00c6 D3F81031 		ldr	r3, [r3, #272]
 4077              	.LBE715:
 4078              	.LBE714:
 4079              		.loc 1 1056 1 is_stmt 0 view .LVU1410
 4080 00ca 10BD     		pop	{r4, pc}
 4081              	.LVL240:
 4082              	.L270:
 4083              		.loc 1 1030 7 is_stmt 1 view .LVU1411
 4084              	.LBB716:
 4085              	.LBI716:
 4086              		.loc 2 173 22 view .LVU1412
 4087              	.LBB717:
 4088              		.loc 2 183 3 view .LVU1413
 4089              		.loc 2 183 20 is_stmt 0 view .LVU1414
 4090 00cc 0C4B     		ldr	r3, .L272+20
 4091 00ce D3F8E820 		ldr	r2, [r3, #232]
 4092 00d2 22F40042 		bic	r2, r2, #32768
 4093 00d6 C3F8E820 		str	r2, [r3, #232]
 4094              		.loc 2 184 3 is_stmt 1 view .LVU1415
 4095              		.loc 2 184 22 is_stmt 0 view .LVU1416
 4096 00da D3F81021 		ldr	r2, [r3, #272]
 4097 00de 22F40042 		bic	r2, r2, #32768
 4098 00e2 C3F81021 		str	r2, [r3, #272]
 4099              		.loc 2 185 3 is_stmt 1 view .LVU1417
 4100 00e6 D3F81031 		ldr	r3, [r3, #272]
 4101              	.LBE717:
 4102              	.LBE716:
ARM GAS  C:\Users\DEVELO~1\AppData\Local\Temp\cc5EUJSb.s 			page 73


 4103              		.loc 1 1056 1 is_stmt 0 view .LVU1418
 4104 00ea 10BD     		pop	{r4, pc}
 4105              	.LVL241:
 4106              	.L273:
 4107              		.loc 1 1056 1 view .LVU1419
 4108              		.align	2
 4109              	.L272:
 4110 00ec 00000000 		.word	.LANCHOR0
 4111 00f0 00000000 		.word	.LANCHOR1
 4112 00f4 00000000 		.word	.LANCHOR2
 4113 00f8 00000000 		.word	.LANCHOR3
 4114 00fc 00000000 		.word	.LANCHOR4
 4115 0100 00440258 		.word	1476543488
 4116              		.cfi_endproc
 4117              	.LFE451:
 4118              		.size	spi_lld_stop, .-spi_lld_stop
 4119              		.section	.text.spi_lld_ignore,"ax",%progbits
 4120              		.align	1
 4121              		.p2align 4,,15
 4122              		.global	spi_lld_ignore
 4123              		.syntax unified
 4124              		.thumb
 4125              		.thumb_func
 4126              		.type	spi_lld_ignore, %function
 4127              	spi_lld_ignore:
 4128              	.LVL242:
 4129              	.LFB452:
 4130              		.loc 1 1097 49 is_stmt 1 view -0
 4131              		.cfi_startproc
 4132              		@ args = 0, pretend = 0, frame = 0
 4133              		@ frame_needed = 0, uses_anonymous_args = 0
 4134              		@ link register save eliminated.
 4135              		.loc 1 1099 3 view .LVU1421
 4136              		.loc 1 1099 3 view .LVU1422
 4137              		.loc 1 1099 3 view .LVU1423
 4138              		.loc 1 1102 3 view .LVU1424
 4139              		.loc 1 1102 6 is_stmt 0 view .LVU1425
 4140 0000 90F82030 		ldrb	r3, [r0, #32]	@ zero_extendqisi2
 4141              		.loc 1 1097 49 view .LVU1426
 4142 0004 30B4     		push	{r4, r5}
 4143              		.cfi_def_cfa_offset 8
 4144              		.cfi_offset 4, -8
 4145              		.cfi_offset 5, -4
 4146              		.loc 1 1110 5 view .LVU1427
 4147 0006 D0E90925 		ldrd	r2, r5, [r0, #36]
 4148              		.loc 1 1108 5 view .LVU1428
 4149 000a C46A     		ldr	r4, [r0, #44]
 4150              		.loc 1 1102 6 view .LVU1429
 4151 000c FBB1     		cbz	r3, .L275
 4152              		.loc 1 1106 5 is_stmt 1 view .LVU1430
 4153 000e 00F13403 		add	r3, r0, #52
 4154 0012 5268     		ldr	r2, [r2, #4]
 4155 0014 D360     		str	r3, [r2, #12]
 4156              		.loc 1 1106 54 view .LVU1431
 4157              		.loc 1 1107 5 view .LVU1432
 4158              		.loc 1 1110 5 is_stmt 0 view .LVU1433
 4159 0016 6B68     		ldr	r3, [r5, #4]
ARM GAS  C:\Users\DEVELO~1\AppData\Local\Temp\cc5EUJSb.s 			page 74


 4160              	.L279:
 4161              		.loc 1 1124 5 view .LVU1434
 4162 0018 5160     		str	r1, [r2, #4]
 4163              		.loc 1 1124 49 is_stmt 1 view .LVU1435
 4164              		.loc 1 1125 5 view .LVU1436
 4165              		.loc 1 1127 5 is_stmt 0 view .LVU1437
 4166 001a 00F13805 		add	r5, r0, #56
 4167              		.loc 1 1125 5 view .LVU1438
 4168 001e 1460     		str	r4, [r2]
 4169              		.loc 1 1125 52 is_stmt 1 view .LVU1439
 4170              		.loc 1 1127 5 view .LVU1440
 4171              		.loc 1 1129 5 is_stmt 0 view .LVU1441
 4172 0020 046B     		ldr	r4, [r0, #48]
 4173              		.loc 1 1127 5 view .LVU1442
 4174 0022 DD60     		str	r5, [r3, #12]
 4175              		.loc 1 1127 55 is_stmt 1 view .LVU1443
 4176              		.loc 1 1128 5 view .LVU1444
 4177 0024 5960     		str	r1, [r3, #4]
 4178              		.loc 1 1128 49 view .LVU1445
 4179              		.loc 1 1129 5 view .LVU1446
 4180 0026 1C60     		str	r4, [r3]
 4181              		.loc 1 1129 52 view .LVU1447
 4182              		.loc 1 1131 5 view .LVU1448
 4183 0028 1168     		ldr	r1, [r2]
 4184              	.LVL243:
 4185              		.loc 1 1131 5 is_stmt 0 view .LVU1449
 4186 002a 41F00101 		orr	r1, r1, #1
 4187 002e 1160     		str	r1, [r2]
 4188              		.loc 1 1131 34 is_stmt 1 view .LVU1450
 4189              		.loc 1 1132 5 view .LVU1451
 4190              		.loc 1 1132 34 view .LVU1452
 4191              		.loc 1 1136 3 view .LVU1453
 4192              	.LVL244:
 4193              	.LBB722:
 4194              	.LBI722:
 4195              		.loc 1 118 13 view .LVU1454
 4196              	.LBB723:
 4197              		.loc 1 120 3 view .LVU1455
 4198              	.LBE723:
 4199              	.LBE722:
 4200              		.loc 1 1132 5 is_stmt 0 view .LVU1456
 4201 0030 1A68     		ldr	r2, [r3]
 4202 0032 42F00102 		orr	r2, r2, #1
 4203 0036 1A60     		str	r2, [r3]
 4204              	.LBB727:
 4205              	.LBB726:
 4206              		.loc 1 120 20 view .LVU1457
 4207 0038 4368     		ldr	r3, [r0, #4]
 4208              		.loc 1 120 6 view .LVU1458
 4209 003a 5B78     		ldrb	r3, [r3, #1]	@ zero_extendqisi2
 4210 003c 23B9     		cbnz	r3, .L277
 4211 003e C269     		ldr	r2, [r0, #28]
 4212              	.LBB724:
 4213              	.LBI724:
 4214              		.loc 1 118 13 is_stmt 1 view .LVU1459
 4215              	.LVL245:
 4216              	.LBB725:
ARM GAS  C:\Users\DEVELO~1\AppData\Local\Temp\cc5EUJSb.s 			page 75


 4217              		.loc 1 121 5 view .LVU1460
 4218              		.loc 1 121 20 is_stmt 0 view .LVU1461
 4219 0040 1368     		ldr	r3, [r2]
 4220 0042 43F40073 		orr	r3, r3, #512
 4221 0046 1360     		str	r3, [r2]
 4222              	.L277:
 4223              	.LVL246:
 4224              		.loc 1 121 20 view .LVU1462
 4225              	.LBE725:
 4226              	.LBE724:
 4227              	.LBE726:
 4228              	.LBE727:
 4229              		.loc 1 1138 3 is_stmt 1 view .LVU1463
 4230              		.loc 1 1139 1 is_stmt 0 view .LVU1464
 4231 0048 0020     		movs	r0, #0
 4232              	.LVL247:
 4233              		.loc 1 1139 1 view .LVU1465
 4234 004a 30BC     		pop	{r4, r5}
 4235              		.cfi_remember_state
 4236              		.cfi_restore 5
 4237              		.cfi_restore 4
 4238              		.cfi_def_cfa_offset 0
 4239              	.LVL248:
 4240              		.loc 1 1139 1 view .LVU1466
 4241 004c 7047     		bx	lr
 4242              	.LVL249:
 4243              	.L275:
 4244              		.cfi_restore_state
 4245              		.loc 1 1123 5 is_stmt 1 view .LVU1467
 4246 004e 00F13403 		add	r3, r0, #52
 4247 0052 1268     		ldr	r2, [r2]
 4248 0054 D360     		str	r3, [r2, #12]
 4249              		.loc 1 1123 53 view .LVU1468
 4250              		.loc 1 1124 5 view .LVU1469
 4251              		.loc 1 1127 5 is_stmt 0 view .LVU1470
 4252 0056 2B68     		ldr	r3, [r5]
 4253 0058 DEE7     		b	.L279
 4254              		.cfi_endproc
 4255              	.LFE452:
 4256              		.size	spi_lld_ignore, .-spi_lld_ignore
 4257 005a 00BF     		.section	.text.spi_lld_exchange,"ax",%progbits
 4258              		.align	1
 4259              		.p2align 4,,15
 4260              		.global	spi_lld_exchange
 4261              		.syntax unified
 4262              		.thumb
 4263              		.thumb_func
 4264              		.type	spi_lld_exchange, %function
 4265              	spi_lld_exchange:
 4266              	.LVL250:
 4267              	.LFB453:
 4268              		.loc 1 1158 56 is_stmt 1 view -0
 4269              		.cfi_startproc
 4270              		@ args = 0, pretend = 0, frame = 0
 4271              		@ frame_needed = 0, uses_anonymous_args = 0
 4272              		@ link register save eliminated.
 4273              		.loc 1 1160 3 view .LVU1472
ARM GAS  C:\Users\DEVELO~1\AppData\Local\Temp\cc5EUJSb.s 			page 76


 4274              		.loc 1 1160 3 view .LVU1473
 4275              		.loc 1 1160 3 view .LVU1474
 4276              		.loc 1 1163 3 view .LVU1475
 4277              		.loc 1 1158 56 is_stmt 0 view .LVU1476
 4278 0000 10B4     		push	{r4}
 4279              		.cfi_def_cfa_offset 4
 4280              		.cfi_offset 4, -4
 4281              		.loc 1 1163 6 view .LVU1477
 4282 0002 90F82040 		ldrb	r4, [r0, #32]	@ zero_extendqisi2
 4283 0006 14B3     		cbz	r4, .L281
 4284              		.loc 1 1167 5 is_stmt 1 view .LVU1478
 4285 0008 446A     		ldr	r4, [r0, #36]
 4286 000a 6468     		ldr	r4, [r4, #4]
 4287 000c E360     		str	r3, [r4, #12]
 4288              		.loc 1 1167 46 view .LVU1479
 4289              		.loc 1 1168 5 view .LVU1480
 4290              		.loc 1 1169 5 is_stmt 0 view .LVU1481
 4291 000e C36A     		ldr	r3, [r0, #44]
 4292              	.LVL251:
 4293              		.loc 1 1168 5 view .LVU1482
 4294 0010 6160     		str	r1, [r4, #4]
 4295              	.LVL252:
 4296              		.loc 1 1168 51 is_stmt 1 view .LVU1483
 4297              		.loc 1 1169 5 view .LVU1484
 4298 0012 43F08003 		orr	r3, r3, #128
 4299 0016 2360     		str	r3, [r4]
 4300              		.loc 1 1169 75 view .LVU1485
 4301              		.loc 1 1171 5 view .LVU1486
 4302 0018 836A     		ldr	r3, [r0, #40]
 4303 001a 5B68     		ldr	r3, [r3, #4]
 4304 001c DA60     		str	r2, [r3, #12]
 4305              		.loc 1 1171 46 view .LVU1487
 4306              		.loc 1 1172 5 view .LVU1488
 4307              		.loc 1 1173 5 is_stmt 0 view .LVU1489
 4308 001e 026B     		ldr	r2, [r0, #48]
 4309              	.LVL253:
 4310              		.loc 1 1172 5 view .LVU1490
 4311 0020 5960     		str	r1, [r3, #4]
 4312              	.LVL254:
 4313              		.loc 1 1172 51 is_stmt 1 view .LVU1491
 4314              		.loc 1 1173 5 view .LVU1492
 4315 0022 42F08002 		orr	r2, r2, #128
 4316              	.L285:
 4317              		.loc 1 1190 5 is_stmt 0 view .LVU1493
 4318 0026 1A60     		str	r2, [r3]
 4319              		.loc 1 1190 72 is_stmt 1 view .LVU1494
 4320              		.loc 1 1192 5 view .LVU1495
 4321 0028 2268     		ldr	r2, [r4]
 4322 002a 42F00102 		orr	r2, r2, #1
 4323 002e 2260     		str	r2, [r4]
 4324              		.loc 1 1192 34 view .LVU1496
 4325              		.loc 1 1193 5 view .LVU1497
 4326              		.loc 1 1193 34 view .LVU1498
 4327              		.loc 1 1197 3 view .LVU1499
 4328              	.LVL255:
 4329              	.LBB732:
 4330              	.LBI732:
ARM GAS  C:\Users\DEVELO~1\AppData\Local\Temp\cc5EUJSb.s 			page 77


 4331              		.loc 1 118 13 view .LVU1500
 4332              	.LBB733:
 4333              		.loc 1 120 3 view .LVU1501
 4334              	.LBE733:
 4335              	.LBE732:
 4336              		.loc 1 1193 5 is_stmt 0 view .LVU1502
 4337 0030 1A68     		ldr	r2, [r3]
 4338 0032 42F00102 		orr	r2, r2, #1
 4339 0036 1A60     		str	r2, [r3]
 4340              	.LBB737:
 4341              	.LBB736:
 4342              		.loc 1 120 20 view .LVU1503
 4343 0038 4368     		ldr	r3, [r0, #4]
 4344              		.loc 1 120 6 view .LVU1504
 4345 003a 5B78     		ldrb	r3, [r3, #1]	@ zero_extendqisi2
 4346 003c 23B9     		cbnz	r3, .L283
 4347 003e C269     		ldr	r2, [r0, #28]
 4348              	.LBB734:
 4349              	.LBI734:
 4350              		.loc 1 118 13 is_stmt 1 view .LVU1505
 4351              	.LVL256:
 4352              	.LBB735:
 4353              		.loc 1 121 5 view .LVU1506
 4354              		.loc 1 121 20 is_stmt 0 view .LVU1507
 4355 0040 1368     		ldr	r3, [r2]
 4356 0042 43F40073 		orr	r3, r3, #512
 4357 0046 1360     		str	r3, [r2]
 4358              	.L283:
 4359              	.LVL257:
 4360              		.loc 1 121 20 view .LVU1508
 4361              	.LBE735:
 4362              	.LBE734:
 4363              	.LBE736:
 4364              	.LBE737:
 4365              		.loc 1 1199 3 is_stmt 1 view .LVU1509
 4366              		.loc 1 1200 1 is_stmt 0 view .LVU1510
 4367 0048 0020     		movs	r0, #0
 4368              	.LVL258:
 4369              		.loc 1 1200 1 view .LVU1511
 4370 004a 10BC     		pop	{r4}
 4371              		.cfi_remember_state
 4372              		.cfi_restore 4
 4373              		.cfi_def_cfa_offset 0
 4374 004c 7047     		bx	lr
 4375              	.LVL259:
 4376              	.L281:
 4377              		.cfi_restore_state
 4378              		.loc 1 1184 5 is_stmt 1 view .LVU1512
 4379 004e 446A     		ldr	r4, [r0, #36]
 4380 0050 2468     		ldr	r4, [r4]
 4381 0052 E360     		str	r3, [r4, #12]
 4382              		.loc 1 1184 45 view .LVU1513
 4383              		.loc 1 1185 5 view .LVU1514
 4384              		.loc 1 1186 5 is_stmt 0 view .LVU1515
 4385 0054 C36A     		ldr	r3, [r0, #44]
 4386              	.LVL260:
 4387              		.loc 1 1185 5 view .LVU1516
ARM GAS  C:\Users\DEVELO~1\AppData\Local\Temp\cc5EUJSb.s 			page 78


 4388 0056 6160     		str	r1, [r4, #4]
 4389              	.LVL261:
 4390              		.loc 1 1185 49 is_stmt 1 view .LVU1517
 4391              		.loc 1 1186 5 view .LVU1518
 4392 0058 43F48063 		orr	r3, r3, #1024
 4393 005c 2360     		str	r3, [r4]
 4394              		.loc 1 1186 72 view .LVU1519
 4395              		.loc 1 1188 5 view .LVU1520
 4396 005e 836A     		ldr	r3, [r0, #40]
 4397 0060 1B68     		ldr	r3, [r3]
 4398 0062 DA60     		str	r2, [r3, #12]
 4399              		.loc 1 1188 45 view .LVU1521
 4400              		.loc 1 1189 5 view .LVU1522
 4401              		.loc 1 1190 5 is_stmt 0 view .LVU1523
 4402 0064 026B     		ldr	r2, [r0, #48]
 4403              	.LVL262:
 4404              		.loc 1 1189 5 view .LVU1524
 4405 0066 5960     		str	r1, [r3, #4]
 4406              	.LVL263:
 4407              		.loc 1 1189 49 is_stmt 1 view .LVU1525
 4408              		.loc 1 1190 5 view .LVU1526
 4409 0068 42F48062 		orr	r2, r2, #1024
 4410 006c DBE7     		b	.L285
 4411              		.cfi_endproc
 4412              	.LFE453:
 4413              		.size	spi_lld_exchange, .-spi_lld_exchange
 4414 006e 00BF     		.section	.text.spi_lld_send,"ax",%progbits
 4415              		.align	1
 4416              		.p2align 4,,15
 4417              		.global	spi_lld_send
 4418              		.syntax unified
 4419              		.thumb
 4420              		.thumb_func
 4421              		.type	spi_lld_send, %function
 4422              	spi_lld_send:
 4423              	.LVL264:
 4424              	.LFB454:
 4425              		.loc 1 1216 66 view -0
 4426              		.cfi_startproc
 4427              		@ args = 0, pretend = 0, frame = 0
 4428              		@ frame_needed = 0, uses_anonymous_args = 0
 4429              		@ link register save eliminated.
 4430              		.loc 1 1218 3 view .LVU1528
 4431              		.loc 1 1218 3 view .LVU1529
 4432              		.loc 1 1218 3 view .LVU1530
 4433              		.loc 1 1221 3 view .LVU1531
 4434              		.loc 1 1221 6 is_stmt 0 view .LVU1532
 4435 0000 90F82030 		ldrb	r3, [r0, #32]	@ zero_extendqisi2
 4436              		.loc 1 1216 66 view .LVU1533
 4437 0004 10B4     		push	{r4}
 4438              		.cfi_def_cfa_offset 4
 4439              		.cfi_offset 4, -4
 4440              		.loc 1 1225 5 view .LVU1534
 4441 0006 446A     		ldr	r4, [r0, #36]
 4442              		.loc 1 1221 6 view .LVU1535
 4443 0008 0BB3     		cbz	r3, .L287
 4444              		.loc 1 1225 5 is_stmt 1 view .LVU1536
ARM GAS  C:\Users\DEVELO~1\AppData\Local\Temp\cc5EUJSb.s 			page 79


 4445 000a 6468     		ldr	r4, [r4, #4]
 4446 000c 00F13403 		add	r3, r0, #52
 4447 0010 E360     		str	r3, [r4, #12]
 4448              		.loc 1 1225 54 view .LVU1537
 4449              		.loc 1 1226 5 view .LVU1538
 4450              		.loc 1 1227 5 is_stmt 0 view .LVU1539
 4451 0012 C36A     		ldr	r3, [r0, #44]
 4452              		.loc 1 1226 5 view .LVU1540
 4453 0014 6160     		str	r1, [r4, #4]
 4454              		.loc 1 1226 51 is_stmt 1 view .LVU1541
 4455              		.loc 1 1227 5 view .LVU1542
 4456 0016 2360     		str	r3, [r4]
 4457              		.loc 1 1227 54 view .LVU1543
 4458              		.loc 1 1229 5 view .LVU1544
 4459 0018 836A     		ldr	r3, [r0, #40]
 4460 001a 5B68     		ldr	r3, [r3, #4]
 4461 001c DA60     		str	r2, [r3, #12]
 4462              		.loc 1 1229 46 view .LVU1545
 4463              		.loc 1 1230 5 view .LVU1546
 4464              		.loc 1 1231 5 is_stmt 0 view .LVU1547
 4465 001e 026B     		ldr	r2, [r0, #48]
 4466              	.LVL265:
 4467              		.loc 1 1230 5 view .LVU1548
 4468 0020 5960     		str	r1, [r3, #4]
 4469              	.LVL266:
 4470              		.loc 1 1230 51 is_stmt 1 view .LVU1549
 4471              		.loc 1 1231 5 view .LVU1550
 4472 0022 42F08002 		orr	r2, r2, #128
 4473              	.L291:
 4474              		.loc 1 1248 5 is_stmt 0 view .LVU1551
 4475 0026 1A60     		str	r2, [r3]
 4476              		.loc 1 1248 72 is_stmt 1 view .LVU1552
 4477              		.loc 1 1250 5 view .LVU1553
 4478 0028 2268     		ldr	r2, [r4]
 4479 002a 42F00102 		orr	r2, r2, #1
 4480 002e 2260     		str	r2, [r4]
 4481              		.loc 1 1250 34 view .LVU1554
 4482              		.loc 1 1251 5 view .LVU1555
 4483              		.loc 1 1251 34 view .LVU1556
 4484              		.loc 1 1255 3 view .LVU1557
 4485              	.LVL267:
 4486              	.LBB742:
 4487              	.LBI742:
 4488              		.loc 1 118 13 view .LVU1558
 4489              	.LBB743:
 4490              		.loc 1 120 3 view .LVU1559
 4491              	.LBE743:
 4492              	.LBE742:
 4493              		.loc 1 1251 5 is_stmt 0 view .LVU1560
 4494 0030 1A68     		ldr	r2, [r3]
 4495 0032 42F00102 		orr	r2, r2, #1
 4496 0036 1A60     		str	r2, [r3]
 4497              	.LBB747:
 4498              	.LBB746:
 4499              		.loc 1 120 20 view .LVU1561
 4500 0038 4368     		ldr	r3, [r0, #4]
 4501              		.loc 1 120 6 view .LVU1562
ARM GAS  C:\Users\DEVELO~1\AppData\Local\Temp\cc5EUJSb.s 			page 80


 4502 003a 5B78     		ldrb	r3, [r3, #1]	@ zero_extendqisi2
 4503 003c 23B9     		cbnz	r3, .L289
 4504 003e C269     		ldr	r2, [r0, #28]
 4505              	.LBB744:
 4506              	.LBI744:
 4507              		.loc 1 118 13 is_stmt 1 view .LVU1563
 4508              	.LVL268:
 4509              	.LBB745:
 4510              		.loc 1 121 5 view .LVU1564
 4511              		.loc 1 121 20 is_stmt 0 view .LVU1565
 4512 0040 1368     		ldr	r3, [r2]
 4513 0042 43F40073 		orr	r3, r3, #512
 4514 0046 1360     		str	r3, [r2]
 4515              	.L289:
 4516              	.LVL269:
 4517              		.loc 1 121 20 view .LVU1566
 4518              	.LBE745:
 4519              	.LBE744:
 4520              	.LBE746:
 4521              	.LBE747:
 4522              		.loc 1 1257 3 is_stmt 1 view .LVU1567
 4523              		.loc 1 1258 1 is_stmt 0 view .LVU1568
 4524 0048 0020     		movs	r0, #0
 4525              	.LVL270:
 4526              		.loc 1 1258 1 view .LVU1569
 4527 004a 10BC     		pop	{r4}
 4528              		.cfi_remember_state
 4529              		.cfi_restore 4
 4530              		.cfi_def_cfa_offset 0
 4531 004c 7047     		bx	lr
 4532              	.LVL271:
 4533              	.L287:
 4534              		.cfi_restore_state
 4535              		.loc 1 1242 5 is_stmt 1 view .LVU1570
 4536 004e 2468     		ldr	r4, [r4]
 4537 0050 00F13403 		add	r3, r0, #52
 4538 0054 E360     		str	r3, [r4, #12]
 4539              		.loc 1 1242 53 view .LVU1571
 4540              		.loc 1 1243 5 view .LVU1572
 4541              		.loc 1 1244 5 is_stmt 0 view .LVU1573
 4542 0056 C36A     		ldr	r3, [r0, #44]
 4543              		.loc 1 1243 5 view .LVU1574
 4544 0058 6160     		str	r1, [r4, #4]
 4545              		.loc 1 1243 49 is_stmt 1 view .LVU1575
 4546              		.loc 1 1244 5 view .LVU1576
 4547 005a 2360     		str	r3, [r4]
 4548              		.loc 1 1244 52 view .LVU1577
 4549              		.loc 1 1246 5 view .LVU1578
 4550 005c 836A     		ldr	r3, [r0, #40]
 4551 005e 1B68     		ldr	r3, [r3]
 4552 0060 DA60     		str	r2, [r3, #12]
 4553              		.loc 1 1246 45 view .LVU1579
 4554              		.loc 1 1247 5 view .LVU1580
 4555              		.loc 1 1248 5 is_stmt 0 view .LVU1581
 4556 0062 026B     		ldr	r2, [r0, #48]
 4557              	.LVL272:
 4558              		.loc 1 1247 5 view .LVU1582
ARM GAS  C:\Users\DEVELO~1\AppData\Local\Temp\cc5EUJSb.s 			page 81


 4559 0064 5960     		str	r1, [r3, #4]
 4560              	.LVL273:
 4561              		.loc 1 1247 49 is_stmt 1 view .LVU1583
 4562              		.loc 1 1248 5 view .LVU1584
 4563 0066 42F48062 		orr	r2, r2, #1024
 4564 006a DCE7     		b	.L291
 4565              		.cfi_endproc
 4566              	.LFE454:
 4567              		.size	spi_lld_send, .-spi_lld_send
 4568              		.section	.text.spi_lld_receive,"ax",%progbits
 4569              		.align	1
 4570              		.p2align 4,,15
 4571              		.global	spi_lld_receive
 4572              		.syntax unified
 4573              		.thumb
 4574              		.thumb_func
 4575              		.type	spi_lld_receive, %function
 4576              	spi_lld_receive:
 4577              	.LVL274:
 4578              	.LFB455:
 4579              		.loc 1 1274 63 view -0
 4580              		.cfi_startproc
 4581              		@ args = 0, pretend = 0, frame = 0
 4582              		@ frame_needed = 0, uses_anonymous_args = 0
 4583              		@ link register save eliminated.
 4584              		.loc 1 1276 3 view .LVU1586
 4585              		.loc 1 1276 3 view .LVU1587
 4586              		.loc 1 1276 3 view .LVU1588
 4587              		.loc 1 1279 3 view .LVU1589
 4588              		.loc 1 1279 6 is_stmt 0 view .LVU1590
 4589 0000 90F82030 		ldrb	r3, [r0, #32]	@ zero_extendqisi2
 4590              		.loc 1 1274 63 view .LVU1591
 4591 0004 10B4     		push	{r4}
 4592              		.cfi_def_cfa_offset 4
 4593              		.cfi_offset 4, -4
 4594              		.loc 1 1283 5 view .LVU1592
 4595 0006 446A     		ldr	r4, [r0, #36]
 4596              		.loc 1 1279 6 view .LVU1593
 4597 0008 0BB3     		cbz	r3, .L293
 4598              		.loc 1 1283 5 is_stmt 1 view .LVU1594
 4599              		.loc 1 1285 5 is_stmt 0 view .LVU1595
 4600 000a C36A     		ldr	r3, [r0, #44]
 4601              		.loc 1 1283 5 view .LVU1596
 4602 000c 6468     		ldr	r4, [r4, #4]
 4603              		.loc 1 1285 5 view .LVU1597
 4604 000e 43F08003 		orr	r3, r3, #128
 4605              		.loc 1 1283 5 view .LVU1598
 4606 0012 E260     		str	r2, [r4, #12]
 4607              		.loc 1 1283 46 is_stmt 1 view .LVU1599
 4608              		.loc 1 1284 5 view .LVU1600
 4609              		.loc 1 1287 5 is_stmt 0 view .LVU1601
 4610 0014 00F13802 		add	r2, r0, #56
 4611              	.LVL275:
 4612              		.loc 1 1284 5 view .LVU1602
 4613 0018 6160     		str	r1, [r4, #4]
 4614              	.LVL276:
 4615              		.loc 1 1284 51 is_stmt 1 view .LVU1603
ARM GAS  C:\Users\DEVELO~1\AppData\Local\Temp\cc5EUJSb.s 			page 82


 4616              		.loc 1 1285 5 view .LVU1604
 4617 001a 2360     		str	r3, [r4]
 4618              		.loc 1 1285 75 view .LVU1605
 4619              		.loc 1 1287 5 view .LVU1606
 4620 001c 836A     		ldr	r3, [r0, #40]
 4621 001e 5B68     		ldr	r3, [r3, #4]
 4622              	.L297:
 4623              		.loc 1 1304 5 is_stmt 0 view .LVU1607
 4624 0020 DA60     		str	r2, [r3, #12]
 4625              		.loc 1 1304 55 is_stmt 1 view .LVU1608
 4626              		.loc 1 1305 5 view .LVU1609
 4627              		.loc 1 1306 5 is_stmt 0 view .LVU1610
 4628 0022 026B     		ldr	r2, [r0, #48]
 4629              		.loc 1 1305 5 view .LVU1611
 4630 0024 5960     		str	r1, [r3, #4]
 4631              		.loc 1 1305 49 is_stmt 1 view .LVU1612
 4632              		.loc 1 1306 5 view .LVU1613
 4633 0026 1A60     		str	r2, [r3]
 4634              		.loc 1 1306 52 view .LVU1614
 4635              		.loc 1 1308 5 view .LVU1615
 4636 0028 2268     		ldr	r2, [r4]
 4637 002a 42F00102 		orr	r2, r2, #1
 4638 002e 2260     		str	r2, [r4]
 4639              		.loc 1 1308 34 view .LVU1616
 4640              		.loc 1 1309 5 view .LVU1617
 4641              		.loc 1 1309 34 view .LVU1618
 4642              		.loc 1 1313 3 view .LVU1619
 4643              	.LVL277:
 4644              	.LBB752:
 4645              	.LBI752:
 4646              		.loc 1 118 13 view .LVU1620
 4647              	.LBB753:
 4648              		.loc 1 120 3 view .LVU1621
 4649              	.LBE753:
 4650              	.LBE752:
 4651              		.loc 1 1309 5 is_stmt 0 view .LVU1622
 4652 0030 1A68     		ldr	r2, [r3]
 4653 0032 42F00102 		orr	r2, r2, #1
 4654 0036 1A60     		str	r2, [r3]
 4655              	.LBB757:
 4656              	.LBB756:
 4657              		.loc 1 120 20 view .LVU1623
 4658 0038 4368     		ldr	r3, [r0, #4]
 4659              		.loc 1 120 6 view .LVU1624
 4660 003a 5B78     		ldrb	r3, [r3, #1]	@ zero_extendqisi2
 4661 003c 23B9     		cbnz	r3, .L295
 4662 003e C269     		ldr	r2, [r0, #28]
 4663              	.LBB754:
 4664              	.LBI754:
 4665              		.loc 1 118 13 is_stmt 1 view .LVU1625
 4666              	.LVL278:
 4667              	.LBB755:
 4668              		.loc 1 121 5 view .LVU1626
 4669              		.loc 1 121 20 is_stmt 0 view .LVU1627
 4670 0040 1368     		ldr	r3, [r2]
 4671 0042 43F40073 		orr	r3, r3, #512
 4672 0046 1360     		str	r3, [r2]
ARM GAS  C:\Users\DEVELO~1\AppData\Local\Temp\cc5EUJSb.s 			page 83


 4673              	.L295:
 4674              	.LVL279:
 4675              		.loc 1 121 20 view .LVU1628
 4676              	.LBE755:
 4677              	.LBE754:
 4678              	.LBE756:
 4679              	.LBE757:
 4680              		.loc 1 1315 3 is_stmt 1 view .LVU1629
 4681              		.loc 1 1316 1 is_stmt 0 view .LVU1630
 4682 0048 0020     		movs	r0, #0
 4683              	.LVL280:
 4684              		.loc 1 1316 1 view .LVU1631
 4685 004a 10BC     		pop	{r4}
 4686              		.cfi_remember_state
 4687              		.cfi_restore 4
 4688              		.cfi_def_cfa_offset 0
 4689 004c 7047     		bx	lr
 4690              	.LVL281:
 4691              	.L293:
 4692              		.cfi_restore_state
 4693              		.loc 1 1300 5 is_stmt 1 view .LVU1632
 4694              		.loc 1 1302 5 is_stmt 0 view .LVU1633
 4695 004e C36A     		ldr	r3, [r0, #44]
 4696              		.loc 1 1300 5 view .LVU1634
 4697 0050 2468     		ldr	r4, [r4]
 4698              		.loc 1 1302 5 view .LVU1635
 4699 0052 43F48063 		orr	r3, r3, #1024
 4700              		.loc 1 1300 5 view .LVU1636
 4701 0056 E260     		str	r2, [r4, #12]
 4702              		.loc 1 1300 45 is_stmt 1 view .LVU1637
 4703              		.loc 1 1301 5 view .LVU1638
 4704              		.loc 1 1304 5 is_stmt 0 view .LVU1639
 4705 0058 00F13802 		add	r2, r0, #56
 4706              	.LVL282:
 4707              		.loc 1 1301 5 view .LVU1640
 4708 005c 6160     		str	r1, [r4, #4]
 4709              	.LVL283:
 4710              		.loc 1 1301 49 is_stmt 1 view .LVU1641
 4711              		.loc 1 1302 5 view .LVU1642
 4712 005e 2360     		str	r3, [r4]
 4713              		.loc 1 1302 72 view .LVU1643
 4714              		.loc 1 1304 5 view .LVU1644
 4715 0060 836A     		ldr	r3, [r0, #40]
 4716 0062 1B68     		ldr	r3, [r3]
 4717 0064 DCE7     		b	.L297
 4718              		.cfi_endproc
 4719              	.LFE455:
 4720              		.size	spi_lld_receive, .-spi_lld_receive
 4721 0066 00BF     		.section	.text.spi_lld_stop_transfer,"ax",%progbits
 4722              		.align	1
 4723              		.p2align 4,,15
 4724              		.global	spi_lld_stop_transfer
 4725              		.syntax unified
 4726              		.thumb
 4727              		.thumb_func
 4728              		.type	spi_lld_stop_transfer, %function
 4729              	spi_lld_stop_transfer:
ARM GAS  C:\Users\DEVELO~1\AppData\Local\Temp\cc5EUJSb.s 			page 84


 4730              	.LVL284:
 4731              	.LFB456:
 4732              		.loc 1 1328 61 view -0
 4733              		.cfi_startproc
 4734              		@ args = 0, pretend = 0, frame = 0
 4735              		@ frame_needed = 0, uses_anonymous_args = 0
 4736              		.loc 1 1329 3 view .LVU1646
 4737              		.loc 1 1332 3 view .LVU1647
 4738              		.loc 1 1328 61 is_stmt 0 view .LVU1648
 4739 0000 38B5     		push	{r3, r4, r5, lr}
 4740              		.cfi_def_cfa_offset 16
 4741              		.cfi_offset 3, -16
 4742              		.cfi_offset 4, -12
 4743              		.cfi_offset 5, -8
 4744              		.cfi_offset 14, -4
 4745              		.loc 1 1328 61 view .LVU1649
 4746 0002 0C46     		mov	r4, r1
 4747 0004 0546     		mov	r5, r0
 4748              		.loc 1 1332 9 view .LVU1650
 4749 0006 FFF7FEFF 		bl	spi_lld_stop_nicely
 4750              	.LVL285:
 4751              		.loc 1 1334 3 is_stmt 1 view .LVU1651
 4752              		.loc 1 1334 6 is_stmt 0 view .LVU1652
 4753 000a 34B1     		cbz	r4, .L298
 4754              		.loc 1 1336 5 is_stmt 1 view .LVU1653
 4755              		.loc 1 1336 8 is_stmt 0 view .LVU1654
 4756 000c 95F82030 		ldrb	r3, [r5, #32]	@ zero_extendqisi2
 4757 0010 23B1     		cbz	r3, .L300
 4758              		.loc 1 1340 7 is_stmt 1 view .LVU1655
 4759              		.loc 1 1340 16 is_stmt 0 view .LVU1656
 4760 0012 6B6A     		ldr	r3, [r5, #36]
 4761 0014 5B68     		ldr	r3, [r3, #4]
 4762 0016 5B68     		ldr	r3, [r3, #4]
 4763              		.loc 1 1340 14 view .LVU1657
 4764 0018 2360     		str	r3, [r4]
 4765              	.L298:
 4766              		.loc 1 1354 1 view .LVU1658
 4767 001a 38BD     		pop	{r3, r4, r5, pc}
 4768              	.LVL286:
 4769              	.L300:
 4770              		.loc 1 1348 7 is_stmt 1 view .LVU1659
 4771              		.loc 1 1348 16 is_stmt 0 view .LVU1660
 4772 001c 6B6A     		ldr	r3, [r5, #36]
 4773 001e 1B68     		ldr	r3, [r3]
 4774 0020 5B68     		ldr	r3, [r3, #4]
 4775              		.loc 1 1348 14 view .LVU1661
 4776 0022 2360     		str	r3, [r4]
 4777              		.loc 1 1353 3 is_stmt 1 view .LVU1662
 4778              		.loc 1 1354 1 is_stmt 0 view .LVU1663
 4779 0024 38BD     		pop	{r3, r4, r5, pc}
 4780              		.loc 1 1354 1 view .LVU1664
 4781              		.cfi_endproc
 4782              	.LFE456:
 4783              		.size	spi_lld_stop_transfer, .-spi_lld_stop_transfer
 4784 0026 00BF     		.section	.text.spi_lld_polled_exchange,"ax",%progbits
 4785              		.align	1
 4786              		.p2align 4,,15
ARM GAS  C:\Users\DEVELO~1\AppData\Local\Temp\cc5EUJSb.s 			page 85


 4787              		.global	spi_lld_polled_exchange
 4788              		.syntax unified
 4789              		.thumb
 4790              		.thumb_func
 4791              		.type	spi_lld_polled_exchange, %function
 4792              	spi_lld_polled_exchange:
 4793              	.LVL287:
 4794              	.LFB457:
 4795              		.loc 1 1370 67 is_stmt 1 view -0
 4796              		.cfi_startproc
 4797              		@ args = 0, pretend = 0, frame = 0
 4798              		@ frame_needed = 0, uses_anonymous_args = 0
 4799              		@ link register save eliminated.
 4800              		.loc 1 1371 3 view .LVU1666
 4801              		.loc 1 1371 25 is_stmt 0 view .LVU1667
 4802 0000 C369     		ldr	r3, [r0, #28]
 4803              		.loc 1 1370 67 view .LVU1668
 4804 0002 10B4     		push	{r4}
 4805              		.cfi_def_cfa_offset 4
 4806              		.cfi_offset 4, -4
 4807              		.loc 1 1371 30 view .LVU1669
 4808 0004 9A68     		ldr	r2, [r3, #8]
 4809              	.LBB766:
 4810              	.LBB767:
 4811              		.loc 1 120 20 view .LVU1670
 4812 0006 4468     		ldr	r4, [r0, #4]
 4813              	.LBE767:
 4814              	.LBE766:
 4815              		.loc 1 1371 37 view .LVU1671
 4816 0008 02F01F0C 		and	ip, r2, #31
 4817              	.LBB772:
 4818              	.LBB770:
 4819              		.loc 1 120 20 view .LVU1672
 4820 000c 6478     		ldrb	r4, [r4, #1]	@ zero_extendqisi2
 4821              	.LBE770:
 4822              	.LBE772:
 4823              		.loc 1 1371 12 view .LVU1673
 4824 000e 0CF1010C 		add	ip, ip, #1
 4825              	.LVL288:
 4826              		.loc 1 1372 3 is_stmt 1 view .LVU1674
 4827              		.loc 1 1374 3 view .LVU1675
 4828              	.LBB773:
 4829              	.LBI766:
 4830              		.loc 1 118 13 view .LVU1676
 4831              	.LBB771:
 4832              		.loc 1 120 3 view .LVU1677
 4833              		.loc 1 120 6 is_stmt 0 view .LVU1678
 4834 0012 1CB9     		cbnz	r4, .L307
 4835              	.LBB768:
 4836              	.LBI768:
 4837              		.loc 1 118 13 is_stmt 1 view .LVU1679
 4838              	.LVL289:
 4839              	.LBB769:
 4840              		.loc 1 121 5 view .LVU1680
 4841              		.loc 1 121 20 is_stmt 0 view .LVU1681
 4842 0014 1A68     		ldr	r2, [r3]
 4843 0016 42F40072 		orr	r2, r2, #512
ARM GAS  C:\Users\DEVELO~1\AppData\Local\Temp\cc5EUJSb.s 			page 86


 4844 001a 1A60     		str	r2, [r3]
 4845              	.LVL290:
 4846              	.L307:
 4847              		.loc 1 121 20 view .LVU1682
 4848              	.LBE769:
 4849              	.LBE768:
 4850              	.LBE771:
 4851              	.LBE773:
 4852              		.loc 1 1377 39 is_stmt 1 discriminator 1 view .LVU1683
 4853              		.loc 1 1377 20 is_stmt 0 discriminator 1 view .LVU1684
 4854 001c 5A69     		ldr	r2, [r3, #20]
 4855              		.loc 1 1377 39 discriminator 1 view .LVU1685
 4856 001e 9207     		lsls	r2, r2, #30
 4857 0020 FCD5     		bpl	.L307
 4858              		.loc 1 1382 3 is_stmt 1 view .LVU1686
 4859              		.loc 1 1382 6 is_stmt 0 view .LVU1687
 4860 0022 BCF1080F 		cmp	ip, #8
 4861 0026 18D8     		bhi	.L308
 4862              	.LBB774:
 4863              		.loc 1 1384 5 is_stmt 1 view .LVU1688
 4864              	.LVL291:
 4865              		.loc 1 1385 5 view .LVU1689
 4866              		.loc 1 1386 5 view .LVU1690
 4867              		.loc 1 1386 15 is_stmt 0 view .LVU1691
 4868 0028 C9B2     		uxtb	r1, r1
 4869              	.LVL292:
 4870              		.loc 1 1386 13 view .LVU1692
 4871 002a 83F82010 		strb	r1, [r3, #32]
 4872              		.loc 1 1387 5 is_stmt 1 view .LVU1693
 4873              		.loc 1 1387 17 is_stmt 0 view .LVU1694
 4874 002e C269     		ldr	r2, [r0, #28]
 4875              	.L309:
 4876              		.loc 1 1387 41 is_stmt 1 discriminator 1 view .LVU1695
 4877              		.loc 1 1387 22 is_stmt 0 discriminator 1 view .LVU1696
 4878 0030 5169     		ldr	r1, [r2, #20]
 4879              		.loc 1 1387 41 discriminator 1 view .LVU1697
 4880 0032 CC07     		lsls	r4, r1, #31
 4881 0034 FCD5     		bpl	.L309
 4882              		.loc 1 1389 5 is_stmt 1 view .LVU1698
 4883              	.LBE774:
 4884              	.LBB775:
 4885              	.LBB776:
 4886              		.loc 1 127 20 is_stmt 0 view .LVU1699
 4887 0036 4168     		ldr	r1, [r0, #4]
 4888              	.LBE776:
 4889              	.LBE775:
 4890              	.LBB780:
 4891              		.loc 1 1389 25 view .LVU1700
 4892 0038 93F83030 		ldrb	r3, [r3, #48]	@ zero_extendqisi2
 4893              	.LVL293:
 4894              		.loc 1 1389 25 view .LVU1701
 4895              	.LBE780:
 4896              	.LBB781:
 4897              	.LBB777:
 4898              		.loc 1 127 20 view .LVU1702
 4899 003c 4C78     		ldrb	r4, [r1, #1]	@ zero_extendqisi2
 4900              	.LBE777:
ARM GAS  C:\Users\DEVELO~1\AppData\Local\Temp\cc5EUJSb.s 			page 87


 4901              	.LBE781:
 4902              	.LBB782:
 4903              		.loc 1 1389 25 view .LVU1703
 4904 003e D8B2     		uxtb	r0, r3
 4905              	.LVL294:
 4906              	.L310:
 4907              		.loc 1 1389 25 view .LVU1704
 4908              	.LBE782:
 4909              		.loc 1 1408 3 is_stmt 1 view .LVU1705
 4910              	.LBB783:
 4911              	.LBI775:
 4912              		.loc 1 125 13 view .LVU1706
 4913              	.LBB778:
 4914              		.loc 1 127 3 view .LVU1707
 4915              		.loc 1 127 6 is_stmt 0 view .LVU1708
 4916 0040 34B9     		cbnz	r4, .L316
 4917              		.loc 1 128 5 is_stmt 1 view .LVU1709
 4918              		.loc 1 128 20 is_stmt 0 view .LVU1710
 4919 0042 1368     		ldr	r3, [r2]
 4920 0044 43F48063 		orr	r3, r3, #1024
 4921 0048 1360     		str	r3, [r2]
 4922              		.loc 1 129 5 is_stmt 1 view .LVU1711
 4923              	.L315:
 4924              		.loc 1 130 5 view .LVU1712
 4925              		.loc 1 129 46 view .LVU1713
 4926              		.loc 1 129 22 is_stmt 0 view .LVU1714
 4927 004a 1368     		ldr	r3, [r2]
 4928              		.loc 1 129 46 view .LVU1715
 4929 004c 9B05     		lsls	r3, r3, #22
 4930 004e FCD4     		bmi	.L315
 4931              	.L316:
 4932              		.loc 1 132 3 is_stmt 1 view .LVU1716
 4933              		.loc 1 132 19 is_stmt 0 view .LVU1717
 4934 0050 4FF0FF33 		mov	r3, #-1
 4935              	.LBE778:
 4936              	.LBE783:
 4937              		.loc 1 1412 1 view .LVU1718
 4938 0054 10BC     		pop	{r4}
 4939              		.cfi_remember_state
 4940              		.cfi_restore 4
 4941              		.cfi_def_cfa_offset 0
 4942              	.LBB784:
 4943              	.LBB779:
 4944              		.loc 1 132 19 view .LVU1719
 4945 0056 9361     		str	r3, [r2, #24]
 4946              	.LVL295:
 4947              		.loc 1 132 19 view .LVU1720
 4948              	.LBE779:
 4949              	.LBE784:
 4950              		.loc 1 1411 3 is_stmt 1 view .LVU1721
 4951              		.loc 1 1412 1 is_stmt 0 view .LVU1722
 4952 0058 7047     		bx	lr
 4953              	.LVL296:
 4954              	.L308:
 4955              		.cfi_restore_state
 4956              		.loc 1 1391 8 is_stmt 1 view .LVU1723
 4957              		.loc 1 1391 11 is_stmt 0 view .LVU1724
ARM GAS  C:\Users\DEVELO~1\AppData\Local\Temp\cc5EUJSb.s 			page 88


 4958 005a BCF1100F 		cmp	ip, #16
 4959 005e 08D8     		bhi	.L311
 4960              	.LBB785:
 4961              		.loc 1 1393 5 is_stmt 1 view .LVU1725
 4962              	.LVL297:
 4963              		.loc 1 1394 5 view .LVU1726
 4964              		.loc 1 1395 5 view .LVU1727
 4965              		.loc 1 1395 16 is_stmt 0 view .LVU1728
 4966 0060 89B2     		uxth	r1, r1
 4967              	.LVL298:
 4968              		.loc 1 1395 14 view .LVU1729
 4969 0062 1984     		strh	r1, [r3, #32]	@ movhi
 4970              		.loc 1 1396 5 is_stmt 1 view .LVU1730
 4971              	.L312:
 4972              		.loc 1 1396 41 discriminator 1 view .LVU1731
 4973              		.loc 1 1396 22 is_stmt 0 discriminator 1 view .LVU1732
 4974 0064 5A69     		ldr	r2, [r3, #20]
 4975              		.loc 1 1396 41 discriminator 1 view .LVU1733
 4976 0066 D107     		lsls	r1, r2, #31
 4977 0068 FCD5     		bpl	.L312
 4978              		.loc 1 1398 5 is_stmt 1 view .LVU1734
 4979              		.loc 1 1398 25 is_stmt 0 view .LVU1735
 4980 006a 188E     		ldrh	r0, [r3, #48]
 4981              	.LVL299:
 4982              		.loc 1 1398 25 view .LVU1736
 4983              	.LBE785:
 4984 006c 1A46     		mov	r2, r3
 4985              	.LBB786:
 4986 006e 80B2     		uxth	r0, r0
 4987              	.LVL300:
 4988              		.loc 1 1398 25 view .LVU1737
 4989              	.LBE786:
 4990 0070 E6E7     		b	.L310
 4991              	.LVL301:
 4992              	.L311:
 4993              		.loc 1 1402 5 is_stmt 1 view .LVU1738
 4994              		.loc 1 1402 21 is_stmt 0 view .LVU1739
 4995 0072 1962     		str	r1, [r3, #32]
 4996              		.loc 1 1403 5 is_stmt 1 view .LVU1740
 4997              	.L313:
 4998              		.loc 1 1403 41 discriminator 1 view .LVU1741
 4999              		.loc 1 1403 22 is_stmt 0 discriminator 1 view .LVU1742
 5000 0074 5A69     		ldr	r2, [r3, #20]
 5001              		.loc 1 1403 41 discriminator 1 view .LVU1743
 5002 0076 D207     		lsls	r2, r2, #31
 5003 0078 FCD5     		bpl	.L313
 5004              		.loc 1 1405 5 is_stmt 1 view .LVU1744
 5005              		.loc 1 1405 13 is_stmt 0 view .LVU1745
 5006 007a 186B     		ldr	r0, [r3, #48]
 5007              	.LVL302:
 5008              		.loc 1 1405 13 view .LVU1746
 5009 007c 1A46     		mov	r2, r3
 5010 007e DFE7     		b	.L310
 5011              		.cfi_endproc
 5012              	.LFE457:
 5013              		.size	spi_lld_polled_exchange, .-spi_lld_polled_exchange
 5014              		.global	SPID6
ARM GAS  C:\Users\DEVELO~1\AppData\Local\Temp\cc5EUJSb.s 			page 89


 5015              		.global	SPID5
 5016              		.global	SPID3
 5017              		.global	SPID2
 5018              		.global	SPID1
 5019              		.section	.bss.SPID1,"aw",%nobits
 5020              		.align	2
 5021              		.set	.LANCHOR0,. + 0
 5022              		.type	SPID1, %object
 5023              		.size	SPID1, 60
 5024              	SPID1:
 5025 0000 00000000 		.space	60
 5025      00000000 
 5025      00000000 
 5025      00000000 
 5025      00000000 
 5026              		.section	.bss.SPID2,"aw",%nobits
 5027              		.align	2
 5028              		.set	.LANCHOR1,. + 0
 5029              		.type	SPID2, %object
 5030              		.size	SPID2, 60
 5031              	SPID2:
 5032 0000 00000000 		.space	60
 5032      00000000 
 5032      00000000 
 5032      00000000 
 5032      00000000 
 5033              		.section	.bss.SPID3,"aw",%nobits
 5034              		.align	2
 5035              		.set	.LANCHOR2,. + 0
 5036              		.type	SPID3, %object
 5037              		.size	SPID3, 60
 5038              	SPID3:
 5039 0000 00000000 		.space	60
 5039      00000000 
 5039      00000000 
 5039      00000000 
 5039      00000000 
 5040              		.section	.bss.SPID5,"aw",%nobits
 5041              		.align	2
 5042              		.set	.LANCHOR3,. + 0
 5043              		.type	SPID5, %object
 5044              		.size	SPID5, 60
 5045              	SPID5:
 5046 0000 00000000 		.space	60
 5046      00000000 
 5046      00000000 
 5046      00000000 
 5046      00000000 
 5047              		.section	.bss.SPID6,"aw",%nobits
 5048              		.align	2
 5049              		.set	.LANCHOR4,. + 0
 5050              		.type	SPID6, %object
 5051              		.size	SPID6, 60
 5052              	SPID6:
 5053 0000 00000000 		.space	60
 5053      00000000 
 5053      00000000 
ARM GAS  C:\Users\DEVELO~1\AppData\Local\Temp\cc5EUJSb.s 			page 90


 5053      00000000 
 5053      00000000 
 5054              		.section	.rodata.__func__.0,"a"
 5055              		.align	2
 5056              		.set	.LANCHOR9,. + 0
 5057              		.type	__func__.0, %object
 5058              		.size	__func__.0, 10
 5059              	__func__.0:
 5060 0000 56656374 		.ascii	"Vector198\000"
 5060      6F723139 
 5060      3800
 5061              		.section	.rodata.__func__.1,"a"
 5062              		.align	2
 5063              		.set	.LANCHOR8,. + 0
 5064              		.type	__func__.1, %object
 5065              		.size	__func__.1, 10
 5066              	__func__.1:
 5067 0000 56656374 		.ascii	"Vector194\000"
 5067      6F723139 
 5067      3400
 5068              		.section	.rodata.__func__.2,"a"
 5069              		.align	2
 5070              		.set	.LANCHOR7,. + 0
 5071              		.type	__func__.2, %object
 5072              		.size	__func__.2, 10
 5073              	__func__.2:
 5074 0000 56656374 		.ascii	"Vector10C\000"
 5074      6F723130 
 5074      4300
 5075              		.section	.rodata.__func__.3,"a"
 5076              		.align	2
 5077              		.set	.LANCHOR6,. + 0
 5078              		.type	__func__.3, %object
 5079              		.size	__func__.3, 9
 5080              	__func__.3:
 5081 0000 56656374 		.ascii	"VectorD0\000"
 5081      6F724430 
 5081      00
 5082              		.section	.rodata.__func__.4,"a"
 5083              		.align	2
 5084              		.set	.LANCHOR5,. + 0
 5085              		.type	__func__.4, %object
 5086              		.size	__func__.4, 9
 5087              	__func__.4:
 5088 0000 56656374 		.ascii	"VectorCC\000"
 5088      6F724343 
 5088      00
 5089              		.text
 5090              	.Letext0:
 5091              		.file 7 "c:\\chibistudio\\tools\\gnu tools arm embedded\\11.3 2022.08\\lib\\gcc\\arm-none-eabi\\11
 5092              		.file 8 "c:\\chibistudio\\tools\\gnu tools arm embedded\\11.3 2022.08\\arm-none-eabi\\include\\mac
 5093              		.file 9 "c:\\chibistudio\\tools\\gnu tools arm embedded\\11.3 2022.08\\arm-none-eabi\\include\\sys
 5094              		.file 10 "c:\\chibistudio\\tools\\gnu tools arm embedded\\11.3 2022.08\\arm-none-eabi\\include\\st
 5095              		.file 11 "../../../os/common/ports/ARM-common/chtypes.h"
 5096              		.file 12 "../../../os/rt/include/chearly.h"
 5097              		.file 13 "../../../os/rt/include/chobjects.h"
 5098              		.file 14 "../../../os/rt/include/chrfcu.h"
ARM GAS  C:\Users\DEVELO~1\AppData\Local\Temp\cc5EUJSb.s 			page 91


 5099              		.file 15 "../../../os/rt/include/chdebug.h"
 5100              		.file 16 "../../../os/rt/include/chtime.h"
 5101              		.file 17 "../../../os/rt/include/chlists.h"
 5102              		.file 18 "../../../os/rt/include/chtrace.h"
 5103              		.file 19 "../../../os/common/ext/ST/STM32H7xx/stm32h743xx.h"
 5104              		.file 20 "../../../os/rt/include/chsem.h"
 5105              		.file 21 "../../../os/rt/include/chmtx.h"
 5106              		.file 22 "../../../os/hal/ports/STM32/LLD/DMAv2/stm32_dma.h"
 5107              		.file 23 "../../../os/hal/ports/STM32/LLD/BDMAv1/stm32_bdma.h"
 5108              		.file 24 "../../../os/hal/ports/STM32/LLD/GPIOv2/stm32_gpio.h"
 5109              		.file 25 "../../../os/hal/ports/STM32/LLD/GPIOv2/hal_pal_lld.h"
 5110              		.file 26 "../../../os/hal/include/hal_spi_v2.h"
 5111              		.file 27 "../../../os/hal/ports/STM32/LLD/SPIv3/hal_spi_v2_lld.h"
 5112              		.file 28 "../../../os/hal/ports/common/ARMCMx/nvic.h"
 5113              		.file 29 "../../../os/rt/include/chthreads.h"
 5114              		.section	.debug_info,"",%progbits
 5115              	.Ldebug_info0:
 5116 0000 6C3D0000 		.4byte	0x3d6c
 5117 0004 0500     		.2byte	0x5
 5118 0006 01       		.byte	0x1
 5119 0007 04       		.byte	0x4
 5120 0008 00000000 		.4byte	.Ldebug_abbrev0
 5121 000c 48       		.uleb128 0x48
 5122 000d 21090000 		.4byte	.LASF338
 5123 0011 1D       		.byte	0x1d
 5124 0012 F70D0000 		.4byte	.LASF339
 5125 0016 70020000 		.4byte	.LASF340
 5126 001a 6D010000 		.4byte	.LLRL179
 5127 001e 00000000 		.4byte	0
 5128 0022 00000000 		.4byte	.Ldebug_line0
 5129 0026 49       		.uleb128 0x49
 5130 0027 04       		.byte	0x4
 5131 0028 05       		.byte	0x5
 5132 0029 696E7400 		.ascii	"int\000"
 5133 002d 08       		.uleb128 0x8
 5134 002e E9040000 		.4byte	.LASF4
 5135 0032 07       		.byte	0x7
 5136 0033 D1       		.byte	0xd1
 5137 0034 17       		.byte	0x17
 5138 0035 39000000 		.4byte	0x39
 5139 0039 13       		.uleb128 0x13
 5140 003a 04       		.byte	0x4
 5141 003b 07       		.byte	0x7
 5142 003c D7000000 		.4byte	.LASF0
 5143 0040 13       		.uleb128 0x13
 5144 0041 08       		.byte	0x8
 5145 0042 05       		.byte	0x5
 5146 0043 4A070000 		.4byte	.LASF1
 5147 0047 13       		.uleb128 0x13
 5148 0048 08       		.byte	0x8
 5149 0049 04       		.byte	0x4
 5150 004a A3080000 		.4byte	.LASF2
 5151 004e 13       		.uleb128 0x13
 5152 004f 01       		.byte	0x1
 5153 0050 06       		.byte	0x6
 5154 0051 D20D0000 		.4byte	.LASF3
 5155 0055 08       		.uleb128 0x8
ARM GAS  C:\Users\DEVELO~1\AppData\Local\Temp\cc5EUJSb.s 			page 92


 5156 0056 6C0B0000 		.4byte	.LASF5
 5157 005a 08       		.byte	0x8
 5158 005b 2B       		.byte	0x2b
 5159 005c 18       		.byte	0x18
 5160 005d 61000000 		.4byte	0x61
 5161 0061 13       		.uleb128 0x13
 5162 0062 01       		.byte	0x1
 5163 0063 08       		.byte	0x8
 5164 0064 9D0C0000 		.4byte	.LASF6
 5165 0068 13       		.uleb128 0x13
 5166 0069 02       		.byte	0x2
 5167 006a 05       		.byte	0x5
 5168 006b 210A0000 		.4byte	.LASF7
 5169 006f 08       		.uleb128 0x8
 5170 0070 1D040000 		.4byte	.LASF8
 5171 0074 08       		.byte	0x8
 5172 0075 39       		.byte	0x39
 5173 0076 19       		.byte	0x19
 5174 0077 7B000000 		.4byte	0x7b
 5175 007b 13       		.uleb128 0x13
 5176 007c 02       		.byte	0x2
 5177 007d 07       		.byte	0x7
 5178 007e 2E0E0000 		.4byte	.LASF9
 5179 0082 08       		.uleb128 0x8
 5180 0083 24060000 		.4byte	.LASF10
 5181 0087 08       		.byte	0x8
 5182 0088 4D       		.byte	0x4d
 5183 0089 18       		.byte	0x18
 5184 008a 8E000000 		.4byte	0x8e
 5185 008e 13       		.uleb128 0x13
 5186 008f 04       		.byte	0x4
 5187 0090 05       		.byte	0x5
 5188 0091 0A000000 		.4byte	.LASF11
 5189 0095 08       		.uleb128 0x8
 5190 0096 B30C0000 		.4byte	.LASF12
 5191 009a 08       		.byte	0x8
 5192 009b 4F       		.byte	0x4f
 5193 009c 19       		.byte	0x19
 5194 009d A1000000 		.4byte	0xa1
 5195 00a1 13       		.uleb128 0x13
 5196 00a2 04       		.byte	0x4
 5197 00a3 07       		.byte	0x7
 5198 00a4 D50B0000 		.4byte	.LASF13
 5199 00a8 08       		.uleb128 0x8
 5200 00a9 9A060000 		.4byte	.LASF14
 5201 00ad 08       		.byte	0x8
 5202 00ae 69       		.byte	0x69
 5203 00af 19       		.byte	0x19
 5204 00b0 B4000000 		.4byte	0xb4
 5205 00b4 13       		.uleb128 0x13
 5206 00b5 08       		.byte	0x8
 5207 00b6 07       		.byte	0x7
 5208 00b7 C0030000 		.4byte	.LASF15
 5209 00bb 08       		.uleb128 0x8
 5210 00bc AE060000 		.4byte	.LASF16
 5211 00c0 09       		.byte	0x9
 5212 00c1 18       		.byte	0x18
ARM GAS  C:\Users\DEVELO~1\AppData\Local\Temp\cc5EUJSb.s 			page 93


 5213 00c2 13       		.byte	0x13
 5214 00c3 55000000 		.4byte	0x55
 5215 00c7 29       		.uleb128 0x29
 5216 00c8 BB000000 		.4byte	0xbb
 5217 00cc 08       		.uleb128 0x8
 5218 00cd AF080000 		.4byte	.LASF17
 5219 00d1 09       		.byte	0x9
 5220 00d2 24       		.byte	0x24
 5221 00d3 14       		.byte	0x14
 5222 00d4 6F000000 		.4byte	0x6f
 5223 00d8 29       		.uleb128 0x29
 5224 00d9 CC000000 		.4byte	0xcc
 5225 00dd 08       		.uleb128 0x8
 5226 00de 0D0C0000 		.4byte	.LASF18
 5227 00e2 09       		.byte	0x9
 5228 00e3 2C       		.byte	0x2c
 5229 00e4 13       		.byte	0x13
 5230 00e5 82000000 		.4byte	0x82
 5231 00e9 08       		.uleb128 0x8
 5232 00ea E9000000 		.4byte	.LASF19
 5233 00ee 09       		.byte	0x9
 5234 00ef 30       		.byte	0x30
 5235 00f0 14       		.byte	0x14
 5236 00f1 95000000 		.4byte	0x95
 5237 00f5 29       		.uleb128 0x29
 5238 00f6 E9000000 		.4byte	0xe9
 5239 00fa 08       		.uleb128 0x8
 5240 00fb 850D0000 		.4byte	.LASF20
 5241 00ff 09       		.byte	0x9
 5242 0100 3C       		.byte	0x3c
 5243 0101 14       		.byte	0x14
 5244 0102 A8000000 		.4byte	0xa8
 5245 0106 29       		.uleb128 0x29
 5246 0107 FA000000 		.4byte	0xfa
 5247 010b 08       		.uleb128 0x8
 5248 010c 58070000 		.4byte	.LASF21
 5249 0110 0A       		.byte	0xa
 5250 0111 34       		.byte	0x34
 5251 0112 1F       		.byte	0x1f
 5252 0113 39000000 		.4byte	0x39
 5253 0117 08       		.uleb128 0x8
 5254 0118 920A0000 		.4byte	.LASF22
 5255 011c 0B       		.byte	0xb
 5256 011d 48       		.byte	0x48
 5257 011e 1D       		.byte	0x1d
 5258 011f FA000000 		.4byte	0xfa
 5259 0123 08       		.uleb128 0x8
 5260 0124 410E0000 		.4byte	.LASF23
 5261 0128 0C       		.byte	0xc
 5262 0129 50       		.byte	0x50
 5263 012a 19       		.byte	0x19
 5264 012b 17010000 		.4byte	0x117
 5265 012f 08       		.uleb128 0x8
 5266 0130 5D080000 		.4byte	.LASF24
 5267 0134 0C       		.byte	0xc
 5268 0135 53       		.byte	0x53
 5269 0136 19       		.byte	0x19
ARM GAS  C:\Users\DEVELO~1\AppData\Local\Temp\cc5EUJSb.s 			page 94


 5270 0137 BB000000 		.4byte	0xbb
 5271 013b 08       		.uleb128 0x8
 5272 013c 67060000 		.4byte	.LASF25
 5273 0140 0C       		.byte	0xc
 5274 0141 54       		.byte	0x54
 5275 0142 19       		.byte	0x19
 5276 0143 BB000000 		.4byte	0xbb
 5277 0147 08       		.uleb128 0x8
 5278 0148 B40B0000 		.4byte	.LASF26
 5279 014c 0C       		.byte	0xc
 5280 014d 55       		.byte	0x55
 5281 014e 19       		.byte	0x19
 5282 014f BB000000 		.4byte	0xbb
 5283 0153 08       		.uleb128 0x8
 5284 0154 86030000 		.4byte	.LASF27
 5285 0158 0C       		.byte	0xc
 5286 0159 57       		.byte	0x57
 5287 015a 19       		.byte	0x19
 5288 015b E9000000 		.4byte	0xe9
 5289 015f 08       		.uleb128 0x8
 5290 0160 65070000 		.4byte	.LASF28
 5291 0164 0C       		.byte	0xc
 5292 0165 58       		.byte	0x58
 5293 0166 19       		.byte	0x19
 5294 0167 DD000000 		.4byte	0xdd
 5295 016b 08       		.uleb128 0x8
 5296 016c 21030000 		.4byte	.LASF29
 5297 0170 0C       		.byte	0xc
 5298 0171 5A       		.byte	0x5a
 5299 0172 19       		.byte	0x19
 5300 0173 E9000000 		.4byte	0xe9
 5301 0177 08       		.uleb128 0x8
 5302 0178 28040000 		.4byte	.LASF30
 5303 017c 0C       		.byte	0xc
 5304 017d 5C       		.byte	0x5c
 5305 017e 19       		.byte	0x19
 5306 017f DD000000 		.4byte	0xdd
 5307 0183 08       		.uleb128 0x8
 5308 0184 510F0000 		.4byte	.LASF31
 5309 0188 0C       		.byte	0xc
 5310 0189 80       		.byte	0x80
 5311 018a 12       		.byte	0x12
 5312 018b 39000000 		.4byte	0x39
 5313 018f 08       		.uleb128 0x8
 5314 0190 B5040000 		.4byte	.LASF32
 5315 0194 0C       		.byte	0xc
 5316 0195 85       		.byte	0x85
 5317 0196 1A       		.byte	0x1a
 5318 0197 9B010000 		.4byte	0x19b
 5319 019b 10       		.uleb128 0x10
 5320 019c EF060000 		.4byte	.LASF47
 5321 01a0 48       		.byte	0x48
 5322 01a1 0D       		.byte	0xd
 5323 01a2 9C       		.byte	0x9c
 5324 01a3 08       		.byte	0x8
 5325 01a4 7E020000 		.4byte	0x27e
 5326 01a8 0F       		.uleb128 0xf
ARM GAS  C:\Users\DEVELO~1\AppData\Local\Temp\cc5EUJSb.s 			page 95


 5327 01a9 68647200 		.ascii	"hdr\000"
 5328 01ad 0D       		.byte	0xd
 5329 01ae AD       		.byte	0xad
 5330 01af 05       		.byte	0x5
 5331 01b0 3C0D0000 		.4byte	0xd3c
 5332 01b4 00       		.byte	0
 5333 01b5 0F       		.uleb128 0xf
 5334 01b6 63747800 		.ascii	"ctx\000"
 5335 01ba 0D       		.byte	0xd
 5336 01bb B1       		.byte	0xb1
 5337 01bc 21       		.byte	0x21
 5338 01bd A70C0000 		.4byte	0xca7
 5339 01c1 0C       		.byte	0xc
 5340 01c2 05       		.uleb128 0x5
 5341 01c3 34070000 		.4byte	.LASF33
 5342 01c7 0D       		.byte	0xd
 5343 01c8 B6       		.byte	0xb6
 5344 01c9 21       		.byte	0x21
 5345 01ca CC030000 		.4byte	0x3cc
 5346 01ce 10       		.byte	0x10
 5347 01cf 05       		.uleb128 0x5
 5348 01d0 62040000 		.4byte	.LASF34
 5349 01d4 0D       		.byte	0xd
 5350 01d5 BB       		.byte	0xbb
 5351 01d6 22       		.byte	0x22
 5352 01d7 400E0000 		.4byte	0xe40
 5353 01db 18       		.byte	0x18
 5354 01dc 05       		.uleb128 0x5
 5355 01dd 760B0000 		.4byte	.LASF35
 5356 01e1 0D       		.byte	0xd
 5357 01e2 C0       		.byte	0xc0
 5358 01e3 22       		.byte	0x22
 5359 01e4 66030000 		.4byte	0x366
 5360 01e8 1C       		.byte	0x1c
 5361 01e9 05       		.uleb128 0x5
 5362 01ea 4C060000 		.4byte	.LASF36
 5363 01ee 0D       		.byte	0xd
 5364 01ef C9       		.byte	0xc9
 5365 01f0 22       		.byte	0x22
 5366 01f1 450E0000 		.4byte	0xe45
 5367 01f5 20       		.byte	0x20
 5368 01f6 05       		.uleb128 0x5
 5369 01f7 540D0000 		.4byte	.LASF37
 5370 01fb 0D       		.byte	0xd
 5371 01fc CE       		.byte	0xce
 5372 01fd 21       		.byte	0x21
 5373 01fe 3B010000 		.4byte	0x13b
 5374 0202 24       		.byte	0x24
 5375 0203 05       		.uleb128 0x5
 5376 0204 A4000000 		.4byte	.LASF38
 5377 0208 0D       		.byte	0xd
 5378 0209 D2       		.byte	0xd2
 5379 020a 21       		.byte	0x21
 5380 020b 2F010000 		.4byte	0x12f
 5381 020f 25       		.byte	0x25
 5382 0210 05       		.uleb128 0x5
 5383 0211 2D010000 		.4byte	.LASF39
ARM GAS  C:\Users\DEVELO~1\AppData\Local\Temp\cc5EUJSb.s 			page 96


 5384 0215 0D       		.byte	0xd
 5385 0216 D7       		.byte	0xd7
 5386 0217 21       		.byte	0x21
 5387 0218 47010000 		.4byte	0x147
 5388 021c 26       		.byte	0x26
 5389 021d 0A       		.uleb128 0xa
 5390 021e 7500     		.ascii	"u\000"
 5391 0220 0D       		.byte	0xd
 5392 0221 2801     		.2byte	0x128
 5393 0223 21       		.byte	0x21
 5394 0224 6A0D0000 		.4byte	0xd6a
 5395 0228 28       		.byte	0x28
 5396 0229 03       		.uleb128 0x3
 5397 022a BE0C0000 		.4byte	.LASF40
 5398 022e 0D       		.byte	0xd
 5399 022f 2D01     		.2byte	0x12d
 5400 0231 21       		.byte	0x21
 5401 0232 A0030000 		.4byte	0x3a0
 5402 0236 2C       		.byte	0x2c
 5403 0237 03       		.uleb128 0x3
 5404 0238 D0060000 		.4byte	.LASF41
 5405 023c 0D       		.byte	0xd
 5406 023d 3301     		.2byte	0x133
 5407 023f 21       		.byte	0x21
 5408 0240 CC030000 		.4byte	0x3cc
 5409 0244 30       		.byte	0x30
 5410 0245 03       		.uleb128 0x3
 5411 0246 CE000000 		.4byte	.LASF42
 5412 024a 0D       		.byte	0xd
 5413 024b 3901     		.2byte	0x139
 5414 024d 21       		.byte	0x21
 5415 024e 6B010000 		.4byte	0x16b
 5416 0252 38       		.byte	0x38
 5417 0253 03       		.uleb128 0x3
 5418 0254 89040000 		.4byte	.LASF43
 5419 0258 0D       		.byte	0xd
 5420 0259 4001     		.2byte	0x140
 5421 025b 22       		.byte	0x22
 5422 025c 3B0E0000 		.4byte	0xe3b
 5423 0260 3C       		.byte	0x3c
 5424 0261 03       		.uleb128 0x3
 5425 0262 B4000000 		.4byte	.LASF44
 5426 0266 0D       		.byte	0xd
 5427 0267 4401     		.2byte	0x144
 5428 0269 21       		.byte	0x21
 5429 026a 53010000 		.4byte	0x153
 5430 026e 40       		.byte	0x40
 5431 026f 03       		.uleb128 0x3
 5432 0270 610F0000 		.4byte	.LASF45
 5433 0274 0D       		.byte	0xd
 5434 0275 4B01     		.2byte	0x14b
 5435 0277 22       		.byte	0x22
 5436 0278 BA040000 		.4byte	0x4ba
 5437 027c 44       		.byte	0x44
 5438 027d 00       		.byte	0
 5439 027e 08       		.uleb128 0x8
 5440 027f 770D0000 		.4byte	.LASF46
ARM GAS  C:\Users\DEVELO~1\AppData\Local\Temp\cc5EUJSb.s 			page 97


 5441 0283 0C       		.byte	0xc
 5442 0284 8A       		.byte	0x8a
 5443 0285 1F       		.byte	0x1f
 5444 0286 8A020000 		.4byte	0x28a
 5445 028a 4A       		.uleb128 0x4a
 5446 028b 76050000 		.4byte	.LASF48
 5447 028f 9008     		.2byte	0x890
 5448 0291 0D       		.byte	0xd
 5449 0292 8A01     		.2byte	0x18a
 5450 0294 08       		.byte	0x8
 5451 0295 18030000 		.4byte	0x318
 5452 0299 03       		.uleb128 0x3
 5453 029a 180B0000 		.4byte	.LASF49
 5454 029e 0D       		.byte	0xd
 5455 029f 8E01     		.2byte	0x18e
 5456 02a1 21       		.byte	0x21
 5457 02a2 750E0000 		.4byte	0xe75
 5458 02a6 00       		.byte	0
 5459 02a7 03       		.uleb128 0x3
 5460 02a8 26010000 		.4byte	.LASF50
 5461 02ac 0D       		.byte	0xd
 5462 02ad 9201     		.2byte	0x192
 5463 02af 21       		.byte	0x21
 5464 02b0 FD0C0000 		.4byte	0xcfd
 5465 02b4 10       		.byte	0x10
 5466 02b5 03       		.uleb128 0x3
 5467 02b6 980D0000 		.4byte	.LASF51
 5468 02ba 0D       		.byte	0xd
 5469 02bb 9901     		.2byte	0x199
 5470 02bd 21       		.byte	0x21
 5471 02be 240D0000 		.4byte	0xd24
 5472 02c2 28       		.byte	0x28
 5473 02c3 03       		.uleb128 0x3
 5474 02c4 12010000 		.4byte	.LASF52
 5475 02c8 0D       		.byte	0xd
 5476 02c9 9E01     		.2byte	0x19e
 5477 02cb 21       		.byte	0x21
 5478 02cc 83010000 		.4byte	0x183
 5479 02d0 30       		.byte	0x30
 5480 02d1 03       		.uleb128 0x3
 5481 02d2 A8040000 		.4byte	.LASF53
 5482 02d6 0D       		.byte	0xd
 5483 02d7 A401     		.2byte	0x1a4
 5484 02d9 21       		.byte	0x21
 5485 02da 3F030000 		.4byte	0x33f
 5486 02de 34       		.byte	0x34
 5487 02df 03       		.uleb128 0x3
 5488 02e0 1A090000 		.4byte	.LASF54
 5489 02e4 0D       		.byte	0xd
 5490 02e5 A901     		.2byte	0x1a9
 5491 02e7 22       		.byte	0x22
 5492 02e8 E90E0000 		.4byte	0xee9
 5493 02ec 38       		.byte	0x38
 5494 02ed 03       		.uleb128 0x3
 5495 02ee 490D0000 		.4byte	.LASF55
 5496 02f2 0D       		.byte	0xd
 5497 02f3 AD01     		.2byte	0x1ad
ARM GAS  C:\Users\DEVELO~1\AppData\Local\Temp\cc5EUJSb.s 			page 98


 5498 02f5 21       		.byte	0x21
 5499 02f6 8F010000 		.4byte	0x18f
 5500 02fa 3C       		.byte	0x3c
 5501 02fb 0A       		.uleb128 0xa
 5502 02fc 64626700 		.ascii	"dbg\000"
 5503 0300 0D       		.byte	0xd
 5504 0301 B101     		.2byte	0x1b1
 5505 0303 21       		.byte	0x21
 5506 0304 7C030000 		.4byte	0x37c
 5507 0308 84       		.byte	0x84
 5508 0309 03       		.uleb128 0x3
 5509 030a 220C0000 		.4byte	.LASF56
 5510 030e 0D       		.byte	0xd
 5511 030f B601     		.2byte	0x1b6
 5512 0311 21       		.byte	0x21
 5513 0312 1C060000 		.4byte	0x61c
 5514 0316 88       		.byte	0x88
 5515 0317 00       		.byte	0
 5516 0318 08       		.uleb128 0x8
 5517 0319 18060000 		.4byte	.LASF57
 5518 031d 0E       		.byte	0xe
 5519 031e 3F       		.byte	0x3f
 5520 031f 12       		.byte	0x12
 5521 0320 E9000000 		.4byte	0xe9
 5522 0324 10       		.uleb128 0x10
 5523 0325 56050000 		.4byte	.LASF58
 5524 0329 04       		.byte	0x4
 5525 032a 0E       		.byte	0xe
 5526 032b 44       		.byte	0x44
 5527 032c 10       		.byte	0x10
 5528 032d 3F030000 		.4byte	0x33f
 5529 0331 05       		.uleb128 0x5
 5530 0332 F4070000 		.4byte	.LASF59
 5531 0336 0E       		.byte	0xe
 5532 0337 48       		.byte	0x48
 5533 0338 21       		.byte	0x21
 5534 0339 18030000 		.4byte	0x318
 5535 033d 00       		.byte	0
 5536 033e 00       		.byte	0
 5537 033f 08       		.uleb128 0x8
 5538 0340 150C0000 		.4byte	.LASF60
 5539 0344 0E       		.byte	0xe
 5540 0345 49       		.byte	0x49
 5541 0346 03       		.byte	0x3
 5542 0347 24030000 		.4byte	0x324
 5543 034b 10       		.uleb128 0x10
 5544 034c 60020000 		.4byte	.LASF61
 5545 0350 04       		.byte	0x4
 5546 0351 0F       		.byte	0xf
 5547 0352 3E       		.byte	0x3e
 5548 0353 10       		.byte	0x10
 5549 0354 66030000 		.4byte	0x366
 5550 0358 05       		.uleb128 0x5
 5551 0359 27080000 		.4byte	.LASF62
 5552 035d 0F       		.byte	0xf
 5553 035e 46       		.byte	0x46
 5554 035f 24       		.byte	0x24
ARM GAS  C:\Users\DEVELO~1\AppData\Local\Temp\cc5EUJSb.s 			page 99


 5555 0360 6B030000 		.4byte	0x36b
 5556 0364 00       		.byte	0
 5557 0365 00       		.byte	0
 5558 0366 09       		.uleb128 0x9
 5559 0367 77030000 		.4byte	0x377
 5560 036b 29       		.uleb128 0x29
 5561 036c 66030000 		.4byte	0x366
 5562 0370 13       		.uleb128 0x13
 5563 0371 01       		.byte	0x1
 5564 0372 08       		.byte	0x8
 5565 0373 03060000 		.4byte	.LASF63
 5566 0377 11       		.uleb128 0x11
 5567 0378 70030000 		.4byte	0x370
 5568 037c 08       		.uleb128 0x8
 5569 037d 3B070000 		.4byte	.LASF64
 5570 0381 0F       		.byte	0xf
 5571 0382 51       		.byte	0x51
 5572 0383 03       		.byte	0x3
 5573 0384 4B030000 		.4byte	0x34b
 5574 0388 08       		.uleb128 0x8
 5575 0389 AA000000 		.4byte	.LASF65
 5576 038d 10       		.byte	0x10
 5577 038e 6D       		.byte	0x6d
 5578 038f 12       		.byte	0x12
 5579 0390 E9000000 		.4byte	0xe9
 5580 0394 08       		.uleb128 0x8
 5581 0395 11080000 		.4byte	.LASF66
 5582 0399 10       		.byte	0x10
 5583 039a 79       		.byte	0x79
 5584 039b 12       		.byte	0x12
 5585 039c E9000000 		.4byte	0xe9
 5586 03a0 08       		.uleb128 0x8
 5587 03a1 B8080000 		.4byte	.LASF67
 5588 03a5 11       		.byte	0x11
 5589 03a6 32       		.byte	0x32
 5590 03a7 18       		.byte	0x18
 5591 03a8 AC030000 		.4byte	0x3ac
 5592 03ac 10       		.uleb128 0x10
 5593 03ad 1A020000 		.4byte	.LASF68
 5594 03b1 04       		.byte	0x4
 5595 03b2 11       		.byte	0x11
 5596 03b3 38       		.byte	0x38
 5597 03b4 08       		.byte	0x8
 5598 03b5 C7030000 		.4byte	0x3c7
 5599 03b9 05       		.uleb128 0x5
 5600 03ba E4000000 		.4byte	.LASF69
 5601 03be 11       		.byte	0x11
 5602 03bf 39       		.byte	0x39
 5603 03c0 1A       		.byte	0x1a
 5604 03c1 C7030000 		.4byte	0x3c7
 5605 03c5 00       		.byte	0
 5606 03c6 00       		.byte	0
 5607 03c7 09       		.uleb128 0x9
 5608 03c8 A0030000 		.4byte	0x3a0
 5609 03cc 08       		.uleb128 0x8
 5610 03cd B8010000 		.4byte	.LASF70
 5611 03d1 11       		.byte	0x11
ARM GAS  C:\Users\DEVELO~1\AppData\Local\Temp\cc5EUJSb.s 			page 100


 5612 03d2 3F       		.byte	0x3f
 5613 03d3 19       		.byte	0x19
 5614 03d4 D8030000 		.4byte	0x3d8
 5615 03d8 10       		.uleb128 0x10
 5616 03d9 720C0000 		.4byte	.LASF71
 5617 03dd 08       		.byte	0x8
 5618 03de 11       		.byte	0x11
 5619 03df 45       		.byte	0x45
 5620 03e0 08       		.byte	0x8
 5621 03e1 00040000 		.4byte	0x400
 5622 03e5 05       		.uleb128 0x5
 5623 03e6 E4000000 		.4byte	.LASF69
 5624 03ea 11       		.byte	0x11
 5625 03eb 46       		.byte	0x46
 5626 03ec 1A       		.byte	0x1a
 5627 03ed 00040000 		.4byte	0x400
 5628 03f1 00       		.byte	0
 5629 03f2 05       		.uleb128 0x5
 5630 03f3 EB010000 		.4byte	.LASF72
 5631 03f7 11       		.byte	0x11
 5632 03f8 47       		.byte	0x47
 5633 03f9 1A       		.byte	0x1a
 5634 03fa 00040000 		.4byte	0x400
 5635 03fe 04       		.byte	0x4
 5636 03ff 00       		.byte	0
 5637 0400 09       		.uleb128 0x9
 5638 0401 CC030000 		.4byte	0x3cc
 5639 0405 08       		.uleb128 0x8
 5640 0406 19050000 		.4byte	.LASF73
 5641 040a 11       		.byte	0x11
 5642 040b 4E       		.byte	0x4e
 5643 040c 22       		.byte	0x22
 5644 040d 11040000 		.4byte	0x411
 5645 0411 10       		.uleb128 0x10
 5646 0412 360C0000 		.4byte	.LASF74
 5647 0416 0C       		.byte	0xc
 5648 0417 11       		.byte	0x11
 5649 0418 55       		.byte	0x55
 5650 0419 08       		.byte	0x8
 5651 041a 46040000 		.4byte	0x446
 5652 041e 05       		.uleb128 0x5
 5653 041f E4000000 		.4byte	.LASF69
 5654 0423 11       		.byte	0x11
 5655 0424 56       		.byte	0x56
 5656 0425 1A       		.byte	0x1a
 5657 0426 46040000 		.4byte	0x446
 5658 042a 00       		.byte	0
 5659 042b 05       		.uleb128 0x5
 5660 042c EB010000 		.4byte	.LASF72
 5661 0430 11       		.byte	0x11
 5662 0431 57       		.byte	0x57
 5663 0432 1A       		.byte	0x1a
 5664 0433 46040000 		.4byte	0x446
 5665 0437 04       		.byte	0x4
 5666 0438 05       		.uleb128 0x5
 5667 0439 D0050000 		.4byte	.LASF75
 5668 043d 11       		.byte	0x11
ARM GAS  C:\Users\DEVELO~1\AppData\Local\Temp\cc5EUJSb.s 			page 101


 5669 043e 58       		.byte	0x58
 5670 043f 19       		.byte	0x19
 5671 0440 53010000 		.4byte	0x153
 5672 0444 08       		.byte	0x8
 5673 0445 00       		.byte	0
 5674 0446 09       		.uleb128 0x9
 5675 0447 05040000 		.4byte	0x405
 5676 044b 08       		.uleb128 0x8
 5677 044c 08060000 		.4byte	.LASF76
 5678 0450 11       		.byte	0x11
 5679 0451 5F       		.byte	0x5f
 5680 0452 1E       		.byte	0x1e
 5681 0453 57040000 		.4byte	0x457
 5682 0457 10       		.uleb128 0x10
 5683 0458 05030000 		.4byte	.LASF77
 5684 045c 0C       		.byte	0xc
 5685 045d 11       		.byte	0x11
 5686 045e 64       		.byte	0x64
 5687 045f 08       		.byte	0x8
 5688 0460 8C040000 		.4byte	0x48c
 5689 0464 05       		.uleb128 0x5
 5690 0465 E4000000 		.4byte	.LASF69
 5691 0469 11       		.byte	0x11
 5692 046a 65       		.byte	0x65
 5693 046b 1A       		.byte	0x1a
 5694 046c 8C040000 		.4byte	0x48c
 5695 0470 00       		.byte	0
 5696 0471 05       		.uleb128 0x5
 5697 0472 EB010000 		.4byte	.LASF72
 5698 0476 11       		.byte	0x11
 5699 0477 66       		.byte	0x66
 5700 0478 1A       		.byte	0x1a
 5701 0479 8C040000 		.4byte	0x48c
 5702 047d 04       		.byte	0x4
 5703 047e 05       		.uleb128 0x5
 5704 047f EB0D0000 		.4byte	.LASF78
 5705 0483 11       		.byte	0x11
 5706 0484 67       		.byte	0x67
 5707 0485 19       		.byte	0x19
 5708 0486 94030000 		.4byte	0x394
 5709 048a 08       		.byte	0x8
 5710 048b 00       		.byte	0
 5711 048c 09       		.uleb128 0x9
 5712 048d 4B040000 		.4byte	0x44b
 5713 0491 1A       		.uleb128 0x1a
 5714 0492 08       		.byte	0x8
 5715 0493 12       		.byte	0x12
 5716 0494 83       		.byte	0x83
 5717 0495 05       		.byte	0x5
 5718 0496 B5040000 		.4byte	0x4b5
 5719 049a 0F       		.uleb128 0xf
 5720 049b 6E747000 		.ascii	"ntp\000"
 5721 049f 12       		.byte	0x12
 5722 04a0 87       		.byte	0x87
 5723 04a1 1E       		.byte	0x1e
 5724 04a2 B5040000 		.4byte	0x4b5
 5725 04a6 00       		.byte	0
ARM GAS  C:\Users\DEVELO~1\AppData\Local\Temp\cc5EUJSb.s 			page 102


 5726 04a7 05       		.uleb128 0x5
 5727 04a8 4D010000 		.4byte	.LASF79
 5728 04ac 12       		.byte	0x12
 5729 04ad 8B       		.byte	0x8b
 5730 04ae 1E       		.byte	0x1e
 5731 04af BA040000 		.4byte	0x4ba
 5732 04b3 04       		.byte	0x4
 5733 04b4 00       		.byte	0
 5734 04b5 09       		.uleb128 0x9
 5735 04b6 8F010000 		.4byte	0x18f
 5736 04ba 4B       		.uleb128 0x4b
 5737 04bb 04       		.byte	0x4
 5738 04bc 1A       		.uleb128 0x1a
 5739 04bd 08       		.byte	0x8
 5740 04be 12       		.byte	0x12
 5741 04bf 90       		.byte	0x90
 5742 04c0 05       		.byte	0x5
 5743 04c1 DF040000 		.4byte	0x4df
 5744 04c5 0F       		.uleb128 0xf
 5745 04c6 747000   		.ascii	"tp\000"
 5746 04c9 12       		.byte	0x12
 5747 04ca 94       		.byte	0x94
 5748 04cb 1E       		.byte	0x1e
 5749 04cc B5040000 		.4byte	0x4b5
 5750 04d0 00       		.byte	0
 5751 04d1 0F       		.uleb128 0xf
 5752 04d2 6D736700 		.ascii	"msg\000"
 5753 04d6 12       		.byte	0x12
 5754 04d7 98       		.byte	0x98
 5755 04d8 1D       		.byte	0x1d
 5756 04d9 5F010000 		.4byte	0x15f
 5757 04dd 04       		.byte	0x4
 5758 04de 00       		.byte	0
 5759 04df 1A       		.uleb128 0x1a
 5760 04e0 04       		.byte	0x4
 5761 04e1 12       		.byte	0x12
 5762 04e2 9D       		.byte	0x9d
 5763 04e3 05       		.byte	0x5
 5764 04e4 F6040000 		.4byte	0x4f6
 5765 04e8 05       		.uleb128 0x5
 5766 04e9 760B0000 		.4byte	.LASF35
 5767 04ed 12       		.byte	0x12
 5768 04ee A1       		.byte	0xa1
 5769 04ef 1E       		.byte	0x1e
 5770 04f0 66030000 		.4byte	0x366
 5771 04f4 00       		.byte	0
 5772 04f5 00       		.byte	0
 5773 04f6 1A       		.uleb128 0x1a
 5774 04f7 04       		.byte	0x4
 5775 04f8 12       		.byte	0x12
 5776 04f9 A6       		.byte	0xa6
 5777 04fa 05       		.byte	0x5
 5778 04fb 0D050000 		.4byte	0x50d
 5779 04ff 05       		.uleb128 0x5
 5780 0500 08040000 		.4byte	.LASF80
 5781 0504 12       		.byte	0x12
 5782 0505 AA       		.byte	0xaa
ARM GAS  C:\Users\DEVELO~1\AppData\Local\Temp\cc5EUJSb.s 			page 103


 5783 0506 1E       		.byte	0x1e
 5784 0507 66030000 		.4byte	0x366
 5785 050b 00       		.byte	0
 5786 050c 00       		.byte	0
 5787 050d 1A       		.uleb128 0x1a
 5788 050e 08       		.byte	0x8
 5789 050f 12       		.byte	0x12
 5790 0510 AF       		.byte	0xaf
 5791 0511 05       		.byte	0x5
 5792 0512 31050000 		.4byte	0x531
 5793 0516 0F       		.uleb128 0xf
 5794 0517 75703100 		.ascii	"up1\000"
 5795 051b 12       		.byte	0x12
 5796 051c B3       		.byte	0xb3
 5797 051d 1E       		.byte	0x1e
 5798 051e BA040000 		.4byte	0x4ba
 5799 0522 00       		.byte	0
 5800 0523 0F       		.uleb128 0xf
 5801 0524 75703200 		.ascii	"up2\000"
 5802 0528 12       		.byte	0x12
 5803 0529 B7       		.byte	0xb7
 5804 052a 1E       		.byte	0x1e
 5805 052b BA040000 		.4byte	0x4ba
 5806 052f 04       		.byte	0x4
 5807 0530 00       		.byte	0
 5808 0531 2A       		.uleb128 0x2a
 5809 0532 08       		.byte	0x8
 5810 0533 12       		.byte	0x12
 5811 0534 7F       		.byte	0x7f
 5812 0535 03       		.byte	0x3
 5813 0536 76050000 		.4byte	0x576
 5814 053a 22       		.uleb128 0x22
 5815 053b 737700   		.ascii	"sw\000"
 5816 053e 12       		.byte	0x12
 5817 053f 8C       		.byte	0x8c
 5818 0540 07       		.byte	0x7
 5819 0541 91040000 		.4byte	0x491
 5820 0545 22       		.uleb128 0x22
 5821 0546 72647900 		.ascii	"rdy\000"
 5822 054a 12       		.byte	0x12
 5823 054b 99       		.byte	0x99
 5824 054c 07       		.byte	0x7
 5825 054d BC040000 		.4byte	0x4bc
 5826 0551 22       		.uleb128 0x22
 5827 0552 69737200 		.ascii	"isr\000"
 5828 0556 12       		.byte	0x12
 5829 0557 A2       		.byte	0xa2
 5830 0558 07       		.byte	0x7
 5831 0559 DF040000 		.4byte	0x4df
 5832 055d 1B       		.uleb128 0x1b
 5833 055e BB030000 		.4byte	.LASF81
 5834 0562 12       		.byte	0x12
 5835 0563 AB       		.byte	0xab
 5836 0564 07       		.byte	0x7
 5837 0565 F6040000 		.4byte	0x4f6
 5838 0569 1B       		.uleb128 0x1b
 5839 056a DA040000 		.4byte	.LASF82
ARM GAS  C:\Users\DEVELO~1\AppData\Local\Temp\cc5EUJSb.s 			page 104


 5840 056e 12       		.byte	0x12
 5841 056f B8       		.byte	0xb8
 5842 0570 07       		.byte	0x7
 5843 0571 0D050000 		.4byte	0x50d
 5844 0575 00       		.byte	0
 5845 0576 1A       		.uleb128 0x1a
 5846 0577 10       		.byte	0x10
 5847 0578 12       		.byte	0x12
 5848 0579 6C       		.byte	0x6c
 5849 057a 09       		.byte	0x9
 5850 057b BC050000 		.4byte	0x5bc
 5851 057f 39       		.uleb128 0x39
 5852 0580 830C0000 		.4byte	.LASF83
 5853 0584 70       		.byte	0x70
 5854 0585 E9000000 		.4byte	0xe9
 5855 0589 03       		.byte	0x3
 5856 058a 00       		.byte	0
 5857 058b 39       		.uleb128 0x39
 5858 058c 540D0000 		.4byte	.LASF37
 5859 0590 74       		.byte	0x74
 5860 0591 E9000000 		.4byte	0xe9
 5861 0595 05       		.byte	0x5
 5862 0596 03       		.byte	0x3
 5863 0597 39       		.uleb128 0x39
 5864 0598 F40B0000 		.4byte	.LASF84
 5865 059c 7A       		.byte	0x7a
 5866 059d E9000000 		.4byte	0xe9
 5867 05a1 18       		.byte	0x18
 5868 05a2 08       		.byte	0x8
 5869 05a3 05       		.uleb128 0x5
 5870 05a4 4B040000 		.4byte	.LASF85
 5871 05a8 12       		.byte	0x12
 5872 05a9 7E       		.byte	0x7e
 5873 05aa 19       		.byte	0x19
 5874 05ab 88030000 		.4byte	0x388
 5875 05af 04       		.byte	0x4
 5876 05b0 0F       		.uleb128 0xf
 5877 05b1 7500     		.ascii	"u\000"
 5878 05b3 12       		.byte	0x12
 5879 05b4 B9       		.byte	0xb9
 5880 05b5 05       		.byte	0x5
 5881 05b6 31050000 		.4byte	0x531
 5882 05ba 08       		.byte	0x8
 5883 05bb 00       		.byte	0
 5884 05bc 08       		.uleb128 0x8
 5885 05bd 3B030000 		.4byte	.LASF86
 5886 05c1 12       		.byte	0x12
 5887 05c2 BA       		.byte	0xba
 5888 05c3 03       		.byte	0x3
 5889 05c4 76050000 		.4byte	0x576
 5890 05c8 4C       		.uleb128 0x4c
 5891 05c9 0808     		.2byte	0x808
 5892 05cb 12       		.byte	0x12
 5893 05cc C0       		.byte	0xc0
 5894 05cd 09       		.byte	0x9
 5895 05ce 07060000 		.4byte	0x607
 5896 05d2 05       		.uleb128 0x5
ARM GAS  C:\Users\DEVELO~1\AppData\Local\Temp\cc5EUJSb.s 			page 105


 5897 05d3 F2000000 		.4byte	.LASF87
 5898 05d7 12       		.byte	0x12
 5899 05d8 C4       		.byte	0xc4
 5900 05d9 19       		.byte	0x19
 5901 05da CC000000 		.4byte	0xcc
 5902 05de 00       		.byte	0
 5903 05df 05       		.uleb128 0x5
 5904 05e0 DF070000 		.4byte	.LASF88
 5905 05e4 12       		.byte	0x12
 5906 05e5 C8       		.byte	0xc8
 5907 05e6 19       		.byte	0x19
 5908 05e7 CC000000 		.4byte	0xcc
 5909 05eb 02       		.byte	0x2
 5910 05ec 0F       		.uleb128 0xf
 5911 05ed 70747200 		.ascii	"ptr\000"
 5912 05f1 12       		.byte	0x12
 5913 05f2 CC       		.byte	0xcc
 5914 05f3 1A       		.byte	0x1a
 5915 05f4 07060000 		.4byte	0x607
 5916 05f8 04       		.byte	0x4
 5917 05f9 05       		.uleb128 0x5
 5918 05fa BD000000 		.4byte	.LASF89
 5919 05fe 12       		.byte	0x12
 5920 05ff D0       		.byte	0xd0
 5921 0600 19       		.byte	0x19
 5922 0601 0C060000 		.4byte	0x60c
 5923 0605 08       		.byte	0x8
 5924 0606 00       		.byte	0
 5925 0607 09       		.uleb128 0x9
 5926 0608 BC050000 		.4byte	0x5bc
 5927 060c 14       		.uleb128 0x14
 5928 060d BC050000 		.4byte	0x5bc
 5929 0611 1C060000 		.4byte	0x61c
 5930 0615 15       		.uleb128 0x15
 5931 0616 39000000 		.4byte	0x39
 5932 061a 7F       		.byte	0x7f
 5933 061b 00       		.byte	0
 5934 061c 08       		.uleb128 0x8
 5935 061d 37080000 		.4byte	.LASF90
 5936 0621 12       		.byte	0x12
 5937 0622 D1       		.byte	0xd1
 5938 0623 03       		.byte	0x3
 5939 0624 C8050000 		.4byte	0x5c8
 5940 0628 14       		.uleb128 0x14
 5941 0629 E9000000 		.4byte	0xe9
 5942 062d 38060000 		.4byte	0x638
 5943 0631 15       		.uleb128 0x15
 5944 0632 39000000 		.4byte	0x39
 5945 0636 03       		.byte	0x3
 5946 0637 00       		.byte	0
 5947 0638 2B       		.uleb128 0x2b
 5948 0639 18       		.byte	0x18
 5949 063a 13       		.byte	0x13
 5950 063b 3002     		.2byte	0x230
 5951 063d 95060000 		.4byte	0x695
 5952 0641 0A       		.uleb128 0xa
 5953 0642 435200   		.ascii	"CR\000"
ARM GAS  C:\Users\DEVELO~1\AppData\Local\Temp\cc5EUJSb.s 			page 106


 5954 0645 13       		.byte	0x13
 5955 0646 3202     		.2byte	0x232
 5956 0648 11       		.byte	0x11
 5957 0649 F5000000 		.4byte	0xf5
 5958 064d 00       		.byte	0
 5959 064e 03       		.uleb128 0x3
 5960 064f D1010000 		.4byte	.LASF91
 5961 0653 13       		.byte	0x13
 5962 0654 3302     		.2byte	0x233
 5963 0656 11       		.byte	0x11
 5964 0657 F5000000 		.4byte	0xf5
 5965 065b 04       		.byte	0x4
 5966 065c 0A       		.uleb128 0xa
 5967 065d 50415200 		.ascii	"PAR\000"
 5968 0661 13       		.byte	0x13
 5969 0662 3402     		.2byte	0x234
 5970 0664 11       		.byte	0x11
 5971 0665 F5000000 		.4byte	0xf5
 5972 0669 08       		.byte	0x8
 5973 066a 03       		.uleb128 0x3
 5974 066b 71050000 		.4byte	.LASF92
 5975 066f 13       		.byte	0x13
 5976 0670 3502     		.2byte	0x235
 5977 0672 11       		.byte	0x11
 5978 0673 F5000000 		.4byte	0xf5
 5979 0677 0C       		.byte	0xc
 5980 0678 03       		.uleb128 0x3
 5981 0679 8D0B0000 		.4byte	.LASF93
 5982 067d 13       		.byte	0x13
 5983 067e 3602     		.2byte	0x236
 5984 0680 11       		.byte	0x11
 5985 0681 F5000000 		.4byte	0xf5
 5986 0685 10       		.byte	0x10
 5987 0686 0A       		.uleb128 0xa
 5988 0687 46435200 		.ascii	"FCR\000"
 5989 068b 13       		.byte	0x13
 5990 068c 3702     		.2byte	0x237
 5991 068e 11       		.byte	0x11
 5992 068f F5000000 		.4byte	0xf5
 5993 0693 14       		.byte	0x14
 5994 0694 00       		.byte	0
 5995 0695 17       		.uleb128 0x17
 5996 0696 CC070000 		.4byte	.LASF94
 5997 069a 13       		.byte	0x13
 5998 069b 3802     		.2byte	0x238
 5999 069d 03       		.byte	0x3
 6000 069e 38060000 		.4byte	0x638
 6001 06a2 2B       		.uleb128 0x2b
 6002 06a3 14       		.byte	0x14
 6003 06a4 13       		.byte	0x13
 6004 06a5 4202     		.2byte	0x242
 6005 06a7 F2060000 		.4byte	0x6f2
 6006 06ab 0A       		.uleb128 0xa
 6007 06ac 43435200 		.ascii	"CCR\000"
 6008 06b0 13       		.byte	0x13
 6009 06b1 4402     		.2byte	0x244
 6010 06b3 11       		.byte	0x11
ARM GAS  C:\Users\DEVELO~1\AppData\Local\Temp\cc5EUJSb.s 			page 107


 6011 06b4 F5000000 		.4byte	0xf5
 6012 06b8 00       		.byte	0
 6013 06b9 03       		.uleb128 0x3
 6014 06ba 4D020000 		.4byte	.LASF95
 6015 06be 13       		.byte	0x13
 6016 06bf 4502     		.2byte	0x245
 6017 06c1 11       		.byte	0x11
 6018 06c2 F5000000 		.4byte	0xf5
 6019 06c6 04       		.byte	0x4
 6020 06c7 03       		.uleb128 0x3
 6021 06c8 A00D0000 		.4byte	.LASF96
 6022 06cc 13       		.byte	0x13
 6023 06cd 4602     		.2byte	0x246
 6024 06cf 11       		.byte	0x11
 6025 06d0 F5000000 		.4byte	0xf5
 6026 06d4 08       		.byte	0x8
 6027 06d5 03       		.uleb128 0x3
 6028 06d6 F10D0000 		.4byte	.LASF97
 6029 06da 13       		.byte	0x13
 6030 06db 4702     		.2byte	0x247
 6031 06dd 11       		.byte	0x11
 6032 06de F5000000 		.4byte	0xf5
 6033 06e2 0C       		.byte	0xc
 6034 06e3 03       		.uleb128 0x3
 6035 06e4 F30A0000 		.4byte	.LASF98
 6036 06e8 13       		.byte	0x13
 6037 06e9 4802     		.2byte	0x248
 6038 06eb 11       		.byte	0x11
 6039 06ec F5000000 		.4byte	0xf5
 6040 06f0 10       		.byte	0x10
 6041 06f1 00       		.byte	0
 6042 06f2 17       		.uleb128 0x17
 6043 06f3 6B070000 		.4byte	.LASF99
 6044 06f7 13       		.byte	0x13
 6045 06f8 4902     		.2byte	0x249
 6046 06fa 03       		.byte	0x3
 6047 06fb A2060000 		.4byte	0x6a2
 6048 06ff 2B       		.uleb128 0x2b
 6049 0700 08       		.byte	0x8
 6050 0701 13       		.byte	0x13
 6051 0702 4B02     		.2byte	0x24b
 6052 0704 25070000 		.4byte	0x725
 6053 0708 0A       		.uleb128 0xa
 6054 0709 49535200 		.ascii	"ISR\000"
 6055 070d 13       		.byte	0x13
 6056 070e 4D02     		.2byte	0x24d
 6057 0710 11       		.byte	0x11
 6058 0711 F5000000 		.4byte	0xf5
 6059 0715 00       		.byte	0
 6060 0716 03       		.uleb128 0x3
 6061 0717 4C0E0000 		.4byte	.LASF100
 6062 071b 13       		.byte	0x13
 6063 071c 4E02     		.2byte	0x24e
 6064 071e 11       		.byte	0x11
 6065 071f F5000000 		.4byte	0xf5
 6066 0723 04       		.byte	0x4
 6067 0724 00       		.byte	0
ARM GAS  C:\Users\DEVELO~1\AppData\Local\Temp\cc5EUJSb.s 			page 108


 6068 0725 17       		.uleb128 0x17
 6069 0726 19000000 		.4byte	.LASF101
 6070 072a 13       		.byte	0x13
 6071 072b 4F02     		.2byte	0x24f
 6072 072d 03       		.byte	0x3
 6073 072e FF060000 		.4byte	0x6ff
 6074 0732 2B       		.uleb128 0x2b
 6075 0733 04       		.byte	0x4
 6076 0734 13       		.byte	0x13
 6077 0735 5102     		.2byte	0x251
 6078 0737 4A070000 		.4byte	0x74a
 6079 073b 0A       		.uleb128 0xa
 6080 073c 43435200 		.ascii	"CCR\000"
 6081 0740 13       		.byte	0x13
 6082 0741 5302     		.2byte	0x253
 6083 0743 12       		.byte	0x12
 6084 0744 F5000000 		.4byte	0xf5
 6085 0748 00       		.byte	0
 6086 0749 00       		.byte	0
 6087 074a 17       		.uleb128 0x17
 6088 074b 46080000 		.4byte	.LASF102
 6089 074f 13       		.byte	0x13
 6090 0750 5402     		.2byte	0x254
 6091 0752 02       		.byte	0x2
 6092 0753 32070000 		.4byte	0x732
 6093 0757 14       		.uleb128 0x14
 6094 0758 E9000000 		.4byte	0xe9
 6095 075c 67070000 		.4byte	0x767
 6096 0760 15       		.uleb128 0x15
 6097 0761 39000000 		.4byte	0x39
 6098 0765 08       		.byte	0x8
 6099 0766 00       		.byte	0
 6100 0767 14       		.uleb128 0x14
 6101 0768 E9000000 		.4byte	0xe9
 6102 076c 77070000 		.4byte	0x777
 6103 0770 15       		.uleb128 0x15
 6104 0771 39000000 		.4byte	0x39
 6105 0775 02       		.byte	0x2
 6106 0776 00       		.byte	0
 6107 0777 4D       		.uleb128 0x4d
 6108 0778 3001     		.2byte	0x130
 6109 077a 13       		.byte	0x13
 6110 077b CE04     		.2byte	0x4ce
 6111 077d 09       		.byte	0x9
 6112 077e 100B0000 		.4byte	0xb10
 6113 0782 0A       		.uleb128 0xa
 6114 0783 435200   		.ascii	"CR\000"
 6115 0786 13       		.byte	0x13
 6116 0787 D004     		.2byte	0x4d0
 6117 0789 10       		.byte	0x10
 6118 078a F5000000 		.4byte	0xf5
 6119 078e 00       		.byte	0
 6120 078f 03       		.uleb128 0x3
 6121 0790 12090000 		.4byte	.LASF103
 6122 0794 13       		.byte	0x13
 6123 0795 D104     		.2byte	0x4d1
 6124 0797 10       		.byte	0x10
ARM GAS  C:\Users\DEVELO~1\AppData\Local\Temp\cc5EUJSb.s 			page 109


 6125 0798 F5000000 		.4byte	0xf5
 6126 079c 04       		.byte	0x4
 6127 079d 03       		.uleb128 0x3
 6128 079e 32010000 		.4byte	.LASF104
 6129 07a2 13       		.byte	0x13
 6130 07a3 D204     		.2byte	0x4d2
 6131 07a5 10       		.byte	0x10
 6132 07a6 F5000000 		.4byte	0xf5
 6133 07aa 08       		.byte	0x8
 6134 07ab 03       		.uleb128 0x3
 6135 07ac AB0C0000 		.4byte	.LASF105
 6136 07b0 13       		.byte	0x13
 6137 07b1 D304     		.2byte	0x4d3
 6138 07b3 10       		.byte	0x10
 6139 07b4 F5000000 		.4byte	0xf5
 6140 07b8 0C       		.byte	0xc
 6141 07b9 03       		.uleb128 0x3
 6142 07ba 130B0000 		.4byte	.LASF106
 6143 07be 13       		.byte	0x13
 6144 07bf D404     		.2byte	0x4d4
 6145 07c1 10       		.byte	0x10
 6146 07c2 F5000000 		.4byte	0xf5
 6147 07c6 10       		.byte	0x10
 6148 07c7 03       		.uleb128 0x3
 6149 07c8 EF090000 		.4byte	.LASF107
 6150 07cc 13       		.byte	0x13
 6151 07cd D504     		.2byte	0x4d5
 6152 07cf 0F       		.byte	0xf
 6153 07d0 E9000000 		.4byte	0xe9
 6154 07d4 14       		.byte	0x14
 6155 07d5 03       		.uleb128 0x3
 6156 07d6 BC0B0000 		.4byte	.LASF108
 6157 07da 13       		.byte	0x13
 6158 07db D604     		.2byte	0x4d6
 6159 07dd 10       		.byte	0x10
 6160 07de F5000000 		.4byte	0xf5
 6161 07e2 18       		.byte	0x18
 6162 07e3 03       		.uleb128 0x3
 6163 07e4 70060000 		.4byte	.LASF109
 6164 07e8 13       		.byte	0x13
 6165 07e9 D704     		.2byte	0x4d7
 6166 07eb 10       		.byte	0x10
 6167 07ec F5000000 		.4byte	0xf5
 6168 07f0 1C       		.byte	0x1c
 6169 07f1 03       		.uleb128 0x3
 6170 07f2 1A010000 		.4byte	.LASF110
 6171 07f6 13       		.byte	0x13
 6172 07f7 D804     		.2byte	0x4d8
 6173 07f9 10       		.byte	0x10
 6174 07fa F5000000 		.4byte	0xf5
 6175 07fe 20       		.byte	0x20
 6176 07ff 03       		.uleb128 0x3
 6177 0800 F9090000 		.4byte	.LASF111
 6178 0804 13       		.byte	0x13
 6179 0805 D904     		.2byte	0x4d9
 6180 0807 0F       		.byte	0xf
 6181 0808 E9000000 		.4byte	0xe9
ARM GAS  C:\Users\DEVELO~1\AppData\Local\Temp\cc5EUJSb.s 			page 110


 6182 080c 24       		.byte	0x24
 6183 080d 03       		.uleb128 0x3
 6184 080e 830B0000 		.4byte	.LASF112
 6185 0812 13       		.byte	0x13
 6186 0813 DA04     		.2byte	0x4da
 6187 0815 10       		.byte	0x10
 6188 0816 F5000000 		.4byte	0xf5
 6189 081a 28       		.byte	0x28
 6190 081b 03       		.uleb128 0x3
 6191 081c 7B0B0000 		.4byte	.LASF113
 6192 0820 13       		.byte	0x13
 6193 0821 DB04     		.2byte	0x4db
 6194 0823 10       		.byte	0x10
 6195 0824 F5000000 		.4byte	0xf5
 6196 0828 2C       		.byte	0x2c
 6197 0829 03       		.uleb128 0x3
 6198 082a 550C0000 		.4byte	.LASF114
 6199 082e 13       		.byte	0x13
 6200 082f DC04     		.2byte	0x4dc
 6201 0831 10       		.byte	0x10
 6202 0832 F5000000 		.4byte	0xf5
 6203 0836 30       		.byte	0x30
 6204 0837 03       		.uleb128 0x3
 6205 0838 55030000 		.4byte	.LASF115
 6206 083c 13       		.byte	0x13
 6207 083d DD04     		.2byte	0x4dd
 6208 083f 10       		.byte	0x10
 6209 0840 F5000000 		.4byte	0xf5
 6210 0844 34       		.byte	0x34
 6211 0845 03       		.uleb128 0x3
 6212 0846 D9060000 		.4byte	.LASF116
 6213 084a 13       		.byte	0x13
 6214 084b DE04     		.2byte	0x4de
 6215 084d 10       		.byte	0x10
 6216 084e F5000000 		.4byte	0xf5
 6217 0852 38       		.byte	0x38
 6218 0853 03       		.uleb128 0x3
 6219 0854 38060000 		.4byte	.LASF117
 6220 0858 13       		.byte	0x13
 6221 0859 DF04     		.2byte	0x4df
 6222 085b 10       		.byte	0x10
 6223 085c F5000000 		.4byte	0xf5
 6224 0860 3C       		.byte	0x3c
 6225 0861 03       		.uleb128 0x3
 6226 0862 7E010000 		.4byte	.LASF118
 6227 0866 13       		.byte	0x13
 6228 0867 E004     		.2byte	0x4e0
 6229 0869 10       		.byte	0x10
 6230 086a F5000000 		.4byte	0xf5
 6231 086e 40       		.byte	0x40
 6232 086f 03       		.uleb128 0x3
 6233 0870 C4000000 		.4byte	.LASF119
 6234 0874 13       		.byte	0x13
 6235 0875 E104     		.2byte	0x4e1
 6236 0877 10       		.byte	0x10
 6237 0878 F5000000 		.4byte	0xf5
 6238 087c 44       		.byte	0x44
ARM GAS  C:\Users\DEVELO~1\AppData\Local\Temp\cc5EUJSb.s 			page 111


 6239 087d 03       		.uleb128 0x3
 6240 087e 030A0000 		.4byte	.LASF120
 6241 0882 13       		.byte	0x13
 6242 0883 E204     		.2byte	0x4e2
 6243 0885 10       		.byte	0x10
 6244 0886 E9000000 		.4byte	0xe9
 6245 088a 48       		.byte	0x48
 6246 088b 03       		.uleb128 0x3
 6247 088c 0B0B0000 		.4byte	.LASF121
 6248 0890 13       		.byte	0x13
 6249 0891 E304     		.2byte	0x4e3
 6250 0893 11       		.byte	0x11
 6251 0894 F5000000 		.4byte	0xf5
 6252 0898 4C       		.byte	0x4c
 6253 0899 03       		.uleb128 0x3
 6254 089a 9D050000 		.4byte	.LASF122
 6255 089e 13       		.byte	0x13
 6256 089f E404     		.2byte	0x4e4
 6257 08a1 11       		.byte	0x11
 6258 08a2 F5000000 		.4byte	0xf5
 6259 08a6 50       		.byte	0x50
 6260 08a7 03       		.uleb128 0x3
 6261 08a8 A5060000 		.4byte	.LASF123
 6262 08ac 13       		.byte	0x13
 6263 08ad E504     		.2byte	0x4e5
 6264 08af 11       		.byte	0x11
 6265 08b0 F5000000 		.4byte	0xf5
 6266 08b4 54       		.byte	0x54
 6267 08b5 03       		.uleb128 0x3
 6268 08b6 A50D0000 		.4byte	.LASF124
 6269 08ba 13       		.byte	0x13
 6270 08bb E604     		.2byte	0x4e6
 6271 08bd 11       		.byte	0x11
 6272 08be F5000000 		.4byte	0xf5
 6273 08c2 58       		.byte	0x58
 6274 08c3 03       		.uleb128 0x3
 6275 08c4 0D0A0000 		.4byte	.LASF125
 6276 08c8 13       		.byte	0x13
 6277 08c9 E704     		.2byte	0x4e7
 6278 08cb 10       		.byte	0x10
 6279 08cc E9000000 		.4byte	0xe9
 6280 08d0 5C       		.byte	0x5c
 6281 08d1 03       		.uleb128 0x3
 6282 08d2 B6060000 		.4byte	.LASF126
 6283 08d6 13       		.byte	0x13
 6284 08d7 E804     		.2byte	0x4e8
 6285 08d9 11       		.byte	0x11
 6286 08da F5000000 		.4byte	0xf5
 6287 08de 60       		.byte	0x60
 6288 08df 03       		.uleb128 0x3
 6289 08e0 E0010000 		.4byte	.LASF127
 6290 08e4 13       		.byte	0x13
 6291 08e5 E904     		.2byte	0x4e9
 6292 08e7 11       		.byte	0x11
 6293 08e8 F5000000 		.4byte	0xf5
 6294 08ec 64       		.byte	0x64
 6295 08ed 03       		.uleb128 0x3
ARM GAS  C:\Users\DEVELO~1\AppData\Local\Temp\cc5EUJSb.s 			page 112


 6296 08ee 0D090000 		.4byte	.LASF128
 6297 08f2 13       		.byte	0x13
 6298 08f3 EA04     		.2byte	0x4ea
 6299 08f5 11       		.byte	0x11
 6300 08f6 F5000000 		.4byte	0xf5
 6301 08fa 68       		.byte	0x68
 6302 08fb 03       		.uleb128 0x3
 6303 08fc B50E0000 		.4byte	.LASF129
 6304 0900 13       		.byte	0x13
 6305 0901 EB04     		.2byte	0x4eb
 6306 0903 0F       		.byte	0xf
 6307 0904 E9000000 		.4byte	0xe9
 6308 0908 6C       		.byte	0x6c
 6309 0909 03       		.uleb128 0x3
 6310 090a 21010000 		.4byte	.LASF130
 6311 090e 13       		.byte	0x13
 6312 090f EC04     		.2byte	0x4ec
 6313 0911 11       		.byte	0x11
 6314 0912 F5000000 		.4byte	0xf5
 6315 0916 70       		.byte	0x70
 6316 0917 0A       		.uleb128 0xa
 6317 0918 43535200 		.ascii	"CSR\000"
 6318 091c 13       		.byte	0x13
 6319 091d ED04     		.2byte	0x4ed
 6320 091f 11       		.byte	0x11
 6321 0920 F5000000 		.4byte	0xf5
 6322 0924 74       		.byte	0x74
 6323 0925 03       		.uleb128 0x3
 6324 0926 170A0000 		.4byte	.LASF131
 6325 092a 13       		.byte	0x13
 6326 092b EE04     		.2byte	0x4ee
 6327 092d 0F       		.byte	0xf
 6328 092e E9000000 		.4byte	0xe9
 6329 0932 78       		.byte	0x78
 6330 0933 03       		.uleb128 0x3
 6331 0934 68040000 		.4byte	.LASF132
 6332 0938 13       		.byte	0x13
 6333 0939 EF04     		.2byte	0x4ef
 6334 093b 10       		.byte	0x10
 6335 093c F5000000 		.4byte	0xf5
 6336 0940 7C       		.byte	0x7c
 6337 0941 03       		.uleb128 0x3
 6338 0942 08080000 		.4byte	.LASF133
 6339 0946 13       		.byte	0x13
 6340 0947 F004     		.2byte	0x4f0
 6341 0949 10       		.byte	0x10
 6342 094a F5000000 		.4byte	0xf5
 6343 094e 80       		.byte	0x80
 6344 094f 03       		.uleb128 0x3
 6345 0950 C2080000 		.4byte	.LASF134
 6346 0954 13       		.byte	0x13
 6347 0955 F104     		.2byte	0x4f1
 6348 0957 10       		.byte	0x10
 6349 0958 F5000000 		.4byte	0xf5
 6350 095c 84       		.byte	0x84
 6351 095d 03       		.uleb128 0x3
 6352 095e B30A0000 		.4byte	.LASF135
ARM GAS  C:\Users\DEVELO~1\AppData\Local\Temp\cc5EUJSb.s 			page 113


 6353 0962 13       		.byte	0x13
 6354 0963 F204     		.2byte	0x4f2
 6355 0965 10       		.byte	0x10
 6356 0966 F5000000 		.4byte	0xf5
 6357 096a 88       		.byte	0x88
 6358 096b 03       		.uleb128 0x3
 6359 096c 890A0000 		.4byte	.LASF136
 6360 0970 13       		.byte	0x13
 6361 0971 F304     		.2byte	0x4f3
 6362 0973 10       		.byte	0x10
 6363 0974 F5000000 		.4byte	0xf5
 6364 0978 8C       		.byte	0x8c
 6365 0979 03       		.uleb128 0x3
 6366 097a 8E030000 		.4byte	.LASF137
 6367 097e 13       		.byte	0x13
 6368 097f F404     		.2byte	0x4f4
 6369 0981 10       		.byte	0x10
 6370 0982 F5000000 		.4byte	0xf5
 6371 0986 90       		.byte	0x90
 6372 0987 03       		.uleb128 0x3
 6373 0988 00000000 		.4byte	.LASF138
 6374 098c 13       		.byte	0x13
 6375 098d F504     		.2byte	0x4f5
 6376 098f 10       		.byte	0x10
 6377 0990 F5000000 		.4byte	0xf5
 6378 0994 94       		.byte	0x94
 6379 0995 03       		.uleb128 0x3
 6380 0996 8A000000 		.4byte	.LASF139
 6381 099a 13       		.byte	0x13
 6382 099b F604     		.2byte	0x4f6
 6383 099d 10       		.byte	0x10
 6384 099e F5000000 		.4byte	0xf5
 6385 09a2 98       		.byte	0x98
 6386 09a3 03       		.uleb128 0x3
 6387 09a4 4D050000 		.4byte	.LASF140
 6388 09a8 13       		.byte	0x13
 6389 09a9 F704     		.2byte	0x4f7
 6390 09ab 10       		.byte	0x10
 6391 09ac F5000000 		.4byte	0xf5
 6392 09b0 9C       		.byte	0x9c
 6393 09b1 0A       		.uleb128 0xa
 6394 09b2 47435200 		.ascii	"GCR\000"
 6395 09b6 13       		.byte	0x13
 6396 09b7 F804     		.2byte	0x4f8
 6397 09b9 10       		.byte	0x10
 6398 09ba F5000000 		.4byte	0xf5
 6399 09be A0       		.byte	0xa0
 6400 09bf 03       		.uleb128 0x3
 6401 09c0 2B0A0000 		.4byte	.LASF141
 6402 09c4 13       		.byte	0x13
 6403 09c5 F904     		.2byte	0x4f9
 6404 09c7 0F       		.byte	0xf
 6405 09c8 E9000000 		.4byte	0xe9
 6406 09cc A4       		.byte	0xa4
 6407 09cd 03       		.uleb128 0x3
 6408 09ce 31080000 		.4byte	.LASF142
 6409 09d2 13       		.byte	0x13
ARM GAS  C:\Users\DEVELO~1\AppData\Local\Temp\cc5EUJSb.s 			page 114


 6410 09d3 FA04     		.2byte	0x4fa
 6411 09d5 10       		.byte	0x10
 6412 09d6 F5000000 		.4byte	0xf5
 6413 09da A8       		.byte	0xa8
 6414 09db 03       		.uleb128 0x3
 6415 09dc 020D0000 		.4byte	.LASF143
 6416 09e0 13       		.byte	0x13
 6417 09e1 FB04     		.2byte	0x4fb
 6418 09e3 0F       		.byte	0xf
 6419 09e4 57070000 		.4byte	0x757
 6420 09e8 AC       		.byte	0xac
 6421 09e9 0A       		.uleb128 0xa
 6422 09ea 52535200 		.ascii	"RSR\000"
 6423 09ee 13       		.byte	0x13
 6424 09ef FC04     		.2byte	0x4fc
 6425 09f1 10       		.byte	0x10
 6426 09f2 F5000000 		.4byte	0xf5
 6427 09f6 D0       		.byte	0xd0
 6428 09f7 03       		.uleb128 0x3
 6429 09f8 85050000 		.4byte	.LASF144
 6430 09fc 13       		.byte	0x13
 6431 09fd FD04     		.2byte	0x4fd
 6432 09ff 10       		.byte	0x10
 6433 0a00 F5000000 		.4byte	0xf5
 6434 0a04 D4       		.byte	0xd4
 6435 0a05 03       		.uleb128 0x3
 6436 0a06 7E030000 		.4byte	.LASF145
 6437 0a0a 13       		.byte	0x13
 6438 0a0b FE04     		.2byte	0x4fe
 6439 0a0d 10       		.byte	0x10
 6440 0a0e F5000000 		.4byte	0xf5
 6441 0a12 D8       		.byte	0xd8
 6442 0a13 03       		.uleb128 0x3
 6443 0a14 050C0000 		.4byte	.LASF146
 6444 0a18 13       		.byte	0x13
 6445 0a19 FF04     		.2byte	0x4ff
 6446 0a1b 10       		.byte	0x10
 6447 0a1c F5000000 		.4byte	0xf5
 6448 0a20 DC       		.byte	0xdc
 6449 0a21 03       		.uleb128 0x3
 6450 0a22 AD0E0000 		.4byte	.LASF147
 6451 0a26 13       		.byte	0x13
 6452 0a27 0005     		.2byte	0x500
 6453 0a29 10       		.byte	0x10
 6454 0a2a F5000000 		.4byte	0xf5
 6455 0a2e E0       		.byte	0xe0
 6456 0a2f 03       		.uleb128 0x3
 6457 0a30 38020000 		.4byte	.LASF148
 6458 0a34 13       		.byte	0x13
 6459 0a35 0105     		.2byte	0x501
 6460 0a37 10       		.byte	0x10
 6461 0a38 F5000000 		.4byte	0xf5
 6462 0a3c E4       		.byte	0xe4
 6463 0a3d 03       		.uleb128 0x3
 6464 0a3e D1040000 		.4byte	.LASF149
 6465 0a42 13       		.byte	0x13
 6466 0a43 0205     		.2byte	0x502
ARM GAS  C:\Users\DEVELO~1\AppData\Local\Temp\cc5EUJSb.s 			page 115


 6467 0a45 10       		.byte	0x10
 6468 0a46 F5000000 		.4byte	0xf5
 6469 0a4a E8       		.byte	0xe8
 6470 0a4b 03       		.uleb128 0x3
 6471 0a4c 570A0000 		.4byte	.LASF150
 6472 0a50 13       		.byte	0x13
 6473 0a51 0305     		.2byte	0x503
 6474 0a53 10       		.byte	0x10
 6475 0a54 F5000000 		.4byte	0xf5
 6476 0a58 EC       		.byte	0xec
 6477 0a59 03       		.uleb128 0x3
 6478 0a5a 1F080000 		.4byte	.LASF151
 6479 0a5e 13       		.byte	0x13
 6480 0a5f 0405     		.2byte	0x504
 6481 0a61 10       		.byte	0x10
 6482 0a62 F5000000 		.4byte	0xf5
 6483 0a66 F0       		.byte	0xf0
 6484 0a67 03       		.uleb128 0x3
 6485 0a68 640B0000 		.4byte	.LASF152
 6486 0a6c 13       		.byte	0x13
 6487 0a6d 0505     		.2byte	0x505
 6488 0a6f 10       		.byte	0x10
 6489 0a70 F5000000 		.4byte	0xf5
 6490 0a74 F4       		.byte	0xf4
 6491 0a75 03       		.uleb128 0x3
 6492 0a76 0D0D0000 		.4byte	.LASF153
 6493 0a7a 13       		.byte	0x13
 6494 0a7b 0605     		.2byte	0x506
 6495 0a7d 10       		.byte	0x10
 6496 0a7e E9000000 		.4byte	0xe9
 6497 0a82 F8       		.byte	0xf8
 6498 0a83 03       		.uleb128 0x3
 6499 0a84 920B0000 		.4byte	.LASF154
 6500 0a88 13       		.byte	0x13
 6501 0a89 0705     		.2byte	0x507
 6502 0a8b 10       		.byte	0x10
 6503 0a8c F5000000 		.4byte	0xf5
 6504 0a90 FC       		.byte	0xfc
 6505 0a91 1C       		.uleb128 0x1c
 6506 0a92 65080000 		.4byte	.LASF155
 6507 0a96 0805     		.2byte	0x508
 6508 0a98 10       		.byte	0x10
 6509 0a99 F5000000 		.4byte	0xf5
 6510 0a9d 0001     		.2byte	0x100
 6511 0a9f 1C       		.uleb128 0x1c
 6512 0aa0 F0010000 		.4byte	.LASF156
 6513 0aa4 0905     		.2byte	0x509
 6514 0aa6 10       		.byte	0x10
 6515 0aa7 F5000000 		.4byte	0xf5
 6516 0aab 0401     		.2byte	0x104
 6517 0aad 1C       		.uleb128 0x1c
 6518 0aae 2E060000 		.4byte	.LASF157
 6519 0ab2 0A05     		.2byte	0x50a
 6520 0ab4 10       		.byte	0x10
 6521 0ab5 F5000000 		.4byte	0xf5
 6522 0ab9 0801     		.2byte	0x108
 6523 0abb 1C       		.uleb128 0x1c
ARM GAS  C:\Users\DEVELO~1\AppData\Local\Temp\cc5EUJSb.s 			page 116


 6524 0abc 4D0A0000 		.4byte	.LASF158
 6525 0ac0 0B05     		.2byte	0x50b
 6526 0ac2 10       		.byte	0x10
 6527 0ac3 F5000000 		.4byte	0xf5
 6528 0ac7 0C01     		.2byte	0x10c
 6529 0ac9 1C       		.uleb128 0x1c
 6530 0aca D7030000 		.4byte	.LASF159
 6531 0ace 0C05     		.2byte	0x50c
 6532 0ad0 10       		.byte	0x10
 6533 0ad1 F5000000 		.4byte	0xf5
 6534 0ad5 1001     		.2byte	0x110
 6535 0ad7 1C       		.uleb128 0x1c
 6536 0ad8 EE0E0000 		.4byte	.LASF160
 6537 0adc 0D05     		.2byte	0x50d
 6538 0ade 10       		.byte	0x10
 6539 0adf F5000000 		.4byte	0xf5
 6540 0ae3 1401     		.2byte	0x114
 6541 0ae5 1C       		.uleb128 0x1c
 6542 0ae6 80000000 		.4byte	.LASF161
 6543 0aea 0E05     		.2byte	0x50e
 6544 0aec 10       		.byte	0x10
 6545 0aed F5000000 		.4byte	0xf5
 6546 0af1 1801     		.2byte	0x118
 6547 0af3 1C       		.uleb128 0x1c
 6548 0af4 DF040000 		.4byte	.LASF162
 6549 0af8 0F05     		.2byte	0x50f
 6550 0afa 10       		.byte	0x10
 6551 0afb F5000000 		.4byte	0xf5
 6552 0aff 1C01     		.2byte	0x11c
 6553 0b01 1C       		.uleb128 0x1c
 6554 0b02 180D0000 		.4byte	.LASF163
 6555 0b06 1005     		.2byte	0x510
 6556 0b08 0F       		.byte	0xf
 6557 0b09 28060000 		.4byte	0x628
 6558 0b0d 2001     		.2byte	0x120
 6559 0b0f 00       		.byte	0
 6560 0b10 17       		.uleb128 0x17
 6561 0b11 38010000 		.4byte	.LASF164
 6562 0b15 13       		.byte	0x13
 6563 0b16 1205     		.2byte	0x512
 6564 0b18 03       		.byte	0x3
 6565 0b19 77070000 		.4byte	0x777
 6566 0b1d 2B       		.uleb128 0x2b
 6567 0b1e 54       		.byte	0x54
 6568 0b1f 13       		.byte	0x13
 6569 0b20 C405     		.2byte	0x5c4
 6570 0b22 140C0000 		.4byte	0xc14
 6571 0b26 0A       		.uleb128 0xa
 6572 0b27 43523100 		.ascii	"CR1\000"
 6573 0b2b 13       		.byte	0x13
 6574 0b2c C605     		.2byte	0x5c6
 6575 0b2e 11       		.byte	0x11
 6576 0b2f F5000000 		.4byte	0xf5
 6577 0b33 00       		.byte	0
 6578 0b34 0A       		.uleb128 0xa
 6579 0b35 43523200 		.ascii	"CR2\000"
 6580 0b39 13       		.byte	0x13
ARM GAS  C:\Users\DEVELO~1\AppData\Local\Temp\cc5EUJSb.s 			page 117


 6581 0b3a C705     		.2byte	0x5c7
 6582 0b3c 11       		.byte	0x11
 6583 0b3d F5000000 		.4byte	0xf5
 6584 0b41 04       		.byte	0x4
 6585 0b42 03       		.uleb128 0x3
 6586 0b43 7F0A0000 		.4byte	.LASF165
 6587 0b47 13       		.byte	0x13
 6588 0b48 C805     		.2byte	0x5c8
 6589 0b4a 11       		.byte	0x11
 6590 0b4b F5000000 		.4byte	0xf5
 6591 0b4f 08       		.byte	0x8
 6592 0b50 03       		.uleb128 0x3
 6593 0b51 840A0000 		.4byte	.LASF166
 6594 0b55 13       		.byte	0x13
 6595 0b56 C905     		.2byte	0x5c9
 6596 0b58 11       		.byte	0x11
 6597 0b59 F5000000 		.4byte	0xf5
 6598 0b5d 0C       		.byte	0xc
 6599 0b5e 0A       		.uleb128 0xa
 6600 0b5f 49455200 		.ascii	"IER\000"
 6601 0b63 13       		.byte	0x13
 6602 0b64 CA05     		.2byte	0x5ca
 6603 0b66 11       		.byte	0x11
 6604 0b67 F5000000 		.4byte	0xf5
 6605 0b6b 10       		.byte	0x10
 6606 0b6c 0A       		.uleb128 0xa
 6607 0b6d 535200   		.ascii	"SR\000"
 6608 0b70 13       		.byte	0x13
 6609 0b71 CB05     		.2byte	0x5cb
 6610 0b73 11       		.byte	0x11
 6611 0b74 F5000000 		.4byte	0xf5
 6612 0b78 14       		.byte	0x14
 6613 0b79 03       		.uleb128 0x3
 6614 0b7a 4C0E0000 		.4byte	.LASF100
 6615 0b7e 13       		.byte	0x13
 6616 0b7f CC05     		.2byte	0x5cc
 6617 0b81 11       		.byte	0x11
 6618 0b82 F5000000 		.4byte	0xf5
 6619 0b86 18       		.byte	0x18
 6620 0b87 03       		.uleb128 0x3
 6621 0b88 E5090000 		.4byte	.LASF167
 6622 0b8c 13       		.byte	0x13
 6623 0b8d CD05     		.2byte	0x5cd
 6624 0b8f 11       		.byte	0x11
 6625 0b90 E9000000 		.4byte	0xe9
 6626 0b94 1C       		.byte	0x1c
 6627 0b95 03       		.uleb128 0x3
 6628 0b96 F9060000 		.4byte	.LASF168
 6629 0b9a 13       		.byte	0x13
 6630 0b9b CE05     		.2byte	0x5ce
 6631 0b9d 11       		.byte	0x11
 6632 0b9e F5000000 		.4byte	0xf5
 6633 0ba2 20       		.byte	0x20
 6634 0ba3 03       		.uleb128 0x3
 6635 0ba4 EF090000 		.4byte	.LASF107
 6636 0ba8 13       		.byte	0x13
 6637 0ba9 CF05     		.2byte	0x5cf
ARM GAS  C:\Users\DEVELO~1\AppData\Local\Temp\cc5EUJSb.s 			page 118


 6638 0bab 11       		.byte	0x11
 6639 0bac 67070000 		.4byte	0x767
 6640 0bb0 24       		.byte	0x24
 6641 0bb1 03       		.uleb128 0x3
 6642 0bb2 F7040000 		.4byte	.LASF169
 6643 0bb6 13       		.byte	0x13
 6644 0bb7 D005     		.2byte	0x5d0
 6645 0bb9 11       		.byte	0x11
 6646 0bba F5000000 		.4byte	0xf5
 6647 0bbe 30       		.byte	0x30
 6648 0bbf 03       		.uleb128 0x3
 6649 0bc0 F9090000 		.4byte	.LASF111
 6650 0bc4 13       		.byte	0x13
 6651 0bc5 D105     		.2byte	0x5d1
 6652 0bc7 11       		.byte	0x11
 6653 0bc8 67070000 		.4byte	0x767
 6654 0bcc 34       		.byte	0x34
 6655 0bcd 03       		.uleb128 0x3
 6656 0bce 770A0000 		.4byte	.LASF170
 6657 0bd2 13       		.byte	0x13
 6658 0bd3 D205     		.2byte	0x5d2
 6659 0bd5 11       		.byte	0x11
 6660 0bd6 F5000000 		.4byte	0xf5
 6661 0bda 40       		.byte	0x40
 6662 0bdb 03       		.uleb128 0x3
 6663 0bdc 0C010000 		.4byte	.LASF171
 6664 0be0 13       		.byte	0x13
 6665 0be1 D305     		.2byte	0x5d3
 6666 0be3 11       		.byte	0x11
 6667 0be4 F5000000 		.4byte	0xf5
 6668 0be8 44       		.byte	0x44
 6669 0be9 03       		.uleb128 0x3
 6670 0bea 32020000 		.4byte	.LASF172
 6671 0bee 13       		.byte	0x13
 6672 0bef D405     		.2byte	0x5d4
 6673 0bf1 11       		.byte	0x11
 6674 0bf2 F5000000 		.4byte	0xf5
 6675 0bf6 48       		.byte	0x48
 6676 0bf7 03       		.uleb128 0x3
 6677 0bf8 BC0A0000 		.4byte	.LASF173
 6678 0bfc 13       		.byte	0x13
 6679 0bfd D505     		.2byte	0x5d5
 6680 0bff 11       		.byte	0x11
 6681 0c00 F5000000 		.4byte	0xf5
 6682 0c04 4C       		.byte	0x4c
 6683 0c05 03       		.uleb128 0x3
 6684 0c06 410D0000 		.4byte	.LASF174
 6685 0c0a 13       		.byte	0x13
 6686 0c0b D605     		.2byte	0x5d6
 6687 0c0d 11       		.byte	0x11
 6688 0c0e F5000000 		.4byte	0xf5
 6689 0c12 50       		.byte	0x50
 6690 0c13 00       		.byte	0
 6691 0c14 17       		.uleb128 0x17
 6692 0c15 610D0000 		.4byte	.LASF175
 6693 0c19 13       		.byte	0x13
 6694 0c1a D805     		.2byte	0x5d8
ARM GAS  C:\Users\DEVELO~1\AppData\Local\Temp\cc5EUJSb.s 			page 119


 6695 0c1c 03       		.byte	0x3
 6696 0c1d 1D0B0000 		.4byte	0xb1d
 6697 0c21 36       		.uleb128 0x36
 6698 0c22 600A0000 		.4byte	.LASF176
 6699 0c26 24       		.byte	0x24
 6700 0c27 05       		.byte	0x5
 6701 0c28 E001     		.2byte	0x1e0
 6702 0c2a 08       		.byte	0x8
 6703 0c2b A70C0000 		.4byte	0xca7
 6704 0c2f 0A       		.uleb128 0xa
 6705 0c30 723400   		.ascii	"r4\000"
 6706 0c33 05       		.byte	0x5
 6707 0c34 F901     		.2byte	0x1f9
 6708 0c36 11       		.byte	0x11
 6709 0c37 E9000000 		.4byte	0xe9
 6710 0c3b 00       		.byte	0
 6711 0c3c 0A       		.uleb128 0xa
 6712 0c3d 723500   		.ascii	"r5\000"
 6713 0c40 05       		.byte	0x5
 6714 0c41 FA01     		.2byte	0x1fa
 6715 0c43 11       		.byte	0x11
 6716 0c44 E9000000 		.4byte	0xe9
 6717 0c48 04       		.byte	0x4
 6718 0c49 0A       		.uleb128 0xa
 6719 0c4a 723600   		.ascii	"r6\000"
 6720 0c4d 05       		.byte	0x5
 6721 0c4e FB01     		.2byte	0x1fb
 6722 0c50 11       		.byte	0x11
 6723 0c51 E9000000 		.4byte	0xe9
 6724 0c55 08       		.byte	0x8
 6725 0c56 0A       		.uleb128 0xa
 6726 0c57 723700   		.ascii	"r7\000"
 6727 0c5a 05       		.byte	0x5
 6728 0c5b FC01     		.2byte	0x1fc
 6729 0c5d 11       		.byte	0x11
 6730 0c5e E9000000 		.4byte	0xe9
 6731 0c62 0C       		.byte	0xc
 6732 0c63 0A       		.uleb128 0xa
 6733 0c64 723800   		.ascii	"r8\000"
 6734 0c67 05       		.byte	0x5
 6735 0c68 FD01     		.2byte	0x1fd
 6736 0c6a 11       		.byte	0x11
 6737 0c6b E9000000 		.4byte	0xe9
 6738 0c6f 10       		.byte	0x10
 6739 0c70 0A       		.uleb128 0xa
 6740 0c71 723900   		.ascii	"r9\000"
 6741 0c74 05       		.byte	0x5
 6742 0c75 FE01     		.2byte	0x1fe
 6743 0c77 11       		.byte	0x11
 6744 0c78 E9000000 		.4byte	0xe9
 6745 0c7c 14       		.byte	0x14
 6746 0c7d 0A       		.uleb128 0xa
 6747 0c7e 72313000 		.ascii	"r10\000"
 6748 0c82 05       		.byte	0x5
 6749 0c83 FF01     		.2byte	0x1ff
 6750 0c85 11       		.byte	0x11
 6751 0c86 E9000000 		.4byte	0xe9
ARM GAS  C:\Users\DEVELO~1\AppData\Local\Temp\cc5EUJSb.s 			page 120


 6752 0c8a 18       		.byte	0x18
 6753 0c8b 0A       		.uleb128 0xa
 6754 0c8c 72313100 		.ascii	"r11\000"
 6755 0c90 05       		.byte	0x5
 6756 0c91 0002     		.2byte	0x200
 6757 0c93 11       		.byte	0x11
 6758 0c94 E9000000 		.4byte	0xe9
 6759 0c98 1C       		.byte	0x1c
 6760 0c99 0A       		.uleb128 0xa
 6761 0c9a 6C7200   		.ascii	"lr\000"
 6762 0c9d 05       		.byte	0x5
 6763 0c9e 0102     		.2byte	0x201
 6764 0ca0 11       		.byte	0x11
 6765 0ca1 E9000000 		.4byte	0xe9
 6766 0ca5 20       		.byte	0x20
 6767 0ca6 00       		.byte	0
 6768 0ca7 36       		.uleb128 0x36
 6769 0ca8 98010000 		.4byte	.LASF177
 6770 0cac 04       		.byte	0x4
 6771 0cad 05       		.byte	0x5
 6772 0cae 0A02     		.2byte	0x20a
 6773 0cb0 08       		.byte	0x8
 6774 0cb1 C30C0000 		.4byte	0xcc3
 6775 0cb5 0A       		.uleb128 0xa
 6776 0cb6 737000   		.ascii	"sp\000"
 6777 0cb9 05       		.byte	0x5
 6778 0cba 0B02     		.2byte	0x20b
 6779 0cbc 1A       		.byte	0x1a
 6780 0cbd C30C0000 		.4byte	0xcc3
 6781 0cc1 00       		.byte	0
 6782 0cc2 00       		.byte	0
 6783 0cc3 09       		.uleb128 0x9
 6784 0cc4 210C0000 		.4byte	0xc21
 6785 0cc8 10       		.uleb128 0x10
 6786 0cc9 91040000 		.4byte	.LASF178
 6787 0ccd 18       		.byte	0x18
 6788 0cce 0D       		.byte	0xd
 6789 0ccf 64       		.byte	0x64
 6790 0cd0 10       		.byte	0x10
 6791 0cd1 FD0C0000 		.4byte	0xcfd
 6792 0cd5 05       		.uleb128 0x5
 6793 0cd6 ED0A0000 		.4byte	.LASF179
 6794 0cda 0D       		.byte	0xd
 6795 0cdb 68       		.byte	0x68
 6796 0cdc 21       		.byte	0x21
 6797 0cdd 4B040000 		.4byte	0x44b
 6798 0ce1 00       		.byte	0
 6799 0ce2 05       		.uleb128 0x5
 6800 0ce3 020B0000 		.4byte	.LASF180
 6801 0ce7 0D       		.byte	0xd
 6802 0ce8 73       		.byte	0x73
 6803 0ce9 21       		.byte	0x21
 6804 0cea 88030000 		.4byte	0x388
 6805 0cee 0C       		.byte	0xc
 6806 0cef 05       		.uleb128 0x5
 6807 0cf0 D6010000 		.4byte	.LASF181
 6808 0cf4 0D       		.byte	0xd
ARM GAS  C:\Users\DEVELO~1\AppData\Local\Temp\cc5EUJSb.s 			page 121


 6809 0cf5 79       		.byte	0x79
 6810 0cf6 21       		.byte	0x21
 6811 0cf7 06010000 		.4byte	0x106
 6812 0cfb 10       		.byte	0x10
 6813 0cfc 00       		.byte	0
 6814 0cfd 08       		.uleb128 0x8
 6815 0cfe C60C0000 		.4byte	.LASF182
 6816 0d02 0D       		.byte	0xd
 6817 0d03 7B       		.byte	0x7b
 6818 0d04 03       		.byte	0x3
 6819 0d05 C80C0000 		.4byte	0xcc8
 6820 0d09 10       		.uleb128 0x10
 6821 0d0a 74000000 		.4byte	.LASF183
 6822 0d0e 08       		.byte	0x8
 6823 0d0f 0D       		.byte	0xd
 6824 0d10 80       		.byte	0x80
 6825 0d11 10       		.byte	0x10
 6826 0d12 240D0000 		.4byte	0xd24
 6827 0d16 05       		.uleb128 0x5
 6828 0d17 1C0C0000 		.4byte	.LASF184
 6829 0d1b 0D       		.byte	0xd
 6830 0d1c 84       		.byte	0x84
 6831 0d1d 21       		.byte	0x21
 6832 0d1e CC030000 		.4byte	0x3cc
 6833 0d22 00       		.byte	0
 6834 0d23 00       		.byte	0
 6835 0d24 08       		.uleb128 0x8
 6836 0d25 80070000 		.4byte	.LASF185
 6837 0d29 0D       		.byte	0xd
 6838 0d2a 85       		.byte	0x85
 6839 0d2b 03       		.byte	0x3
 6840 0d2c 090D0000 		.4byte	0xd09
 6841 0d30 08       		.uleb128 0x8
 6842 0d31 49000000 		.4byte	.LASF186
 6843 0d35 0D       		.byte	0xd
 6844 0d36 8A       		.byte	0x8a
 6845 0d37 14       		.byte	0x14
 6846 0d38 B5040000 		.4byte	0x4b5
 6847 0d3c 2A       		.uleb128 0x2a
 6848 0d3d 0C       		.byte	0xc
 6849 0d3e 0D       		.byte	0xd
 6850 0d3f A0       		.byte	0xa0
 6851 0d40 03       		.byte	0x3
 6852 0d41 6A0D0000 		.4byte	0xd6a
 6853 0d45 1B       		.uleb128 0x1b
 6854 0d46 CE020000 		.4byte	.LASF187
 6855 0d4a 0D       		.byte	0xd
 6856 0d4b A4       		.byte	0xa4
 6857 0d4c 21       		.byte	0x21
 6858 0d4d A0030000 		.4byte	0x3a0
 6859 0d51 1B       		.uleb128 0x1b
 6860 0d52 1C0C0000 		.4byte	.LASF184
 6861 0d56 0D       		.byte	0xd
 6862 0d57 A8       		.byte	0xa8
 6863 0d58 21       		.byte	0x21
 6864 0d59 CC030000 		.4byte	0x3cc
 6865 0d5d 1B       		.uleb128 0x1b
ARM GAS  C:\Users\DEVELO~1\AppData\Local\Temp\cc5EUJSb.s 			page 122


 6866 0d5e 16040000 		.4byte	.LASF188
 6867 0d62 0D       		.byte	0xd
 6868 0d63 AC       		.byte	0xac
 6869 0d64 21       		.byte	0x21
 6870 0d65 05040000 		.4byte	0x405
 6871 0d69 00       		.byte	0
 6872 0d6a 2A       		.uleb128 0x2a
 6873 0d6b 04       		.byte	0x4
 6874 0d6c 0D       		.byte	0xd
 6875 0d6d EB       		.byte	0xeb
 6876 0d6e 03       		.byte	0x3
 6877 0d6f D40D0000 		.4byte	0xdd4
 6878 0d73 1B       		.uleb128 0x1b
 6879 0d74 F0040000 		.4byte	.LASF189
 6880 0d78 0D       		.byte	0xd
 6881 0d79 F2       		.byte	0xf2
 6882 0d7a 21       		.byte	0x21
 6883 0d7b 5F010000 		.4byte	0x15f
 6884 0d7f 1B       		.uleb128 0x1b
 6885 0d80 1A0F0000 		.4byte	.LASF190
 6886 0d84 0D       		.byte	0xd
 6887 0d85 F9       		.byte	0xf9
 6888 0d86 21       		.byte	0x21
 6889 0d87 5F010000 		.4byte	0x15f
 6890 0d8b 2C       		.uleb128 0x2c
 6891 0d8c 4D010000 		.4byte	.LASF79
 6892 0d90 0001     		.2byte	0x100
 6893 0d92 22       		.byte	0x22
 6894 0d93 BA040000 		.4byte	0x4ba
 6895 0d97 2C       		.uleb128 0x2c
 6896 0d98 F90E0000 		.4byte	.LASF191
 6897 0d9c 0701     		.2byte	0x107
 6898 0d9e 22       		.byte	0x22
 6899 0d9f D40D0000 		.4byte	0xdd4
 6900 0da3 2C       		.uleb128 0x2c
 6901 0da4 19030000 		.4byte	.LASF192
 6902 0da8 0C01     		.2byte	0x10c
 6903 0daa 21       		.byte	0x21
 6904 0dab 5F010000 		.4byte	0x15f
 6905 0daf 2C       		.uleb128 0x2c
 6906 0db0 2F0C0000 		.4byte	.LASF193
 6907 0db4 1501     		.2byte	0x115
 6908 0db6 22       		.byte	0x22
 6909 0db7 010E0000 		.4byte	0xe01
 6910 0dbb 2C       		.uleb128 0x2c
 6911 0dbc 39000000 		.4byte	.LASF194
 6912 0dc0 1E01     		.2byte	0x11e
 6913 0dc2 22       		.byte	0x22
 6914 0dc3 3B0E0000 		.4byte	0xe3b
 6915 0dc7 2C       		.uleb128 0x2c
 6916 0dc8 5A0D0000 		.4byte	.LASF195
 6917 0dcc 2601     		.2byte	0x126
 6918 0dce 21       		.byte	0x21
 6919 0dcf 6B010000 		.4byte	0x16b
 6920 0dd3 00       		.byte	0
 6921 0dd4 09       		.uleb128 0x9
 6922 0dd5 300D0000 		.4byte	0xd30
ARM GAS  C:\Users\DEVELO~1\AppData\Local\Temp\cc5EUJSb.s 			page 123


 6923 0dd9 10       		.uleb128 0x10
 6924 0dda 480C0000 		.4byte	.LASF196
 6925 0dde 0C       		.byte	0xc
 6926 0ddf 14       		.byte	0x14
 6927 0de0 34       		.byte	0x34
 6928 0de1 10       		.byte	0x10
 6929 0de2 010E0000 		.4byte	0xe01
 6930 0de6 05       		.uleb128 0x5
 6931 0de7 1C0C0000 		.4byte	.LASF184
 6932 0deb 14       		.byte	0x14
 6933 0dec 35       		.byte	0x35
 6934 0ded 19       		.byte	0x19
 6935 0dee CC030000 		.4byte	0x3cc
 6936 0df2 00       		.byte	0
 6937 0df3 0F       		.uleb128 0xf
 6938 0df4 636E7400 		.ascii	"cnt\000"
 6939 0df8 14       		.byte	0x14
 6940 0df9 37       		.byte	0x37
 6941 0dfa 19       		.byte	0x19
 6942 0dfb 77010000 		.4byte	0x177
 6943 0dff 08       		.byte	0x8
 6944 0e00 00       		.byte	0
 6945 0e01 09       		.uleb128 0x9
 6946 0e02 D90D0000 		.4byte	0xdd9
 6947 0e06 10       		.uleb128 0x10
 6948 0e07 5E050000 		.4byte	.LASF197
 6949 0e0b 10       		.byte	0x10
 6950 0e0c 15       		.byte	0x15
 6951 0e0d 39       		.byte	0x39
 6952 0e0e 08       		.byte	0x8
 6953 0e0f 3B0E0000 		.4byte	0xe3b
 6954 0e13 05       		.uleb128 0x5
 6955 0e14 1C0C0000 		.4byte	.LASF184
 6956 0e18 15       		.byte	0x15
 6957 0e19 3A       		.byte	0x3a
 6958 0e1a 19       		.byte	0x19
 6959 0e1b CC030000 		.4byte	0x3cc
 6960 0e1f 00       		.byte	0
 6961 0e20 05       		.uleb128 0x5
 6962 0e21 62040000 		.4byte	.LASF34
 6963 0e25 15       		.byte	0x15
 6964 0e26 3C       		.byte	0x3c
 6965 0e27 1A       		.byte	0x1a
 6966 0e28 B5040000 		.4byte	0x4b5
 6967 0e2c 08       		.byte	0x8
 6968 0e2d 05       		.uleb128 0x5
 6969 0e2e E4000000 		.4byte	.LASF69
 6970 0e32 15       		.byte	0x15
 6971 0e33 3E       		.byte	0x3e
 6972 0e34 1A       		.byte	0x1a
 6973 0e35 FA0E0000 		.4byte	0xefa
 6974 0e39 0C       		.byte	0xc
 6975 0e3a 00       		.byte	0
 6976 0e3b 09       		.uleb128 0x9
 6977 0e3c 060E0000 		.4byte	0xe06
 6978 0e40 09       		.uleb128 0x9
 6979 0e41 7E020000 		.4byte	0x27e
ARM GAS  C:\Users\DEVELO~1\AppData\Local\Temp\cc5EUJSb.s 			page 124


 6980 0e45 09       		.uleb128 0x9
 6981 0e46 23010000 		.4byte	0x123
 6982 0e4a 36       		.uleb128 0x36
 6983 0e4b C3010000 		.4byte	.LASF198
 6984 0e4f 10       		.byte	0x10
 6985 0e50 0D       		.byte	0xd
 6986 0e51 5C01     		.2byte	0x15c
 6987 0e53 10       		.byte	0x10
 6988 0e54 750E0000 		.4byte	0xe75
 6989 0e58 03       		.uleb128 0x3
 6990 0e59 16040000 		.4byte	.LASF188
 6991 0e5d 0D       		.byte	0xd
 6992 0e5e 6101     		.2byte	0x161
 6993 0e60 21       		.byte	0x21
 6994 0e61 05040000 		.4byte	0x405
 6995 0e65 00       		.byte	0
 6996 0e66 03       		.uleb128 0x3
 6997 0e67 5F0E0000 		.4byte	.LASF199
 6998 0e6b 0D       		.byte	0xd
 6999 0e6c 6501     		.2byte	0x165
 7000 0e6e 22       		.byte	0x22
 7001 0e6f B5040000 		.4byte	0x4b5
 7002 0e73 0C       		.byte	0xc
 7003 0e74 00       		.byte	0
 7004 0e75 17       		.uleb128 0x17
 7005 0e76 E70B0000 		.4byte	.LASF200
 7006 0e7a 0D       		.byte	0xd
 7007 0e7b 6601     		.2byte	0x166
 7008 0e7d 03       		.byte	0x3
 7009 0e7e 4A0E0000 		.4byte	0xe4a
 7010 0e82 36       		.uleb128 0x36
 7011 0e83 D70A0000 		.4byte	.LASF201
 7012 0e87 14       		.byte	0x14
 7013 0e88 0D       		.byte	0xd
 7014 0e89 6B01     		.2byte	0x16b
 7015 0e8b 10       		.byte	0x10
 7016 0e8c D70E0000 		.4byte	0xed7
 7017 0e90 03       		.uleb128 0x3
 7018 0e91 760B0000 		.4byte	.LASF35
 7019 0e95 0D       		.byte	0xd
 7020 0e96 6F01     		.2byte	0x16f
 7021 0e98 22       		.byte	0x22
 7022 0e99 66030000 		.4byte	0x366
 7023 0e9d 00       		.byte	0
 7024 0e9e 03       		.uleb128 0x3
 7025 0e9f 77060000 		.4byte	.LASF202
 7026 0ea3 0D       		.byte	0xd
 7027 0ea4 7501     		.2byte	0x175
 7028 0ea6 22       		.byte	0x22
 7029 0ea7 450E0000 		.4byte	0xe45
 7030 0eab 04       		.byte	0x4
 7031 0eac 03       		.uleb128 0x3
 7032 0ead 71040000 		.4byte	.LASF203
 7033 0eb1 0D       		.byte	0xd
 7034 0eb2 7901     		.2byte	0x179
 7035 0eb4 22       		.byte	0x22
 7036 0eb5 450E0000 		.4byte	0xe45
ARM GAS  C:\Users\DEVELO~1\AppData\Local\Temp\cc5EUJSb.s 			page 125


 7037 0eb9 08       		.byte	0x8
 7038 0eba 03       		.uleb128 0x3
 7039 0ebb B30D0000 		.4byte	.LASF204
 7040 0ebf 0D       		.byte	0xd
 7041 0ec0 7F01     		.2byte	0x17f
 7042 0ec2 22       		.byte	0x22
 7043 0ec3 450E0000 		.4byte	0xe45
 7044 0ec7 0C       		.byte	0xc
 7045 0ec8 03       		.uleb128 0x3
 7046 0ec9 C1050000 		.4byte	.LASF205
 7047 0ecd 0D       		.byte	0xd
 7048 0ece 8301     		.2byte	0x183
 7049 0ed0 22       		.byte	0x22
 7050 0ed1 450E0000 		.4byte	0xe45
 7051 0ed5 10       		.byte	0x10
 7052 0ed6 00       		.byte	0
 7053 0ed7 17       		.uleb128 0x17
 7054 0ed8 A6030000 		.4byte	.LASF206
 7055 0edc 0D       		.byte	0xd
 7056 0edd 8501     		.2byte	0x185
 7057 0edf 03       		.byte	0x3
 7058 0ee0 820E0000 		.4byte	0xe82
 7059 0ee4 11       		.uleb128 0x11
 7060 0ee5 D70E0000 		.4byte	0xed7
 7061 0ee9 09       		.uleb128 0x9
 7062 0eea E40E0000 		.4byte	0xee4
 7063 0eee 08       		.uleb128 0x8
 7064 0eef 7B0C0000 		.4byte	.LASF207
 7065 0ef3 15       		.byte	0x15
 7066 0ef4 34       		.byte	0x34
 7067 0ef5 19       		.byte	0x19
 7068 0ef6 060E0000 		.4byte	0xe06
 7069 0efa 09       		.uleb128 0x9
 7070 0efb EE0E0000 		.4byte	0xeee
 7071 0eff 13       		.uleb128 0x13
 7072 0f00 01       		.byte	0x1
 7073 0f01 02       		.byte	0x2
 7074 0f02 37050000 		.4byte	.LASF208
 7075 0f06 09       		.uleb128 0x9
 7076 0f07 0B0F0000 		.4byte	0xf0b
 7077 0f0b 40       		.uleb128 0x40
 7078 0f0c 1B0F0000 		.4byte	0xf1b
 7079 0f10 0B       		.uleb128 0xb
 7080 0f11 BA040000 		.4byte	0x4ba
 7081 0f15 0B       		.uleb128 0xb
 7082 0f16 E9000000 		.4byte	0xe9
 7083 0f1a 00       		.byte	0
 7084 0f1b 17       		.uleb128 0x17
 7085 0f1c B2050000 		.4byte	.LASF209
 7086 0f20 16       		.byte	0x16
 7087 0f21 A201     		.2byte	0x1a2
 7088 0f23 10       		.byte	0x10
 7089 0f24 060F0000 		.4byte	0xf06
 7090 0f28 2B       		.uleb128 0x2b
 7091 0f29 10       		.byte	0x10
 7092 0f2a 16       		.byte	0x16
 7093 0f2b A701     		.2byte	0x1a7
ARM GAS  C:\Users\DEVELO~1\AppData\Local\Temp\cc5EUJSb.s 			page 126


 7094 0f2d 860F0000 		.4byte	0xf86
 7095 0f31 03       		.uleb128 0x3
 7096 0f32 E8060000 		.4byte	.LASF210
 7097 0f36 16       		.byte	0x16
 7098 0f37 A801     		.2byte	0x1a8
 7099 0f39 1A       		.byte	0x1a
 7100 0f3a 860F0000 		.4byte	0xf86
 7101 0f3e 00       		.byte	0
 7102 0f3f 03       		.uleb128 0x3
 7103 0f40 2D030000 		.4byte	.LASF211
 7104 0f44 16       		.byte	0x16
 7105 0f45 A901     		.2byte	0x1a9
 7106 0f47 1A       		.byte	0x1a
 7107 0f48 8B0F0000 		.4byte	0xf8b
 7108 0f4c 04       		.byte	0x4
 7109 0f4d 0A       		.uleb128 0xa
 7110 0f4e 6D757800 		.ascii	"mux\000"
 7111 0f52 16       		.byte	0x16
 7112 0f53 AB01     		.2byte	0x1ab
 7113 0f55 1B       		.byte	0x1b
 7114 0f56 900F0000 		.4byte	0xf90
 7115 0f5a 08       		.byte	0x8
 7116 0f5b 03       		.uleb128 0x3
 7117 0f5c 4F030000 		.4byte	.LASF212
 7118 0f60 16       		.byte	0x16
 7119 0f61 AF01     		.2byte	0x1af
 7120 0f63 19       		.byte	0x19
 7121 0f64 BB000000 		.4byte	0xbb
 7122 0f68 0C       		.byte	0xc
 7123 0f69 03       		.uleb128 0x3
 7124 0f6a 230F0000 		.4byte	.LASF213
 7125 0f6e 16       		.byte	0x16
 7126 0f6f B101     		.2byte	0x1b1
 7127 0f71 19       		.byte	0x19
 7128 0f72 BB000000 		.4byte	0xbb
 7129 0f76 0D       		.byte	0xd
 7130 0f77 03       		.uleb128 0x3
 7131 0f78 0F040000 		.4byte	.LASF214
 7132 0f7c 16       		.byte	0x16
 7133 0f7d B201     		.2byte	0x1b2
 7134 0f7f 19       		.byte	0x19
 7135 0f80 BB000000 		.4byte	0xbb
 7136 0f84 0E       		.byte	0xe
 7137 0f85 00       		.byte	0
 7138 0f86 09       		.uleb128 0x9
 7139 0f87 95060000 		.4byte	0x695
 7140 0f8b 09       		.uleb128 0x9
 7141 0f8c F5000000 		.4byte	0xf5
 7142 0f90 09       		.uleb128 0x9
 7143 0f91 4A070000 		.4byte	0x74a
 7144 0f95 17       		.uleb128 0x17
 7145 0f96 87060000 		.4byte	.LASF215
 7146 0f9a 16       		.byte	0x16
 7147 0f9b B301     		.2byte	0x1b3
 7148 0f9d 03       		.byte	0x3
 7149 0f9e 280F0000 		.4byte	0xf28
 7150 0fa2 11       		.uleb128 0x11
ARM GAS  C:\Users\DEVELO~1\AppData\Local\Temp\cc5EUJSb.s 			page 127


 7151 0fa3 950F0000 		.4byte	0xf95
 7152 0fa7 08       		.uleb128 0x8
 7153 0fa8 22020000 		.4byte	.LASF216
 7154 0fac 17       		.byte	0x17
 7155 0fad E0       		.byte	0xe0
 7156 0fae 10       		.byte	0x10
 7157 0faf 060F0000 		.4byte	0xf06
 7158 0fb3 1A       		.uleb128 0x1a
 7159 0fb4 14       		.byte	0x14
 7160 0fb5 17       		.byte	0x17
 7161 0fb6 E5       		.byte	0xe5
 7162 0fb7 09       		.byte	0x9
 7163 0fb8 0B100000 		.4byte	0x100b
 7164 0fbc 05       		.uleb128 0x5
 7165 0fbd 26000000 		.4byte	.LASF217
 7166 0fc1 17       		.byte	0x17
 7167 0fc2 E6       		.byte	0xe6
 7168 0fc3 1E       		.byte	0x1e
 7169 0fc4 0B100000 		.4byte	0x100b
 7170 0fc8 00       		.byte	0
 7171 0fc9 05       		.uleb128 0x5
 7172 0fca D6080000 		.4byte	.LASF218
 7173 0fce 17       		.byte	0x17
 7174 0fcf E7       		.byte	0xe7
 7175 0fd0 1E       		.byte	0x1e
 7176 0fd1 10100000 		.4byte	0x1010
 7177 0fd5 04       		.byte	0x4
 7178 0fd6 05       		.uleb128 0x5
 7179 0fd7 4F030000 		.4byte	.LASF212
 7180 0fdb 17       		.byte	0x17
 7181 0fdc E8       		.byte	0xe8
 7182 0fdd 1D       		.byte	0x1d
 7183 0fde BB000000 		.4byte	0xbb
 7184 0fe2 08       		.byte	0x8
 7185 0fe3 0F       		.uleb128 0xf
 7186 0fe4 6D757800 		.ascii	"mux\000"
 7187 0fe8 17       		.byte	0x17
 7188 0fe9 EA       		.byte	0xea
 7189 0fea 1E       		.byte	0x1e
 7190 0feb 900F0000 		.4byte	0xf90
 7191 0fef 0C       		.byte	0xc
 7192 0ff0 05       		.uleb128 0x5
 7193 0ff1 230F0000 		.4byte	.LASF213
 7194 0ff5 17       		.byte	0x17
 7195 0ff6 EB       		.byte	0xeb
 7196 0ff7 1D       		.byte	0x1d
 7197 0ff8 BB000000 		.4byte	0xbb
 7198 0ffc 10       		.byte	0x10
 7199 0ffd 05       		.uleb128 0x5
 7200 0ffe 0F040000 		.4byte	.LASF214
 7201 1002 17       		.byte	0x17
 7202 1003 EC       		.byte	0xec
 7203 1004 1D       		.byte	0x1d
 7204 1005 BB000000 		.4byte	0xbb
 7205 1009 11       		.byte	0x11
 7206 100a 00       		.byte	0
 7207 100b 09       		.uleb128 0x9
ARM GAS  C:\Users\DEVELO~1\AppData\Local\Temp\cc5EUJSb.s 			page 128


 7208 100c 25070000 		.4byte	0x725
 7209 1010 09       		.uleb128 0x9
 7210 1011 F2060000 		.4byte	0x6f2
 7211 1015 08       		.uleb128 0x8
 7212 1016 DA0E0000 		.4byte	.LASF219
 7213 101a 17       		.byte	0x17
 7214 101b ED       		.byte	0xed
 7215 101c 03       		.byte	0x3
 7216 101d B30F0000 		.4byte	0xfb3
 7217 1021 11       		.uleb128 0x11
 7218 1022 15100000 		.4byte	0x1015
 7219 1026 1A       		.uleb128 0x1a
 7220 1027 04       		.byte	0x4
 7221 1028 18       		.byte	0x18
 7222 1029 5B       		.byte	0x5b
 7223 102a 05       		.byte	0x5
 7224 102b 4A100000 		.4byte	0x104a
 7225 102f 0F       		.uleb128 0xf
 7226 1030 73657400 		.ascii	"set\000"
 7227 1034 18       		.byte	0x18
 7228 1035 5C       		.byte	0x5c
 7229 1036 19       		.byte	0x19
 7230 1037 CC000000 		.4byte	0xcc
 7231 103b 00       		.byte	0
 7232 103c 05       		.uleb128 0x5
 7233 103d 13000000 		.4byte	.LASF220
 7234 1041 18       		.byte	0x18
 7235 1042 5D       		.byte	0x5d
 7236 1043 19       		.byte	0x19
 7237 1044 CC000000 		.4byte	0xcc
 7238 1048 02       		.byte	0x2
 7239 1049 00       		.byte	0
 7240 104a 2A       		.uleb128 0x2a
 7241 104b 04       		.byte	0x4
 7242 104c 18       		.byte	0x18
 7243 104d 59       		.byte	0x59
 7244 104e 0C       		.byte	0xc
 7245 104f 68100000 		.4byte	0x1068
 7246 1053 22       		.uleb128 0x22
 7247 1054 5700     		.ascii	"W\000"
 7248 1056 18       		.byte	0x18
 7249 1057 5A       		.byte	0x5a
 7250 1058 19       		.byte	0x19
 7251 1059 E9000000 		.4byte	0xe9
 7252 105d 22       		.uleb128 0x22
 7253 105e 4800     		.ascii	"H\000"
 7254 1060 18       		.byte	0x18
 7255 1061 5E       		.byte	0x5e
 7256 1062 07       		.byte	0x7
 7257 1063 26100000 		.4byte	0x1026
 7258 1067 00       		.byte	0
 7259 1068 29       		.uleb128 0x29
 7260 1069 4A100000 		.4byte	0x104a
 7261 106d 1A       		.uleb128 0x1a
 7262 106e 28       		.byte	0x28
 7263 106f 18       		.byte	0x18
 7264 1070 51       		.byte	0x51
ARM GAS  C:\Users\DEVELO~1\AppData\Local\Temp\cc5EUJSb.s 			page 129


 7265 1071 09       		.byte	0x9
 7266 1072 F9100000 		.4byte	0x10f9
 7267 1076 05       		.uleb128 0x5
 7268 1077 2E040000 		.4byte	.LASF221
 7269 107b 18       		.byte	0x18
 7270 107c 53       		.byte	0x53
 7271 107d 19       		.byte	0x19
 7272 107e F5000000 		.4byte	0xf5
 7273 1082 00       		.byte	0
 7274 1083 05       		.uleb128 0x5
 7275 1084 C20A0000 		.4byte	.LASF222
 7276 1088 18       		.byte	0x18
 7277 1089 54       		.byte	0x54
 7278 108a 19       		.byte	0x19
 7279 108b F5000000 		.4byte	0xf5
 7280 108f 04       		.byte	0x4
 7281 1090 05       		.uleb128 0x5
 7282 1091 77080000 		.4byte	.LASF223
 7283 1095 18       		.byte	0x18
 7284 1096 55       		.byte	0x55
 7285 1097 19       		.byte	0x19
 7286 1098 F5000000 		.4byte	0xf5
 7287 109c 08       		.byte	0x8
 7288 109d 05       		.uleb128 0x5
 7289 109e A6050000 		.4byte	.LASF224
 7290 10a2 18       		.byte	0x18
 7291 10a3 56       		.byte	0x56
 7292 10a4 19       		.byte	0x19
 7293 10a5 F5000000 		.4byte	0xf5
 7294 10a9 0C       		.byte	0xc
 7295 10aa 0F       		.uleb128 0xf
 7296 10ab 49445200 		.ascii	"IDR\000"
 7297 10af 18       		.byte	0x18
 7298 10b0 57       		.byte	0x57
 7299 10b1 19       		.byte	0x19
 7300 10b2 F5000000 		.4byte	0xf5
 7301 10b6 10       		.byte	0x10
 7302 10b7 0F       		.uleb128 0xf
 7303 10b8 4F445200 		.ascii	"ODR\000"
 7304 10bc 18       		.byte	0x18
 7305 10bd 58       		.byte	0x58
 7306 10be 19       		.byte	0x19
 7307 10bf F5000000 		.4byte	0xf5
 7308 10c3 14       		.byte	0x14
 7309 10c4 05       		.uleb128 0x5
 7310 10c5 5C000000 		.4byte	.LASF225
 7311 10c9 18       		.byte	0x18
 7312 10ca 5F       		.byte	0x5f
 7313 10cb 05       		.byte	0x5
 7314 10cc 68100000 		.4byte	0x1068
 7315 10d0 18       		.byte	0x18
 7316 10d1 05       		.uleb128 0x5
 7317 10d2 9D080000 		.4byte	.LASF226
 7318 10d6 18       		.byte	0x18
 7319 10d7 60       		.byte	0x60
 7320 10d8 19       		.byte	0x19
 7321 10d9 F5000000 		.4byte	0xf5
ARM GAS  C:\Users\DEVELO~1\AppData\Local\Temp\cc5EUJSb.s 			page 130


 7322 10dd 1C       		.byte	0x1c
 7323 10de 05       		.uleb128 0x5
 7324 10df 98050000 		.4byte	.LASF227
 7325 10e3 18       		.byte	0x18
 7326 10e4 61       		.byte	0x61
 7327 10e5 19       		.byte	0x19
 7328 10e6 F5000000 		.4byte	0xf5
 7329 10ea 20       		.byte	0x20
 7330 10eb 05       		.uleb128 0x5
 7331 10ec 50040000 		.4byte	.LASF228
 7332 10f0 18       		.byte	0x18
 7333 10f1 62       		.byte	0x62
 7334 10f2 19       		.byte	0x19
 7335 10f3 F5000000 		.4byte	0xf5
 7336 10f7 24       		.byte	0x24
 7337 10f8 00       		.byte	0
 7338 10f9 08       		.uleb128 0x8
 7339 10fa 55040000 		.4byte	.LASF229
 7340 10fe 18       		.byte	0x18
 7341 10ff 63       		.byte	0x63
 7342 1100 03       		.byte	0x3
 7343 1101 6D100000 		.4byte	0x106d
 7344 1105 08       		.uleb128 0x8
 7345 1106 8D050000 		.4byte	.LASF230
 7346 110a 19       		.byte	0x19
 7347 110b D9       		.byte	0xd9
 7348 110c 18       		.byte	0x18
 7349 110d 11110000 		.4byte	0x1111
 7350 1111 09       		.uleb128 0x9
 7351 1112 F9100000 		.4byte	0x10f9
 7352 1116 09       		.uleb128 0x9
 7353 1117 A20F0000 		.4byte	0xfa2
 7354 111b 4E       		.uleb128 0x4e
 7355 111c 07       		.byte	0x7
 7356 111d 01       		.byte	0x1
 7357 111e 61000000 		.4byte	0x61
 7358 1122 1A       		.byte	0x1a
 7359 1123 76       		.byte	0x76
 7360 1124 0E       		.byte	0xe
 7361 1125 48110000 		.4byte	0x1148
 7362 1129 2F       		.uleb128 0x2f
 7363 112a CB080000 		.4byte	.LASF231
 7364 112e 00       		.byte	0
 7365 112f 2F       		.uleb128 0x2f
 7366 1130 FC0B0000 		.4byte	.LASF232
 7367 1134 01       		.byte	0x1
 7368 1135 2F       		.uleb128 0x2f
 7369 1136 4A0B0000 		.4byte	.LASF233
 7370 113a 02       		.byte	0x2
 7371 113b 2F       		.uleb128 0x2f
 7372 113c 97070000 		.4byte	.LASF234
 7373 1140 03       		.byte	0x3
 7374 1141 2F       		.uleb128 0x2f
 7375 1142 0D0F0000 		.4byte	.LASF235
 7376 1146 04       		.byte	0x4
 7377 1147 00       		.byte	0
 7378 1148 08       		.uleb128 0x8
ARM GAS  C:\Users\DEVELO~1\AppData\Local\Temp\cc5EUJSb.s 			page 131


 7379 1149 6C0A0000 		.4byte	.LASF236
 7380 114d 1A       		.byte	0x1a
 7381 114e 7C       		.byte	0x7c
 7382 114f 03       		.byte	0x3
 7383 1150 1B110000 		.4byte	0x111b
 7384 1154 08       		.uleb128 0x8
 7385 1155 8E0D0000 		.4byte	.LASF237
 7386 1159 1A       		.byte	0x1a
 7387 115a 81       		.byte	0x81
 7388 115b 1F       		.byte	0x1f
 7389 115c 60110000 		.4byte	0x1160
 7390 1160 10       		.uleb128 0x10
 7391 1161 3C040000 		.4byte	.LASF238
 7392 1165 3C       		.byte	0x3c
 7393 1166 1A       		.byte	0x1a
 7394 1167 D8       		.byte	0xd8
 7395 1168 08       		.byte	0x8
 7396 1169 08120000 		.4byte	0x1208
 7397 116d 05       		.uleb128 0x5
 7398 116e 540D0000 		.4byte	.LASF37
 7399 1172 1A       		.byte	0x1a
 7400 1173 DC       		.byte	0xdc
 7401 1174 1D       		.byte	0x1d
 7402 1175 48110000 		.4byte	0x1148
 7403 1179 00       		.byte	0
 7404 117a 05       		.uleb128 0x5
 7405 117b 1A090000 		.4byte	.LASF54
 7406 117f 1A       		.byte	0x1a
 7407 1180 E0       		.byte	0xe0
 7408 1181 1E       		.byte	0x1e
 7409 1182 30130000 		.4byte	0x1330
 7410 1186 04       		.byte	0x4
 7411 1187 05       		.uleb128 0x5
 7412 1188 510E0000 		.4byte	.LASF239
 7413 118c 1A       		.byte	0x1a
 7414 118d E5       		.byte	0xe5
 7415 118e 1D       		.byte	0x1d
 7416 118f 300D0000 		.4byte	0xd30
 7417 1193 08       		.byte	0x8
 7418 1194 05       		.uleb128 0x5
 7419 1195 49030000 		.4byte	.LASF240
 7420 1199 1A       		.byte	0x1a
 7421 119a EB       		.byte	0xeb
 7422 119b 1D       		.byte	0x1d
 7423 119c EE0E0000 		.4byte	0xeee
 7424 11a0 0C       		.byte	0xc
 7425 11a1 0F       		.uleb128 0xf
 7426 11a2 73706900 		.ascii	"spi\000"
 7427 11a6 1A       		.byte	0x1a
 7428 11a7 F1       		.byte	0xf1
 7429 11a8 03       		.byte	0x3
 7430 11a9 35130000 		.4byte	0x1335
 7431 11ad 1C       		.byte	0x1c
 7432 11ae 05       		.uleb128 0x5
 7433 11af A50E0000 		.4byte	.LASF241
 7434 11b3 1A       		.byte	0x1a
 7435 11b4 F1       		.byte	0xf1
ARM GAS  C:\Users\DEVELO~1\AppData\Local\Temp\cc5EUJSb.s 			page 132


 7436 11b5 03       		.byte	0x3
 7437 11b6 FF0E0000 		.4byte	0xeff
 7438 11ba 20       		.byte	0x20
 7439 11bb 0F       		.uleb128 0xf
 7440 11bc 727800   		.ascii	"rx\000"
 7441 11bf 1A       		.byte	0x1a
 7442 11c0 F1       		.byte	0xf1
 7443 11c1 03       		.byte	0x3
 7444 11c2 E7120000 		.4byte	0x12e7
 7445 11c6 24       		.byte	0x24
 7446 11c7 0F       		.uleb128 0xf
 7447 11c8 747800   		.ascii	"tx\000"
 7448 11cb 1A       		.byte	0x1a
 7449 11cc F1       		.byte	0xf1
 7450 11cd 03       		.byte	0x3
 7451 11ce 0E130000 		.4byte	0x130e
 7452 11d2 28       		.byte	0x28
 7453 11d3 05       		.uleb128 0x5
 7454 11d4 DC0C0000 		.4byte	.LASF242
 7455 11d8 1A       		.byte	0x1a
 7456 11d9 F1       		.byte	0xf1
 7457 11da 03       		.byte	0x3
 7458 11db E9000000 		.4byte	0xe9
 7459 11df 2C       		.byte	0x2c
 7460 11e0 05       		.uleb128 0x5
 7461 11e1 42060000 		.4byte	.LASF243
 7462 11e5 1A       		.byte	0x1a
 7463 11e6 F1       		.byte	0xf1
 7464 11e7 03       		.byte	0x3
 7465 11e8 E9000000 		.4byte	0xe9
 7466 11ec 30       		.byte	0x30
 7467 11ed 05       		.uleb128 0x5
 7468 11ee 060F0000 		.4byte	.LASF244
 7469 11f2 1A       		.byte	0x1a
 7470 11f3 F1       		.byte	0xf1
 7471 11f4 03       		.byte	0x3
 7472 11f5 E9000000 		.4byte	0xe9
 7473 11f9 34       		.byte	0x34
 7474 11fa 05       		.uleb128 0x5
 7475 11fb F90A0000 		.4byte	.LASF245
 7476 11ff 1A       		.byte	0x1a
 7477 1200 F1       		.byte	0xf1
 7478 1201 03       		.byte	0x3
 7479 1202 E9000000 		.4byte	0xe9
 7480 1206 38       		.byte	0x38
 7481 1207 00       		.byte	0
 7482 1208 08       		.uleb128 0x8
 7483 1209 67050000 		.4byte	.LASF246
 7484 120d 1A       		.byte	0x1a
 7485 120e 86       		.byte	0x86
 7486 120f 1F       		.byte	0x1f
 7487 1210 19120000 		.4byte	0x1219
 7488 1214 11       		.uleb128 0x11
 7489 1215 08120000 		.4byte	0x1208
 7490 1219 10       		.uleb128 0x10
 7491 121a F9070000 		.4byte	.LASF247
 7492 121e 1C       		.byte	0x1c
ARM GAS  C:\Users\DEVELO~1\AppData\Local\Temp\cc5EUJSb.s 			page 133


 7493 121f 1A       		.byte	0x1a
 7494 1220 9F       		.byte	0x9f
 7495 1221 08       		.byte	0x8
 7496 1222 8F120000 		.4byte	0x128f
 7497 1226 05       		.uleb128 0x5
 7498 1227 40000000 		.4byte	.LASF248
 7499 122b 1A       		.byte	0x1a
 7500 122c A4       		.byte	0xa4
 7501 122d 1D       		.byte	0x1d
 7502 122e FF0E0000 		.4byte	0xeff
 7503 1232 00       		.byte	0
 7504 1233 05       		.uleb128 0x5
 7505 1234 AC050000 		.4byte	.LASF249
 7506 1238 1A       		.byte	0x1a
 7507 1239 AA       		.byte	0xaa
 7508 123a 1D       		.byte	0x1d
 7509 123b FF0E0000 		.4byte	0xeff
 7510 123f 01       		.byte	0x1
 7511 1240 05       		.uleb128 0x5
 7512 1241 420B0000 		.4byte	.LASF250
 7513 1245 1A       		.byte	0x1a
 7514 1246 AF       		.byte	0xaf
 7515 1247 1D       		.byte	0x1d
 7516 1248 8F120000 		.4byte	0x128f
 7517 124c 04       		.byte	0x4
 7518 124d 05       		.uleb128 0x5
 7519 124e 44010000 		.4byte	.LASF251
 7520 1252 1A       		.byte	0x1a
 7521 1253 B3       		.byte	0xb3
 7522 1254 1D       		.byte	0x1d
 7523 1255 8F120000 		.4byte	0x128f
 7524 1259 08       		.byte	0x8
 7525 125a 05       		.uleb128 0x5
 7526 125b D3020000 		.4byte	.LASF252
 7527 125f 1A       		.byte	0x1a
 7528 1260 CA       		.byte	0xca
 7529 1261 1D       		.byte	0x1d
 7530 1262 05110000 		.4byte	0x1105
 7531 1266 0C       		.byte	0xc
 7532 1267 05       		.uleb128 0x5
 7533 1268 670F0000 		.4byte	.LASF253
 7534 126c 1A       		.byte	0x1a
 7535 126d CF       		.byte	0xcf
 7536 126e 1D       		.byte	0x1d
 7537 126f 0B010000 		.4byte	0x10b
 7538 1273 10       		.byte	0x10
 7539 1274 05       		.uleb128 0x5
 7540 1275 9B0E0000 		.4byte	.LASF254
 7541 1279 1A       		.byte	0x1a
 7542 127a D2       		.byte	0xd2
 7543 127b 03       		.byte	0x3
 7544 127c E9000000 		.4byte	0xe9
 7545 1280 14       		.byte	0x14
 7546 1281 05       		.uleb128 0x5
 7547 1282 A00E0000 		.4byte	.LASF255
 7548 1286 1A       		.byte	0x1a
 7549 1287 D2       		.byte	0xd2
ARM GAS  C:\Users\DEVELO~1\AppData\Local\Temp\cc5EUJSb.s 			page 134


 7550 1288 03       		.byte	0x3
 7551 1289 E9000000 		.4byte	0xe9
 7552 128d 18       		.byte	0x18
 7553 128e 00       		.byte	0
 7554 128f 08       		.uleb128 0x8
 7555 1290 C6020000 		.4byte	.LASF256
 7556 1294 1A       		.byte	0x1a
 7557 1295 8E       		.byte	0x8e
 7558 1296 10       		.byte	0x10
 7559 1297 9B120000 		.4byte	0x129b
 7560 129b 09       		.uleb128 0x9
 7561 129c A0120000 		.4byte	0x12a0
 7562 12a0 40       		.uleb128 0x40
 7563 12a1 AB120000 		.4byte	0x12ab
 7564 12a5 0B       		.uleb128 0xb
 7565 12a6 AB120000 		.4byte	0x12ab
 7566 12aa 00       		.byte	0
 7567 12ab 09       		.uleb128 0x9
 7568 12ac 54110000 		.4byte	0x1154
 7569 12b0 30       		.uleb128 0x30
 7570 12b1 DE080000 		.4byte	.LASF257
 7571 12b5 4A02     		.2byte	0x24a
 7572 12b7 54110000 		.4byte	0x1154
 7573 12bb 30       		.uleb128 0x30
 7574 12bc E4080000 		.4byte	.LASF258
 7575 12c0 4E02     		.2byte	0x24e
 7576 12c2 54110000 		.4byte	0x1154
 7577 12c6 30       		.uleb128 0x30
 7578 12c7 EA080000 		.4byte	.LASF259
 7579 12cb 5202     		.2byte	0x252
 7580 12cd 54110000 		.4byte	0x1154
 7581 12d1 30       		.uleb128 0x30
 7582 12d2 01090000 		.4byte	.LASF260
 7583 12d6 5A02     		.2byte	0x25a
 7584 12d8 54110000 		.4byte	0x1154
 7585 12dc 30       		.uleb128 0x30
 7586 12dd 07090000 		.4byte	.LASF261
 7587 12e1 5E02     		.2byte	0x25e
 7588 12e3 54110000 		.4byte	0x1154
 7589 12e7 2A       		.uleb128 0x2a
 7590 12e8 04       		.byte	0x4
 7591 12e9 1A       		.byte	0x1a
 7592 12ea F1       		.byte	0xf1
 7593 12eb 03       		.byte	0x3
 7594 12ec 09130000 		.4byte	0x1309
 7595 12f0 22       		.uleb128 0x22
 7596 12f1 646D6100 		.ascii	"dma\000"
 7597 12f5 1A       		.byte	0x1a
 7598 12f6 F1       		.byte	0xf1
 7599 12f7 03       		.byte	0x3
 7600 12f8 16110000 		.4byte	0x1116
 7601 12fc 1B       		.uleb128 0x1b
 7602 12fd 26000000 		.4byte	.LASF217
 7603 1301 1A       		.byte	0x1a
 7604 1302 F1       		.byte	0xf1
 7605 1303 03       		.byte	0x3
 7606 1304 09130000 		.4byte	0x1309
ARM GAS  C:\Users\DEVELO~1\AppData\Local\Temp\cc5EUJSb.s 			page 135


 7607 1308 00       		.byte	0
 7608 1309 09       		.uleb128 0x9
 7609 130a 21100000 		.4byte	0x1021
 7610 130e 2A       		.uleb128 0x2a
 7611 130f 04       		.byte	0x4
 7612 1310 1A       		.byte	0x1a
 7613 1311 F1       		.byte	0xf1
 7614 1312 03       		.byte	0x3
 7615 1313 30130000 		.4byte	0x1330
 7616 1317 22       		.uleb128 0x22
 7617 1318 646D6100 		.ascii	"dma\000"
 7618 131c 1A       		.byte	0x1a
 7619 131d F1       		.byte	0xf1
 7620 131e 03       		.byte	0x3
 7621 131f 16110000 		.4byte	0x1116
 7622 1323 1B       		.uleb128 0x1b
 7623 1324 26000000 		.4byte	.LASF217
 7624 1328 1A       		.byte	0x1a
 7625 1329 F1       		.byte	0xf1
 7626 132a 03       		.byte	0x3
 7627 132b 09130000 		.4byte	0x1309
 7628 132f 00       		.byte	0
 7629 1330 09       		.uleb128 0x9
 7630 1331 14120000 		.4byte	0x1214
 7631 1335 09       		.uleb128 0x9
 7632 1336 140C0000 		.4byte	0xc14
 7633 133a 31       		.uleb128 0x31
 7634 133b B0120000 		.4byte	0x12b0
 7635 133f 3F       		.byte	0x3f
 7636 1340 05       		.uleb128 0x5
 7637 1341 03       		.byte	0x3
 7638 1342 00000000 		.4byte	SPID1
 7639 1346 31       		.uleb128 0x31
 7640 1347 BB120000 		.4byte	0x12bb
 7641 134b 44       		.byte	0x44
 7642 134c 05       		.uleb128 0x5
 7643 134d 03       		.byte	0x3
 7644 134e 00000000 		.4byte	SPID2
 7645 1352 31       		.uleb128 0x31
 7646 1353 C6120000 		.4byte	0x12c6
 7647 1357 49       		.byte	0x49
 7648 1358 05       		.uleb128 0x5
 7649 1359 03       		.byte	0x3
 7650 135a 00000000 		.4byte	SPID3
 7651 135e 31       		.uleb128 0x31
 7652 135f D1120000 		.4byte	0x12d1
 7653 1363 53       		.byte	0x53
 7654 1364 05       		.uleb128 0x5
 7655 1365 03       		.byte	0x3
 7656 1366 00000000 		.4byte	SPID5
 7657 136a 31       		.uleb128 0x31
 7658 136b DC120000 		.4byte	0x12dc
 7659 136f 58       		.byte	0x58
 7660 1370 05       		.uleb128 0x5
 7661 1371 03       		.byte	0x3
 7662 1372 00000000 		.4byte	SPID6
 7663 1376 2D       		.uleb128 0x2d
ARM GAS  C:\Users\DEVELO~1\AppData\Local\Temp\cc5EUJSb.s 			page 136


 7664 1377 FC000000 		.4byte	.LASF262
 7665 137b 17       		.byte	0x17
 7666 137c D501     		.2byte	0x1d5
 7667 137e 88130000 		.4byte	0x1388
 7668 1382 0B       		.uleb128 0xb
 7669 1383 09130000 		.4byte	0x1309
 7670 1387 00       		.byte	0
 7671 1388 41       		.uleb128 0x41
 7672 1389 87010000 		.4byte	.LASF265
 7673 138d 17       		.byte	0x17
 7674 138e CD01     		.2byte	0x1cd
 7675 1390 1E       		.byte	0x1e
 7676 1391 09130000 		.4byte	0x1309
 7677 1395 AE130000 		.4byte	0x13ae
 7678 1399 0B       		.uleb128 0xb
 7679 139a E9000000 		.4byte	0xe9
 7680 139e 0B       		.uleb128 0xb
 7681 139f E9000000 		.4byte	0xe9
 7682 13a3 0B       		.uleb128 0xb
 7683 13a4 A70F0000 		.4byte	0xfa7
 7684 13a8 0B       		.uleb128 0xb
 7685 13a9 BA040000 		.4byte	0x4ba
 7686 13ad 00       		.byte	0
 7687 13ae 37       		.uleb128 0x37
 7688 13af 6D0D0000 		.4byte	.LASF263
 7689 13b3 0C       		.byte	0xc
 7690 13b4 D9       		.byte	0xd9
 7691 13b5 BF130000 		.4byte	0x13bf
 7692 13b9 0B       		.uleb128 0xb
 7693 13ba 66030000 		.4byte	0x366
 7694 13be 00       		.byte	0
 7695 13bf 2D       		.uleb128 0x2d
 7696 13c0 0B020000 		.4byte	.LASF264
 7697 13c4 16       		.byte	0x16
 7698 13c5 A402     		.2byte	0x2a4
 7699 13c7 D1130000 		.4byte	0x13d1
 7700 13cb 0B       		.uleb128 0xb
 7701 13cc 16110000 		.4byte	0x1116
 7702 13d0 00       		.byte	0
 7703 13d1 41       		.uleb128 0x41
 7704 13d2 540B0000 		.4byte	.LASF266
 7705 13d6 16       		.byte	0x16
 7706 13d7 9C02     		.2byte	0x29c
 7707 13d9 1D       		.byte	0x1d
 7708 13da 16110000 		.4byte	0x1116
 7709 13de F7130000 		.4byte	0x13f7
 7710 13e2 0B       		.uleb128 0xb
 7711 13e3 E9000000 		.4byte	0xe9
 7712 13e7 0B       		.uleb128 0xb
 7713 13e8 E9000000 		.4byte	0xe9
 7714 13ec 0B       		.uleb128 0xb
 7715 13ed 1B0F0000 		.4byte	0xf1b
 7716 13f1 0B       		.uleb128 0xb
 7717 13f2 BA040000 		.4byte	0x4ba
 7718 13f6 00       		.byte	0
 7719 13f7 2D       		.uleb128 0x2d
 7720 13f8 BB060000 		.4byte	.LASF267
ARM GAS  C:\Users\DEVELO~1\AppData\Local\Temp\cc5EUJSb.s 			page 137


 7721 13fc 17       		.byte	0x17
 7722 13fd D701     		.2byte	0x1d7
 7723 13ff 0E140000 		.4byte	0x140e
 7724 1403 0B       		.uleb128 0xb
 7725 1404 09130000 		.4byte	0x1309
 7726 1408 0B       		.uleb128 0xb
 7727 1409 E9000000 		.4byte	0xe9
 7728 140d 00       		.byte	0
 7729 140e 2D       		.uleb128 0x2d
 7730 140f 5E0C0000 		.4byte	.LASF268
 7731 1413 16       		.byte	0x16
 7732 1414 A702     		.2byte	0x2a7
 7733 1416 25140000 		.4byte	0x1425
 7734 141a 0B       		.uleb128 0xb
 7735 141b 16110000 		.4byte	0x1116
 7736 141f 0B       		.uleb128 0xb
 7737 1420 E9000000 		.4byte	0xe9
 7738 1424 00       		.byte	0
 7739 1425 37       		.uleb128 0x37
 7740 1426 F0080000 		.4byte	.LASF269
 7741 142a 1C       		.byte	0x1c
 7742 142b 4F       		.byte	0x4f
 7743 142c 3B140000 		.4byte	0x143b
 7744 1430 0B       		.uleb128 0xb
 7745 1431 E9000000 		.4byte	0xe9
 7746 1435 0B       		.uleb128 0xb
 7747 1436 E9000000 		.4byte	0xe9
 7748 143a 00       		.byte	0
 7749 143b 2D       		.uleb128 0x2d
 7750 143c E7020000 		.4byte	.LASF270
 7751 1440 1A       		.byte	0x1a
 7752 1441 E201     		.2byte	0x1e2
 7753 1443 4D140000 		.4byte	0x144d
 7754 1447 0B       		.uleb128 0xb
 7755 1448 AB120000 		.4byte	0x12ab
 7756 144c 00       		.byte	0
 7757 144d 2D       		.uleb128 0x2d
 7758 144e DA020000 		.4byte	.LASF271
 7759 1452 1D       		.byte	0x1d
 7760 1453 3C01     		.2byte	0x13c
 7761 1455 64140000 		.4byte	0x1464
 7762 1459 0B       		.uleb128 0xb
 7763 145a D40D0000 		.4byte	0xdd4
 7764 145e 0B       		.uleb128 0xb
 7765 145f 5F010000 		.4byte	0x15f
 7766 1463 00       		.byte	0
 7767 1464 4F       		.uleb128 0x4f
 7768 1465 20070000 		.4byte	.LASF341
 7769 1469 05       		.byte	0x5
 7770 146a F402     		.2byte	0x2f4
 7771 146c 08       		.byte	0x8
 7772 146d 37       		.uleb128 0x37
 7773 146e C30B0000 		.4byte	.LASF272
 7774 1472 12       		.byte	0x12
 7775 1473 FF       		.byte	0xff
 7776 1474 7E140000 		.4byte	0x147e
 7777 1478 0B       		.uleb128 0xb
ARM GAS  C:\Users\DEVELO~1\AppData\Local\Temp\cc5EUJSb.s 			page 138


 7778 1479 66030000 		.4byte	0x366
 7779 147d 00       		.byte	0
 7780 147e 37       		.uleb128 0x37
 7781 147f BF0E0000 		.4byte	.LASF273
 7782 1483 12       		.byte	0x12
 7783 1484 FE       		.byte	0xfe
 7784 1485 8F140000 		.4byte	0x148f
 7785 1489 0B       		.uleb128 0xb
 7786 148a 66030000 		.4byte	0x366
 7787 148e 00       		.byte	0
 7788 148f 23       		.uleb128 0x23
 7789 1490 350A0000 		.4byte	.LASF282
 7790 1494 5A05     		.2byte	0x55a
 7791 1496 0A       		.byte	0xa
 7792 1497 E9000000 		.4byte	0xe9
 7793 149b 00000000 		.4byte	.LFB457
 7794 149f 80000000 		.4byte	.LFE457-.LFB457
 7795 14a3 01       		.uleb128 0x1
 7796 14a4 9C       		.byte	0x9c
 7797 14a5 C8150000 		.4byte	0x15c8
 7798 14a9 0D       		.uleb128 0xd
 7799 14aa 4C0F0000 		.4byte	.LASF274
 7800 14ae 5A05     		.2byte	0x55a
 7801 14b0 2D       		.byte	0x2d
 7802 14b1 AB120000 		.4byte	0x12ab
 7803 14b5 18000000 		.4byte	.LLST165
 7804 14b9 0C000000 		.4byte	.LVUS165
 7805 14bd 0D       		.uleb128 0xd
 7806 14be AD0D0000 		.4byte	.LASF275
 7807 14c2 5A05     		.2byte	0x55a
 7808 14c4 3C       		.byte	0x3c
 7809 14c5 E9000000 		.4byte	0xe9
 7810 14c9 50000000 		.4byte	.LLST166
 7811 14cd 46000000 		.4byte	.LVUS166
 7812 14d1 24       		.uleb128 0x24
 7813 14d2 13030000 		.4byte	.LASF276
 7814 14d6 5B05     		.2byte	0x55b
 7815 14d8 0C       		.byte	0xc
 7816 14d9 E9000000 		.4byte	0xe9
 7817 14dd 78000000 		.4byte	.LLST167
 7818 14e1 76000000 		.4byte	.LVUS167
 7819 14e5 24       		.uleb128 0x24
 7820 14e6 6F080000 		.4byte	.LASF277
 7821 14ea 5C05     		.2byte	0x55c
 7822 14ec 0C       		.byte	0xc
 7823 14ed E9000000 		.4byte	0xe9
 7824 14f1 87000000 		.4byte	.LLST168
 7825 14f5 81000000 		.4byte	.LVUS168
 7826 14f9 42       		.uleb128 0x42
 7827 14fa 40010000 		.4byte	.LLRL171
 7828 14fe 2B150000 		.4byte	0x152b
 7829 1502 24       		.uleb128 0x24
 7830 1503 01040000 		.4byte	.LASF278
 7831 1507 6805     		.2byte	0x568
 7832 1509 17       		.byte	0x17
 7833 150a C8150000 		.4byte	0x15c8
 7834 150e 9E000000 		.4byte	.LLST172
ARM GAS  C:\Users\DEVELO~1\AppData\Local\Temp\cc5EUJSb.s 			page 139


 7835 1512 9C000000 		.4byte	.LVUS172
 7836 1516 24       		.uleb128 0x24
 7837 1517 FF0E0000 		.4byte	.LASF279
 7838 151b 6905     		.2byte	0x569
 7839 151d 17       		.byte	0x17
 7840 151e C8150000 		.4byte	0x15c8
 7841 1522 AB000000 		.4byte	.LLST173
 7842 1526 A9000000 		.4byte	.LVUS173
 7843 152a 00       		.byte	0
 7844 152b 42       		.uleb128 0x42
 7845 152c 61010000 		.4byte	.LLRL176
 7846 1530 5D150000 		.4byte	0x155d
 7847 1534 24       		.uleb128 0x24
 7848 1535 A20A0000 		.4byte	.LASF280
 7849 1539 7105     		.2byte	0x571
 7850 153b 18       		.byte	0x18
 7851 153c CD150000 		.4byte	0x15cd
 7852 1540 B8000000 		.4byte	.LLST177
 7853 1544 B6000000 		.4byte	.LVUS177
 7854 1548 24       		.uleb128 0x24
 7855 1549 34040000 		.4byte	.LASF281
 7856 154d 7205     		.2byte	0x572
 7857 154f 18       		.byte	0x18
 7858 1550 CD150000 		.4byte	0x15cd
 7859 1554 C5000000 		.4byte	.LLST178
 7860 1558 C3000000 		.4byte	.LVUS178
 7861 155c 00       		.byte	0
 7862 155d 18       		.uleb128 0x18
 7863 155e AB380000 		.4byte	0x38ab
 7864 1562 12000000 		.4byte	.LBI766
 7865 1566 0200     		.2byte	.LVU1676
 7866 1568 31010000 		.4byte	.LLRL169
 7867 156c 5E05     		.2byte	0x55e
 7868 156e 03       		.byte	0x3
 7869 156f A2150000 		.4byte	0x15a2
 7870 1573 02       		.uleb128 0x2
 7871 1574 B8380000 		.4byte	0x38b8
 7872 1578 D2000000 		.4byte	.LLST170
 7873 157c D0000000 		.4byte	.LVUS170
 7874 1580 1F       		.uleb128 0x1f
 7875 1581 AB380000 		.4byte	0x38ab
 7876 1585 14000000 		.4byte	.LBI768
 7877 1589 0000     		.2byte	.LVU1679
 7878 158b 14000000 		.4byte	.LBB768
 7879 158f 08000000 		.4byte	.LBE768-.LBB768
 7880 1593 01       		.byte	0x1
 7881 1594 76       		.byte	0x76
 7882 1595 0D       		.byte	0xd
 7883 1596 12       		.uleb128 0x12
 7884 1597 B8380000 		.4byte	0x38b8
 7885 159b 12       		.uleb128 0x12
 7886 159c B8380000 		.4byte	0x38b8
 7887 15a0 00       		.byte	0
 7888 15a1 00       		.byte	0
 7889 15a2 25       		.uleb128 0x25
 7890 15a3 91380000 		.4byte	0x3891
 7891 15a7 40000000 		.4byte	.LBI775
ARM GAS  C:\Users\DEVELO~1\AppData\Local\Temp\cc5EUJSb.s 			page 140


 7892 15ab 0200     		.2byte	.LVU1706
 7893 15ad 4F010000 		.4byte	.LLRL174
 7894 15b1 01       		.byte	0x1
 7895 15b2 8005     		.2byte	0x580
 7896 15b4 12       		.uleb128 0x12
 7897 15b5 9E380000 		.4byte	0x389e
 7898 15b9 02       		.uleb128 0x2
 7899 15ba 9E380000 		.4byte	0x389e
 7900 15be DD000000 		.4byte	.LLST175
 7901 15c2 DB000000 		.4byte	.LVUS175
 7902 15c6 00       		.byte	0
 7903 15c7 00       		.byte	0
 7904 15c8 09       		.uleb128 0x9
 7905 15c9 C7000000 		.4byte	0xc7
 7906 15cd 09       		.uleb128 0x9
 7907 15ce D8000000 		.4byte	0xd8
 7908 15d2 23       		.uleb128 0x23
 7909 15d3 EB030000 		.4byte	.LASF283
 7910 15d7 3005     		.2byte	0x530
 7911 15d9 07       		.byte	0x7
 7912 15da 5F010000 		.4byte	0x15f
 7913 15de 00000000 		.4byte	.LFB456
 7914 15e2 26000000 		.4byte	.LFE456-.LFB456
 7915 15e6 01       		.uleb128 0x1
 7916 15e7 9C       		.byte	0x9c
 7917 15e8 38160000 		.4byte	0x1638
 7918 15ec 0D       		.uleb128 0xd
 7919 15ed 4C0F0000 		.4byte	.LASF274
 7920 15f1 3005     		.2byte	0x530
 7921 15f3 28       		.byte	0x28
 7922 15f4 AB120000 		.4byte	0x12ab
 7923 15f8 ED000000 		.4byte	.LLST162
 7924 15fc E9000000 		.4byte	.LVUS162
 7925 1600 0D       		.uleb128 0xd
 7926 1601 E2060000 		.4byte	.LASF284
 7927 1605 3005     		.2byte	0x530
 7928 1607 36       		.byte	0x36
 7929 1608 38160000 		.4byte	0x1638
 7930 160c 01010000 		.4byte	.LLST163
 7931 1610 FD000000 		.4byte	.LVUS163
 7932 1614 43       		.uleb128 0x43
 7933 1615 6D736700 		.ascii	"msg\000"
 7934 1619 3105     		.2byte	0x531
 7935 161b 5F010000 		.4byte	0x15f
 7936 161f 13010000 		.4byte	.LLST164
 7937 1623 11010000 		.4byte	.LVUS164
 7938 1627 0E       		.uleb128 0xe
 7939 1628 0A000000 		.4byte	.LVL285
 7940 162c 21360000 		.4byte	0x3621
 7941 1630 01       		.uleb128 0x1
 7942 1631 01       		.uleb128 0x1
 7943 1632 50       		.byte	0x50
 7944 1633 02       		.uleb128 0x2
 7945 1634 75       		.byte	0x75
 7946 1635 00       		.sleb128 0
 7947 1636 00       		.byte	0
 7948 1637 00       		.byte	0
ARM GAS  C:\Users\DEVELO~1\AppData\Local\Temp\cc5EUJSb.s 			page 141


 7949 1638 09       		.uleb128 0x9
 7950 1639 2D000000 		.4byte	0x2d
 7951 163d 23       		.uleb128 0x23
 7952 163e E4070000 		.4byte	.LASF285
 7953 1642 FA04     		.2byte	0x4fa
 7954 1644 07       		.byte	0x7
 7955 1645 5F010000 		.4byte	0x15f
 7956 1649 00000000 		.4byte	.LFB455
 7957 164d 66000000 		.4byte	.LFE455-.LFB455
 7958 1651 01       		.uleb128 0x1
 7959 1652 9C       		.byte	0x9c
 7960 1653 D6160000 		.4byte	0x16d6
 7961 1657 0D       		.uleb128 0xd
 7962 1658 4C0F0000 		.4byte	.LASF274
 7963 165c FA04     		.2byte	0x4fa
 7964 165e 22       		.byte	0x22
 7965 165f AB120000 		.4byte	0x12ab
 7966 1663 22010000 		.4byte	.LLST158
 7967 1667 1C010000 		.4byte	.LVUS158
 7968 166b 3A       		.uleb128 0x3a
 7969 166c 6E00     		.ascii	"n\000"
 7970 166e FA04     		.2byte	0x4fa
 7971 1670 2F       		.byte	0x2f
 7972 1671 2D000000 		.4byte	0x2d
 7973 1675 01       		.uleb128 0x1
 7974 1676 51       		.byte	0x51
 7975 1677 0D       		.uleb128 0xd
 7976 1678 5B0F0000 		.4byte	.LASF286
 7977 167c FA04     		.2byte	0x4fa
 7978 167e 38       		.byte	0x38
 7979 167f BA040000 		.4byte	0x4ba
 7980 1683 46010000 		.4byte	.LLST159
 7981 1687 3A010000 		.4byte	.LVUS159
 7982 168b 26       		.uleb128 0x26
 7983 168c 670E0000 		.4byte	.LASF289
 7984 1690 E6160000 		.4byte	0x16e6
 7985 1694 25       		.uleb128 0x25
 7986 1695 AB380000 		.4byte	0x38ab
 7987 1699 30000000 		.4byte	.LBI752
 7988 169d 0400     		.2byte	.LVU1620
 7989 169f 25010000 		.4byte	.LLRL160
 7990 16a3 01       		.byte	0x1
 7991 16a4 2105     		.2byte	0x521
 7992 16a6 02       		.uleb128 0x2
 7993 16a7 B8380000 		.4byte	0x38b8
 7994 16ab 74010000 		.4byte	.LLST161
 7995 16af 72010000 		.4byte	.LVUS161
 7996 16b3 1F       		.uleb128 0x1f
 7997 16b4 AB380000 		.4byte	0x38ab
 7998 16b8 40000000 		.4byte	.LBI754
 7999 16bc 0000     		.2byte	.LVU1625
 8000 16be 40000000 		.4byte	.LBB754
 8001 16c2 08000000 		.4byte	.LBE754-.LBB754
 8002 16c6 01       		.byte	0x1
 8003 16c7 76       		.byte	0x76
 8004 16c8 0D       		.byte	0xd
 8005 16c9 12       		.uleb128 0x12
ARM GAS  C:\Users\DEVELO~1\AppData\Local\Temp\cc5EUJSb.s 			page 142


 8006 16ca B8380000 		.4byte	0x38b8
 8007 16ce 12       		.uleb128 0x12
 8008 16cf B8380000 		.4byte	0x38b8
 8009 16d3 00       		.byte	0
 8010 16d4 00       		.byte	0
 8011 16d5 00       		.byte	0
 8012 16d6 14       		.uleb128 0x14
 8013 16d7 77030000 		.4byte	0x377
 8014 16db E6160000 		.4byte	0x16e6
 8015 16df 15       		.uleb128 0x15
 8016 16e0 39000000 		.4byte	0x39
 8017 16e4 0F       		.byte	0xf
 8018 16e5 00       		.byte	0
 8019 16e6 11       		.uleb128 0x11
 8020 16e7 D6160000 		.4byte	0x16d6
 8021 16eb 23       		.uleb128 0x23
 8022 16ec DE0D0000 		.4byte	.LASF287
 8023 16f0 C004     		.2byte	0x4c0
 8024 16f2 07       		.byte	0x7
 8025 16f3 5F010000 		.4byte	0x15f
 8026 16f7 00000000 		.4byte	.LFB454
 8027 16fb 6C000000 		.4byte	.LFE454-.LFB454
 8028 16ff 01       		.uleb128 0x1
 8029 1700 9C       		.byte	0x9c
 8030 1701 84170000 		.4byte	0x1784
 8031 1705 0D       		.uleb128 0xd
 8032 1706 4C0F0000 		.4byte	.LASF274
 8033 170a C004     		.2byte	0x4c0
 8034 170c 1F       		.byte	0x1f
 8035 170d AB120000 		.4byte	0x12ab
 8036 1711 83010000 		.4byte	.LLST154
 8037 1715 7D010000 		.4byte	.LVUS154
 8038 1719 3A       		.uleb128 0x3a
 8039 171a 6E00     		.ascii	"n\000"
 8040 171c C004     		.2byte	0x4c0
 8041 171e 2C       		.byte	0x2c
 8042 171f 2D000000 		.4byte	0x2d
 8043 1723 01       		.uleb128 0x1
 8044 1724 51       		.byte	0x51
 8045 1725 0D       		.uleb128 0xd
 8046 1726 E5010000 		.4byte	.LASF288
 8047 172a C004     		.2byte	0x4c0
 8048 172c 3B       		.byte	0x3b
 8049 172d 84170000 		.4byte	0x1784
 8050 1731 A7010000 		.4byte	.LLST155
 8051 1735 9B010000 		.4byte	.LVUS155
 8052 1739 26       		.uleb128 0x26
 8053 173a 670E0000 		.4byte	.LASF289
 8054 173e 9A170000 		.4byte	0x179a
 8055 1742 25       		.uleb128 0x25
 8056 1743 AB380000 		.4byte	0x38ab
 8057 1747 30000000 		.4byte	.LBI742
 8058 174b 0400     		.2byte	.LVU1558
 8059 174d 19010000 		.4byte	.LLRL156
 8060 1751 01       		.byte	0x1
 8061 1752 E704     		.2byte	0x4e7
 8062 1754 02       		.uleb128 0x2
ARM GAS  C:\Users\DEVELO~1\AppData\Local\Temp\cc5EUJSb.s 			page 143


 8063 1755 B8380000 		.4byte	0x38b8
 8064 1759 D5010000 		.4byte	.LLST157
 8065 175d D3010000 		.4byte	.LVUS157
 8066 1761 1F       		.uleb128 0x1f
 8067 1762 AB380000 		.4byte	0x38ab
 8068 1766 40000000 		.4byte	.LBI744
 8069 176a 0000     		.2byte	.LVU1563
 8070 176c 40000000 		.4byte	.LBB744
 8071 1770 08000000 		.4byte	.LBE744-.LBB744
 8072 1774 01       		.byte	0x1
 8073 1775 76       		.byte	0x76
 8074 1776 0D       		.byte	0xd
 8075 1777 12       		.uleb128 0x12
 8076 1778 B8380000 		.4byte	0x38b8
 8077 177c 12       		.uleb128 0x12
 8078 177d B8380000 		.4byte	0x38b8
 8079 1781 00       		.byte	0
 8080 1782 00       		.byte	0
 8081 1783 00       		.byte	0
 8082 1784 09       		.uleb128 0x9
 8083 1785 89170000 		.4byte	0x1789
 8084 1789 50       		.uleb128 0x50
 8085 178a 14       		.uleb128 0x14
 8086 178b 77030000 		.4byte	0x377
 8087 178f 9A170000 		.4byte	0x179a
 8088 1793 15       		.uleb128 0x15
 8089 1794 39000000 		.4byte	0x39
 8090 1798 0C       		.byte	0xc
 8091 1799 00       		.byte	0
 8092 179a 11       		.uleb128 0x11
 8093 179b 8A170000 		.4byte	0x178a
 8094 179f 23       		.uleb128 0x23
 8095 17a0 93000000 		.4byte	.LASF290
 8096 17a4 8504     		.2byte	0x485
 8097 17a6 07       		.byte	0x7
 8098 17a7 5F010000 		.4byte	0x15f
 8099 17ab 00000000 		.4byte	.LFB453
 8100 17af 6E000000 		.4byte	.LFE453-.LFB453
 8101 17b3 01       		.uleb128 0x1
 8102 17b4 9C       		.byte	0x9c
 8103 17b5 4C180000 		.4byte	0x184c
 8104 17b9 0D       		.uleb128 0xd
 8105 17ba 4C0F0000 		.4byte	.LASF274
 8106 17be 8504     		.2byte	0x485
 8107 17c0 23       		.byte	0x23
 8108 17c1 AB120000 		.4byte	0x12ab
 8109 17c5 E4010000 		.4byte	.LLST149
 8110 17c9 DE010000 		.4byte	.LVUS149
 8111 17cd 3A       		.uleb128 0x3a
 8112 17ce 6E00     		.ascii	"n\000"
 8113 17d0 8504     		.2byte	0x485
 8114 17d2 30       		.byte	0x30
 8115 17d3 2D000000 		.4byte	0x2d
 8116 17d7 01       		.uleb128 0x1
 8117 17d8 51       		.byte	0x51
 8118 17d9 0D       		.uleb128 0xd
 8119 17da E5010000 		.4byte	.LASF288
ARM GAS  C:\Users\DEVELO~1\AppData\Local\Temp\cc5EUJSb.s 			page 144


 8120 17de 8604     		.2byte	0x486
 8121 17e0 24       		.byte	0x24
 8122 17e1 84170000 		.4byte	0x1784
 8123 17e5 08020000 		.4byte	.LLST150
 8124 17e9 FC010000 		.4byte	.LVUS150
 8125 17ed 0D       		.uleb128 0xd
 8126 17ee 5B0F0000 		.4byte	.LASF286
 8127 17f2 8604     		.2byte	0x486
 8128 17f4 31       		.byte	0x31
 8129 17f5 BA040000 		.4byte	0x4ba
 8130 17f9 40020000 		.4byte	.LLST151
 8131 17fd 34020000 		.4byte	.LVUS151
 8132 1801 26       		.uleb128 0x26
 8133 1802 670E0000 		.4byte	.LASF289
 8134 1806 5C180000 		.4byte	0x185c
 8135 180a 25       		.uleb128 0x25
 8136 180b AB380000 		.4byte	0x38ab
 8137 180f 30000000 		.4byte	.LBI732
 8138 1813 0400     		.2byte	.LVU1500
 8139 1815 0D010000 		.4byte	.LLRL152
 8140 1819 01       		.byte	0x1
 8141 181a AD04     		.2byte	0x4ad
 8142 181c 02       		.uleb128 0x2
 8143 181d B8380000 		.4byte	0x38b8
 8144 1821 6E020000 		.4byte	.LLST153
 8145 1825 6C020000 		.4byte	.LVUS153
 8146 1829 1F       		.uleb128 0x1f
 8147 182a AB380000 		.4byte	0x38ab
 8148 182e 40000000 		.4byte	.LBI734
 8149 1832 0000     		.2byte	.LVU1505
 8150 1834 40000000 		.4byte	.LBB734
 8151 1838 08000000 		.4byte	.LBE734-.LBB734
 8152 183c 01       		.byte	0x1
 8153 183d 76       		.byte	0x76
 8154 183e 0D       		.byte	0xd
 8155 183f 12       		.uleb128 0x12
 8156 1840 B8380000 		.4byte	0x38b8
 8157 1844 12       		.uleb128 0x12
 8158 1845 B8380000 		.4byte	0x38b8
 8159 1849 00       		.byte	0
 8160 184a 00       		.byte	0
 8161 184b 00       		.byte	0
 8162 184c 14       		.uleb128 0x14
 8163 184d 77030000 		.4byte	0x377
 8164 1851 5C180000 		.4byte	0x185c
 8165 1855 15       		.uleb128 0x15
 8166 1856 39000000 		.4byte	0x39
 8167 185a 10       		.byte	0x10
 8168 185b 00       		.byte	0
 8169 185c 11       		.uleb128 0x11
 8170 185d 4C180000 		.4byte	0x184c
 8171 1861 23       		.uleb128 0x23
 8172 1862 D6090000 		.4byte	.LASF291
 8173 1866 4904     		.2byte	0x449
 8174 1868 07       		.byte	0x7
 8175 1869 5F010000 		.4byte	0x15f
 8176 186d 00000000 		.4byte	.LFB452
ARM GAS  C:\Users\DEVELO~1\AppData\Local\Temp\cc5EUJSb.s 			page 145


 8177 1871 5A000000 		.4byte	.LFE452-.LFB452
 8178 1875 01       		.uleb128 0x1
 8179 1876 9C       		.byte	0x9c
 8180 1877 ED180000 		.4byte	0x18ed
 8181 187b 0D       		.uleb128 0xd
 8182 187c 4C0F0000 		.4byte	.LASF274
 8183 1880 4904     		.2byte	0x449
 8184 1882 21       		.byte	0x21
 8185 1883 AB120000 		.4byte	0x12ab
 8186 1887 7F020000 		.4byte	.LLST145
 8187 188b 77020000 		.4byte	.LVUS145
 8188 188f 51       		.uleb128 0x51
 8189 1890 6E00     		.ascii	"n\000"
 8190 1892 01       		.byte	0x1
 8191 1893 4904     		.2byte	0x449
 8192 1895 2E       		.byte	0x2e
 8193 1896 2D000000 		.4byte	0x2d
 8194 189a A4020000 		.4byte	.LLST146
 8195 189e 9E020000 		.4byte	.LVUS146
 8196 18a2 26       		.uleb128 0x26
 8197 18a3 670E0000 		.4byte	.LASF289
 8198 18a7 FD180000 		.4byte	0x18fd
 8199 18ab 25       		.uleb128 0x25
 8200 18ac AB380000 		.4byte	0x38ab
 8201 18b0 30000000 		.4byte	.LBI722
 8202 18b4 0400     		.2byte	.LVU1454
 8203 18b6 01010000 		.4byte	.LLRL147
 8204 18ba 01       		.byte	0x1
 8205 18bb 7004     		.2byte	0x470
 8206 18bd 02       		.uleb128 0x2
 8207 18be B8380000 		.4byte	0x38b8
 8208 18c2 BE020000 		.4byte	.LLST148
 8209 18c6 BC020000 		.4byte	.LVUS148
 8210 18ca 1F       		.uleb128 0x1f
 8211 18cb AB380000 		.4byte	0x38ab
 8212 18cf 40000000 		.4byte	.LBI724
 8213 18d3 0000     		.2byte	.LVU1459
 8214 18d5 40000000 		.4byte	.LBB724
 8215 18d9 08000000 		.4byte	.LBE724-.LBB724
 8216 18dd 01       		.byte	0x1
 8217 18de 76       		.byte	0x76
 8218 18df 0D       		.byte	0xd
 8219 18e0 12       		.uleb128 0x12
 8220 18e1 B8380000 		.4byte	0x38b8
 8221 18e5 12       		.uleb128 0x12
 8222 18e6 B8380000 		.4byte	0x38b8
 8223 18ea 00       		.byte	0
 8224 18eb 00       		.byte	0
 8225 18ec 00       		.byte	0
 8226 18ed 14       		.uleb128 0x14
 8227 18ee 77030000 		.4byte	0x377
 8228 18f2 FD180000 		.4byte	0x18fd
 8229 18f6 15       		.uleb128 0x15
 8230 18f7 39000000 		.4byte	0x39
 8231 18fb 0E       		.byte	0xe
 8232 18fc 00       		.byte	0
 8233 18fd 11       		.uleb128 0x11
ARM GAS  C:\Users\DEVELO~1\AppData\Local\Temp\cc5EUJSb.s 			page 146


 8234 18fe ED180000 		.4byte	0x18ed
 8235 1902 27       		.uleb128 0x27
 8236 1903 700E0000 		.4byte	.LASF293
 8237 1907 D903     		.2byte	0x3d9
 8238 1909 06       		.byte	0x6
 8239 190a 00000000 		.4byte	.LFB451
 8240 190e 04010000 		.4byte	.LFE451-.LFB451
 8241 1912 01       		.uleb128 0x1
 8242 1913 9C       		.byte	0x9c
 8243 1914 301A0000 		.4byte	0x1a30
 8244 1918 0D       		.uleb128 0xd
 8245 1919 4C0F0000 		.4byte	.LASF274
 8246 191d D903     		.2byte	0x3d9
 8247 191f 1E       		.byte	0x1e
 8248 1920 AB120000 		.4byte	0x12ab
 8249 1924 CD020000 		.4byte	.LLST140
 8250 1928 C7020000 		.4byte	.LVUS140
 8251 192c 26       		.uleb128 0x26
 8252 192d 670E0000 		.4byte	.LASF289
 8253 1931 9A170000 		.4byte	0x179a
 8254 1935 07       		.uleb128 0x7
 8255 1936 FB380000 		.4byte	0x38fb
 8256 193a 40000000 		.4byte	.LBI708
 8257 193e 0100     		.2byte	.LVU1376
 8258 1940 40000000 		.4byte	.LBB708
 8259 1944 1E000000 		.4byte	.LBE708-.LBB708
 8260 1948 1804     		.2byte	0x418
 8261 194a 07       		.byte	0x7
 8262 194b 5D190000 		.4byte	0x195d
 8263 194f 02       		.uleb128 0x2
 8264 1950 09390000 		.4byte	0x3909
 8265 1954 EA020000 		.4byte	.LLST141
 8266 1958 E8020000 		.4byte	.LVUS141
 8267 195c 00       		.byte	0
 8268 195d 07       		.uleb128 0x7
 8269 195e 5B390000 		.4byte	0x395b
 8270 1962 6C000000 		.4byte	.LBI710
 8271 1966 0100     		.2byte	.LVU1388
 8272 1968 6C000000 		.4byte	.LBB710
 8273 196c 1E000000 		.4byte	.LBE710-.LBB710
 8274 1970 FA03     		.2byte	0x3fa
 8275 1972 07       		.byte	0x7
 8276 1973 85190000 		.4byte	0x1985
 8277 1977 02       		.uleb128 0x2
 8278 1978 69390000 		.4byte	0x3969
 8279 197c F7020000 		.4byte	.LLST142
 8280 1980 F5020000 		.4byte	.LVUS142
 8281 1984 00       		.byte	0
 8282 1985 07       		.uleb128 0x7
 8283 1986 5B390000 		.4byte	0x395b
 8284 198a 8C000000 		.4byte	.LBI712
 8285 198e 0100     		.2byte	.LVU1396
 8286 1990 8C000000 		.4byte	.LBB712
 8287 1994 1E000000 		.4byte	.LBE712-.LBB712
 8288 1998 1204     		.2byte	0x412
 8289 199a 07       		.byte	0x7
 8290 199b AD190000 		.4byte	0x19ad
ARM GAS  C:\Users\DEVELO~1\AppData\Local\Temp\cc5EUJSb.s 			page 147


 8291 199f 02       		.uleb128 0x2
 8292 19a0 69390000 		.4byte	0x3969
 8293 19a4 05030000 		.4byte	.LLST143
 8294 19a8 03030000 		.4byte	.LVUS143
 8295 19ac 00       		.byte	0
 8296 19ad 07       		.uleb128 0x7
 8297 19ae B9390000 		.4byte	0x39b9
 8298 19b2 AC000000 		.4byte	.LBI714
 8299 19b6 0100     		.2byte	.LVU1404
 8300 19b8 AC000000 		.4byte	.LBB714
 8301 19bc 1E000000 		.4byte	.LBE714-.LBB714
 8302 19c0 0004     		.2byte	0x400
 8303 19c2 07       		.byte	0x7
 8304 19c3 D5190000 		.4byte	0x19d5
 8305 19c7 02       		.uleb128 0x2
 8306 19c8 C6390000 		.4byte	0x39c6
 8307 19cc 13030000 		.4byte	.LLST144
 8308 19d0 11030000 		.4byte	.LVUS144
 8309 19d4 00       		.byte	0
 8310 19d5 07       		.uleb128 0x7
 8311 19d6 B9390000 		.4byte	0x39b9
 8312 19da CC000000 		.4byte	.LBI716
 8313 19de 0100     		.2byte	.LVU1412
 8314 19e0 CC000000 		.4byte	.LBB716
 8315 19e4 1E000000 		.4byte	.LBE716-.LBB716
 8316 19e8 0604     		.2byte	0x406
 8317 19ea 07       		.byte	0x7
 8318 19eb F7190000 		.4byte	0x19f7
 8319 19ef 52       		.uleb128 0x52
 8320 19f0 C6390000 		.4byte	0x39c6
 8321 19f4 0080     		.2byte	0x8000
 8322 19f6 00       		.byte	0
 8323 19f7 06       		.uleb128 0x6
 8324 19f8 10000000 		.4byte	.LVL229
 8325 19fc 81360000 		.4byte	0x3681
 8326 1a00 0B1A0000 		.4byte	0x1a0b
 8327 1a04 01       		.uleb128 0x1
 8328 1a05 01       		.uleb128 0x1
 8329 1a06 50       		.byte	0x50
 8330 1a07 02       		.uleb128 0x2
 8331 1a08 74       		.byte	0x74
 8332 1a09 00       		.sleb128 0
 8333 1a0a 00       		.byte	0
 8334 1a0b 28       		.uleb128 0x28
 8335 1a0c 1C000000 		.4byte	.LVL230
 8336 1a10 BF130000 		.4byte	0x13bf
 8337 1a14 28       		.uleb128 0x28
 8338 1a15 22000000 		.4byte	.LVL231
 8339 1a19 BF130000 		.4byte	0x13bf
 8340 1a1d 28       		.uleb128 0x28
 8341 1a1e 64000000 		.4byte	.LVL235
 8342 1a22 76130000 		.4byte	0x1376
 8343 1a26 28       		.uleb128 0x28
 8344 1a27 6A000000 		.4byte	.LVL236
 8345 1a2b 76130000 		.4byte	0x1376
 8346 1a2f 00       		.byte	0
 8347 1a30 23       		.uleb128 0x23
ARM GAS  C:\Users\DEVELO~1\AppData\Local\Temp\cc5EUJSb.s 			page 148


 8348 1a31 98030000 		.4byte	.LASF292
 8349 1a35 F302     		.2byte	0x2f3
 8350 1a37 07       		.byte	0x7
 8351 1a38 5F010000 		.4byte	0x15f
 8352 1a3c 00000000 		.4byte	.LFB450
 8353 1a40 AC030000 		.4byte	.LFE450-.LFB450
 8354 1a44 01       		.uleb128 0x1
 8355 1a45 9C       		.byte	0x9c
 8356 1a46 FC200000 		.4byte	0x20fc
 8357 1a4a 0D       		.uleb128 0xd
 8358 1a4b 4C0F0000 		.4byte	.LASF274
 8359 1a4f F302     		.2byte	0x2f3
 8360 1a51 20       		.byte	0x20
 8361 1a52 AB120000 		.4byte	0x12ab
 8362 1a56 3F030000 		.4byte	.LLST95
 8363 1a5a 1F030000 		.4byte	.LVUS95
 8364 1a5e 24       		.uleb128 0x24
 8365 1a5f 13030000 		.4byte	.LASF276
 8366 1a63 F402     		.2byte	0x2f4
 8367 1a65 0C       		.byte	0xc
 8368 1a66 E9000000 		.4byte	0xe9
 8369 1a6a BD030000 		.4byte	.LLST96
 8370 1a6e B3030000 		.4byte	.LVUS96
 8371 1a72 43       		.uleb128 0x43
 8372 1a73 6D736700 		.ascii	"msg\000"
 8373 1a77 F502     		.2byte	0x2f5
 8374 1a79 5F010000 		.4byte	0x15f
 8375 1a7d F4030000 		.4byte	.LLST97
 8376 1a81 E4030000 		.4byte	.LVUS97
 8377 1a85 26       		.uleb128 0x26
 8378 1a86 670E0000 		.4byte	.LASF289
 8379 1a8a 0C210000 		.4byte	0x210c
 8380 1a8e 18       		.uleb128 0x18
 8381 1a8f FB2D0000 		.4byte	0x2dfb
 8382 1a93 7A000000 		.4byte	.LBI660
 8383 1a97 0100     		.2byte	.LVU1067
 8384 1a99 DB000000 		.4byte	.LLRL98
 8385 1a9d 5803     		.2byte	0x358
 8386 1a9f 0D       		.byte	0xd
 8387 1aa0 301B0000 		.4byte	0x1b30
 8388 1aa4 02       		.uleb128 0x2
 8389 1aa5 0A2E0000 		.4byte	0x2e0a
 8390 1aa9 3E040000 		.4byte	.LLST99
 8391 1aad 3A040000 		.4byte	.LVUS99
 8392 1ab1 02       		.uleb128 0x2
 8393 1ab2 172E0000 		.4byte	0x2e17
 8394 1ab6 5E040000 		.4byte	.LLST100
 8395 1aba 5A040000 		.4byte	.LVUS100
 8396 1abe 02       		.uleb128 0x2
 8397 1abf 242E0000 		.4byte	0x2e24
 8398 1ac3 5E040000 		.4byte	.LLST100
 8399 1ac7 5A040000 		.4byte	.LVUS100
 8400 1acb 02       		.uleb128 0x2
 8401 1acc 312E0000 		.4byte	0x2e31
 8402 1ad0 76040000 		.4byte	.LLST102
 8403 1ad4 72040000 		.4byte	.LVUS102
 8404 1ad8 06       		.uleb128 0x6
ARM GAS  C:\Users\DEVELO~1\AppData\Local\Temp\cc5EUJSb.s 			page 149


 8405 1ad9 86000000 		.4byte	.LVL170
 8406 1add 88130000 		.4byte	0x1388
 8407 1ae1 FF1A0000 		.4byte	0x1aff
 8408 1ae5 01       		.uleb128 0x1
 8409 1ae6 01       		.uleb128 0x1
 8410 1ae7 50       		.byte	0x50
 8411 1ae8 01       		.uleb128 0x1
 8412 1ae9 38       		.byte	0x38
 8413 1aea 01       		.uleb128 0x1
 8414 1aeb 01       		.uleb128 0x1
 8415 1aec 51       		.byte	0x51
 8416 1aed 01       		.uleb128 0x1
 8417 1aee 3A       		.byte	0x3a
 8418 1aef 01       		.uleb128 0x1
 8419 1af0 01       		.uleb128 0x1
 8420 1af1 52       		.byte	0x52
 8421 1af2 05       		.uleb128 0x5
 8422 1af3 03       		.byte	0x3
 8423 1af4 00000000 		.4byte	spi_lld_serve_bdma_rx_interrupt
 8424 1af8 01       		.uleb128 0x1
 8425 1af9 01       		.uleb128 0x1
 8426 1afa 53       		.byte	0x53
 8427 1afb 02       		.uleb128 0x2
 8428 1afc 74       		.byte	0x74
 8429 1afd 00       		.sleb128 0
 8430 1afe 00       		.byte	0
 8431 1aff 06       		.uleb128 0x6
 8432 1b00 9A000000 		.4byte	.LVL171
 8433 1b04 88130000 		.4byte	0x1388
 8434 1b08 261B0000 		.4byte	0x1b26
 8435 1b0c 01       		.uleb128 0x1
 8436 1b0d 01       		.uleb128 0x1
 8437 1b0e 50       		.byte	0x50
 8438 1b0f 01       		.uleb128 0x1
 8439 1b10 38       		.byte	0x38
 8440 1b11 01       		.uleb128 0x1
 8441 1b12 01       		.uleb128 0x1
 8442 1b13 51       		.byte	0x51
 8443 1b14 01       		.uleb128 0x1
 8444 1b15 3A       		.byte	0x3a
 8445 1b16 01       		.uleb128 0x1
 8446 1b17 01       		.uleb128 0x1
 8447 1b18 52       		.byte	0x52
 8448 1b19 05       		.uleb128 0x5
 8449 1b1a 03       		.byte	0x3
 8450 1b1b 00000000 		.4byte	spi_lld_serve_bdma_tx_interrupt
 8451 1b1f 01       		.uleb128 0x1
 8452 1b20 01       		.uleb128 0x1
 8453 1b21 53       		.byte	0x53
 8454 1b22 02       		.uleb128 0x2
 8455 1b23 74       		.byte	0x74
 8456 1b24 00       		.sleb128 0
 8457 1b25 00       		.byte	0
 8458 1b26 28       		.uleb128 0x28
 8459 1b27 70030000 		.4byte	.LVL224
 8460 1b2b 76130000 		.4byte	0x1376
 8461 1b2f 00       		.byte	0
ARM GAS  C:\Users\DEVELO~1\AppData\Local\Temp\cc5EUJSb.s 			page 150


 8462 1b30 07       		.uleb128 0x7
 8463 1b31 17390000 		.4byte	0x3917
 8464 1b35 B2000000 		.4byte	.LBI664
 8465 1b39 0100     		.2byte	.LVU1084
 8466 1b3b B2000000 		.4byte	.LBB664
 8467 1b3f 1E000000 		.4byte	.LBE664-.LBB664
 8468 1b43 6203     		.2byte	0x362
 8469 1b45 07       		.byte	0x7
 8470 1b46 651B0000 		.4byte	0x1b65
 8471 1b4a 02       		.uleb128 0x2
 8472 1b4b 32390000 		.4byte	0x3932
 8473 1b4f 8C040000 		.4byte	.LLST103
 8474 1b53 8A040000 		.4byte	.LVUS103
 8475 1b57 02       		.uleb128 0x2
 8476 1b58 25390000 		.4byte	0x3925
 8477 1b5c 98040000 		.4byte	.LLST104
 8478 1b60 96040000 		.4byte	.LVUS104
 8479 1b64 00       		.byte	0
 8480 1b65 07       		.uleb128 0x7
 8481 1b66 DF380000 		.4byte	0x38df
 8482 1b6a D0000000 		.4byte	.LBI666
 8483 1b6e 0200     		.2byte	.LVU1093
 8484 1b70 D0000000 		.4byte	.LBB666
 8485 1b74 1C000000 		.4byte	.LBE666-.LBB666
 8486 1b78 6303     		.2byte	0x363
 8487 1b7a 07       		.byte	0x7
 8488 1b7b B21B0000 		.4byte	0x1bb2
 8489 1b7f 02       		.uleb128 0x2
 8490 1b80 ED380000 		.4byte	0x38ed
 8491 1b84 A5040000 		.4byte	.LLST105
 8492 1b88 A3040000 		.4byte	.LVUS105
 8493 1b8c 04       		.uleb128 0x4
 8494 1b8d F8390000 		.4byte	0x39f8
 8495 1b91 D0000000 		.4byte	.LBI668
 8496 1b95 0400     		.2byte	.LVU1095
 8497 1b97 D0000000 		.4byte	.LBB668
 8498 1b9b 1C000000 		.4byte	.LBE668-.LBB668
 8499 1b9f 02       		.byte	0x2
 8500 1ba0 3F02     		.2byte	0x23f
 8501 1ba2 03       		.byte	0x3
 8502 1ba3 02       		.uleb128 0x2
 8503 1ba4 053A0000 		.4byte	0x3a05
 8504 1ba8 B2040000 		.4byte	.LLST106
 8505 1bac B0040000 		.4byte	.LVUS106
 8506 1bb0 00       		.byte	0
 8507 1bb1 00       		.byte	0
 8508 1bb2 07       		.uleb128 0x7
 8509 1bb3 3F2E0000 		.4byte	0x2e3f
 8510 1bb7 9E010000 		.4byte	.LBI670
 8511 1bbb 0100     		.2byte	.LVU1185
 8512 1bbd 9E010000 		.4byte	.LBB670
 8513 1bc1 28000000 		.4byte	.LBE670-.LBB670
 8514 1bc5 0303     		.2byte	0x303
 8515 1bc7 0D       		.byte	0xd
 8516 1bc8 4B1C0000 		.4byte	0x1c4b
 8517 1bcc 02       		.uleb128 0x2
 8518 1bcd 5B2E0000 		.4byte	0x2e5b
ARM GAS  C:\Users\DEVELO~1\AppData\Local\Temp\cc5EUJSb.s 			page 151


 8519 1bd1 BF040000 		.4byte	.LLST107
 8520 1bd5 BD040000 		.4byte	.LVUS107
 8521 1bd9 02       		.uleb128 0x2
 8522 1bda 682E0000 		.4byte	0x2e68
 8523 1bde BF040000 		.4byte	.LLST107
 8524 1be2 BD040000 		.4byte	.LVUS107
 8525 1be6 02       		.uleb128 0x2
 8526 1be7 752E0000 		.4byte	0x2e75
 8527 1beb CB040000 		.4byte	.LLST109
 8528 1bef C9040000 		.4byte	.LVUS109
 8529 1bf3 02       		.uleb128 0x2
 8530 1bf4 4E2E0000 		.4byte	0x2e4e
 8531 1bf8 D7040000 		.4byte	.LLST110
 8532 1bfc D5040000 		.4byte	.LVUS110
 8533 1c00 06       		.uleb128 0x6
 8534 1c01 AA010000 		.4byte	.LVL187
 8535 1c05 D1130000 		.4byte	0x13d1
 8536 1c09 271C0000 		.4byte	0x1c27
 8537 1c0d 01       		.uleb128 0x1
 8538 1c0e 01       		.uleb128 0x1
 8539 1c0f 50       		.byte	0x50
 8540 1c10 01       		.uleb128 0x1
 8541 1c11 40       		.byte	0x40
 8542 1c12 01       		.uleb128 0x1
 8543 1c13 01       		.uleb128 0x1
 8544 1c14 51       		.byte	0x51
 8545 1c15 01       		.uleb128 0x1
 8546 1c16 3A       		.byte	0x3a
 8547 1c17 01       		.uleb128 0x1
 8548 1c18 01       		.uleb128 0x1
 8549 1c19 52       		.byte	0x52
 8550 1c1a 05       		.uleb128 0x5
 8551 1c1b 03       		.byte	0x3
 8552 1c1c 00000000 		.4byte	spi_lld_serve_dma_rx_interrupt
 8553 1c20 01       		.uleb128 0x1
 8554 1c21 01       		.uleb128 0x1
 8555 1c22 53       		.byte	0x53
 8556 1c23 02       		.uleb128 0x2
 8557 1c24 74       		.byte	0x74
 8558 1c25 00       		.sleb128 0
 8559 1c26 00       		.byte	0
 8560 1c27 0E       		.uleb128 0xe
 8561 1c28 BE010000 		.4byte	.LVL188
 8562 1c2c D1130000 		.4byte	0x13d1
 8563 1c30 01       		.uleb128 0x1
 8564 1c31 01       		.uleb128 0x1
 8565 1c32 50       		.byte	0x50
 8566 1c33 01       		.uleb128 0x1
 8567 1c34 40       		.byte	0x40
 8568 1c35 01       		.uleb128 0x1
 8569 1c36 01       		.uleb128 0x1
 8570 1c37 51       		.byte	0x51
 8571 1c38 01       		.uleb128 0x1
 8572 1c39 3A       		.byte	0x3a
 8573 1c3a 01       		.uleb128 0x1
 8574 1c3b 01       		.uleb128 0x1
 8575 1c3c 52       		.byte	0x52
ARM GAS  C:\Users\DEVELO~1\AppData\Local\Temp\cc5EUJSb.s 			page 152


 8576 1c3d 05       		.uleb128 0x5
 8577 1c3e 03       		.byte	0x3
 8578 1c3f 00000000 		.4byte	spi_lld_serve_dma_tx_interrupt
 8579 1c43 01       		.uleb128 0x1
 8580 1c44 01       		.uleb128 0x1
 8581 1c45 53       		.byte	0x53
 8582 1c46 02       		.uleb128 0x2
 8583 1c47 74       		.byte	0x74
 8584 1c48 00       		.sleb128 0
 8585 1c49 00       		.byte	0
 8586 1c4a 00       		.byte	0
 8587 1c4b 07       		.uleb128 0x7
 8588 1c4c 77390000 		.4byte	0x3977
 8589 1c50 D6010000 		.4byte	.LBI672
 8590 1c54 0100     		.2byte	.LVU1202
 8591 1c56 D6010000 		.4byte	.LBB672
 8592 1c5a 1E000000 		.4byte	.LBE672-.LBB672
 8593 1c5e 0D03     		.2byte	0x30d
 8594 1c60 07       		.byte	0x7
 8595 1c61 801C0000 		.4byte	0x1c80
 8596 1c65 02       		.uleb128 0x2
 8597 1c66 92390000 		.4byte	0x3992
 8598 1c6a E7040000 		.4byte	.LLST111
 8599 1c6e E5040000 		.4byte	.LVUS111
 8600 1c72 02       		.uleb128 0x2
 8601 1c73 85390000 		.4byte	0x3985
 8602 1c77 F3040000 		.4byte	.LLST112
 8603 1c7b F1040000 		.4byte	.LVUS112
 8604 1c7f 00       		.byte	0
 8605 1c80 07       		.uleb128 0x7
 8606 1c81 3F390000 		.4byte	0x393f
 8607 1c85 F4010000 		.4byte	.LBI674
 8608 1c89 0200     		.2byte	.LVU1211
 8609 1c8b F4010000 		.4byte	.LBB674
 8610 1c8f 1E000000 		.4byte	.LBE674-.LBB674
 8611 1c93 0E03     		.2byte	0x30e
 8612 1c95 07       		.byte	0x7
 8613 1c96 CD1C0000 		.4byte	0x1ccd
 8614 1c9a 02       		.uleb128 0x2
 8615 1c9b 4D390000 		.4byte	0x394d
 8616 1c9f 01050000 		.4byte	.LLST113
 8617 1ca3 FF040000 		.4byte	.LVUS113
 8618 1ca7 04       		.uleb128 0x4
 8619 1ca8 123A0000 		.4byte	0x3a12
 8620 1cac F4010000 		.4byte	.LBI676
 8621 1cb0 0400     		.2byte	.LVU1213
 8622 1cb2 F4010000 		.4byte	.LBB676
 8623 1cb6 1C000000 		.4byte	.LBE676-.LBB676
 8624 1cba 02       		.byte	0x2
 8625 1cbb 8D01     		.2byte	0x18d
 8626 1cbd 03       		.byte	0x3
 8627 1cbe 02       		.uleb128 0x2
 8628 1cbf 1F3A0000 		.4byte	0x3a1f
 8629 1cc3 0F050000 		.4byte	.LLST114
 8630 1cc7 0D050000 		.4byte	.LVUS114
 8631 1ccb 00       		.byte	0
 8632 1ccc 00       		.byte	0
ARM GAS  C:\Users\DEVELO~1\AppData\Local\Temp\cc5EUJSb.s 			page 153


 8633 1ccd 07       		.uleb128 0x7
 8634 1cce 3F2E0000 		.4byte	0x2e3f
 8635 1cd2 12020000 		.4byte	.LBI678
 8636 1cd6 0200     		.2byte	.LVU1223
 8637 1cd8 12020000 		.4byte	.LBB678
 8638 1cdc 28000000 		.4byte	.LBE678-.LBB678
 8639 1ce0 2503     		.2byte	0x325
 8640 1ce2 0D       		.byte	0xd
 8641 1ce3 661D0000 		.4byte	0x1d66
 8642 1ce7 02       		.uleb128 0x2
 8643 1ce8 5B2E0000 		.4byte	0x2e5b
 8644 1cec 1D050000 		.4byte	.LLST115
 8645 1cf0 1B050000 		.4byte	.LVUS115
 8646 1cf4 02       		.uleb128 0x2
 8647 1cf5 682E0000 		.4byte	0x2e68
 8648 1cf9 1D050000 		.4byte	.LLST115
 8649 1cfd 1B050000 		.4byte	.LVUS115
 8650 1d01 02       		.uleb128 0x2
 8651 1d02 752E0000 		.4byte	0x2e75
 8652 1d06 29050000 		.4byte	.LLST117
 8653 1d0a 27050000 		.4byte	.LVUS117
 8654 1d0e 02       		.uleb128 0x2
 8655 1d0f 4E2E0000 		.4byte	0x2e4e
 8656 1d13 35050000 		.4byte	.LLST118
 8657 1d17 33050000 		.4byte	.LVUS118
 8658 1d1b 06       		.uleb128 0x6
 8659 1d1c 1E020000 		.4byte	.LVL196
 8660 1d20 D1130000 		.4byte	0x13d1
 8661 1d24 421D0000 		.4byte	0x1d42
 8662 1d28 01       		.uleb128 0x1
 8663 1d29 01       		.uleb128 0x1
 8664 1d2a 50       		.byte	0x50
 8665 1d2b 01       		.uleb128 0x1
 8666 1d2c 40       		.byte	0x40
 8667 1d2d 01       		.uleb128 0x1
 8668 1d2e 01       		.uleb128 0x1
 8669 1d2f 51       		.byte	0x51
 8670 1d30 01       		.uleb128 0x1
 8671 1d31 3A       		.byte	0x3a
 8672 1d32 01       		.uleb128 0x1
 8673 1d33 01       		.uleb128 0x1
 8674 1d34 52       		.byte	0x52
 8675 1d35 05       		.uleb128 0x5
 8676 1d36 03       		.byte	0x3
 8677 1d37 00000000 		.4byte	spi_lld_serve_dma_rx_interrupt
 8678 1d3b 01       		.uleb128 0x1
 8679 1d3c 01       		.uleb128 0x1
 8680 1d3d 53       		.byte	0x53
 8681 1d3e 02       		.uleb128 0x2
 8682 1d3f 74       		.byte	0x74
 8683 1d40 00       		.sleb128 0
 8684 1d41 00       		.byte	0
 8685 1d42 0E       		.uleb128 0xe
 8686 1d43 32020000 		.4byte	.LVL197
 8687 1d47 D1130000 		.4byte	0x13d1
 8688 1d4b 01       		.uleb128 0x1
 8689 1d4c 01       		.uleb128 0x1
ARM GAS  C:\Users\DEVELO~1\AppData\Local\Temp\cc5EUJSb.s 			page 154


 8690 1d4d 50       		.byte	0x50
 8691 1d4e 01       		.uleb128 0x1
 8692 1d4f 40       		.byte	0x40
 8693 1d50 01       		.uleb128 0x1
 8694 1d51 01       		.uleb128 0x1
 8695 1d52 51       		.byte	0x51
 8696 1d53 01       		.uleb128 0x1
 8697 1d54 3A       		.byte	0x3a
 8698 1d55 01       		.uleb128 0x1
 8699 1d56 01       		.uleb128 0x1
 8700 1d57 52       		.byte	0x52
 8701 1d58 05       		.uleb128 0x5
 8702 1d59 03       		.byte	0x3
 8703 1d5a 00000000 		.4byte	spi_lld_serve_dma_tx_interrupt
 8704 1d5e 01       		.uleb128 0x1
 8705 1d5f 01       		.uleb128 0x1
 8706 1d60 53       		.byte	0x53
 8707 1d61 02       		.uleb128 0x2
 8708 1d62 74       		.byte	0x74
 8709 1d63 00       		.sleb128 0
 8710 1d64 00       		.byte	0
 8711 1d65 00       		.byte	0
 8712 1d66 07       		.uleb128 0x7
 8713 1d67 D3390000 		.4byte	0x39d3
 8714 1d6b 4A020000 		.4byte	.LBI680
 8715 1d6f 0100     		.2byte	.LVU1240
 8716 1d71 4A020000 		.4byte	.LBB680
 8717 1d75 1E000000 		.4byte	.LBE680-.LBB680
 8718 1d79 2F03     		.2byte	0x32f
 8719 1d7b 07       		.byte	0x7
 8720 1d7c 9B1D0000 		.4byte	0x1d9b
 8721 1d80 02       		.uleb128 0x2
 8722 1d81 EC390000 		.4byte	0x39ec
 8723 1d85 45050000 		.4byte	.LLST119
 8724 1d89 43050000 		.4byte	.LVUS119
 8725 1d8d 02       		.uleb128 0x2
 8726 1d8e E0390000 		.4byte	0x39e0
 8727 1d92 51050000 		.4byte	.LLST120
 8728 1d96 4F050000 		.4byte	.LVUS120
 8729 1d9a 00       		.byte	0
 8730 1d9b 07       		.uleb128 0x7
 8731 1d9c 9F390000 		.4byte	0x399f
 8732 1da0 68020000 		.4byte	.LBI682
 8733 1da4 0200     		.2byte	.LVU1249
 8734 1da6 68020000 		.4byte	.LBB682
 8735 1daa 1E000000 		.4byte	.LBE682-.LBB682
 8736 1dae 3003     		.2byte	0x330
 8737 1db0 07       		.byte	0x7
 8738 1db1 E71D0000 		.4byte	0x1de7
 8739 1db5 02       		.uleb128 0x2
 8740 1db6 AC390000 		.4byte	0x39ac
 8741 1dba 5F050000 		.4byte	.LLST121
 8742 1dbe 5D050000 		.4byte	.LVUS121
 8743 1dc2 1F       		.uleb128 0x1f
 8744 1dc3 2C3A0000 		.4byte	0x3a2c
 8745 1dc7 68020000 		.4byte	.LBI684
 8746 1dcb 0400     		.2byte	.LVU1251
ARM GAS  C:\Users\DEVELO~1\AppData\Local\Temp\cc5EUJSb.s 			page 155


 8747 1dcd 68020000 		.4byte	.LBB684
 8748 1dd1 1C000000 		.4byte	.LBE684-.LBB684
 8749 1dd5 02       		.byte	0x2
 8750 1dd6 DB       		.byte	0xdb
 8751 1dd7 03       		.byte	0x3
 8752 1dd8 02       		.uleb128 0x2
 8753 1dd9 393A0000 		.4byte	0x3a39
 8754 1ddd 6D050000 		.4byte	.LLST122
 8755 1de1 6B050000 		.4byte	.LVUS122
 8756 1de5 00       		.byte	0
 8757 1de6 00       		.byte	0
 8758 1de7 07       		.uleb128 0x7
 8759 1de8 3F2E0000 		.4byte	0x2e3f
 8760 1dec 86020000 		.4byte	.LBI686
 8761 1df0 0200     		.2byte	.LVU1261
 8762 1df2 86020000 		.4byte	.LBB686
 8763 1df6 24000000 		.4byte	.LBE686-.LBB686
 8764 1dfa 1403     		.2byte	0x314
 8765 1dfc 0D       		.byte	0xd
 8766 1dfd 801E0000 		.4byte	0x1e80
 8767 1e01 02       		.uleb128 0x2
 8768 1e02 5B2E0000 		.4byte	0x2e5b
 8769 1e06 7B050000 		.4byte	.LLST123
 8770 1e0a 79050000 		.4byte	.LVUS123
 8771 1e0e 02       		.uleb128 0x2
 8772 1e0f 682E0000 		.4byte	0x2e68
 8773 1e13 7B050000 		.4byte	.LLST123
 8774 1e17 79050000 		.4byte	.LVUS123
 8775 1e1b 02       		.uleb128 0x2
 8776 1e1c 752E0000 		.4byte	0x2e75
 8777 1e20 87050000 		.4byte	.LLST125
 8778 1e24 85050000 		.4byte	.LVUS125
 8779 1e28 02       		.uleb128 0x2
 8780 1e29 4E2E0000 		.4byte	0x2e4e
 8781 1e2d 93050000 		.4byte	.LLST126
 8782 1e31 91050000 		.4byte	.LVUS126
 8783 1e35 06       		.uleb128 0x6
 8784 1e36 92020000 		.4byte	.LVL205
 8785 1e3a D1130000 		.4byte	0x13d1
 8786 1e3e 5C1E0000 		.4byte	0x1e5c
 8787 1e42 01       		.uleb128 0x1
 8788 1e43 01       		.uleb128 0x1
 8789 1e44 50       		.byte	0x50
 8790 1e45 01       		.uleb128 0x1
 8791 1e46 40       		.byte	0x40
 8792 1e47 01       		.uleb128 0x1
 8793 1e48 01       		.uleb128 0x1
 8794 1e49 51       		.byte	0x51
 8795 1e4a 01       		.uleb128 0x1
 8796 1e4b 3A       		.byte	0x3a
 8797 1e4c 01       		.uleb128 0x1
 8798 1e4d 01       		.uleb128 0x1
 8799 1e4e 52       		.byte	0x52
 8800 1e4f 05       		.uleb128 0x5
 8801 1e50 03       		.byte	0x3
 8802 1e51 00000000 		.4byte	spi_lld_serve_dma_rx_interrupt
 8803 1e55 01       		.uleb128 0x1
ARM GAS  C:\Users\DEVELO~1\AppData\Local\Temp\cc5EUJSb.s 			page 156


 8804 1e56 01       		.uleb128 0x1
 8805 1e57 53       		.byte	0x53
 8806 1e58 02       		.uleb128 0x2
 8807 1e59 74       		.byte	0x74
 8808 1e5a 00       		.sleb128 0
 8809 1e5b 00       		.byte	0
 8810 1e5c 0E       		.uleb128 0xe
 8811 1e5d A4020000 		.4byte	.LVL206
 8812 1e61 D1130000 		.4byte	0x13d1
 8813 1e65 01       		.uleb128 0x1
 8814 1e66 01       		.uleb128 0x1
 8815 1e67 50       		.byte	0x50
 8816 1e68 01       		.uleb128 0x1
 8817 1e69 40       		.byte	0x40
 8818 1e6a 01       		.uleb128 0x1
 8819 1e6b 01       		.uleb128 0x1
 8820 1e6c 51       		.byte	0x51
 8821 1e6d 01       		.uleb128 0x1
 8822 1e6e 3A       		.byte	0x3a
 8823 1e6f 01       		.uleb128 0x1
 8824 1e70 01       		.uleb128 0x1
 8825 1e71 52       		.byte	0x52
 8826 1e72 05       		.uleb128 0x5
 8827 1e73 03       		.byte	0x3
 8828 1e74 00000000 		.4byte	spi_lld_serve_dma_tx_interrupt
 8829 1e78 01       		.uleb128 0x1
 8830 1e79 01       		.uleb128 0x1
 8831 1e7a 53       		.byte	0x53
 8832 1e7b 02       		.uleb128 0x2
 8833 1e7c 74       		.byte	0x74
 8834 1e7d 00       		.sleb128 0
 8835 1e7e 00       		.byte	0
 8836 1e7f 00       		.byte	0
 8837 1e80 07       		.uleb128 0x7
 8838 1e81 D3390000 		.4byte	0x39d3
 8839 1e85 BA020000 		.4byte	.LBI688
 8840 1e89 0100     		.2byte	.LVU1278
 8841 1e8b BA020000 		.4byte	.LBB688
 8842 1e8f 1E000000 		.4byte	.LBE688-.LBB688
 8843 1e93 1E03     		.2byte	0x31e
 8844 1e95 07       		.byte	0x7
 8845 1e96 B51E0000 		.4byte	0x1eb5
 8846 1e9a 02       		.uleb128 0x2
 8847 1e9b EC390000 		.4byte	0x39ec
 8848 1e9f A3050000 		.4byte	.LLST127
 8849 1ea3 A1050000 		.4byte	.LVUS127
 8850 1ea7 02       		.uleb128 0x2
 8851 1ea8 E0390000 		.4byte	0x39e0
 8852 1eac AF050000 		.4byte	.LLST128
 8853 1eb0 AD050000 		.4byte	.LVUS128
 8854 1eb4 00       		.byte	0
 8855 1eb5 07       		.uleb128 0x7
 8856 1eb6 9F390000 		.4byte	0x399f
 8857 1eba D8020000 		.4byte	.LBI690
 8858 1ebe 0200     		.2byte	.LVU1287
 8859 1ec0 D8020000 		.4byte	.LBB690
 8860 1ec4 1E000000 		.4byte	.LBE690-.LBB690
ARM GAS  C:\Users\DEVELO~1\AppData\Local\Temp\cc5EUJSb.s 			page 157


 8861 1ec8 1F03     		.2byte	0x31f
 8862 1eca 07       		.byte	0x7
 8863 1ecb 011F0000 		.4byte	0x1f01
 8864 1ecf 02       		.uleb128 0x2
 8865 1ed0 AC390000 		.4byte	0x39ac
 8866 1ed4 BD050000 		.4byte	.LLST129
 8867 1ed8 BB050000 		.4byte	.LVUS129
 8868 1edc 1F       		.uleb128 0x1f
 8869 1edd 2C3A0000 		.4byte	0x3a2c
 8870 1ee1 D8020000 		.4byte	.LBI692
 8871 1ee5 0400     		.2byte	.LVU1289
 8872 1ee7 D8020000 		.4byte	.LBB692
 8873 1eeb 1C000000 		.4byte	.LBE692-.LBB692
 8874 1eef 02       		.byte	0x2
 8875 1ef0 DB       		.byte	0xdb
 8876 1ef1 03       		.byte	0x3
 8877 1ef2 02       		.uleb128 0x2
 8878 1ef3 393A0000 		.4byte	0x3a39
 8879 1ef7 CB050000 		.4byte	.LLST130
 8880 1efb C9050000 		.4byte	.LVUS130
 8881 1eff 00       		.byte	0
 8882 1f00 00       		.byte	0
 8883 1f01 18       		.uleb128 0x18
 8884 1f02 3F2E0000 		.4byte	0x2e3f
 8885 1f06 F6020000 		.4byte	.LBI694
 8886 1f0a 0200     		.2byte	.LVU1299
 8887 1f0c EE000000 		.4byte	.LLRL131
 8888 1f10 4703     		.2byte	0x347
 8889 1f12 0D       		.byte	0xd
 8890 1f13 A31F0000 		.4byte	0x1fa3
 8891 1f17 02       		.uleb128 0x2
 8892 1f18 5B2E0000 		.4byte	0x2e5b
 8893 1f1c D9050000 		.4byte	.LLST132
 8894 1f20 D7050000 		.4byte	.LVUS132
 8895 1f24 02       		.uleb128 0x2
 8896 1f25 682E0000 		.4byte	0x2e68
 8897 1f29 D9050000 		.4byte	.LLST132
 8898 1f2d D7050000 		.4byte	.LVUS132
 8899 1f31 02       		.uleb128 0x2
 8900 1f32 752E0000 		.4byte	0x2e75
 8901 1f36 E5050000 		.4byte	.LLST134
 8902 1f3a E3050000 		.4byte	.LVUS134
 8903 1f3e 02       		.uleb128 0x2
 8904 1f3f 4E2E0000 		.4byte	0x2e4e
 8905 1f43 F1050000 		.4byte	.LLST135
 8906 1f47 EF050000 		.4byte	.LVUS135
 8907 1f4b 06       		.uleb128 0x6
 8908 1f4c 02030000 		.4byte	.LVL214
 8909 1f50 D1130000 		.4byte	0x13d1
 8910 1f54 721F0000 		.4byte	0x1f72
 8911 1f58 01       		.uleb128 0x1
 8912 1f59 01       		.uleb128 0x1
 8913 1f5a 50       		.byte	0x50
 8914 1f5b 01       		.uleb128 0x1
 8915 1f5c 40       		.byte	0x40
 8916 1f5d 01       		.uleb128 0x1
 8917 1f5e 01       		.uleb128 0x1
ARM GAS  C:\Users\DEVELO~1\AppData\Local\Temp\cc5EUJSb.s 			page 158


 8918 1f5f 51       		.byte	0x51
 8919 1f60 01       		.uleb128 0x1
 8920 1f61 3A       		.byte	0x3a
 8921 1f62 01       		.uleb128 0x1
 8922 1f63 01       		.uleb128 0x1
 8923 1f64 52       		.byte	0x52
 8924 1f65 05       		.uleb128 0x5
 8925 1f66 03       		.byte	0x3
 8926 1f67 00000000 		.4byte	spi_lld_serve_dma_rx_interrupt
 8927 1f6b 01       		.uleb128 0x1
 8928 1f6c 01       		.uleb128 0x1
 8929 1f6d 53       		.byte	0x53
 8930 1f6e 02       		.uleb128 0x2
 8931 1f6f 74       		.byte	0x74
 8932 1f70 00       		.sleb128 0
 8933 1f71 00       		.byte	0
 8934 1f72 06       		.uleb128 0x6
 8935 1f73 12030000 		.4byte	.LVL215
 8936 1f77 D1130000 		.4byte	0x13d1
 8937 1f7b 991F0000 		.4byte	0x1f99
 8938 1f7f 01       		.uleb128 0x1
 8939 1f80 01       		.uleb128 0x1
 8940 1f81 50       		.byte	0x50
 8941 1f82 01       		.uleb128 0x1
 8942 1f83 40       		.byte	0x40
 8943 1f84 01       		.uleb128 0x1
 8944 1f85 01       		.uleb128 0x1
 8945 1f86 51       		.byte	0x51
 8946 1f87 01       		.uleb128 0x1
 8947 1f88 3A       		.byte	0x3a
 8948 1f89 01       		.uleb128 0x1
 8949 1f8a 01       		.uleb128 0x1
 8950 1f8b 52       		.byte	0x52
 8951 1f8c 05       		.uleb128 0x5
 8952 1f8d 03       		.byte	0x3
 8953 1f8e 00000000 		.4byte	spi_lld_serve_dma_tx_interrupt
 8954 1f92 01       		.uleb128 0x1
 8955 1f93 01       		.uleb128 0x1
 8956 1f94 53       		.byte	0x53
 8957 1f95 02       		.uleb128 0x2
 8958 1f96 74       		.byte	0x74
 8959 1f97 00       		.sleb128 0
 8960 1f98 00       		.byte	0
 8961 1f99 28       		.uleb128 0x28
 8962 1f9a A6030000 		.4byte	.LVL227
 8963 1f9e BF130000 		.4byte	0x13bf
 8964 1fa2 00       		.byte	0
 8965 1fa3 07       		.uleb128 0x7
 8966 1fa4 77390000 		.4byte	0x3977
 8967 1fa8 28030000 		.4byte	.LBI698
 8968 1fac 0100     		.2byte	.LVU1316
 8969 1fae 28030000 		.4byte	.LBB698
 8970 1fb2 1E000000 		.4byte	.LBE698-.LBB698
 8971 1fb6 5103     		.2byte	0x351
 8972 1fb8 07       		.byte	0x7
 8973 1fb9 D81F0000 		.4byte	0x1fd8
 8974 1fbd 02       		.uleb128 0x2
ARM GAS  C:\Users\DEVELO~1\AppData\Local\Temp\cc5EUJSb.s 			page 159


 8975 1fbe 92390000 		.4byte	0x3992
 8976 1fc2 01060000 		.4byte	.LLST136
 8977 1fc6 FF050000 		.4byte	.LVUS136
 8978 1fca 02       		.uleb128 0x2
 8979 1fcb 85390000 		.4byte	0x3985
 8980 1fcf 0D060000 		.4byte	.LLST137
 8981 1fd3 0B060000 		.4byte	.LVUS137
 8982 1fd7 00       		.byte	0
 8983 1fd8 07       		.uleb128 0x7
 8984 1fd9 3F390000 		.4byte	0x393f
 8985 1fdd 46030000 		.4byte	.LBI700
 8986 1fe1 0200     		.2byte	.LVU1325
 8987 1fe3 46030000 		.4byte	.LBB700
 8988 1fe7 1E000000 		.4byte	.LBE700-.LBB700
 8989 1feb 5203     		.2byte	0x352
 8990 1fed 07       		.byte	0x7
 8991 1fee 25200000 		.4byte	0x2025
 8992 1ff2 02       		.uleb128 0x2
 8993 1ff3 4D390000 		.4byte	0x394d
 8994 1ff7 1B060000 		.4byte	.LLST138
 8995 1ffb 19060000 		.4byte	.LVUS138
 8996 1fff 04       		.uleb128 0x4
 8997 2000 123A0000 		.4byte	0x3a12
 8998 2004 46030000 		.4byte	.LBI702
 8999 2008 0400     		.2byte	.LVU1327
 9000 200a 46030000 		.4byte	.LBB702
 9001 200e 1C000000 		.4byte	.LBE702-.LBB702
 9002 2012 02       		.byte	0x2
 9003 2013 8D01     		.2byte	0x18d
 9004 2015 03       		.byte	0x3
 9005 2016 02       		.uleb128 0x2
 9006 2017 1F3A0000 		.4byte	0x3a1f
 9007 201b 29060000 		.4byte	.LLST139
 9008 201f 27060000 		.4byte	.LVUS139
 9009 2023 00       		.byte	0
 9010 2024 00       		.byte	0
 9011 2025 06       		.uleb128 0x6
 9012 2026 4E000000 		.4byte	.LVL166
 9013 202a EF3A0000 		.4byte	0x3aef
 9014 202e 39200000 		.4byte	0x2039
 9015 2032 01       		.uleb128 0x1
 9016 2033 01       		.uleb128 0x1
 9017 2034 51       		.byte	0x51
 9018 2035 02       		.uleb128 0x2
 9019 2036 71       		.byte	0x71
 9020 2037 00       		.sleb128 0
 9021 2038 00       		.byte	0
 9022 2039 06       		.uleb128 0x6
 9023 203a AA000000 		.4byte	.LVL173
 9024 203e F7130000 		.4byte	0x13f7
 9025 2042 4C200000 		.4byte	0x204c
 9026 2046 01       		.uleb128 0x1
 9027 2047 01       		.uleb128 0x1
 9028 2048 51       		.byte	0x51
 9029 2049 01       		.uleb128 0x1
 9030 204a 3B       		.byte	0x3b
 9031 204b 00       		.byte	0
ARM GAS  C:\Users\DEVELO~1\AppData\Local\Temp\cc5EUJSb.s 			page 160


 9032 204c 06       		.uleb128 0x6
 9033 204d B2000000 		.4byte	.LVL174
 9034 2051 F7130000 		.4byte	0x13f7
 9035 2055 5F200000 		.4byte	0x205f
 9036 2059 01       		.uleb128 0x1
 9037 205a 01       		.uleb128 0x1
 9038 205b 51       		.byte	0x51
 9039 205c 01       		.uleb128 0x1
 9040 205d 3C       		.byte	0x3c
 9041 205e 00       		.byte	0
 9042 205f 06       		.uleb128 0x6
 9043 2060 CE010000 		.4byte	.LVL190
 9044 2064 0E140000 		.4byte	0x140e
 9045 2068 73200000 		.4byte	0x2073
 9046 206c 01       		.uleb128 0x1
 9047 206d 01       		.uleb128 0x1
 9048 206e 51       		.byte	0x51
 9049 206f 02       		.uleb128 0x2
 9050 2070 08       		.byte	0x8
 9051 2071 25       		.byte	0x25
 9052 2072 00       		.byte	0
 9053 2073 06       		.uleb128 0x6
 9054 2074 D6010000 		.4byte	.LVL191
 9055 2078 0E140000 		.4byte	0x140e
 9056 207c 87200000 		.4byte	0x2087
 9057 2080 01       		.uleb128 0x1
 9058 2081 01       		.uleb128 0x1
 9059 2082 51       		.byte	0x51
 9060 2083 02       		.uleb128 0x2
 9061 2084 08       		.byte	0x8
 9062 2085 26       		.byte	0x26
 9063 2086 00       		.byte	0
 9064 2087 06       		.uleb128 0x6
 9065 2088 42020000 		.4byte	.LVL199
 9066 208c 0E140000 		.4byte	0x140e
 9067 2090 9B200000 		.4byte	0x209b
 9068 2094 01       		.uleb128 0x1
 9069 2095 01       		.uleb128 0x1
 9070 2096 51       		.byte	0x51
 9071 2097 02       		.uleb128 0x2
 9072 2098 08       		.byte	0x8
 9073 2099 3D       		.byte	0x3d
 9074 209a 00       		.byte	0
 9075 209b 06       		.uleb128 0x6
 9076 209c 4A020000 		.4byte	.LVL200
 9077 20a0 0E140000 		.4byte	0x140e
 9078 20a4 AF200000 		.4byte	0x20af
 9079 20a8 01       		.uleb128 0x1
 9080 20a9 01       		.uleb128 0x1
 9081 20aa 51       		.byte	0x51
 9082 20ab 02       		.uleb128 0x2
 9083 20ac 08       		.byte	0x8
 9084 20ad 3E       		.byte	0x3e
 9085 20ae 00       		.byte	0
 9086 20af 06       		.uleb128 0x6
 9087 20b0 B2020000 		.4byte	.LVL208
 9088 20b4 0E140000 		.4byte	0x140e
ARM GAS  C:\Users\DEVELO~1\AppData\Local\Temp\cc5EUJSb.s 			page 161


 9089 20b8 C3200000 		.4byte	0x20c3
 9090 20bc 01       		.uleb128 0x1
 9091 20bd 01       		.uleb128 0x1
 9092 20be 51       		.byte	0x51
 9093 20bf 02       		.uleb128 0x2
 9094 20c0 08       		.byte	0x8
 9095 20c1 27       		.byte	0x27
 9096 20c2 00       		.byte	0
 9097 20c3 06       		.uleb128 0x6
 9098 20c4 BA020000 		.4byte	.LVL209
 9099 20c8 0E140000 		.4byte	0x140e
 9100 20cc D7200000 		.4byte	0x20d7
 9101 20d0 01       		.uleb128 0x1
 9102 20d1 01       		.uleb128 0x1
 9103 20d2 51       		.byte	0x51
 9104 20d3 02       		.uleb128 0x2
 9105 20d4 08       		.byte	0x8
 9106 20d5 28       		.byte	0x28
 9107 20d6 00       		.byte	0
 9108 20d7 06       		.uleb128 0x6
 9109 20d8 20030000 		.4byte	.LVL217
 9110 20dc 0E140000 		.4byte	0x140e
 9111 20e0 EB200000 		.4byte	0x20eb
 9112 20e4 01       		.uleb128 0x1
 9113 20e5 01       		.uleb128 0x1
 9114 20e6 51       		.byte	0x51
 9115 20e7 02       		.uleb128 0x2
 9116 20e8 08       		.byte	0x8
 9117 20e9 55       		.byte	0x55
 9118 20ea 00       		.byte	0
 9119 20eb 0E       		.uleb128 0xe
 9120 20ec 28030000 		.4byte	.LVL218
 9121 20f0 0E140000 		.4byte	0x140e
 9122 20f4 01       		.uleb128 0x1
 9123 20f5 01       		.uleb128 0x1
 9124 20f6 51       		.byte	0x51
 9125 20f7 02       		.uleb128 0x2
 9126 20f8 08       		.byte	0x8
 9127 20f9 56       		.byte	0x56
 9128 20fa 00       		.byte	0
 9129 20fb 00       		.byte	0
 9130 20fc 14       		.uleb128 0x14
 9131 20fd 77030000 		.4byte	0x377
 9132 2101 0C210000 		.4byte	0x210c
 9133 2105 15       		.uleb128 0x15
 9134 2106 39000000 		.4byte	0x39
 9135 210a 0D       		.byte	0xd
 9136 210b 00       		.byte	0
 9137 210c 11       		.uleb128 0x11
 9138 210d FC200000 		.4byte	0x20fc
 9139 2111 27       		.uleb128 0x27
 9140 2112 E5050000 		.4byte	.LASF294
 9141 2116 6602     		.2byte	0x266
 9142 2118 06       		.byte	0x6
 9143 2119 00000000 		.4byte	.LFB449
 9144 211d EC000000 		.4byte	.LFE449-.LFB449
 9145 2121 01       		.uleb128 0x1
ARM GAS  C:\Users\DEVELO~1\AppData\Local\Temp\cc5EUJSb.s 			page 162


 9146 2122 9C       		.byte	0x9c
 9147 2123 05220000 		.4byte	0x2205
 9148 2127 06       		.uleb128 0x6
 9149 2128 14000000 		.4byte	.LVL152
 9150 212c 3B140000 		.4byte	0x143b
 9151 2130 3B210000 		.4byte	0x213b
 9152 2134 01       		.uleb128 0x1
 9153 2135 01       		.uleb128 0x1
 9154 2136 50       		.byte	0x50
 9155 2137 02       		.uleb128 0x2
 9156 2138 75       		.byte	0x75
 9157 2139 00       		.sleb128 0
 9158 213a 00       		.byte	0
 9159 213b 06       		.uleb128 0x6
 9160 213c 30000000 		.4byte	.LVL153
 9161 2140 25140000 		.4byte	0x1425
 9162 2144 54210000 		.4byte	0x2154
 9163 2148 01       		.uleb128 0x1
 9164 2149 01       		.uleb128 0x1
 9165 214a 50       		.byte	0x50
 9166 214b 02       		.uleb128 0x2
 9167 214c 08       		.byte	0x8
 9168 214d 23       		.byte	0x23
 9169 214e 01       		.uleb128 0x1
 9170 214f 01       		.uleb128 0x1
 9171 2150 51       		.byte	0x51
 9172 2151 01       		.uleb128 0x1
 9173 2152 3A       		.byte	0x3a
 9174 2153 00       		.byte	0
 9175 2154 06       		.uleb128 0x6
 9176 2155 36000000 		.4byte	.LVL154
 9177 2159 3B140000 		.4byte	0x143b
 9178 215d 68210000 		.4byte	0x2168
 9179 2161 01       		.uleb128 0x1
 9180 2162 01       		.uleb128 0x1
 9181 2163 50       		.byte	0x50
 9182 2164 02       		.uleb128 0x2
 9183 2165 75       		.byte	0x75
 9184 2166 00       		.sleb128 0
 9185 2167 00       		.byte	0
 9186 2168 06       		.uleb128 0x6
 9187 2169 50000000 		.4byte	.LVL155
 9188 216d 25140000 		.4byte	0x1425
 9189 2171 81210000 		.4byte	0x2181
 9190 2175 01       		.uleb128 0x1
 9191 2176 01       		.uleb128 0x1
 9192 2177 50       		.byte	0x50
 9193 2178 02       		.uleb128 0x2
 9194 2179 08       		.byte	0x8
 9195 217a 24       		.byte	0x24
 9196 217b 01       		.uleb128 0x1
 9197 217c 01       		.uleb128 0x1
 9198 217d 51       		.byte	0x51
 9199 217e 01       		.uleb128 0x1
 9200 217f 3A       		.byte	0x3a
 9201 2180 00       		.byte	0
 9202 2181 06       		.uleb128 0x6
ARM GAS  C:\Users\DEVELO~1\AppData\Local\Temp\cc5EUJSb.s 			page 163


 9203 2182 56000000 		.4byte	.LVL156
 9204 2186 3B140000 		.4byte	0x143b
 9205 218a 95210000 		.4byte	0x2195
 9206 218e 01       		.uleb128 0x1
 9207 218f 01       		.uleb128 0x1
 9208 2190 50       		.byte	0x50
 9209 2191 02       		.uleb128 0x2
 9210 2192 75       		.byte	0x75
 9211 2193 00       		.sleb128 0
 9212 2194 00       		.byte	0
 9213 2195 06       		.uleb128 0x6
 9214 2196 6E000000 		.4byte	.LVL157
 9215 219a 25140000 		.4byte	0x1425
 9216 219e AE210000 		.4byte	0x21ae
 9217 21a2 01       		.uleb128 0x1
 9218 21a3 01       		.uleb128 0x1
 9219 21a4 50       		.byte	0x50
 9220 21a5 02       		.uleb128 0x2
 9221 21a6 08       		.byte	0x8
 9222 21a7 33       		.byte	0x33
 9223 21a8 01       		.uleb128 0x1
 9224 21a9 01       		.uleb128 0x1
 9225 21aa 51       		.byte	0x51
 9226 21ab 01       		.uleb128 0x1
 9227 21ac 3A       		.byte	0x3a
 9228 21ad 00       		.byte	0
 9229 21ae 06       		.uleb128 0x6
 9230 21af 74000000 		.4byte	.LVL158
 9231 21b3 3B140000 		.4byte	0x143b
 9232 21b7 C2210000 		.4byte	0x21c2
 9233 21bb 01       		.uleb128 0x1
 9234 21bc 01       		.uleb128 0x1
 9235 21bd 50       		.byte	0x50
 9236 21be 02       		.uleb128 0x2
 9237 21bf 76       		.byte	0x76
 9238 21c0 00       		.sleb128 0
 9239 21c1 00       		.byte	0
 9240 21c2 06       		.uleb128 0x6
 9241 21c3 8E000000 		.4byte	.LVL159
 9242 21c7 25140000 		.4byte	0x1425
 9243 21cb DB210000 		.4byte	0x21db
 9244 21cf 01       		.uleb128 0x1
 9245 21d0 01       		.uleb128 0x1
 9246 21d1 50       		.byte	0x50
 9247 21d2 02       		.uleb128 0x2
 9248 21d3 08       		.byte	0x8
 9249 21d4 55       		.byte	0x55
 9250 21d5 01       		.uleb128 0x1
 9251 21d6 01       		.uleb128 0x1
 9252 21d7 51       		.byte	0x51
 9253 21d8 01       		.uleb128 0x1
 9254 21d9 3A       		.byte	0x3a
 9255 21da 00       		.byte	0
 9256 21db 06       		.uleb128 0x6
 9257 21dc 94000000 		.4byte	.LVL160
 9258 21e0 3B140000 		.4byte	0x143b
 9259 21e4 EF210000 		.4byte	0x21ef
ARM GAS  C:\Users\DEVELO~1\AppData\Local\Temp\cc5EUJSb.s 			page 164


 9260 21e8 01       		.uleb128 0x1
 9261 21e9 01       		.uleb128 0x1
 9262 21ea 50       		.byte	0x50
 9263 21eb 02       		.uleb128 0x2
 9264 21ec 75       		.byte	0x75
 9265 21ed 00       		.sleb128 0
 9266 21ee 00       		.byte	0
 9267 21ef 3B       		.uleb128 0x3b
 9268 21f0 BA000000 		.4byte	.LVL161
 9269 21f4 25140000 		.4byte	0x1425
 9270 21f8 01       		.uleb128 0x1
 9271 21f9 01       		.uleb128 0x1
 9272 21fa 50       		.byte	0x50
 9273 21fb 02       		.uleb128 0x2
 9274 21fc 08       		.byte	0x8
 9275 21fd 56       		.byte	0x56
 9276 21fe 01       		.uleb128 0x1
 9277 21ff 01       		.uleb128 0x1
 9278 2200 51       		.byte	0x51
 9279 2201 01       		.uleb128 0x1
 9280 2202 3A       		.byte	0x3a
 9281 2203 00       		.byte	0
 9282 2204 00       		.byte	0
 9283 2205 27       		.uleb128 0x27
 9284 2206 2D050000 		.4byte	.LASF295
 9285 220a 5202     		.2byte	0x252
 9286 220c 01       		.byte	0x1
 9287 220d 00000000 		.4byte	.LFB448
 9288 2211 68000000 		.4byte	.LFE448-.LFB448
 9289 2215 01       		.uleb128 0x1
 9290 2216 9C       		.byte	0x9c
 9291 2217 61240000 		.4byte	0x2461
 9292 221b 32       		.uleb128 0x32
 9293 221c 670E0000 		.4byte	.LASF289
 9294 2220 71240000 		.4byte	0x2471
 9295 2224 05       		.uleb128 0x5
 9296 2225 03       		.byte	0x3
 9297 2226 00000000 		.4byte	__func__.0
 9298 222a 18       		.uleb128 0x18
 9299 222b 832E0000 		.4byte	0x2e83
 9300 222f 0A000000 		.4byte	.LBI598
 9301 2233 0200     		.2byte	.LVU851
 9302 2235 CC000000 		.4byte	.LLRL87
 9303 2239 5602     		.2byte	0x256
 9304 223b 03       		.byte	0x3
 9305 223c 09240000 		.4byte	0x2409
 9306 2240 02       		.uleb128 0x2
 9307 2241 912E0000 		.4byte	0x2e91
 9308 2245 39060000 		.4byte	.LLST88
 9309 2249 35060000 		.4byte	.LVUS88
 9310 224d 33       		.uleb128 0x33
 9311 224e CC000000 		.4byte	.LLRL87
 9312 2252 34       		.uleb128 0x34
 9313 2253 9E2E0000 		.4byte	0x2e9e
 9314 2257 59060000 		.4byte	.LLST89
 9315 225b 53060000 		.4byte	.LVUS89
 9316 225f 04       		.uleb128 0x4
ARM GAS  C:\Users\DEVELO~1\AppData\Local\Temp\cc5EUJSb.s 			page 165


 9317 2260 832E0000 		.4byte	0x2e83
 9318 2264 26000000 		.4byte	.LBI600
 9319 2268 0000     		.2byte	.LVU873
 9320 226a 26000000 		.4byte	.LBB600
 9321 226e 26000000 		.4byte	.LBE600-.LBB600
 9322 2272 01       		.byte	0x1
 9323 2273 8B01     		.2byte	0x18b
 9324 2275 0D       		.byte	0xd
 9325 2276 02       		.uleb128 0x2
 9326 2277 912E0000 		.4byte	0x2e91
 9327 227b 72060000 		.4byte	.LLST90
 9328 227f 70060000 		.4byte	.LVUS90
 9329 2283 35       		.uleb128 0x35
 9330 2284 9E2E0000 		.4byte	0x2e9e
 9331 2288 07       		.uleb128 0x7
 9332 2289 783A0000 		.4byte	0x3a78
 9333 228d 36000000 		.4byte	.LBI602
 9334 2291 0100     		.2byte	.LVU878
 9335 2293 36000000 		.4byte	.LBB602
 9336 2297 06000000 		.4byte	.LBE602-.LBB602
 9337 229b 9701     		.2byte	0x197
 9338 229d 05       		.byte	0x5
 9339 229e 10230000 		.4byte	0x2310
 9340 22a2 04       		.uleb128 0x4
 9341 22a3 A63A0000 		.4byte	0x3aa6
 9342 22a7 36000000 		.4byte	.LBI603
 9343 22ab 0300     		.2byte	.LVU880
 9344 22ad 36000000 		.4byte	.LBB603
 9345 22b1 06000000 		.4byte	.LBE603-.LBB603
 9346 22b5 03       		.byte	0x3
 9347 22b6 5502     		.2byte	0x255
 9348 22b8 03       		.byte	0x3
 9349 22b9 04       		.uleb128 0x4
 9350 22ba B83A0000 		.4byte	0x3ab8
 9351 22be 36000000 		.4byte	.LBI604
 9352 22c2 0500     		.2byte	.LVU882
 9353 22c4 36000000 		.4byte	.LBB604
 9354 22c8 06000000 		.4byte	.LBE604-.LBB604
 9355 22cc 04       		.byte	0x4
 9356 22cd C501     		.2byte	0x1c5
 9357 22cf 03       		.byte	0x3
 9358 22d0 04       		.uleb128 0x4
 9359 22d1 CA3A0000 		.4byte	0x3aca
 9360 22d5 36000000 		.4byte	.LBI605
 9361 22d9 0700     		.2byte	.LVU884
 9362 22db 36000000 		.4byte	.LBB605
 9363 22df 06000000 		.4byte	.LBE605-.LBB605
 9364 22e3 05       		.byte	0x5
 9365 22e4 6003     		.2byte	0x360
 9366 22e6 03       		.byte	0x3
 9367 22e7 04       		.uleb128 0x4
 9368 22e8 D33A0000 		.4byte	0x3ad3
 9369 22ec 36000000 		.4byte	.LBI606
 9370 22f0 0900     		.2byte	.LVU886
 9371 22f2 36000000 		.4byte	.LBB606
 9372 22f6 06000000 		.4byte	.LBE606-.LBB606
 9373 22fa 05       		.byte	0x5
ARM GAS  C:\Users\DEVELO~1\AppData\Local\Temp\cc5EUJSb.s 			page 166


 9374 22fb 3F03     		.2byte	0x33f
 9375 22fd 03       		.byte	0x3
 9376 22fe 02       		.uleb128 0x2
 9377 22ff E13A0000 		.4byte	0x3ae1
 9378 2303 82060000 		.4byte	.LLST91
 9379 2307 80060000 		.4byte	.LVUS91
 9380 230b 00       		.byte	0
 9381 230c 00       		.byte	0
 9382 230d 00       		.byte	0
 9383 230e 00       		.byte	0
 9384 230f 00       		.byte	0
 9385 2310 07       		.uleb128 0x7
 9386 2311 463A0000 		.4byte	0x3a46
 9387 2315 3C000000 		.4byte	.LBI608
 9388 2319 0400     		.2byte	.LVU892
 9389 231b 3C000000 		.4byte	.LBB608
 9390 231f 0A000000 		.4byte	.LBE608-.LBB608
 9391 2323 9701     		.2byte	0x197
 9392 2325 05       		.byte	0x5
 9393 2326 5E230000 		.4byte	0x235e
 9394 232a 02       		.uleb128 0x2
 9395 232b 613A0000 		.4byte	0x3a61
 9396 232f 8F060000 		.4byte	.LLST92
 9397 2333 8D060000 		.4byte	.LVUS92
 9398 2337 02       		.uleb128 0x2
 9399 2338 543A0000 		.4byte	0x3a54
 9400 233c 9C060000 		.4byte	.LLST93
 9401 2340 9A060000 		.4byte	.LVUS93
 9402 2344 0E       		.uleb128 0xe
 9403 2345 46000000 		.4byte	.LVL148
 9404 2349 4D140000 		.4byte	0x144d
 9405 234d 01       		.uleb128 0x1
 9406 234e 01       		.uleb128 0x1
 9407 234f 50       		.byte	0x50
 9408 2350 05       		.uleb128 0x5
 9409 2351 03       		.byte	0x3
 9410 2352 08000000 		.4byte	.LANCHOR4+8
 9411 2356 01       		.uleb128 0x1
 9412 2357 01       		.uleb128 0x1
 9413 2358 51       		.byte	0x51
 9414 2359 02       		.uleb128 0x2
 9415 235a 09       		.byte	0x9
 9416 235b ED       		.byte	0xed
 9417 235c 00       		.byte	0
 9418 235d 00       		.byte	0
 9419 235e 07       		.uleb128 0x7
 9420 235f 6F3A0000 		.4byte	0x3a6f
 9421 2363 46000000 		.4byte	.LBI610
 9422 2367 0200     		.2byte	.LVU896
 9423 2369 46000000 		.4byte	.LBB610
 9424 236d 06000000 		.4byte	.LBE610-.LBB610
 9425 2371 9701     		.2byte	0x197
 9426 2373 05       		.byte	0x5
 9427 2374 E6230000 		.4byte	0x23e6
 9428 2378 04       		.uleb128 0x4
 9429 2379 9D3A0000 		.4byte	0x3a9d
 9430 237d 46000000 		.4byte	.LBI611
ARM GAS  C:\Users\DEVELO~1\AppData\Local\Temp\cc5EUJSb.s 			page 167


 9431 2381 0400     		.2byte	.LVU898
 9432 2383 46000000 		.4byte	.LBB611
 9433 2387 06000000 		.4byte	.LBE611-.LBB611
 9434 238b 03       		.byte	0x3
 9435 238c 6002     		.2byte	0x260
 9436 238e 03       		.byte	0x3
 9437 238f 04       		.uleb128 0x4
 9438 2390 AF3A0000 		.4byte	0x3aaf
 9439 2394 46000000 		.4byte	.LBI612
 9440 2398 0800     		.2byte	.LVU902
 9441 239a 46000000 		.4byte	.LBB612
 9442 239e 06000000 		.4byte	.LBE612-.LBB612
 9443 23a2 04       		.byte	0x4
 9444 23a3 DD01     		.2byte	0x1dd
 9445 23a5 03       		.byte	0x3
 9446 23a6 04       		.uleb128 0x4
 9447 23a7 C13A0000 		.4byte	0x3ac1
 9448 23ab 46000000 		.4byte	.LBI613
 9449 23af 0A00     		.2byte	.LVU904
 9450 23b1 46000000 		.4byte	.LBB613
 9451 23b5 06000000 		.4byte	.LBE613-.LBB613
 9452 23b9 05       		.byte	0x5
 9453 23ba 6B03     		.2byte	0x36b
 9454 23bc 03       		.byte	0x3
 9455 23bd 04       		.uleb128 0x4
 9456 23be D33A0000 		.4byte	0x3ad3
 9457 23c2 46000000 		.4byte	.LBI614
 9458 23c6 0C00     		.2byte	.LVU906
 9459 23c8 46000000 		.4byte	.LBB614
 9460 23cc 06000000 		.4byte	.LBE614-.LBB614
 9461 23d0 05       		.byte	0x5
 9462 23d1 5203     		.2byte	0x352
 9463 23d3 03       		.byte	0x3
 9464 23d4 02       		.uleb128 0x2
 9465 23d5 E13A0000 		.4byte	0x3ae1
 9466 23d9 AC060000 		.4byte	.LLST94
 9467 23dd AA060000 		.4byte	.LVUS94
 9468 23e1 00       		.byte	0
 9469 23e2 00       		.byte	0
 9470 23e3 00       		.byte	0
 9471 23e4 00       		.byte	0
 9472 23e5 00       		.byte	0
 9473 23e6 06       		.uleb128 0x6
 9474 23e7 2C000000 		.4byte	.LVL145
 9475 23eb 81360000 		.4byte	0x3681
 9476 23ef FA230000 		.4byte	0x23fa
 9477 23f3 01       		.uleb128 0x1
 9478 23f4 01       		.uleb128 0x1
 9479 23f5 50       		.byte	0x50
 9480 23f6 02       		.uleb128 0x2
 9481 23f7 74       		.byte	0x74
 9482 23f8 00       		.sleb128 0
 9483 23f9 00       		.byte	0
 9484 23fa 20       		.uleb128 0x20
 9485 23fb 36000000 		.4byte	.LVL146
 9486 23ff 01       		.uleb128 0x1
 9487 2400 01       		.uleb128 0x1
ARM GAS  C:\Users\DEVELO~1\AppData\Local\Temp\cc5EUJSb.s 			page 168


 9488 2401 50       		.byte	0x50
 9489 2402 02       		.uleb128 0x2
 9490 2403 74       		.byte	0x74
 9491 2404 00       		.sleb128 0
 9492 2405 00       		.byte	0
 9493 2406 00       		.byte	0
 9494 2407 00       		.byte	0
 9495 2408 00       		.byte	0
 9496 2409 06       		.uleb128 0x6
 9497 240a 0A000000 		.4byte	.LVL139
 9498 240e 7E140000 		.4byte	0x147e
 9499 2412 20240000 		.4byte	0x2420
 9500 2416 01       		.uleb128 0x1
 9501 2417 01       		.uleb128 0x1
 9502 2418 50       		.byte	0x50
 9503 2419 05       		.uleb128 0x5
 9504 241a 03       		.byte	0x3
 9505 241b 00000000 		.4byte	.LANCHOR9
 9506 241f 00       		.byte	0
 9507 2420 06       		.uleb128 0x6
 9508 2421 1E000000 		.4byte	.LVL143
 9509 2425 6D140000 		.4byte	0x146d
 9510 2429 37240000 		.4byte	0x2437
 9511 242d 01       		.uleb128 0x1
 9512 242e 01       		.uleb128 0x1
 9513 242f 50       		.byte	0x50
 9514 2430 05       		.uleb128 0x5
 9515 2431 03       		.byte	0x3
 9516 2432 00000000 		.4byte	.LANCHOR9
 9517 2436 00       		.byte	0
 9518 2437 19       		.uleb128 0x19
 9519 2438 26000000 		.4byte	.LVL144
 9520 243c 64140000 		.4byte	0x1464
 9521 2440 06       		.uleb128 0x6
 9522 2441 52000000 		.4byte	.LVL150
 9523 2445 6D140000 		.4byte	0x146d
 9524 2449 57240000 		.4byte	0x2457
 9525 244d 01       		.uleb128 0x1
 9526 244e 01       		.uleb128 0x1
 9527 244f 50       		.byte	0x50
 9528 2450 05       		.uleb128 0x5
 9529 2451 03       		.byte	0x3
 9530 2452 00000000 		.4byte	.LANCHOR9
 9531 2456 00       		.byte	0
 9532 2457 19       		.uleb128 0x19
 9533 2458 5A000000 		.4byte	.LVL151
 9534 245c 64140000 		.4byte	0x1464
 9535 2460 00       		.byte	0
 9536 2461 14       		.uleb128 0x14
 9537 2462 77030000 		.4byte	0x377
 9538 2466 71240000 		.4byte	0x2471
 9539 246a 15       		.uleb128 0x15
 9540 246b 39000000 		.4byte	0x39
 9541 246f 09       		.byte	0x9
 9542 2470 00       		.byte	0
 9543 2471 11       		.uleb128 0x11
 9544 2472 61240000 		.4byte	0x2461
ARM GAS  C:\Users\DEVELO~1\AppData\Local\Temp\cc5EUJSb.s 			page 169


 9545 2476 27       		.uleb128 0x27
 9546 2477 0F050000 		.4byte	.LASF296
 9547 247b 3D02     		.2byte	0x23d
 9548 247d 01       		.byte	0x1
 9549 247e 00000000 		.4byte	.LFB447
 9550 2482 68000000 		.4byte	.LFE447-.LFB447
 9551 2486 01       		.uleb128 0x1
 9552 2487 9C       		.byte	0x9c
 9553 2488 D2260000 		.4byte	0x26d2
 9554 248c 32       		.uleb128 0x32
 9555 248d 670E0000 		.4byte	.LASF289
 9556 2491 71240000 		.4byte	0x2471
 9557 2495 05       		.uleb128 0x5
 9558 2496 03       		.byte	0x3
 9559 2497 00000000 		.4byte	__func__.1
 9560 249b 18       		.uleb128 0x18
 9561 249c 832E0000 		.4byte	0x2e83
 9562 24a0 0A000000 		.4byte	.LBI557
 9563 24a4 0200     		.2byte	.LVU769
 9564 24a6 BD000000 		.4byte	.LLRL79
 9565 24aa 4102     		.2byte	0x241
 9566 24ac 03       		.byte	0x3
 9567 24ad 7A260000 		.4byte	0x267a
 9568 24b1 02       		.uleb128 0x2
 9569 24b2 912E0000 		.4byte	0x2e91
 9570 24b6 BA060000 		.4byte	.LLST80
 9571 24ba B6060000 		.4byte	.LVUS80
 9572 24be 33       		.uleb128 0x33
 9573 24bf BD000000 		.4byte	.LLRL79
 9574 24c3 34       		.uleb128 0x34
 9575 24c4 9E2E0000 		.4byte	0x2e9e
 9576 24c8 DA060000 		.4byte	.LLST81
 9577 24cc D4060000 		.4byte	.LVUS81
 9578 24d0 04       		.uleb128 0x4
 9579 24d1 832E0000 		.4byte	0x2e83
 9580 24d5 26000000 		.4byte	.LBI559
 9581 24d9 0000     		.2byte	.LVU791
 9582 24db 26000000 		.4byte	.LBB559
 9583 24df 26000000 		.4byte	.LBE559-.LBB559
 9584 24e3 01       		.byte	0x1
 9585 24e4 8B01     		.2byte	0x18b
 9586 24e6 0D       		.byte	0xd
 9587 24e7 02       		.uleb128 0x2
 9588 24e8 912E0000 		.4byte	0x2e91
 9589 24ec F3060000 		.4byte	.LLST82
 9590 24f0 F1060000 		.4byte	.LVUS82
 9591 24f4 35       		.uleb128 0x35
 9592 24f5 9E2E0000 		.4byte	0x2e9e
 9593 24f9 07       		.uleb128 0x7
 9594 24fa 783A0000 		.4byte	0x3a78
 9595 24fe 36000000 		.4byte	.LBI561
 9596 2502 0100     		.2byte	.LVU796
 9597 2504 36000000 		.4byte	.LBB561
 9598 2508 06000000 		.4byte	.LBE561-.LBB561
 9599 250c 9701     		.2byte	0x197
 9600 250e 05       		.byte	0x5
 9601 250f 81250000 		.4byte	0x2581
ARM GAS  C:\Users\DEVELO~1\AppData\Local\Temp\cc5EUJSb.s 			page 170


 9602 2513 04       		.uleb128 0x4
 9603 2514 A63A0000 		.4byte	0x3aa6
 9604 2518 36000000 		.4byte	.LBI562
 9605 251c 0300     		.2byte	.LVU798
 9606 251e 36000000 		.4byte	.LBB562
 9607 2522 06000000 		.4byte	.LBE562-.LBB562
 9608 2526 03       		.byte	0x3
 9609 2527 5502     		.2byte	0x255
 9610 2529 03       		.byte	0x3
 9611 252a 04       		.uleb128 0x4
 9612 252b B83A0000 		.4byte	0x3ab8
 9613 252f 36000000 		.4byte	.LBI563
 9614 2533 0500     		.2byte	.LVU800
 9615 2535 36000000 		.4byte	.LBB563
 9616 2539 06000000 		.4byte	.LBE563-.LBB563
 9617 253d 04       		.byte	0x4
 9618 253e C501     		.2byte	0x1c5
 9619 2540 03       		.byte	0x3
 9620 2541 04       		.uleb128 0x4
 9621 2542 CA3A0000 		.4byte	0x3aca
 9622 2546 36000000 		.4byte	.LBI564
 9623 254a 0700     		.2byte	.LVU802
 9624 254c 36000000 		.4byte	.LBB564
 9625 2550 06000000 		.4byte	.LBE564-.LBB564
 9626 2554 05       		.byte	0x5
 9627 2555 6003     		.2byte	0x360
 9628 2557 03       		.byte	0x3
 9629 2558 04       		.uleb128 0x4
 9630 2559 D33A0000 		.4byte	0x3ad3
 9631 255d 36000000 		.4byte	.LBI565
 9632 2561 0900     		.2byte	.LVU804
 9633 2563 36000000 		.4byte	.LBB565
 9634 2567 06000000 		.4byte	.LBE565-.LBB565
 9635 256b 05       		.byte	0x5
 9636 256c 3F03     		.2byte	0x33f
 9637 256e 03       		.byte	0x3
 9638 256f 02       		.uleb128 0x2
 9639 2570 E13A0000 		.4byte	0x3ae1
 9640 2574 03070000 		.4byte	.LLST83
 9641 2578 01070000 		.4byte	.LVUS83
 9642 257c 00       		.byte	0
 9643 257d 00       		.byte	0
 9644 257e 00       		.byte	0
 9645 257f 00       		.byte	0
 9646 2580 00       		.byte	0
 9647 2581 07       		.uleb128 0x7
 9648 2582 463A0000 		.4byte	0x3a46
 9649 2586 3C000000 		.4byte	.LBI567
 9650 258a 0400     		.2byte	.LVU810
 9651 258c 3C000000 		.4byte	.LBB567
 9652 2590 0A000000 		.4byte	.LBE567-.LBB567
 9653 2594 9701     		.2byte	0x197
 9654 2596 05       		.byte	0x5
 9655 2597 CF250000 		.4byte	0x25cf
 9656 259b 02       		.uleb128 0x2
 9657 259c 613A0000 		.4byte	0x3a61
 9658 25a0 10070000 		.4byte	.LLST84
ARM GAS  C:\Users\DEVELO~1\AppData\Local\Temp\cc5EUJSb.s 			page 171


 9659 25a4 0E070000 		.4byte	.LVUS84
 9660 25a8 02       		.uleb128 0x2
 9661 25a9 543A0000 		.4byte	0x3a54
 9662 25ad 1D070000 		.4byte	.LLST85
 9663 25b1 1B070000 		.4byte	.LVUS85
 9664 25b5 0E       		.uleb128 0xe
 9665 25b6 46000000 		.4byte	.LVL135
 9666 25ba 4D140000 		.4byte	0x144d
 9667 25be 01       		.uleb128 0x1
 9668 25bf 01       		.uleb128 0x1
 9669 25c0 50       		.byte	0x50
 9670 25c1 05       		.uleb128 0x5
 9671 25c2 03       		.byte	0x3
 9672 25c3 08000000 		.4byte	.LANCHOR3+8
 9673 25c7 01       		.uleb128 0x1
 9674 25c8 01       		.uleb128 0x1
 9675 25c9 51       		.byte	0x51
 9676 25ca 02       		.uleb128 0x2
 9677 25cb 09       		.byte	0x9
 9678 25cc ED       		.byte	0xed
 9679 25cd 00       		.byte	0
 9680 25ce 00       		.byte	0
 9681 25cf 07       		.uleb128 0x7
 9682 25d0 6F3A0000 		.4byte	0x3a6f
 9683 25d4 46000000 		.4byte	.LBI569
 9684 25d8 0200     		.2byte	.LVU814
 9685 25da 46000000 		.4byte	.LBB569
 9686 25de 06000000 		.4byte	.LBE569-.LBB569
 9687 25e2 9701     		.2byte	0x197
 9688 25e4 05       		.byte	0x5
 9689 25e5 57260000 		.4byte	0x2657
 9690 25e9 04       		.uleb128 0x4
 9691 25ea 9D3A0000 		.4byte	0x3a9d
 9692 25ee 46000000 		.4byte	.LBI570
 9693 25f2 0400     		.2byte	.LVU816
 9694 25f4 46000000 		.4byte	.LBB570
 9695 25f8 06000000 		.4byte	.LBE570-.LBB570
 9696 25fc 03       		.byte	0x3
 9697 25fd 6002     		.2byte	0x260
 9698 25ff 03       		.byte	0x3
 9699 2600 04       		.uleb128 0x4
 9700 2601 AF3A0000 		.4byte	0x3aaf
 9701 2605 46000000 		.4byte	.LBI571
 9702 2609 0800     		.2byte	.LVU820
 9703 260b 46000000 		.4byte	.LBB571
 9704 260f 06000000 		.4byte	.LBE571-.LBB571
 9705 2613 04       		.byte	0x4
 9706 2614 DD01     		.2byte	0x1dd
 9707 2616 03       		.byte	0x3
 9708 2617 04       		.uleb128 0x4
 9709 2618 C13A0000 		.4byte	0x3ac1
 9710 261c 46000000 		.4byte	.LBI572
 9711 2620 0A00     		.2byte	.LVU822
 9712 2622 46000000 		.4byte	.LBB572
 9713 2626 06000000 		.4byte	.LBE572-.LBB572
 9714 262a 05       		.byte	0x5
 9715 262b 6B03     		.2byte	0x36b
ARM GAS  C:\Users\DEVELO~1\AppData\Local\Temp\cc5EUJSb.s 			page 172


 9716 262d 03       		.byte	0x3
 9717 262e 04       		.uleb128 0x4
 9718 262f D33A0000 		.4byte	0x3ad3
 9719 2633 46000000 		.4byte	.LBI573
 9720 2637 0C00     		.2byte	.LVU824
 9721 2639 46000000 		.4byte	.LBB573
 9722 263d 06000000 		.4byte	.LBE573-.LBB573
 9723 2641 05       		.byte	0x5
 9724 2642 5203     		.2byte	0x352
 9725 2644 03       		.byte	0x3
 9726 2645 02       		.uleb128 0x2
 9727 2646 E13A0000 		.4byte	0x3ae1
 9728 264a 2D070000 		.4byte	.LLST86
 9729 264e 2B070000 		.4byte	.LVUS86
 9730 2652 00       		.byte	0
 9731 2653 00       		.byte	0
 9732 2654 00       		.byte	0
 9733 2655 00       		.byte	0
 9734 2656 00       		.byte	0
 9735 2657 06       		.uleb128 0x6
 9736 2658 2C000000 		.4byte	.LVL132
 9737 265c 81360000 		.4byte	0x3681
 9738 2660 6B260000 		.4byte	0x266b
 9739 2664 01       		.uleb128 0x1
 9740 2665 01       		.uleb128 0x1
 9741 2666 50       		.byte	0x50
 9742 2667 02       		.uleb128 0x2
 9743 2668 74       		.byte	0x74
 9744 2669 00       		.sleb128 0
 9745 266a 00       		.byte	0
 9746 266b 20       		.uleb128 0x20
 9747 266c 36000000 		.4byte	.LVL133
 9748 2670 01       		.uleb128 0x1
 9749 2671 01       		.uleb128 0x1
 9750 2672 50       		.byte	0x50
 9751 2673 02       		.uleb128 0x2
 9752 2674 74       		.byte	0x74
 9753 2675 00       		.sleb128 0
 9754 2676 00       		.byte	0
 9755 2677 00       		.byte	0
 9756 2678 00       		.byte	0
 9757 2679 00       		.byte	0
 9758 267a 06       		.uleb128 0x6
 9759 267b 0A000000 		.4byte	.LVL126
 9760 267f 7E140000 		.4byte	0x147e
 9761 2683 91260000 		.4byte	0x2691
 9762 2687 01       		.uleb128 0x1
 9763 2688 01       		.uleb128 0x1
 9764 2689 50       		.byte	0x50
 9765 268a 05       		.uleb128 0x5
 9766 268b 03       		.byte	0x3
 9767 268c 00000000 		.4byte	.LANCHOR8
 9768 2690 00       		.byte	0
 9769 2691 06       		.uleb128 0x6
 9770 2692 1E000000 		.4byte	.LVL130
 9771 2696 6D140000 		.4byte	0x146d
 9772 269a A8260000 		.4byte	0x26a8
ARM GAS  C:\Users\DEVELO~1\AppData\Local\Temp\cc5EUJSb.s 			page 173


 9773 269e 01       		.uleb128 0x1
 9774 269f 01       		.uleb128 0x1
 9775 26a0 50       		.byte	0x50
 9776 26a1 05       		.uleb128 0x5
 9777 26a2 03       		.byte	0x3
 9778 26a3 00000000 		.4byte	.LANCHOR8
 9779 26a7 00       		.byte	0
 9780 26a8 19       		.uleb128 0x19
 9781 26a9 26000000 		.4byte	.LVL131
 9782 26ad 64140000 		.4byte	0x1464
 9783 26b1 06       		.uleb128 0x6
 9784 26b2 52000000 		.4byte	.LVL137
 9785 26b6 6D140000 		.4byte	0x146d
 9786 26ba C8260000 		.4byte	0x26c8
 9787 26be 01       		.uleb128 0x1
 9788 26bf 01       		.uleb128 0x1
 9789 26c0 50       		.byte	0x50
 9790 26c1 05       		.uleb128 0x5
 9791 26c2 03       		.byte	0x3
 9792 26c3 00000000 		.4byte	.LANCHOR8
 9793 26c7 00       		.byte	0
 9794 26c8 19       		.uleb128 0x19
 9795 26c9 5A000000 		.4byte	.LVL138
 9796 26cd 64140000 		.4byte	0x1464
 9797 26d1 00       		.byte	0
 9798 26d2 27       		.uleb128 0x27
 9799 26d3 C2070000 		.4byte	.LASF297
 9800 26d7 1302     		.2byte	0x213
 9801 26d9 01       		.byte	0x1
 9802 26da 00000000 		.4byte	.LFB446
 9803 26de 68000000 		.4byte	.LFE446-.LFB446
 9804 26e2 01       		.uleb128 0x1
 9805 26e3 9C       		.byte	0x9c
 9806 26e4 2E290000 		.4byte	0x292e
 9807 26e8 32       		.uleb128 0x32
 9808 26e9 670E0000 		.4byte	.LASF289
 9809 26ed 71240000 		.4byte	0x2471
 9810 26f1 05       		.uleb128 0x5
 9811 26f2 03       		.byte	0x3
 9812 26f3 00000000 		.4byte	__func__.2
 9813 26f7 18       		.uleb128 0x18
 9814 26f8 832E0000 		.4byte	0x2e83
 9815 26fc 0A000000 		.4byte	.LBI516
 9816 2700 0200     		.2byte	.LVU687
 9817 2702 AE000000 		.4byte	.LLRL71
 9818 2706 1702     		.2byte	0x217
 9819 2708 03       		.byte	0x3
 9820 2709 D6280000 		.4byte	0x28d6
 9821 270d 02       		.uleb128 0x2
 9822 270e 912E0000 		.4byte	0x2e91
 9823 2712 3B070000 		.4byte	.LLST72
 9824 2716 37070000 		.4byte	.LVUS72
 9825 271a 33       		.uleb128 0x33
 9826 271b AE000000 		.4byte	.LLRL71
 9827 271f 34       		.uleb128 0x34
 9828 2720 9E2E0000 		.4byte	0x2e9e
 9829 2724 5B070000 		.4byte	.LLST73
ARM GAS  C:\Users\DEVELO~1\AppData\Local\Temp\cc5EUJSb.s 			page 174


 9830 2728 55070000 		.4byte	.LVUS73
 9831 272c 04       		.uleb128 0x4
 9832 272d 832E0000 		.4byte	0x2e83
 9833 2731 26000000 		.4byte	.LBI518
 9834 2735 0000     		.2byte	.LVU709
 9835 2737 26000000 		.4byte	.LBB518
 9836 273b 26000000 		.4byte	.LBE518-.LBB518
 9837 273f 01       		.byte	0x1
 9838 2740 8B01     		.2byte	0x18b
 9839 2742 0D       		.byte	0xd
 9840 2743 02       		.uleb128 0x2
 9841 2744 912E0000 		.4byte	0x2e91
 9842 2748 74070000 		.4byte	.LLST74
 9843 274c 72070000 		.4byte	.LVUS74
 9844 2750 35       		.uleb128 0x35
 9845 2751 9E2E0000 		.4byte	0x2e9e
 9846 2755 07       		.uleb128 0x7
 9847 2756 783A0000 		.4byte	0x3a78
 9848 275a 36000000 		.4byte	.LBI520
 9849 275e 0100     		.2byte	.LVU714
 9850 2760 36000000 		.4byte	.LBB520
 9851 2764 06000000 		.4byte	.LBE520-.LBB520
 9852 2768 9701     		.2byte	0x197
 9853 276a 05       		.byte	0x5
 9854 276b DD270000 		.4byte	0x27dd
 9855 276f 04       		.uleb128 0x4
 9856 2770 A63A0000 		.4byte	0x3aa6
 9857 2774 36000000 		.4byte	.LBI521
 9858 2778 0300     		.2byte	.LVU716
 9859 277a 36000000 		.4byte	.LBB521
 9860 277e 06000000 		.4byte	.LBE521-.LBB521
 9861 2782 03       		.byte	0x3
 9862 2783 5502     		.2byte	0x255
 9863 2785 03       		.byte	0x3
 9864 2786 04       		.uleb128 0x4
 9865 2787 B83A0000 		.4byte	0x3ab8
 9866 278b 36000000 		.4byte	.LBI522
 9867 278f 0500     		.2byte	.LVU718
 9868 2791 36000000 		.4byte	.LBB522
 9869 2795 06000000 		.4byte	.LBE522-.LBB522
 9870 2799 04       		.byte	0x4
 9871 279a C501     		.2byte	0x1c5
 9872 279c 03       		.byte	0x3
 9873 279d 04       		.uleb128 0x4
 9874 279e CA3A0000 		.4byte	0x3aca
 9875 27a2 36000000 		.4byte	.LBI523
 9876 27a6 0700     		.2byte	.LVU720
 9877 27a8 36000000 		.4byte	.LBB523
 9878 27ac 06000000 		.4byte	.LBE523-.LBB523
 9879 27b0 05       		.byte	0x5
 9880 27b1 6003     		.2byte	0x360
 9881 27b3 03       		.byte	0x3
 9882 27b4 04       		.uleb128 0x4
 9883 27b5 D33A0000 		.4byte	0x3ad3
 9884 27b9 36000000 		.4byte	.LBI524
 9885 27bd 0900     		.2byte	.LVU722
 9886 27bf 36000000 		.4byte	.LBB524
ARM GAS  C:\Users\DEVELO~1\AppData\Local\Temp\cc5EUJSb.s 			page 175


 9887 27c3 06000000 		.4byte	.LBE524-.LBB524
 9888 27c7 05       		.byte	0x5
 9889 27c8 3F03     		.2byte	0x33f
 9890 27ca 03       		.byte	0x3
 9891 27cb 02       		.uleb128 0x2
 9892 27cc E13A0000 		.4byte	0x3ae1
 9893 27d0 84070000 		.4byte	.LLST75
 9894 27d4 82070000 		.4byte	.LVUS75
 9895 27d8 00       		.byte	0
 9896 27d9 00       		.byte	0
 9897 27da 00       		.byte	0
 9898 27db 00       		.byte	0
 9899 27dc 00       		.byte	0
 9900 27dd 07       		.uleb128 0x7
 9901 27de 463A0000 		.4byte	0x3a46
 9902 27e2 3C000000 		.4byte	.LBI526
 9903 27e6 0400     		.2byte	.LVU728
 9904 27e8 3C000000 		.4byte	.LBB526
 9905 27ec 0A000000 		.4byte	.LBE526-.LBB526
 9906 27f0 9701     		.2byte	0x197
 9907 27f2 05       		.byte	0x5
 9908 27f3 2B280000 		.4byte	0x282b
 9909 27f7 02       		.uleb128 0x2
 9910 27f8 613A0000 		.4byte	0x3a61
 9911 27fc 91070000 		.4byte	.LLST76
 9912 2800 8F070000 		.4byte	.LVUS76
 9913 2804 02       		.uleb128 0x2
 9914 2805 543A0000 		.4byte	0x3a54
 9915 2809 9E070000 		.4byte	.LLST77
 9916 280d 9C070000 		.4byte	.LVUS77
 9917 2811 0E       		.uleb128 0xe
 9918 2812 46000000 		.4byte	.LVL122
 9919 2816 4D140000 		.4byte	0x144d
 9920 281a 01       		.uleb128 0x1
 9921 281b 01       		.uleb128 0x1
 9922 281c 50       		.byte	0x50
 9923 281d 05       		.uleb128 0x5
 9924 281e 03       		.byte	0x3
 9925 281f 08000000 		.4byte	.LANCHOR2+8
 9926 2823 01       		.uleb128 0x1
 9927 2824 01       		.uleb128 0x1
 9928 2825 51       		.byte	0x51
 9929 2826 02       		.uleb128 0x2
 9930 2827 09       		.byte	0x9
 9931 2828 ED       		.byte	0xed
 9932 2829 00       		.byte	0
 9933 282a 00       		.byte	0
 9934 282b 07       		.uleb128 0x7
 9935 282c 6F3A0000 		.4byte	0x3a6f
 9936 2830 46000000 		.4byte	.LBI528
 9937 2834 0200     		.2byte	.LVU732
 9938 2836 46000000 		.4byte	.LBB528
 9939 283a 06000000 		.4byte	.LBE528-.LBB528
 9940 283e 9701     		.2byte	0x197
 9941 2840 05       		.byte	0x5
 9942 2841 B3280000 		.4byte	0x28b3
 9943 2845 04       		.uleb128 0x4
ARM GAS  C:\Users\DEVELO~1\AppData\Local\Temp\cc5EUJSb.s 			page 176


 9944 2846 9D3A0000 		.4byte	0x3a9d
 9945 284a 46000000 		.4byte	.LBI529
 9946 284e 0400     		.2byte	.LVU734
 9947 2850 46000000 		.4byte	.LBB529
 9948 2854 06000000 		.4byte	.LBE529-.LBB529
 9949 2858 03       		.byte	0x3
 9950 2859 6002     		.2byte	0x260
 9951 285b 03       		.byte	0x3
 9952 285c 04       		.uleb128 0x4
 9953 285d AF3A0000 		.4byte	0x3aaf
 9954 2861 46000000 		.4byte	.LBI530
 9955 2865 0800     		.2byte	.LVU738
 9956 2867 46000000 		.4byte	.LBB530
 9957 286b 06000000 		.4byte	.LBE530-.LBB530
 9958 286f 04       		.byte	0x4
 9959 2870 DD01     		.2byte	0x1dd
 9960 2872 03       		.byte	0x3
 9961 2873 04       		.uleb128 0x4
 9962 2874 C13A0000 		.4byte	0x3ac1
 9963 2878 46000000 		.4byte	.LBI531
 9964 287c 0A00     		.2byte	.LVU740
 9965 287e 46000000 		.4byte	.LBB531
 9966 2882 06000000 		.4byte	.LBE531-.LBB531
 9967 2886 05       		.byte	0x5
 9968 2887 6B03     		.2byte	0x36b
 9969 2889 03       		.byte	0x3
 9970 288a 04       		.uleb128 0x4
 9971 288b D33A0000 		.4byte	0x3ad3
 9972 288f 46000000 		.4byte	.LBI532
 9973 2893 0C00     		.2byte	.LVU742
 9974 2895 46000000 		.4byte	.LBB532
 9975 2899 06000000 		.4byte	.LBE532-.LBB532
 9976 289d 05       		.byte	0x5
 9977 289e 5203     		.2byte	0x352
 9978 28a0 03       		.byte	0x3
 9979 28a1 02       		.uleb128 0x2
 9980 28a2 E13A0000 		.4byte	0x3ae1
 9981 28a6 AE070000 		.4byte	.LLST78
 9982 28aa AC070000 		.4byte	.LVUS78
 9983 28ae 00       		.byte	0
 9984 28af 00       		.byte	0
 9985 28b0 00       		.byte	0
 9986 28b1 00       		.byte	0
 9987 28b2 00       		.byte	0
 9988 28b3 06       		.uleb128 0x6
 9989 28b4 2C000000 		.4byte	.LVL119
 9990 28b8 81360000 		.4byte	0x3681
 9991 28bc C7280000 		.4byte	0x28c7
 9992 28c0 01       		.uleb128 0x1
 9993 28c1 01       		.uleb128 0x1
 9994 28c2 50       		.byte	0x50
 9995 28c3 02       		.uleb128 0x2
 9996 28c4 74       		.byte	0x74
 9997 28c5 00       		.sleb128 0
 9998 28c6 00       		.byte	0
 9999 28c7 20       		.uleb128 0x20
 10000 28c8 36000000 		.4byte	.LVL120
ARM GAS  C:\Users\DEVELO~1\AppData\Local\Temp\cc5EUJSb.s 			page 177


 10001 28cc 01       		.uleb128 0x1
 10002 28cd 01       		.uleb128 0x1
 10003 28ce 50       		.byte	0x50
 10004 28cf 02       		.uleb128 0x2
 10005 28d0 74       		.byte	0x74
 10006 28d1 00       		.sleb128 0
 10007 28d2 00       		.byte	0
 10008 28d3 00       		.byte	0
 10009 28d4 00       		.byte	0
 10010 28d5 00       		.byte	0
 10011 28d6 06       		.uleb128 0x6
 10012 28d7 0A000000 		.4byte	.LVL113
 10013 28db 7E140000 		.4byte	0x147e
 10014 28df ED280000 		.4byte	0x28ed
 10015 28e3 01       		.uleb128 0x1
 10016 28e4 01       		.uleb128 0x1
 10017 28e5 50       		.byte	0x50
 10018 28e6 05       		.uleb128 0x5
 10019 28e7 03       		.byte	0x3
 10020 28e8 00000000 		.4byte	.LANCHOR7
 10021 28ec 00       		.byte	0
 10022 28ed 06       		.uleb128 0x6
 10023 28ee 1E000000 		.4byte	.LVL117
 10024 28f2 6D140000 		.4byte	0x146d
 10025 28f6 04290000 		.4byte	0x2904
 10026 28fa 01       		.uleb128 0x1
 10027 28fb 01       		.uleb128 0x1
 10028 28fc 50       		.byte	0x50
 10029 28fd 05       		.uleb128 0x5
 10030 28fe 03       		.byte	0x3
 10031 28ff 00000000 		.4byte	.LANCHOR7
 10032 2903 00       		.byte	0
 10033 2904 19       		.uleb128 0x19
 10034 2905 26000000 		.4byte	.LVL118
 10035 2909 64140000 		.4byte	0x1464
 10036 290d 06       		.uleb128 0x6
 10037 290e 52000000 		.4byte	.LVL124
 10038 2912 6D140000 		.4byte	0x146d
 10039 2916 24290000 		.4byte	0x2924
 10040 291a 01       		.uleb128 0x1
 10041 291b 01       		.uleb128 0x1
 10042 291c 50       		.byte	0x50
 10043 291d 05       		.uleb128 0x5
 10044 291e 03       		.byte	0x3
 10045 291f 00000000 		.4byte	.LANCHOR7
 10046 2923 00       		.byte	0
 10047 2924 19       		.uleb128 0x19
 10048 2925 5A000000 		.4byte	.LVL125
 10049 2929 64140000 		.4byte	0x1464
 10050 292d 00       		.byte	0
 10051 292e 27       		.uleb128 0x27
 10052 292f 80040000 		.4byte	.LASF298
 10053 2933 FE01     		.2byte	0x1fe
 10054 2935 01       		.byte	0x1
 10055 2936 00000000 		.4byte	.LFB445
 10056 293a 68000000 		.4byte	.LFE445-.LFB445
 10057 293e 01       		.uleb128 0x1
ARM GAS  C:\Users\DEVELO~1\AppData\Local\Temp\cc5EUJSb.s 			page 178


 10058 293f 9C       		.byte	0x9c
 10059 2940 8A2B0000 		.4byte	0x2b8a
 10060 2944 32       		.uleb128 0x32
 10061 2945 670E0000 		.4byte	.LASF289
 10062 2949 9A2B0000 		.4byte	0x2b9a
 10063 294d 05       		.uleb128 0x5
 10064 294e 03       		.byte	0x3
 10065 294f 00000000 		.4byte	__func__.3
 10066 2953 18       		.uleb128 0x18
 10067 2954 832E0000 		.4byte	0x2e83
 10068 2958 0A000000 		.4byte	.LBI475
 10069 295c 0200     		.2byte	.LVU605
 10070 295e 9F000000 		.4byte	.LLRL63
 10071 2962 0202     		.2byte	0x202
 10072 2964 03       		.byte	0x3
 10073 2965 322B0000 		.4byte	0x2b32
 10074 2969 02       		.uleb128 0x2
 10075 296a 912E0000 		.4byte	0x2e91
 10076 296e BC070000 		.4byte	.LLST64
 10077 2972 B8070000 		.4byte	.LVUS64
 10078 2976 33       		.uleb128 0x33
 10079 2977 9F000000 		.4byte	.LLRL63
 10080 297b 34       		.uleb128 0x34
 10081 297c 9E2E0000 		.4byte	0x2e9e
 10082 2980 DC070000 		.4byte	.LLST65
 10083 2984 D6070000 		.4byte	.LVUS65
 10084 2988 04       		.uleb128 0x4
 10085 2989 832E0000 		.4byte	0x2e83
 10086 298d 26000000 		.4byte	.LBI477
 10087 2991 0000     		.2byte	.LVU627
 10088 2993 26000000 		.4byte	.LBB477
 10089 2997 26000000 		.4byte	.LBE477-.LBB477
 10090 299b 01       		.byte	0x1
 10091 299c 8B01     		.2byte	0x18b
 10092 299e 0D       		.byte	0xd
 10093 299f 02       		.uleb128 0x2
 10094 29a0 912E0000 		.4byte	0x2e91
 10095 29a4 F5070000 		.4byte	.LLST66
 10096 29a8 F3070000 		.4byte	.LVUS66
 10097 29ac 35       		.uleb128 0x35
 10098 29ad 9E2E0000 		.4byte	0x2e9e
 10099 29b1 07       		.uleb128 0x7
 10100 29b2 783A0000 		.4byte	0x3a78
 10101 29b6 36000000 		.4byte	.LBI479
 10102 29ba 0100     		.2byte	.LVU632
 10103 29bc 36000000 		.4byte	.LBB479
 10104 29c0 06000000 		.4byte	.LBE479-.LBB479
 10105 29c4 9701     		.2byte	0x197
 10106 29c6 05       		.byte	0x5
 10107 29c7 392A0000 		.4byte	0x2a39
 10108 29cb 04       		.uleb128 0x4
 10109 29cc A63A0000 		.4byte	0x3aa6
 10110 29d0 36000000 		.4byte	.LBI480
 10111 29d4 0300     		.2byte	.LVU634
 10112 29d6 36000000 		.4byte	.LBB480
 10113 29da 06000000 		.4byte	.LBE480-.LBB480
 10114 29de 03       		.byte	0x3
ARM GAS  C:\Users\DEVELO~1\AppData\Local\Temp\cc5EUJSb.s 			page 179


 10115 29df 5502     		.2byte	0x255
 10116 29e1 03       		.byte	0x3
 10117 29e2 04       		.uleb128 0x4
 10118 29e3 B83A0000 		.4byte	0x3ab8
 10119 29e7 36000000 		.4byte	.LBI481
 10120 29eb 0500     		.2byte	.LVU636
 10121 29ed 36000000 		.4byte	.LBB481
 10122 29f1 06000000 		.4byte	.LBE481-.LBB481
 10123 29f5 04       		.byte	0x4
 10124 29f6 C501     		.2byte	0x1c5
 10125 29f8 03       		.byte	0x3
 10126 29f9 04       		.uleb128 0x4
 10127 29fa CA3A0000 		.4byte	0x3aca
 10128 29fe 36000000 		.4byte	.LBI482
 10129 2a02 0700     		.2byte	.LVU638
 10130 2a04 36000000 		.4byte	.LBB482
 10131 2a08 06000000 		.4byte	.LBE482-.LBB482
 10132 2a0c 05       		.byte	0x5
 10133 2a0d 6003     		.2byte	0x360
 10134 2a0f 03       		.byte	0x3
 10135 2a10 04       		.uleb128 0x4
 10136 2a11 D33A0000 		.4byte	0x3ad3
 10137 2a15 36000000 		.4byte	.LBI483
 10138 2a19 0900     		.2byte	.LVU640
 10139 2a1b 36000000 		.4byte	.LBB483
 10140 2a1f 06000000 		.4byte	.LBE483-.LBB483
 10141 2a23 05       		.byte	0x5
 10142 2a24 3F03     		.2byte	0x33f
 10143 2a26 03       		.byte	0x3
 10144 2a27 02       		.uleb128 0x2
 10145 2a28 E13A0000 		.4byte	0x3ae1
 10146 2a2c 05080000 		.4byte	.LLST67
 10147 2a30 03080000 		.4byte	.LVUS67
 10148 2a34 00       		.byte	0
 10149 2a35 00       		.byte	0
 10150 2a36 00       		.byte	0
 10151 2a37 00       		.byte	0
 10152 2a38 00       		.byte	0
 10153 2a39 07       		.uleb128 0x7
 10154 2a3a 463A0000 		.4byte	0x3a46
 10155 2a3e 3C000000 		.4byte	.LBI485
 10156 2a42 0400     		.2byte	.LVU646
 10157 2a44 3C000000 		.4byte	.LBB485
 10158 2a48 0A000000 		.4byte	.LBE485-.LBB485
 10159 2a4c 9701     		.2byte	0x197
 10160 2a4e 05       		.byte	0x5
 10161 2a4f 872A0000 		.4byte	0x2a87
 10162 2a53 02       		.uleb128 0x2
 10163 2a54 613A0000 		.4byte	0x3a61
 10164 2a58 12080000 		.4byte	.LLST68
 10165 2a5c 10080000 		.4byte	.LVUS68
 10166 2a60 02       		.uleb128 0x2
 10167 2a61 543A0000 		.4byte	0x3a54
 10168 2a65 1F080000 		.4byte	.LLST69
 10169 2a69 1D080000 		.4byte	.LVUS69
 10170 2a6d 0E       		.uleb128 0xe
 10171 2a6e 46000000 		.4byte	.LVL109
ARM GAS  C:\Users\DEVELO~1\AppData\Local\Temp\cc5EUJSb.s 			page 180


 10172 2a72 4D140000 		.4byte	0x144d
 10173 2a76 01       		.uleb128 0x1
 10174 2a77 01       		.uleb128 0x1
 10175 2a78 50       		.byte	0x50
 10176 2a79 05       		.uleb128 0x5
 10177 2a7a 03       		.byte	0x3
 10178 2a7b 08000000 		.4byte	.LANCHOR1+8
 10179 2a7f 01       		.uleb128 0x1
 10180 2a80 01       		.uleb128 0x1
 10181 2a81 51       		.byte	0x51
 10182 2a82 02       		.uleb128 0x2
 10183 2a83 09       		.byte	0x9
 10184 2a84 ED       		.byte	0xed
 10185 2a85 00       		.byte	0
 10186 2a86 00       		.byte	0
 10187 2a87 07       		.uleb128 0x7
 10188 2a88 6F3A0000 		.4byte	0x3a6f
 10189 2a8c 46000000 		.4byte	.LBI487
 10190 2a90 0200     		.2byte	.LVU650
 10191 2a92 46000000 		.4byte	.LBB487
 10192 2a96 06000000 		.4byte	.LBE487-.LBB487
 10193 2a9a 9701     		.2byte	0x197
 10194 2a9c 05       		.byte	0x5
 10195 2a9d 0F2B0000 		.4byte	0x2b0f
 10196 2aa1 04       		.uleb128 0x4
 10197 2aa2 9D3A0000 		.4byte	0x3a9d
 10198 2aa6 46000000 		.4byte	.LBI488
 10199 2aaa 0400     		.2byte	.LVU652
 10200 2aac 46000000 		.4byte	.LBB488
 10201 2ab0 06000000 		.4byte	.LBE488-.LBB488
 10202 2ab4 03       		.byte	0x3
 10203 2ab5 6002     		.2byte	0x260
 10204 2ab7 03       		.byte	0x3
 10205 2ab8 04       		.uleb128 0x4
 10206 2ab9 AF3A0000 		.4byte	0x3aaf
 10207 2abd 46000000 		.4byte	.LBI489
 10208 2ac1 0800     		.2byte	.LVU656
 10209 2ac3 46000000 		.4byte	.LBB489
 10210 2ac7 06000000 		.4byte	.LBE489-.LBB489
 10211 2acb 04       		.byte	0x4
 10212 2acc DD01     		.2byte	0x1dd
 10213 2ace 03       		.byte	0x3
 10214 2acf 04       		.uleb128 0x4
 10215 2ad0 C13A0000 		.4byte	0x3ac1
 10216 2ad4 46000000 		.4byte	.LBI490
 10217 2ad8 0A00     		.2byte	.LVU658
 10218 2ada 46000000 		.4byte	.LBB490
 10219 2ade 06000000 		.4byte	.LBE490-.LBB490
 10220 2ae2 05       		.byte	0x5
 10221 2ae3 6B03     		.2byte	0x36b
 10222 2ae5 03       		.byte	0x3
 10223 2ae6 04       		.uleb128 0x4
 10224 2ae7 D33A0000 		.4byte	0x3ad3
 10225 2aeb 46000000 		.4byte	.LBI491
 10226 2aef 0C00     		.2byte	.LVU660
 10227 2af1 46000000 		.4byte	.LBB491
 10228 2af5 06000000 		.4byte	.LBE491-.LBB491
ARM GAS  C:\Users\DEVELO~1\AppData\Local\Temp\cc5EUJSb.s 			page 181


 10229 2af9 05       		.byte	0x5
 10230 2afa 5203     		.2byte	0x352
 10231 2afc 03       		.byte	0x3
 10232 2afd 02       		.uleb128 0x2
 10233 2afe E13A0000 		.4byte	0x3ae1
 10234 2b02 2F080000 		.4byte	.LLST70
 10235 2b06 2D080000 		.4byte	.LVUS70
 10236 2b0a 00       		.byte	0
 10237 2b0b 00       		.byte	0
 10238 2b0c 00       		.byte	0
 10239 2b0d 00       		.byte	0
 10240 2b0e 00       		.byte	0
 10241 2b0f 06       		.uleb128 0x6
 10242 2b10 2C000000 		.4byte	.LVL106
 10243 2b14 81360000 		.4byte	0x3681
 10244 2b18 232B0000 		.4byte	0x2b23
 10245 2b1c 01       		.uleb128 0x1
 10246 2b1d 01       		.uleb128 0x1
 10247 2b1e 50       		.byte	0x50
 10248 2b1f 02       		.uleb128 0x2
 10249 2b20 74       		.byte	0x74
 10250 2b21 00       		.sleb128 0
 10251 2b22 00       		.byte	0
 10252 2b23 20       		.uleb128 0x20
 10253 2b24 36000000 		.4byte	.LVL107
 10254 2b28 01       		.uleb128 0x1
 10255 2b29 01       		.uleb128 0x1
 10256 2b2a 50       		.byte	0x50
 10257 2b2b 02       		.uleb128 0x2
 10258 2b2c 74       		.byte	0x74
 10259 2b2d 00       		.sleb128 0
 10260 2b2e 00       		.byte	0
 10261 2b2f 00       		.byte	0
 10262 2b30 00       		.byte	0
 10263 2b31 00       		.byte	0
 10264 2b32 06       		.uleb128 0x6
 10265 2b33 0A000000 		.4byte	.LVL100
 10266 2b37 7E140000 		.4byte	0x147e
 10267 2b3b 492B0000 		.4byte	0x2b49
 10268 2b3f 01       		.uleb128 0x1
 10269 2b40 01       		.uleb128 0x1
 10270 2b41 50       		.byte	0x50
 10271 2b42 05       		.uleb128 0x5
 10272 2b43 03       		.byte	0x3
 10273 2b44 00000000 		.4byte	.LANCHOR6
 10274 2b48 00       		.byte	0
 10275 2b49 06       		.uleb128 0x6
 10276 2b4a 1E000000 		.4byte	.LVL104
 10277 2b4e 6D140000 		.4byte	0x146d
 10278 2b52 602B0000 		.4byte	0x2b60
 10279 2b56 01       		.uleb128 0x1
 10280 2b57 01       		.uleb128 0x1
 10281 2b58 50       		.byte	0x50
 10282 2b59 05       		.uleb128 0x5
 10283 2b5a 03       		.byte	0x3
 10284 2b5b 00000000 		.4byte	.LANCHOR6
 10285 2b5f 00       		.byte	0
ARM GAS  C:\Users\DEVELO~1\AppData\Local\Temp\cc5EUJSb.s 			page 182


 10286 2b60 19       		.uleb128 0x19
 10287 2b61 26000000 		.4byte	.LVL105
 10288 2b65 64140000 		.4byte	0x1464
 10289 2b69 06       		.uleb128 0x6
 10290 2b6a 52000000 		.4byte	.LVL111
 10291 2b6e 6D140000 		.4byte	0x146d
 10292 2b72 802B0000 		.4byte	0x2b80
 10293 2b76 01       		.uleb128 0x1
 10294 2b77 01       		.uleb128 0x1
 10295 2b78 50       		.byte	0x50
 10296 2b79 05       		.uleb128 0x5
 10297 2b7a 03       		.byte	0x3
 10298 2b7b 00000000 		.4byte	.LANCHOR6
 10299 2b7f 00       		.byte	0
 10300 2b80 19       		.uleb128 0x19
 10301 2b81 5A000000 		.4byte	.LVL112
 10302 2b85 64140000 		.4byte	0x1464
 10303 2b89 00       		.byte	0
 10304 2b8a 14       		.uleb128 0x14
 10305 2b8b 77030000 		.4byte	0x377
 10306 2b8f 9A2B0000 		.4byte	0x2b9a
 10307 2b93 15       		.uleb128 0x15
 10308 2b94 39000000 		.4byte	0x39
 10309 2b98 08       		.byte	0x8
 10310 2b99 00       		.byte	0
 10311 2b9a 11       		.uleb128 0x11
 10312 2b9b 8A2B0000 		.4byte	0x2b8a
 10313 2b9f 27       		.uleb128 0x27
 10314 2ba0 E2030000 		.4byte	.LASF299
 10315 2ba4 E901     		.2byte	0x1e9
 10316 2ba6 01       		.byte	0x1
 10317 2ba7 00000000 		.4byte	.LFB444
 10318 2bab 68000000 		.4byte	.LFE444-.LFB444
 10319 2baf 01       		.uleb128 0x1
 10320 2bb0 9C       		.byte	0x9c
 10321 2bb1 FB2D0000 		.4byte	0x2dfb
 10322 2bb5 32       		.uleb128 0x32
 10323 2bb6 670E0000 		.4byte	.LASF289
 10324 2bba 9A2B0000 		.4byte	0x2b9a
 10325 2bbe 05       		.uleb128 0x5
 10326 2bbf 03       		.byte	0x3
 10327 2bc0 00000000 		.4byte	__func__.4
 10328 2bc4 18       		.uleb128 0x18
 10329 2bc5 832E0000 		.4byte	0x2e83
 10330 2bc9 0A000000 		.4byte	.LBI434
 10331 2bcd 0200     		.2byte	.LVU523
 10332 2bcf 90000000 		.4byte	.LLRL55
 10333 2bd3 ED01     		.2byte	0x1ed
 10334 2bd5 03       		.byte	0x3
 10335 2bd6 A32D0000 		.4byte	0x2da3
 10336 2bda 02       		.uleb128 0x2
 10337 2bdb 912E0000 		.4byte	0x2e91
 10338 2bdf 3D080000 		.4byte	.LLST56
 10339 2be3 39080000 		.4byte	.LVUS56
 10340 2be7 33       		.uleb128 0x33
 10341 2be8 90000000 		.4byte	.LLRL55
 10342 2bec 34       		.uleb128 0x34
ARM GAS  C:\Users\DEVELO~1\AppData\Local\Temp\cc5EUJSb.s 			page 183


 10343 2bed 9E2E0000 		.4byte	0x2e9e
 10344 2bf1 5D080000 		.4byte	.LLST57
 10345 2bf5 57080000 		.4byte	.LVUS57
 10346 2bf9 04       		.uleb128 0x4
 10347 2bfa 832E0000 		.4byte	0x2e83
 10348 2bfe 26000000 		.4byte	.LBI436
 10349 2c02 0000     		.2byte	.LVU545
 10350 2c04 26000000 		.4byte	.LBB436
 10351 2c08 26000000 		.4byte	.LBE436-.LBB436
 10352 2c0c 01       		.byte	0x1
 10353 2c0d 8B01     		.2byte	0x18b
 10354 2c0f 0D       		.byte	0xd
 10355 2c10 02       		.uleb128 0x2
 10356 2c11 912E0000 		.4byte	0x2e91
 10357 2c15 76080000 		.4byte	.LLST58
 10358 2c19 74080000 		.4byte	.LVUS58
 10359 2c1d 35       		.uleb128 0x35
 10360 2c1e 9E2E0000 		.4byte	0x2e9e
 10361 2c22 07       		.uleb128 0x7
 10362 2c23 783A0000 		.4byte	0x3a78
 10363 2c27 36000000 		.4byte	.LBI438
 10364 2c2b 0100     		.2byte	.LVU550
 10365 2c2d 36000000 		.4byte	.LBB438
 10366 2c31 06000000 		.4byte	.LBE438-.LBB438
 10367 2c35 9701     		.2byte	0x197
 10368 2c37 05       		.byte	0x5
 10369 2c38 AA2C0000 		.4byte	0x2caa
 10370 2c3c 04       		.uleb128 0x4
 10371 2c3d A63A0000 		.4byte	0x3aa6
 10372 2c41 36000000 		.4byte	.LBI439
 10373 2c45 0300     		.2byte	.LVU552
 10374 2c47 36000000 		.4byte	.LBB439
 10375 2c4b 06000000 		.4byte	.LBE439-.LBB439
 10376 2c4f 03       		.byte	0x3
 10377 2c50 5502     		.2byte	0x255
 10378 2c52 03       		.byte	0x3
 10379 2c53 04       		.uleb128 0x4
 10380 2c54 B83A0000 		.4byte	0x3ab8
 10381 2c58 36000000 		.4byte	.LBI440
 10382 2c5c 0500     		.2byte	.LVU554
 10383 2c5e 36000000 		.4byte	.LBB440
 10384 2c62 06000000 		.4byte	.LBE440-.LBB440
 10385 2c66 04       		.byte	0x4
 10386 2c67 C501     		.2byte	0x1c5
 10387 2c69 03       		.byte	0x3
 10388 2c6a 04       		.uleb128 0x4
 10389 2c6b CA3A0000 		.4byte	0x3aca
 10390 2c6f 36000000 		.4byte	.LBI441
 10391 2c73 0700     		.2byte	.LVU556
 10392 2c75 36000000 		.4byte	.LBB441
 10393 2c79 06000000 		.4byte	.LBE441-.LBB441
 10394 2c7d 05       		.byte	0x5
 10395 2c7e 6003     		.2byte	0x360
 10396 2c80 03       		.byte	0x3
 10397 2c81 04       		.uleb128 0x4
 10398 2c82 D33A0000 		.4byte	0x3ad3
 10399 2c86 36000000 		.4byte	.LBI442
ARM GAS  C:\Users\DEVELO~1\AppData\Local\Temp\cc5EUJSb.s 			page 184


 10400 2c8a 0900     		.2byte	.LVU558
 10401 2c8c 36000000 		.4byte	.LBB442
 10402 2c90 06000000 		.4byte	.LBE442-.LBB442
 10403 2c94 05       		.byte	0x5
 10404 2c95 3F03     		.2byte	0x33f
 10405 2c97 03       		.byte	0x3
 10406 2c98 02       		.uleb128 0x2
 10407 2c99 E13A0000 		.4byte	0x3ae1
 10408 2c9d 86080000 		.4byte	.LLST59
 10409 2ca1 84080000 		.4byte	.LVUS59
 10410 2ca5 00       		.byte	0
 10411 2ca6 00       		.byte	0
 10412 2ca7 00       		.byte	0
 10413 2ca8 00       		.byte	0
 10414 2ca9 00       		.byte	0
 10415 2caa 07       		.uleb128 0x7
 10416 2cab 463A0000 		.4byte	0x3a46
 10417 2caf 3C000000 		.4byte	.LBI444
 10418 2cb3 0400     		.2byte	.LVU564
 10419 2cb5 3C000000 		.4byte	.LBB444
 10420 2cb9 0A000000 		.4byte	.LBE444-.LBB444
 10421 2cbd 9701     		.2byte	0x197
 10422 2cbf 05       		.byte	0x5
 10423 2cc0 F82C0000 		.4byte	0x2cf8
 10424 2cc4 02       		.uleb128 0x2
 10425 2cc5 613A0000 		.4byte	0x3a61
 10426 2cc9 93080000 		.4byte	.LLST60
 10427 2ccd 91080000 		.4byte	.LVUS60
 10428 2cd1 02       		.uleb128 0x2
 10429 2cd2 543A0000 		.4byte	0x3a54
 10430 2cd6 A0080000 		.4byte	.LLST61
 10431 2cda 9E080000 		.4byte	.LVUS61
 10432 2cde 0E       		.uleb128 0xe
 10433 2cdf 46000000 		.4byte	.LVL96
 10434 2ce3 4D140000 		.4byte	0x144d
 10435 2ce7 01       		.uleb128 0x1
 10436 2ce8 01       		.uleb128 0x1
 10437 2ce9 50       		.byte	0x50
 10438 2cea 05       		.uleb128 0x5
 10439 2ceb 03       		.byte	0x3
 10440 2cec 08000000 		.4byte	.LANCHOR0+8
 10441 2cf0 01       		.uleb128 0x1
 10442 2cf1 01       		.uleb128 0x1
 10443 2cf2 51       		.byte	0x51
 10444 2cf3 02       		.uleb128 0x2
 10445 2cf4 09       		.byte	0x9
 10446 2cf5 ED       		.byte	0xed
 10447 2cf6 00       		.byte	0
 10448 2cf7 00       		.byte	0
 10449 2cf8 07       		.uleb128 0x7
 10450 2cf9 6F3A0000 		.4byte	0x3a6f
 10451 2cfd 46000000 		.4byte	.LBI446
 10452 2d01 0200     		.2byte	.LVU568
 10453 2d03 46000000 		.4byte	.LBB446
 10454 2d07 06000000 		.4byte	.LBE446-.LBB446
 10455 2d0b 9701     		.2byte	0x197
 10456 2d0d 05       		.byte	0x5
ARM GAS  C:\Users\DEVELO~1\AppData\Local\Temp\cc5EUJSb.s 			page 185


 10457 2d0e 802D0000 		.4byte	0x2d80
 10458 2d12 04       		.uleb128 0x4
 10459 2d13 9D3A0000 		.4byte	0x3a9d
 10460 2d17 46000000 		.4byte	.LBI447
 10461 2d1b 0400     		.2byte	.LVU570
 10462 2d1d 46000000 		.4byte	.LBB447
 10463 2d21 06000000 		.4byte	.LBE447-.LBB447
 10464 2d25 03       		.byte	0x3
 10465 2d26 6002     		.2byte	0x260
 10466 2d28 03       		.byte	0x3
 10467 2d29 04       		.uleb128 0x4
 10468 2d2a AF3A0000 		.4byte	0x3aaf
 10469 2d2e 46000000 		.4byte	.LBI448
 10470 2d32 0800     		.2byte	.LVU574
 10471 2d34 46000000 		.4byte	.LBB448
 10472 2d38 06000000 		.4byte	.LBE448-.LBB448
 10473 2d3c 04       		.byte	0x4
 10474 2d3d DD01     		.2byte	0x1dd
 10475 2d3f 03       		.byte	0x3
 10476 2d40 04       		.uleb128 0x4
 10477 2d41 C13A0000 		.4byte	0x3ac1
 10478 2d45 46000000 		.4byte	.LBI449
 10479 2d49 0A00     		.2byte	.LVU576
 10480 2d4b 46000000 		.4byte	.LBB449
 10481 2d4f 06000000 		.4byte	.LBE449-.LBB449
 10482 2d53 05       		.byte	0x5
 10483 2d54 6B03     		.2byte	0x36b
 10484 2d56 03       		.byte	0x3
 10485 2d57 04       		.uleb128 0x4
 10486 2d58 D33A0000 		.4byte	0x3ad3
 10487 2d5c 46000000 		.4byte	.LBI450
 10488 2d60 0C00     		.2byte	.LVU578
 10489 2d62 46000000 		.4byte	.LBB450
 10490 2d66 06000000 		.4byte	.LBE450-.LBB450
 10491 2d6a 05       		.byte	0x5
 10492 2d6b 5203     		.2byte	0x352
 10493 2d6d 03       		.byte	0x3
 10494 2d6e 02       		.uleb128 0x2
 10495 2d6f E13A0000 		.4byte	0x3ae1
 10496 2d73 B0080000 		.4byte	.LLST62
 10497 2d77 AE080000 		.4byte	.LVUS62
 10498 2d7b 00       		.byte	0
 10499 2d7c 00       		.byte	0
 10500 2d7d 00       		.byte	0
 10501 2d7e 00       		.byte	0
 10502 2d7f 00       		.byte	0
 10503 2d80 06       		.uleb128 0x6
 10504 2d81 2C000000 		.4byte	.LVL93
 10505 2d85 81360000 		.4byte	0x3681
 10506 2d89 942D0000 		.4byte	0x2d94
 10507 2d8d 01       		.uleb128 0x1
 10508 2d8e 01       		.uleb128 0x1
 10509 2d8f 50       		.byte	0x50
 10510 2d90 02       		.uleb128 0x2
 10511 2d91 74       		.byte	0x74
 10512 2d92 00       		.sleb128 0
 10513 2d93 00       		.byte	0
ARM GAS  C:\Users\DEVELO~1\AppData\Local\Temp\cc5EUJSb.s 			page 186


 10514 2d94 20       		.uleb128 0x20
 10515 2d95 36000000 		.4byte	.LVL94
 10516 2d99 01       		.uleb128 0x1
 10517 2d9a 01       		.uleb128 0x1
 10518 2d9b 50       		.byte	0x50
 10519 2d9c 02       		.uleb128 0x2
 10520 2d9d 74       		.byte	0x74
 10521 2d9e 00       		.sleb128 0
 10522 2d9f 00       		.byte	0
 10523 2da0 00       		.byte	0
 10524 2da1 00       		.byte	0
 10525 2da2 00       		.byte	0
 10526 2da3 06       		.uleb128 0x6
 10527 2da4 0A000000 		.4byte	.LVL87
 10528 2da8 7E140000 		.4byte	0x147e
 10529 2dac BA2D0000 		.4byte	0x2dba
 10530 2db0 01       		.uleb128 0x1
 10531 2db1 01       		.uleb128 0x1
 10532 2db2 50       		.byte	0x50
 10533 2db3 05       		.uleb128 0x5
 10534 2db4 03       		.byte	0x3
 10535 2db5 00000000 		.4byte	.LANCHOR5
 10536 2db9 00       		.byte	0
 10537 2dba 06       		.uleb128 0x6
 10538 2dbb 1E000000 		.4byte	.LVL91
 10539 2dbf 6D140000 		.4byte	0x146d
 10540 2dc3 D12D0000 		.4byte	0x2dd1
 10541 2dc7 01       		.uleb128 0x1
 10542 2dc8 01       		.uleb128 0x1
 10543 2dc9 50       		.byte	0x50
 10544 2dca 05       		.uleb128 0x5
 10545 2dcb 03       		.byte	0x3
 10546 2dcc 00000000 		.4byte	.LANCHOR5
 10547 2dd0 00       		.byte	0
 10548 2dd1 19       		.uleb128 0x19
 10549 2dd2 26000000 		.4byte	.LVL92
 10550 2dd6 64140000 		.4byte	0x1464
 10551 2dda 06       		.uleb128 0x6
 10552 2ddb 52000000 		.4byte	.LVL98
 10553 2ddf 6D140000 		.4byte	0x146d
 10554 2de3 F12D0000 		.4byte	0x2df1
 10555 2de7 01       		.uleb128 0x1
 10556 2de8 01       		.uleb128 0x1
 10557 2de9 50       		.byte	0x50
 10558 2dea 05       		.uleb128 0x5
 10559 2deb 03       		.byte	0x3
 10560 2dec 00000000 		.4byte	.LANCHOR5
 10561 2df0 00       		.byte	0
 10562 2df1 19       		.uleb128 0x19
 10563 2df2 5A000000 		.4byte	.LVL99
 10564 2df6 64140000 		.4byte	0x1464
 10565 2dfa 00       		.byte	0
 10566 2dfb 44       		.uleb128 0x44
 10567 2dfc F2050000 		.4byte	.LASF303
 10568 2e00 C501     		.2byte	0x1c5
 10569 2e02 5F010000 		.4byte	0x15f
 10570 2e06 3F2E0000 		.4byte	0x2e3f
ARM GAS  C:\Users\DEVELO~1\AppData\Local\Temp\cc5EUJSb.s 			page 187


 10571 2e0a 0C       		.uleb128 0xc
 10572 2e0b 4C0F0000 		.4byte	.LASF274
 10573 2e0f 01       		.byte	0x1
 10574 2e10 C501     		.2byte	0x1c5
 10575 2e12 2A       		.byte	0x2a
 10576 2e13 AB120000 		.4byte	0x12ab
 10577 2e17 0C       		.uleb128 0xc
 10578 2e18 32030000 		.4byte	.LASF300
 10579 2e1c 01       		.byte	0x1
 10580 2e1d C501     		.2byte	0x1c5
 10581 2e1f 39       		.byte	0x39
 10582 2e20 E9000000 		.4byte	0xe9
 10583 2e24 0C       		.uleb128 0xc
 10584 2e25 D10E0000 		.4byte	.LASF301
 10585 2e29 01       		.byte	0x1
 10586 2e2a C601     		.2byte	0x1c6
 10587 2e2c 28       		.byte	0x28
 10588 2e2d E9000000 		.4byte	0xe9
 10589 2e31 0C       		.uleb128 0xc
 10590 2e32 AA0A0000 		.4byte	.LASF302
 10591 2e36 01       		.byte	0x1
 10592 2e37 C601     		.2byte	0x1c6
 10593 2e39 3B       		.byte	0x3b
 10594 2e3a E9000000 		.4byte	0xe9
 10595 2e3e 00       		.byte	0
 10596 2e3f 44       		.uleb128 0x44
 10597 2e40 D5050000 		.4byte	.LASF304
 10598 2e44 A501     		.2byte	0x1a5
 10599 2e46 5F010000 		.4byte	0x15f
 10600 2e4a 832E0000 		.4byte	0x2e83
 10601 2e4e 0C       		.uleb128 0xc
 10602 2e4f 4C0F0000 		.4byte	.LASF274
 10603 2e53 01       		.byte	0x1
 10604 2e54 A501     		.2byte	0x1a5
 10605 2e56 29       		.byte	0x29
 10606 2e57 AB120000 		.4byte	0x12ab
 10607 2e5b 0C       		.uleb128 0xc
 10608 2e5c 32030000 		.4byte	.LASF300
 10609 2e60 01       		.byte	0x1
 10610 2e61 A501     		.2byte	0x1a5
 10611 2e63 38       		.byte	0x38
 10612 2e64 E9000000 		.4byte	0xe9
 10613 2e68 0C       		.uleb128 0xc
 10614 2e69 D10E0000 		.4byte	.LASF301
 10615 2e6d 01       		.byte	0x1
 10616 2e6e A601     		.2byte	0x1a6
 10617 2e70 27       		.byte	0x27
 10618 2e71 E9000000 		.4byte	0xe9
 10619 2e75 0C       		.uleb128 0xc
 10620 2e76 AA0A0000 		.4byte	.LASF302
 10621 2e7a 01       		.byte	0x1
 10622 2e7b A601     		.2byte	0x1a6
 10623 2e7d 3A       		.byte	0x3a
 10624 2e7e E9000000 		.4byte	0xe9
 10625 2e82 00       		.byte	0
 10626 2e83 16       		.uleb128 0x16
 10627 2e84 9C0B0000 		.4byte	.LASF305
ARM GAS  C:\Users\DEVELO~1\AppData\Local\Temp\cc5EUJSb.s 			page 188


 10628 2e88 01       		.byte	0x1
 10629 2e89 8B01     		.2byte	0x18b
 10630 2e8b 0D       		.byte	0xd
 10631 2e8c 01       		.byte	0x1
 10632 2e8d AB2E0000 		.4byte	0x2eab
 10633 2e91 0C       		.uleb128 0xc
 10634 2e92 4C0F0000 		.4byte	.LASF274
 10635 2e96 01       		.byte	0x1
 10636 2e97 8B01     		.2byte	0x18b
 10637 2e99 30       		.byte	0x30
 10638 2e9a AB120000 		.4byte	0x12ab
 10639 2e9e 53       		.uleb128 0x53
 10640 2e9f 737200   		.ascii	"sr\000"
 10641 2ea2 01       		.byte	0x1
 10642 2ea3 8C01     		.2byte	0x18c
 10643 2ea5 0C       		.byte	0xc
 10644 2ea6 E9000000 		.4byte	0xe9
 10645 2eaa 00       		.byte	0
 10646 2eab 16       		.uleb128 0x16
 10647 2eac 2D0F0000 		.4byte	.LASF306
 10648 2eb0 01       		.byte	0x1
 10649 2eb1 7501     		.2byte	0x175
 10650 2eb3 0D       		.byte	0xd
 10651 2eb4 01       		.byte	0x1
 10652 2eb5 D42E0000 		.4byte	0x2ed4
 10653 2eb9 0C       		.uleb128 0xc
 10654 2eba 4C0F0000 		.4byte	.LASF274
 10655 2ebe 01       		.byte	0x1
 10656 2ebf 7501     		.2byte	0x175
 10657 2ec1 37       		.byte	0x37
 10658 2ec2 AB120000 		.4byte	0x12ab
 10659 2ec6 0C       		.uleb128 0xc
 10660 2ec7 A4000000 		.4byte	.LASF38
 10661 2ecb 01       		.byte	0x1
 10662 2ecc 7501     		.2byte	0x175
 10663 2ece 46       		.byte	0x46
 10664 2ecf E9000000 		.4byte	0xe9
 10665 2ed3 00       		.byte	0
 10666 2ed4 45       		.uleb128 0x45
 10667 2ed5 5F030000 		.4byte	.LASF308
 10668 2ed9 4D01     		.2byte	0x14d
 10669 2edb 00000000 		.4byte	.LFB439
 10670 2edf A8000000 		.4byte	.LFE439-.LFB439
 10671 2ee3 01       		.uleb128 0x1
 10672 2ee4 9C       		.byte	0x9c
 10673 2ee5 66320000 		.4byte	0x3266
 10674 2ee9 0D       		.uleb128 0xd
 10675 2eea 4C0F0000 		.4byte	.LASF274
 10676 2eee 4D01     		.2byte	0x14d
 10677 2ef0 37       		.byte	0x37
 10678 2ef1 AB120000 		.4byte	0x12ab
 10679 2ef5 C2080000 		.4byte	.LLST33
 10680 2ef9 BA080000 		.4byte	.LVUS33
 10681 2efd 0D       		.uleb128 0xd
 10682 2efe A4000000 		.4byte	.LASF38
 10683 2f02 4D01     		.2byte	0x14d
 10684 2f04 46       		.byte	0x46
ARM GAS  C:\Users\DEVELO~1\AppData\Local\Temp\cc5EUJSb.s 			page 189


 10685 2f05 E9000000 		.4byte	0xe9
 10686 2f09 E5080000 		.4byte	.LLST34
 10687 2f0d DD080000 		.4byte	.LVUS34
 10688 2f11 07       		.uleb128 0x7
 10689 2f12 783A0000 		.4byte	0x3a78
 10690 2f16 50000000 		.4byte	.LBI351
 10691 2f1a 0100     		.2byte	.LVU319
 10692 2f1c 50000000 		.4byte	.LBB351
 10693 2f20 06000000 		.4byte	.LBE351-.LBB351
 10694 2f24 6B01     		.2byte	0x16b
 10695 2f26 05       		.byte	0x5
 10696 2f27 992F0000 		.4byte	0x2f99
 10697 2f2b 04       		.uleb128 0x4
 10698 2f2c A63A0000 		.4byte	0x3aa6
 10699 2f30 50000000 		.4byte	.LBI352
 10700 2f34 0300     		.2byte	.LVU321
 10701 2f36 50000000 		.4byte	.LBB352
 10702 2f3a 06000000 		.4byte	.LBE352-.LBB352
 10703 2f3e 03       		.byte	0x3
 10704 2f3f 5502     		.2byte	0x255
 10705 2f41 03       		.byte	0x3
 10706 2f42 04       		.uleb128 0x4
 10707 2f43 B83A0000 		.4byte	0x3ab8
 10708 2f47 50000000 		.4byte	.LBI353
 10709 2f4b 0500     		.2byte	.LVU323
 10710 2f4d 50000000 		.4byte	.LBB353
 10711 2f51 06000000 		.4byte	.LBE353-.LBB353
 10712 2f55 04       		.byte	0x4
 10713 2f56 C501     		.2byte	0x1c5
 10714 2f58 03       		.byte	0x3
 10715 2f59 04       		.uleb128 0x4
 10716 2f5a CA3A0000 		.4byte	0x3aca
 10717 2f5e 50000000 		.4byte	.LBI354
 10718 2f62 0700     		.2byte	.LVU325
 10719 2f64 50000000 		.4byte	.LBB354
 10720 2f68 06000000 		.4byte	.LBE354-.LBB354
 10721 2f6c 05       		.byte	0x5
 10722 2f6d 6003     		.2byte	0x360
 10723 2f6f 03       		.byte	0x3
 10724 2f70 04       		.uleb128 0x4
 10725 2f71 D33A0000 		.4byte	0x3ad3
 10726 2f75 50000000 		.4byte	.LBI355
 10727 2f79 0900     		.2byte	.LVU327
 10728 2f7b 50000000 		.4byte	.LBB355
 10729 2f7f 06000000 		.4byte	.LBE355-.LBB355
 10730 2f83 05       		.byte	0x5
 10731 2f84 3F03     		.2byte	0x33f
 10732 2f86 03       		.byte	0x3
 10733 2f87 02       		.uleb128 0x2
 10734 2f88 E13A0000 		.4byte	0x3ae1
 10735 2f8c 02090000 		.4byte	.LLST35
 10736 2f90 00090000 		.4byte	.LVUS35
 10737 2f94 00       		.byte	0
 10738 2f95 00       		.byte	0
 10739 2f96 00       		.byte	0
 10740 2f97 00       		.byte	0
 10741 2f98 00       		.byte	0
ARM GAS  C:\Users\DEVELO~1\AppData\Local\Temp\cc5EUJSb.s 			page 190


 10742 2f99 07       		.uleb128 0x7
 10743 2f9a 463A0000 		.4byte	0x3a46
 10744 2f9e 56000000 		.4byte	.LBI357
 10745 2fa2 0400     		.2byte	.LVU333
 10746 2fa4 56000000 		.4byte	.LBB357
 10747 2fa8 0A000000 		.4byte	.LBE357-.LBB357
 10748 2fac 6B01     		.2byte	0x16b
 10749 2fae 05       		.byte	0x5
 10750 2faf E32F0000 		.4byte	0x2fe3
 10751 2fb3 02       		.uleb128 0x2
 10752 2fb4 613A0000 		.4byte	0x3a61
 10753 2fb8 0F090000 		.4byte	.LLST36
 10754 2fbc 0D090000 		.4byte	.LVUS36
 10755 2fc0 02       		.uleb128 0x2
 10756 2fc1 543A0000 		.4byte	0x3a54
 10757 2fc5 1F090000 		.4byte	.LLST37
 10758 2fc9 19090000 		.4byte	.LVUS37
 10759 2fcd 0E       		.uleb128 0xe
 10760 2fce 60000000 		.4byte	.LVL52
 10761 2fd2 4D140000 		.4byte	0x144d
 10762 2fd6 01       		.uleb128 0x1
 10763 2fd7 01       		.uleb128 0x1
 10764 2fd8 50       		.byte	0x50
 10765 2fd9 02       		.uleb128 0x2
 10766 2fda 74       		.byte	0x74
 10767 2fdb 08       		.sleb128 8
 10768 2fdc 01       		.uleb128 0x1
 10769 2fdd 01       		.uleb128 0x1
 10770 2fde 51       		.byte	0x51
 10771 2fdf 01       		.uleb128 0x1
 10772 2fe0 30       		.byte	0x30
 10773 2fe1 00       		.byte	0
 10774 2fe2 00       		.byte	0
 10775 2fe3 07       		.uleb128 0x7
 10776 2fe4 6F3A0000 		.4byte	0x3a6f
 10777 2fe8 60000000 		.4byte	.LBI359
 10778 2fec 0200     		.2byte	.LVU338
 10779 2fee 60000000 		.4byte	.LBB359
 10780 2ff2 06000000 		.4byte	.LBE359-.LBB359
 10781 2ff6 6B01     		.2byte	0x16b
 10782 2ff8 05       		.byte	0x5
 10783 2ff9 6B300000 		.4byte	0x306b
 10784 2ffd 04       		.uleb128 0x4
 10785 2ffe 9D3A0000 		.4byte	0x3a9d
 10786 3002 60000000 		.4byte	.LBI361
 10787 3006 0400     		.2byte	.LVU340
 10788 3008 60000000 		.4byte	.LBB361
 10789 300c 06000000 		.4byte	.LBE361-.LBB361
 10790 3010 03       		.byte	0x3
 10791 3011 6002     		.2byte	0x260
 10792 3013 03       		.byte	0x3
 10793 3014 04       		.uleb128 0x4
 10794 3015 AF3A0000 		.4byte	0x3aaf
 10795 3019 60000000 		.4byte	.LBI362
 10796 301d 0800     		.2byte	.LVU344
 10797 301f 60000000 		.4byte	.LBB362
 10798 3023 06000000 		.4byte	.LBE362-.LBB362
ARM GAS  C:\Users\DEVELO~1\AppData\Local\Temp\cc5EUJSb.s 			page 191


 10799 3027 04       		.byte	0x4
 10800 3028 DD01     		.2byte	0x1dd
 10801 302a 03       		.byte	0x3
 10802 302b 04       		.uleb128 0x4
 10803 302c C13A0000 		.4byte	0x3ac1
 10804 3030 60000000 		.4byte	.LBI363
 10805 3034 0A00     		.2byte	.LVU346
 10806 3036 60000000 		.4byte	.LBB363
 10807 303a 06000000 		.4byte	.LBE363-.LBB363
 10808 303e 05       		.byte	0x5
 10809 303f 6B03     		.2byte	0x36b
 10810 3041 03       		.byte	0x3
 10811 3042 04       		.uleb128 0x4
 10812 3043 D33A0000 		.4byte	0x3ad3
 10813 3047 60000000 		.4byte	.LBI364
 10814 304b 0C00     		.2byte	.LVU348
 10815 304d 60000000 		.4byte	.LBB364
 10816 3051 06000000 		.4byte	.LBE364-.LBB364
 10817 3055 05       		.byte	0x5
 10818 3056 5203     		.2byte	0x352
 10819 3058 03       		.byte	0x3
 10820 3059 02       		.uleb128 0x2
 10821 305a E13A0000 		.4byte	0x3ae1
 10822 305e 3A090000 		.4byte	.LLST38
 10823 3062 38090000 		.4byte	.LVUS38
 10824 3066 00       		.byte	0
 10825 3067 00       		.byte	0
 10826 3068 00       		.byte	0
 10827 3069 00       		.byte	0
 10828 306a 00       		.byte	0
 10829 306b 07       		.uleb128 0x7
 10830 306c 813A0000 		.4byte	0x3a81
 10831 3070 68000000 		.4byte	.LBI366
 10832 3074 0100     		.2byte	.LVU355
 10833 3076 68000000 		.4byte	.LBB366
 10834 307a 06000000 		.4byte	.LBE366-.LBB366
 10835 307e 5201     		.2byte	0x152
 10836 3080 05       		.byte	0x5
 10837 3081 A6300000 		.4byte	0x30a6
 10838 3085 02       		.uleb128 0x2
 10839 3086 8F3A0000 		.4byte	0x3a8f
 10840 308a 46090000 		.4byte	.LLST39
 10841 308e 44090000 		.4byte	.LVUS39
 10842 3092 0E       		.uleb128 0xe
 10843 3093 6E000000 		.4byte	.LVL56
 10844 3097 AE130000 		.4byte	0x13ae
 10845 309b 01       		.uleb128 0x1
 10846 309c 01       		.uleb128 0x1
 10847 309d 50       		.byte	0x50
 10848 309e 05       		.uleb128 0x5
 10849 309f 03       		.byte	0x3
 10850 30a0 00000000 		.4byte	.LC0
 10851 30a4 00       		.byte	0
 10852 30a5 00       		.byte	0
 10853 30a6 07       		.uleb128 0x7
 10854 30a7 783A0000 		.4byte	0x3a78
 10855 30ab 7E000000 		.4byte	.LBI368
ARM GAS  C:\Users\DEVELO~1\AppData\Local\Temp\cc5EUJSb.s 			page 192


 10856 30af 0100     		.2byte	.LVU363
 10857 30b1 7E000000 		.4byte	.LBB368
 10858 30b5 06000000 		.4byte	.LBE368-.LBB368
 10859 30b9 5901     		.2byte	0x159
 10860 30bb 05       		.byte	0x5
 10861 30bc 2E310000 		.4byte	0x312e
 10862 30c0 04       		.uleb128 0x4
 10863 30c1 A63A0000 		.4byte	0x3aa6
 10864 30c5 7E000000 		.4byte	.LBI369
 10865 30c9 0300     		.2byte	.LVU365
 10866 30cb 7E000000 		.4byte	.LBB369
 10867 30cf 06000000 		.4byte	.LBE369-.LBB369
 10868 30d3 03       		.byte	0x3
 10869 30d4 5502     		.2byte	0x255
 10870 30d6 03       		.byte	0x3
 10871 30d7 04       		.uleb128 0x4
 10872 30d8 B83A0000 		.4byte	0x3ab8
 10873 30dc 7E000000 		.4byte	.LBI370
 10874 30e0 0500     		.2byte	.LVU367
 10875 30e2 7E000000 		.4byte	.LBB370
 10876 30e6 06000000 		.4byte	.LBE370-.LBB370
 10877 30ea 04       		.byte	0x4
 10878 30eb C501     		.2byte	0x1c5
 10879 30ed 03       		.byte	0x3
 10880 30ee 04       		.uleb128 0x4
 10881 30ef CA3A0000 		.4byte	0x3aca
 10882 30f3 7E000000 		.4byte	.LBI371
 10883 30f7 0700     		.2byte	.LVU369
 10884 30f9 7E000000 		.4byte	.LBB371
 10885 30fd 06000000 		.4byte	.LBE371-.LBB371
 10886 3101 05       		.byte	0x5
 10887 3102 6003     		.2byte	0x360
 10888 3104 03       		.byte	0x3
 10889 3105 04       		.uleb128 0x4
 10890 3106 D33A0000 		.4byte	0x3ad3
 10891 310a 7E000000 		.4byte	.LBI372
 10892 310e 0900     		.2byte	.LVU371
 10893 3110 7E000000 		.4byte	.LBB372
 10894 3114 06000000 		.4byte	.LBE372-.LBB372
 10895 3118 05       		.byte	0x5
 10896 3119 3F03     		.2byte	0x33f
 10897 311b 03       		.byte	0x3
 10898 311c 02       		.uleb128 0x2
 10899 311d E13A0000 		.4byte	0x3ae1
 10900 3121 56090000 		.4byte	.LLST40
 10901 3125 54090000 		.4byte	.LVUS40
 10902 3129 00       		.byte	0
 10903 312a 00       		.byte	0
 10904 312b 00       		.byte	0
 10905 312c 00       		.byte	0
 10906 312d 00       		.byte	0
 10907 312e 07       		.uleb128 0x7
 10908 312f 463A0000 		.4byte	0x3a46
 10909 3133 84000000 		.4byte	.LBI374
 10910 3137 0400     		.2byte	.LVU377
 10911 3139 84000000 		.4byte	.LBB374
 10912 313d 0C000000 		.4byte	.LBE374-.LBB374
ARM GAS  C:\Users\DEVELO~1\AppData\Local\Temp\cc5EUJSb.s 			page 193


 10913 3141 5901     		.2byte	0x159
 10914 3143 05       		.byte	0x5
 10915 3144 79310000 		.4byte	0x3179
 10916 3148 02       		.uleb128 0x2
 10917 3149 613A0000 		.4byte	0x3a61
 10918 314d 63090000 		.4byte	.LLST41
 10919 3151 61090000 		.4byte	.LVUS41
 10920 3155 02       		.uleb128 0x2
 10921 3156 543A0000 		.4byte	0x3a54
 10922 315a 74090000 		.4byte	.LLST42
 10923 315e 6E090000 		.4byte	.LVUS42
 10924 3162 0E       		.uleb128 0xe
 10925 3163 90000000 		.4byte	.LVL61
 10926 3167 4D140000 		.4byte	0x144d
 10927 316b 01       		.uleb128 0x1
 10928 316c 01       		.uleb128 0x1
 10929 316d 50       		.byte	0x50
 10930 316e 02       		.uleb128 0x2
 10931 316f 74       		.byte	0x74
 10932 3170 08       		.sleb128 8
 10933 3171 01       		.uleb128 0x1
 10934 3172 01       		.uleb128 0x1
 10935 3173 51       		.byte	0x51
 10936 3174 02       		.uleb128 0x2
 10937 3175 09       		.byte	0x9
 10938 3176 ED       		.byte	0xed
 10939 3177 00       		.byte	0
 10940 3178 00       		.byte	0
 10941 3179 07       		.uleb128 0x7
 10942 317a 6F3A0000 		.4byte	0x3a6f
 10943 317e 90000000 		.4byte	.LBI376
 10944 3182 0200     		.2byte	.LVU382
 10945 3184 90000000 		.4byte	.LBB376
 10946 3188 08000000 		.4byte	.LBE376-.LBB376
 10947 318c 5901     		.2byte	0x159
 10948 318e 05       		.byte	0x5
 10949 318f 01320000 		.4byte	0x3201
 10950 3193 04       		.uleb128 0x4
 10951 3194 9D3A0000 		.4byte	0x3a9d
 10952 3198 90000000 		.4byte	.LBI378
 10953 319c 0400     		.2byte	.LVU384
 10954 319e 90000000 		.4byte	.LBB378
 10955 31a2 06000000 		.4byte	.LBE378-.LBB378
 10956 31a6 03       		.byte	0x3
 10957 31a7 6002     		.2byte	0x260
 10958 31a9 03       		.byte	0x3
 10959 31aa 04       		.uleb128 0x4
 10960 31ab AF3A0000 		.4byte	0x3aaf
 10961 31af 90000000 		.4byte	.LBI379
 10962 31b3 0800     		.2byte	.LVU388
 10963 31b5 90000000 		.4byte	.LBB379
 10964 31b9 06000000 		.4byte	.LBE379-.LBB379
 10965 31bd 04       		.byte	0x4
 10966 31be DD01     		.2byte	0x1dd
 10967 31c0 03       		.byte	0x3
 10968 31c1 04       		.uleb128 0x4
 10969 31c2 C13A0000 		.4byte	0x3ac1
ARM GAS  C:\Users\DEVELO~1\AppData\Local\Temp\cc5EUJSb.s 			page 194


 10970 31c6 90000000 		.4byte	.LBI380
 10971 31ca 0A00     		.2byte	.LVU390
 10972 31cc 90000000 		.4byte	.LBB380
 10973 31d0 06000000 		.4byte	.LBE380-.LBB380
 10974 31d4 05       		.byte	0x5
 10975 31d5 6B03     		.2byte	0x36b
 10976 31d7 03       		.byte	0x3
 10977 31d8 04       		.uleb128 0x4
 10978 31d9 D33A0000 		.4byte	0x3ad3
 10979 31dd 90000000 		.4byte	.LBI381
 10980 31e1 0C00     		.2byte	.LVU392
 10981 31e3 90000000 		.4byte	.LBB381
 10982 31e7 06000000 		.4byte	.LBE381-.LBB381
 10983 31eb 05       		.byte	0x5
 10984 31ec 5203     		.2byte	0x352
 10985 31ee 03       		.byte	0x3
 10986 31ef 02       		.uleb128 0x2
 10987 31f0 E13A0000 		.4byte	0x3ae1
 10988 31f4 8F090000 		.4byte	.LLST43
 10989 31f8 8D090000 		.4byte	.LVUS43
 10990 31fc 00       		.byte	0
 10991 31fd 00       		.byte	0
 10992 31fe 00       		.byte	0
 10993 31ff 00       		.byte	0
 10994 3200 00       		.byte	0
 10995 3201 2E       		.uleb128 0x2e
 10996 3202 1E000000 		.4byte	.LVL44
 10997 3206 11320000 		.4byte	0x3211
 10998 320a 01       		.uleb128 0x1
 10999 320b 01       		.uleb128 0x1
 11000 320c 50       		.byte	0x50
 11001 320d 02       		.uleb128 0x2
 11002 320e 74       		.byte	0x74
 11003 320f 00       		.sleb128 0
 11004 3210 00       		.byte	0
 11005 3211 2E       		.uleb128 0x2e
 11006 3212 30000000 		.4byte	.LVL45
 11007 3216 21320000 		.4byte	0x3221
 11008 321a 01       		.uleb128 0x1
 11009 321b 01       		.uleb128 0x1
 11010 321c 50       		.byte	0x50
 11011 321d 02       		.uleb128 0x2
 11012 321e 74       		.byte	0x74
 11013 321f 00       		.sleb128 0
 11014 3220 00       		.byte	0
 11015 3221 06       		.uleb128 0x6
 11016 3222 3E000000 		.4byte	.LVL47
 11017 3226 21360000 		.4byte	0x3621
 11018 322a 35320000 		.4byte	0x3235
 11019 322e 01       		.uleb128 0x1
 11020 322f 01       		.uleb128 0x1
 11021 3230 50       		.byte	0x50
 11022 3231 02       		.uleb128 0x2
 11023 3232 74       		.byte	0x74
 11024 3233 00       		.sleb128 0
 11025 3234 00       		.byte	0
 11026 3235 2E       		.uleb128 0x2e
ARM GAS  C:\Users\DEVELO~1\AppData\Local\Temp\cc5EUJSb.s 			page 195


 11027 3236 4A000000 		.4byte	.LVL48
 11028 323a 45320000 		.4byte	0x3245
 11029 323e 01       		.uleb128 0x1
 11030 323f 01       		.uleb128 0x1
 11031 3240 50       		.byte	0x50
 11032 3241 02       		.uleb128 0x2
 11033 3242 74       		.byte	0x74
 11034 3243 00       		.sleb128 0
 11035 3244 00       		.byte	0
 11036 3245 06       		.uleb128 0x6
 11037 3246 74000000 		.4byte	.LVL57
 11038 324a 81360000 		.4byte	0x3681
 11039 324e 59320000 		.4byte	0x3259
 11040 3252 01       		.uleb128 0x1
 11041 3253 01       		.uleb128 0x1
 11042 3254 50       		.byte	0x50
 11043 3255 02       		.uleb128 0x2
 11044 3256 74       		.byte	0x74
 11045 3257 00       		.sleb128 0
 11046 3258 00       		.byte	0
 11047 3259 20       		.uleb128 0x20
 11048 325a 7E000000 		.4byte	.LVL58
 11049 325e 01       		.uleb128 0x1
 11050 325f 01       		.uleb128 0x1
 11051 3260 50       		.byte	0x50
 11052 3261 02       		.uleb128 0x2
 11053 3262 74       		.byte	0x74
 11054 3263 00       		.sleb128 0
 11055 3264 00       		.byte	0
 11056 3265 00       		.byte	0
 11057 3266 16       		.uleb128 0x16
 11058 3267 5E010000 		.4byte	.LASF307
 11059 326b 01       		.byte	0x1
 11060 326c 3501     		.2byte	0x135
 11061 326e 0D       		.byte	0xd
 11062 326f 01       		.byte	0x1
 11063 3270 8F320000 		.4byte	0x328f
 11064 3274 0C       		.uleb128 0xc
 11065 3275 4C0F0000 		.4byte	.LASF274
 11066 3279 01       		.byte	0x1
 11067 327a 3501     		.2byte	0x135
 11068 327c 38       		.byte	0x38
 11069 327d AB120000 		.4byte	0x12ab
 11070 3281 0C       		.uleb128 0xc
 11071 3282 A4000000 		.4byte	.LASF38
 11072 3286 01       		.byte	0x1
 11073 3287 3501     		.2byte	0x135
 11074 3289 47       		.byte	0x47
 11075 328a E9000000 		.4byte	0xe9
 11076 328e 00       		.byte	0
 11077 328f 45       		.uleb128 0x45
 11078 3290 A2070000 		.4byte	.LASF309
 11079 3294 0D01     		.2byte	0x10d
 11080 3296 00000000 		.4byte	.LFB437
 11081 329a A8000000 		.4byte	.LFE437-.LFB437
 11082 329e 01       		.uleb128 0x1
 11083 329f 9C       		.byte	0x9c
ARM GAS  C:\Users\DEVELO~1\AppData\Local\Temp\cc5EUJSb.s 			page 196


 11084 32a0 21360000 		.4byte	0x3621
 11085 32a4 0D       		.uleb128 0xd
 11086 32a5 4C0F0000 		.4byte	.LASF274
 11087 32a9 0D01     		.2byte	0x10d
 11088 32ab 38       		.byte	0x38
 11089 32ac AB120000 		.4byte	0x12ab
 11090 32b0 A1090000 		.4byte	.LLST44
 11091 32b4 99090000 		.4byte	.LVUS44
 11092 32b8 0D       		.uleb128 0xd
 11093 32b9 A4000000 		.4byte	.LASF38
 11094 32bd 0D01     		.2byte	0x10d
 11095 32bf 47       		.byte	0x47
 11096 32c0 E9000000 		.4byte	0xe9
 11097 32c4 C0090000 		.4byte	.LLST45
 11098 32c8 BC090000 		.4byte	.LVUS45
 11099 32cc 07       		.uleb128 0x7
 11100 32cd 783A0000 		.4byte	0x3a78
 11101 32d1 4E000000 		.4byte	.LBI383
 11102 32d5 0100     		.2byte	.LVU431
 11103 32d7 4E000000 		.4byte	.LBB383
 11104 32db 06000000 		.4byte	.LBE383-.LBB383
 11105 32df 2B01     		.2byte	0x12b
 11106 32e1 05       		.byte	0x5
 11107 32e2 54330000 		.4byte	0x3354
 11108 32e6 04       		.uleb128 0x4
 11109 32e7 A63A0000 		.4byte	0x3aa6
 11110 32eb 4E000000 		.4byte	.LBI384
 11111 32ef 0300     		.2byte	.LVU433
 11112 32f1 4E000000 		.4byte	.LBB384
 11113 32f5 06000000 		.4byte	.LBE384-.LBB384
 11114 32f9 03       		.byte	0x3
 11115 32fa 5502     		.2byte	0x255
 11116 32fc 03       		.byte	0x3
 11117 32fd 04       		.uleb128 0x4
 11118 32fe B83A0000 		.4byte	0x3ab8
 11119 3302 4E000000 		.4byte	.LBI385
 11120 3306 0500     		.2byte	.LVU435
 11121 3308 4E000000 		.4byte	.LBB385
 11122 330c 06000000 		.4byte	.LBE385-.LBB385
 11123 3310 04       		.byte	0x4
 11124 3311 C501     		.2byte	0x1c5
 11125 3313 03       		.byte	0x3
 11126 3314 04       		.uleb128 0x4
 11127 3315 CA3A0000 		.4byte	0x3aca
 11128 3319 4E000000 		.4byte	.LBI386
 11129 331d 0700     		.2byte	.LVU437
 11130 331f 4E000000 		.4byte	.LBB386
 11131 3323 06000000 		.4byte	.LBE386-.LBB386
 11132 3327 05       		.byte	0x5
 11133 3328 6003     		.2byte	0x360
 11134 332a 03       		.byte	0x3
 11135 332b 04       		.uleb128 0x4
 11136 332c D33A0000 		.4byte	0x3ad3
 11137 3330 4E000000 		.4byte	.LBI387
 11138 3334 0900     		.2byte	.LVU439
 11139 3336 4E000000 		.4byte	.LBB387
 11140 333a 06000000 		.4byte	.LBE387-.LBB387
ARM GAS  C:\Users\DEVELO~1\AppData\Local\Temp\cc5EUJSb.s 			page 197


 11141 333e 05       		.byte	0x5
 11142 333f 3F03     		.2byte	0x33f
 11143 3341 03       		.byte	0x3
 11144 3342 02       		.uleb128 0x2
 11145 3343 E13A0000 		.4byte	0x3ae1
 11146 3347 D3090000 		.4byte	.LLST46
 11147 334b D1090000 		.4byte	.LVUS46
 11148 334f 00       		.byte	0
 11149 3350 00       		.byte	0
 11150 3351 00       		.byte	0
 11151 3352 00       		.byte	0
 11152 3353 00       		.byte	0
 11153 3354 07       		.uleb128 0x7
 11154 3355 463A0000 		.4byte	0x3a46
 11155 3359 54000000 		.4byte	.LBI389
 11156 335d 0400     		.2byte	.LVU445
 11157 335f 54000000 		.4byte	.LBB389
 11158 3363 0A000000 		.4byte	.LBE389-.LBB389
 11159 3367 2B01     		.2byte	0x12b
 11160 3369 05       		.byte	0x5
 11161 336a 9E330000 		.4byte	0x339e
 11162 336e 02       		.uleb128 0x2
 11163 336f 613A0000 		.4byte	0x3a61
 11164 3373 E0090000 		.4byte	.LLST47
 11165 3377 DE090000 		.4byte	.LVUS47
 11166 337b 02       		.uleb128 0x2
 11167 337c 543A0000 		.4byte	0x3a54
 11168 3380 F0090000 		.4byte	.LLST48
 11169 3384 EA090000 		.4byte	.LVUS48
 11170 3388 0E       		.uleb128 0xe
 11171 3389 5E000000 		.4byte	.LVL75
 11172 338d 4D140000 		.4byte	0x144d
 11173 3391 01       		.uleb128 0x1
 11174 3392 01       		.uleb128 0x1
 11175 3393 50       		.byte	0x50
 11176 3394 02       		.uleb128 0x2
 11177 3395 74       		.byte	0x74
 11178 3396 08       		.sleb128 8
 11179 3397 01       		.uleb128 0x1
 11180 3398 01       		.uleb128 0x1
 11181 3399 51       		.byte	0x51
 11182 339a 01       		.uleb128 0x1
 11183 339b 30       		.byte	0x30
 11184 339c 00       		.byte	0
 11185 339d 00       		.byte	0
 11186 339e 07       		.uleb128 0x7
 11187 339f 6F3A0000 		.4byte	0x3a6f
 11188 33a3 5E000000 		.4byte	.LBI391
 11189 33a7 0200     		.2byte	.LVU450
 11190 33a9 5E000000 		.4byte	.LBB391
 11191 33ad 06000000 		.4byte	.LBE391-.LBB391
 11192 33b1 2B01     		.2byte	0x12b
 11193 33b3 05       		.byte	0x5
 11194 33b4 26340000 		.4byte	0x3426
 11195 33b8 04       		.uleb128 0x4
 11196 33b9 9D3A0000 		.4byte	0x3a9d
 11197 33bd 5E000000 		.4byte	.LBI393
ARM GAS  C:\Users\DEVELO~1\AppData\Local\Temp\cc5EUJSb.s 			page 198


 11198 33c1 0400     		.2byte	.LVU452
 11199 33c3 5E000000 		.4byte	.LBB393
 11200 33c7 06000000 		.4byte	.LBE393-.LBB393
 11201 33cb 03       		.byte	0x3
 11202 33cc 6002     		.2byte	0x260
 11203 33ce 03       		.byte	0x3
 11204 33cf 04       		.uleb128 0x4
 11205 33d0 AF3A0000 		.4byte	0x3aaf
 11206 33d4 5E000000 		.4byte	.LBI394
 11207 33d8 0800     		.2byte	.LVU456
 11208 33da 5E000000 		.4byte	.LBB394
 11209 33de 06000000 		.4byte	.LBE394-.LBB394
 11210 33e2 04       		.byte	0x4
 11211 33e3 DD01     		.2byte	0x1dd
 11212 33e5 03       		.byte	0x3
 11213 33e6 04       		.uleb128 0x4
 11214 33e7 C13A0000 		.4byte	0x3ac1
 11215 33eb 5E000000 		.4byte	.LBI395
 11216 33ef 0A00     		.2byte	.LVU458
 11217 33f1 5E000000 		.4byte	.LBB395
 11218 33f5 06000000 		.4byte	.LBE395-.LBB395
 11219 33f9 05       		.byte	0x5
 11220 33fa 6B03     		.2byte	0x36b
 11221 33fc 03       		.byte	0x3
 11222 33fd 04       		.uleb128 0x4
 11223 33fe D33A0000 		.4byte	0x3ad3
 11224 3402 5E000000 		.4byte	.LBI396
 11225 3406 0C00     		.2byte	.LVU460
 11226 3408 5E000000 		.4byte	.LBB396
 11227 340c 06000000 		.4byte	.LBE396-.LBB396
 11228 3410 05       		.byte	0x5
 11229 3411 5203     		.2byte	0x352
 11230 3413 03       		.byte	0x3
 11231 3414 02       		.uleb128 0x2
 11232 3415 E13A0000 		.4byte	0x3ae1
 11233 3419 0B0A0000 		.4byte	.LLST49
 11234 341d 090A0000 		.4byte	.LVUS49
 11235 3421 00       		.byte	0
 11236 3422 00       		.byte	0
 11237 3423 00       		.byte	0
 11238 3424 00       		.byte	0
 11239 3425 00       		.byte	0
 11240 3426 07       		.uleb128 0x7
 11241 3427 813A0000 		.4byte	0x3a81
 11242 342b 66000000 		.4byte	.LBI398
 11243 342f 0100     		.2byte	.LVU467
 11244 3431 66000000 		.4byte	.LBB398
 11245 3435 06000000 		.4byte	.LBE398-.LBB398
 11246 3439 1201     		.2byte	0x112
 11247 343b 05       		.byte	0x5
 11248 343c 61340000 		.4byte	0x3461
 11249 3440 02       		.uleb128 0x2
 11250 3441 8F3A0000 		.4byte	0x3a8f
 11251 3445 170A0000 		.4byte	.LLST50
 11252 3449 150A0000 		.4byte	.LVUS50
 11253 344d 0E       		.uleb128 0xe
 11254 344e 6C000000 		.4byte	.LVL79
ARM GAS  C:\Users\DEVELO~1\AppData\Local\Temp\cc5EUJSb.s 			page 199


 11255 3452 AE130000 		.4byte	0x13ae
 11256 3456 01       		.uleb128 0x1
 11257 3457 01       		.uleb128 0x1
 11258 3458 50       		.byte	0x50
 11259 3459 05       		.uleb128 0x5
 11260 345a 03       		.byte	0x3
 11261 345b 00000000 		.4byte	.LC0
 11262 345f 00       		.byte	0
 11263 3460 00       		.byte	0
 11264 3461 07       		.uleb128 0x7
 11265 3462 783A0000 		.4byte	0x3a78
 11266 3466 7C000000 		.4byte	.LBI400
 11267 346a 0100     		.2byte	.LVU475
 11268 346c 7C000000 		.4byte	.LBB400
 11269 3470 06000000 		.4byte	.LBE400-.LBB400
 11270 3474 1901     		.2byte	0x119
 11271 3476 05       		.byte	0x5
 11272 3477 E9340000 		.4byte	0x34e9
 11273 347b 04       		.uleb128 0x4
 11274 347c A63A0000 		.4byte	0x3aa6
 11275 3480 7C000000 		.4byte	.LBI401
 11276 3484 0300     		.2byte	.LVU477
 11277 3486 7C000000 		.4byte	.LBB401
 11278 348a 06000000 		.4byte	.LBE401-.LBB401
 11279 348e 03       		.byte	0x3
 11280 348f 5502     		.2byte	0x255
 11281 3491 03       		.byte	0x3
 11282 3492 04       		.uleb128 0x4
 11283 3493 B83A0000 		.4byte	0x3ab8
 11284 3497 7C000000 		.4byte	.LBI402
 11285 349b 0500     		.2byte	.LVU479
 11286 349d 7C000000 		.4byte	.LBB402
 11287 34a1 06000000 		.4byte	.LBE402-.LBB402
 11288 34a5 04       		.byte	0x4
 11289 34a6 C501     		.2byte	0x1c5
 11290 34a8 03       		.byte	0x3
 11291 34a9 04       		.uleb128 0x4
 11292 34aa CA3A0000 		.4byte	0x3aca
 11293 34ae 7C000000 		.4byte	.LBI403
 11294 34b2 0700     		.2byte	.LVU481
 11295 34b4 7C000000 		.4byte	.LBB403
 11296 34b8 06000000 		.4byte	.LBE403-.LBB403
 11297 34bc 05       		.byte	0x5
 11298 34bd 6003     		.2byte	0x360
 11299 34bf 03       		.byte	0x3
 11300 34c0 04       		.uleb128 0x4
 11301 34c1 D33A0000 		.4byte	0x3ad3
 11302 34c5 7C000000 		.4byte	.LBI404
 11303 34c9 0900     		.2byte	.LVU483
 11304 34cb 7C000000 		.4byte	.LBB404
 11305 34cf 06000000 		.4byte	.LBE404-.LBB404
 11306 34d3 05       		.byte	0x5
 11307 34d4 3F03     		.2byte	0x33f
 11308 34d6 03       		.byte	0x3
 11309 34d7 02       		.uleb128 0x2
 11310 34d8 E13A0000 		.4byte	0x3ae1
 11311 34dc 270A0000 		.4byte	.LLST51
ARM GAS  C:\Users\DEVELO~1\AppData\Local\Temp\cc5EUJSb.s 			page 200


 11312 34e0 250A0000 		.4byte	.LVUS51
 11313 34e4 00       		.byte	0
 11314 34e5 00       		.byte	0
 11315 34e6 00       		.byte	0
 11316 34e7 00       		.byte	0
 11317 34e8 00       		.byte	0
 11318 34e9 07       		.uleb128 0x7
 11319 34ea 463A0000 		.4byte	0x3a46
 11320 34ee 82000000 		.4byte	.LBI406
 11321 34f2 0400     		.2byte	.LVU489
 11322 34f4 82000000 		.4byte	.LBB406
 11323 34f8 0C000000 		.4byte	.LBE406-.LBB406
 11324 34fc 1901     		.2byte	0x119
 11325 34fe 05       		.byte	0x5
 11326 34ff 34350000 		.4byte	0x3534
 11327 3503 02       		.uleb128 0x2
 11328 3504 613A0000 		.4byte	0x3a61
 11329 3508 340A0000 		.4byte	.LLST52
 11330 350c 320A0000 		.4byte	.LVUS52
 11331 3510 02       		.uleb128 0x2
 11332 3511 543A0000 		.4byte	0x3a54
 11333 3515 450A0000 		.4byte	.LLST53
 11334 3519 3F0A0000 		.4byte	.LVUS53
 11335 351d 0E       		.uleb128 0xe
 11336 351e 8E000000 		.4byte	.LVL84
 11337 3522 4D140000 		.4byte	0x144d
 11338 3526 01       		.uleb128 0x1
 11339 3527 01       		.uleb128 0x1
 11340 3528 50       		.byte	0x50
 11341 3529 02       		.uleb128 0x2
 11342 352a 74       		.byte	0x74
 11343 352b 08       		.sleb128 8
 11344 352c 01       		.uleb128 0x1
 11345 352d 01       		.uleb128 0x1
 11346 352e 51       		.byte	0x51
 11347 352f 02       		.uleb128 0x2
 11348 3530 09       		.byte	0x9
 11349 3531 ED       		.byte	0xed
 11350 3532 00       		.byte	0
 11351 3533 00       		.byte	0
 11352 3534 07       		.uleb128 0x7
 11353 3535 6F3A0000 		.4byte	0x3a6f
 11354 3539 8E000000 		.4byte	.LBI408
 11355 353d 0200     		.2byte	.LVU494
 11356 353f 8E000000 		.4byte	.LBB408
 11357 3543 08000000 		.4byte	.LBE408-.LBB408
 11358 3547 1901     		.2byte	0x119
 11359 3549 05       		.byte	0x5
 11360 354a BC350000 		.4byte	0x35bc
 11361 354e 04       		.uleb128 0x4
 11362 354f 9D3A0000 		.4byte	0x3a9d
 11363 3553 8E000000 		.4byte	.LBI410
 11364 3557 0400     		.2byte	.LVU496
 11365 3559 8E000000 		.4byte	.LBB410
 11366 355d 06000000 		.4byte	.LBE410-.LBB410
 11367 3561 03       		.byte	0x3
 11368 3562 6002     		.2byte	0x260
ARM GAS  C:\Users\DEVELO~1\AppData\Local\Temp\cc5EUJSb.s 			page 201


 11369 3564 03       		.byte	0x3
 11370 3565 04       		.uleb128 0x4
 11371 3566 AF3A0000 		.4byte	0x3aaf
 11372 356a 8E000000 		.4byte	.LBI411
 11373 356e 0800     		.2byte	.LVU500
 11374 3570 8E000000 		.4byte	.LBB411
 11375 3574 06000000 		.4byte	.LBE411-.LBB411
 11376 3578 04       		.byte	0x4
 11377 3579 DD01     		.2byte	0x1dd
 11378 357b 03       		.byte	0x3
 11379 357c 04       		.uleb128 0x4
 11380 357d C13A0000 		.4byte	0x3ac1
 11381 3581 8E000000 		.4byte	.LBI412
 11382 3585 0A00     		.2byte	.LVU502
 11383 3587 8E000000 		.4byte	.LBB412
 11384 358b 06000000 		.4byte	.LBE412-.LBB412
 11385 358f 05       		.byte	0x5
 11386 3590 6B03     		.2byte	0x36b
 11387 3592 03       		.byte	0x3
 11388 3593 04       		.uleb128 0x4
 11389 3594 D33A0000 		.4byte	0x3ad3
 11390 3598 8E000000 		.4byte	.LBI413
 11391 359c 0C00     		.2byte	.LVU504
 11392 359e 8E000000 		.4byte	.LBB413
 11393 35a2 06000000 		.4byte	.LBE413-.LBB413
 11394 35a6 05       		.byte	0x5
 11395 35a7 5203     		.2byte	0x352
 11396 35a9 03       		.byte	0x3
 11397 35aa 02       		.uleb128 0x2
 11398 35ab E13A0000 		.4byte	0x3ae1
 11399 35af 600A0000 		.4byte	.LLST54
 11400 35b3 5E0A0000 		.4byte	.LVUS54
 11401 35b7 00       		.byte	0
 11402 35b8 00       		.byte	0
 11403 35b9 00       		.byte	0
 11404 35ba 00       		.byte	0
 11405 35bb 00       		.byte	0
 11406 35bc 2E       		.uleb128 0x2e
 11407 35bd 1C000000 		.4byte	.LVL67
 11408 35c1 CC350000 		.4byte	0x35cc
 11409 35c5 01       		.uleb128 0x1
 11410 35c6 01       		.uleb128 0x1
 11411 35c7 50       		.byte	0x50
 11412 35c8 02       		.uleb128 0x2
 11413 35c9 74       		.byte	0x74
 11414 35ca 00       		.sleb128 0
 11415 35cb 00       		.byte	0
 11416 35cc 2E       		.uleb128 0x2e
 11417 35cd 2E000000 		.4byte	.LVL68
 11418 35d1 DC350000 		.4byte	0x35dc
 11419 35d5 01       		.uleb128 0x1
 11420 35d6 01       		.uleb128 0x1
 11421 35d7 50       		.byte	0x50
 11422 35d8 02       		.uleb128 0x2
 11423 35d9 74       		.byte	0x74
 11424 35da 00       		.sleb128 0
 11425 35db 00       		.byte	0
ARM GAS  C:\Users\DEVELO~1\AppData\Local\Temp\cc5EUJSb.s 			page 202


 11426 35dc 06       		.uleb128 0x6
 11427 35dd 3C000000 		.4byte	.LVL70
 11428 35e1 21360000 		.4byte	0x3621
 11429 35e5 F0350000 		.4byte	0x35f0
 11430 35e9 01       		.uleb128 0x1
 11431 35ea 01       		.uleb128 0x1
 11432 35eb 50       		.byte	0x50
 11433 35ec 02       		.uleb128 0x2
 11434 35ed 74       		.byte	0x74
 11435 35ee 00       		.sleb128 0
 11436 35ef 00       		.byte	0
 11437 35f0 2E       		.uleb128 0x2e
 11438 35f1 48000000 		.4byte	.LVL71
 11439 35f5 00360000 		.4byte	0x3600
 11440 35f9 01       		.uleb128 0x1
 11441 35fa 01       		.uleb128 0x1
 11442 35fb 50       		.byte	0x50
 11443 35fc 02       		.uleb128 0x2
 11444 35fd 74       		.byte	0x74
 11445 35fe 00       		.sleb128 0
 11446 35ff 00       		.byte	0
 11447 3600 06       		.uleb128 0x6
 11448 3601 72000000 		.4byte	.LVL80
 11449 3605 81360000 		.4byte	0x3681
 11450 3609 14360000 		.4byte	0x3614
 11451 360d 01       		.uleb128 0x1
 11452 360e 01       		.uleb128 0x1
 11453 360f 50       		.byte	0x50
 11454 3610 02       		.uleb128 0x2
 11455 3611 74       		.byte	0x74
 11456 3612 00       		.sleb128 0
 11457 3613 00       		.byte	0
 11458 3614 20       		.uleb128 0x20
 11459 3615 7C000000 		.4byte	.LVL81
 11460 3619 01       		.uleb128 0x1
 11461 361a 01       		.uleb128 0x1
 11462 361b 50       		.byte	0x50
 11463 361c 02       		.uleb128 0x2
 11464 361d 74       		.byte	0x74
 11465 361e 00       		.sleb128 0
 11466 361f 00       		.byte	0
 11467 3620 00       		.byte	0
 11468 3621 54       		.uleb128 0x54
 11469 3622 53060000 		.4byte	.LASF342
 11470 3626 01       		.byte	0x1
 11471 3627 D6       		.byte	0xd6
 11472 3628 0E       		.byte	0xe
 11473 3629 5F010000 		.4byte	0x15f
 11474 362d 00000000 		.4byte	.LFB436
 11475 3631 B4000000 		.4byte	.LFE436-.LFB436
 11476 3635 01       		.uleb128 0x1
 11477 3636 9C       		.byte	0x9c
 11478 3637 81360000 		.4byte	0x3681
 11479 363b 46       		.uleb128 0x46
 11480 363c 4C0F0000 		.4byte	.LASF274
 11481 3640 D6       		.byte	0xd6
 11482 3641 2D       		.byte	0x2d
ARM GAS  C:\Users\DEVELO~1\AppData\Local\Temp\cc5EUJSb.s 			page 203


 11483 3642 AB120000 		.4byte	0x12ab
 11484 3646 7A0A0000 		.4byte	.LLST18
 11485 364a 6A0A0000 		.4byte	.LVUS18
 11486 364e 18       		.uleb128 0x18
 11487 364f 91380000 		.4byte	0x3891
 11488 3653 94000000 		.4byte	.LBI329
 11489 3657 0300     		.2byte	.LVU212
 11490 3659 78000000 		.4byte	.LLRL19
 11491 365d 0001     		.2byte	0x100
 11492 365f 03       		.byte	0x3
 11493 3660 77360000 		.4byte	0x3677
 11494 3664 12       		.uleb128 0x12
 11495 3665 9E380000 		.4byte	0x389e
 11496 3669 02       		.uleb128 0x2
 11497 366a 9E380000 		.4byte	0x389e
 11498 366e B80A0000 		.4byte	.LLST20
 11499 3672 B60A0000 		.4byte	.LVUS20
 11500 3676 00       		.byte	0
 11501 3677 28       		.uleb128 0x28
 11502 3678 B0000000 		.4byte	.LVL27
 11503 367c 81360000 		.4byte	0x3681
 11504 3680 00       		.byte	0
 11505 3681 55       		.uleb128 0x55
 11506 3682 61000000 		.4byte	.LASF310
 11507 3686 01       		.byte	0x1
 11508 3687 8A       		.byte	0x8a
 11509 3688 0D       		.byte	0xd
 11510 3689 00000000 		.4byte	.LFB435
 11511 368d 6C010000 		.4byte	.LFE435-.LFB435
 11512 3691 01       		.uleb128 0x1
 11513 3692 9C       		.byte	0x9c
 11514 3693 7C380000 		.4byte	0x387c
 11515 3697 46       		.uleb128 0x46
 11516 3698 4C0F0000 		.4byte	.LASF274
 11517 369c 8A       		.byte	0x8a
 11518 369d 2B       		.byte	0x2b
 11519 369e AB120000 		.4byte	0x12ab
 11520 36a2 D40A0000 		.4byte	.LLST1
 11521 36a6 C40A0000 		.4byte	.LVUS1
 11522 36aa 26       		.uleb128 0x26
 11523 36ab 670E0000 		.4byte	.LASF289
 11524 36af 8C380000 		.4byte	0x388c
 11525 36b3 47       		.uleb128 0x47
 11526 36b4 DF380000 		.4byte	0x38df
 11527 36b8 54000000 		.4byte	.LBI271
 11528 36bc 0100     		.2byte	.LVU66
 11529 36be 54000000 		.4byte	.LBB271
 11530 36c2 20000000 		.4byte	.LBE271-.LBB271
 11531 36c6 C5       		.byte	0xc5
 11532 36c7 FE360000 		.4byte	0x36fe
 11533 36cb 02       		.uleb128 0x2
 11534 36cc ED380000 		.4byte	0x38ed
 11535 36d0 1F0B0000 		.4byte	.LLST2
 11536 36d4 1D0B0000 		.4byte	.LVUS2
 11537 36d8 04       		.uleb128 0x4
 11538 36d9 F8390000 		.4byte	0x39f8
 11539 36dd 54000000 		.4byte	.LBI273
ARM GAS  C:\Users\DEVELO~1\AppData\Local\Temp\cc5EUJSb.s 			page 204


 11540 36e1 0300     		.2byte	.LVU68
 11541 36e3 54000000 		.4byte	.LBB273
 11542 36e7 1E000000 		.4byte	.LBE273-.LBB273
 11543 36eb 02       		.byte	0x2
 11544 36ec 3F02     		.2byte	0x23f
 11545 36ee 03       		.byte	0x3
 11546 36ef 02       		.uleb128 0x2
 11547 36f0 053A0000 		.4byte	0x3a05
 11548 36f4 2C0B0000 		.4byte	.LLST3
 11549 36f8 2A0B0000 		.4byte	.LVUS3
 11550 36fc 00       		.byte	0
 11551 36fd 00       		.byte	0
 11552 36fe 3C       		.uleb128 0x3c
 11553 36ff 3F390000 		.4byte	0x393f
 11554 3703 B2000000 		.4byte	.LBI275
 11555 3707 0100     		.2byte	.LVU97
 11556 3709 0C000000 		.4byte	.LLRL4
 11557 370d A7       		.byte	0xa7
 11558 370e 40370000 		.4byte	0x3740
 11559 3712 02       		.uleb128 0x2
 11560 3713 4D390000 		.4byte	0x394d
 11561 3717 390B0000 		.4byte	.LLST5
 11562 371b 370B0000 		.4byte	.LVUS5
 11563 371f 25       		.uleb128 0x25
 11564 3720 123A0000 		.4byte	0x3a12
 11565 3724 B2000000 		.4byte	.LBI277
 11566 3728 0300     		.2byte	.LVU99
 11567 372a 1E000000 		.4byte	.LLRL6
 11568 372e 02       		.byte	0x2
 11569 372f 8D01     		.2byte	0x18d
 11570 3731 02       		.uleb128 0x2
 11571 3732 1F3A0000 		.4byte	0x3a1f
 11572 3736 470B0000 		.4byte	.LLST7
 11573 373a 450B0000 		.4byte	.LVUS7
 11574 373e 00       		.byte	0
 11575 373f 00       		.byte	0
 11576 3740 47       		.uleb128 0x47
 11577 3741 9F390000 		.4byte	0x399f
 11578 3745 DA000000 		.4byte	.LBI291
 11579 3749 0100     		.2byte	.LVU115
 11580 374b DA000000 		.4byte	.LBB291
 11581 374f 1E000000 		.4byte	.LBE291-.LBB291
 11582 3753 AD       		.byte	0xad
 11583 3754 8A370000 		.4byte	0x378a
 11584 3758 02       		.uleb128 0x2
 11585 3759 AC390000 		.4byte	0x39ac
 11586 375d 550B0000 		.4byte	.LLST8
 11587 3761 530B0000 		.4byte	.LVUS8
 11588 3765 1F       		.uleb128 0x1f
 11589 3766 2C3A0000 		.4byte	0x3a2c
 11590 376a DA000000 		.4byte	.LBI293
 11591 376e 0300     		.2byte	.LVU117
 11592 3770 DA000000 		.4byte	.LBB293
 11593 3774 1E000000 		.4byte	.LBE293-.LBB293
 11594 3778 02       		.byte	0x2
 11595 3779 DB       		.byte	0xdb
 11596 377a 03       		.byte	0x3
ARM GAS  C:\Users\DEVELO~1\AppData\Local\Temp\cc5EUJSb.s 			page 205


 11597 377b 02       		.uleb128 0x2
 11598 377c 393A0000 		.4byte	0x3a39
 11599 3780 630B0000 		.4byte	.LLST9
 11600 3784 610B0000 		.4byte	.LVUS9
 11601 3788 00       		.byte	0
 11602 3789 00       		.byte	0
 11603 378a 3C       		.uleb128 0x3c
 11604 378b 9F390000 		.4byte	0x399f
 11605 378f 02010000 		.4byte	.LBI295
 11606 3793 0100     		.2byte	.LVU130
 11607 3795 30000000 		.4byte	.LLRL10
 11608 3799 B3       		.byte	0xb3
 11609 379a CC370000 		.4byte	0x37cc
 11610 379e 02       		.uleb128 0x2
 11611 379f AC390000 		.4byte	0x39ac
 11612 37a3 710B0000 		.4byte	.LLST11
 11613 37a7 6F0B0000 		.4byte	.LVUS11
 11614 37ab 56       		.uleb128 0x56
 11615 37ac 2C3A0000 		.4byte	0x3a2c
 11616 37b0 02010000 		.4byte	.LBI297
 11617 37b4 0300     		.2byte	.LVU132
 11618 37b6 42000000 		.4byte	.LLRL12
 11619 37ba 02       		.byte	0x2
 11620 37bb DB       		.byte	0xdb
 11621 37bc 03       		.byte	0x3
 11622 37bd 02       		.uleb128 0x2
 11623 37be 393A0000 		.4byte	0x3a39
 11624 37c2 7F0B0000 		.4byte	.LLST13
 11625 37c6 7D0B0000 		.4byte	.LVUS13
 11626 37ca 00       		.byte	0
 11627 37cb 00       		.byte	0
 11628 37cc 3C       		.uleb128 0x3c
 11629 37cd 3F390000 		.4byte	0x393f
 11630 37d1 2A010000 		.4byte	.LBI311
 11631 37d5 0100     		.2byte	.LVU148
 11632 37d7 54000000 		.4byte	.LLRL14
 11633 37db BF       		.byte	0xbf
 11634 37dc 0E380000 		.4byte	0x380e
 11635 37e0 02       		.uleb128 0x2
 11636 37e1 4D390000 		.4byte	0x394d
 11637 37e5 8D0B0000 		.4byte	.LLST15
 11638 37e9 8B0B0000 		.4byte	.LVUS15
 11639 37ed 25       		.uleb128 0x25
 11640 37ee 123A0000 		.4byte	0x3a12
 11641 37f2 2A010000 		.4byte	.LBI313
 11642 37f6 0300     		.2byte	.LVU150
 11643 37f8 66000000 		.4byte	.LLRL16
 11644 37fc 02       		.byte	0x2
 11645 37fd 8D01     		.2byte	0x18d
 11646 37ff 02       		.uleb128 0x2
 11647 3800 1F3A0000 		.4byte	0x3a1f
 11648 3804 9B0B0000 		.4byte	.LLST17
 11649 3808 990B0000 		.4byte	.LVUS17
 11650 380c 00       		.byte	0
 11651 380d 00       		.byte	0
 11652 380e 3D       		.uleb128 0x3d
 11653 380f DA000000 		.4byte	.LVL8
ARM GAS  C:\Users\DEVELO~1\AppData\Local\Temp\cc5EUJSb.s 			page 206


 11654 3813 EF3A0000 		.4byte	0x3aef
 11655 3817 28380000 		.4byte	0x3828
 11656 381b 01       		.uleb128 0x1
 11657 381c 01       		.uleb128 0x1
 11658 381d 50       		.byte	0x50
 11659 381e 02       		.uleb128 0x2
 11660 381f 70       		.byte	0x70
 11661 3820 00       		.sleb128 0
 11662 3821 01       		.uleb128 0x1
 11663 3822 01       		.uleb128 0x1
 11664 3823 51       		.byte	0x51
 11665 3824 02       		.uleb128 0x2
 11666 3825 71       		.byte	0x71
 11667 3826 00       		.sleb128 0
 11668 3827 00       		.byte	0
 11669 3828 3D       		.uleb128 0x3d
 11670 3829 02010000 		.4byte	.LVL11
 11671 382d EF3A0000 		.4byte	0x3aef
 11672 3831 4B380000 		.4byte	0x384b
 11673 3835 01       		.uleb128 0x1
 11674 3836 01       		.uleb128 0x1
 11675 3837 50       		.byte	0x50
 11676 3838 02       		.uleb128 0x2
 11677 3839 70       		.byte	0x70
 11678 383a 00       		.sleb128 0
 11679 383b 01       		.uleb128 0x1
 11680 383c 01       		.uleb128 0x1
 11681 383d 51       		.byte	0x51
 11682 383e 02       		.uleb128 0x2
 11683 383f 71       		.byte	0x71
 11684 3840 00       		.sleb128 0
 11685 3841 3E       		.uleb128 0x3e
 11686 3842 D2380000 		.4byte	0x38d2
 11687 3846 03       		.uleb128 0x3
 11688 3847 A3       		.byte	0xa3
 11689 3848 01       		.uleb128 0x1
 11690 3849 50       		.byte	0x50
 11691 384a 00       		.byte	0
 11692 384b 3D       		.uleb128 0x3d
 11693 384c 2A010000 		.4byte	.LVL14
 11694 3850 EF3A0000 		.4byte	0x3aef
 11695 3854 65380000 		.4byte	0x3865
 11696 3858 01       		.uleb128 0x1
 11697 3859 01       		.uleb128 0x1
 11698 385a 50       		.byte	0x50
 11699 385b 02       		.uleb128 0x2
 11700 385c 70       		.byte	0x70
 11701 385d 00       		.sleb128 0
 11702 385e 01       		.uleb128 0x1
 11703 385f 01       		.uleb128 0x1
 11704 3860 51       		.byte	0x51
 11705 3861 02       		.uleb128 0x2
 11706 3862 71       		.byte	0x71
 11707 3863 00       		.sleb128 0
 11708 3864 00       		.byte	0
 11709 3865 3B       		.uleb128 0x3b
 11710 3866 52010000 		.4byte	.LVL17
ARM GAS  C:\Users\DEVELO~1\AppData\Local\Temp\cc5EUJSb.s 			page 207


 11711 386a EF3A0000 		.4byte	0x3aef
 11712 386e 01       		.uleb128 0x1
 11713 386f 01       		.uleb128 0x1
 11714 3870 50       		.byte	0x50
 11715 3871 02       		.uleb128 0x2
 11716 3872 70       		.byte	0x70
 11717 3873 00       		.sleb128 0
 11718 3874 01       		.uleb128 0x1
 11719 3875 01       		.uleb128 0x1
 11720 3876 51       		.byte	0x51
 11721 3877 02       		.uleb128 0x2
 11722 3878 71       		.byte	0x71
 11723 3879 00       		.sleb128 0
 11724 387a 00       		.byte	0
 11725 387b 00       		.byte	0
 11726 387c 14       		.uleb128 0x14
 11727 387d 77030000 		.4byte	0x377
 11728 3881 8C380000 		.4byte	0x388c
 11729 3885 15       		.uleb128 0x15
 11730 3886 39000000 		.4byte	0x39
 11731 388a 12       		.byte	0x12
 11732 388b 00       		.byte	0
 11733 388c 11       		.uleb128 0x11
 11734 388d 7C380000 		.4byte	0x387c
 11735 3891 1D       		.uleb128 0x1d
 11736 3892 10070000 		.4byte	.LASF311
 11737 3896 01       		.byte	0x1
 11738 3897 7D       		.byte	0x7d
 11739 3898 0D       		.byte	0xd
 11740 3899 01       		.byte	0x1
 11741 389a AB380000 		.4byte	0x38ab
 11742 389e 1E       		.uleb128 0x1e
 11743 389f 4C0F0000 		.4byte	.LASF274
 11744 38a3 01       		.byte	0x1
 11745 38a4 7D       		.byte	0x7d
 11746 38a5 28       		.byte	0x28
 11747 38a6 AB120000 		.4byte	0x12ab
 11748 38aa 00       		.byte	0
 11749 38ab 1D       		.uleb128 0x1d
 11750 38ac 1E0B0000 		.4byte	.LASF312
 11751 38b0 01       		.byte	0x1
 11752 38b1 76       		.byte	0x76
 11753 38b2 0D       		.byte	0xd
 11754 38b3 01       		.byte	0x1
 11755 38b4 C5380000 		.4byte	0x38c5
 11756 38b8 1E       		.uleb128 0x1e
 11757 38b9 4C0F0000 		.4byte	.LASF274
 11758 38bd 01       		.byte	0x1
 11759 38be 76       		.byte	0x76
 11760 38bf 27       		.byte	0x27
 11761 38c0 AB120000 		.4byte	0x12ab
 11762 38c4 00       		.byte	0
 11763 38c5 1D       		.uleb128 0x1d
 11764 38c6 FE060000 		.4byte	.LASF313
 11765 38ca 01       		.byte	0x1
 11766 38cb 63       		.byte	0x63
 11767 38cc 0D       		.byte	0xd
ARM GAS  C:\Users\DEVELO~1\AppData\Local\Temp\cc5EUJSb.s 			page 208


 11768 38cd 01       		.byte	0x1
 11769 38ce DF380000 		.4byte	0x38df
 11770 38d2 1E       		.uleb128 0x1e
 11771 38d3 4C0F0000 		.4byte	.LASF274
 11772 38d7 01       		.byte	0x1
 11773 38d8 63       		.byte	0x63
 11774 38d9 2A       		.byte	0x2a
 11775 38da AB120000 		.4byte	0x12ab
 11776 38de 00       		.byte	0
 11777 38df 16       		.uleb128 0x16
 11778 38e0 53020000 		.4byte	.LASF314
 11779 38e4 02       		.byte	0x2
 11780 38e5 3302     		.2byte	0x233
 11781 38e7 16       		.byte	0x16
 11782 38e8 03       		.byte	0x3
 11783 38e9 FB380000 		.4byte	0x38fb
 11784 38ed 0C       		.uleb128 0xc
 11785 38ee F4070000 		.4byte	.LASF59
 11786 38f2 02       		.byte	0x2
 11787 38f3 3302     		.2byte	0x233
 11788 38f5 2C       		.byte	0x2c
 11789 38f6 E9000000 		.4byte	0xe9
 11790 38fa 00       		.byte	0
 11791 38fb 16       		.uleb128 0x16
 11792 38fc 320D0000 		.4byte	.LASF315
 11793 3900 02       		.byte	0x2
 11794 3901 1102     		.2byte	0x211
 11795 3903 16       		.byte	0x16
 11796 3904 03       		.byte	0x3
 11797 3905 17390000 		.4byte	0x3917
 11798 3909 0C       		.uleb128 0xc
 11799 390a F4070000 		.4byte	.LASF59
 11800 390e 02       		.byte	0x2
 11801 390f 1102     		.2byte	0x211
 11802 3911 2E       		.byte	0x2e
 11803 3912 E9000000 		.4byte	0xe9
 11804 3916 00       		.byte	0
 11805 3917 16       		.uleb128 0x16
 11806 3918 F40C0000 		.4byte	.LASF316
 11807 391c 02       		.byte	0x2
 11808 391d F101     		.2byte	0x1f1
 11809 391f 16       		.byte	0x16
 11810 3920 03       		.byte	0x3
 11811 3921 3F390000 		.4byte	0x393f
 11812 3925 0C       		.uleb128 0xc
 11813 3926 F4070000 		.4byte	.LASF59
 11814 392a 02       		.byte	0x2
 11815 392b F101     		.2byte	0x1f1
 11816 392d 2D       		.byte	0x2d
 11817 392e E9000000 		.4byte	0xe9
 11818 3932 38       		.uleb128 0x38
 11819 3933 6C7000   		.ascii	"lp\000"
 11820 3936 02       		.byte	0x2
 11821 3937 F101     		.2byte	0x1f1
 11822 3939 38       		.byte	0x38
 11823 393a FF0E0000 		.4byte	0xeff
 11824 393e 00       		.byte	0
ARM GAS  C:\Users\DEVELO~1\AppData\Local\Temp\cc5EUJSb.s 			page 209


 11825 393f 16       		.uleb128 0x16
 11826 3940 40020000 		.4byte	.LASF317
 11827 3944 02       		.byte	0x2
 11828 3945 8101     		.2byte	0x181
 11829 3947 16       		.byte	0x16
 11830 3948 03       		.byte	0x3
 11831 3949 5B390000 		.4byte	0x395b
 11832 394d 0C       		.uleb128 0xc
 11833 394e F4070000 		.4byte	.LASF59
 11834 3952 02       		.byte	0x2
 11835 3953 8101     		.2byte	0x181
 11836 3955 2C       		.byte	0x2c
 11837 3956 E9000000 		.4byte	0xe9
 11838 395a 00       		.byte	0
 11839 395b 16       		.uleb128 0x16
 11840 395c 230D0000 		.4byte	.LASF318
 11841 3960 02       		.byte	0x2
 11842 3961 5F01     		.2byte	0x15f
 11843 3963 16       		.byte	0x16
 11844 3964 03       		.byte	0x3
 11845 3965 77390000 		.4byte	0x3977
 11846 3969 0C       		.uleb128 0xc
 11847 396a F4070000 		.4byte	.LASF59
 11848 396e 02       		.byte	0x2
 11849 396f 5F01     		.2byte	0x15f
 11850 3971 2E       		.byte	0x2e
 11851 3972 E9000000 		.4byte	0xe9
 11852 3976 00       		.byte	0
 11853 3977 16       		.uleb128 0x16
 11854 3978 E60C0000 		.4byte	.LASF319
 11855 397c 02       		.byte	0x2
 11856 397d 3F01     		.2byte	0x13f
 11857 397f 16       		.byte	0x16
 11858 3980 03       		.byte	0x3
 11859 3981 9F390000 		.4byte	0x399f
 11860 3985 0C       		.uleb128 0xc
 11861 3986 F4070000 		.4byte	.LASF59
 11862 398a 02       		.byte	0x2
 11863 398b 3F01     		.2byte	0x13f
 11864 398d 2D       		.byte	0x2d
 11865 398e E9000000 		.4byte	0xe9
 11866 3992 38       		.uleb128 0x38
 11867 3993 6C7000   		.ascii	"lp\000"
 11868 3996 02       		.byte	0x2
 11869 3997 3F01     		.2byte	0x13f
 11870 3999 38       		.byte	0x38
 11871 399a FF0E0000 		.4byte	0xeff
 11872 399e 00       		.byte	0
 11873 399f 1D       		.uleb128 0x1d
 11874 39a0 2B000000 		.4byte	.LASF320
 11875 39a4 02       		.byte	0x2
 11876 39a5 CF       		.byte	0xcf
 11877 39a6 16       		.byte	0x16
 11878 39a7 03       		.byte	0x3
 11879 39a8 B9390000 		.4byte	0x39b9
 11880 39ac 1E       		.uleb128 0x1e
 11881 39ad F4070000 		.4byte	.LASF59
ARM GAS  C:\Users\DEVELO~1\AppData\Local\Temp\cc5EUJSb.s 			page 210


 11882 39b1 02       		.byte	0x2
 11883 39b2 CF       		.byte	0xcf
 11884 39b3 2D       		.byte	0x2d
 11885 39b4 E9000000 		.4byte	0xe9
 11886 39b8 00       		.byte	0
 11887 39b9 1D       		.uleb128 0x1d
 11888 39ba F5020000 		.4byte	.LASF321
 11889 39be 02       		.byte	0x2
 11890 39bf AD       		.byte	0xad
 11891 39c0 16       		.byte	0x16
 11892 39c1 03       		.byte	0x3
 11893 39c2 D3390000 		.4byte	0x39d3
 11894 39c6 1E       		.uleb128 0x1e
 11895 39c7 F4070000 		.4byte	.LASF59
 11896 39cb 02       		.byte	0x2
 11897 39cc AD       		.byte	0xad
 11898 39cd 2F       		.byte	0x2f
 11899 39ce E9000000 		.4byte	0xe9
 11900 39d2 00       		.byte	0
 11901 39d3 1D       		.uleb128 0x1d
 11902 39d4 C30D0000 		.4byte	.LASF322
 11903 39d8 02       		.byte	0x2
 11904 39d9 8D       		.byte	0x8d
 11905 39da 16       		.byte	0x16
 11906 39db 03       		.byte	0x3
 11907 39dc F8390000 		.4byte	0x39f8
 11908 39e0 1E       		.uleb128 0x1e
 11909 39e1 F4070000 		.4byte	.LASF59
 11910 39e5 02       		.byte	0x2
 11911 39e6 8D       		.byte	0x8d
 11912 39e7 2E       		.byte	0x2e
 11913 39e8 E9000000 		.4byte	0xe9
 11914 39ec 57       		.uleb128 0x57
 11915 39ed 6C7000   		.ascii	"lp\000"
 11916 39f0 02       		.byte	0x2
 11917 39f1 8D       		.byte	0x8d
 11918 39f2 39       		.byte	0x39
 11919 39f3 FF0E0000 		.4byte	0xeff
 11920 39f7 00       		.byte	0
 11921 39f8 1D       		.uleb128 0x1d
 11922 39f9 8E080000 		.4byte	.LASF323
 11923 39fd 02       		.byte	0x2
 11924 39fe 59       		.byte	0x59
 11925 39ff 16       		.byte	0x16
 11926 3a00 03       		.byte	0x3
 11927 3a01 123A0000 		.4byte	0x3a12
 11928 3a05 1E       		.uleb128 0x1e
 11929 3a06 F4070000 		.4byte	.LASF59
 11930 3a0a 02       		.byte	0x2
 11931 3a0b 59       		.byte	0x59
 11932 3a0c 2E       		.byte	0x2e
 11933 3a0d E9000000 		.4byte	0xe9
 11934 3a11 00       		.byte	0
 11935 3a12 1D       		.uleb128 0x1d
 11936 3a13 7F080000 		.4byte	.LASF324
 11937 3a17 02       		.byte	0x2
 11938 3a18 49       		.byte	0x49
ARM GAS  C:\Users\DEVELO~1\AppData\Local\Temp\cc5EUJSb.s 			page 211


 11939 3a19 16       		.byte	0x16
 11940 3a1a 03       		.byte	0x3
 11941 3a1b 2C3A0000 		.4byte	0x3a2c
 11942 3a1f 1E       		.uleb128 0x1e
 11943 3a20 F4070000 		.4byte	.LASF59
 11944 3a24 02       		.byte	0x2
 11945 3a25 49       		.byte	0x49
 11946 3a26 2E       		.byte	0x2e
 11947 3a27 E9000000 		.4byte	0xe9
 11948 3a2b 00       		.byte	0
 11949 3a2c 1D       		.uleb128 0x1d
 11950 3a2d 3D050000 		.4byte	.LASF325
 11951 3a31 02       		.byte	0x2
 11952 3a32 39       		.byte	0x39
 11953 3a33 16       		.byte	0x16
 11954 3a34 03       		.byte	0x3
 11955 3a35 463A0000 		.4byte	0x3a46
 11956 3a39 1E       		.uleb128 0x1e
 11957 3a3a F4070000 		.4byte	.LASF59
 11958 3a3e 02       		.byte	0x2
 11959 3a3f 39       		.byte	0x39
 11960 3a40 2F       		.byte	0x2f
 11961 3a41 E9000000 		.4byte	0xe9
 11962 3a45 00       		.byte	0
 11963 3a46 16       		.uleb128 0x16
 11964 3a47 7D0E0000 		.4byte	.LASF326
 11965 3a4b 03       		.byte	0x3
 11966 3a4c 4503     		.2byte	0x345
 11967 3a4e 14       		.byte	0x14
 11968 3a4f 03       		.byte	0x3
 11969 3a50 6F3A0000 		.4byte	0x3a6f
 11970 3a54 38       		.uleb128 0x38
 11971 3a55 74727000 		.ascii	"trp\000"
 11972 3a59 03       		.byte	0x3
 11973 3a5a 4503     		.2byte	0x345
 11974 3a5c 3A       		.byte	0x3a
 11975 3a5d D40D0000 		.4byte	0xdd4
 11976 3a61 38       		.uleb128 0x38
 11977 3a62 6D736700 		.ascii	"msg\000"
 11978 3a66 03       		.byte	0x3
 11979 3a67 4503     		.2byte	0x345
 11980 3a69 45       		.byte	0x45
 11981 3a6a 5F010000 		.4byte	0x15f
 11982 3a6e 00       		.byte	0
 11983 3a6f 21       		.uleb128 0x21
 11984 3a70 2D0B0000 		.4byte	.LASF327
 11985 3a74 03       		.byte	0x3
 11986 3a75 5E02     		.2byte	0x25e
 11987 3a77 14       		.byte	0x14
 11988 3a78 21       		.uleb128 0x21
 11989 3a79 FC040000 		.4byte	.LASF328
 11990 3a7d 03       		.byte	0x3
 11991 3a7e 5302     		.2byte	0x253
 11992 3a80 14       		.byte	0x14
 11993 3a81 16       		.uleb128 0x16
 11994 3a82 8B070000 		.4byte	.LASF329
 11995 3a86 03       		.byte	0x3
ARM GAS  C:\Users\DEVELO~1\AppData\Local\Temp\cc5EUJSb.s 			page 212


 11996 3a87 1E02     		.2byte	0x21e
 11997 3a89 14       		.byte	0x14
 11998 3a8a 03       		.byte	0x3
 11999 3a8b 9D3A0000 		.4byte	0x3a9d
 12000 3a8f 0C       		.uleb128 0xc
 12001 3a90 08040000 		.4byte	.LASF80
 12002 3a94 03       		.byte	0x3
 12003 3a95 1E02     		.2byte	0x21e
 12004 3a97 2C       		.byte	0x2c
 12005 3a98 66030000 		.4byte	0x366
 12006 3a9c 00       		.byte	0
 12007 3a9d 21       		.uleb128 0x21
 12008 3a9e BE040000 		.4byte	.LASF330
 12009 3aa2 04       		.byte	0x4
 12010 3aa3 D901     		.2byte	0x1d9
 12011 3aa5 14       		.byte	0x14
 12012 3aa6 21       		.uleb128 0x21
 12013 3aa7 FA010000 		.4byte	.LASF331
 12014 3aab 04       		.byte	0x4
 12015 3aac C301     		.2byte	0x1c3
 12016 3aae 14       		.byte	0x14
 12017 3aaf 21       		.uleb128 0x21
 12018 3ab0 880C0000 		.4byte	.LASF332
 12019 3ab4 05       		.byte	0x5
 12020 3ab5 6903     		.2byte	0x369
 12021 3ab7 1B       		.byte	0x1b
 12022 3ab8 21       		.uleb128 0x21
 12023 3ab9 A5010000 		.4byte	.LASF333
 12024 3abd 05       		.byte	0x5
 12025 3abe 5E03     		.2byte	0x35e
 12026 3ac0 1B       		.byte	0x1b
 12027 3ac1 21       		.uleb128 0x21
 12028 3ac2 8F0E0000 		.4byte	.LASF334
 12029 3ac6 05       		.byte	0x5
 12030 3ac7 4F03     		.2byte	0x34f
 12031 3ac9 1B       		.byte	0x1b
 12032 3aca 21       		.uleb128 0x21
 12033 3acb 54010000 		.4byte	.LASF335
 12034 3acf 05       		.byte	0x5
 12035 3ad0 3703     		.2byte	0x337
 12036 3ad2 1B       		.byte	0x1b
 12037 3ad3 16       		.uleb128 0x16
 12038 3ad4 C90A0000 		.4byte	.LASF336
 12039 3ad8 06       		.byte	0x6
 12040 3ad9 EB01     		.2byte	0x1eb
 12041 3adb 1B       		.byte	0x1b
 12042 3adc 03       		.byte	0x3
 12043 3add EF3A0000 		.4byte	0x3aef
 12044 3ae1 0C       		.uleb128 0xc
 12045 3ae2 AD040000 		.4byte	.LASF337
 12046 3ae6 06       		.byte	0x6
 12047 3ae7 EB01     		.2byte	0x1eb
 12048 3ae9 32       		.byte	0x32
 12049 3aea E9000000 		.4byte	0xe9
 12050 3aee 00       		.byte	0
 12051 3aef 3F       		.uleb128 0x3f
 12052 3af0 C5380000 		.4byte	0x38c5
ARM GAS  C:\Users\DEVELO~1\AppData\Local\Temp\cc5EUJSb.s 			page 213


 12053 3af4 00000000 		.4byte	.LFB462
 12054 3af8 54000000 		.4byte	.LFE462-.LFB462
 12055 3afc 01       		.uleb128 0x1
 12056 3afd 9C       		.byte	0x9c
 12057 3afe 153B0000 		.4byte	0x3b15
 12058 3b02 02       		.uleb128 0x2
 12059 3b03 D2380000 		.4byte	0x38d2
 12060 3b07 A90B0000 		.4byte	.LLST0
 12061 3b0b A70B0000 		.4byte	.LVUS0
 12062 3b0f 12       		.uleb128 0x12
 12063 3b10 D2380000 		.4byte	0x38d2
 12064 3b14 00       		.byte	0
 12065 3b15 3F       		.uleb128 0x3f
 12066 3b16 AB2E0000 		.4byte	0x2eab
 12067 3b1a 00000000 		.4byte	.LFB460
 12068 3b1e 38000000 		.4byte	.LFE460-.LFB460
 12069 3b22 01       		.uleb128 0x1
 12070 3b23 9C       		.byte	0x9c
 12071 3b24 F53C0000 		.4byte	0x3cf5
 12072 3b28 02       		.uleb128 0x2
 12073 3b29 B92E0000 		.4byte	0x2eb9
 12074 3b2d BD0B0000 		.4byte	.LLST21
 12075 3b31 B70B0000 		.4byte	.LVUS21
 12076 3b35 02       		.uleb128 0x2
 12077 3b36 C62E0000 		.4byte	0x2ec6
 12078 3b3a D70B0000 		.4byte	.LLST22
 12079 3b3e D50B0000 		.4byte	.LVUS22
 12080 3b42 18       		.uleb128 0x18
 12081 3b43 813A0000 		.4byte	0x3a81
 12082 3b47 00000000 		.4byte	.LBI333
 12083 3b4b 0200     		.2byte	.LVU232
 12084 3b4d 84000000 		.4byte	.LLRL23
 12085 3b51 7A01     		.2byte	0x17a
 12086 3b53 05       		.byte	0x5
 12087 3b54 793B0000 		.4byte	0x3b79
 12088 3b58 02       		.uleb128 0x2
 12089 3b59 8F3A0000 		.4byte	0x3a8f
 12090 3b5d E70B0000 		.4byte	.LLST24
 12091 3b61 E50B0000 		.4byte	.LVUS24
 12092 3b65 0E       		.uleb128 0xe
 12093 3b66 0A000000 		.4byte	.LVL30
 12094 3b6a AE130000 		.4byte	0x13ae
 12095 3b6e 01       		.uleb128 0x1
 12096 3b6f 01       		.uleb128 0x1
 12097 3b70 50       		.byte	0x50
 12098 3b71 05       		.uleb128 0x5
 12099 3b72 03       		.byte	0x3
 12100 3b73 00000000 		.4byte	.LC0
 12101 3b77 00       		.byte	0
 12102 3b78 00       		.byte	0
 12103 3b79 07       		.uleb128 0x7
 12104 3b7a 783A0000 		.4byte	0x3a78
 12105 3b7e 1A000000 		.4byte	.LBI337
 12106 3b82 0100     		.2byte	.LVU243
 12107 3b84 1A000000 		.4byte	.LBB337
 12108 3b88 06000000 		.4byte	.LBE337-.LBB337
 12109 3b8c 8101     		.2byte	0x181
ARM GAS  C:\Users\DEVELO~1\AppData\Local\Temp\cc5EUJSb.s 			page 214


 12110 3b8e 05       		.byte	0x5
 12111 3b8f 013C0000 		.4byte	0x3c01
 12112 3b93 04       		.uleb128 0x4
 12113 3b94 A63A0000 		.4byte	0x3aa6
 12114 3b98 1A000000 		.4byte	.LBI338
 12115 3b9c 0300     		.2byte	.LVU245
 12116 3b9e 1A000000 		.4byte	.LBB338
 12117 3ba2 06000000 		.4byte	.LBE338-.LBB338
 12118 3ba6 03       		.byte	0x3
 12119 3ba7 5502     		.2byte	0x255
 12120 3ba9 03       		.byte	0x3
 12121 3baa 04       		.uleb128 0x4
 12122 3bab B83A0000 		.4byte	0x3ab8
 12123 3baf 1A000000 		.4byte	.LBI339
 12124 3bb3 0500     		.2byte	.LVU247
 12125 3bb5 1A000000 		.4byte	.LBB339
 12126 3bb9 06000000 		.4byte	.LBE339-.LBB339
 12127 3bbd 04       		.byte	0x4
 12128 3bbe C501     		.2byte	0x1c5
 12129 3bc0 03       		.byte	0x3
 12130 3bc1 04       		.uleb128 0x4
 12131 3bc2 CA3A0000 		.4byte	0x3aca
 12132 3bc6 1A000000 		.4byte	.LBI340
 12133 3bca 0700     		.2byte	.LVU249
 12134 3bcc 1A000000 		.4byte	.LBB340
 12135 3bd0 06000000 		.4byte	.LBE340-.LBB340
 12136 3bd4 05       		.byte	0x5
 12137 3bd5 6003     		.2byte	0x360
 12138 3bd7 03       		.byte	0x3
 12139 3bd8 04       		.uleb128 0x4
 12140 3bd9 D33A0000 		.4byte	0x3ad3
 12141 3bdd 1A000000 		.4byte	.LBI341
 12142 3be1 0900     		.2byte	.LVU251
 12143 3be3 1A000000 		.4byte	.LBB341
 12144 3be7 06000000 		.4byte	.LBE341-.LBB341
 12145 3beb 05       		.byte	0x5
 12146 3bec 3F03     		.2byte	0x33f
 12147 3bee 03       		.byte	0x3
 12148 3bef 02       		.uleb128 0x2
 12149 3bf0 E13A0000 		.4byte	0x3ae1
 12150 3bf4 F70B0000 		.4byte	.LLST25
 12151 3bf8 F50B0000 		.4byte	.LVUS25
 12152 3bfc 00       		.byte	0
 12153 3bfd 00       		.byte	0
 12154 3bfe 00       		.byte	0
 12155 3bff 00       		.byte	0
 12156 3c00 00       		.byte	0
 12157 3c01 07       		.uleb128 0x7
 12158 3c02 463A0000 		.4byte	0x3a46
 12159 3c06 20000000 		.4byte	.LBI343
 12160 3c0a 0400     		.2byte	.LVU257
 12161 3c0c 20000000 		.4byte	.LBB343
 12162 3c10 0C000000 		.4byte	.LBE343-.LBB343
 12163 3c14 8101     		.2byte	0x181
 12164 3c16 05       		.byte	0x5
 12165 3c17 4C3C0000 		.4byte	0x3c4c
 12166 3c1b 02       		.uleb128 0x2
ARM GAS  C:\Users\DEVELO~1\AppData\Local\Temp\cc5EUJSb.s 			page 215


 12167 3c1c 613A0000 		.4byte	0x3a61
 12168 3c20 040C0000 		.4byte	.LLST26
 12169 3c24 020C0000 		.4byte	.LVUS26
 12170 3c28 02       		.uleb128 0x2
 12171 3c29 543A0000 		.4byte	0x3a54
 12172 3c2d 150C0000 		.4byte	.LLST27
 12173 3c31 0F0C0000 		.4byte	.LVUS27
 12174 3c35 0E       		.uleb128 0xe
 12175 3c36 2C000000 		.4byte	.LVL35
 12176 3c3a 4D140000 		.4byte	0x144d
 12177 3c3e 01       		.uleb128 0x1
 12178 3c3f 01       		.uleb128 0x1
 12179 3c40 50       		.byte	0x50
 12180 3c41 02       		.uleb128 0x2
 12181 3c42 74       		.byte	0x74
 12182 3c43 08       		.sleb128 8
 12183 3c44 01       		.uleb128 0x1
 12184 3c45 01       		.uleb128 0x1
 12185 3c46 51       		.byte	0x51
 12186 3c47 02       		.uleb128 0x2
 12187 3c48 09       		.byte	0x9
 12188 3c49 ED       		.byte	0xed
 12189 3c4a 00       		.byte	0
 12190 3c4b 00       		.byte	0
 12191 3c4c 07       		.uleb128 0x7
 12192 3c4d 6F3A0000 		.4byte	0x3a6f
 12193 3c51 2C000000 		.4byte	.LBI345
 12194 3c55 0200     		.2byte	.LVU262
 12195 3c57 2C000000 		.4byte	.LBB345
 12196 3c5b 06000000 		.4byte	.LBE345-.LBB345
 12197 3c5f 8101     		.2byte	0x181
 12198 3c61 05       		.byte	0x5
 12199 3c62 D43C0000 		.4byte	0x3cd4
 12200 3c66 04       		.uleb128 0x4
 12201 3c67 9D3A0000 		.4byte	0x3a9d
 12202 3c6b 2C000000 		.4byte	.LBI346
 12203 3c6f 0400     		.2byte	.LVU264
 12204 3c71 2C000000 		.4byte	.LBB346
 12205 3c75 06000000 		.4byte	.LBE346-.LBB346
 12206 3c79 03       		.byte	0x3
 12207 3c7a 6002     		.2byte	0x260
 12208 3c7c 03       		.byte	0x3
 12209 3c7d 04       		.uleb128 0x4
 12210 3c7e AF3A0000 		.4byte	0x3aaf
 12211 3c82 2C000000 		.4byte	.LBI347
 12212 3c86 0800     		.2byte	.LVU268
 12213 3c88 2C000000 		.4byte	.LBB347
 12214 3c8c 06000000 		.4byte	.LBE347-.LBB347
 12215 3c90 04       		.byte	0x4
 12216 3c91 DD01     		.2byte	0x1dd
 12217 3c93 03       		.byte	0x3
 12218 3c94 04       		.uleb128 0x4
 12219 3c95 C13A0000 		.4byte	0x3ac1
 12220 3c99 2C000000 		.4byte	.LBI348
 12221 3c9d 0A00     		.2byte	.LVU270
 12222 3c9f 2C000000 		.4byte	.LBB348
 12223 3ca3 06000000 		.4byte	.LBE348-.LBB348
ARM GAS  C:\Users\DEVELO~1\AppData\Local\Temp\cc5EUJSb.s 			page 216


 12224 3ca7 05       		.byte	0x5
 12225 3ca8 6B03     		.2byte	0x36b
 12226 3caa 03       		.byte	0x3
 12227 3cab 04       		.uleb128 0x4
 12228 3cac D33A0000 		.4byte	0x3ad3
 12229 3cb0 2C000000 		.4byte	.LBI349
 12230 3cb4 0C00     		.2byte	.LVU272
 12231 3cb6 2C000000 		.4byte	.LBB349
 12232 3cba 06000000 		.4byte	.LBE349-.LBB349
 12233 3cbe 05       		.byte	0x5
 12234 3cbf 5203     		.2byte	0x352
 12235 3cc1 03       		.byte	0x3
 12236 3cc2 02       		.uleb128 0x2
 12237 3cc3 E13A0000 		.4byte	0x3ae1
 12238 3cc7 300C0000 		.4byte	.LLST28
 12239 3ccb 2E0C0000 		.4byte	.LVUS28
 12240 3ccf 00       		.byte	0
 12241 3cd0 00       		.byte	0
 12242 3cd1 00       		.byte	0
 12243 3cd2 00       		.byte	0
 12244 3cd3 00       		.byte	0
 12245 3cd4 06       		.uleb128 0x6
 12246 3cd5 10000000 		.4byte	.LVL31
 12247 3cd9 81360000 		.4byte	0x3681
 12248 3cdd E83C0000 		.4byte	0x3ce8
 12249 3ce1 01       		.uleb128 0x1
 12250 3ce2 01       		.uleb128 0x1
 12251 3ce3 50       		.byte	0x50
 12252 3ce4 02       		.uleb128 0x2
 12253 3ce5 74       		.byte	0x74
 12254 3ce6 00       		.sleb128 0
 12255 3ce7 00       		.byte	0
 12256 3ce8 20       		.uleb128 0x20
 12257 3ce9 1A000000 		.4byte	.LVL32
 12258 3ced 01       		.uleb128 0x1
 12259 3cee 01       		.uleb128 0x1
 12260 3cef 50       		.byte	0x50
 12261 3cf0 02       		.uleb128 0x2
 12262 3cf1 74       		.byte	0x74
 12263 3cf2 00       		.sleb128 0
 12264 3cf3 00       		.byte	0
 12265 3cf4 00       		.byte	0
 12266 3cf5 3F       		.uleb128 0x3f
 12267 3cf6 66320000 		.4byte	0x3266
 12268 3cfa 00000000 		.4byte	.LFB438
 12269 3cfe 0A000000 		.4byte	.LFE438-.LFB438
 12270 3d02 01       		.uleb128 0x1
 12271 3d03 9C       		.byte	0x9c
 12272 3d04 323D0000 		.4byte	0x3d32
 12273 3d08 02       		.uleb128 0x2
 12274 3d09 74320000 		.4byte	0x3274
 12275 3d0d 3E0C0000 		.4byte	.LLST29
 12276 3d11 3A0C0000 		.4byte	.LVUS29
 12277 3d15 02       		.uleb128 0x2
 12278 3d16 81320000 		.4byte	0x3281
 12279 3d1a 550C0000 		.4byte	.LLST30
 12280 3d1e 510C0000 		.4byte	.LVUS30
ARM GAS  C:\Users\DEVELO~1\AppData\Local\Temp\cc5EUJSb.s 			page 217


 12281 3d22 58       		.uleb128 0x58
 12282 3d23 0A000000 		.4byte	.LVL39
 12283 3d27 3E       		.uleb128 0x3e
 12284 3d28 81320000 		.4byte	0x3281
 12285 3d2c 03       		.uleb128 0x3
 12286 3d2d A3       		.byte	0xa3
 12287 3d2e 01       		.uleb128 0x1
 12288 3d2f 51       		.byte	0x51
 12289 3d30 00       		.byte	0
 12290 3d31 00       		.byte	0
 12291 3d32 59       		.uleb128 0x59
 12292 3d33 AB2E0000 		.4byte	0x2eab
 12293 3d37 00000000 		.4byte	.LFB440
 12294 3d3b 0C000000 		.4byte	.LFE440-.LFB440
 12295 3d3f 01       		.uleb128 0x1
 12296 3d40 9C       		.byte	0x9c
 12297 3d41 02       		.uleb128 0x2
 12298 3d42 B92E0000 		.4byte	0x2eb9
 12299 3d46 6C0C0000 		.4byte	.LLST31
 12300 3d4a 680C0000 		.4byte	.LVUS31
 12301 3d4e 02       		.uleb128 0x2
 12302 3d4f C62E0000 		.4byte	0x2ec6
 12303 3d53 830C0000 		.4byte	.LLST32
 12304 3d57 7F0C0000 		.4byte	.LVUS32
 12305 3d5b 3B       		.uleb128 0x3b
 12306 3d5c 0C000000 		.4byte	.LVL41
 12307 3d60 153B0000 		.4byte	0x3b15
 12308 3d64 3E       		.uleb128 0x3e
 12309 3d65 C62E0000 		.4byte	0x2ec6
 12310 3d69 03       		.uleb128 0x3
 12311 3d6a A3       		.byte	0xa3
 12312 3d6b 01       		.uleb128 0x1
 12313 3d6c 51       		.byte	0x51
 12314 3d6d 00       		.byte	0
 12315 3d6e 00       		.byte	0
 12316 3d6f 00       		.byte	0
 12317              		.section	.debug_abbrev,"",%progbits
 12318              	.Ldebug_abbrev0:
 12319 0000 01       		.uleb128 0x1
 12320 0001 49       		.uleb128 0x49
 12321 0002 00       		.byte	0
 12322 0003 02       		.uleb128 0x2
 12323 0004 18       		.uleb128 0x18
 12324 0005 7E       		.uleb128 0x7e
 12325 0006 18       		.uleb128 0x18
 12326 0007 00       		.byte	0
 12327 0008 00       		.byte	0
 12328 0009 02       		.uleb128 0x2
 12329 000a 05       		.uleb128 0x5
 12330 000b 00       		.byte	0
 12331 000c 31       		.uleb128 0x31
 12332 000d 13       		.uleb128 0x13
 12333 000e 02       		.uleb128 0x2
 12334 000f 17       		.uleb128 0x17
 12335 0010 B742     		.uleb128 0x2137
 12336 0012 17       		.uleb128 0x17
 12337 0013 00       		.byte	0
ARM GAS  C:\Users\DEVELO~1\AppData\Local\Temp\cc5EUJSb.s 			page 218


 12338 0014 00       		.byte	0
 12339 0015 03       		.uleb128 0x3
 12340 0016 0D       		.uleb128 0xd
 12341 0017 00       		.byte	0
 12342 0018 03       		.uleb128 0x3
 12343 0019 0E       		.uleb128 0xe
 12344 001a 3A       		.uleb128 0x3a
 12345 001b 0B       		.uleb128 0xb
 12346 001c 3B       		.uleb128 0x3b
 12347 001d 05       		.uleb128 0x5
 12348 001e 39       		.uleb128 0x39
 12349 001f 0B       		.uleb128 0xb
 12350 0020 49       		.uleb128 0x49
 12351 0021 13       		.uleb128 0x13
 12352 0022 38       		.uleb128 0x38
 12353 0023 0B       		.uleb128 0xb
 12354 0024 00       		.byte	0
 12355 0025 00       		.byte	0
 12356 0026 04       		.uleb128 0x4
 12357 0027 1D       		.uleb128 0x1d
 12358 0028 01       		.byte	0x1
 12359 0029 31       		.uleb128 0x31
 12360 002a 13       		.uleb128 0x13
 12361 002b 52       		.uleb128 0x52
 12362 002c 01       		.uleb128 0x1
 12363 002d B842     		.uleb128 0x2138
 12364 002f 05       		.uleb128 0x5
 12365 0030 11       		.uleb128 0x11
 12366 0031 01       		.uleb128 0x1
 12367 0032 12       		.uleb128 0x12
 12368 0033 06       		.uleb128 0x6
 12369 0034 58       		.uleb128 0x58
 12370 0035 0B       		.uleb128 0xb
 12371 0036 59       		.uleb128 0x59
 12372 0037 05       		.uleb128 0x5
 12373 0038 57       		.uleb128 0x57
 12374 0039 0B       		.uleb128 0xb
 12375 003a 00       		.byte	0
 12376 003b 00       		.byte	0
 12377 003c 05       		.uleb128 0x5
 12378 003d 0D       		.uleb128 0xd
 12379 003e 00       		.byte	0
 12380 003f 03       		.uleb128 0x3
 12381 0040 0E       		.uleb128 0xe
 12382 0041 3A       		.uleb128 0x3a
 12383 0042 0B       		.uleb128 0xb
 12384 0043 3B       		.uleb128 0x3b
 12385 0044 0B       		.uleb128 0xb
 12386 0045 39       		.uleb128 0x39
 12387 0046 0B       		.uleb128 0xb
 12388 0047 49       		.uleb128 0x49
 12389 0048 13       		.uleb128 0x13
 12390 0049 38       		.uleb128 0x38
 12391 004a 0B       		.uleb128 0xb
 12392 004b 00       		.byte	0
 12393 004c 00       		.byte	0
 12394 004d 06       		.uleb128 0x6
ARM GAS  C:\Users\DEVELO~1\AppData\Local\Temp\cc5EUJSb.s 			page 219


 12395 004e 48       		.uleb128 0x48
 12396 004f 01       		.byte	0x1
 12397 0050 7D       		.uleb128 0x7d
 12398 0051 01       		.uleb128 0x1
 12399 0052 7F       		.uleb128 0x7f
 12400 0053 13       		.uleb128 0x13
 12401 0054 01       		.uleb128 0x1
 12402 0055 13       		.uleb128 0x13
 12403 0056 00       		.byte	0
 12404 0057 00       		.byte	0
 12405 0058 07       		.uleb128 0x7
 12406 0059 1D       		.uleb128 0x1d
 12407 005a 01       		.byte	0x1
 12408 005b 31       		.uleb128 0x31
 12409 005c 13       		.uleb128 0x13
 12410 005d 52       		.uleb128 0x52
 12411 005e 01       		.uleb128 0x1
 12412 005f B842     		.uleb128 0x2138
 12413 0061 05       		.uleb128 0x5
 12414 0062 11       		.uleb128 0x11
 12415 0063 01       		.uleb128 0x1
 12416 0064 12       		.uleb128 0x12
 12417 0065 06       		.uleb128 0x6
 12418 0066 58       		.uleb128 0x58
 12419 0067 21       		.uleb128 0x21
 12420 0068 01       		.sleb128 1
 12421 0069 59       		.uleb128 0x59
 12422 006a 05       		.uleb128 0x5
 12423 006b 57       		.uleb128 0x57
 12424 006c 0B       		.uleb128 0xb
 12425 006d 01       		.uleb128 0x1
 12426 006e 13       		.uleb128 0x13
 12427 006f 00       		.byte	0
 12428 0070 00       		.byte	0
 12429 0071 08       		.uleb128 0x8
 12430 0072 16       		.uleb128 0x16
 12431 0073 00       		.byte	0
 12432 0074 03       		.uleb128 0x3
 12433 0075 0E       		.uleb128 0xe
 12434 0076 3A       		.uleb128 0x3a
 12435 0077 0B       		.uleb128 0xb
 12436 0078 3B       		.uleb128 0x3b
 12437 0079 0B       		.uleb128 0xb
 12438 007a 39       		.uleb128 0x39
 12439 007b 0B       		.uleb128 0xb
 12440 007c 49       		.uleb128 0x49
 12441 007d 13       		.uleb128 0x13
 12442 007e 00       		.byte	0
 12443 007f 00       		.byte	0
 12444 0080 09       		.uleb128 0x9
 12445 0081 0F       		.uleb128 0xf
 12446 0082 00       		.byte	0
 12447 0083 0B       		.uleb128 0xb
 12448 0084 21       		.uleb128 0x21
 12449 0085 04       		.sleb128 4
 12450 0086 49       		.uleb128 0x49
 12451 0087 13       		.uleb128 0x13
ARM GAS  C:\Users\DEVELO~1\AppData\Local\Temp\cc5EUJSb.s 			page 220


 12452 0088 00       		.byte	0
 12453 0089 00       		.byte	0
 12454 008a 0A       		.uleb128 0xa
 12455 008b 0D       		.uleb128 0xd
 12456 008c 00       		.byte	0
 12457 008d 03       		.uleb128 0x3
 12458 008e 08       		.uleb128 0x8
 12459 008f 3A       		.uleb128 0x3a
 12460 0090 0B       		.uleb128 0xb
 12461 0091 3B       		.uleb128 0x3b
 12462 0092 05       		.uleb128 0x5
 12463 0093 39       		.uleb128 0x39
 12464 0094 0B       		.uleb128 0xb
 12465 0095 49       		.uleb128 0x49
 12466 0096 13       		.uleb128 0x13
 12467 0097 38       		.uleb128 0x38
 12468 0098 0B       		.uleb128 0xb
 12469 0099 00       		.byte	0
 12470 009a 00       		.byte	0
 12471 009b 0B       		.uleb128 0xb
 12472 009c 05       		.uleb128 0x5
 12473 009d 00       		.byte	0
 12474 009e 49       		.uleb128 0x49
 12475 009f 13       		.uleb128 0x13
 12476 00a0 00       		.byte	0
 12477 00a1 00       		.byte	0
 12478 00a2 0C       		.uleb128 0xc
 12479 00a3 05       		.uleb128 0x5
 12480 00a4 00       		.byte	0
 12481 00a5 03       		.uleb128 0x3
 12482 00a6 0E       		.uleb128 0xe
 12483 00a7 3A       		.uleb128 0x3a
 12484 00a8 0B       		.uleb128 0xb
 12485 00a9 3B       		.uleb128 0x3b
 12486 00aa 05       		.uleb128 0x5
 12487 00ab 39       		.uleb128 0x39
 12488 00ac 0B       		.uleb128 0xb
 12489 00ad 49       		.uleb128 0x49
 12490 00ae 13       		.uleb128 0x13
 12491 00af 00       		.byte	0
 12492 00b0 00       		.byte	0
 12493 00b1 0D       		.uleb128 0xd
 12494 00b2 05       		.uleb128 0x5
 12495 00b3 00       		.byte	0
 12496 00b4 03       		.uleb128 0x3
 12497 00b5 0E       		.uleb128 0xe
 12498 00b6 3A       		.uleb128 0x3a
 12499 00b7 21       		.uleb128 0x21
 12500 00b8 01       		.sleb128 1
 12501 00b9 3B       		.uleb128 0x3b
 12502 00ba 05       		.uleb128 0x5
 12503 00bb 39       		.uleb128 0x39
 12504 00bc 0B       		.uleb128 0xb
 12505 00bd 49       		.uleb128 0x49
 12506 00be 13       		.uleb128 0x13
 12507 00bf 02       		.uleb128 0x2
 12508 00c0 17       		.uleb128 0x17
ARM GAS  C:\Users\DEVELO~1\AppData\Local\Temp\cc5EUJSb.s 			page 221


 12509 00c1 B742     		.uleb128 0x2137
 12510 00c3 17       		.uleb128 0x17
 12511 00c4 00       		.byte	0
 12512 00c5 00       		.byte	0
 12513 00c6 0E       		.uleb128 0xe
 12514 00c7 48       		.uleb128 0x48
 12515 00c8 01       		.byte	0x1
 12516 00c9 7D       		.uleb128 0x7d
 12517 00ca 01       		.uleb128 0x1
 12518 00cb 7F       		.uleb128 0x7f
 12519 00cc 13       		.uleb128 0x13
 12520 00cd 00       		.byte	0
 12521 00ce 00       		.byte	0
 12522 00cf 0F       		.uleb128 0xf
 12523 00d0 0D       		.uleb128 0xd
 12524 00d1 00       		.byte	0
 12525 00d2 03       		.uleb128 0x3
 12526 00d3 08       		.uleb128 0x8
 12527 00d4 3A       		.uleb128 0x3a
 12528 00d5 0B       		.uleb128 0xb
 12529 00d6 3B       		.uleb128 0x3b
 12530 00d7 0B       		.uleb128 0xb
 12531 00d8 39       		.uleb128 0x39
 12532 00d9 0B       		.uleb128 0xb
 12533 00da 49       		.uleb128 0x49
 12534 00db 13       		.uleb128 0x13
 12535 00dc 38       		.uleb128 0x38
 12536 00dd 0B       		.uleb128 0xb
 12537 00de 00       		.byte	0
 12538 00df 00       		.byte	0
 12539 00e0 10       		.uleb128 0x10
 12540 00e1 13       		.uleb128 0x13
 12541 00e2 01       		.byte	0x1
 12542 00e3 03       		.uleb128 0x3
 12543 00e4 0E       		.uleb128 0xe
 12544 00e5 0B       		.uleb128 0xb
 12545 00e6 0B       		.uleb128 0xb
 12546 00e7 3A       		.uleb128 0x3a
 12547 00e8 0B       		.uleb128 0xb
 12548 00e9 3B       		.uleb128 0x3b
 12549 00ea 0B       		.uleb128 0xb
 12550 00eb 39       		.uleb128 0x39
 12551 00ec 0B       		.uleb128 0xb
 12552 00ed 01       		.uleb128 0x1
 12553 00ee 13       		.uleb128 0x13
 12554 00ef 00       		.byte	0
 12555 00f0 00       		.byte	0
 12556 00f1 11       		.uleb128 0x11
 12557 00f2 26       		.uleb128 0x26
 12558 00f3 00       		.byte	0
 12559 00f4 49       		.uleb128 0x49
 12560 00f5 13       		.uleb128 0x13
 12561 00f6 00       		.byte	0
 12562 00f7 00       		.byte	0
 12563 00f8 12       		.uleb128 0x12
 12564 00f9 05       		.uleb128 0x5
 12565 00fa 00       		.byte	0
ARM GAS  C:\Users\DEVELO~1\AppData\Local\Temp\cc5EUJSb.s 			page 222


 12566 00fb 31       		.uleb128 0x31
 12567 00fc 13       		.uleb128 0x13
 12568 00fd 00       		.byte	0
 12569 00fe 00       		.byte	0
 12570 00ff 13       		.uleb128 0x13
 12571 0100 24       		.uleb128 0x24
 12572 0101 00       		.byte	0
 12573 0102 0B       		.uleb128 0xb
 12574 0103 0B       		.uleb128 0xb
 12575 0104 3E       		.uleb128 0x3e
 12576 0105 0B       		.uleb128 0xb
 12577 0106 03       		.uleb128 0x3
 12578 0107 0E       		.uleb128 0xe
 12579 0108 00       		.byte	0
 12580 0109 00       		.byte	0
 12581 010a 14       		.uleb128 0x14
 12582 010b 01       		.uleb128 0x1
 12583 010c 01       		.byte	0x1
 12584 010d 49       		.uleb128 0x49
 12585 010e 13       		.uleb128 0x13
 12586 010f 01       		.uleb128 0x1
 12587 0110 13       		.uleb128 0x13
 12588 0111 00       		.byte	0
 12589 0112 00       		.byte	0
 12590 0113 15       		.uleb128 0x15
 12591 0114 21       		.uleb128 0x21
 12592 0115 00       		.byte	0
 12593 0116 49       		.uleb128 0x49
 12594 0117 13       		.uleb128 0x13
 12595 0118 2F       		.uleb128 0x2f
 12596 0119 0B       		.uleb128 0xb
 12597 011a 00       		.byte	0
 12598 011b 00       		.byte	0
 12599 011c 16       		.uleb128 0x16
 12600 011d 2E       		.uleb128 0x2e
 12601 011e 01       		.byte	0x1
 12602 011f 03       		.uleb128 0x3
 12603 0120 0E       		.uleb128 0xe
 12604 0121 3A       		.uleb128 0x3a
 12605 0122 0B       		.uleb128 0xb
 12606 0123 3B       		.uleb128 0x3b
 12607 0124 05       		.uleb128 0x5
 12608 0125 39       		.uleb128 0x39
 12609 0126 0B       		.uleb128 0xb
 12610 0127 27       		.uleb128 0x27
 12611 0128 19       		.uleb128 0x19
 12612 0129 20       		.uleb128 0x20
 12613 012a 0B       		.uleb128 0xb
 12614 012b 01       		.uleb128 0x1
 12615 012c 13       		.uleb128 0x13
 12616 012d 00       		.byte	0
 12617 012e 00       		.byte	0
 12618 012f 17       		.uleb128 0x17
 12619 0130 16       		.uleb128 0x16
 12620 0131 00       		.byte	0
 12621 0132 03       		.uleb128 0x3
 12622 0133 0E       		.uleb128 0xe
ARM GAS  C:\Users\DEVELO~1\AppData\Local\Temp\cc5EUJSb.s 			page 223


 12623 0134 3A       		.uleb128 0x3a
 12624 0135 0B       		.uleb128 0xb
 12625 0136 3B       		.uleb128 0x3b
 12626 0137 05       		.uleb128 0x5
 12627 0138 39       		.uleb128 0x39
 12628 0139 0B       		.uleb128 0xb
 12629 013a 49       		.uleb128 0x49
 12630 013b 13       		.uleb128 0x13
 12631 013c 00       		.byte	0
 12632 013d 00       		.byte	0
 12633 013e 18       		.uleb128 0x18
 12634 013f 1D       		.uleb128 0x1d
 12635 0140 01       		.byte	0x1
 12636 0141 31       		.uleb128 0x31
 12637 0142 13       		.uleb128 0x13
 12638 0143 52       		.uleb128 0x52
 12639 0144 01       		.uleb128 0x1
 12640 0145 B842     		.uleb128 0x2138
 12641 0147 05       		.uleb128 0x5
 12642 0148 55       		.uleb128 0x55
 12643 0149 17       		.uleb128 0x17
 12644 014a 58       		.uleb128 0x58
 12645 014b 21       		.uleb128 0x21
 12646 014c 01       		.sleb128 1
 12647 014d 59       		.uleb128 0x59
 12648 014e 05       		.uleb128 0x5
 12649 014f 57       		.uleb128 0x57
 12650 0150 0B       		.uleb128 0xb
 12651 0151 01       		.uleb128 0x1
 12652 0152 13       		.uleb128 0x13
 12653 0153 00       		.byte	0
 12654 0154 00       		.byte	0
 12655 0155 19       		.uleb128 0x19
 12656 0156 48       		.uleb128 0x48
 12657 0157 00       		.byte	0
 12658 0158 7D       		.uleb128 0x7d
 12659 0159 01       		.uleb128 0x1
 12660 015a 8201     		.uleb128 0x82
 12661 015c 19       		.uleb128 0x19
 12662 015d 7F       		.uleb128 0x7f
 12663 015e 13       		.uleb128 0x13
 12664 015f 00       		.byte	0
 12665 0160 00       		.byte	0
 12666 0161 1A       		.uleb128 0x1a
 12667 0162 13       		.uleb128 0x13
 12668 0163 01       		.byte	0x1
 12669 0164 0B       		.uleb128 0xb
 12670 0165 0B       		.uleb128 0xb
 12671 0166 3A       		.uleb128 0x3a
 12672 0167 0B       		.uleb128 0xb
 12673 0168 3B       		.uleb128 0x3b
 12674 0169 0B       		.uleb128 0xb
 12675 016a 39       		.uleb128 0x39
 12676 016b 0B       		.uleb128 0xb
 12677 016c 01       		.uleb128 0x1
 12678 016d 13       		.uleb128 0x13
 12679 016e 00       		.byte	0
ARM GAS  C:\Users\DEVELO~1\AppData\Local\Temp\cc5EUJSb.s 			page 224


 12680 016f 00       		.byte	0
 12681 0170 1B       		.uleb128 0x1b
 12682 0171 0D       		.uleb128 0xd
 12683 0172 00       		.byte	0
 12684 0173 03       		.uleb128 0x3
 12685 0174 0E       		.uleb128 0xe
 12686 0175 3A       		.uleb128 0x3a
 12687 0176 0B       		.uleb128 0xb
 12688 0177 3B       		.uleb128 0x3b
 12689 0178 0B       		.uleb128 0xb
 12690 0179 39       		.uleb128 0x39
 12691 017a 0B       		.uleb128 0xb
 12692 017b 49       		.uleb128 0x49
 12693 017c 13       		.uleb128 0x13
 12694 017d 00       		.byte	0
 12695 017e 00       		.byte	0
 12696 017f 1C       		.uleb128 0x1c
 12697 0180 0D       		.uleb128 0xd
 12698 0181 00       		.byte	0
 12699 0182 03       		.uleb128 0x3
 12700 0183 0E       		.uleb128 0xe
 12701 0184 3A       		.uleb128 0x3a
 12702 0185 21       		.uleb128 0x21
 12703 0186 13       		.sleb128 19
 12704 0187 3B       		.uleb128 0x3b
 12705 0188 05       		.uleb128 0x5
 12706 0189 39       		.uleb128 0x39
 12707 018a 0B       		.uleb128 0xb
 12708 018b 49       		.uleb128 0x49
 12709 018c 13       		.uleb128 0x13
 12710 018d 38       		.uleb128 0x38
 12711 018e 05       		.uleb128 0x5
 12712 018f 00       		.byte	0
 12713 0190 00       		.byte	0
 12714 0191 1D       		.uleb128 0x1d
 12715 0192 2E       		.uleb128 0x2e
 12716 0193 01       		.byte	0x1
 12717 0194 03       		.uleb128 0x3
 12718 0195 0E       		.uleb128 0xe
 12719 0196 3A       		.uleb128 0x3a
 12720 0197 0B       		.uleb128 0xb
 12721 0198 3B       		.uleb128 0x3b
 12722 0199 0B       		.uleb128 0xb
 12723 019a 39       		.uleb128 0x39
 12724 019b 0B       		.uleb128 0xb
 12725 019c 27       		.uleb128 0x27
 12726 019d 19       		.uleb128 0x19
 12727 019e 20       		.uleb128 0x20
 12728 019f 0B       		.uleb128 0xb
 12729 01a0 01       		.uleb128 0x1
 12730 01a1 13       		.uleb128 0x13
 12731 01a2 00       		.byte	0
 12732 01a3 00       		.byte	0
 12733 01a4 1E       		.uleb128 0x1e
 12734 01a5 05       		.uleb128 0x5
 12735 01a6 00       		.byte	0
 12736 01a7 03       		.uleb128 0x3
ARM GAS  C:\Users\DEVELO~1\AppData\Local\Temp\cc5EUJSb.s 			page 225


 12737 01a8 0E       		.uleb128 0xe
 12738 01a9 3A       		.uleb128 0x3a
 12739 01aa 0B       		.uleb128 0xb
 12740 01ab 3B       		.uleb128 0x3b
 12741 01ac 0B       		.uleb128 0xb
 12742 01ad 39       		.uleb128 0x39
 12743 01ae 0B       		.uleb128 0xb
 12744 01af 49       		.uleb128 0x49
 12745 01b0 13       		.uleb128 0x13
 12746 01b1 00       		.byte	0
 12747 01b2 00       		.byte	0
 12748 01b3 1F       		.uleb128 0x1f
 12749 01b4 1D       		.uleb128 0x1d
 12750 01b5 01       		.byte	0x1
 12751 01b6 31       		.uleb128 0x31
 12752 01b7 13       		.uleb128 0x13
 12753 01b8 52       		.uleb128 0x52
 12754 01b9 01       		.uleb128 0x1
 12755 01ba B842     		.uleb128 0x2138
 12756 01bc 05       		.uleb128 0x5
 12757 01bd 11       		.uleb128 0x11
 12758 01be 01       		.uleb128 0x1
 12759 01bf 12       		.uleb128 0x12
 12760 01c0 06       		.uleb128 0x6
 12761 01c1 58       		.uleb128 0x58
 12762 01c2 0B       		.uleb128 0xb
 12763 01c3 59       		.uleb128 0x59
 12764 01c4 0B       		.uleb128 0xb
 12765 01c5 57       		.uleb128 0x57
 12766 01c6 0B       		.uleb128 0xb
 12767 01c7 00       		.byte	0
 12768 01c8 00       		.byte	0
 12769 01c9 20       		.uleb128 0x20
 12770 01ca 48       		.uleb128 0x48
 12771 01cb 01       		.byte	0x1
 12772 01cc 7D       		.uleb128 0x7d
 12773 01cd 01       		.uleb128 0x1
 12774 01ce 00       		.byte	0
 12775 01cf 00       		.byte	0
 12776 01d0 21       		.uleb128 0x21
 12777 01d1 2E       		.uleb128 0x2e
 12778 01d2 00       		.byte	0
 12779 01d3 03       		.uleb128 0x3
 12780 01d4 0E       		.uleb128 0xe
 12781 01d5 3A       		.uleb128 0x3a
 12782 01d6 0B       		.uleb128 0xb
 12783 01d7 3B       		.uleb128 0x3b
 12784 01d8 05       		.uleb128 0x5
 12785 01d9 39       		.uleb128 0x39
 12786 01da 0B       		.uleb128 0xb
 12787 01db 27       		.uleb128 0x27
 12788 01dc 19       		.uleb128 0x19
 12789 01dd 20       		.uleb128 0x20
 12790 01de 21       		.uleb128 0x21
 12791 01df 03       		.sleb128 3
 12792 01e0 00       		.byte	0
 12793 01e1 00       		.byte	0
ARM GAS  C:\Users\DEVELO~1\AppData\Local\Temp\cc5EUJSb.s 			page 226


 12794 01e2 22       		.uleb128 0x22
 12795 01e3 0D       		.uleb128 0xd
 12796 01e4 00       		.byte	0
 12797 01e5 03       		.uleb128 0x3
 12798 01e6 08       		.uleb128 0x8
 12799 01e7 3A       		.uleb128 0x3a
 12800 01e8 0B       		.uleb128 0xb
 12801 01e9 3B       		.uleb128 0x3b
 12802 01ea 0B       		.uleb128 0xb
 12803 01eb 39       		.uleb128 0x39
 12804 01ec 0B       		.uleb128 0xb
 12805 01ed 49       		.uleb128 0x49
 12806 01ee 13       		.uleb128 0x13
 12807 01ef 00       		.byte	0
 12808 01f0 00       		.byte	0
 12809 01f1 23       		.uleb128 0x23
 12810 01f2 2E       		.uleb128 0x2e
 12811 01f3 01       		.byte	0x1
 12812 01f4 3F       		.uleb128 0x3f
 12813 01f5 19       		.uleb128 0x19
 12814 01f6 03       		.uleb128 0x3
 12815 01f7 0E       		.uleb128 0xe
 12816 01f8 3A       		.uleb128 0x3a
 12817 01f9 21       		.uleb128 0x21
 12818 01fa 01       		.sleb128 1
 12819 01fb 3B       		.uleb128 0x3b
 12820 01fc 05       		.uleb128 0x5
 12821 01fd 39       		.uleb128 0x39
 12822 01fe 0B       		.uleb128 0xb
 12823 01ff 27       		.uleb128 0x27
 12824 0200 19       		.uleb128 0x19
 12825 0201 49       		.uleb128 0x49
 12826 0202 13       		.uleb128 0x13
 12827 0203 11       		.uleb128 0x11
 12828 0204 01       		.uleb128 0x1
 12829 0205 12       		.uleb128 0x12
 12830 0206 06       		.uleb128 0x6
 12831 0207 40       		.uleb128 0x40
 12832 0208 18       		.uleb128 0x18
 12833 0209 7A       		.uleb128 0x7a
 12834 020a 19       		.uleb128 0x19
 12835 020b 01       		.uleb128 0x1
 12836 020c 13       		.uleb128 0x13
 12837 020d 00       		.byte	0
 12838 020e 00       		.byte	0
 12839 020f 24       		.uleb128 0x24
 12840 0210 34       		.uleb128 0x34
 12841 0211 00       		.byte	0
 12842 0212 03       		.uleb128 0x3
 12843 0213 0E       		.uleb128 0xe
 12844 0214 3A       		.uleb128 0x3a
 12845 0215 21       		.uleb128 0x21
 12846 0216 01       		.sleb128 1
 12847 0217 3B       		.uleb128 0x3b
 12848 0218 05       		.uleb128 0x5
 12849 0219 39       		.uleb128 0x39
 12850 021a 0B       		.uleb128 0xb
ARM GAS  C:\Users\DEVELO~1\AppData\Local\Temp\cc5EUJSb.s 			page 227


 12851 021b 49       		.uleb128 0x49
 12852 021c 13       		.uleb128 0x13
 12853 021d 02       		.uleb128 0x2
 12854 021e 17       		.uleb128 0x17
 12855 021f B742     		.uleb128 0x2137
 12856 0221 17       		.uleb128 0x17
 12857 0222 00       		.byte	0
 12858 0223 00       		.byte	0
 12859 0224 25       		.uleb128 0x25
 12860 0225 1D       		.uleb128 0x1d
 12861 0226 01       		.byte	0x1
 12862 0227 31       		.uleb128 0x31
 12863 0228 13       		.uleb128 0x13
 12864 0229 52       		.uleb128 0x52
 12865 022a 01       		.uleb128 0x1
 12866 022b B842     		.uleb128 0x2138
 12867 022d 05       		.uleb128 0x5
 12868 022e 55       		.uleb128 0x55
 12869 022f 17       		.uleb128 0x17
 12870 0230 58       		.uleb128 0x58
 12871 0231 0B       		.uleb128 0xb
 12872 0232 59       		.uleb128 0x59
 12873 0233 05       		.uleb128 0x5
 12874 0234 57       		.uleb128 0x57
 12875 0235 21       		.uleb128 0x21
 12876 0236 03       		.sleb128 3
 12877 0237 00       		.byte	0
 12878 0238 00       		.byte	0
 12879 0239 26       		.uleb128 0x26
 12880 023a 34       		.uleb128 0x34
 12881 023b 00       		.byte	0
 12882 023c 03       		.uleb128 0x3
 12883 023d 0E       		.uleb128 0xe
 12884 023e 49       		.uleb128 0x49
 12885 023f 13       		.uleb128 0x13
 12886 0240 34       		.uleb128 0x34
 12887 0241 19       		.uleb128 0x19
 12888 0242 00       		.byte	0
 12889 0243 00       		.byte	0
 12890 0244 27       		.uleb128 0x27
 12891 0245 2E       		.uleb128 0x2e
 12892 0246 01       		.byte	0x1
 12893 0247 3F       		.uleb128 0x3f
 12894 0248 19       		.uleb128 0x19
 12895 0249 03       		.uleb128 0x3
 12896 024a 0E       		.uleb128 0xe
 12897 024b 3A       		.uleb128 0x3a
 12898 024c 21       		.uleb128 0x21
 12899 024d 01       		.sleb128 1
 12900 024e 3B       		.uleb128 0x3b
 12901 024f 05       		.uleb128 0x5
 12902 0250 39       		.uleb128 0x39
 12903 0251 0B       		.uleb128 0xb
 12904 0252 27       		.uleb128 0x27
 12905 0253 19       		.uleb128 0x19
 12906 0254 11       		.uleb128 0x11
 12907 0255 01       		.uleb128 0x1
ARM GAS  C:\Users\DEVELO~1\AppData\Local\Temp\cc5EUJSb.s 			page 228


 12908 0256 12       		.uleb128 0x12
 12909 0257 06       		.uleb128 0x6
 12910 0258 40       		.uleb128 0x40
 12911 0259 18       		.uleb128 0x18
 12912 025a 7A       		.uleb128 0x7a
 12913 025b 19       		.uleb128 0x19
 12914 025c 01       		.uleb128 0x1
 12915 025d 13       		.uleb128 0x13
 12916 025e 00       		.byte	0
 12917 025f 00       		.byte	0
 12918 0260 28       		.uleb128 0x28
 12919 0261 48       		.uleb128 0x48
 12920 0262 00       		.byte	0
 12921 0263 7D       		.uleb128 0x7d
 12922 0264 01       		.uleb128 0x1
 12923 0265 7F       		.uleb128 0x7f
 12924 0266 13       		.uleb128 0x13
 12925 0267 00       		.byte	0
 12926 0268 00       		.byte	0
 12927 0269 29       		.uleb128 0x29
 12928 026a 35       		.uleb128 0x35
 12929 026b 00       		.byte	0
 12930 026c 49       		.uleb128 0x49
 12931 026d 13       		.uleb128 0x13
 12932 026e 00       		.byte	0
 12933 026f 00       		.byte	0
 12934 0270 2A       		.uleb128 0x2a
 12935 0271 17       		.uleb128 0x17
 12936 0272 01       		.byte	0x1
 12937 0273 0B       		.uleb128 0xb
 12938 0274 0B       		.uleb128 0xb
 12939 0275 3A       		.uleb128 0x3a
 12940 0276 0B       		.uleb128 0xb
 12941 0277 3B       		.uleb128 0x3b
 12942 0278 0B       		.uleb128 0xb
 12943 0279 39       		.uleb128 0x39
 12944 027a 0B       		.uleb128 0xb
 12945 027b 01       		.uleb128 0x1
 12946 027c 13       		.uleb128 0x13
 12947 027d 00       		.byte	0
 12948 027e 00       		.byte	0
 12949 027f 2B       		.uleb128 0x2b
 12950 0280 13       		.uleb128 0x13
 12951 0281 01       		.byte	0x1
 12952 0282 0B       		.uleb128 0xb
 12953 0283 0B       		.uleb128 0xb
 12954 0284 3A       		.uleb128 0x3a
 12955 0285 0B       		.uleb128 0xb
 12956 0286 3B       		.uleb128 0x3b
 12957 0287 05       		.uleb128 0x5
 12958 0288 39       		.uleb128 0x39
 12959 0289 21       		.uleb128 0x21
 12960 028a 09       		.sleb128 9
 12961 028b 01       		.uleb128 0x1
 12962 028c 13       		.uleb128 0x13
 12963 028d 00       		.byte	0
 12964 028e 00       		.byte	0
ARM GAS  C:\Users\DEVELO~1\AppData\Local\Temp\cc5EUJSb.s 			page 229


 12965 028f 2C       		.uleb128 0x2c
 12966 0290 0D       		.uleb128 0xd
 12967 0291 00       		.byte	0
 12968 0292 03       		.uleb128 0x3
 12969 0293 0E       		.uleb128 0xe
 12970 0294 3A       		.uleb128 0x3a
 12971 0295 21       		.uleb128 0x21
 12972 0296 0D       		.sleb128 13
 12973 0297 3B       		.uleb128 0x3b
 12974 0298 05       		.uleb128 0x5
 12975 0299 39       		.uleb128 0x39
 12976 029a 0B       		.uleb128 0xb
 12977 029b 49       		.uleb128 0x49
 12978 029c 13       		.uleb128 0x13
 12979 029d 00       		.byte	0
 12980 029e 00       		.byte	0
 12981 029f 2D       		.uleb128 0x2d
 12982 02a0 2E       		.uleb128 0x2e
 12983 02a1 01       		.byte	0x1
 12984 02a2 3F       		.uleb128 0x3f
 12985 02a3 19       		.uleb128 0x19
 12986 02a4 03       		.uleb128 0x3
 12987 02a5 0E       		.uleb128 0xe
 12988 02a6 3A       		.uleb128 0x3a
 12989 02a7 0B       		.uleb128 0xb
 12990 02a8 3B       		.uleb128 0x3b
 12991 02a9 05       		.uleb128 0x5
 12992 02aa 39       		.uleb128 0x39
 12993 02ab 21       		.uleb128 0x21
 12994 02ac 08       		.sleb128 8
 12995 02ad 27       		.uleb128 0x27
 12996 02ae 19       		.uleb128 0x19
 12997 02af 3C       		.uleb128 0x3c
 12998 02b0 19       		.uleb128 0x19
 12999 02b1 01       		.uleb128 0x1
 13000 02b2 13       		.uleb128 0x13
 13001 02b3 00       		.byte	0
 13002 02b4 00       		.byte	0
 13003 02b5 2E       		.uleb128 0x2e
 13004 02b6 48       		.uleb128 0x48
 13005 02b7 01       		.byte	0x1
 13006 02b8 7D       		.uleb128 0x7d
 13007 02b9 01       		.uleb128 0x1
 13008 02ba 01       		.uleb128 0x1
 13009 02bb 13       		.uleb128 0x13
 13010 02bc 00       		.byte	0
 13011 02bd 00       		.byte	0
 13012 02be 2F       		.uleb128 0x2f
 13013 02bf 28       		.uleb128 0x28
 13014 02c0 00       		.byte	0
 13015 02c1 03       		.uleb128 0x3
 13016 02c2 0E       		.uleb128 0xe
 13017 02c3 1C       		.uleb128 0x1c
 13018 02c4 0B       		.uleb128 0xb
 13019 02c5 00       		.byte	0
 13020 02c6 00       		.byte	0
 13021 02c7 30       		.uleb128 0x30
ARM GAS  C:\Users\DEVELO~1\AppData\Local\Temp\cc5EUJSb.s 			page 230


 13022 02c8 34       		.uleb128 0x34
 13023 02c9 00       		.byte	0
 13024 02ca 03       		.uleb128 0x3
 13025 02cb 0E       		.uleb128 0xe
 13026 02cc 3A       		.uleb128 0x3a
 13027 02cd 21       		.uleb128 0x21
 13028 02ce 1B       		.sleb128 27
 13029 02cf 3B       		.uleb128 0x3b
 13030 02d0 05       		.uleb128 0x5
 13031 02d1 39       		.uleb128 0x39
 13032 02d2 21       		.uleb128 0x21
 13033 02d3 12       		.sleb128 18
 13034 02d4 49       		.uleb128 0x49
 13035 02d5 13       		.uleb128 0x13
 13036 02d6 3F       		.uleb128 0x3f
 13037 02d7 19       		.uleb128 0x19
 13038 02d8 3C       		.uleb128 0x3c
 13039 02d9 19       		.uleb128 0x19
 13040 02da 00       		.byte	0
 13041 02db 00       		.byte	0
 13042 02dc 31       		.uleb128 0x31
 13043 02dd 34       		.uleb128 0x34
 13044 02de 00       		.byte	0
 13045 02df 47       		.uleb128 0x47
 13046 02e0 13       		.uleb128 0x13
 13047 02e1 3A       		.uleb128 0x3a
 13048 02e2 21       		.uleb128 0x21
 13049 02e3 01       		.sleb128 1
 13050 02e4 3B       		.uleb128 0x3b
 13051 02e5 0B       		.uleb128 0xb
 13052 02e6 39       		.uleb128 0x39
 13053 02e7 21       		.uleb128 0x21
 13054 02e8 1C       		.sleb128 28
 13055 02e9 02       		.uleb128 0x2
 13056 02ea 18       		.uleb128 0x18
 13057 02eb 00       		.byte	0
 13058 02ec 00       		.byte	0
 13059 02ed 32       		.uleb128 0x32
 13060 02ee 34       		.uleb128 0x34
 13061 02ef 00       		.byte	0
 13062 02f0 03       		.uleb128 0x3
 13063 02f1 0E       		.uleb128 0xe
 13064 02f2 49       		.uleb128 0x49
 13065 02f3 13       		.uleb128 0x13
 13066 02f4 34       		.uleb128 0x34
 13067 02f5 19       		.uleb128 0x19
 13068 02f6 02       		.uleb128 0x2
 13069 02f7 18       		.uleb128 0x18
 13070 02f8 00       		.byte	0
 13071 02f9 00       		.byte	0
 13072 02fa 33       		.uleb128 0x33
 13073 02fb 0B       		.uleb128 0xb
 13074 02fc 01       		.byte	0x1
 13075 02fd 55       		.uleb128 0x55
 13076 02fe 17       		.uleb128 0x17
 13077 02ff 00       		.byte	0
 13078 0300 00       		.byte	0
ARM GAS  C:\Users\DEVELO~1\AppData\Local\Temp\cc5EUJSb.s 			page 231


 13079 0301 34       		.uleb128 0x34
 13080 0302 34       		.uleb128 0x34
 13081 0303 00       		.byte	0
 13082 0304 31       		.uleb128 0x31
 13083 0305 13       		.uleb128 0x13
 13084 0306 02       		.uleb128 0x2
 13085 0307 17       		.uleb128 0x17
 13086 0308 B742     		.uleb128 0x2137
 13087 030a 17       		.uleb128 0x17
 13088 030b 00       		.byte	0
 13089 030c 00       		.byte	0
 13090 030d 35       		.uleb128 0x35
 13091 030e 34       		.uleb128 0x34
 13092 030f 00       		.byte	0
 13093 0310 31       		.uleb128 0x31
 13094 0311 13       		.uleb128 0x13
 13095 0312 00       		.byte	0
 13096 0313 00       		.byte	0
 13097 0314 36       		.uleb128 0x36
 13098 0315 13       		.uleb128 0x13
 13099 0316 01       		.byte	0x1
 13100 0317 03       		.uleb128 0x3
 13101 0318 0E       		.uleb128 0xe
 13102 0319 0B       		.uleb128 0xb
 13103 031a 0B       		.uleb128 0xb
 13104 031b 3A       		.uleb128 0x3a
 13105 031c 0B       		.uleb128 0xb
 13106 031d 3B       		.uleb128 0x3b
 13107 031e 05       		.uleb128 0x5
 13108 031f 39       		.uleb128 0x39
 13109 0320 0B       		.uleb128 0xb
 13110 0321 01       		.uleb128 0x1
 13111 0322 13       		.uleb128 0x13
 13112 0323 00       		.byte	0
 13113 0324 00       		.byte	0
 13114 0325 37       		.uleb128 0x37
 13115 0326 2E       		.uleb128 0x2e
 13116 0327 01       		.byte	0x1
 13117 0328 3F       		.uleb128 0x3f
 13118 0329 19       		.uleb128 0x19
 13119 032a 03       		.uleb128 0x3
 13120 032b 0E       		.uleb128 0xe
 13121 032c 3A       		.uleb128 0x3a
 13122 032d 0B       		.uleb128 0xb
 13123 032e 3B       		.uleb128 0x3b
 13124 032f 0B       		.uleb128 0xb
 13125 0330 39       		.uleb128 0x39
 13126 0331 21       		.uleb128 0x21
 13127 0332 08       		.sleb128 8
 13128 0333 27       		.uleb128 0x27
 13129 0334 19       		.uleb128 0x19
 13130 0335 3C       		.uleb128 0x3c
 13131 0336 19       		.uleb128 0x19
 13132 0337 01       		.uleb128 0x1
 13133 0338 13       		.uleb128 0x13
 13134 0339 00       		.byte	0
 13135 033a 00       		.byte	0
ARM GAS  C:\Users\DEVELO~1\AppData\Local\Temp\cc5EUJSb.s 			page 232


 13136 033b 38       		.uleb128 0x38
 13137 033c 05       		.uleb128 0x5
 13138 033d 00       		.byte	0
 13139 033e 03       		.uleb128 0x3
 13140 033f 08       		.uleb128 0x8
 13141 0340 3A       		.uleb128 0x3a
 13142 0341 0B       		.uleb128 0xb
 13143 0342 3B       		.uleb128 0x3b
 13144 0343 05       		.uleb128 0x5
 13145 0344 39       		.uleb128 0x39
 13146 0345 0B       		.uleb128 0xb
 13147 0346 49       		.uleb128 0x49
 13148 0347 13       		.uleb128 0x13
 13149 0348 00       		.byte	0
 13150 0349 00       		.byte	0
 13151 034a 39       		.uleb128 0x39
 13152 034b 0D       		.uleb128 0xd
 13153 034c 00       		.byte	0
 13154 034d 03       		.uleb128 0x3
 13155 034e 0E       		.uleb128 0xe
 13156 034f 3A       		.uleb128 0x3a
 13157 0350 21       		.uleb128 0x21
 13158 0351 12       		.sleb128 18
 13159 0352 3B       		.uleb128 0x3b
 13160 0353 0B       		.uleb128 0xb
 13161 0354 39       		.uleb128 0x39
 13162 0355 21       		.uleb128 0x21
 13163 0356 19       		.sleb128 25
 13164 0357 49       		.uleb128 0x49
 13165 0358 13       		.uleb128 0x13
 13166 0359 0D       		.uleb128 0xd
 13167 035a 0B       		.uleb128 0xb
 13168 035b 6B       		.uleb128 0x6b
 13169 035c 0B       		.uleb128 0xb
 13170 035d 00       		.byte	0
 13171 035e 00       		.byte	0
 13172 035f 3A       		.uleb128 0x3a
 13173 0360 05       		.uleb128 0x5
 13174 0361 00       		.byte	0
 13175 0362 03       		.uleb128 0x3
 13176 0363 08       		.uleb128 0x8
 13177 0364 3A       		.uleb128 0x3a
 13178 0365 21       		.uleb128 0x21
 13179 0366 01       		.sleb128 1
 13180 0367 3B       		.uleb128 0x3b
 13181 0368 05       		.uleb128 0x5
 13182 0369 39       		.uleb128 0x39
 13183 036a 0B       		.uleb128 0xb
 13184 036b 49       		.uleb128 0x49
 13185 036c 13       		.uleb128 0x13
 13186 036d 02       		.uleb128 0x2
 13187 036e 18       		.uleb128 0x18
 13188 036f 00       		.byte	0
 13189 0370 00       		.byte	0
 13190 0371 3B       		.uleb128 0x3b
 13191 0372 48       		.uleb128 0x48
 13192 0373 01       		.byte	0x1
ARM GAS  C:\Users\DEVELO~1\AppData\Local\Temp\cc5EUJSb.s 			page 233


 13193 0374 7D       		.uleb128 0x7d
 13194 0375 01       		.uleb128 0x1
 13195 0376 8201     		.uleb128 0x82
 13196 0378 19       		.uleb128 0x19
 13197 0379 7F       		.uleb128 0x7f
 13198 037a 13       		.uleb128 0x13
 13199 037b 00       		.byte	0
 13200 037c 00       		.byte	0
 13201 037d 3C       		.uleb128 0x3c
 13202 037e 1D       		.uleb128 0x1d
 13203 037f 01       		.byte	0x1
 13204 0380 31       		.uleb128 0x31
 13205 0381 13       		.uleb128 0x13
 13206 0382 52       		.uleb128 0x52
 13207 0383 01       		.uleb128 0x1
 13208 0384 B842     		.uleb128 0x2138
 13209 0386 05       		.uleb128 0x5
 13210 0387 55       		.uleb128 0x55
 13211 0388 17       		.uleb128 0x17
 13212 0389 58       		.uleb128 0x58
 13213 038a 21       		.uleb128 0x21
 13214 038b 01       		.sleb128 1
 13215 038c 59       		.uleb128 0x59
 13216 038d 0B       		.uleb128 0xb
 13217 038e 57       		.uleb128 0x57
 13218 038f 21       		.uleb128 0x21
 13219 0390 05       		.sleb128 5
 13220 0391 01       		.uleb128 0x1
 13221 0392 13       		.uleb128 0x13
 13222 0393 00       		.byte	0
 13223 0394 00       		.byte	0
 13224 0395 3D       		.uleb128 0x3d
 13225 0396 48       		.uleb128 0x48
 13226 0397 01       		.byte	0x1
 13227 0398 7D       		.uleb128 0x7d
 13228 0399 01       		.uleb128 0x1
 13229 039a 8201     		.uleb128 0x82
 13230 039c 19       		.uleb128 0x19
 13231 039d 7F       		.uleb128 0x7f
 13232 039e 13       		.uleb128 0x13
 13233 039f 01       		.uleb128 0x1
 13234 03a0 13       		.uleb128 0x13
 13235 03a1 00       		.byte	0
 13236 03a2 00       		.byte	0
 13237 03a3 3E       		.uleb128 0x3e
 13238 03a4 49       		.uleb128 0x49
 13239 03a5 00       		.byte	0
 13240 03a6 8001     		.uleb128 0x80
 13241 03a8 13       		.uleb128 0x13
 13242 03a9 7E       		.uleb128 0x7e
 13243 03aa 18       		.uleb128 0x18
 13244 03ab 00       		.byte	0
 13245 03ac 00       		.byte	0
 13246 03ad 3F       		.uleb128 0x3f
 13247 03ae 2E       		.uleb128 0x2e
 13248 03af 01       		.byte	0x1
 13249 03b0 31       		.uleb128 0x31
ARM GAS  C:\Users\DEVELO~1\AppData\Local\Temp\cc5EUJSb.s 			page 234


 13250 03b1 13       		.uleb128 0x13
 13251 03b2 11       		.uleb128 0x11
 13252 03b3 01       		.uleb128 0x1
 13253 03b4 12       		.uleb128 0x12
 13254 03b5 06       		.uleb128 0x6
 13255 03b6 40       		.uleb128 0x40
 13256 03b7 18       		.uleb128 0x18
 13257 03b8 7A       		.uleb128 0x7a
 13258 03b9 19       		.uleb128 0x19
 13259 03ba 01       		.uleb128 0x1
 13260 03bb 13       		.uleb128 0x13
 13261 03bc 00       		.byte	0
 13262 03bd 00       		.byte	0
 13263 03be 40       		.uleb128 0x40
 13264 03bf 15       		.uleb128 0x15
 13265 03c0 01       		.byte	0x1
 13266 03c1 27       		.uleb128 0x27
 13267 03c2 19       		.uleb128 0x19
 13268 03c3 01       		.uleb128 0x1
 13269 03c4 13       		.uleb128 0x13
 13270 03c5 00       		.byte	0
 13271 03c6 00       		.byte	0
 13272 03c7 41       		.uleb128 0x41
 13273 03c8 2E       		.uleb128 0x2e
 13274 03c9 01       		.byte	0x1
 13275 03ca 3F       		.uleb128 0x3f
 13276 03cb 19       		.uleb128 0x19
 13277 03cc 03       		.uleb128 0x3
 13278 03cd 0E       		.uleb128 0xe
 13279 03ce 3A       		.uleb128 0x3a
 13280 03cf 0B       		.uleb128 0xb
 13281 03d0 3B       		.uleb128 0x3b
 13282 03d1 05       		.uleb128 0x5
 13283 03d2 39       		.uleb128 0x39
 13284 03d3 0B       		.uleb128 0xb
 13285 03d4 27       		.uleb128 0x27
 13286 03d5 19       		.uleb128 0x19
 13287 03d6 49       		.uleb128 0x49
 13288 03d7 13       		.uleb128 0x13
 13289 03d8 3C       		.uleb128 0x3c
 13290 03d9 19       		.uleb128 0x19
 13291 03da 01       		.uleb128 0x1
 13292 03db 13       		.uleb128 0x13
 13293 03dc 00       		.byte	0
 13294 03dd 00       		.byte	0
 13295 03de 42       		.uleb128 0x42
 13296 03df 0B       		.uleb128 0xb
 13297 03e0 01       		.byte	0x1
 13298 03e1 55       		.uleb128 0x55
 13299 03e2 17       		.uleb128 0x17
 13300 03e3 01       		.uleb128 0x1
 13301 03e4 13       		.uleb128 0x13
 13302 03e5 00       		.byte	0
 13303 03e6 00       		.byte	0
 13304 03e7 43       		.uleb128 0x43
 13305 03e8 34       		.uleb128 0x34
 13306 03e9 00       		.byte	0
ARM GAS  C:\Users\DEVELO~1\AppData\Local\Temp\cc5EUJSb.s 			page 235


 13307 03ea 03       		.uleb128 0x3
 13308 03eb 08       		.uleb128 0x8
 13309 03ec 3A       		.uleb128 0x3a
 13310 03ed 21       		.uleb128 0x21
 13311 03ee 01       		.sleb128 1
 13312 03ef 3B       		.uleb128 0x3b
 13313 03f0 05       		.uleb128 0x5
 13314 03f1 39       		.uleb128 0x39
 13315 03f2 21       		.uleb128 0x21
 13316 03f3 09       		.sleb128 9
 13317 03f4 49       		.uleb128 0x49
 13318 03f5 13       		.uleb128 0x13
 13319 03f6 02       		.uleb128 0x2
 13320 03f7 17       		.uleb128 0x17
 13321 03f8 B742     		.uleb128 0x2137
 13322 03fa 17       		.uleb128 0x17
 13323 03fb 00       		.byte	0
 13324 03fc 00       		.byte	0
 13325 03fd 44       		.uleb128 0x44
 13326 03fe 2E       		.uleb128 0x2e
 13327 03ff 01       		.byte	0x1
 13328 0400 03       		.uleb128 0x3
 13329 0401 0E       		.uleb128 0xe
 13330 0402 3A       		.uleb128 0x3a
 13331 0403 21       		.uleb128 0x21
 13332 0404 01       		.sleb128 1
 13333 0405 3B       		.uleb128 0x3b
 13334 0406 05       		.uleb128 0x5
 13335 0407 39       		.uleb128 0x39
 13336 0408 21       		.uleb128 0x21
 13337 0409 0E       		.sleb128 14
 13338 040a 27       		.uleb128 0x27
 13339 040b 19       		.uleb128 0x19
 13340 040c 49       		.uleb128 0x49
 13341 040d 13       		.uleb128 0x13
 13342 040e 20       		.uleb128 0x20
 13343 040f 21       		.uleb128 0x21
 13344 0410 01       		.sleb128 1
 13345 0411 01       		.uleb128 0x1
 13346 0412 13       		.uleb128 0x13
 13347 0413 00       		.byte	0
 13348 0414 00       		.byte	0
 13349 0415 45       		.uleb128 0x45
 13350 0416 2E       		.uleb128 0x2e
 13351 0417 01       		.byte	0x1
 13352 0418 03       		.uleb128 0x3
 13353 0419 0E       		.uleb128 0xe
 13354 041a 3A       		.uleb128 0x3a
 13355 041b 21       		.uleb128 0x21
 13356 041c 01       		.sleb128 1
 13357 041d 3B       		.uleb128 0x3b
 13358 041e 05       		.uleb128 0x5
 13359 041f 39       		.uleb128 0x39
 13360 0420 21       		.uleb128 0x21
 13361 0421 0D       		.sleb128 13
 13362 0422 27       		.uleb128 0x27
 13363 0423 19       		.uleb128 0x19
ARM GAS  C:\Users\DEVELO~1\AppData\Local\Temp\cc5EUJSb.s 			page 236


 13364 0424 11       		.uleb128 0x11
 13365 0425 01       		.uleb128 0x1
 13366 0426 12       		.uleb128 0x12
 13367 0427 06       		.uleb128 0x6
 13368 0428 40       		.uleb128 0x40
 13369 0429 18       		.uleb128 0x18
 13370 042a 7A       		.uleb128 0x7a
 13371 042b 19       		.uleb128 0x19
 13372 042c 01       		.uleb128 0x1
 13373 042d 13       		.uleb128 0x13
 13374 042e 00       		.byte	0
 13375 042f 00       		.byte	0
 13376 0430 46       		.uleb128 0x46
 13377 0431 05       		.uleb128 0x5
 13378 0432 00       		.byte	0
 13379 0433 03       		.uleb128 0x3
 13380 0434 0E       		.uleb128 0xe
 13381 0435 3A       		.uleb128 0x3a
 13382 0436 21       		.uleb128 0x21
 13383 0437 01       		.sleb128 1
 13384 0438 3B       		.uleb128 0x3b
 13385 0439 0B       		.uleb128 0xb
 13386 043a 39       		.uleb128 0x39
 13387 043b 0B       		.uleb128 0xb
 13388 043c 49       		.uleb128 0x49
 13389 043d 13       		.uleb128 0x13
 13390 043e 02       		.uleb128 0x2
 13391 043f 17       		.uleb128 0x17
 13392 0440 B742     		.uleb128 0x2137
 13393 0442 17       		.uleb128 0x17
 13394 0443 00       		.byte	0
 13395 0444 00       		.byte	0
 13396 0445 47       		.uleb128 0x47
 13397 0446 1D       		.uleb128 0x1d
 13398 0447 01       		.byte	0x1
 13399 0448 31       		.uleb128 0x31
 13400 0449 13       		.uleb128 0x13
 13401 044a 52       		.uleb128 0x52
 13402 044b 01       		.uleb128 0x1
 13403 044c B842     		.uleb128 0x2138
 13404 044e 05       		.uleb128 0x5
 13405 044f 11       		.uleb128 0x11
 13406 0450 01       		.uleb128 0x1
 13407 0451 12       		.uleb128 0x12
 13408 0452 06       		.uleb128 0x6
 13409 0453 58       		.uleb128 0x58
 13410 0454 21       		.uleb128 0x21
 13411 0455 01       		.sleb128 1
 13412 0456 59       		.uleb128 0x59
 13413 0457 0B       		.uleb128 0xb
 13414 0458 57       		.uleb128 0x57
 13415 0459 21       		.uleb128 0x21
 13416 045a 05       		.sleb128 5
 13417 045b 01       		.uleb128 0x1
 13418 045c 13       		.uleb128 0x13
 13419 045d 00       		.byte	0
 13420 045e 00       		.byte	0
ARM GAS  C:\Users\DEVELO~1\AppData\Local\Temp\cc5EUJSb.s 			page 237


 13421 045f 48       		.uleb128 0x48
 13422 0460 11       		.uleb128 0x11
 13423 0461 01       		.byte	0x1
 13424 0462 25       		.uleb128 0x25
 13425 0463 0E       		.uleb128 0xe
 13426 0464 13       		.uleb128 0x13
 13427 0465 0B       		.uleb128 0xb
 13428 0466 03       		.uleb128 0x3
 13429 0467 0E       		.uleb128 0xe
 13430 0468 1B       		.uleb128 0x1b
 13431 0469 0E       		.uleb128 0xe
 13432 046a 55       		.uleb128 0x55
 13433 046b 17       		.uleb128 0x17
 13434 046c 11       		.uleb128 0x11
 13435 046d 01       		.uleb128 0x1
 13436 046e 10       		.uleb128 0x10
 13437 046f 17       		.uleb128 0x17
 13438 0470 00       		.byte	0
 13439 0471 00       		.byte	0
 13440 0472 49       		.uleb128 0x49
 13441 0473 24       		.uleb128 0x24
 13442 0474 00       		.byte	0
 13443 0475 0B       		.uleb128 0xb
 13444 0476 0B       		.uleb128 0xb
 13445 0477 3E       		.uleb128 0x3e
 13446 0478 0B       		.uleb128 0xb
 13447 0479 03       		.uleb128 0x3
 13448 047a 08       		.uleb128 0x8
 13449 047b 00       		.byte	0
 13450 047c 00       		.byte	0
 13451 047d 4A       		.uleb128 0x4a
 13452 047e 13       		.uleb128 0x13
 13453 047f 01       		.byte	0x1
 13454 0480 03       		.uleb128 0x3
 13455 0481 0E       		.uleb128 0xe
 13456 0482 0B       		.uleb128 0xb
 13457 0483 05       		.uleb128 0x5
 13458 0484 3A       		.uleb128 0x3a
 13459 0485 0B       		.uleb128 0xb
 13460 0486 3B       		.uleb128 0x3b
 13461 0487 05       		.uleb128 0x5
 13462 0488 39       		.uleb128 0x39
 13463 0489 0B       		.uleb128 0xb
 13464 048a 01       		.uleb128 0x1
 13465 048b 13       		.uleb128 0x13
 13466 048c 00       		.byte	0
 13467 048d 00       		.byte	0
 13468 048e 4B       		.uleb128 0x4b
 13469 048f 0F       		.uleb128 0xf
 13470 0490 00       		.byte	0
 13471 0491 0B       		.uleb128 0xb
 13472 0492 0B       		.uleb128 0xb
 13473 0493 00       		.byte	0
 13474 0494 00       		.byte	0
 13475 0495 4C       		.uleb128 0x4c
 13476 0496 13       		.uleb128 0x13
 13477 0497 01       		.byte	0x1
ARM GAS  C:\Users\DEVELO~1\AppData\Local\Temp\cc5EUJSb.s 			page 238


 13478 0498 0B       		.uleb128 0xb
 13479 0499 05       		.uleb128 0x5
 13480 049a 3A       		.uleb128 0x3a
 13481 049b 0B       		.uleb128 0xb
 13482 049c 3B       		.uleb128 0x3b
 13483 049d 0B       		.uleb128 0xb
 13484 049e 39       		.uleb128 0x39
 13485 049f 0B       		.uleb128 0xb
 13486 04a0 01       		.uleb128 0x1
 13487 04a1 13       		.uleb128 0x13
 13488 04a2 00       		.byte	0
 13489 04a3 00       		.byte	0
 13490 04a4 4D       		.uleb128 0x4d
 13491 04a5 13       		.uleb128 0x13
 13492 04a6 01       		.byte	0x1
 13493 04a7 0B       		.uleb128 0xb
 13494 04a8 05       		.uleb128 0x5
 13495 04a9 3A       		.uleb128 0x3a
 13496 04aa 0B       		.uleb128 0xb
 13497 04ab 3B       		.uleb128 0x3b
 13498 04ac 05       		.uleb128 0x5
 13499 04ad 39       		.uleb128 0x39
 13500 04ae 0B       		.uleb128 0xb
 13501 04af 01       		.uleb128 0x1
 13502 04b0 13       		.uleb128 0x13
 13503 04b1 00       		.byte	0
 13504 04b2 00       		.byte	0
 13505 04b3 4E       		.uleb128 0x4e
 13506 04b4 04       		.uleb128 0x4
 13507 04b5 01       		.byte	0x1
 13508 04b6 3E       		.uleb128 0x3e
 13509 04b7 0B       		.uleb128 0xb
 13510 04b8 0B       		.uleb128 0xb
 13511 04b9 0B       		.uleb128 0xb
 13512 04ba 49       		.uleb128 0x49
 13513 04bb 13       		.uleb128 0x13
 13514 04bc 3A       		.uleb128 0x3a
 13515 04bd 0B       		.uleb128 0xb
 13516 04be 3B       		.uleb128 0x3b
 13517 04bf 0B       		.uleb128 0xb
 13518 04c0 39       		.uleb128 0x39
 13519 04c1 0B       		.uleb128 0xb
 13520 04c2 01       		.uleb128 0x1
 13521 04c3 13       		.uleb128 0x13
 13522 04c4 00       		.byte	0
 13523 04c5 00       		.byte	0
 13524 04c6 4F       		.uleb128 0x4f
 13525 04c7 2E       		.uleb128 0x2e
 13526 04c8 00       		.byte	0
 13527 04c9 3F       		.uleb128 0x3f
 13528 04ca 19       		.uleb128 0x19
 13529 04cb 03       		.uleb128 0x3
 13530 04cc 0E       		.uleb128 0xe
 13531 04cd 3A       		.uleb128 0x3a
 13532 04ce 0B       		.uleb128 0xb
 13533 04cf 3B       		.uleb128 0x3b
 13534 04d0 05       		.uleb128 0x5
ARM GAS  C:\Users\DEVELO~1\AppData\Local\Temp\cc5EUJSb.s 			page 239


 13535 04d1 39       		.uleb128 0x39
 13536 04d2 0B       		.uleb128 0xb
 13537 04d3 27       		.uleb128 0x27
 13538 04d4 19       		.uleb128 0x19
 13539 04d5 3C       		.uleb128 0x3c
 13540 04d6 19       		.uleb128 0x19
 13541 04d7 00       		.byte	0
 13542 04d8 00       		.byte	0
 13543 04d9 50       		.uleb128 0x50
 13544 04da 26       		.uleb128 0x26
 13545 04db 00       		.byte	0
 13546 04dc 00       		.byte	0
 13547 04dd 00       		.byte	0
 13548 04de 51       		.uleb128 0x51
 13549 04df 05       		.uleb128 0x5
 13550 04e0 00       		.byte	0
 13551 04e1 03       		.uleb128 0x3
 13552 04e2 08       		.uleb128 0x8
 13553 04e3 3A       		.uleb128 0x3a
 13554 04e4 0B       		.uleb128 0xb
 13555 04e5 3B       		.uleb128 0x3b
 13556 04e6 05       		.uleb128 0x5
 13557 04e7 39       		.uleb128 0x39
 13558 04e8 0B       		.uleb128 0xb
 13559 04e9 49       		.uleb128 0x49
 13560 04ea 13       		.uleb128 0x13
 13561 04eb 02       		.uleb128 0x2
 13562 04ec 17       		.uleb128 0x17
 13563 04ed B742     		.uleb128 0x2137
 13564 04ef 17       		.uleb128 0x17
 13565 04f0 00       		.byte	0
 13566 04f1 00       		.byte	0
 13567 04f2 52       		.uleb128 0x52
 13568 04f3 05       		.uleb128 0x5
 13569 04f4 00       		.byte	0
 13570 04f5 31       		.uleb128 0x31
 13571 04f6 13       		.uleb128 0x13
 13572 04f7 1C       		.uleb128 0x1c
 13573 04f8 05       		.uleb128 0x5
 13574 04f9 00       		.byte	0
 13575 04fa 00       		.byte	0
 13576 04fb 53       		.uleb128 0x53
 13577 04fc 34       		.uleb128 0x34
 13578 04fd 00       		.byte	0
 13579 04fe 03       		.uleb128 0x3
 13580 04ff 08       		.uleb128 0x8
 13581 0500 3A       		.uleb128 0x3a
 13582 0501 0B       		.uleb128 0xb
 13583 0502 3B       		.uleb128 0x3b
 13584 0503 05       		.uleb128 0x5
 13585 0504 39       		.uleb128 0x39
 13586 0505 0B       		.uleb128 0xb
 13587 0506 49       		.uleb128 0x49
 13588 0507 13       		.uleb128 0x13
 13589 0508 00       		.byte	0
 13590 0509 00       		.byte	0
 13591 050a 54       		.uleb128 0x54
ARM GAS  C:\Users\DEVELO~1\AppData\Local\Temp\cc5EUJSb.s 			page 240


 13592 050b 2E       		.uleb128 0x2e
 13593 050c 01       		.byte	0x1
 13594 050d 03       		.uleb128 0x3
 13595 050e 0E       		.uleb128 0xe
 13596 050f 3A       		.uleb128 0x3a
 13597 0510 0B       		.uleb128 0xb
 13598 0511 3B       		.uleb128 0x3b
 13599 0512 0B       		.uleb128 0xb
 13600 0513 39       		.uleb128 0x39
 13601 0514 0B       		.uleb128 0xb
 13602 0515 27       		.uleb128 0x27
 13603 0516 19       		.uleb128 0x19
 13604 0517 49       		.uleb128 0x49
 13605 0518 13       		.uleb128 0x13
 13606 0519 11       		.uleb128 0x11
 13607 051a 01       		.uleb128 0x1
 13608 051b 12       		.uleb128 0x12
 13609 051c 06       		.uleb128 0x6
 13610 051d 40       		.uleb128 0x40
 13611 051e 18       		.uleb128 0x18
 13612 051f 7A       		.uleb128 0x7a
 13613 0520 19       		.uleb128 0x19
 13614 0521 01       		.uleb128 0x1
 13615 0522 13       		.uleb128 0x13
 13616 0523 00       		.byte	0
 13617 0524 00       		.byte	0
 13618 0525 55       		.uleb128 0x55
 13619 0526 2E       		.uleb128 0x2e
 13620 0527 01       		.byte	0x1
 13621 0528 03       		.uleb128 0x3
 13622 0529 0E       		.uleb128 0xe
 13623 052a 3A       		.uleb128 0x3a
 13624 052b 0B       		.uleb128 0xb
 13625 052c 3B       		.uleb128 0x3b
 13626 052d 0B       		.uleb128 0xb
 13627 052e 39       		.uleb128 0x39
 13628 052f 0B       		.uleb128 0xb
 13629 0530 27       		.uleb128 0x27
 13630 0531 19       		.uleb128 0x19
 13631 0532 11       		.uleb128 0x11
 13632 0533 01       		.uleb128 0x1
 13633 0534 12       		.uleb128 0x12
 13634 0535 06       		.uleb128 0x6
 13635 0536 40       		.uleb128 0x40
 13636 0537 18       		.uleb128 0x18
 13637 0538 7A       		.uleb128 0x7a
 13638 0539 19       		.uleb128 0x19
 13639 053a 01       		.uleb128 0x1
 13640 053b 13       		.uleb128 0x13
 13641 053c 00       		.byte	0
 13642 053d 00       		.byte	0
 13643 053e 56       		.uleb128 0x56
 13644 053f 1D       		.uleb128 0x1d
 13645 0540 01       		.byte	0x1
 13646 0541 31       		.uleb128 0x31
 13647 0542 13       		.uleb128 0x13
 13648 0543 52       		.uleb128 0x52
ARM GAS  C:\Users\DEVELO~1\AppData\Local\Temp\cc5EUJSb.s 			page 241


 13649 0544 01       		.uleb128 0x1
 13650 0545 B842     		.uleb128 0x2138
 13651 0547 05       		.uleb128 0x5
 13652 0548 55       		.uleb128 0x55
 13653 0549 17       		.uleb128 0x17
 13654 054a 58       		.uleb128 0x58
 13655 054b 0B       		.uleb128 0xb
 13656 054c 59       		.uleb128 0x59
 13657 054d 0B       		.uleb128 0xb
 13658 054e 57       		.uleb128 0x57
 13659 054f 0B       		.uleb128 0xb
 13660 0550 00       		.byte	0
 13661 0551 00       		.byte	0
 13662 0552 57       		.uleb128 0x57
 13663 0553 05       		.uleb128 0x5
 13664 0554 00       		.byte	0
 13665 0555 03       		.uleb128 0x3
 13666 0556 08       		.uleb128 0x8
 13667 0557 3A       		.uleb128 0x3a
 13668 0558 0B       		.uleb128 0xb
 13669 0559 3B       		.uleb128 0x3b
 13670 055a 0B       		.uleb128 0xb
 13671 055b 39       		.uleb128 0x39
 13672 055c 0B       		.uleb128 0xb
 13673 055d 49       		.uleb128 0x49
 13674 055e 13       		.uleb128 0x13
 13675 055f 00       		.byte	0
 13676 0560 00       		.byte	0
 13677 0561 58       		.uleb128 0x58
 13678 0562 48       		.uleb128 0x48
 13679 0563 01       		.byte	0x1
 13680 0564 7D       		.uleb128 0x7d
 13681 0565 01       		.uleb128 0x1
 13682 0566 8201     		.uleb128 0x82
 13683 0568 19       		.uleb128 0x19
 13684 0569 00       		.byte	0
 13685 056a 00       		.byte	0
 13686 056b 59       		.uleb128 0x59
 13687 056c 2E       		.uleb128 0x2e
 13688 056d 01       		.byte	0x1
 13689 056e 31       		.uleb128 0x31
 13690 056f 13       		.uleb128 0x13
 13691 0570 11       		.uleb128 0x11
 13692 0571 01       		.uleb128 0x1
 13693 0572 12       		.uleb128 0x12
 13694 0573 06       		.uleb128 0x6
 13695 0574 40       		.uleb128 0x40
 13696 0575 18       		.uleb128 0x18
 13697 0576 7A       		.uleb128 0x7a
 13698 0577 19       		.uleb128 0x19
 13699 0578 00       		.byte	0
 13700 0579 00       		.byte	0
 13701 057a 00       		.byte	0
 13702              		.section	.debug_loclists,"",%progbits
 13703 0000 920C0000 		.4byte	.Ldebug_loc3-.Ldebug_loc2
 13704              	.Ldebug_loc2:
 13705 0004 0500     		.2byte	0x5
ARM GAS  C:\Users\DEVELO~1\AppData\Local\Temp\cc5EUJSb.s 			page 242


 13706 0006 04       		.byte	0x4
 13707 0007 00       		.byte	0
 13708 0008 00000000 		.4byte	0
 13709              	.Ldebug_loc0:
 13710              	.LVUS165:
 13711 000c 00       		.uleb128 0
 13712 000d 00       		.uleb128 .LVU1704
 13713 000e 00       		.uleb128 .LVU1704
 13714 000f 00       		.uleb128 .LVU1723
 13715 0010 00       		.uleb128 .LVU1723
 13716 0011 00       		.uleb128 .LVU1736
 13717 0012 00       		.uleb128 .LVU1736
 13718 0013 00       		.uleb128 .LVU1738
 13719 0014 00       		.uleb128 .LVU1738
 13720 0015 00       		.uleb128 .LVU1746
 13721 0016 00       		.uleb128 .LVU1746
 13722 0017 00       		.uleb128 0
 13723              	.LLST165:
 13724 0018 06       		.byte	0x6
 13725 0019 00000000 		.4byte	.LVL287
 13726 001d 04       		.byte	0x4
 13727 001e 00       		.uleb128 .LVL287-.LVL287
 13728 001f 40       		.uleb128 .LVL294-.LVL287
 13729 0020 01       		.uleb128 0x1
 13730 0021 50       		.byte	0x50
 13731 0022 04       		.byte	0x4
 13732 0023 40       		.uleb128 .LVL294-.LVL287
 13733 0024 5A       		.uleb128 .LVL296-.LVL287
 13734 0025 04       		.uleb128 0x4
 13735 0026 A3       		.byte	0xa3
 13736 0027 01       		.uleb128 0x1
 13737 0028 50       		.byte	0x50
 13738 0029 9F       		.byte	0x9f
 13739 002a 04       		.byte	0x4
 13740 002b 5A       		.uleb128 .LVL296-.LVL287
 13741 002c 6C       		.uleb128 .LVL299-.LVL287
 13742 002d 01       		.uleb128 0x1
 13743 002e 50       		.byte	0x50
 13744 002f 04       		.byte	0x4
 13745 0030 6C       		.uleb128 .LVL299-.LVL287
 13746 0031 72       		.uleb128 .LVL301-.LVL287
 13747 0032 04       		.uleb128 0x4
 13748 0033 A3       		.byte	0xa3
 13749 0034 01       		.uleb128 0x1
 13750 0035 50       		.byte	0x50
 13751 0036 9F       		.byte	0x9f
 13752 0037 04       		.byte	0x4
 13753 0038 72       		.uleb128 .LVL301-.LVL287
 13754 0039 7C       		.uleb128 .LVL302-.LVL287
 13755 003a 01       		.uleb128 0x1
 13756 003b 50       		.byte	0x50
 13757 003c 04       		.byte	0x4
 13758 003d 7C       		.uleb128 .LVL302-.LVL287
 13759 003e 8001     		.uleb128 .LFE457-.LVL287
 13760 0040 04       		.uleb128 0x4
 13761 0041 A3       		.byte	0xa3
 13762 0042 01       		.uleb128 0x1
ARM GAS  C:\Users\DEVELO~1\AppData\Local\Temp\cc5EUJSb.s 			page 243


 13763 0043 50       		.byte	0x50
 13764 0044 9F       		.byte	0x9f
 13765 0045 00       		.byte	0
 13766              	.LVUS166:
 13767 0046 00       		.uleb128 0
 13768 0047 00       		.uleb128 .LVU1692
 13769 0048 00       		.uleb128 .LVU1692
 13770 0049 00       		.uleb128 .LVU1723
 13771 004a 00       		.uleb128 .LVU1723
 13772 004b 00       		.uleb128 .LVU1729
 13773 004c 00       		.uleb128 .LVU1729
 13774 004d 00       		.uleb128 .LVU1738
 13775 004e 00       		.uleb128 .LVU1738
 13776 004f 00       		.uleb128 0
 13777              	.LLST166:
 13778 0050 06       		.byte	0x6
 13779 0051 00000000 		.4byte	.LVL287
 13780 0055 04       		.byte	0x4
 13781 0056 00       		.uleb128 .LVL287-.LVL287
 13782 0057 2A       		.uleb128 .LVL292-.LVL287
 13783 0058 01       		.uleb128 0x1
 13784 0059 51       		.byte	0x51
 13785 005a 04       		.byte	0x4
 13786 005b 2A       		.uleb128 .LVL292-.LVL287
 13787 005c 5A       		.uleb128 .LVL296-.LVL287
 13788 005d 04       		.uleb128 0x4
 13789 005e A3       		.byte	0xa3
 13790 005f 01       		.uleb128 0x1
 13791 0060 51       		.byte	0x51
 13792 0061 9F       		.byte	0x9f
 13793 0062 04       		.byte	0x4
 13794 0063 5A       		.uleb128 .LVL296-.LVL287
 13795 0064 62       		.uleb128 .LVL298-.LVL287
 13796 0065 01       		.uleb128 0x1
 13797 0066 51       		.byte	0x51
 13798 0067 04       		.byte	0x4
 13799 0068 62       		.uleb128 .LVL298-.LVL287
 13800 0069 72       		.uleb128 .LVL301-.LVL287
 13801 006a 04       		.uleb128 0x4
 13802 006b A3       		.byte	0xa3
 13803 006c 01       		.uleb128 0x1
 13804 006d 51       		.byte	0x51
 13805 006e 9F       		.byte	0x9f
 13806 006f 04       		.byte	0x4
 13807 0070 72       		.uleb128 .LVL301-.LVL287
 13808 0071 8001     		.uleb128 .LFE457-.LVL287
 13809 0073 01       		.uleb128 0x1
 13810 0074 51       		.byte	0x51
 13811 0075 00       		.byte	0
 13812              	.LVUS167:
 13813 0076 00       		.uleb128 .LVU1674
 13814 0077 00       		.uleb128 0
 13815              	.LLST167:
 13816 0078 08       		.byte	0x8
 13817 0079 12000000 		.4byte	.LVL288
 13818 007d 6E       		.uleb128 .LFE457-.LVL288
 13819 007e 01       		.uleb128 0x1
ARM GAS  C:\Users\DEVELO~1\AppData\Local\Temp\cc5EUJSb.s 			page 244


 13820 007f 5C       		.byte	0x5c
 13821 0080 00       		.byte	0
 13822              	.LVUS168:
 13823 0081 00       		.uleb128 .LVU1704
 13824 0082 00       		.uleb128 .LVU1723
 13825 0083 00       		.uleb128 .LVU1737
 13826 0084 00       		.uleb128 .LVU1738
 13827 0085 00       		.uleb128 .LVU1746
 13828 0086 00       		.uleb128 0
 13829              	.LLST168:
 13830 0087 06       		.byte	0x6
 13831 0088 40000000 		.4byte	.LVL294
 13832 008c 04       		.byte	0x4
 13833 008d 00       		.uleb128 .LVL294-.LVL294
 13834 008e 1A       		.uleb128 .LVL296-.LVL294
 13835 008f 01       		.uleb128 0x1
 13836 0090 50       		.byte	0x50
 13837 0091 04       		.byte	0x4
 13838 0092 30       		.uleb128 .LVL300-.LVL294
 13839 0093 32       		.uleb128 .LVL301-.LVL294
 13840 0094 01       		.uleb128 0x1
 13841 0095 50       		.byte	0x50
 13842 0096 04       		.byte	0x4
 13843 0097 3C       		.uleb128 .LVL302-.LVL294
 13844 0098 40       		.uleb128 .LFE457-.LVL294
 13845 0099 01       		.uleb128 0x1
 13846 009a 50       		.byte	0x50
 13847 009b 00       		.byte	0
 13848              	.LVUS172:
 13849 009c 01       		.uleb128 .LVU1689
 13850 009d 00       		.uleb128 .LVU1701
 13851              	.LLST172:
 13852 009e 08       		.byte	0x8
 13853 009f 28000000 		.4byte	.LVL291
 13854 00a3 14       		.uleb128 .LVL293-.LVL291
 13855 00a4 03       		.uleb128 0x3
 13856 00a5 73       		.byte	0x73
 13857 00a6 20       		.sleb128 32
 13858 00a7 9F       		.byte	0x9f
 13859 00a8 00       		.byte	0
 13860              	.LVUS173:
 13861 00a9 02       		.uleb128 .LVU1690
 13862 00aa 00       		.uleb128 .LVU1701
 13863              	.LLST173:
 13864 00ab 08       		.byte	0x8
 13865 00ac 28000000 		.4byte	.LVL291
 13866 00b0 14       		.uleb128 .LVL293-.LVL291
 13867 00b1 03       		.uleb128 0x3
 13868 00b2 73       		.byte	0x73
 13869 00b3 30       		.sleb128 48
 13870 00b4 9F       		.byte	0x9f
 13871 00b5 00       		.byte	0
 13872              	.LVUS177:
 13873 00b6 01       		.uleb128 .LVU1726
 13874 00b7 00       		.uleb128 .LVU1738
 13875              	.LLST177:
 13876 00b8 08       		.byte	0x8
ARM GAS  C:\Users\DEVELO~1\AppData\Local\Temp\cc5EUJSb.s 			page 245


 13877 00b9 60000000 		.4byte	.LVL297
 13878 00bd 12       		.uleb128 .LVL301-.LVL297
 13879 00be 03       		.uleb128 0x3
 13880 00bf 73       		.byte	0x73
 13881 00c0 20       		.sleb128 32
 13882 00c1 9F       		.byte	0x9f
 13883 00c2 00       		.byte	0
 13884              	.LVUS178:
 13885 00c3 02       		.uleb128 .LVU1727
 13886 00c4 00       		.uleb128 .LVU1738
 13887              	.LLST178:
 13888 00c5 08       		.byte	0x8
 13889 00c6 60000000 		.4byte	.LVL297
 13890 00ca 12       		.uleb128 .LVL301-.LVL297
 13891 00cb 03       		.uleb128 0x3
 13892 00cc 73       		.byte	0x73
 13893 00cd 30       		.sleb128 48
 13894 00ce 9F       		.byte	0x9f
 13895 00cf 00       		.byte	0
 13896              	.LVUS170:
 13897 00d0 02       		.uleb128 .LVU1676
 13898 00d1 00       		.uleb128 .LVU1682
 13899              	.LLST170:
 13900 00d2 08       		.byte	0x8
 13901 00d3 12000000 		.4byte	.LVL288
 13902 00d7 0A       		.uleb128 .LVL290-.LVL288
 13903 00d8 01       		.uleb128 0x1
 13904 00d9 50       		.byte	0x50
 13905 00da 00       		.byte	0
 13906              	.LVUS175:
 13907 00db 03       		.uleb128 .LVU1707
 13908 00dc 00       		.uleb128 .LVU1720
 13909              	.LLST175:
 13910 00dd 08       		.byte	0x8
 13911 00de 40000000 		.4byte	.LVL294
 13912 00e2 18       		.uleb128 .LVL295-.LVL294
 13913 00e3 04       		.uleb128 0x4
 13914 00e4 A3       		.byte	0xa3
 13915 00e5 01       		.uleb128 0x1
 13916 00e6 50       		.byte	0x50
 13917 00e7 9F       		.byte	0x9f
 13918 00e8 00       		.byte	0
 13919              	.LVUS162:
 13920 00e9 00       		.uleb128 0
 13921 00ea 00       		.uleb128 .LVU1651
 13922 00eb 00       		.uleb128 .LVU1651
 13923 00ec 00       		.uleb128 0
 13924              	.LLST162:
 13925 00ed 06       		.byte	0x6
 13926 00ee 00000000 		.4byte	.LVL284
 13927 00f2 04       		.byte	0x4
 13928 00f3 00       		.uleb128 .LVL284-.LVL284
 13929 00f4 09       		.uleb128 .LVL285-1-.LVL284
 13930 00f5 01       		.uleb128 0x1
 13931 00f6 50       		.byte	0x50
 13932 00f7 04       		.byte	0x4
 13933 00f8 09       		.uleb128 .LVL285-1-.LVL284
ARM GAS  C:\Users\DEVELO~1\AppData\Local\Temp\cc5EUJSb.s 			page 246


 13934 00f9 26       		.uleb128 .LFE456-.LVL284
 13935 00fa 01       		.uleb128 0x1
 13936 00fb 55       		.byte	0x55
 13937 00fc 00       		.byte	0
 13938              	.LVUS163:
 13939 00fd 00       		.uleb128 0
 13940 00fe 00       		.uleb128 .LVU1651
 13941 00ff 00       		.uleb128 .LVU1651
 13942 0100 00       		.uleb128 0
 13943              	.LLST163:
 13944 0101 06       		.byte	0x6
 13945 0102 00000000 		.4byte	.LVL284
 13946 0106 04       		.byte	0x4
 13947 0107 00       		.uleb128 .LVL284-.LVL284
 13948 0108 09       		.uleb128 .LVL285-1-.LVL284
 13949 0109 01       		.uleb128 0x1
 13950 010a 51       		.byte	0x51
 13951 010b 04       		.byte	0x4
 13952 010c 09       		.uleb128 .LVL285-1-.LVL284
 13953 010d 26       		.uleb128 .LFE456-.LVL284
 13954 010e 01       		.uleb128 0x1
 13955 010f 54       		.byte	0x54
 13956 0110 00       		.byte	0
 13957              	.LVUS164:
 13958 0111 00       		.uleb128 .LVU1651
 13959 0112 00       		.uleb128 0
 13960              	.LLST164:
 13961 0113 08       		.byte	0x8
 13962 0114 0A000000 		.4byte	.LVL285
 13963 0118 1C       		.uleb128 .LFE456-.LVL285
 13964 0119 01       		.uleb128 0x1
 13965 011a 50       		.byte	0x50
 13966 011b 00       		.byte	0
 13967              	.LVUS158:
 13968 011c 00       		.uleb128 0
 13969 011d 00       		.uleb128 .LVU1631
 13970 011e 00       		.uleb128 .LVU1631
 13971 011f 00       		.uleb128 .LVU1632
 13972 0120 00       		.uleb128 .LVU1632
 13973 0121 00       		.uleb128 0
 13974              	.LLST158:
 13975 0122 06       		.byte	0x6
 13976 0123 00000000 		.4byte	.LVL274
 13977 0127 04       		.byte	0x4
 13978 0128 00       		.uleb128 .LVL274-.LVL274
 13979 0129 4A       		.uleb128 .LVL280-.LVL274
 13980 012a 01       		.uleb128 0x1
 13981 012b 50       		.byte	0x50
 13982 012c 04       		.byte	0x4
 13983 012d 4A       		.uleb128 .LVL280-.LVL274
 13984 012e 4E       		.uleb128 .LVL281-.LVL274
 13985 012f 04       		.uleb128 0x4
 13986 0130 A3       		.byte	0xa3
 13987 0131 01       		.uleb128 0x1
 13988 0132 50       		.byte	0x50
 13989 0133 9F       		.byte	0x9f
 13990 0134 04       		.byte	0x4
ARM GAS  C:\Users\DEVELO~1\AppData\Local\Temp\cc5EUJSb.s 			page 247


 13991 0135 4E       		.uleb128 .LVL281-.LVL274
 13992 0136 66       		.uleb128 .LFE455-.LVL274
 13993 0137 01       		.uleb128 0x1
 13994 0138 50       		.byte	0x50
 13995 0139 00       		.byte	0
 13996              	.LVUS159:
 13997 013a 00       		.uleb128 0
 13998 013b 00       		.uleb128 .LVU1602
 13999 013c 00       		.uleb128 .LVU1602
 14000 013d 00       		.uleb128 .LVU1603
 14001 013e 00       		.uleb128 .LVU1603
 14002 013f 00       		.uleb128 .LVU1632
 14003 0140 00       		.uleb128 .LVU1632
 14004 0141 00       		.uleb128 .LVU1640
 14005 0142 00       		.uleb128 .LVU1640
 14006 0143 00       		.uleb128 .LVU1641
 14007 0144 00       		.uleb128 .LVU1641
 14008 0145 00       		.uleb128 0
 14009              	.LLST159:
 14010 0146 06       		.byte	0x6
 14011 0147 00000000 		.4byte	.LVL274
 14012 014b 04       		.byte	0x4
 14013 014c 00       		.uleb128 .LVL274-.LVL274
 14014 014d 18       		.uleb128 .LVL275-.LVL274
 14015 014e 01       		.uleb128 0x1
 14016 014f 52       		.byte	0x52
 14017 0150 04       		.byte	0x4
 14018 0151 18       		.uleb128 .LVL275-.LVL274
 14019 0152 1A       		.uleb128 .LVL276-.LVL274
 14020 0153 02       		.uleb128 0x2
 14021 0154 74       		.byte	0x74
 14022 0155 0C       		.sleb128 12
 14023 0156 04       		.byte	0x4
 14024 0157 1A       		.uleb128 .LVL276-.LVL274
 14025 0158 4E       		.uleb128 .LVL281-.LVL274
 14026 0159 04       		.uleb128 0x4
 14027 015a A3       		.byte	0xa3
 14028 015b 01       		.uleb128 0x1
 14029 015c 52       		.byte	0x52
 14030 015d 9F       		.byte	0x9f
 14031 015e 04       		.byte	0x4
 14032 015f 4E       		.uleb128 .LVL281-.LVL274
 14033 0160 5C       		.uleb128 .LVL282-.LVL274
 14034 0161 01       		.uleb128 0x1
 14035 0162 52       		.byte	0x52
 14036 0163 04       		.byte	0x4
 14037 0164 5C       		.uleb128 .LVL282-.LVL274
 14038 0165 5E       		.uleb128 .LVL283-.LVL274
 14039 0166 02       		.uleb128 0x2
 14040 0167 74       		.byte	0x74
 14041 0168 0C       		.sleb128 12
 14042 0169 04       		.byte	0x4
 14043 016a 5E       		.uleb128 .LVL283-.LVL274
 14044 016b 66       		.uleb128 .LFE455-.LVL274
 14045 016c 04       		.uleb128 0x4
 14046 016d A3       		.byte	0xa3
 14047 016e 01       		.uleb128 0x1
ARM GAS  C:\Users\DEVELO~1\AppData\Local\Temp\cc5EUJSb.s 			page 248


 14048 016f 52       		.byte	0x52
 14049 0170 9F       		.byte	0x9f
 14050 0171 00       		.byte	0
 14051              	.LVUS161:
 14052 0172 04       		.uleb128 .LVU1620
 14053 0173 00       		.uleb128 .LVU1628
 14054              	.LLST161:
 14055 0174 08       		.byte	0x8
 14056 0175 30000000 		.4byte	.LVL277
 14057 0179 18       		.uleb128 .LVL279-.LVL277
 14058 017a 01       		.uleb128 0x1
 14059 017b 50       		.byte	0x50
 14060 017c 00       		.byte	0
 14061              	.LVUS154:
 14062 017d 00       		.uleb128 0
 14063 017e 00       		.uleb128 .LVU1569
 14064 017f 00       		.uleb128 .LVU1569
 14065 0180 00       		.uleb128 .LVU1570
 14066 0181 00       		.uleb128 .LVU1570
 14067 0182 00       		.uleb128 0
 14068              	.LLST154:
 14069 0183 06       		.byte	0x6
 14070 0184 00000000 		.4byte	.LVL264
 14071 0188 04       		.byte	0x4
 14072 0189 00       		.uleb128 .LVL264-.LVL264
 14073 018a 4A       		.uleb128 .LVL270-.LVL264
 14074 018b 01       		.uleb128 0x1
 14075 018c 50       		.byte	0x50
 14076 018d 04       		.byte	0x4
 14077 018e 4A       		.uleb128 .LVL270-.LVL264
 14078 018f 4E       		.uleb128 .LVL271-.LVL264
 14079 0190 04       		.uleb128 0x4
 14080 0191 A3       		.byte	0xa3
 14081 0192 01       		.uleb128 0x1
 14082 0193 50       		.byte	0x50
 14083 0194 9F       		.byte	0x9f
 14084 0195 04       		.byte	0x4
 14085 0196 4E       		.uleb128 .LVL271-.LVL264
 14086 0197 6C       		.uleb128 .LFE454-.LVL264
 14087 0198 01       		.uleb128 0x1
 14088 0199 50       		.byte	0x50
 14089 019a 00       		.byte	0
 14090              	.LVUS155:
 14091 019b 00       		.uleb128 0
 14092 019c 00       		.uleb128 .LVU1548
 14093 019d 00       		.uleb128 .LVU1548
 14094 019e 00       		.uleb128 .LVU1549
 14095 019f 00       		.uleb128 .LVU1549
 14096 01a0 00       		.uleb128 .LVU1570
 14097 01a1 00       		.uleb128 .LVU1570
 14098 01a2 00       		.uleb128 .LVU1582
 14099 01a3 00       		.uleb128 .LVU1582
 14100 01a4 00       		.uleb128 .LVU1583
 14101 01a5 00       		.uleb128 .LVU1583
 14102 01a6 00       		.uleb128 0
 14103              	.LLST155:
 14104 01a7 06       		.byte	0x6
ARM GAS  C:\Users\DEVELO~1\AppData\Local\Temp\cc5EUJSb.s 			page 249


 14105 01a8 00000000 		.4byte	.LVL264
 14106 01ac 04       		.byte	0x4
 14107 01ad 00       		.uleb128 .LVL264-.LVL264
 14108 01ae 20       		.uleb128 .LVL265-.LVL264
 14109 01af 01       		.uleb128 0x1
 14110 01b0 52       		.byte	0x52
 14111 01b1 04       		.byte	0x4
 14112 01b2 20       		.uleb128 .LVL265-.LVL264
 14113 01b3 22       		.uleb128 .LVL266-.LVL264
 14114 01b4 02       		.uleb128 0x2
 14115 01b5 73       		.byte	0x73
 14116 01b6 0C       		.sleb128 12
 14117 01b7 04       		.byte	0x4
 14118 01b8 22       		.uleb128 .LVL266-.LVL264
 14119 01b9 4E       		.uleb128 .LVL271-.LVL264
 14120 01ba 04       		.uleb128 0x4
 14121 01bb A3       		.byte	0xa3
 14122 01bc 01       		.uleb128 0x1
 14123 01bd 52       		.byte	0x52
 14124 01be 9F       		.byte	0x9f
 14125 01bf 04       		.byte	0x4
 14126 01c0 4E       		.uleb128 .LVL271-.LVL264
 14127 01c1 64       		.uleb128 .LVL272-.LVL264
 14128 01c2 01       		.uleb128 0x1
 14129 01c3 52       		.byte	0x52
 14130 01c4 04       		.byte	0x4
 14131 01c5 64       		.uleb128 .LVL272-.LVL264
 14132 01c6 66       		.uleb128 .LVL273-.LVL264
 14133 01c7 02       		.uleb128 0x2
 14134 01c8 73       		.byte	0x73
 14135 01c9 0C       		.sleb128 12
 14136 01ca 04       		.byte	0x4
 14137 01cb 66       		.uleb128 .LVL273-.LVL264
 14138 01cc 6C       		.uleb128 .LFE454-.LVL264
 14139 01cd 04       		.uleb128 0x4
 14140 01ce A3       		.byte	0xa3
 14141 01cf 01       		.uleb128 0x1
 14142 01d0 52       		.byte	0x52
 14143 01d1 9F       		.byte	0x9f
 14144 01d2 00       		.byte	0
 14145              	.LVUS157:
 14146 01d3 04       		.uleb128 .LVU1558
 14147 01d4 00       		.uleb128 .LVU1566
 14148              	.LLST157:
 14149 01d5 08       		.byte	0x8
 14150 01d6 30000000 		.4byte	.LVL267
 14151 01da 18       		.uleb128 .LVL269-.LVL267
 14152 01db 01       		.uleb128 0x1
 14153 01dc 50       		.byte	0x50
 14154 01dd 00       		.byte	0
 14155              	.LVUS149:
 14156 01de 00       		.uleb128 0
 14157 01df 00       		.uleb128 .LVU1511
 14158 01e0 00       		.uleb128 .LVU1511
 14159 01e1 00       		.uleb128 .LVU1512
 14160 01e2 00       		.uleb128 .LVU1512
 14161 01e3 00       		.uleb128 0
ARM GAS  C:\Users\DEVELO~1\AppData\Local\Temp\cc5EUJSb.s 			page 250


 14162              	.LLST149:
 14163 01e4 06       		.byte	0x6
 14164 01e5 00000000 		.4byte	.LVL250
 14165 01e9 04       		.byte	0x4
 14166 01ea 00       		.uleb128 .LVL250-.LVL250
 14167 01eb 4A       		.uleb128 .LVL258-.LVL250
 14168 01ec 01       		.uleb128 0x1
 14169 01ed 50       		.byte	0x50
 14170 01ee 04       		.byte	0x4
 14171 01ef 4A       		.uleb128 .LVL258-.LVL250
 14172 01f0 4E       		.uleb128 .LVL259-.LVL250
 14173 01f1 04       		.uleb128 0x4
 14174 01f2 A3       		.byte	0xa3
 14175 01f3 01       		.uleb128 0x1
 14176 01f4 50       		.byte	0x50
 14177 01f5 9F       		.byte	0x9f
 14178 01f6 04       		.byte	0x4
 14179 01f7 4E       		.uleb128 .LVL259-.LVL250
 14180 01f8 6E       		.uleb128 .LFE453-.LVL250
 14181 01f9 01       		.uleb128 0x1
 14182 01fa 50       		.byte	0x50
 14183 01fb 00       		.byte	0
 14184              	.LVUS150:
 14185 01fc 00       		.uleb128 0
 14186 01fd 00       		.uleb128 .LVU1490
 14187 01fe 00       		.uleb128 .LVU1490
 14188 01ff 00       		.uleb128 .LVU1491
 14189 0200 00       		.uleb128 .LVU1491
 14190 0201 00       		.uleb128 .LVU1512
 14191 0202 00       		.uleb128 .LVU1512
 14192 0203 00       		.uleb128 .LVU1524
 14193 0204 00       		.uleb128 .LVU1524
 14194 0205 00       		.uleb128 .LVU1525
 14195 0206 00       		.uleb128 .LVU1525
 14196 0207 00       		.uleb128 0
 14197              	.LLST150:
 14198 0208 06       		.byte	0x6
 14199 0209 00000000 		.4byte	.LVL250
 14200 020d 04       		.byte	0x4
 14201 020e 00       		.uleb128 .LVL250-.LVL250
 14202 020f 20       		.uleb128 .LVL253-.LVL250
 14203 0210 01       		.uleb128 0x1
 14204 0211 52       		.byte	0x52
 14205 0212 04       		.byte	0x4
 14206 0213 20       		.uleb128 .LVL253-.LVL250
 14207 0214 22       		.uleb128 .LVL254-.LVL250
 14208 0215 02       		.uleb128 0x2
 14209 0216 73       		.byte	0x73
 14210 0217 0C       		.sleb128 12
 14211 0218 04       		.byte	0x4
 14212 0219 22       		.uleb128 .LVL254-.LVL250
 14213 021a 4E       		.uleb128 .LVL259-.LVL250
 14214 021b 04       		.uleb128 0x4
 14215 021c A3       		.byte	0xa3
 14216 021d 01       		.uleb128 0x1
 14217 021e 52       		.byte	0x52
 14218 021f 9F       		.byte	0x9f
ARM GAS  C:\Users\DEVELO~1\AppData\Local\Temp\cc5EUJSb.s 			page 251


 14219 0220 04       		.byte	0x4
 14220 0221 4E       		.uleb128 .LVL259-.LVL250
 14221 0222 66       		.uleb128 .LVL262-.LVL250
 14222 0223 01       		.uleb128 0x1
 14223 0224 52       		.byte	0x52
 14224 0225 04       		.byte	0x4
 14225 0226 66       		.uleb128 .LVL262-.LVL250
 14226 0227 68       		.uleb128 .LVL263-.LVL250
 14227 0228 02       		.uleb128 0x2
 14228 0229 73       		.byte	0x73
 14229 022a 0C       		.sleb128 12
 14230 022b 04       		.byte	0x4
 14231 022c 68       		.uleb128 .LVL263-.LVL250
 14232 022d 6E       		.uleb128 .LFE453-.LVL250
 14233 022e 04       		.uleb128 0x4
 14234 022f A3       		.byte	0xa3
 14235 0230 01       		.uleb128 0x1
 14236 0231 52       		.byte	0x52
 14237 0232 9F       		.byte	0x9f
 14238 0233 00       		.byte	0
 14239              	.LVUS151:
 14240 0234 00       		.uleb128 0
 14241 0235 00       		.uleb128 .LVU1482
 14242 0236 00       		.uleb128 .LVU1482
 14243 0237 00       		.uleb128 .LVU1483
 14244 0238 00       		.uleb128 .LVU1483
 14245 0239 00       		.uleb128 .LVU1512
 14246 023a 00       		.uleb128 .LVU1512
 14247 023b 00       		.uleb128 .LVU1516
 14248 023c 00       		.uleb128 .LVU1516
 14249 023d 00       		.uleb128 .LVU1517
 14250 023e 00       		.uleb128 .LVU1517
 14251 023f 00       		.uleb128 0
 14252              	.LLST151:
 14253 0240 06       		.byte	0x6
 14254 0241 00000000 		.4byte	.LVL250
 14255 0245 04       		.byte	0x4
 14256 0246 00       		.uleb128 .LVL250-.LVL250
 14257 0247 10       		.uleb128 .LVL251-.LVL250
 14258 0248 01       		.uleb128 0x1
 14259 0249 53       		.byte	0x53
 14260 024a 04       		.byte	0x4
 14261 024b 10       		.uleb128 .LVL251-.LVL250
 14262 024c 12       		.uleb128 .LVL252-.LVL250
 14263 024d 02       		.uleb128 0x2
 14264 024e 74       		.byte	0x74
 14265 024f 0C       		.sleb128 12
 14266 0250 04       		.byte	0x4
 14267 0251 12       		.uleb128 .LVL252-.LVL250
 14268 0252 4E       		.uleb128 .LVL259-.LVL250
 14269 0253 04       		.uleb128 0x4
 14270 0254 A3       		.byte	0xa3
 14271 0255 01       		.uleb128 0x1
 14272 0256 53       		.byte	0x53
 14273 0257 9F       		.byte	0x9f
 14274 0258 04       		.byte	0x4
 14275 0259 4E       		.uleb128 .LVL259-.LVL250
ARM GAS  C:\Users\DEVELO~1\AppData\Local\Temp\cc5EUJSb.s 			page 252


 14276 025a 56       		.uleb128 .LVL260-.LVL250
 14277 025b 01       		.uleb128 0x1
 14278 025c 53       		.byte	0x53
 14279 025d 04       		.byte	0x4
 14280 025e 56       		.uleb128 .LVL260-.LVL250
 14281 025f 58       		.uleb128 .LVL261-.LVL250
 14282 0260 02       		.uleb128 0x2
 14283 0261 74       		.byte	0x74
 14284 0262 0C       		.sleb128 12
 14285 0263 04       		.byte	0x4
 14286 0264 58       		.uleb128 .LVL261-.LVL250
 14287 0265 6E       		.uleb128 .LFE453-.LVL250
 14288 0266 04       		.uleb128 0x4
 14289 0267 A3       		.byte	0xa3
 14290 0268 01       		.uleb128 0x1
 14291 0269 53       		.byte	0x53
 14292 026a 9F       		.byte	0x9f
 14293 026b 00       		.byte	0
 14294              	.LVUS153:
 14295 026c 04       		.uleb128 .LVU1500
 14296 026d 00       		.uleb128 .LVU1508
 14297              	.LLST153:
 14298 026e 08       		.byte	0x8
 14299 026f 30000000 		.4byte	.LVL255
 14300 0273 18       		.uleb128 .LVL257-.LVL255
 14301 0274 01       		.uleb128 0x1
 14302 0275 50       		.byte	0x50
 14303 0276 00       		.byte	0
 14304              	.LVUS145:
 14305 0277 00       		.uleb128 0
 14306 0278 00       		.uleb128 .LVU1465
 14307 0279 00       		.uleb128 .LVU1465
 14308 027a 00       		.uleb128 .LVU1466
 14309 027b 00       		.uleb128 .LVU1466
 14310 027c 00       		.uleb128 .LVU1467
 14311 027d 00       		.uleb128 .LVU1467
 14312 027e 00       		.uleb128 0
 14313              	.LLST145:
 14314 027f 06       		.byte	0x6
 14315 0280 00000000 		.4byte	.LVL242
 14316 0284 04       		.byte	0x4
 14317 0285 00       		.uleb128 .LVL242-.LVL242
 14318 0286 4A       		.uleb128 .LVL247-.LVL242
 14319 0287 01       		.uleb128 0x1
 14320 0288 50       		.byte	0x50
 14321 0289 04       		.byte	0x4
 14322 028a 4A       		.uleb128 .LVL247-.LVL242
 14323 028b 4C       		.uleb128 .LVL248-.LVL242
 14324 028c 03       		.uleb128 0x3
 14325 028d 75       		.byte	0x75
 14326 028e 48       		.sleb128 -56
 14327 028f 9F       		.byte	0x9f
 14328 0290 04       		.byte	0x4
 14329 0291 4C       		.uleb128 .LVL248-.LVL242
 14330 0292 4E       		.uleb128 .LVL249-.LVL242
 14331 0293 04       		.uleb128 0x4
 14332 0294 A3       		.byte	0xa3
ARM GAS  C:\Users\DEVELO~1\AppData\Local\Temp\cc5EUJSb.s 			page 253


 14333 0295 01       		.uleb128 0x1
 14334 0296 50       		.byte	0x50
 14335 0297 9F       		.byte	0x9f
 14336 0298 04       		.byte	0x4
 14337 0299 4E       		.uleb128 .LVL249-.LVL242
 14338 029a 5A       		.uleb128 .LFE452-.LVL242
 14339 029b 01       		.uleb128 0x1
 14340 029c 50       		.byte	0x50
 14341 029d 00       		.byte	0
 14342              	.LVUS146:
 14343 029e 00       		.uleb128 0
 14344 029f 00       		.uleb128 .LVU1449
 14345 02a0 00       		.uleb128 .LVU1449
 14346 02a1 00       		.uleb128 .LVU1467
 14347 02a2 00       		.uleb128 .LVU1467
 14348 02a3 00       		.uleb128 0
 14349              	.LLST146:
 14350 02a4 06       		.byte	0x6
 14351 02a5 00000000 		.4byte	.LVL242
 14352 02a9 04       		.byte	0x4
 14353 02aa 00       		.uleb128 .LVL242-.LVL242
 14354 02ab 2A       		.uleb128 .LVL243-.LVL242
 14355 02ac 01       		.uleb128 0x1
 14356 02ad 51       		.byte	0x51
 14357 02ae 04       		.byte	0x4
 14358 02af 2A       		.uleb128 .LVL243-.LVL242
 14359 02b0 4E       		.uleb128 .LVL249-.LVL242
 14360 02b1 04       		.uleb128 0x4
 14361 02b2 A3       		.byte	0xa3
 14362 02b3 01       		.uleb128 0x1
 14363 02b4 51       		.byte	0x51
 14364 02b5 9F       		.byte	0x9f
 14365 02b6 04       		.byte	0x4
 14366 02b7 4E       		.uleb128 .LVL249-.LVL242
 14367 02b8 5A       		.uleb128 .LFE452-.LVL242
 14368 02b9 01       		.uleb128 0x1
 14369 02ba 51       		.byte	0x51
 14370 02bb 00       		.byte	0
 14371              	.LVUS148:
 14372 02bc 04       		.uleb128 .LVU1454
 14373 02bd 00       		.uleb128 .LVU1462
 14374              	.LLST148:
 14375 02be 08       		.byte	0x8
 14376 02bf 30000000 		.4byte	.LVL244
 14377 02c3 18       		.uleb128 .LVL246-.LVL244
 14378 02c4 01       		.uleb128 0x1
 14379 02c5 50       		.byte	0x50
 14380 02c6 00       		.byte	0
 14381              	.LVUS140:
 14382 02c7 00       		.uleb128 0
 14383 02c8 00       		.uleb128 .LVU1358
 14384 02c9 00       		.uleb128 .LVU1358
 14385 02ca 00       		.uleb128 .LVU1419
 14386 02cb 00       		.uleb128 .LVU1419
 14387 02cc 00       		.uleb128 0
 14388              	.LLST140:
 14389 02cd 06       		.byte	0x6
ARM GAS  C:\Users\DEVELO~1\AppData\Local\Temp\cc5EUJSb.s 			page 254


 14390 02ce 00000000 		.4byte	.LVL228
 14391 02d2 04       		.byte	0x4
 14392 02d3 00       		.uleb128 .LVL228-.LVL228
 14393 02d4 0F       		.uleb128 .LVL229-1-.LVL228
 14394 02d5 01       		.uleb128 0x1
 14395 02d6 50       		.byte	0x50
 14396 02d7 04       		.byte	0x4
 14397 02d8 0F       		.uleb128 .LVL229-1-.LVL228
 14398 02d9 EC01     		.uleb128 .LVL241-.LVL228
 14399 02db 01       		.uleb128 0x1
 14400 02dc 54       		.byte	0x54
 14401 02dd 04       		.byte	0x4
 14402 02de EC01     		.uleb128 .LVL241-.LVL228
 14403 02e0 8402     		.uleb128 .LFE451-.LVL228
 14404 02e2 04       		.uleb128 0x4
 14405 02e3 A3       		.byte	0xa3
 14406 02e4 01       		.uleb128 0x1
 14407 02e5 50       		.byte	0x50
 14408 02e6 9F       		.byte	0x9f
 14409 02e7 00       		.byte	0
 14410              	.LVUS141:
 14411 02e8 01       		.uleb128 .LVU1376
 14412 02e9 00       		.uleb128 .LVU1382
 14413              	.LLST141:
 14414 02ea 08       		.byte	0x8
 14415 02eb 40000000 		.4byte	.LVL232
 14416 02ef 1E       		.uleb128 .LVL233-.LVL232
 14417 02f0 03       		.uleb128 0x3
 14418 02f1 08       		.byte	0x8
 14419 02f2 20       		.byte	0x20
 14420 02f3 9F       		.byte	0x9f
 14421 02f4 00       		.byte	0
 14422              	.LVUS142:
 14423 02f5 01       		.uleb128 .LVU1388
 14424 02f6 00       		.uleb128 .LVU1395
 14425              	.LLST142:
 14426 02f7 08       		.byte	0x8
 14427 02f8 6C000000 		.4byte	.LVL237
 14428 02fc 20       		.uleb128 .LVL238-.LVL237
 14429 02fd 04       		.uleb128 0x4
 14430 02fe 0A       		.byte	0xa
 14431 02ff 0010     		.2byte	0x1000
 14432 0301 9F       		.byte	0x9f
 14433 0302 00       		.byte	0
 14434              	.LVUS143:
 14435 0303 01       		.uleb128 .LVU1396
 14436 0304 00       		.uleb128 .LVU1403
 14437              	.LLST143:
 14438 0305 08       		.byte	0x8
 14439 0306 8C000000 		.4byte	.LVL238
 14440 030a 20       		.uleb128 .LVL239-.LVL238
 14441 030b 04       		.uleb128 0x4
 14442 030c 40       		.byte	0x40
 14443 030d 40       		.byte	0x40
 14444 030e 24       		.byte	0x24
 14445 030f 9F       		.byte	0x9f
 14446 0310 00       		.byte	0
ARM GAS  C:\Users\DEVELO~1\AppData\Local\Temp\cc5EUJSb.s 			page 255


 14447              	.LVUS144:
 14448 0311 01       		.uleb128 .LVU1404
 14449 0312 00       		.uleb128 .LVU1411
 14450              	.LLST144:
 14451 0313 08       		.byte	0x8
 14452 0314 AC000000 		.4byte	.LVL239
 14453 0318 20       		.uleb128 .LVL240-.LVL239
 14454 0319 04       		.uleb128 0x4
 14455 031a 0A       		.byte	0xa
 14456 031b 0040     		.2byte	0x4000
 14457 031d 9F       		.byte	0x9f
 14458 031e 00       		.byte	0
 14459              	.LVUS95:
 14460 031f 00       		.uleb128 0
 14461 0320 00       		.uleb128 .LVU1029
 14462 0321 00       		.uleb128 .LVU1029
 14463 0322 00       		.uleb128 .LVU1055
 14464 0323 00       		.uleb128 .LVU1055
 14465 0324 00       		.uleb128 .LVU1070
 14466 0325 00       		.uleb128 .LVU1070
 14467 0326 00       		.uleb128 .LVU1184
 14468 0327 00       		.uleb128 .LVU1184
 14469 0328 00       		.uleb128 .LVU1188
 14470 0329 00       		.uleb128 .LVU1188
 14471 032a 00       		.uleb128 .LVU1221
 14472 032b 00       		.uleb128 .LVU1221
 14473 032c 00       		.uleb128 .LVU1226
 14474 032d 00       		.uleb128 .LVU1226
 14475 032e 00       		.uleb128 .LVU1259
 14476 032f 00       		.uleb128 .LVU1259
 14477 0330 00       		.uleb128 .LVU1264
 14478 0331 00       		.uleb128 .LVU1264
 14479 0332 00       		.uleb128 .LVU1297
 14480 0333 00       		.uleb128 .LVU1297
 14481 0334 00       		.uleb128 .LVU1302
 14482 0335 00       		.uleb128 .LVU1302
 14483 0336 00       		.uleb128 .LVU1335
 14484 0337 00       		.uleb128 .LVU1335
 14485 0338 00       		.uleb128 .LVU1337
 14486 0339 00       		.uleb128 .LVU1337
 14487 033a 00       		.uleb128 .LVU1344
 14488 033b 00       		.uleb128 .LVU1344
 14489 033c 00       		.uleb128 .LVU1345
 14490 033d 00       		.uleb128 .LVU1345
 14491 033e 00       		.uleb128 0
 14492              	.LLST95:
 14493 033f 06       		.byte	0x6
 14494 0340 00000000 		.4byte	.LVL162
 14495 0344 04       		.byte	0x4
 14496 0345 00       		.uleb128 .LVL162-.LVL162
 14497 0346 12       		.uleb128 .LVL163-.LVL162
 14498 0347 01       		.uleb128 0x1
 14499 0348 50       		.byte	0x50
 14500 0349 04       		.byte	0x4
 14501 034a 12       		.uleb128 .LVL163-.LVL162
 14502 034b 52       		.uleb128 .LVL167-.LVL162
 14503 034c 01       		.uleb128 0x1
ARM GAS  C:\Users\DEVELO~1\AppData\Local\Temp\cc5EUJSb.s 			page 256


 14504 034d 54       		.byte	0x54
 14505 034e 04       		.byte	0x4
 14506 034f 52       		.uleb128 .LVL167-.LVL162
 14507 0350 8201     		.uleb128 .LVL169-.LVL162
 14508 0352 01       		.uleb128 0x1
 14509 0353 50       		.byte	0x50
 14510 0354 04       		.byte	0x4
 14511 0355 8201     		.uleb128 .LVL169-.LVL162
 14512 0357 9E03     		.uleb128 .LVL185-.LVL162
 14513 0359 01       		.uleb128 0x1
 14514 035a 54       		.byte	0x54
 14515 035b 04       		.byte	0x4
 14516 035c 9E03     		.uleb128 .LVL185-.LVL162
 14517 035e A603     		.uleb128 .LVL186-.LVL162
 14518 0360 01       		.uleb128 0x1
 14519 0361 50       		.byte	0x50
 14520 0362 04       		.byte	0x4
 14521 0363 A603     		.uleb128 .LVL186-.LVL162
 14522 0365 9204     		.uleb128 .LVL194-.LVL162
 14523 0367 01       		.uleb128 0x1
 14524 0368 54       		.byte	0x54
 14525 0369 04       		.byte	0x4
 14526 036a 9204     		.uleb128 .LVL194-.LVL162
 14527 036c 9A04     		.uleb128 .LVL195-.LVL162
 14528 036e 01       		.uleb128 0x1
 14529 036f 50       		.byte	0x50
 14530 0370 04       		.byte	0x4
 14531 0371 9A04     		.uleb128 .LVL195-.LVL162
 14532 0373 8605     		.uleb128 .LVL203-.LVL162
 14533 0375 01       		.uleb128 0x1
 14534 0376 54       		.byte	0x54
 14535 0377 04       		.byte	0x4
 14536 0378 8605     		.uleb128 .LVL203-.LVL162
 14537 037a 8E05     		.uleb128 .LVL204-.LVL162
 14538 037c 01       		.uleb128 0x1
 14539 037d 50       		.byte	0x50
 14540 037e 04       		.byte	0x4
 14541 037f 8E05     		.uleb128 .LVL204-.LVL162
 14542 0381 F605     		.uleb128 .LVL212-.LVL162
 14543 0383 01       		.uleb128 0x1
 14544 0384 54       		.byte	0x54
 14545 0385 04       		.byte	0x4
 14546 0386 F605     		.uleb128 .LVL212-.LVL162
 14547 0388 FE05     		.uleb128 .LVL213-.LVL162
 14548 038a 01       		.uleb128 0x1
 14549 038b 50       		.byte	0x50
 14550 038c 04       		.byte	0x4
 14551 038d FE05     		.uleb128 .LVL213-.LVL162
 14552 038f E406     		.uleb128 .LVL221-.LVL162
 14553 0391 01       		.uleb128 0x1
 14554 0392 54       		.byte	0x54
 14555 0393 04       		.byte	0x4
 14556 0394 E406     		.uleb128 .LVL221-.LVL162
 14557 0396 E806     		.uleb128 .LVL222-.LVL162
 14558 0398 01       		.uleb128 0x1
 14559 0399 50       		.byte	0x50
 14560 039a 04       		.byte	0x4
ARM GAS  C:\Users\DEVELO~1\AppData\Local\Temp\cc5EUJSb.s 			page 257


 14561 039b E806     		.uleb128 .LVL222-.LVL162
 14562 039d F606     		.uleb128 .LVL225-.LVL162
 14563 039f 01       		.uleb128 0x1
 14564 03a0 54       		.byte	0x54
 14565 03a1 04       		.byte	0x4
 14566 03a2 F606     		.uleb128 .LVL225-.LVL162
 14567 03a4 A007     		.uleb128 .LVL226-.LVL162
 14568 03a6 04       		.uleb128 0x4
 14569 03a7 A3       		.byte	0xa3
 14570 03a8 01       		.uleb128 0x1
 14571 03a9 50       		.byte	0x50
 14572 03aa 9F       		.byte	0x9f
 14573 03ab 04       		.byte	0x4
 14574 03ac A007     		.uleb128 .LVL226-.LVL162
 14575 03ae AC07     		.uleb128 .LFE450-.LVL162
 14576 03b0 01       		.uleb128 0x1
 14577 03b1 54       		.byte	0x54
 14578 03b2 00       		.byte	0
 14579              	.LVUS96:
 14580 03b3 00       		.uleb128 .LVU1032
 14581 03b4 00       		.uleb128 .LVU1040
 14582 03b5 03       		.uleb128 .LVU1121
 14583 03b6 00       		.uleb128 .LVU1128
 14584 03b7 00       		.uleb128 .LVU1141
 14585 03b8 00       		.uleb128 .LVU1144
 14586 03b9 00       		.uleb128 .LVU1155
 14587 03ba 00       		.uleb128 .LVU1158
 14588 03bb 00       		.uleb128 .LVU1183
 14589 03bc 00       		.uleb128 .LVU1184
 14590              	.LLST96:
 14591 03bd 06       		.byte	0x6
 14592 03be 1E000000 		.4byte	.LVL164
 14593 03c2 04       		.byte	0x4
 14594 03c3 00       		.uleb128 .LVL164-.LVL164
 14595 03c4 0E       		.uleb128 .LVL165-.LVL164
 14596 03c5 01       		.uleb128 0x1
 14597 03c6 53       		.byte	0x53
 14598 03c7 04       		.byte	0x4
 14599 03c8 F401     		.uleb128 .LVL177-.LVL164
 14600 03ca FC01     		.uleb128 .LVL178-.LVL164
 14601 03cc 01       		.uleb128 0x1
 14602 03cd 53       		.byte	0x53
 14603 03ce 04       		.byte	0x4
 14604 03cf 9C02     		.uleb128 .LVL179-.LVL164
 14605 03d1 A002     		.uleb128 .LVL180-.LVL164
 14606 03d3 01       		.uleb128 0x1
 14607 03d4 53       		.byte	0x53
 14608 03d5 04       		.byte	0x4
 14609 03d6 BE02     		.uleb128 .LVL181-.LVL164
 14610 03d8 C202     		.uleb128 .LVL182-.LVL164
 14611 03da 01       		.uleb128 0x1
 14612 03db 53       		.byte	0x53
 14613 03dc 04       		.byte	0x4
 14614 03dd FE02     		.uleb128 .LVL184-.LVL164
 14615 03df 8003     		.uleb128 .LVL185-.LVL164
 14616 03e1 01       		.uleb128 0x1
 14617 03e2 53       		.byte	0x53
ARM GAS  C:\Users\DEVELO~1\AppData\Local\Temp\cc5EUJSb.s 			page 258


 14618 03e3 00       		.byte	0
 14619              	.LVUS97:
 14620 03e4 00       		.uleb128 .LVU1079
 14621 03e5 04       		.uleb128 .LVU1122
 14622 03e6 00       		.uleb128 .LVU1173
 14623 03e7 00       		.uleb128 .LVU1184
 14624 03e8 00       		.uleb128 .LVU1197
 14625 03e9 00       		.uleb128 .LVU1221
 14626 03ea 00       		.uleb128 .LVU1235
 14627 03eb 00       		.uleb128 .LVU1259
 14628 03ec 00       		.uleb128 .LVU1273
 14629 03ed 00       		.uleb128 .LVU1297
 14630 03ee 00       		.uleb128 .LVU1311
 14631 03ef 00       		.uleb128 .LVU1335
 14632 03f0 01       		.uleb128 .LVU1340
 14633 03f1 00       		.uleb128 .LVU1345
 14634 03f2 01       		.uleb128 .LVU1347
 14635 03f3 00       		.uleb128 0
 14636              	.LLST97:
 14637 03f4 06       		.byte	0x6
 14638 03f5 A2000000 		.4byte	.LVL172
 14639 03f9 04       		.byte	0x4
 14640 03fa 00       		.uleb128 .LVL172-.LVL172
 14641 03fb 70       		.uleb128 .LVL177-.LVL172
 14642 03fc 02       		.uleb128 0x2
 14643 03fd 30       		.byte	0x30
 14644 03fe 9F       		.byte	0x9f
 14645 03ff 04       		.byte	0x4
 14646 0400 E601     		.uleb128 .LVL183-.LVL172
 14647 0402 FC01     		.uleb128 .LVL185-.LVL172
 14648 0404 02       		.uleb128 0x2
 14649 0405 30       		.byte	0x30
 14650 0406 9F       		.byte	0x9f
 14651 0407 04       		.byte	0x4
 14652 0408 A402     		.uleb128 .LVL189-.LVL172
 14653 040a F002     		.uleb128 .LVL194-.LVL172
 14654 040c 02       		.uleb128 0x2
 14655 040d 30       		.byte	0x30
 14656 040e 9F       		.byte	0x9f
 14657 040f 04       		.byte	0x4
 14658 0410 9803     		.uleb128 .LVL198-.LVL172
 14659 0412 E403     		.uleb128 .LVL203-.LVL172
 14660 0414 02       		.uleb128 0x2
 14661 0415 30       		.byte	0x30
 14662 0416 9F       		.byte	0x9f
 14663 0417 04       		.byte	0x4
 14664 0418 8804     		.uleb128 .LVL207-.LVL172
 14665 041a D404     		.uleb128 .LVL212-.LVL172
 14666 041c 02       		.uleb128 0x2
 14667 041d 30       		.byte	0x30
 14668 041e 9F       		.byte	0x9f
 14669 041f 04       		.byte	0x4
 14670 0420 F604     		.uleb128 .LVL216-.LVL172
 14671 0422 C205     		.uleb128 .LVL221-.LVL172
 14672 0424 02       		.uleb128 0x2
 14673 0425 30       		.byte	0x30
 14674 0426 9F       		.byte	0x9f
ARM GAS  C:\Users\DEVELO~1\AppData\Local\Temp\cc5EUJSb.s 			page 259


 14675 0427 04       		.byte	0x4
 14676 0428 CE05     		.uleb128 .LVL224-.LVL172
 14677 042a FE05     		.uleb128 .LVL226-.LVL172
 14678 042c 03       		.uleb128 0x3
 14679 042d 09       		.byte	0x9
 14680 042e EF       		.byte	0xef
 14681 042f 9F       		.byte	0x9f
 14682 0430 04       		.byte	0x4
 14683 0431 8406     		.uleb128 .LVL227-.LVL172
 14684 0433 8A06     		.uleb128 .LFE450-.LVL172
 14685 0435 03       		.uleb128 0x3
 14686 0436 09       		.byte	0x9
 14687 0437 EF       		.byte	0xef
 14688 0438 9F       		.byte	0x9f
 14689 0439 00       		.byte	0
 14690              	.LVUS99:
 14691 043a 02       		.uleb128 .LVU1068
 14692 043b 00       		.uleb128 .LVU1079
 14693 043c 00       		.uleb128 .LVU1338
 14694 043d 00       		.uleb128 .LVU1339
 14695              	.LLST99:
 14696 043e 06       		.byte	0x6
 14697 043f 7A000000 		.4byte	.LVL168
 14698 0443 04       		.byte	0x4
 14699 0444 00       		.uleb128 .LVL168-.LVL168
 14700 0445 28       		.uleb128 .LVL172-.LVL168
 14701 0446 06       		.uleb128 0x6
 14702 0447 03       		.byte	0x3
 14703 0448 00000000 		.4byte	SPID6
 14704 044c 9F       		.byte	0x9f
 14705 044d 04       		.byte	0x4
 14706 044e F005     		.uleb128 .LVL223-.LVL168
 14707 0450 F605     		.uleb128 .LVL224-.LVL168
 14708 0452 06       		.uleb128 0x6
 14709 0453 03       		.byte	0x3
 14710 0454 00000000 		.4byte	SPID6
 14711 0458 9F       		.byte	0x9f
 14712 0459 00       		.byte	0
 14713              	.LVUS100:
 14714 045a 02       		.uleb128 .LVU1068
 14715 045b 00       		.uleb128 .LVU1079
 14716 045c 00       		.uleb128 .LVU1338
 14717 045d 00       		.uleb128 .LVU1339
 14718              	.LLST100:
 14719 045e 06       		.byte	0x6
 14720 045f 7A000000 		.4byte	.LVL168
 14721 0463 04       		.byte	0x4
 14722 0464 00       		.uleb128 .LVL168-.LVL168
 14723 0465 28       		.uleb128 .LVL172-.LVL168
 14724 0466 02       		.uleb128 0x2
 14725 0467 38       		.byte	0x38
 14726 0468 9F       		.byte	0x9f
 14727 0469 04       		.byte	0x4
 14728 046a F005     		.uleb128 .LVL223-.LVL168
 14729 046c F605     		.uleb128 .LVL224-.LVL168
 14730 046e 02       		.uleb128 0x2
 14731 046f 38       		.byte	0x38
ARM GAS  C:\Users\DEVELO~1\AppData\Local\Temp\cc5EUJSb.s 			page 260


 14732 0470 9F       		.byte	0x9f
 14733 0471 00       		.byte	0
 14734              	.LVUS102:
 14735 0472 02       		.uleb128 .LVU1068
 14736 0473 00       		.uleb128 .LVU1079
 14737 0474 00       		.uleb128 .LVU1338
 14738 0475 00       		.uleb128 .LVU1339
 14739              	.LLST102:
 14740 0476 06       		.byte	0x6
 14741 0477 7A000000 		.4byte	.LVL168
 14742 047b 04       		.byte	0x4
 14743 047c 00       		.uleb128 .LVL168-.LVL168
 14744 047d 28       		.uleb128 .LVL172-.LVL168
 14745 047e 02       		.uleb128 0x2
 14746 047f 3A       		.byte	0x3a
 14747 0480 9F       		.byte	0x9f
 14748 0481 04       		.byte	0x4
 14749 0482 F005     		.uleb128 .LVL223-.LVL168
 14750 0484 F605     		.uleb128 .LVL224-.LVL168
 14751 0486 02       		.uleb128 0x2
 14752 0487 3A       		.byte	0x3a
 14753 0488 9F       		.byte	0x9f
 14754 0489 00       		.byte	0
 14755              	.LVUS103:
 14756 048a 01       		.uleb128 .LVU1084
 14757 048b 00       		.uleb128 .LVU1091
 14758              	.LLST103:
 14759 048c 08       		.byte	0x8
 14760 048d B2000000 		.4byte	.LVL174
 14761 0491 1E       		.uleb128 .LVL175-.LVL174
 14762 0492 02       		.uleb128 0x2
 14763 0493 31       		.byte	0x31
 14764 0494 9F       		.byte	0x9f
 14765 0495 00       		.byte	0
 14766              	.LVUS104:
 14767 0496 01       		.uleb128 .LVU1084
 14768 0497 00       		.uleb128 .LVU1091
 14769              	.LLST104:
 14770 0498 08       		.byte	0x8
 14771 0499 B2000000 		.4byte	.LVL174
 14772 049d 1E       		.uleb128 .LVL175-.LVL174
 14773 049e 03       		.uleb128 0x3
 14774 049f 08       		.byte	0x8
 14775 04a0 20       		.byte	0x20
 14776 04a1 9F       		.byte	0x9f
 14777 04a2 00       		.byte	0
 14778              	.LVUS105:
 14779 04a3 02       		.uleb128 .LVU1093
 14780 04a4 00       		.uleb128 .LVU1101
 14781              	.LLST105:
 14782 04a5 08       		.byte	0x8
 14783 04a6 D0000000 		.4byte	.LVL175
 14784 04aa 1C       		.uleb128 .LVL176-.LVL175
 14785 04ab 03       		.uleb128 0x3
 14786 04ac 08       		.byte	0x8
 14787 04ad 20       		.byte	0x20
 14788 04ae 9F       		.byte	0x9f
ARM GAS  C:\Users\DEVELO~1\AppData\Local\Temp\cc5EUJSb.s 			page 261


 14789 04af 00       		.byte	0
 14790              	.LVUS106:
 14791 04b0 04       		.uleb128 .LVU1095
 14792 04b1 00       		.uleb128 .LVU1101
 14793              	.LLST106:
 14794 04b2 08       		.byte	0x8
 14795 04b3 D0000000 		.4byte	.LVL175
 14796 04b7 1C       		.uleb128 .LVL176-.LVL175
 14797 04b8 03       		.uleb128 0x3
 14798 04b9 08       		.byte	0x8
 14799 04ba 20       		.byte	0x20
 14800 04bb 9F       		.byte	0x9f
 14801 04bc 00       		.byte	0
 14802              	.LVUS107:
 14803 04bd 02       		.uleb128 .LVU1186
 14804 04be 00       		.uleb128 .LVU1197
 14805              	.LLST107:
 14806 04bf 08       		.byte	0x8
 14807 04c0 9E010000 		.4byte	.LVL185
 14808 04c4 28       		.uleb128 .LVL189-.LVL185
 14809 04c5 02       		.uleb128 0x2
 14810 04c6 40       		.byte	0x40
 14811 04c7 9F       		.byte	0x9f
 14812 04c8 00       		.byte	0
 14813              	.LVUS109:
 14814 04c9 02       		.uleb128 .LVU1186
 14815 04ca 00       		.uleb128 .LVU1197
 14816              	.LLST109:
 14817 04cb 08       		.byte	0x8
 14818 04cc 9E010000 		.4byte	.LVL185
 14819 04d0 28       		.uleb128 .LVL189-.LVL185
 14820 04d1 02       		.uleb128 0x2
 14821 04d2 3A       		.byte	0x3a
 14822 04d3 9F       		.byte	0x9f
 14823 04d4 00       		.byte	0
 14824              	.LVUS110:
 14825 04d5 01       		.uleb128 .LVU1185
 14826 04d6 00       		.uleb128 .LVU1197
 14827              	.LLST110:
 14828 04d7 08       		.byte	0x8
 14829 04d8 9E010000 		.4byte	.LVL185
 14830 04dc 28       		.uleb128 .LVL189-.LVL185
 14831 04dd 06       		.uleb128 0x6
 14832 04de 03       		.byte	0x3
 14833 04df 00000000 		.4byte	SPID1
 14834 04e3 9F       		.byte	0x9f
 14835 04e4 00       		.byte	0
 14836              	.LVUS111:
 14837 04e5 01       		.uleb128 .LVU1202
 14838 04e6 00       		.uleb128 .LVU1209
 14839              	.LLST111:
 14840 04e7 08       		.byte	0x8
 14841 04e8 D6010000 		.4byte	.LVL191
 14842 04ec 1E       		.uleb128 .LVL192-.LVL191
 14843 04ed 02       		.uleb128 0x2
 14844 04ee 31       		.byte	0x31
 14845 04ef 9F       		.byte	0x9f
ARM GAS  C:\Users\DEVELO~1\AppData\Local\Temp\cc5EUJSb.s 			page 262


 14846 04f0 00       		.byte	0
 14847              	.LVUS112:
 14848 04f1 01       		.uleb128 .LVU1202
 14849 04f2 00       		.uleb128 .LVU1209
 14850              	.LLST112:
 14851 04f3 08       		.byte	0x8
 14852 04f4 D6010000 		.4byte	.LVL191
 14853 04f8 1E       		.uleb128 .LVL192-.LVL191
 14854 04f9 04       		.uleb128 0x4
 14855 04fa 0A       		.byte	0xa
 14856 04fb 0010     		.2byte	0x1000
 14857 04fd 9F       		.byte	0x9f
 14858 04fe 00       		.byte	0
 14859              	.LVUS113:
 14860 04ff 02       		.uleb128 .LVU1211
 14861 0500 00       		.uleb128 .LVU1221
 14862              	.LLST113:
 14863 0501 08       		.byte	0x8
 14864 0502 F4010000 		.4byte	.LVL192
 14865 0506 1E       		.uleb128 .LVL194-.LVL192
 14866 0507 04       		.uleb128 0x4
 14867 0508 0A       		.byte	0xa
 14868 0509 0010     		.2byte	0x1000
 14869 050b 9F       		.byte	0x9f
 14870 050c 00       		.byte	0
 14871              	.LVUS114:
 14872 050d 04       		.uleb128 .LVU1213
 14873 050e 00       		.uleb128 .LVU1219
 14874              	.LLST114:
 14875 050f 08       		.byte	0x8
 14876 0510 F4010000 		.4byte	.LVL192
 14877 0514 1C       		.uleb128 .LVL193-.LVL192
 14878 0515 04       		.uleb128 0x4
 14879 0516 0A       		.byte	0xa
 14880 0517 0010     		.2byte	0x1000
 14881 0519 9F       		.byte	0x9f
 14882 051a 00       		.byte	0
 14883              	.LVUS115:
 14884 051b 03       		.uleb128 .LVU1224
 14885 051c 00       		.uleb128 .LVU1235
 14886              	.LLST115:
 14887 051d 08       		.byte	0x8
 14888 051e 12020000 		.4byte	.LVL194
 14889 0522 28       		.uleb128 .LVL198-.LVL194
 14890 0523 02       		.uleb128 0x2
 14891 0524 40       		.byte	0x40
 14892 0525 9F       		.byte	0x9f
 14893 0526 00       		.byte	0
 14894              	.LVUS117:
 14895 0527 03       		.uleb128 .LVU1224
 14896 0528 00       		.uleb128 .LVU1235
 14897              	.LLST117:
 14898 0529 08       		.byte	0x8
 14899 052a 12020000 		.4byte	.LVL194
 14900 052e 28       		.uleb128 .LVL198-.LVL194
 14901 052f 02       		.uleb128 0x2
 14902 0530 3A       		.byte	0x3a
ARM GAS  C:\Users\DEVELO~1\AppData\Local\Temp\cc5EUJSb.s 			page 263


 14903 0531 9F       		.byte	0x9f
 14904 0532 00       		.byte	0
 14905              	.LVUS118:
 14906 0533 02       		.uleb128 .LVU1223
 14907 0534 00       		.uleb128 .LVU1235
 14908              	.LLST118:
 14909 0535 08       		.byte	0x8
 14910 0536 12020000 		.4byte	.LVL194
 14911 053a 28       		.uleb128 .LVL198-.LVL194
 14912 053b 06       		.uleb128 0x6
 14913 053c 03       		.byte	0x3
 14914 053d 00000000 		.4byte	SPID3
 14915 0541 9F       		.byte	0x9f
 14916 0542 00       		.byte	0
 14917              	.LVUS119:
 14918 0543 01       		.uleb128 .LVU1240
 14919 0544 00       		.uleb128 .LVU1247
 14920              	.LLST119:
 14921 0545 08       		.byte	0x8
 14922 0546 4A020000 		.4byte	.LVL200
 14923 054a 1E       		.uleb128 .LVL201-.LVL200
 14924 054b 02       		.uleb128 0x2
 14925 054c 31       		.byte	0x31
 14926 054d 9F       		.byte	0x9f
 14927 054e 00       		.byte	0
 14928              	.LVUS120:
 14929 054f 01       		.uleb128 .LVU1240
 14930 0550 00       		.uleb128 .LVU1247
 14931              	.LLST120:
 14932 0551 08       		.byte	0x8
 14933 0552 4A020000 		.4byte	.LVL200
 14934 0556 1E       		.uleb128 .LVL201-.LVL200
 14935 0557 04       		.uleb128 0x4
 14936 0558 0A       		.byte	0xa
 14937 0559 0080     		.2byte	0x8000
 14938 055b 9F       		.byte	0x9f
 14939 055c 00       		.byte	0
 14940              	.LVUS121:
 14941 055d 02       		.uleb128 .LVU1249
 14942 055e 00       		.uleb128 .LVU1259
 14943              	.LLST121:
 14944 055f 08       		.byte	0x8
 14945 0560 68020000 		.4byte	.LVL201
 14946 0564 1E       		.uleb128 .LVL203-.LVL201
 14947 0565 04       		.uleb128 0x4
 14948 0566 0A       		.byte	0xa
 14949 0567 0080     		.2byte	0x8000
 14950 0569 9F       		.byte	0x9f
 14951 056a 00       		.byte	0
 14952              	.LVUS122:
 14953 056b 04       		.uleb128 .LVU1251
 14954 056c 00       		.uleb128 .LVU1257
 14955              	.LLST122:
 14956 056d 08       		.byte	0x8
 14957 056e 68020000 		.4byte	.LVL201
 14958 0572 1C       		.uleb128 .LVL202-.LVL201
 14959 0573 04       		.uleb128 0x4
ARM GAS  C:\Users\DEVELO~1\AppData\Local\Temp\cc5EUJSb.s 			page 264


 14960 0574 0A       		.byte	0xa
 14961 0575 0080     		.2byte	0x8000
 14962 0577 9F       		.byte	0x9f
 14963 0578 00       		.byte	0
 14964              	.LVUS123:
 14965 0579 03       		.uleb128 .LVU1262
 14966 057a 00       		.uleb128 .LVU1273
 14967              	.LLST123:
 14968 057b 08       		.byte	0x8
 14969 057c 86020000 		.4byte	.LVL203
 14970 0580 24       		.uleb128 .LVL207-.LVL203
 14971 0581 02       		.uleb128 0x2
 14972 0582 40       		.byte	0x40
 14973 0583 9F       		.byte	0x9f
 14974 0584 00       		.byte	0
 14975              	.LVUS125:
 14976 0585 03       		.uleb128 .LVU1262
 14977 0586 00       		.uleb128 .LVU1273
 14978              	.LLST125:
 14979 0587 08       		.byte	0x8
 14980 0588 86020000 		.4byte	.LVL203
 14981 058c 24       		.uleb128 .LVL207-.LVL203
 14982 058d 02       		.uleb128 0x2
 14983 058e 3A       		.byte	0x3a
 14984 058f 9F       		.byte	0x9f
 14985 0590 00       		.byte	0
 14986              	.LVUS126:
 14987 0591 02       		.uleb128 .LVU1261
 14988 0592 00       		.uleb128 .LVU1273
 14989              	.LLST126:
 14990 0593 08       		.byte	0x8
 14991 0594 86020000 		.4byte	.LVL203
 14992 0598 24       		.uleb128 .LVL207-.LVL203
 14993 0599 06       		.uleb128 0x6
 14994 059a 03       		.byte	0x3
 14995 059b 00000000 		.4byte	SPID2
 14996 059f 9F       		.byte	0x9f
 14997 05a0 00       		.byte	0
 14998              	.LVUS127:
 14999 05a1 01       		.uleb128 .LVU1278
 15000 05a2 00       		.uleb128 .LVU1285
 15001              	.LLST127:
 15002 05a3 08       		.byte	0x8
 15003 05a4 BA020000 		.4byte	.LVL209
 15004 05a8 1E       		.uleb128 .LVL210-.LVL209
 15005 05a9 02       		.uleb128 0x2
 15006 05aa 31       		.byte	0x31
 15007 05ab 9F       		.byte	0x9f
 15008 05ac 00       		.byte	0
 15009              	.LVUS128:
 15010 05ad 01       		.uleb128 .LVU1278
 15011 05ae 00       		.uleb128 .LVU1285
 15012              	.LLST128:
 15013 05af 08       		.byte	0x8
 15014 05b0 BA020000 		.4byte	.LVL209
 15015 05b4 1E       		.uleb128 .LVL210-.LVL209
 15016 05b5 04       		.uleb128 0x4
ARM GAS  C:\Users\DEVELO~1\AppData\Local\Temp\cc5EUJSb.s 			page 265


 15017 05b6 0A       		.byte	0xa
 15018 05b7 0040     		.2byte	0x4000
 15019 05b9 9F       		.byte	0x9f
 15020 05ba 00       		.byte	0
 15021              	.LVUS129:
 15022 05bb 02       		.uleb128 .LVU1287
 15023 05bc 00       		.uleb128 .LVU1297
 15024              	.LLST129:
 15025 05bd 08       		.byte	0x8
 15026 05be D8020000 		.4byte	.LVL210
 15027 05c2 1E       		.uleb128 .LVL212-.LVL210
 15028 05c3 04       		.uleb128 0x4
 15029 05c4 0A       		.byte	0xa
 15030 05c5 0040     		.2byte	0x4000
 15031 05c7 9F       		.byte	0x9f
 15032 05c8 00       		.byte	0
 15033              	.LVUS130:
 15034 05c9 04       		.uleb128 .LVU1289
 15035 05ca 00       		.uleb128 .LVU1295
 15036              	.LLST130:
 15037 05cb 08       		.byte	0x8
 15038 05cc D8020000 		.4byte	.LVL210
 15039 05d0 1C       		.uleb128 .LVL211-.LVL210
 15040 05d1 04       		.uleb128 0x4
 15041 05d2 0A       		.byte	0xa
 15042 05d3 0040     		.2byte	0x4000
 15043 05d5 9F       		.byte	0x9f
 15044 05d6 00       		.byte	0
 15045              	.LVUS132:
 15046 05d7 03       		.uleb128 .LVU1300
 15047 05d8 00       		.uleb128 .LVU1311
 15048              	.LLST132:
 15049 05d9 08       		.byte	0x8
 15050 05da F6020000 		.4byte	.LVL212
 15051 05de 22       		.uleb128 .LVL216-.LVL212
 15052 05df 02       		.uleb128 0x2
 15053 05e0 40       		.byte	0x40
 15054 05e1 9F       		.byte	0x9f
 15055 05e2 00       		.byte	0
 15056              	.LVUS134:
 15057 05e3 03       		.uleb128 .LVU1300
 15058 05e4 00       		.uleb128 .LVU1311
 15059              	.LLST134:
 15060 05e5 08       		.byte	0x8
 15061 05e6 F6020000 		.4byte	.LVL212
 15062 05ea 22       		.uleb128 .LVL216-.LVL212
 15063 05eb 02       		.uleb128 0x2
 15064 05ec 3A       		.byte	0x3a
 15065 05ed 9F       		.byte	0x9f
 15066 05ee 00       		.byte	0
 15067              	.LVUS135:
 15068 05ef 02       		.uleb128 .LVU1299
 15069 05f0 00       		.uleb128 .LVU1311
 15070              	.LLST135:
 15071 05f1 08       		.byte	0x8
 15072 05f2 F6020000 		.4byte	.LVL212
 15073 05f6 22       		.uleb128 .LVL216-.LVL212
ARM GAS  C:\Users\DEVELO~1\AppData\Local\Temp\cc5EUJSb.s 			page 266


 15074 05f7 06       		.uleb128 0x6
 15075 05f8 03       		.byte	0x3
 15076 05f9 00000000 		.4byte	SPID5
 15077 05fd 9F       		.byte	0x9f
 15078 05fe 00       		.byte	0
 15079              	.LVUS136:
 15080 05ff 01       		.uleb128 .LVU1316
 15081 0600 00       		.uleb128 .LVU1323
 15082              	.LLST136:
 15083 0601 08       		.byte	0x8
 15084 0602 28030000 		.4byte	.LVL218
 15085 0606 1E       		.uleb128 .LVL219-.LVL218
 15086 0607 02       		.uleb128 0x2
 15087 0608 31       		.byte	0x31
 15088 0609 9F       		.byte	0x9f
 15089 060a 00       		.byte	0
 15090              	.LVUS137:
 15091 060b 01       		.uleb128 .LVU1316
 15092 060c 00       		.uleb128 .LVU1323
 15093              	.LLST137:
 15094 060d 08       		.byte	0x8
 15095 060e 28030000 		.4byte	.LVL218
 15096 0612 1E       		.uleb128 .LVL219-.LVL218
 15097 0613 04       		.uleb128 0x4
 15098 0614 40       		.byte	0x40
 15099 0615 40       		.byte	0x40
 15100 0616 24       		.byte	0x24
 15101 0617 9F       		.byte	0x9f
 15102 0618 00       		.byte	0
 15103              	.LVUS138:
 15104 0619 02       		.uleb128 .LVU1325
 15105 061a 00       		.uleb128 .LVU1335
 15106              	.LLST138:
 15107 061b 08       		.byte	0x8
 15108 061c 46030000 		.4byte	.LVL219
 15109 0620 1E       		.uleb128 .LVL221-.LVL219
 15110 0621 04       		.uleb128 0x4
 15111 0622 40       		.byte	0x40
 15112 0623 40       		.byte	0x40
 15113 0624 24       		.byte	0x24
 15114 0625 9F       		.byte	0x9f
 15115 0626 00       		.byte	0
 15116              	.LVUS139:
 15117 0627 04       		.uleb128 .LVU1327
 15118 0628 00       		.uleb128 .LVU1333
 15119              	.LLST139:
 15120 0629 08       		.byte	0x8
 15121 062a 46030000 		.4byte	.LVL219
 15122 062e 1C       		.uleb128 .LVL220-.LVL219
 15123 062f 04       		.uleb128 0x4
 15124 0630 40       		.byte	0x40
 15125 0631 40       		.byte	0x40
 15126 0632 24       		.byte	0x24
 15127 0633 9F       		.byte	0x9f
 15128 0634 00       		.byte	0
 15129              	.LVUS88:
 15130 0635 02       		.uleb128 .LVU851
ARM GAS  C:\Users\DEVELO~1\AppData\Local\Temp\cc5EUJSb.s 			page 267


 15131 0636 02       		.uleb128 .LVU865
 15132 0637 00       		.uleb128 .LVU873
 15133 0638 06       		.uleb128 .LVU914
 15134              	.LLST88:
 15135 0639 06       		.byte	0x6
 15136 063a 0A000000 		.4byte	.LVL139
 15137 063e 04       		.byte	0x4
 15138 063f 00       		.uleb128 .LVL139-.LVL139
 15139 0640 0E       		.uleb128 .LVL142-.LVL139
 15140 0641 06       		.uleb128 0x6
 15141 0642 03       		.byte	0x3
 15142 0643 00000000 		.4byte	SPID6
 15143 0647 9F       		.byte	0x9f
 15144 0648 04       		.byte	0x4
 15145 0649 1C       		.uleb128 .LVL144-.LVL139
 15146 064a 42       		.uleb128 .LVL149-.LVL139
 15147 064b 06       		.uleb128 0x6
 15148 064c 03       		.byte	0x3
 15149 064d 00000000 		.4byte	SPID6
 15150 0651 9F       		.byte	0x9f
 15151 0652 00       		.byte	0
 15152              	.LVUS89:
 15153 0653 00       		.uleb128 .LVU858
 15154 0654 00       		.uleb128 .LVU862
 15155 0655 00       		.uleb128 .LVU862
 15156 0656 02       		.uleb128 .LVU865
 15157 0657 00       		.uleb128 .LVU873
 15158 0658 00       		.uleb128 .LVU875
 15159              	.LLST89:
 15160 0659 06       		.byte	0x6
 15161 065a 12000000 		.4byte	.LVL140
 15162 065e 04       		.byte	0x4
 15163 065f 00       		.uleb128 .LVL140-.LVL140
 15164 0660 04       		.uleb128 .LVL141-.LVL140
 15165 0661 01       		.uleb128 0x1
 15166 0662 53       		.byte	0x53
 15167 0663 04       		.byte	0x4
 15168 0664 04       		.uleb128 .LVL141-.LVL140
 15169 0665 06       		.uleb128 .LVL142-.LVL140
 15170 0666 02       		.uleb128 0x2
 15171 0667 72       		.byte	0x72
 15172 0668 18       		.sleb128 24
 15173 0669 04       		.byte	0x4
 15174 066a 14       		.uleb128 .LVL144-.LVL140
 15175 066b 19       		.uleb128 .LVL145-1-.LVL140
 15176 066c 02       		.uleb128 0x2
 15177 066d 72       		.byte	0x72
 15178 066e 18       		.sleb128 24
 15179 066f 00       		.byte	0
 15180              	.LVUS90:
 15181 0670 00       		.uleb128 .LVU873
 15182 0671 03       		.uleb128 .LVU911
 15183              	.LLST90:
 15184 0672 08       		.byte	0x8
 15185 0673 26000000 		.4byte	.LVL144
 15186 0677 26       		.uleb128 .LVL149-.LVL144
 15187 0678 06       		.uleb128 0x6
ARM GAS  C:\Users\DEVELO~1\AppData\Local\Temp\cc5EUJSb.s 			page 268


 15188 0679 03       		.byte	0x3
 15189 067a 00000000 		.4byte	SPID6
 15190 067e 9F       		.byte	0x9f
 15191 067f 00       		.byte	0
 15192              	.LVUS91:
 15193 0680 09       		.uleb128 .LVU886
 15194 0681 00       		.uleb128 .LVU888
 15195              	.LLST91:
 15196 0682 08       		.byte	0x8
 15197 0683 36000000 		.4byte	.LVL146
 15198 0687 06       		.uleb128 .LVL147-.LVL146
 15199 0688 03       		.uleb128 0x3
 15200 0689 08       		.byte	0x8
 15201 068a 30       		.byte	0x30
 15202 068b 9F       		.byte	0x9f
 15203 068c 00       		.byte	0
 15204              	.LVUS92:
 15205 068d 04       		.uleb128 .LVU892
 15206 068e 00       		.uleb128 .LVU894
 15207              	.LLST92:
 15208 068f 08       		.byte	0x8
 15209 0690 3C000000 		.4byte	.LVL147
 15210 0694 0A       		.uleb128 .LVL148-.LVL147
 15211 0695 03       		.uleb128 0x3
 15212 0696 09       		.byte	0x9
 15213 0697 ED       		.byte	0xed
 15214 0698 9F       		.byte	0x9f
 15215 0699 00       		.byte	0
 15216              	.LVUS93:
 15217 069a 04       		.uleb128 .LVU892
 15218 069b 00       		.uleb128 .LVU894
 15219              	.LLST93:
 15220 069c 08       		.byte	0x8
 15221 069d 3C000000 		.4byte	.LVL147
 15222 06a1 0A       		.uleb128 .LVL148-.LVL147
 15223 06a2 06       		.uleb128 0x6
 15224 06a3 03       		.byte	0x3
 15225 06a4 08000000 		.4byte	SPID6+8
 15226 06a8 9F       		.byte	0x9f
 15227 06a9 00       		.byte	0
 15228              	.LVUS94:
 15229 06aa 0C       		.uleb128 .LVU906
 15230 06ab 00       		.uleb128 .LVU908
 15231              	.LLST94:
 15232 06ac 08       		.byte	0x8
 15233 06ad 46000000 		.4byte	.LVL148
 15234 06b1 06       		.uleb128 .LVL149-.LVL148
 15235 06b2 02       		.uleb128 0x2
 15236 06b3 30       		.byte	0x30
 15237 06b4 9F       		.byte	0x9f
 15238 06b5 00       		.byte	0
 15239              	.LVUS80:
 15240 06b6 02       		.uleb128 .LVU769
 15241 06b7 02       		.uleb128 .LVU783
 15242 06b8 00       		.uleb128 .LVU791
 15243 06b9 06       		.uleb128 .LVU832
 15244              	.LLST80:
ARM GAS  C:\Users\DEVELO~1\AppData\Local\Temp\cc5EUJSb.s 			page 269


 15245 06ba 06       		.byte	0x6
 15246 06bb 0A000000 		.4byte	.LVL126
 15247 06bf 04       		.byte	0x4
 15248 06c0 00       		.uleb128 .LVL126-.LVL126
 15249 06c1 0E       		.uleb128 .LVL129-.LVL126
 15250 06c2 06       		.uleb128 0x6
 15251 06c3 03       		.byte	0x3
 15252 06c4 00000000 		.4byte	SPID5
 15253 06c8 9F       		.byte	0x9f
 15254 06c9 04       		.byte	0x4
 15255 06ca 1C       		.uleb128 .LVL131-.LVL126
 15256 06cb 42       		.uleb128 .LVL136-.LVL126
 15257 06cc 06       		.uleb128 0x6
 15258 06cd 03       		.byte	0x3
 15259 06ce 00000000 		.4byte	SPID5
 15260 06d2 9F       		.byte	0x9f
 15261 06d3 00       		.byte	0
 15262              	.LVUS81:
 15263 06d4 00       		.uleb128 .LVU776
 15264 06d5 00       		.uleb128 .LVU780
 15265 06d6 00       		.uleb128 .LVU780
 15266 06d7 02       		.uleb128 .LVU783
 15267 06d8 00       		.uleb128 .LVU791
 15268 06d9 00       		.uleb128 .LVU793
 15269              	.LLST81:
 15270 06da 06       		.byte	0x6
 15271 06db 12000000 		.4byte	.LVL127
 15272 06df 04       		.byte	0x4
 15273 06e0 00       		.uleb128 .LVL127-.LVL127
 15274 06e1 04       		.uleb128 .LVL128-.LVL127
 15275 06e2 01       		.uleb128 0x1
 15276 06e3 53       		.byte	0x53
 15277 06e4 04       		.byte	0x4
 15278 06e5 04       		.uleb128 .LVL128-.LVL127
 15279 06e6 06       		.uleb128 .LVL129-.LVL127
 15280 06e7 02       		.uleb128 0x2
 15281 06e8 72       		.byte	0x72
 15282 06e9 18       		.sleb128 24
 15283 06ea 04       		.byte	0x4
 15284 06eb 14       		.uleb128 .LVL131-.LVL127
 15285 06ec 19       		.uleb128 .LVL132-1-.LVL127
 15286 06ed 02       		.uleb128 0x2
 15287 06ee 72       		.byte	0x72
 15288 06ef 18       		.sleb128 24
 15289 06f0 00       		.byte	0
 15290              	.LVUS82:
 15291 06f1 00       		.uleb128 .LVU791
 15292 06f2 03       		.uleb128 .LVU829
 15293              	.LLST82:
 15294 06f3 08       		.byte	0x8
 15295 06f4 26000000 		.4byte	.LVL131
 15296 06f8 26       		.uleb128 .LVL136-.LVL131
 15297 06f9 06       		.uleb128 0x6
 15298 06fa 03       		.byte	0x3
 15299 06fb 00000000 		.4byte	SPID5
 15300 06ff 9F       		.byte	0x9f
 15301 0700 00       		.byte	0
ARM GAS  C:\Users\DEVELO~1\AppData\Local\Temp\cc5EUJSb.s 			page 270


 15302              	.LVUS83:
 15303 0701 09       		.uleb128 .LVU804
 15304 0702 00       		.uleb128 .LVU806
 15305              	.LLST83:
 15306 0703 08       		.byte	0x8
 15307 0704 36000000 		.4byte	.LVL133
 15308 0708 06       		.uleb128 .LVL134-.LVL133
 15309 0709 03       		.uleb128 0x3
 15310 070a 08       		.byte	0x8
 15311 070b 30       		.byte	0x30
 15312 070c 9F       		.byte	0x9f
 15313 070d 00       		.byte	0
 15314              	.LVUS84:
 15315 070e 04       		.uleb128 .LVU810
 15316 070f 00       		.uleb128 .LVU812
 15317              	.LLST84:
 15318 0710 08       		.byte	0x8
 15319 0711 3C000000 		.4byte	.LVL134
 15320 0715 0A       		.uleb128 .LVL135-.LVL134
 15321 0716 03       		.uleb128 0x3
 15322 0717 09       		.byte	0x9
 15323 0718 ED       		.byte	0xed
 15324 0719 9F       		.byte	0x9f
 15325 071a 00       		.byte	0
 15326              	.LVUS85:
 15327 071b 04       		.uleb128 .LVU810
 15328 071c 00       		.uleb128 .LVU812
 15329              	.LLST85:
 15330 071d 08       		.byte	0x8
 15331 071e 3C000000 		.4byte	.LVL134
 15332 0722 0A       		.uleb128 .LVL135-.LVL134
 15333 0723 06       		.uleb128 0x6
 15334 0724 03       		.byte	0x3
 15335 0725 08000000 		.4byte	SPID5+8
 15336 0729 9F       		.byte	0x9f
 15337 072a 00       		.byte	0
 15338              	.LVUS86:
 15339 072b 0C       		.uleb128 .LVU824
 15340 072c 00       		.uleb128 .LVU826
 15341              	.LLST86:
 15342 072d 08       		.byte	0x8
 15343 072e 46000000 		.4byte	.LVL135
 15344 0732 06       		.uleb128 .LVL136-.LVL135
 15345 0733 02       		.uleb128 0x2
 15346 0734 30       		.byte	0x30
 15347 0735 9F       		.byte	0x9f
 15348 0736 00       		.byte	0
 15349              	.LVUS72:
 15350 0737 02       		.uleb128 .LVU687
 15351 0738 02       		.uleb128 .LVU701
 15352 0739 00       		.uleb128 .LVU709
 15353 073a 06       		.uleb128 .LVU750
 15354              	.LLST72:
 15355 073b 06       		.byte	0x6
 15356 073c 0A000000 		.4byte	.LVL113
 15357 0740 04       		.byte	0x4
 15358 0741 00       		.uleb128 .LVL113-.LVL113
ARM GAS  C:\Users\DEVELO~1\AppData\Local\Temp\cc5EUJSb.s 			page 271


 15359 0742 0E       		.uleb128 .LVL116-.LVL113
 15360 0743 06       		.uleb128 0x6
 15361 0744 03       		.byte	0x3
 15362 0745 00000000 		.4byte	SPID3
 15363 0749 9F       		.byte	0x9f
 15364 074a 04       		.byte	0x4
 15365 074b 1C       		.uleb128 .LVL118-.LVL113
 15366 074c 42       		.uleb128 .LVL123-.LVL113
 15367 074d 06       		.uleb128 0x6
 15368 074e 03       		.byte	0x3
 15369 074f 00000000 		.4byte	SPID3
 15370 0753 9F       		.byte	0x9f
 15371 0754 00       		.byte	0
 15372              	.LVUS73:
 15373 0755 00       		.uleb128 .LVU694
 15374 0756 00       		.uleb128 .LVU698
 15375 0757 00       		.uleb128 .LVU698
 15376 0758 02       		.uleb128 .LVU701
 15377 0759 00       		.uleb128 .LVU709
 15378 075a 00       		.uleb128 .LVU711
 15379              	.LLST73:
 15380 075b 06       		.byte	0x6
 15381 075c 12000000 		.4byte	.LVL114
 15382 0760 04       		.byte	0x4
 15383 0761 00       		.uleb128 .LVL114-.LVL114
 15384 0762 04       		.uleb128 .LVL115-.LVL114
 15385 0763 01       		.uleb128 0x1
 15386 0764 53       		.byte	0x53
 15387 0765 04       		.byte	0x4
 15388 0766 04       		.uleb128 .LVL115-.LVL114
 15389 0767 06       		.uleb128 .LVL116-.LVL114
 15390 0768 02       		.uleb128 0x2
 15391 0769 72       		.byte	0x72
 15392 076a 18       		.sleb128 24
 15393 076b 04       		.byte	0x4
 15394 076c 14       		.uleb128 .LVL118-.LVL114
 15395 076d 19       		.uleb128 .LVL119-1-.LVL114
 15396 076e 02       		.uleb128 0x2
 15397 076f 72       		.byte	0x72
 15398 0770 18       		.sleb128 24
 15399 0771 00       		.byte	0
 15400              	.LVUS74:
 15401 0772 00       		.uleb128 .LVU709
 15402 0773 03       		.uleb128 .LVU747
 15403              	.LLST74:
 15404 0774 08       		.byte	0x8
 15405 0775 26000000 		.4byte	.LVL118
 15406 0779 26       		.uleb128 .LVL123-.LVL118
 15407 077a 06       		.uleb128 0x6
 15408 077b 03       		.byte	0x3
 15409 077c 00000000 		.4byte	SPID3
 15410 0780 9F       		.byte	0x9f
 15411 0781 00       		.byte	0
 15412              	.LVUS75:
 15413 0782 09       		.uleb128 .LVU722
 15414 0783 00       		.uleb128 .LVU724
 15415              	.LLST75:
ARM GAS  C:\Users\DEVELO~1\AppData\Local\Temp\cc5EUJSb.s 			page 272


 15416 0784 08       		.byte	0x8
 15417 0785 36000000 		.4byte	.LVL120
 15418 0789 06       		.uleb128 .LVL121-.LVL120
 15419 078a 03       		.uleb128 0x3
 15420 078b 08       		.byte	0x8
 15421 078c 30       		.byte	0x30
 15422 078d 9F       		.byte	0x9f
 15423 078e 00       		.byte	0
 15424              	.LVUS76:
 15425 078f 04       		.uleb128 .LVU728
 15426 0790 00       		.uleb128 .LVU730
 15427              	.LLST76:
 15428 0791 08       		.byte	0x8
 15429 0792 3C000000 		.4byte	.LVL121
 15430 0796 0A       		.uleb128 .LVL122-.LVL121
 15431 0797 03       		.uleb128 0x3
 15432 0798 09       		.byte	0x9
 15433 0799 ED       		.byte	0xed
 15434 079a 9F       		.byte	0x9f
 15435 079b 00       		.byte	0
 15436              	.LVUS77:
 15437 079c 04       		.uleb128 .LVU728
 15438 079d 00       		.uleb128 .LVU730
 15439              	.LLST77:
 15440 079e 08       		.byte	0x8
 15441 079f 3C000000 		.4byte	.LVL121
 15442 07a3 0A       		.uleb128 .LVL122-.LVL121
 15443 07a4 06       		.uleb128 0x6
 15444 07a5 03       		.byte	0x3
 15445 07a6 08000000 		.4byte	SPID3+8
 15446 07aa 9F       		.byte	0x9f
 15447 07ab 00       		.byte	0
 15448              	.LVUS78:
 15449 07ac 0C       		.uleb128 .LVU742
 15450 07ad 00       		.uleb128 .LVU744
 15451              	.LLST78:
 15452 07ae 08       		.byte	0x8
 15453 07af 46000000 		.4byte	.LVL122
 15454 07b3 06       		.uleb128 .LVL123-.LVL122
 15455 07b4 02       		.uleb128 0x2
 15456 07b5 30       		.byte	0x30
 15457 07b6 9F       		.byte	0x9f
 15458 07b7 00       		.byte	0
 15459              	.LVUS64:
 15460 07b8 02       		.uleb128 .LVU605
 15461 07b9 02       		.uleb128 .LVU619
 15462 07ba 00       		.uleb128 .LVU627
 15463 07bb 06       		.uleb128 .LVU668
 15464              	.LLST64:
 15465 07bc 06       		.byte	0x6
 15466 07bd 0A000000 		.4byte	.LVL100
 15467 07c1 04       		.byte	0x4
 15468 07c2 00       		.uleb128 .LVL100-.LVL100
 15469 07c3 0E       		.uleb128 .LVL103-.LVL100
 15470 07c4 06       		.uleb128 0x6
 15471 07c5 03       		.byte	0x3
 15472 07c6 00000000 		.4byte	SPID2
ARM GAS  C:\Users\DEVELO~1\AppData\Local\Temp\cc5EUJSb.s 			page 273


 15473 07ca 9F       		.byte	0x9f
 15474 07cb 04       		.byte	0x4
 15475 07cc 1C       		.uleb128 .LVL105-.LVL100
 15476 07cd 42       		.uleb128 .LVL110-.LVL100
 15477 07ce 06       		.uleb128 0x6
 15478 07cf 03       		.byte	0x3
 15479 07d0 00000000 		.4byte	SPID2
 15480 07d4 9F       		.byte	0x9f
 15481 07d5 00       		.byte	0
 15482              	.LVUS65:
 15483 07d6 00       		.uleb128 .LVU612
 15484 07d7 00       		.uleb128 .LVU616
 15485 07d8 00       		.uleb128 .LVU616
 15486 07d9 02       		.uleb128 .LVU619
 15487 07da 00       		.uleb128 .LVU627
 15488 07db 00       		.uleb128 .LVU629
 15489              	.LLST65:
 15490 07dc 06       		.byte	0x6
 15491 07dd 12000000 		.4byte	.LVL101
 15492 07e1 04       		.byte	0x4
 15493 07e2 00       		.uleb128 .LVL101-.LVL101
 15494 07e3 04       		.uleb128 .LVL102-.LVL101
 15495 07e4 01       		.uleb128 0x1
 15496 07e5 53       		.byte	0x53
 15497 07e6 04       		.byte	0x4
 15498 07e7 04       		.uleb128 .LVL102-.LVL101
 15499 07e8 06       		.uleb128 .LVL103-.LVL101
 15500 07e9 02       		.uleb128 0x2
 15501 07ea 72       		.byte	0x72
 15502 07eb 18       		.sleb128 24
 15503 07ec 04       		.byte	0x4
 15504 07ed 14       		.uleb128 .LVL105-.LVL101
 15505 07ee 19       		.uleb128 .LVL106-1-.LVL101
 15506 07ef 02       		.uleb128 0x2
 15507 07f0 72       		.byte	0x72
 15508 07f1 18       		.sleb128 24
 15509 07f2 00       		.byte	0
 15510              	.LVUS66:
 15511 07f3 00       		.uleb128 .LVU627
 15512 07f4 03       		.uleb128 .LVU665
 15513              	.LLST66:
 15514 07f5 08       		.byte	0x8
 15515 07f6 26000000 		.4byte	.LVL105
 15516 07fa 26       		.uleb128 .LVL110-.LVL105
 15517 07fb 06       		.uleb128 0x6
 15518 07fc 03       		.byte	0x3
 15519 07fd 00000000 		.4byte	SPID2
 15520 0801 9F       		.byte	0x9f
 15521 0802 00       		.byte	0
 15522              	.LVUS67:
 15523 0803 09       		.uleb128 .LVU640
 15524 0804 00       		.uleb128 .LVU642
 15525              	.LLST67:
 15526 0805 08       		.byte	0x8
 15527 0806 36000000 		.4byte	.LVL107
 15528 080a 06       		.uleb128 .LVL108-.LVL107
 15529 080b 03       		.uleb128 0x3
ARM GAS  C:\Users\DEVELO~1\AppData\Local\Temp\cc5EUJSb.s 			page 274


 15530 080c 08       		.byte	0x8
 15531 080d 30       		.byte	0x30
 15532 080e 9F       		.byte	0x9f
 15533 080f 00       		.byte	0
 15534              	.LVUS68:
 15535 0810 04       		.uleb128 .LVU646
 15536 0811 00       		.uleb128 .LVU648
 15537              	.LLST68:
 15538 0812 08       		.byte	0x8
 15539 0813 3C000000 		.4byte	.LVL108
 15540 0817 0A       		.uleb128 .LVL109-.LVL108
 15541 0818 03       		.uleb128 0x3
 15542 0819 09       		.byte	0x9
 15543 081a ED       		.byte	0xed
 15544 081b 9F       		.byte	0x9f
 15545 081c 00       		.byte	0
 15546              	.LVUS69:
 15547 081d 04       		.uleb128 .LVU646
 15548 081e 00       		.uleb128 .LVU648
 15549              	.LLST69:
 15550 081f 08       		.byte	0x8
 15551 0820 3C000000 		.4byte	.LVL108
 15552 0824 0A       		.uleb128 .LVL109-.LVL108
 15553 0825 06       		.uleb128 0x6
 15554 0826 03       		.byte	0x3
 15555 0827 08000000 		.4byte	SPID2+8
 15556 082b 9F       		.byte	0x9f
 15557 082c 00       		.byte	0
 15558              	.LVUS70:
 15559 082d 0C       		.uleb128 .LVU660
 15560 082e 00       		.uleb128 .LVU662
 15561              	.LLST70:
 15562 082f 08       		.byte	0x8
 15563 0830 46000000 		.4byte	.LVL109
 15564 0834 06       		.uleb128 .LVL110-.LVL109
 15565 0835 02       		.uleb128 0x2
 15566 0836 30       		.byte	0x30
 15567 0837 9F       		.byte	0x9f
 15568 0838 00       		.byte	0
 15569              	.LVUS56:
 15570 0839 02       		.uleb128 .LVU523
 15571 083a 02       		.uleb128 .LVU537
 15572 083b 00       		.uleb128 .LVU545
 15573 083c 06       		.uleb128 .LVU586
 15574              	.LLST56:
 15575 083d 06       		.byte	0x6
 15576 083e 0A000000 		.4byte	.LVL87
 15577 0842 04       		.byte	0x4
 15578 0843 00       		.uleb128 .LVL87-.LVL87
 15579 0844 0E       		.uleb128 .LVL90-.LVL87
 15580 0845 06       		.uleb128 0x6
 15581 0846 03       		.byte	0x3
 15582 0847 00000000 		.4byte	SPID1
 15583 084b 9F       		.byte	0x9f
 15584 084c 04       		.byte	0x4
 15585 084d 1C       		.uleb128 .LVL92-.LVL87
 15586 084e 42       		.uleb128 .LVL97-.LVL87
ARM GAS  C:\Users\DEVELO~1\AppData\Local\Temp\cc5EUJSb.s 			page 275


 15587 084f 06       		.uleb128 0x6
 15588 0850 03       		.byte	0x3
 15589 0851 00000000 		.4byte	SPID1
 15590 0855 9F       		.byte	0x9f
 15591 0856 00       		.byte	0
 15592              	.LVUS57:
 15593 0857 00       		.uleb128 .LVU530
 15594 0858 00       		.uleb128 .LVU534
 15595 0859 00       		.uleb128 .LVU534
 15596 085a 02       		.uleb128 .LVU537
 15597 085b 00       		.uleb128 .LVU545
 15598 085c 00       		.uleb128 .LVU547
 15599              	.LLST57:
 15600 085d 06       		.byte	0x6
 15601 085e 12000000 		.4byte	.LVL88
 15602 0862 04       		.byte	0x4
 15603 0863 00       		.uleb128 .LVL88-.LVL88
 15604 0864 04       		.uleb128 .LVL89-.LVL88
 15605 0865 01       		.uleb128 0x1
 15606 0866 53       		.byte	0x53
 15607 0867 04       		.byte	0x4
 15608 0868 04       		.uleb128 .LVL89-.LVL88
 15609 0869 06       		.uleb128 .LVL90-.LVL88
 15610 086a 02       		.uleb128 0x2
 15611 086b 72       		.byte	0x72
 15612 086c 18       		.sleb128 24
 15613 086d 04       		.byte	0x4
 15614 086e 14       		.uleb128 .LVL92-.LVL88
 15615 086f 19       		.uleb128 .LVL93-1-.LVL88
 15616 0870 02       		.uleb128 0x2
 15617 0871 72       		.byte	0x72
 15618 0872 18       		.sleb128 24
 15619 0873 00       		.byte	0
 15620              	.LVUS58:
 15621 0874 00       		.uleb128 .LVU545
 15622 0875 03       		.uleb128 .LVU583
 15623              	.LLST58:
 15624 0876 08       		.byte	0x8
 15625 0877 26000000 		.4byte	.LVL92
 15626 087b 26       		.uleb128 .LVL97-.LVL92
 15627 087c 06       		.uleb128 0x6
 15628 087d 03       		.byte	0x3
 15629 087e 00000000 		.4byte	SPID1
 15630 0882 9F       		.byte	0x9f
 15631 0883 00       		.byte	0
 15632              	.LVUS59:
 15633 0884 09       		.uleb128 .LVU558
 15634 0885 00       		.uleb128 .LVU560
 15635              	.LLST59:
 15636 0886 08       		.byte	0x8
 15637 0887 36000000 		.4byte	.LVL94
 15638 088b 06       		.uleb128 .LVL95-.LVL94
 15639 088c 03       		.uleb128 0x3
 15640 088d 08       		.byte	0x8
 15641 088e 30       		.byte	0x30
 15642 088f 9F       		.byte	0x9f
 15643 0890 00       		.byte	0
ARM GAS  C:\Users\DEVELO~1\AppData\Local\Temp\cc5EUJSb.s 			page 276


 15644              	.LVUS60:
 15645 0891 04       		.uleb128 .LVU564
 15646 0892 00       		.uleb128 .LVU566
 15647              	.LLST60:
 15648 0893 08       		.byte	0x8
 15649 0894 3C000000 		.4byte	.LVL95
 15650 0898 0A       		.uleb128 .LVL96-.LVL95
 15651 0899 03       		.uleb128 0x3
 15652 089a 09       		.byte	0x9
 15653 089b ED       		.byte	0xed
 15654 089c 9F       		.byte	0x9f
 15655 089d 00       		.byte	0
 15656              	.LVUS61:
 15657 089e 04       		.uleb128 .LVU564
 15658 089f 00       		.uleb128 .LVU566
 15659              	.LLST61:
 15660 08a0 08       		.byte	0x8
 15661 08a1 3C000000 		.4byte	.LVL95
 15662 08a5 0A       		.uleb128 .LVL96-.LVL95
 15663 08a6 06       		.uleb128 0x6
 15664 08a7 03       		.byte	0x3
 15665 08a8 08000000 		.4byte	SPID1+8
 15666 08ac 9F       		.byte	0x9f
 15667 08ad 00       		.byte	0
 15668              	.LVUS62:
 15669 08ae 0C       		.uleb128 .LVU578
 15670 08af 00       		.uleb128 .LVU580
 15671              	.LLST62:
 15672 08b0 08       		.byte	0x8
 15673 08b1 46000000 		.4byte	.LVL96
 15674 08b5 06       		.uleb128 .LVL97-.LVL96
 15675 08b6 02       		.uleb128 0x2
 15676 08b7 30       		.byte	0x30
 15677 08b8 9F       		.byte	0x9f
 15678 08b9 00       		.byte	0
 15679              	.LVUS33:
 15680 08ba 00       		.uleb128 0
 15681 08bb 00       		.uleb128 .LVU295
 15682 08bc 00       		.uleb128 .LVU295
 15683 08bd 00       		.uleb128 .LVU354
 15684 08be 00       		.uleb128 .LVU354
 15685 08bf 00       		.uleb128 .LVU357
 15686 08c0 00       		.uleb128 .LVU357
 15687 08c1 00       		.uleb128 0
 15688              	.LLST33:
 15689 08c2 06       		.byte	0x6
 15690 08c3 00000000 		.4byte	.LVL42
 15691 08c7 04       		.byte	0x4
 15692 08c8 00       		.uleb128 .LVL42-.LVL42
 15693 08c9 0C       		.uleb128 .LVL43-.LVL42
 15694 08ca 01       		.uleb128 0x1
 15695 08cb 50       		.byte	0x50
 15696 08cc 04       		.byte	0x4
 15697 08cd 0C       		.uleb128 .LVL43-.LVL42
 15698 08ce 68       		.uleb128 .LVL54-.LVL42
 15699 08cf 01       		.uleb128 0x1
 15700 08d0 54       		.byte	0x54
ARM GAS  C:\Users\DEVELO~1\AppData\Local\Temp\cc5EUJSb.s 			page 277


 15701 08d1 04       		.byte	0x4
 15702 08d2 68       		.uleb128 .LVL54-.LVL42
 15703 08d3 6A       		.uleb128 .LVL55-.LVL42
 15704 08d4 01       		.uleb128 0x1
 15705 08d5 50       		.byte	0x50
 15706 08d6 04       		.byte	0x4
 15707 08d7 6A       		.uleb128 .LVL55-.LVL42
 15708 08d8 A801     		.uleb128 .LFE439-.LVL42
 15709 08da 01       		.uleb128 0x1
 15710 08db 54       		.byte	0x54
 15711 08dc 00       		.byte	0
 15712              	.LVUS34:
 15713 08dd 00       		.uleb128 0
 15714 08de 00       		.uleb128 .LVU295
 15715 08df 00       		.uleb128 .LVU295
 15716 08e0 00       		.uleb128 .LVU354
 15717 08e1 00       		.uleb128 .LVU354
 15718 08e2 00       		.uleb128 .LVU358
 15719 08e3 00       		.uleb128 .LVU358
 15720 08e4 00       		.uleb128 0
 15721              	.LLST34:
 15722 08e5 06       		.byte	0x6
 15723 08e6 00000000 		.4byte	.LVL42
 15724 08ea 04       		.byte	0x4
 15725 08eb 00       		.uleb128 .LVL42-.LVL42
 15726 08ec 0C       		.uleb128 .LVL43-.LVL42
 15727 08ed 01       		.uleb128 0x1
 15728 08ee 51       		.byte	0x51
 15729 08ef 04       		.byte	0x4
 15730 08f0 0C       		.uleb128 .LVL43-.LVL42
 15731 08f1 68       		.uleb128 .LVL54-.LVL42
 15732 08f2 01       		.uleb128 0x1
 15733 08f3 55       		.byte	0x55
 15734 08f4 04       		.byte	0x4
 15735 08f5 68       		.uleb128 .LVL54-.LVL42
 15736 08f6 6D       		.uleb128 .LVL56-1-.LVL42
 15737 08f7 01       		.uleb128 0x1
 15738 08f8 51       		.byte	0x51
 15739 08f9 04       		.byte	0x4
 15740 08fa 6D       		.uleb128 .LVL56-1-.LVL42
 15741 08fb A801     		.uleb128 .LFE439-.LVL42
 15742 08fd 01       		.uleb128 0x1
 15743 08fe 55       		.byte	0x55
 15744 08ff 00       		.byte	0
 15745              	.LVUS35:
 15746 0900 09       		.uleb128 .LVU327
 15747 0901 00       		.uleb128 .LVU329
 15748              	.LLST35:
 15749 0902 08       		.byte	0x8
 15750 0903 50000000 		.4byte	.LVL49
 15751 0907 06       		.uleb128 .LVL50-.LVL49
 15752 0908 03       		.uleb128 0x3
 15753 0909 08       		.byte	0x8
 15754 090a 30       		.byte	0x30
 15755 090b 9F       		.byte	0x9f
 15756 090c 00       		.byte	0
 15757              	.LVUS36:
ARM GAS  C:\Users\DEVELO~1\AppData\Local\Temp\cc5EUJSb.s 			page 278


 15758 090d 04       		.uleb128 .LVU333
 15759 090e 00       		.uleb128 .LVU336
 15760              	.LLST36:
 15761 090f 08       		.byte	0x8
 15762 0910 56000000 		.4byte	.LVL50
 15763 0914 0A       		.uleb128 .LVL52-.LVL50
 15764 0915 02       		.uleb128 0x2
 15765 0916 30       		.byte	0x30
 15766 0917 9F       		.byte	0x9f
 15767 0918 00       		.byte	0
 15768              	.LVUS37:
 15769 0919 04       		.uleb128 .LVU333
 15770 091a 00       		.uleb128 .LVU335
 15771 091b 00       		.uleb128 .LVU335
 15772 091c 00       		.uleb128 .LVU336
 15773 091d 00       		.uleb128 .LVU336
 15774 091e 00       		.uleb128 .LVU336
 15775              	.LLST37:
 15776 091f 06       		.byte	0x6
 15777 0920 56000000 		.4byte	.LVL50
 15778 0924 04       		.byte	0x4
 15779 0925 00       		.uleb128 .LVL50-.LVL50
 15780 0926 06       		.uleb128 .LVL51-.LVL50
 15781 0927 03       		.uleb128 0x3
 15782 0928 74       		.byte	0x74
 15783 0929 08       		.sleb128 8
 15784 092a 9F       		.byte	0x9f
 15785 092b 04       		.byte	0x4
 15786 092c 06       		.uleb128 .LVL51-.LVL50
 15787 092d 09       		.uleb128 .LVL52-1-.LVL50
 15788 092e 01       		.uleb128 0x1
 15789 092f 50       		.byte	0x50
 15790 0930 04       		.byte	0x4
 15791 0931 09       		.uleb128 .LVL52-1-.LVL50
 15792 0932 0A       		.uleb128 .LVL52-.LVL50
 15793 0933 03       		.uleb128 0x3
 15794 0934 74       		.byte	0x74
 15795 0935 08       		.sleb128 8
 15796 0936 9F       		.byte	0x9f
 15797 0937 00       		.byte	0
 15798              	.LVUS38:
 15799 0938 0C       		.uleb128 .LVU348
 15800 0939 00       		.uleb128 .LVU350
 15801              	.LLST38:
 15802 093a 08       		.byte	0x8
 15803 093b 60000000 		.4byte	.LVL52
 15804 093f 06       		.uleb128 .LVL53-.LVL52
 15805 0940 02       		.uleb128 0x2
 15806 0941 30       		.byte	0x30
 15807 0942 9F       		.byte	0x9f
 15808 0943 00       		.byte	0
 15809              	.LVUS39:
 15810 0944 01       		.uleb128 .LVU355
 15811 0945 00       		.uleb128 .LVU358
 15812              	.LLST39:
 15813 0946 08       		.byte	0x8
 15814 0947 68000000 		.4byte	.LVL54
ARM GAS  C:\Users\DEVELO~1\AppData\Local\Temp\cc5EUJSb.s 			page 279


 15815 094b 06       		.uleb128 .LVL56-.LVL54
 15816 094c 06       		.uleb128 0x6
 15817 094d 03       		.byte	0x3
 15818 094e 00000000 		.4byte	.LC0
 15819 0952 9F       		.byte	0x9f
 15820 0953 00       		.byte	0
 15821              	.LVUS40:
 15822 0954 09       		.uleb128 .LVU371
 15823 0955 00       		.uleb128 .LVU373
 15824              	.LLST40:
 15825 0956 08       		.byte	0x8
 15826 0957 7E000000 		.4byte	.LVL58
 15827 095b 06       		.uleb128 .LVL59-.LVL58
 15828 095c 03       		.uleb128 0x3
 15829 095d 08       		.byte	0x8
 15830 095e 30       		.byte	0x30
 15831 095f 9F       		.byte	0x9f
 15832 0960 00       		.byte	0
 15833              	.LVUS41:
 15834 0961 04       		.uleb128 .LVU377
 15835 0962 00       		.uleb128 .LVU380
 15836              	.LLST41:
 15837 0963 08       		.byte	0x8
 15838 0964 84000000 		.4byte	.LVL59
 15839 0968 0C       		.uleb128 .LVL61-.LVL59
 15840 0969 03       		.uleb128 0x3
 15841 096a 09       		.byte	0x9
 15842 096b ED       		.byte	0xed
 15843 096c 9F       		.byte	0x9f
 15844 096d 00       		.byte	0
 15845              	.LVUS42:
 15846 096e 04       		.uleb128 .LVU377
 15847 096f 00       		.uleb128 .LVU379
 15848 0970 00       		.uleb128 .LVU379
 15849 0971 00       		.uleb128 .LVU380
 15850 0972 00       		.uleb128 .LVU380
 15851 0973 00       		.uleb128 .LVU380
 15852              	.LLST42:
 15853 0974 06       		.byte	0x6
 15854 0975 84000000 		.4byte	.LVL59
 15855 0979 04       		.byte	0x4
 15856 097a 00       		.uleb128 .LVL59-.LVL59
 15857 097b 08       		.uleb128 .LVL60-.LVL59
 15858 097c 03       		.uleb128 0x3
 15859 097d 74       		.byte	0x74
 15860 097e 08       		.sleb128 8
 15861 097f 9F       		.byte	0x9f
 15862 0980 04       		.byte	0x4
 15863 0981 08       		.uleb128 .LVL60-.LVL59
 15864 0982 0B       		.uleb128 .LVL61-1-.LVL59
 15865 0983 01       		.uleb128 0x1
 15866 0984 50       		.byte	0x50
 15867 0985 04       		.byte	0x4
 15868 0986 0B       		.uleb128 .LVL61-1-.LVL59
 15869 0987 0C       		.uleb128 .LVL61-.LVL59
 15870 0988 03       		.uleb128 0x3
 15871 0989 74       		.byte	0x74
ARM GAS  C:\Users\DEVELO~1\AppData\Local\Temp\cc5EUJSb.s 			page 280


 15872 098a 08       		.sleb128 8
 15873 098b 9F       		.byte	0x9f
 15874 098c 00       		.byte	0
 15875              	.LVUS43:
 15876 098d 0C       		.uleb128 .LVU392
 15877 098e 00       		.uleb128 .LVU394
 15878              	.LLST43:
 15879 098f 08       		.byte	0x8
 15880 0990 90000000 		.4byte	.LVL61
 15881 0994 06       		.uleb128 .LVL62-.LVL61
 15882 0995 02       		.uleb128 0x2
 15883 0996 30       		.byte	0x30
 15884 0997 9F       		.byte	0x9f
 15885 0998 00       		.byte	0
 15886              	.LVUS44:
 15887 0999 00       		.uleb128 0
 15888 099a 00       		.uleb128 .LVU407
 15889 099b 00       		.uleb128 .LVU407
 15890 099c 00       		.uleb128 .LVU466
 15891 099d 00       		.uleb128 .LVU466
 15892 099e 00       		.uleb128 .LVU469
 15893 099f 00       		.uleb128 .LVU469
 15894 09a0 00       		.uleb128 0
 15895              	.LLST44:
 15896 09a1 06       		.byte	0x6
 15897 09a2 00000000 		.4byte	.LVL64
 15898 09a6 04       		.byte	0x4
 15899 09a7 00       		.uleb128 .LVL64-.LVL64
 15900 09a8 0A       		.uleb128 .LVL66-.LVL64
 15901 09a9 01       		.uleb128 0x1
 15902 09aa 50       		.byte	0x50
 15903 09ab 04       		.byte	0x4
 15904 09ac 0A       		.uleb128 .LVL66-.LVL64
 15905 09ad 66       		.uleb128 .LVL77-.LVL64
 15906 09ae 01       		.uleb128 0x1
 15907 09af 54       		.byte	0x54
 15908 09b0 04       		.byte	0x4
 15909 09b1 66       		.uleb128 .LVL77-.LVL64
 15910 09b2 68       		.uleb128 .LVL78-.LVL64
 15911 09b3 01       		.uleb128 0x1
 15912 09b4 50       		.byte	0x50
 15913 09b5 04       		.byte	0x4
 15914 09b6 68       		.uleb128 .LVL78-.LVL64
 15915 09b7 A801     		.uleb128 .LFE437-.LVL64
 15916 09b9 01       		.uleb128 0x1
 15917 09ba 54       		.byte	0x54
 15918 09bb 00       		.byte	0
 15919              	.LVUS45:
 15920 09bc 00       		.uleb128 0
 15921 09bd 00       		.uleb128 .LVU405
 15922 09be 00       		.uleb128 .LVU405
 15923 09bf 00       		.uleb128 0
 15924              	.LLST45:
 15925 09c0 06       		.byte	0x6
 15926 09c1 00000000 		.4byte	.LVL64
 15927 09c5 04       		.byte	0x4
 15928 09c6 00       		.uleb128 .LVL64-.LVL64
ARM GAS  C:\Users\DEVELO~1\AppData\Local\Temp\cc5EUJSb.s 			page 281


 15929 09c7 06       		.uleb128 .LVL65-.LVL64
 15930 09c8 01       		.uleb128 0x1
 15931 09c9 51       		.byte	0x51
 15932 09ca 04       		.byte	0x4
 15933 09cb 06       		.uleb128 .LVL65-.LVL64
 15934 09cc A801     		.uleb128 .LFE437-.LVL64
 15935 09ce 01       		.uleb128 0x1
 15936 09cf 55       		.byte	0x55
 15937 09d0 00       		.byte	0
 15938              	.LVUS46:
 15939 09d1 09       		.uleb128 .LVU439
 15940 09d2 00       		.uleb128 .LVU441
 15941              	.LLST46:
 15942 09d3 08       		.byte	0x8
 15943 09d4 4E000000 		.4byte	.LVL72
 15944 09d8 06       		.uleb128 .LVL73-.LVL72
 15945 09d9 03       		.uleb128 0x3
 15946 09da 08       		.byte	0x8
 15947 09db 30       		.byte	0x30
 15948 09dc 9F       		.byte	0x9f
 15949 09dd 00       		.byte	0
 15950              	.LVUS47:
 15951 09de 04       		.uleb128 .LVU445
 15952 09df 00       		.uleb128 .LVU448
 15953              	.LLST47:
 15954 09e0 08       		.byte	0x8
 15955 09e1 54000000 		.4byte	.LVL73
 15956 09e5 0A       		.uleb128 .LVL75-.LVL73
 15957 09e6 02       		.uleb128 0x2
 15958 09e7 30       		.byte	0x30
 15959 09e8 9F       		.byte	0x9f
 15960 09e9 00       		.byte	0
 15961              	.LVUS48:
 15962 09ea 04       		.uleb128 .LVU445
 15963 09eb 00       		.uleb128 .LVU447
 15964 09ec 00       		.uleb128 .LVU447
 15965 09ed 00       		.uleb128 .LVU448
 15966 09ee 00       		.uleb128 .LVU448
 15967 09ef 00       		.uleb128 .LVU448
 15968              	.LLST48:
 15969 09f0 06       		.byte	0x6
 15970 09f1 54000000 		.4byte	.LVL73
 15971 09f5 04       		.byte	0x4
 15972 09f6 00       		.uleb128 .LVL73-.LVL73
 15973 09f7 06       		.uleb128 .LVL74-.LVL73
 15974 09f8 03       		.uleb128 0x3
 15975 09f9 74       		.byte	0x74
 15976 09fa 08       		.sleb128 8
 15977 09fb 9F       		.byte	0x9f
 15978 09fc 04       		.byte	0x4
 15979 09fd 06       		.uleb128 .LVL74-.LVL73
 15980 09fe 09       		.uleb128 .LVL75-1-.LVL73
 15981 09ff 01       		.uleb128 0x1
 15982 0a00 50       		.byte	0x50
 15983 0a01 04       		.byte	0x4
 15984 0a02 09       		.uleb128 .LVL75-1-.LVL73
 15985 0a03 0A       		.uleb128 .LVL75-.LVL73
ARM GAS  C:\Users\DEVELO~1\AppData\Local\Temp\cc5EUJSb.s 			page 282


 15986 0a04 03       		.uleb128 0x3
 15987 0a05 74       		.byte	0x74
 15988 0a06 08       		.sleb128 8
 15989 0a07 9F       		.byte	0x9f
 15990 0a08 00       		.byte	0
 15991              	.LVUS49:
 15992 0a09 0C       		.uleb128 .LVU460
 15993 0a0a 00       		.uleb128 .LVU462
 15994              	.LLST49:
 15995 0a0b 08       		.byte	0x8
 15996 0a0c 5E000000 		.4byte	.LVL75
 15997 0a10 06       		.uleb128 .LVL76-.LVL75
 15998 0a11 02       		.uleb128 0x2
 15999 0a12 30       		.byte	0x30
 16000 0a13 9F       		.byte	0x9f
 16001 0a14 00       		.byte	0
 16002              	.LVUS50:
 16003 0a15 01       		.uleb128 .LVU467
 16004 0a16 00       		.uleb128 .LVU470
 16005              	.LLST50:
 16006 0a17 08       		.byte	0x8
 16007 0a18 66000000 		.4byte	.LVL77
 16008 0a1c 06       		.uleb128 .LVL79-.LVL77
 16009 0a1d 06       		.uleb128 0x6
 16010 0a1e 03       		.byte	0x3
 16011 0a1f 00000000 		.4byte	.LC0
 16012 0a23 9F       		.byte	0x9f
 16013 0a24 00       		.byte	0
 16014              	.LVUS51:
 16015 0a25 09       		.uleb128 .LVU483
 16016 0a26 00       		.uleb128 .LVU485
 16017              	.LLST51:
 16018 0a27 08       		.byte	0x8
 16019 0a28 7C000000 		.4byte	.LVL81
 16020 0a2c 06       		.uleb128 .LVL82-.LVL81
 16021 0a2d 03       		.uleb128 0x3
 16022 0a2e 08       		.byte	0x8
 16023 0a2f 30       		.byte	0x30
 16024 0a30 9F       		.byte	0x9f
 16025 0a31 00       		.byte	0
 16026              	.LVUS52:
 16027 0a32 04       		.uleb128 .LVU489
 16028 0a33 00       		.uleb128 .LVU492
 16029              	.LLST52:
 16030 0a34 08       		.byte	0x8
 16031 0a35 82000000 		.4byte	.LVL82
 16032 0a39 0C       		.uleb128 .LVL84-.LVL82
 16033 0a3a 03       		.uleb128 0x3
 16034 0a3b 09       		.byte	0x9
 16035 0a3c ED       		.byte	0xed
 16036 0a3d 9F       		.byte	0x9f
 16037 0a3e 00       		.byte	0
 16038              	.LVUS53:
 16039 0a3f 04       		.uleb128 .LVU489
 16040 0a40 00       		.uleb128 .LVU491
 16041 0a41 00       		.uleb128 .LVU491
 16042 0a42 00       		.uleb128 .LVU492
ARM GAS  C:\Users\DEVELO~1\AppData\Local\Temp\cc5EUJSb.s 			page 283


 16043 0a43 00       		.uleb128 .LVU492
 16044 0a44 00       		.uleb128 .LVU492
 16045              	.LLST53:
 16046 0a45 06       		.byte	0x6
 16047 0a46 82000000 		.4byte	.LVL82
 16048 0a4a 04       		.byte	0x4
 16049 0a4b 00       		.uleb128 .LVL82-.LVL82
 16050 0a4c 08       		.uleb128 .LVL83-.LVL82
 16051 0a4d 03       		.uleb128 0x3
 16052 0a4e 74       		.byte	0x74
 16053 0a4f 08       		.sleb128 8
 16054 0a50 9F       		.byte	0x9f
 16055 0a51 04       		.byte	0x4
 16056 0a52 08       		.uleb128 .LVL83-.LVL82
 16057 0a53 0B       		.uleb128 .LVL84-1-.LVL82
 16058 0a54 01       		.uleb128 0x1
 16059 0a55 50       		.byte	0x50
 16060 0a56 04       		.byte	0x4
 16061 0a57 0B       		.uleb128 .LVL84-1-.LVL82
 16062 0a58 0C       		.uleb128 .LVL84-.LVL82
 16063 0a59 03       		.uleb128 0x3
 16064 0a5a 74       		.byte	0x74
 16065 0a5b 08       		.sleb128 8
 16066 0a5c 9F       		.byte	0x9f
 16067 0a5d 00       		.byte	0
 16068              	.LVUS54:
 16069 0a5e 0C       		.uleb128 .LVU504
 16070 0a5f 00       		.uleb128 .LVU506
 16071              	.LLST54:
 16072 0a60 08       		.byte	0x8
 16073 0a61 8E000000 		.4byte	.LVL84
 16074 0a65 06       		.uleb128 .LVL85-.LVL84
 16075 0a66 02       		.uleb128 0x2
 16076 0a67 30       		.byte	0x30
 16077 0a68 9F       		.byte	0x9f
 16078 0a69 00       		.byte	0
 16079              	.LVUS18:
 16080 0a6a 00       		.uleb128 0
 16081 0a6b 00       		.uleb128 .LVU174
 16082 0a6c 00       		.uleb128 .LVU174
 16083 0a6d 00       		.uleb128 .LVU186
 16084 0a6e 00       		.uleb128 .LVU186
 16085 0a6f 00       		.uleb128 .LVU190
 16086 0a70 00       		.uleb128 .LVU190
 16087 0a71 00       		.uleb128 .LVU191
 16088 0a72 00       		.uleb128 .LVU191
 16089 0a73 00       		.uleb128 .LVU205
 16090 0a74 00       		.uleb128 .LVU205
 16091 0a75 00       		.uleb128 .LVU227
 16092 0a76 00       		.uleb128 .LVU227
 16093 0a77 00       		.uleb128 .LVU228
 16094 0a78 00       		.uleb128 .LVU228
 16095 0a79 00       		.uleb128 0
 16096              	.LLST18:
 16097 0a7a 06       		.byte	0x6
 16098 0a7b 00000000 		.4byte	.LVL18
 16099 0a7f 04       		.byte	0x4
ARM GAS  C:\Users\DEVELO~1\AppData\Local\Temp\cc5EUJSb.s 			page 284


 16100 0a80 00       		.uleb128 .LVL18-.LVL18
 16101 0a81 18       		.uleb128 .LVL19-.LVL18
 16102 0a82 01       		.uleb128 0x1
 16103 0a83 50       		.byte	0x50
 16104 0a84 04       		.byte	0x4
 16105 0a85 18       		.uleb128 .LVL19-.LVL18
 16106 0a86 34       		.uleb128 .LVL20-.LVL18
 16107 0a87 01       		.uleb128 0x1
 16108 0a88 51       		.byte	0x51
 16109 0a89 04       		.byte	0x4
 16110 0a8a 34       		.uleb128 .LVL20-.LVL18
 16111 0a8b 4A       		.uleb128 .LVL21-.LVL18
 16112 0a8c 04       		.uleb128 0x4
 16113 0a8d A3       		.byte	0xa3
 16114 0a8e 01       		.uleb128 0x1
 16115 0a8f 50       		.byte	0x50
 16116 0a90 9F       		.byte	0x9f
 16117 0a91 04       		.byte	0x4
 16118 0a92 4A       		.uleb128 .LVL21-.LVL18
 16119 0a93 4C       		.uleb128 .LVL22-.LVL18
 16120 0a94 01       		.uleb128 0x1
 16121 0a95 50       		.byte	0x50
 16122 0a96 04       		.byte	0x4
 16123 0a97 4C       		.uleb128 .LVL22-.LVL18
 16124 0a98 78       		.uleb128 .LVL23-.LVL18
 16125 0a99 01       		.uleb128 0x1
 16126 0a9a 51       		.byte	0x51
 16127 0a9b 04       		.byte	0x4
 16128 0a9c 78       		.uleb128 .LVL23-.LVL18
 16129 0a9d AC01     		.uleb128 .LVL26-.LVL18
 16130 0a9f 04       		.uleb128 0x4
 16131 0aa0 A3       		.byte	0xa3
 16132 0aa1 01       		.uleb128 0x1
 16133 0aa2 50       		.byte	0x50
 16134 0aa3 9F       		.byte	0x9f
 16135 0aa4 04       		.byte	0x4
 16136 0aa5 AC01     		.uleb128 .LVL26-.LVL18
 16137 0aa7 AF01     		.uleb128 .LVL27-1-.LVL18
 16138 0aa9 01       		.uleb128 0x1
 16139 0aaa 50       		.byte	0x50
 16140 0aab 04       		.byte	0x4
 16141 0aac AF01     		.uleb128 .LVL27-1-.LVL18
 16142 0aae B401     		.uleb128 .LFE436-.LVL18
 16143 0ab0 04       		.uleb128 0x4
 16144 0ab1 A3       		.byte	0xa3
 16145 0ab2 01       		.uleb128 0x1
 16146 0ab3 50       		.byte	0x50
 16147 0ab4 9F       		.byte	0x9f
 16148 0ab5 00       		.byte	0
 16149              	.LVUS20:
 16150 0ab6 04       		.uleb128 .LVU213
 16151 0ab7 00       		.uleb128 .LVU225
 16152              	.LLST20:
 16153 0ab8 08       		.byte	0x8
 16154 0ab9 94000000 		.4byte	.LVL24
 16155 0abd 16       		.uleb128 .LVL25-.LVL24
 16156 0abe 04       		.uleb128 0x4
ARM GAS  C:\Users\DEVELO~1\AppData\Local\Temp\cc5EUJSb.s 			page 285


 16157 0abf A3       		.byte	0xa3
 16158 0ac0 01       		.uleb128 0x1
 16159 0ac1 50       		.byte	0x50
 16160 0ac2 9F       		.byte	0x9f
 16161 0ac3 00       		.byte	0
 16162              	.LVUS1:
 16163 0ac4 00       		.uleb128 0
 16164 0ac5 00       		.uleb128 .LVU105
 16165 0ac6 00       		.uleb128 .LVU105
 16166 0ac7 00       		.uleb128 .LVU114
 16167 0ac8 00       		.uleb128 .LVU114
 16168 0ac9 00       		.uleb128 .LVU128
 16169 0aca 00       		.uleb128 .LVU128
 16170 0acb 00       		.uleb128 .LVU129
 16171 0acc 00       		.uleb128 .LVU129
 16172 0acd 00       		.uleb128 .LVU138
 16173 0ace 00       		.uleb128 .LVU138
 16174 0acf 00       		.uleb128 .LVU147
 16175 0ad0 00       		.uleb128 .LVU147
 16176 0ad1 00       		.uleb128 .LVU156
 16177 0ad2 00       		.uleb128 .LVU156
 16178 0ad3 00       		.uleb128 0
 16179              	.LLST1:
 16180 0ad4 06       		.byte	0x6
 16181 0ad5 00000000 		.4byte	.LVL1
 16182 0ad9 04       		.byte	0x4
 16183 0ada 00       		.uleb128 .LVL1-.LVL1
 16184 0adb BC01     		.uleb128 .LVL6-.LVL1
 16185 0add 01       		.uleb128 0x1
 16186 0ade 50       		.byte	0x50
 16187 0adf 04       		.byte	0x4
 16188 0ae0 BC01     		.uleb128 .LVL6-.LVL1
 16189 0ae2 DA01     		.uleb128 .LVL8-.LVL1
 16190 0ae4 04       		.uleb128 0x4
 16191 0ae5 A3       		.byte	0xa3
 16192 0ae6 01       		.uleb128 0x1
 16193 0ae7 50       		.byte	0x50
 16194 0ae8 9F       		.byte	0x9f
 16195 0ae9 04       		.byte	0x4
 16196 0aea DA01     		.uleb128 .LVL8-.LVL1
 16197 0aec FE01     		.uleb128 .LVL10-.LVL1
 16198 0aee 01       		.uleb128 0x1
 16199 0aef 50       		.byte	0x50
 16200 0af0 04       		.byte	0x4
 16201 0af1 FE01     		.uleb128 .LVL10-.LVL1
 16202 0af3 8202     		.uleb128 .LVL11-.LVL1
 16203 0af5 04       		.uleb128 0x4
 16204 0af6 A3       		.byte	0xa3
 16205 0af7 01       		.uleb128 0x1
 16206 0af8 50       		.byte	0x50
 16207 0af9 9F       		.byte	0x9f
 16208 0afa 04       		.byte	0x4
 16209 0afb 8202     		.uleb128 .LVL11-.LVL1
 16210 0afd 8C02     		.uleb128 .LVL12-.LVL1
 16211 0aff 01       		.uleb128 0x1
 16212 0b00 50       		.byte	0x50
 16213 0b01 04       		.byte	0x4
ARM GAS  C:\Users\DEVELO~1\AppData\Local\Temp\cc5EUJSb.s 			page 286


 16214 0b02 8C02     		.uleb128 .LVL12-.LVL1
 16215 0b04 AA02     		.uleb128 .LVL14-.LVL1
 16216 0b06 04       		.uleb128 0x4
 16217 0b07 A3       		.byte	0xa3
 16218 0b08 01       		.uleb128 0x1
 16219 0b09 50       		.byte	0x50
 16220 0b0a 9F       		.byte	0x9f
 16221 0b0b 04       		.byte	0x4
 16222 0b0c AA02     		.uleb128 .LVL14-.LVL1
 16223 0b0e B402     		.uleb128 .LVL15-.LVL1
 16224 0b10 01       		.uleb128 0x1
 16225 0b11 50       		.byte	0x50
 16226 0b12 04       		.byte	0x4
 16227 0b13 B402     		.uleb128 .LVL15-.LVL1
 16228 0b15 EC02     		.uleb128 .LFE435-.LVL1
 16229 0b17 04       		.uleb128 0x4
 16230 0b18 A3       		.byte	0xa3
 16231 0b19 01       		.uleb128 0x1
 16232 0b1a 50       		.byte	0x50
 16233 0b1b 9F       		.byte	0x9f
 16234 0b1c 00       		.byte	0
 16235              	.LVUS2:
 16236 0b1d 01       		.uleb128 .LVU66
 16237 0b1e 00       		.uleb128 .LVU76
 16238              	.LLST2:
 16239 0b1f 08       		.byte	0x8
 16240 0b20 54000000 		.4byte	.LVL2
 16241 0b24 20       		.uleb128 .LVL4-.LVL2
 16242 0b25 03       		.uleb128 0x3
 16243 0b26 08       		.byte	0x8
 16244 0b27 20       		.byte	0x20
 16245 0b28 9F       		.byte	0x9f
 16246 0b29 00       		.byte	0
 16247              	.LVUS3:
 16248 0b2a 03       		.uleb128 .LVU68
 16249 0b2b 00       		.uleb128 .LVU74
 16250              	.LLST3:
 16251 0b2c 08       		.byte	0x8
 16252 0b2d 54000000 		.4byte	.LVL2
 16253 0b31 1E       		.uleb128 .LVL3-.LVL2
 16254 0b32 03       		.uleb128 0x3
 16255 0b33 08       		.byte	0x8
 16256 0b34 20       		.byte	0x20
 16257 0b35 9F       		.byte	0x9f
 16258 0b36 00       		.byte	0
 16259              	.LVUS5:
 16260 0b37 01       		.uleb128 .LVU97
 16261 0b38 00       		.uleb128 .LVU111
 16262              	.LLST5:
 16263 0b39 08       		.byte	0x8
 16264 0b3a B2000000 		.4byte	.LVL5
 16265 0b3e 24       		.uleb128 .LVL7-.LVL5
 16266 0b3f 04       		.uleb128 0x4
 16267 0b40 0A       		.byte	0xa
 16268 0b41 0010     		.2byte	0x1000
 16269 0b43 9F       		.byte	0x9f
 16270 0b44 00       		.byte	0
ARM GAS  C:\Users\DEVELO~1\AppData\Local\Temp\cc5EUJSb.s 			page 287


 16271              	.LVUS7:
 16272 0b45 03       		.uleb128 .LVU99
 16273 0b46 00       		.uleb128 .LVU111
 16274              	.LLST7:
 16275 0b47 08       		.byte	0x8
 16276 0b48 B2000000 		.4byte	.LVL5
 16277 0b4c 24       		.uleb128 .LVL7-.LVL5
 16278 0b4d 04       		.uleb128 0x4
 16279 0b4e 0A       		.byte	0xa
 16280 0b4f 0010     		.2byte	0x1000
 16281 0b51 9F       		.byte	0x9f
 16282 0b52 00       		.byte	0
 16283              	.LVUS8:
 16284 0b53 01       		.uleb128 .LVU115
 16285 0b54 00       		.uleb128 .LVU123
 16286              	.LLST8:
 16287 0b55 08       		.byte	0x8
 16288 0b56 DA000000 		.4byte	.LVL8
 16289 0b5a 1E       		.uleb128 .LVL9-.LVL8
 16290 0b5b 04       		.uleb128 0x4
 16291 0b5c 0A       		.byte	0xa
 16292 0b5d 0040     		.2byte	0x4000
 16293 0b5f 9F       		.byte	0x9f
 16294 0b60 00       		.byte	0
 16295              	.LVUS9:
 16296 0b61 03       		.uleb128 .LVU117
 16297 0b62 00       		.uleb128 .LVU123
 16298              	.LLST9:
 16299 0b63 08       		.byte	0x8
 16300 0b64 DA000000 		.4byte	.LVL8
 16301 0b68 1E       		.uleb128 .LVL9-.LVL8
 16302 0b69 04       		.uleb128 0x4
 16303 0b6a 0A       		.byte	0xa
 16304 0b6b 0040     		.2byte	0x4000
 16305 0b6d 9F       		.byte	0x9f
 16306 0b6e 00       		.byte	0
 16307              	.LVUS11:
 16308 0b6f 01       		.uleb128 .LVU130
 16309 0b70 00       		.uleb128 .LVU144
 16310              	.LLST11:
 16311 0b71 08       		.byte	0x8
 16312 0b72 02010000 		.4byte	.LVL11
 16313 0b76 24       		.uleb128 .LVL13-.LVL11
 16314 0b77 04       		.uleb128 0x4
 16315 0b78 0A       		.byte	0xa
 16316 0b79 0080     		.2byte	0x8000
 16317 0b7b 9F       		.byte	0x9f
 16318 0b7c 00       		.byte	0
 16319              	.LVUS13:
 16320 0b7d 03       		.uleb128 .LVU132
 16321 0b7e 00       		.uleb128 .LVU144
 16322              	.LLST13:
 16323 0b7f 08       		.byte	0x8
 16324 0b80 02010000 		.4byte	.LVL11
 16325 0b84 24       		.uleb128 .LVL13-.LVL11
 16326 0b85 04       		.uleb128 0x4
 16327 0b86 0A       		.byte	0xa
ARM GAS  C:\Users\DEVELO~1\AppData\Local\Temp\cc5EUJSb.s 			page 288


 16328 0b87 0080     		.2byte	0x8000
 16329 0b89 9F       		.byte	0x9f
 16330 0b8a 00       		.byte	0
 16331              	.LVUS15:
 16332 0b8b 01       		.uleb128 .LVU148
 16333 0b8c 00       		.uleb128 .LVU162
 16334              	.LLST15:
 16335 0b8d 08       		.byte	0x8
 16336 0b8e 2A010000 		.4byte	.LVL14
 16337 0b92 24       		.uleb128 .LVL16-.LVL14
 16338 0b93 04       		.uleb128 0x4
 16339 0b94 40       		.byte	0x40
 16340 0b95 40       		.byte	0x40
 16341 0b96 24       		.byte	0x24
 16342 0b97 9F       		.byte	0x9f
 16343 0b98 00       		.byte	0
 16344              	.LVUS17:
 16345 0b99 03       		.uleb128 .LVU150
 16346 0b9a 00       		.uleb128 .LVU162
 16347              	.LLST17:
 16348 0b9b 08       		.byte	0x8
 16349 0b9c 2A010000 		.4byte	.LVL14
 16350 0ba0 24       		.uleb128 .LVL16-.LVL14
 16351 0ba1 04       		.uleb128 0x4
 16352 0ba2 40       		.byte	0x40
 16353 0ba3 40       		.byte	0x40
 16354 0ba4 24       		.byte	0x24
 16355 0ba5 9F       		.byte	0x9f
 16356 0ba6 00       		.byte	0
 16357              	.LVUS0:
 16358 0ba7 01       		.uleb128 .LVU1
 16359 0ba8 00       		.uleb128 0
 16360              	.LLST0:
 16361 0ba9 08       		.byte	0x8
 16362 0baa 00000000 		.4byte	.LVL0
 16363 0bae 54       		.uleb128 .LFE462-.LVL0
 16364 0baf 06       		.uleb128 0x6
 16365 0bb0 FA       		.byte	0xfa
 16366 0bb1 D2380000 		.4byte	0x38d2
 16367 0bb5 9F       		.byte	0x9f
 16368 0bb6 00       		.byte	0
 16369              	.LVUS21:
 16370 0bb7 00       		.uleb128 0
 16371 0bb8 00       		.uleb128 .LVU237
 16372 0bb9 00       		.uleb128 .LVU237
 16373 0bba 00       		.uleb128 .LVU278
 16374 0bbb 00       		.uleb128 .LVU278
 16375 0bbc 00       		.uleb128 0
 16376              	.LLST21:
 16377 0bbd 06       		.byte	0x6
 16378 0bbe 00000000 		.4byte	.LVL28
 16379 0bc2 04       		.byte	0x4
 16380 0bc3 00       		.uleb128 .LVL28-.LVL28
 16381 0bc4 06       		.uleb128 .LVL29-.LVL28
 16382 0bc5 01       		.uleb128 0x1
 16383 0bc6 50       		.byte	0x50
 16384 0bc7 04       		.byte	0x4
ARM GAS  C:\Users\DEVELO~1\AppData\Local\Temp\cc5EUJSb.s 			page 289


 16385 0bc8 06       		.uleb128 .LVL29-.LVL28
 16386 0bc9 34       		.uleb128 .LVL37-.LVL28
 16387 0bca 01       		.uleb128 0x1
 16388 0bcb 54       		.byte	0x54
 16389 0bcc 04       		.byte	0x4
 16390 0bcd 34       		.uleb128 .LVL37-.LVL28
 16391 0bce 38       		.uleb128 .LFE460-.LVL28
 16392 0bcf 04       		.uleb128 0x4
 16393 0bd0 A3       		.byte	0xa3
 16394 0bd1 01       		.uleb128 0x1
 16395 0bd2 50       		.byte	0x50
 16396 0bd3 9F       		.byte	0x9f
 16397 0bd4 00       		.byte	0
 16398              	.LVUS22:
 16399 0bd5 01       		.uleb128 .LVU231
 16400 0bd6 00       		.uleb128 0
 16401              	.LLST22:
 16402 0bd7 08       		.byte	0x8
 16403 0bd8 00000000 		.4byte	.LVL28
 16404 0bdc 38       		.uleb128 .LFE460-.LVL28
 16405 0bdd 06       		.uleb128 0x6
 16406 0bde FA       		.byte	0xfa
 16407 0bdf C62E0000 		.4byte	0x2ec6
 16408 0be3 9F       		.byte	0x9f
 16409 0be4 00       		.byte	0
 16410              	.LVUS24:
 16411 0be5 02       		.uleb128 .LVU232
 16412 0be6 00       		.uleb128 .LVU238
 16413              	.LLST24:
 16414 0be7 08       		.byte	0x8
 16415 0be8 00000000 		.4byte	.LVL28
 16416 0bec 0A       		.uleb128 .LVL30-.LVL28
 16417 0bed 06       		.uleb128 0x6
 16418 0bee 03       		.byte	0x3
 16419 0bef 00000000 		.4byte	.LC0
 16420 0bf3 9F       		.byte	0x9f
 16421 0bf4 00       		.byte	0
 16422              	.LVUS25:
 16423 0bf5 09       		.uleb128 .LVU251
 16424 0bf6 00       		.uleb128 .LVU253
 16425              	.LLST25:
 16426 0bf7 08       		.byte	0x8
 16427 0bf8 1A000000 		.4byte	.LVL32
 16428 0bfc 06       		.uleb128 .LVL33-.LVL32
 16429 0bfd 03       		.uleb128 0x3
 16430 0bfe 08       		.byte	0x8
 16431 0bff 30       		.byte	0x30
 16432 0c00 9F       		.byte	0x9f
 16433 0c01 00       		.byte	0
 16434              	.LVUS26:
 16435 0c02 04       		.uleb128 .LVU257
 16436 0c03 00       		.uleb128 .LVU260
 16437              	.LLST26:
 16438 0c04 08       		.byte	0x8
 16439 0c05 20000000 		.4byte	.LVL33
 16440 0c09 0C       		.uleb128 .LVL35-.LVL33
 16441 0c0a 03       		.uleb128 0x3
ARM GAS  C:\Users\DEVELO~1\AppData\Local\Temp\cc5EUJSb.s 			page 290


 16442 0c0b 09       		.byte	0x9
 16443 0c0c ED       		.byte	0xed
 16444 0c0d 9F       		.byte	0x9f
 16445 0c0e 00       		.byte	0
 16446              	.LVUS27:
 16447 0c0f 04       		.uleb128 .LVU257
 16448 0c10 00       		.uleb128 .LVU259
 16449 0c11 00       		.uleb128 .LVU259
 16450 0c12 00       		.uleb128 .LVU260
 16451 0c13 00       		.uleb128 .LVU260
 16452 0c14 00       		.uleb128 .LVU260
 16453              	.LLST27:
 16454 0c15 06       		.byte	0x6
 16455 0c16 20000000 		.4byte	.LVL33
 16456 0c1a 04       		.byte	0x4
 16457 0c1b 00       		.uleb128 .LVL33-.LVL33
 16458 0c1c 08       		.uleb128 .LVL34-.LVL33
 16459 0c1d 03       		.uleb128 0x3
 16460 0c1e 74       		.byte	0x74
 16461 0c1f 08       		.sleb128 8
 16462 0c20 9F       		.byte	0x9f
 16463 0c21 04       		.byte	0x4
 16464 0c22 08       		.uleb128 .LVL34-.LVL33
 16465 0c23 0B       		.uleb128 .LVL35-1-.LVL33
 16466 0c24 01       		.uleb128 0x1
 16467 0c25 50       		.byte	0x50
 16468 0c26 04       		.byte	0x4
 16469 0c27 0B       		.uleb128 .LVL35-1-.LVL33
 16470 0c28 0C       		.uleb128 .LVL35-.LVL33
 16471 0c29 03       		.uleb128 0x3
 16472 0c2a 74       		.byte	0x74
 16473 0c2b 08       		.sleb128 8
 16474 0c2c 9F       		.byte	0x9f
 16475 0c2d 00       		.byte	0
 16476              	.LVUS28:
 16477 0c2e 0C       		.uleb128 .LVU272
 16478 0c2f 00       		.uleb128 .LVU274
 16479              	.LLST28:
 16480 0c30 08       		.byte	0x8
 16481 0c31 2C000000 		.4byte	.LVL35
 16482 0c35 06       		.uleb128 .LVL36-.LVL35
 16483 0c36 02       		.uleb128 0x2
 16484 0c37 30       		.byte	0x30
 16485 0c38 9F       		.byte	0x9f
 16486 0c39 00       		.byte	0
 16487              	.LVUS29:
 16488 0c3a 00       		.uleb128 0
 16489 0c3b 00       		.uleb128 .LVU283
 16490 0c3c 00       		.uleb128 .LVU283
 16491 0c3d 00       		.uleb128 0
 16492              	.LLST29:
 16493 0c3e 06       		.byte	0x6
 16494 0c3f 00000000 		.4byte	.LVL38
 16495 0c43 04       		.byte	0x4
 16496 0c44 00       		.uleb128 .LVL38-.LVL38
 16497 0c45 09       		.uleb128 .LVL39-1-.LVL38
 16498 0c46 01       		.uleb128 0x1
ARM GAS  C:\Users\DEVELO~1\AppData\Local\Temp\cc5EUJSb.s 			page 291


 16499 0c47 50       		.byte	0x50
 16500 0c48 04       		.byte	0x4
 16501 0c49 09       		.uleb128 .LVL39-1-.LVL38
 16502 0c4a 0A       		.uleb128 .LFE438-.LVL38
 16503 0c4b 04       		.uleb128 0x4
 16504 0c4c A3       		.byte	0xa3
 16505 0c4d 01       		.uleb128 0x1
 16506 0c4e 50       		.byte	0x50
 16507 0c4f 9F       		.byte	0x9f
 16508 0c50 00       		.byte	0
 16509              	.LVUS30:
 16510 0c51 00       		.uleb128 0
 16511 0c52 00       		.uleb128 .LVU283
 16512 0c53 00       		.uleb128 .LVU283
 16513 0c54 00       		.uleb128 0
 16514              	.LLST30:
 16515 0c55 06       		.byte	0x6
 16516 0c56 00000000 		.4byte	.LVL38
 16517 0c5a 04       		.byte	0x4
 16518 0c5b 00       		.uleb128 .LVL38-.LVL38
 16519 0c5c 09       		.uleb128 .LVL39-1-.LVL38
 16520 0c5d 01       		.uleb128 0x1
 16521 0c5e 51       		.byte	0x51
 16522 0c5f 04       		.byte	0x4
 16523 0c60 09       		.uleb128 .LVL39-1-.LVL38
 16524 0c61 0A       		.uleb128 .LFE438-.LVL38
 16525 0c62 04       		.uleb128 0x4
 16526 0c63 A3       		.byte	0xa3
 16527 0c64 01       		.uleb128 0x1
 16528 0c65 51       		.byte	0x51
 16529 0c66 9F       		.byte	0x9f
 16530 0c67 00       		.byte	0
 16531              	.LVUS31:
 16532 0c68 00       		.uleb128 0
 16533 0c69 00       		.uleb128 .LVU288
 16534 0c6a 00       		.uleb128 .LVU288
 16535 0c6b 00       		.uleb128 0
 16536              	.LLST31:
 16537 0c6c 06       		.byte	0x6
 16538 0c6d 00000000 		.4byte	.LVL40
 16539 0c71 04       		.byte	0x4
 16540 0c72 00       		.uleb128 .LVL40-.LVL40
 16541 0c73 0B       		.uleb128 .LVL41-1-.LVL40
 16542 0c74 01       		.uleb128 0x1
 16543 0c75 50       		.byte	0x50
 16544 0c76 04       		.byte	0x4
 16545 0c77 0B       		.uleb128 .LVL41-1-.LVL40
 16546 0c78 0C       		.uleb128 .LFE440-.LVL40
 16547 0c79 04       		.uleb128 0x4
 16548 0c7a A3       		.byte	0xa3
 16549 0c7b 01       		.uleb128 0x1
 16550 0c7c 50       		.byte	0x50
 16551 0c7d 9F       		.byte	0x9f
 16552 0c7e 00       		.byte	0
 16553              	.LVUS32:
 16554 0c7f 00       		.uleb128 0
 16555 0c80 00       		.uleb128 .LVU288
ARM GAS  C:\Users\DEVELO~1\AppData\Local\Temp\cc5EUJSb.s 			page 292


 16556 0c81 00       		.uleb128 .LVU288
 16557 0c82 00       		.uleb128 0
 16558              	.LLST32:
 16559 0c83 06       		.byte	0x6
 16560 0c84 00000000 		.4byte	.LVL40
 16561 0c88 04       		.byte	0x4
 16562 0c89 00       		.uleb128 .LVL40-.LVL40
 16563 0c8a 0B       		.uleb128 .LVL41-1-.LVL40
 16564 0c8b 01       		.uleb128 0x1
 16565 0c8c 51       		.byte	0x51
 16566 0c8d 04       		.byte	0x4
 16567 0c8e 0B       		.uleb128 .LVL41-1-.LVL40
 16568 0c8f 0C       		.uleb128 .LFE440-.LVL40
 16569 0c90 04       		.uleb128 0x4
 16570 0c91 A3       		.byte	0xa3
 16571 0c92 01       		.uleb128 0x1
 16572 0c93 51       		.byte	0x51
 16573 0c94 9F       		.byte	0x9f
 16574 0c95 00       		.byte	0
 16575              	.Ldebug_loc3:
 16576              		.section	.debug_aranges,"",%progbits
 16577 0000 C4000000 		.4byte	0xc4
 16578 0004 0200     		.2byte	0x2
 16579 0006 00000000 		.4byte	.Ldebug_info0
 16580 000a 04       		.byte	0x4
 16581 000b 00       		.byte	0
 16582 000c 0000     		.2byte	0
 16583 000e 0000     		.2byte	0
 16584 0010 00000000 		.4byte	.LFB462
 16585 0014 54000000 		.4byte	.LFE462-.LFB462
 16586 0018 00000000 		.4byte	.LFB435
 16587 001c 6C010000 		.4byte	.LFE435-.LFB435
 16588 0020 00000000 		.4byte	.LFB436
 16589 0024 B4000000 		.4byte	.LFE436-.LFB436
 16590 0028 00000000 		.4byte	.LFB460
 16591 002c 38000000 		.4byte	.LFE460-.LFB460
 16592 0030 00000000 		.4byte	.LFB438
 16593 0034 0A000000 		.4byte	.LFE438-.LFB438
 16594 0038 00000000 		.4byte	.LFB440
 16595 003c 0C000000 		.4byte	.LFE440-.LFB440
 16596 0040 00000000 		.4byte	.LFB439
 16597 0044 A8000000 		.4byte	.LFE439-.LFB439
 16598 0048 00000000 		.4byte	.LFB437
 16599 004c A8000000 		.4byte	.LFE437-.LFB437
 16600 0050 00000000 		.4byte	.LFB444
 16601 0054 68000000 		.4byte	.LFE444-.LFB444
 16602 0058 00000000 		.4byte	.LFB445
 16603 005c 68000000 		.4byte	.LFE445-.LFB445
 16604 0060 00000000 		.4byte	.LFB446
 16605 0064 68000000 		.4byte	.LFE446-.LFB446
 16606 0068 00000000 		.4byte	.LFB447
 16607 006c 68000000 		.4byte	.LFE447-.LFB447
 16608 0070 00000000 		.4byte	.LFB448
 16609 0074 68000000 		.4byte	.LFE448-.LFB448
 16610 0078 00000000 		.4byte	.LFB449
 16611 007c EC000000 		.4byte	.LFE449-.LFB449
 16612 0080 00000000 		.4byte	.LFB450
ARM GAS  C:\Users\DEVELO~1\AppData\Local\Temp\cc5EUJSb.s 			page 293


 16613 0084 AC030000 		.4byte	.LFE450-.LFB450
 16614 0088 00000000 		.4byte	.LFB451
 16615 008c 04010000 		.4byte	.LFE451-.LFB451
 16616 0090 00000000 		.4byte	.LFB452
 16617 0094 5A000000 		.4byte	.LFE452-.LFB452
 16618 0098 00000000 		.4byte	.LFB453
 16619 009c 6E000000 		.4byte	.LFE453-.LFB453
 16620 00a0 00000000 		.4byte	.LFB454
 16621 00a4 6C000000 		.4byte	.LFE454-.LFB454
 16622 00a8 00000000 		.4byte	.LFB455
 16623 00ac 66000000 		.4byte	.LFE455-.LFB455
 16624 00b0 00000000 		.4byte	.LFB456
 16625 00b4 26000000 		.4byte	.LFE456-.LFB456
 16626 00b8 00000000 		.4byte	.LFB457
 16627 00bc 80000000 		.4byte	.LFE457-.LFB457
 16628 00c0 00000000 		.4byte	0
 16629 00c4 00000000 		.4byte	0
 16630              		.section	.debug_rnglists,"",%progbits
 16631              	.Ldebug_ranges0:
 16632 0000 F6010000 		.4byte	.Ldebug_ranges3-.Ldebug_ranges2
 16633              	.Ldebug_ranges2:
 16634 0004 0500     		.2byte	0x5
 16635 0006 04       		.byte	0x4
 16636 0007 00       		.byte	0
 16637 0008 00000000 		.4byte	0
 16638              	.LLRL4:
 16639 000c 05       		.byte	0x5
 16640 000d B2000000 		.4byte	.LBB275
 16641 0011 04       		.byte	0x4
 16642 0012 00       		.uleb128 .LBB275-.LBB275
 16643 0013 02       		.uleb128 .LBE275-.LBB275
 16644 0014 04       		.byte	0x4
 16645 0015 04       		.uleb128 .LBB288-.LBB275
 16646 0016 08       		.uleb128 .LBE288-.LBB275
 16647 0017 04       		.byte	0x4
 16648 0018 0A       		.uleb128 .LBB289-.LBB275
 16649 0019 0E       		.uleb128 .LBE289-.LBB275
 16650 001a 04       		.byte	0x4
 16651 001b 10       		.uleb128 .LBB290-.LBB275
 16652 001c 24       		.uleb128 .LBE290-.LBB275
 16653 001d 00       		.byte	0
 16654              	.LLRL6:
 16655 001e 05       		.byte	0x5
 16656 001f B2000000 		.4byte	.LBB277
 16657 0023 04       		.byte	0x4
 16658 0024 00       		.uleb128 .LBB277-.LBB277
 16659 0025 02       		.uleb128 .LBE277-.LBB277
 16660 0026 04       		.byte	0x4
 16661 0027 04       		.uleb128 .LBB282-.LBB277
 16662 0028 08       		.uleb128 .LBE282-.LBB277
 16663 0029 04       		.byte	0x4
 16664 002a 0A       		.uleb128 .LBB283-.LBB277
 16665 002b 0E       		.uleb128 .LBE283-.LBB277
 16666 002c 04       		.byte	0x4
 16667 002d 10       		.uleb128 .LBB284-.LBB277
 16668 002e 24       		.uleb128 .LBE284-.LBB277
 16669 002f 00       		.byte	0
ARM GAS  C:\Users\DEVELO~1\AppData\Local\Temp\cc5EUJSb.s 			page 294


 16670              	.LLRL10:
 16671 0030 05       		.byte	0x5
 16672 0031 02010000 		.4byte	.LBB295
 16673 0035 04       		.byte	0x4
 16674 0036 00       		.uleb128 .LBB295-.LBB295
 16675 0037 02       		.uleb128 .LBE295-.LBB295
 16676 0038 04       		.byte	0x4
 16677 0039 04       		.uleb128 .LBB308-.LBB295
 16678 003a 08       		.uleb128 .LBE308-.LBB295
 16679 003b 04       		.byte	0x4
 16680 003c 0A       		.uleb128 .LBB309-.LBB295
 16681 003d 0E       		.uleb128 .LBE309-.LBB295
 16682 003e 04       		.byte	0x4
 16683 003f 10       		.uleb128 .LBB310-.LBB295
 16684 0040 24       		.uleb128 .LBE310-.LBB295
 16685 0041 00       		.byte	0
 16686              	.LLRL12:
 16687 0042 05       		.byte	0x5
 16688 0043 02010000 		.4byte	.LBB297
 16689 0047 04       		.byte	0x4
 16690 0048 00       		.uleb128 .LBB297-.LBB297
 16691 0049 02       		.uleb128 .LBE297-.LBB297
 16692 004a 04       		.byte	0x4
 16693 004b 04       		.uleb128 .LBB302-.LBB297
 16694 004c 08       		.uleb128 .LBE302-.LBB297
 16695 004d 04       		.byte	0x4
 16696 004e 0A       		.uleb128 .LBB303-.LBB297
 16697 004f 0E       		.uleb128 .LBE303-.LBB297
 16698 0050 04       		.byte	0x4
 16699 0051 10       		.uleb128 .LBB304-.LBB297
 16700 0052 24       		.uleb128 .LBE304-.LBB297
 16701 0053 00       		.byte	0
 16702              	.LLRL14:
 16703 0054 05       		.byte	0x5
 16704 0055 2A010000 		.4byte	.LBB311
 16705 0059 04       		.byte	0x4
 16706 005a 00       		.uleb128 .LBB311-.LBB311
 16707 005b 02       		.uleb128 .LBE311-.LBB311
 16708 005c 04       		.byte	0x4
 16709 005d 04       		.uleb128 .LBB324-.LBB311
 16710 005e 08       		.uleb128 .LBE324-.LBB311
 16711 005f 04       		.byte	0x4
 16712 0060 0A       		.uleb128 .LBB325-.LBB311
 16713 0061 0E       		.uleb128 .LBE325-.LBB311
 16714 0062 04       		.byte	0x4
 16715 0063 10       		.uleb128 .LBB326-.LBB311
 16716 0064 24       		.uleb128 .LBE326-.LBB311
 16717 0065 00       		.byte	0
 16718              	.LLRL16:
 16719 0066 05       		.byte	0x5
 16720 0067 2A010000 		.4byte	.LBB313
 16721 006b 04       		.byte	0x4
 16722 006c 00       		.uleb128 .LBB313-.LBB313
 16723 006d 02       		.uleb128 .LBE313-.LBB313
 16724 006e 04       		.byte	0x4
 16725 006f 04       		.uleb128 .LBB318-.LBB313
 16726 0070 08       		.uleb128 .LBE318-.LBB313
ARM GAS  C:\Users\DEVELO~1\AppData\Local\Temp\cc5EUJSb.s 			page 295


 16727 0071 04       		.byte	0x4
 16728 0072 0A       		.uleb128 .LBB319-.LBB313
 16729 0073 0E       		.uleb128 .LBE319-.LBB313
 16730 0074 04       		.byte	0x4
 16731 0075 10       		.uleb128 .LBB320-.LBB313
 16732 0076 24       		.uleb128 .LBE320-.LBB313
 16733 0077 00       		.byte	0
 16734              	.LLRL19:
 16735 0078 05       		.byte	0x5
 16736 0079 94000000 		.4byte	.LBB329
 16737 007d 04       		.byte	0x4
 16738 007e 00       		.uleb128 .LBB329-.LBB329
 16739 007f 12       		.uleb128 .LBE329-.LBB329
 16740 0080 04       		.byte	0x4
 16741 0081 14       		.uleb128 .LBB332-.LBB329
 16742 0082 16       		.uleb128 .LBE332-.LBB329
 16743 0083 00       		.byte	0
 16744              	.LLRL23:
 16745 0084 05       		.byte	0x5
 16746 0085 00000000 		.4byte	.LBB333
 16747 0089 04       		.byte	0x4
 16748 008a 00       		.uleb128 .LBB333-.LBB333
 16749 008b 00       		.uleb128 .LBE333-.LBB333
 16750 008c 04       		.byte	0x4
 16751 008d 04       		.uleb128 .LBB336-.LBB333
 16752 008e 0A       		.uleb128 .LBE336-.LBB333
 16753 008f 00       		.byte	0
 16754              	.LLRL55:
 16755 0090 05       		.byte	0x5
 16756 0091 02000000 		.4byte	.LBB434
 16757 0095 04       		.byte	0x4
 16758 0096 00       		.uleb128 .LBB434-.LBB434
 16759 0097 02       		.uleb128 .LBE434-.LBB434
 16760 0098 04       		.byte	0x4
 16761 0099 08       		.uleb128 .LBB454-.LBB434
 16762 009a 16       		.uleb128 .LBE454-.LBB434
 16763 009b 04       		.byte	0x4
 16764 009c 24       		.uleb128 .LBB455-.LBB434
 16765 009d 4A       		.uleb128 .LBE455-.LBB434
 16766 009e 00       		.byte	0
 16767              	.LLRL63:
 16768 009f 05       		.byte	0x5
 16769 00a0 02000000 		.4byte	.LBB475
 16770 00a4 04       		.byte	0x4
 16771 00a5 00       		.uleb128 .LBB475-.LBB475
 16772 00a6 02       		.uleb128 .LBE475-.LBB475
 16773 00a7 04       		.byte	0x4
 16774 00a8 08       		.uleb128 .LBB495-.LBB475
 16775 00a9 16       		.uleb128 .LBE495-.LBB475
 16776 00aa 04       		.byte	0x4
 16777 00ab 24       		.uleb128 .LBB496-.LBB475
 16778 00ac 4A       		.uleb128 .LBE496-.LBB475
 16779 00ad 00       		.byte	0
 16780              	.LLRL71:
 16781 00ae 05       		.byte	0x5
 16782 00af 02000000 		.4byte	.LBB516
 16783 00b3 04       		.byte	0x4
ARM GAS  C:\Users\DEVELO~1\AppData\Local\Temp\cc5EUJSb.s 			page 296


 16784 00b4 00       		.uleb128 .LBB516-.LBB516
 16785 00b5 02       		.uleb128 .LBE516-.LBB516
 16786 00b6 04       		.byte	0x4
 16787 00b7 08       		.uleb128 .LBB536-.LBB516
 16788 00b8 16       		.uleb128 .LBE536-.LBB516
 16789 00b9 04       		.byte	0x4
 16790 00ba 24       		.uleb128 .LBB537-.LBB516
 16791 00bb 4A       		.uleb128 .LBE537-.LBB516
 16792 00bc 00       		.byte	0
 16793              	.LLRL79:
 16794 00bd 05       		.byte	0x5
 16795 00be 02000000 		.4byte	.LBB557
 16796 00c2 04       		.byte	0x4
 16797 00c3 00       		.uleb128 .LBB557-.LBB557
 16798 00c4 02       		.uleb128 .LBE557-.LBB557
 16799 00c5 04       		.byte	0x4
 16800 00c6 08       		.uleb128 .LBB577-.LBB557
 16801 00c7 16       		.uleb128 .LBE577-.LBB557
 16802 00c8 04       		.byte	0x4
 16803 00c9 24       		.uleb128 .LBB578-.LBB557
 16804 00ca 4A       		.uleb128 .LBE578-.LBB557
 16805 00cb 00       		.byte	0
 16806              	.LLRL87:
 16807 00cc 05       		.byte	0x5
 16808 00cd 02000000 		.4byte	.LBB598
 16809 00d1 04       		.byte	0x4
 16810 00d2 00       		.uleb128 .LBB598-.LBB598
 16811 00d3 02       		.uleb128 .LBE598-.LBB598
 16812 00d4 04       		.byte	0x4
 16813 00d5 08       		.uleb128 .LBB618-.LBB598
 16814 00d6 16       		.uleb128 .LBE618-.LBB598
 16815 00d7 04       		.byte	0x4
 16816 00d8 24       		.uleb128 .LBB619-.LBB598
 16817 00d9 4A       		.uleb128 .LBE619-.LBB598
 16818 00da 00       		.byte	0
 16819              	.LLRL98:
 16820 00db 05       		.byte	0x5
 16821 00dc 7A000000 		.4byte	.LBB660
 16822 00e0 04       		.byte	0x4
 16823 00e1 00       		.uleb128 .LBB660-.LBB660
 16824 00e2 28       		.uleb128 .LBE660-.LBB660
 16825 00e3 04       		.byte	0x4
 16826 00e4 F005     		.uleb128 .LBB704-.LBB660
 16827 00e6 F605     		.uleb128 .LBE704-.LBB660
 16828 00e8 04       		.byte	0x4
 16829 00e9 F605     		.uleb128 .LBB705-.LBB660
 16830 00eb FA05     		.uleb128 .LBE705-.LBB660
 16831 00ed 00       		.byte	0
 16832              	.LLRL131:
 16833 00ee 05       		.byte	0x5
 16834 00ef F6020000 		.4byte	.LBB694
 16835 00f3 04       		.byte	0x4
 16836 00f4 00       		.uleb128 .LBB694-.LBB694
 16837 00f5 22       		.uleb128 .LBE694-.LBB694
 16838 00f6 04       		.byte	0x4
 16839 00f7 AA01     		.uleb128 .LBB706-.LBB694
 16840 00f9 B001     		.uleb128 .LBE706-.LBB694
ARM GAS  C:\Users\DEVELO~1\AppData\Local\Temp\cc5EUJSb.s 			page 297


 16841 00fb 04       		.byte	0x4
 16842 00fc B001     		.uleb128 .LBB707-.LBB694
 16843 00fe B401     		.uleb128 .LBE707-.LBB694
 16844 0100 00       		.byte	0
 16845              	.LLRL147:
 16846 0101 05       		.byte	0x5
 16847 0102 30000000 		.4byte	.LBB722
 16848 0106 04       		.byte	0x4
 16849 0107 00       		.uleb128 .LBB722-.LBB722
 16850 0108 00       		.uleb128 .LBE722-.LBB722
 16851 0109 04       		.byte	0x4
 16852 010a 08       		.uleb128 .LBB727-.LBB722
 16853 010b 18       		.uleb128 .LBE727-.LBB722
 16854 010c 00       		.byte	0
 16855              	.LLRL152:
 16856 010d 05       		.byte	0x5
 16857 010e 30000000 		.4byte	.LBB732
 16858 0112 04       		.byte	0x4
 16859 0113 00       		.uleb128 .LBB732-.LBB732
 16860 0114 00       		.uleb128 .LBE732-.LBB732
 16861 0115 04       		.byte	0x4
 16862 0116 08       		.uleb128 .LBB737-.LBB732
 16863 0117 18       		.uleb128 .LBE737-.LBB732
 16864 0118 00       		.byte	0
 16865              	.LLRL156:
 16866 0119 05       		.byte	0x5
 16867 011a 30000000 		.4byte	.LBB742
 16868 011e 04       		.byte	0x4
 16869 011f 00       		.uleb128 .LBB742-.LBB742
 16870 0120 00       		.uleb128 .LBE742-.LBB742
 16871 0121 04       		.byte	0x4
 16872 0122 08       		.uleb128 .LBB747-.LBB742
 16873 0123 18       		.uleb128 .LBE747-.LBB742
 16874 0124 00       		.byte	0
 16875              	.LLRL160:
 16876 0125 05       		.byte	0x5
 16877 0126 30000000 		.4byte	.LBB752
 16878 012a 04       		.byte	0x4
 16879 012b 00       		.uleb128 .LBB752-.LBB752
 16880 012c 00       		.uleb128 .LBE752-.LBB752
 16881 012d 04       		.byte	0x4
 16882 012e 08       		.uleb128 .LBB757-.LBB752
 16883 012f 18       		.uleb128 .LBE757-.LBB752
 16884 0130 00       		.byte	0
 16885              	.LLRL169:
 16886 0131 05       		.byte	0x5
 16887 0132 06000000 		.4byte	.LBB766
 16888 0136 04       		.byte	0x4
 16889 0137 00       		.uleb128 .LBB766-.LBB766
 16890 0138 02       		.uleb128 .LBE766-.LBB766
 16891 0139 04       		.byte	0x4
 16892 013a 06       		.uleb128 .LBB772-.LBB766
 16893 013b 08       		.uleb128 .LBE772-.LBB766
 16894 013c 04       		.byte	0x4
 16895 013d 0C       		.uleb128 .LBB773-.LBB766
 16896 013e 16       		.uleb128 .LBE773-.LBB766
 16897 013f 00       		.byte	0
ARM GAS  C:\Users\DEVELO~1\AppData\Local\Temp\cc5EUJSb.s 			page 298


 16898              	.LLRL171:
 16899 0140 05       		.byte	0x5
 16900 0141 28000000 		.4byte	.LBB774
 16901 0145 04       		.byte	0x4
 16902 0146 00       		.uleb128 .LBB774-.LBB774
 16903 0147 0E       		.uleb128 .LBE774-.LBB774
 16904 0148 04       		.byte	0x4
 16905 0149 10       		.uleb128 .LBB780-.LBB774
 16906 014a 14       		.uleb128 .LBE780-.LBB774
 16907 014b 04       		.byte	0x4
 16908 014c 16       		.uleb128 .LBB782-.LBB774
 16909 014d 18       		.uleb128 .LBE782-.LBB774
 16910 014e 00       		.byte	0
 16911              	.LLRL174:
 16912 014f 05       		.byte	0x5
 16913 0150 36000000 		.4byte	.LBB775
 16914 0154 04       		.byte	0x4
 16915 0155 00       		.uleb128 .LBB775-.LBB775
 16916 0156 02       		.uleb128 .LBE775-.LBB775
 16917 0157 04       		.byte	0x4
 16918 0158 06       		.uleb128 .LBB781-.LBB775
 16919 0159 08       		.uleb128 .LBE781-.LBB775
 16920 015a 04       		.byte	0x4
 16921 015b 0A       		.uleb128 .LBB783-.LBB775
 16922 015c 1E       		.uleb128 .LBE783-.LBB775
 16923 015d 04       		.byte	0x4
 16924 015e 20       		.uleb128 .LBB784-.LBB775
 16925 015f 22       		.uleb128 .LBE784-.LBB775
 16926 0160 00       		.byte	0
 16927              	.LLRL176:
 16928 0161 05       		.byte	0x5
 16929 0162 60000000 		.4byte	.LBB785
 16930 0166 04       		.byte	0x4
 16931 0167 00       		.uleb128 .LBB785-.LBB785
 16932 0168 0C       		.uleb128 .LBE785-.LBB785
 16933 0169 04       		.byte	0x4
 16934 016a 0E       		.uleb128 .LBB786-.LBB785
 16935 016b 10       		.uleb128 .LBE786-.LBB785
 16936 016c 00       		.byte	0
 16937              	.LLRL179:
 16938 016d 07       		.byte	0x7
 16939 016e 00000000 		.4byte	.LFB462
 16940 0172 54       		.uleb128 .LFE462-.LFB462
 16941 0173 07       		.byte	0x7
 16942 0174 00000000 		.4byte	.LFB435
 16943 0178 EC02     		.uleb128 .LFE435-.LFB435
 16944 017a 07       		.byte	0x7
 16945 017b 00000000 		.4byte	.LFB436
 16946 017f B401     		.uleb128 .LFE436-.LFB436
 16947 0181 07       		.byte	0x7
 16948 0182 00000000 		.4byte	.LFB460
 16949 0186 38       		.uleb128 .LFE460-.LFB460
 16950 0187 07       		.byte	0x7
 16951 0188 00000000 		.4byte	.LFB438
 16952 018c 0A       		.uleb128 .LFE438-.LFB438
 16953 018d 07       		.byte	0x7
 16954 018e 00000000 		.4byte	.LFB440
ARM GAS  C:\Users\DEVELO~1\AppData\Local\Temp\cc5EUJSb.s 			page 299


 16955 0192 0C       		.uleb128 .LFE440-.LFB440
 16956 0193 07       		.byte	0x7
 16957 0194 00000000 		.4byte	.LFB439
 16958 0198 A801     		.uleb128 .LFE439-.LFB439
 16959 019a 07       		.byte	0x7
 16960 019b 00000000 		.4byte	.LFB437
 16961 019f A801     		.uleb128 .LFE437-.LFB437
 16962 01a1 07       		.byte	0x7
 16963 01a2 00000000 		.4byte	.LFB444
 16964 01a6 68       		.uleb128 .LFE444-.LFB444
 16965 01a7 07       		.byte	0x7
 16966 01a8 00000000 		.4byte	.LFB445
 16967 01ac 68       		.uleb128 .LFE445-.LFB445
 16968 01ad 07       		.byte	0x7
 16969 01ae 00000000 		.4byte	.LFB446
 16970 01b2 68       		.uleb128 .LFE446-.LFB446
 16971 01b3 07       		.byte	0x7
 16972 01b4 00000000 		.4byte	.LFB447
 16973 01b8 68       		.uleb128 .LFE447-.LFB447
 16974 01b9 07       		.byte	0x7
 16975 01ba 00000000 		.4byte	.LFB448
 16976 01be 68       		.uleb128 .LFE448-.LFB448
 16977 01bf 07       		.byte	0x7
 16978 01c0 00000000 		.4byte	.LFB449
 16979 01c4 EC01     		.uleb128 .LFE449-.LFB449
 16980 01c6 07       		.byte	0x7
 16981 01c7 00000000 		.4byte	.LFB450
 16982 01cb AC07     		.uleb128 .LFE450-.LFB450
 16983 01cd 07       		.byte	0x7
 16984 01ce 00000000 		.4byte	.LFB451
 16985 01d2 8402     		.uleb128 .LFE451-.LFB451
 16986 01d4 07       		.byte	0x7
 16987 01d5 00000000 		.4byte	.LFB452
 16988 01d9 5A       		.uleb128 .LFE452-.LFB452
 16989 01da 07       		.byte	0x7
 16990 01db 00000000 		.4byte	.LFB453
 16991 01df 6E       		.uleb128 .LFE453-.LFB453
 16992 01e0 07       		.byte	0x7
 16993 01e1 00000000 		.4byte	.LFB454
 16994 01e5 6C       		.uleb128 .LFE454-.LFB454
 16995 01e6 07       		.byte	0x7
 16996 01e7 00000000 		.4byte	.LFB455
 16997 01eb 66       		.uleb128 .LFE455-.LFB455
 16998 01ec 07       		.byte	0x7
 16999 01ed 00000000 		.4byte	.LFB456
 17000 01f1 26       		.uleb128 .LFE456-.LFB456
 17001 01f2 07       		.byte	0x7
 17002 01f3 00000000 		.4byte	.LFB457
 17003 01f7 8001     		.uleb128 .LFE457-.LFB457
 17004 01f9 00       		.byte	0
 17005              	.Ldebug_ranges3:
 17006              		.section	.debug_line,"",%progbits
 17007              	.Ldebug_line0:
 17008 0000 D8230000 		.section	.debug_str,"MS",%progbits,1
 17008      0300C804 
 17008      00000201 
 17008      FB0E0D00 
ARM GAS  C:\Users\DEVELO~1\AppData\Local\Temp\cc5EUJSb.s 			page 300


 17008      01010101 
 17009              	.LASF138:
 17010 0000 41504231 		.ascii	"APB1HRSTR\000"
 17010      48525354 
 17010      5200
 17011              	.LASF11:
 17012 000a 6C6F6E67 		.ascii	"long int\000"
 17012      20696E74 
 17012      00
 17013              	.LASF220:
 17014 0013 636C6561 		.ascii	"clear\000"
 17014      7200
 17015              	.LASF101:
 17016 0019 42444D41 		.ascii	"BDMA_TypeDef\000"
 17016      5F547970 
 17016      65446566 
 17016      00
 17017              	.LASF217:
 17018 0026 62646D61 		.ascii	"bdma\000"
 17018      00
 17019              	.LASF320:
 17020 002b 72636352 		.ascii	"rccResetAPB1L\000"
 17020      65736574 
 17020      41504231 
 17020      4C00
 17021              	.LASF194:
 17022 0039 77746D74 		.ascii	"wtmtxp\000"
 17022      787000
 17023              	.LASF248:
 17024 0040 63697263 		.ascii	"circular\000"
 17024      756C6172 
 17024      00
 17025              	.LASF186:
 17026 0049 74687265 		.ascii	"thread_reference_t\000"
 17026      61645F72 
 17026      65666572 
 17026      656E6365 
 17026      5F7400
 17027              	.LASF225:
 17028 005c 42535252 		.ascii	"BSRR\000"
 17028      00
 17029              	.LASF310:
 17030 0061 7370695F 		.ascii	"spi_lld_stop_abort\000"
 17030      6C6C645F 
 17030      73746F70 
 17030      5F61626F 
 17030      727400
 17031              	.LASF183:
 17032 0074 63685F72 		.ascii	"ch_registry\000"
 17032      65676973 
 17032      74727900 
 17033              	.LASF161:
 17034 0080 41504232 		.ascii	"APB2LPENR\000"
 17034      4C50454E 
 17034      5200
 17035              	.LASF139:
 17036 008a 41504232 		.ascii	"APB2RSTR\000"
ARM GAS  C:\Users\DEVELO~1\AppData\Local\Temp\cc5EUJSb.s 			page 301


 17036      52535452 
 17036      00
 17037              	.LASF290:
 17038 0093 7370695F 		.ascii	"spi_lld_exchange\000"
 17038      6C6C645F 
 17038      65786368 
 17038      616E6765 
 17038      00
 17039              	.LASF38:
 17040 00a4 666C6167 		.ascii	"flags\000"
 17040      7300
 17041              	.LASF65:
 17042 00aa 73797374 		.ascii	"systime_t\000"
 17042      696D655F 
 17042      7400
 17043              	.LASF44:
 17044 00b4 7265616C 		.ascii	"realprio\000"
 17044      7072696F 
 17044      00
 17045              	.LASF89:
 17046 00bd 62756666 		.ascii	"buffer\000"
 17046      657200
 17047              	.LASF119:
 17048 00c4 504C4C33 		.ascii	"PLL3FRACR\000"
 17048      46524143 
 17048      5200
 17049              	.LASF42:
 17050 00ce 6570656E 		.ascii	"epending\000"
 17050      64696E67 
 17050      00
 17051              	.LASF0:
 17052 00d7 756E7369 		.ascii	"unsigned int\000"
 17052      676E6564 
 17052      20696E74 
 17052      00
 17053              	.LASF69:
 17054 00e4 6E657874 		.ascii	"next\000"
 17054      00
 17055              	.LASF19:
 17056 00e9 75696E74 		.ascii	"uint32_t\000"
 17056      33325F74 
 17056      00
 17057              	.LASF87:
 17058 00f2 73757370 		.ascii	"suspended\000"
 17058      656E6465 
 17058      6400
 17059              	.LASF262:
 17060 00fc 62646D61 		.ascii	"bdmaStreamFreeI\000"
 17060      53747265 
 17060      616D4672 
 17060      65654900 
 17061              	.LASF171:
 17062 010c 54584352 		.ascii	"TXCRC\000"
 17062      4300
 17063              	.LASF52:
 17064 0112 636F7265 		.ascii	"core_id\000"
 17064      5F696400 
ARM GAS  C:\Users\DEVELO~1\AppData\Local\Temp\cc5EUJSb.s 			page 302


 17065              	.LASF110:
 17066 011a 44334346 		.ascii	"D3CFGR\000"
 17066      475200
 17067              	.LASF130:
 17068 0121 42444352 		.ascii	"BDCR\000"
 17068      00
 17069              	.LASF50:
 17070 0126 76746C69 		.ascii	"vtlist\000"
 17070      737400
 17071              	.LASF39:
 17072 012d 72656673 		.ascii	"refs\000"
 17072      00
 17073              	.LASF104:
 17074 0132 43525243 		.ascii	"CRRCR\000"
 17074      5200
 17075              	.LASF164:
 17076 0138 5243435F 		.ascii	"RCC_TypeDef\000"
 17076      54797065 
 17076      44656600 
 17077              	.LASF251:
 17078 0144 6572726F 		.ascii	"error_cb\000"
 17078      725F6362 
 17078      00
 17079              	.LASF79:
 17080 014d 77746F62 		.ascii	"wtobjp\000"
 17080      6A7000
 17081              	.LASF335:
 17082 0154 706F7274 		.ascii	"port_lock\000"
 17082      5F6C6F63 
 17082      6B00
 17083              	.LASF307:
 17084 015e 7370695F 		.ascii	"spi_lld_serve_bdma_tx_interrupt\000"
 17084      6C6C645F 
 17084      73657276 
 17084      655F6264 
 17084      6D615F74 
 17085              	.LASF118:
 17086 017e 504C4C33 		.ascii	"PLL3DIVR\000"
 17086      44495652 
 17086      00
 17087              	.LASF265:
 17088 0187 62646D61 		.ascii	"bdmaStreamAllocI\000"
 17088      53747265 
 17088      616D416C 
 17088      6C6F6349 
 17088      00
 17089              	.LASF177:
 17090 0198 706F7274 		.ascii	"port_context\000"
 17090      5F636F6E 
 17090      74657874 
 17090      00
 17091              	.LASF333:
 17092 01a5 706F7274 		.ascii	"port_lock_from_isr\000"
 17092      5F6C6F63 
 17092      6B5F6672 
 17092      6F6D5F69 
 17092      737200
ARM GAS  C:\Users\DEVELO~1\AppData\Local\Temp\cc5EUJSb.s 			page 303


 17093              	.LASF70:
 17094 01b8 63685F71 		.ascii	"ch_queue_t\000"
 17094      75657565 
 17094      5F7400
 17095              	.LASF198:
 17096 01c3 63685F72 		.ascii	"ch_ready_list\000"
 17096      65616479 
 17096      5F6C6973 
 17096      7400
 17097              	.LASF91:
 17098 01d1 4E445452 		.ascii	"NDTR\000"
 17098      00
 17099              	.LASF181:
 17100 01d6 6C617374 		.ascii	"laststamp\000"
 17100      7374616D 
 17100      7000
 17101              	.LASF127:
 17102 01e0 43494652 		.ascii	"CIFR\000"
 17102      00
 17103              	.LASF288:
 17104 01e5 74786275 		.ascii	"txbuf\000"
 17104      6600
 17105              	.LASF72:
 17106 01eb 70726576 		.ascii	"prev\000"
 17106      00
 17107              	.LASF156:
 17108 01f0 41484232 		.ascii	"AHB2LPENR\000"
 17108      4C50454E 
 17108      5200
 17109              	.LASF331:
 17110 01fa 63685379 		.ascii	"chSysLockFromISR\000"
 17110      734C6F63 
 17110      6B46726F 
 17110      6D495352 
 17110      00
 17111              	.LASF264:
 17112 020b 646D6153 		.ascii	"dmaStreamFreeI\000"
 17112      74726561 
 17112      6D467265 
 17112      654900
 17113              	.LASF68:
 17114 021a 63685F6C 		.ascii	"ch_list\000"
 17114      69737400 
 17115              	.LASF216:
 17116 0222 73746D33 		.ascii	"stm32_bdmaisr_t\000"
 17116      325F6264 
 17116      6D616973 
 17116      725F7400 
 17117              	.LASF172:
 17118 0232 52584352 		.ascii	"RXCRC\000"
 17118      4300
 17119              	.LASF148:
 17120 0238 41504233 		.ascii	"APB3ENR\000"
 17120      454E5200 
 17121              	.LASF317:
 17122 0240 72636352 		.ascii	"rccResetAPB2\000"
 17122      65736574 
ARM GAS  C:\Users\DEVELO~1\AppData\Local\Temp\cc5EUJSb.s 			page 304


 17122      41504232 
 17122      00
 17123              	.LASF95:
 17124 024d 434E4454 		.ascii	"CNDTR\000"
 17124      5200
 17125              	.LASF314:
 17126 0253 72636352 		.ascii	"rccResetAPB4\000"
 17126      65736574 
 17126      41504234 
 17126      00
 17127              	.LASF61:
 17128 0260 63685F73 		.ascii	"ch_system_debug\000"
 17128      79737465 
 17128      6D5F6465 
 17128      62756700 
 17129              	.LASF340:
 17130 0270 433A5C50 		.ascii	"C:\\PROJET\\ChibiOS project\\ChibiOS_21.11.4\\demos"
 17130      524F4A45 
 17130      545C4368 
 17130      6962694F 
 17130      53207072 
 17131 029f 5C53544D 		.ascii	"\\STM32\\RT-STM32H743ZI_REV_XY-NUCLEO144\000"
 17131      33325C52 
 17131      542D5354 
 17131      4D333248 
 17131      3734335A 
 17132              	.LASF256:
 17133 02c6 73706963 		.ascii	"spicb_t\000"
 17133      625F7400 
 17134              	.LASF187:
 17135 02ce 6C697374 		.ascii	"list\000"
 17135      00
 17136              	.LASF252:
 17137 02d3 7373706F 		.ascii	"ssport\000"
 17137      727400
 17138              	.LASF271:
 17139 02da 63685468 		.ascii	"chThdResumeI\000"
 17139      64526573 
 17139      756D6549 
 17139      00
 17140              	.LASF270:
 17141 02e7 7370694F 		.ascii	"spiObjectInit\000"
 17141      626A6563 
 17141      74496E69 
 17141      7400
 17142              	.LASF321:
 17143 02f5 72636344 		.ascii	"rccDisableAPB1L\000"
 17143      69736162 
 17143      6C654150 
 17143      42314C00 
 17144              	.LASF77:
 17145 0305 63685F64 		.ascii	"ch_delta_list\000"
 17145      656C7461 
 17145      5F6C6973 
 17145      7400
 17146              	.LASF276:
 17147 0313 6473697A 		.ascii	"dsize\000"
ARM GAS  C:\Users\DEVELO~1\AppData\Local\Temp\cc5EUJSb.s 			page 305


 17147      6500
 17148              	.LASF192:
 17149 0319 73656E74 		.ascii	"sentmsg\000"
 17149      6D736700 
 17150              	.LASF29:
 17151 0321 6576656E 		.ascii	"eventmask_t\000"
 17151      746D6173 
 17151      6B5F7400 
 17152              	.LASF211:
 17153 032d 69666372 		.ascii	"ifcr\000"
 17153      00
 17154              	.LASF300:
 17155 0332 72787374 		.ascii	"rxstream\000"
 17155      7265616D 
 17155      00
 17156              	.LASF86:
 17157 033b 74726163 		.ascii	"trace_event_t\000"
 17157      655F6576 
 17157      656E745F 
 17157      7400
 17158              	.LASF240:
 17159 0349 6D757465 		.ascii	"mutex\000"
 17159      7800
 17160              	.LASF212:
 17161 034f 73686966 		.ascii	"shift\000"
 17161      7400
 17162              	.LASF115:
 17163 0355 504C4C31 		.ascii	"PLL1FRACR\000"
 17163      46524143 
 17163      5200
 17164              	.LASF308:
 17165 035f 7370695F 		.ascii	"spi_lld_serve_dma_rx_interrupt\000"
 17165      6C6C645F 
 17165      73657276 
 17165      655F646D 
 17165      615F7278 
 17166              	.LASF145:
 17167 037e 41484231 		.ascii	"AHB1ENR\000"
 17167      454E5200 
 17168              	.LASF27:
 17169 0386 74707269 		.ascii	"tprio_t\000"
 17169      6F5F7400 
 17170              	.LASF137:
 17171 038e 41504231 		.ascii	"APB1LRSTR\000"
 17171      4C525354 
 17171      5200
 17172              	.LASF292:
 17173 0398 7370695F 		.ascii	"spi_lld_start\000"
 17173      6C6C645F 
 17173      73746172 
 17173      7400
 17174              	.LASF206:
 17175 03a6 6F735F69 		.ascii	"os_instance_config_t\000"
 17175      6E737461 
 17175      6E63655F 
 17175      636F6E66 
 17175      69675F74 
ARM GAS  C:\Users\DEVELO~1\AppData\Local\Temp\cc5EUJSb.s 			page 306


 17176              	.LASF81:
 17177 03bb 68616C74 		.ascii	"halt\000"
 17177      00
 17178              	.LASF15:
 17179 03c0 6C6F6E67 		.ascii	"long long unsigned int\000"
 17179      206C6F6E 
 17179      6720756E 
 17179      7369676E 
 17179      65642069 
 17180              	.LASF159:
 17181 03d7 41504231 		.ascii	"APB1LLPENR\000"
 17181      4C4C5045 
 17181      4E5200
 17182              	.LASF299:
 17183 03e2 56656374 		.ascii	"VectorCC\000"
 17183      6F724343 
 17183      00
 17184              	.LASF283:
 17185 03eb 7370695F 		.ascii	"spi_lld_stop_transfer\000"
 17185      6C6C645F 
 17185      73746F70 
 17185      5F747261 
 17185      6E736665 
 17186              	.LASF278:
 17187 0401 74786472 		.ascii	"txdrp8\000"
 17187      703800
 17188              	.LASF80:
 17189 0408 72656173 		.ascii	"reason\000"
 17189      6F6E00
 17190              	.LASF214:
 17191 040f 76656374 		.ascii	"vector\000"
 17191      6F7200
 17192              	.LASF188:
 17193 0416 70717565 		.ascii	"pqueue\000"
 17193      756500
 17194              	.LASF8:
 17195 041d 5F5F7569 		.ascii	"__uint16_t\000"
 17195      6E743136 
 17195      5F7400
 17196              	.LASF30:
 17197 0428 636E745F 		.ascii	"cnt_t\000"
 17197      7400
 17198              	.LASF221:
 17199 042e 4D4F4445 		.ascii	"MODER\000"
 17199      5200
 17200              	.LASF281:
 17201 0434 72786472 		.ascii	"rxdrp16\000"
 17201      70313600 
 17202              	.LASF238:
 17203 043c 68616C5F 		.ascii	"hal_spi_driver\000"
 17203      7370695F 
 17203      64726976 
 17203      657200
 17204              	.LASF85:
 17205 044b 74696D65 		.ascii	"time\000"
 17205      00
 17206              	.LASF228:
ARM GAS  C:\Users\DEVELO~1\AppData\Local\Temp\cc5EUJSb.s 			page 307


 17207 0450 41465248 		.ascii	"AFRH\000"
 17207      00
 17208              	.LASF229:
 17209 0455 73746D33 		.ascii	"stm32_gpio_t\000"
 17209      325F6770 
 17209      696F5F74 
 17209      00
 17210              	.LASF34:
 17211 0462 6F776E65 		.ascii	"owner\000"
 17211      7200
 17212              	.LASF132:
 17213 0468 41484233 		.ascii	"AHB3RSTR\000"
 17213      52535452 
 17213      00
 17214              	.LASF203:
 17215 0471 6D61696E 		.ascii	"mainthread_end\000"
 17215      74687265 
 17215      61645F65 
 17215      6E6400
 17216              	.LASF298:
 17217 0480 56656374 		.ascii	"VectorD0\000"
 17217      6F724430 
 17217      00
 17218              	.LASF43:
 17219 0489 6D74786C 		.ascii	"mtxlist\000"
 17219      69737400 
 17220              	.LASF178:
 17221 0491 63685F76 		.ascii	"ch_virtual_timers_list\000"
 17221      69727475 
 17221      616C5F74 
 17221      696D6572 
 17221      735F6C69 
 17222              	.LASF53:
 17223 04a8 72666375 		.ascii	"rfcu\000"
 17223      00
 17224              	.LASF337:
 17225 04ad 62617365 		.ascii	"basePri\000"
 17225      50726900 
 17226              	.LASF32:
 17227 04b5 74687265 		.ascii	"thread_t\000"
 17227      61645F74 
 17227      00
 17228              	.LASF330:
 17229 04be 63685379 		.ascii	"chSysUnlockFromISR\000"
 17229      73556E6C 
 17229      6F636B46 
 17229      726F6D49 
 17229      535200
 17230              	.LASF149:
 17231 04d1 41504231 		.ascii	"APB1LENR\000"
 17231      4C454E52 
 17231      00
 17232              	.LASF82:
 17233 04da 75736572 		.ascii	"user\000"
 17233      00
 17234              	.LASF162:
 17235 04df 41504234 		.ascii	"APB4LPENR\000"
ARM GAS  C:\Users\DEVELO~1\AppData\Local\Temp\cc5EUJSb.s 			page 308


 17235      4C50454E 
 17235      5200
 17236              	.LASF4:
 17237 04e9 73697A65 		.ascii	"size_t\000"
 17237      5F7400
 17238              	.LASF189:
 17239 04f0 7264796D 		.ascii	"rdymsg\000"
 17239      736700
 17240              	.LASF169:
 17241 04f7 52584452 		.ascii	"RXDR\000"
 17241      00
 17242              	.LASF328:
 17243 04fc 6F73616C 		.ascii	"osalSysLockFromISR\000"
 17243      5379734C 
 17243      6F636B46 
 17243      726F6D49 
 17243      535200
 17244              	.LASF296:
 17245 050f 56656374 		.ascii	"Vector194\000"
 17245      6F723139 
 17245      3400
 17246              	.LASF73:
 17247 0519 63685F70 		.ascii	"ch_priority_queue_t\000"
 17247      72696F72 
 17247      6974795F 
 17247      71756575 
 17247      655F7400 
 17248              	.LASF295:
 17249 052d 56656374 		.ascii	"Vector198\000"
 17249      6F723139 
 17249      3800
 17250              	.LASF208:
 17251 0537 5F426F6F 		.ascii	"_Bool\000"
 17251      6C00
 17252              	.LASF325:
 17253 053d 5F5F7263 		.ascii	"__rccResetAPB1L\000"
 17253      63526573 
 17253      65744150 
 17253      42314C00 
 17254              	.LASF140:
 17255 054d 41504234 		.ascii	"APB4RSTR\000"
 17255      52535452 
 17255      00
 17256              	.LASF58:
 17257 0556 63685F72 		.ascii	"ch_rfcu\000"
 17257      66637500 
 17258              	.LASF197:
 17259 055e 63685F6D 		.ascii	"ch_mutex\000"
 17259      75746578 
 17259      00
 17260              	.LASF246:
 17261 0567 53504943 		.ascii	"SPIConfig\000"
 17261      6F6E6669 
 17261      6700
 17262              	.LASF92:
 17263 0571 4D304152 		.ascii	"M0AR\000"
 17263      00
ARM GAS  C:\Users\DEVELO~1\AppData\Local\Temp\cc5EUJSb.s 			page 309


 17264              	.LASF48:
 17265 0576 63685F6F 		.ascii	"ch_os_instance\000"
 17265      735F696E 
 17265      7374616E 
 17265      636500
 17266              	.LASF144:
 17267 0585 41484233 		.ascii	"AHB3ENR\000"
 17267      454E5200 
 17268              	.LASF230:
 17269 058d 696F706F 		.ascii	"ioportid_t\000"
 17269      72746964 
 17269      5F7400
 17270              	.LASF227:
 17271 0598 4146524C 		.ascii	"AFRL\000"
 17271      00
 17272              	.LASF122:
 17273 059d 44324343 		.ascii	"D2CCIP1R\000"
 17273      49503152 
 17273      00
 17274              	.LASF224:
 17275 05a6 50555044 		.ascii	"PUPDR\000"
 17275      5200
 17276              	.LASF249:
 17277 05ac 736C6176 		.ascii	"slave\000"
 17277      6500
 17278              	.LASF209:
 17279 05b2 73746D33 		.ascii	"stm32_dmaisr_t\000"
 17279      325F646D 
 17279      61697372 
 17279      5F7400
 17280              	.LASF205:
 17281 05c1 69646C65 		.ascii	"idlethread_end\000"
 17281      74687265 
 17281      61645F65 
 17281      6E6400
 17282              	.LASF75:
 17283 05d0 7072696F 		.ascii	"prio\000"
 17283      00
 17284              	.LASF304:
 17285 05d5 7370695F 		.ascii	"spi_lld_get_dma\000"
 17285      6C6C645F 
 17285      6765745F 
 17285      646D6100 
 17286              	.LASF294:
 17287 05e5 7370695F 		.ascii	"spi_lld_init\000"
 17287      6C6C645F 
 17287      696E6974 
 17287      00
 17288              	.LASF303:
 17289 05f2 7370695F 		.ascii	"spi_lld_get_bdma\000"
 17289      6C6C645F 
 17289      6765745F 
 17289      62646D61 
 17289      00
 17290              	.LASF63:
 17291 0603 63686172 		.ascii	"char\000"
 17291      00
ARM GAS  C:\Users\DEVELO~1\AppData\Local\Temp\cc5EUJSb.s 			page 310


 17292              	.LASF76:
 17293 0608 63685F64 		.ascii	"ch_delta_list_t\000"
 17293      656C7461 
 17293      5F6C6973 
 17293      745F7400 
 17294              	.LASF57:
 17295 0618 72666375 		.ascii	"rfcu_mask_t\000"
 17295      5F6D6173 
 17295      6B5F7400 
 17296              	.LASF10:
 17297 0624 5F5F696E 		.ascii	"__int32_t\000"
 17297      7433325F 
 17297      7400
 17298              	.LASF157:
 17299 062e 41484234 		.ascii	"AHB4LPENR\000"
 17299      4C50454E 
 17299      5200
 17300              	.LASF117:
 17301 0638 504C4C32 		.ascii	"PLL2FRACR\000"
 17301      46524143 
 17301      5200
 17302              	.LASF243:
 17303 0642 7478646D 		.ascii	"txdmamode\000"
 17303      616D6F64 
 17303      6500
 17304              	.LASF36:
 17305 064c 77616261 		.ascii	"wabase\000"
 17305      736500
 17306              	.LASF342:
 17307 0653 7370695F 		.ascii	"spi_lld_stop_nicely\000"
 17307      6C6C645F 
 17307      73746F70 
 17307      5F6E6963 
 17307      656C7900 
 17308              	.LASF25:
 17309 0667 74737461 		.ascii	"tstate_t\000"
 17309      74655F74 
 17309      00
 17310              	.LASF109:
 17311 0670 44324346 		.ascii	"D2CFGR\000"
 17311      475200
 17312              	.LASF202:
 17313 0677 6D61696E 		.ascii	"mainthread_base\000"
 17313      74687265 
 17313      61645F62 
 17313      61736500 
 17314              	.LASF215:
 17315 0687 73746D33 		.ascii	"stm32_dma_stream_t\000"
 17315      325F646D 
 17315      615F7374 
 17315      7265616D 
 17315      5F7400
 17316              	.LASF14:
 17317 069a 5F5F7569 		.ascii	"__uint64_t\000"
 17317      6E743634 
 17317      5F7400
 17318              	.LASF123:
ARM GAS  C:\Users\DEVELO~1\AppData\Local\Temp\cc5EUJSb.s 			page 311


 17319 06a5 44324343 		.ascii	"D2CCIP2R\000"
 17319      49503252 
 17319      00
 17320              	.LASF16:
 17321 06ae 75696E74 		.ascii	"uint8_t\000"
 17321      385F7400 
 17322              	.LASF126:
 17323 06b6 43494552 		.ascii	"CIER\000"
 17323      00
 17324              	.LASF267:
 17325 06bb 62646D61 		.ascii	"bdmaSetRequestSource\000"
 17325      53657452 
 17325      65717565 
 17325      7374536F 
 17325      75726365 
 17326              	.LASF41:
 17327 06d0 6D736771 		.ascii	"msgqueue\000"
 17327      75657565 
 17327      00
 17328              	.LASF116:
 17329 06d9 504C4C32 		.ascii	"PLL2DIVR\000"
 17329      44495652 
 17329      00
 17330              	.LASF284:
 17331 06e2 73697A65 		.ascii	"sizep\000"
 17331      7000
 17332              	.LASF210:
 17333 06e8 73747265 		.ascii	"stream\000"
 17333      616D00
 17334              	.LASF47:
 17335 06ef 63685F74 		.ascii	"ch_thread\000"
 17335      68726561 
 17335      6400
 17336              	.LASF168:
 17337 06f9 54584452 		.ascii	"TXDR\000"
 17337      00
 17338              	.LASF313:
 17339 06fe 7370695F 		.ascii	"spi_lld_configure\000"
 17339      6C6C645F 
 17339      636F6E66 
 17339      69677572 
 17339      6500
 17340              	.LASF311:
 17341 0710 7370695F 		.ascii	"spi_lld_suspend\000"
 17341      6C6C645F 
 17341      73757370 
 17341      656E6400 
 17342              	.LASF341:
 17343 0720 5F5F706F 		.ascii	"__port_irq_epilogue\000"
 17343      72745F69 
 17343      72715F65 
 17343      70696C6F 
 17343      67756500 
 17344              	.LASF33:
 17345 0734 72717565 		.ascii	"rqueue\000"
 17345      756500
 17346              	.LASF64:
ARM GAS  C:\Users\DEVELO~1\AppData\Local\Temp\cc5EUJSb.s 			page 312


 17347 073b 73797374 		.ascii	"system_debug_t\000"
 17347      656D5F64 
 17347      65627567 
 17347      5F7400
 17348              	.LASF1:
 17349 074a 6C6F6E67 		.ascii	"long long int\000"
 17349      206C6F6E 
 17349      6720696E 
 17349      7400
 17350              	.LASF21:
 17351 0758 75696E74 		.ascii	"uint_fast8_t\000"
 17351      5F666173 
 17351      74385F74 
 17351      00
 17352              	.LASF28:
 17353 0765 6D73675F 		.ascii	"msg_t\000"
 17353      7400
 17354              	.LASF99:
 17355 076b 42444D41 		.ascii	"BDMA_Channel_TypeDef\000"
 17355      5F436861 
 17355      6E6E656C 
 17355      5F547970 
 17355      65446566 
 17356              	.LASF185:
 17357 0780 72656769 		.ascii	"registry_t\000"
 17357      73747279 
 17357      5F7400
 17358              	.LASF329:
 17359 078b 6F73616C 		.ascii	"osalSysHalt\000"
 17359      53797348 
 17359      616C7400 
 17360              	.LASF234:
 17361 0797 5350495F 		.ascii	"SPI_ACTIVE\000"
 17361      41435449 
 17361      564500
 17362              	.LASF309:
 17363 07a2 7370695F 		.ascii	"spi_lld_serve_bdma_rx_interrupt\000"
 17363      6C6C645F 
 17363      73657276 
 17363      655F6264 
 17363      6D615F72 
 17364              	.LASF297:
 17365 07c2 56656374 		.ascii	"Vector10C\000"
 17365      6F723130 
 17365      4300
 17366              	.LASF94:
 17367 07cc 444D415F 		.ascii	"DMA_Stream_TypeDef\000"
 17367      53747265 
 17367      616D5F54 
 17367      79706544 
 17367      656600
 17368              	.LASF88:
 17369 07df 73697A65 		.ascii	"size\000"
 17369      00
 17370              	.LASF285:
 17371 07e4 7370695F 		.ascii	"spi_lld_receive\000"
 17371      6C6C645F 
ARM GAS  C:\Users\DEVELO~1\AppData\Local\Temp\cc5EUJSb.s 			page 313


 17371      72656365 
 17371      69766500 
 17372              	.LASF59:
 17373 07f4 6D61736B 		.ascii	"mask\000"
 17373      00
 17374              	.LASF247:
 17375 07f9 68616C5F 		.ascii	"hal_spi_config\000"
 17375      7370695F 
 17375      636F6E66 
 17375      696700
 17376              	.LASF133:
 17377 0808 41484231 		.ascii	"AHB1RSTR\000"
 17377      52535452 
 17377      00
 17378              	.LASF66:
 17379 0811 73797369 		.ascii	"sysinterval_t\000"
 17379      6E746572 
 17379      76616C5F 
 17379      7400
 17380              	.LASF151:
 17381 081f 41504232 		.ascii	"APB2ENR\000"
 17381      454E5200 
 17382              	.LASF62:
 17383 0827 70616E69 		.ascii	"panic_msg\000"
 17383      635F6D73 
 17383      6700
 17384              	.LASF142:
 17385 0831 4433414D 		.ascii	"D3AMR\000"
 17385      5200
 17386              	.LASF90:
 17387 0837 74726163 		.ascii	"trace_buffer_t\000"
 17387      655F6275 
 17387      66666572 
 17387      5F7400
 17388              	.LASF102:
 17389 0846 444D414D 		.ascii	"DMAMUX_Channel_TypeDef\000"
 17389      55585F43 
 17389      68616E6E 
 17389      656C5F54 
 17389      79706544 
 17390              	.LASF24:
 17391 085d 746D6F64 		.ascii	"tmode_t\000"
 17391      655F7400 
 17392              	.LASF155:
 17393 0865 41484231 		.ascii	"AHB1LPENR\000"
 17393      4C50454E 
 17393      5200
 17394              	.LASF277:
 17395 086f 72786672 		.ascii	"rxframe\000"
 17395      616D6500 
 17396              	.LASF223:
 17397 0877 4F535045 		.ascii	"OSPEEDR\000"
 17397      45445200 
 17398              	.LASF324:
 17399 087f 5F5F7263 		.ascii	"__rccResetAPB2\000"
 17399      63526573 
 17399      65744150 
ARM GAS  C:\Users\DEVELO~1\AppData\Local\Temp\cc5EUJSb.s 			page 314


 17399      423200
 17400              	.LASF323:
 17401 088e 5F5F7263 		.ascii	"__rccResetAPB4\000"
 17401      63526573 
 17401      65744150 
 17401      423400
 17402              	.LASF226:
 17403 089d 4C4F434B 		.ascii	"LOCKR\000"
 17403      5200
 17404              	.LASF2:
 17405 08a3 6C6F6E67 		.ascii	"long double\000"
 17405      20646F75 
 17405      626C6500 
 17406              	.LASF17:
 17407 08af 75696E74 		.ascii	"uint16_t\000"
 17407      31365F74 
 17407      00
 17408              	.LASF67:
 17409 08b8 63685F6C 		.ascii	"ch_list_t\000"
 17409      6973745F 
 17409      7400
 17410              	.LASF134:
 17411 08c2 41484232 		.ascii	"AHB2RSTR\000"
 17411      52535452 
 17411      00
 17412              	.LASF231:
 17413 08cb 5350495F 		.ascii	"SPI_UNINIT\000"
 17413      554E494E 
 17413      495400
 17414              	.LASF218:
 17415 08d6 6368616E 		.ascii	"channel\000"
 17415      6E656C00 
 17416              	.LASF257:
 17417 08de 53504944 		.ascii	"SPID1\000"
 17417      3100
 17418              	.LASF258:
 17419 08e4 53504944 		.ascii	"SPID2\000"
 17419      3200
 17420              	.LASF259:
 17421 08ea 53504944 		.ascii	"SPID3\000"
 17421      3300
 17422              	.LASF269:
 17423 08f0 6E766963 		.ascii	"nvicEnableVector\000"
 17423      456E6162 
 17423      6C655665 
 17423      63746F72 
 17423      00
 17424              	.LASF260:
 17425 0901 53504944 		.ascii	"SPID5\000"
 17425      3500
 17426              	.LASF261:
 17427 0907 53504944 		.ascii	"SPID6\000"
 17427      3600
 17428              	.LASF128:
 17429 090d 43494352 		.ascii	"CICR\000"
 17429      00
 17430              	.LASF103:
ARM GAS  C:\Users\DEVELO~1\AppData\Local\Temp\cc5EUJSb.s 			page 315


 17431 0912 48534943 		.ascii	"HSICFGR\000"
 17431      46475200 
 17432              	.LASF54:
 17433 091a 636F6E66 		.ascii	"config\000"
 17433      696700
 17434              	.LASF338:
 17435 0921 474E5520 		.ascii	"GNU C17 11.3.1 20220712 -mcpu=cortex-m7 -mthumb -mf"
 17435      43313720 
 17435      31312E33 
 17435      2E312032 
 17435      30323230 
 17436 0954 6C6F6174 		.ascii	"loat-abi=soft -march=armv7e-m -ggdb -O2 -fomit-fram"
 17436      2D616269 
 17436      3D736F66 
 17436      74202D6D 
 17436      61726368 
 17437 0987 652D706F 		.ascii	"e-pointer -falign-functions=16 -ffunction-sections "
 17437      696E7465 
 17437      72202D66 
 17437      616C6967 
 17437      6E2D6675 
 17438 09ba 2D666461 		.ascii	"-fdata-sections -fno-common\000"
 17438      74612D73 
 17438      65637469 
 17438      6F6E7320 
 17438      2D666E6F 
 17439              	.LASF291:
 17440 09d6 7370695F 		.ascii	"spi_lld_ignore\000"
 17440      6C6C645F 
 17440      69676E6F 
 17440      726500
 17441              	.LASF167:
 17442 09e5 52455345 		.ascii	"RESERVED0\000"
 17442      52564544 
 17442      3000
 17443              	.LASF107:
 17444 09ef 52455345 		.ascii	"RESERVED1\000"
 17444      52564544 
 17444      3100
 17445              	.LASF111:
 17446 09f9 52455345 		.ascii	"RESERVED2\000"
 17446      52564544 
 17446      3200
 17447              	.LASF120:
 17448 0a03 52455345 		.ascii	"RESERVED3\000"
 17448      52564544 
 17448      3300
 17449              	.LASF125:
 17450 0a0d 52455345 		.ascii	"RESERVED4\000"
 17450      52564544 
 17450      3400
 17451              	.LASF131:
 17452 0a17 52455345 		.ascii	"RESERVED6\000"
 17452      52564544 
 17452      3600
 17453              	.LASF7:
 17454 0a21 73686F72 		.ascii	"short int\000"
ARM GAS  C:\Users\DEVELO~1\AppData\Local\Temp\cc5EUJSb.s 			page 316


 17454      7420696E 
 17454      7400
 17455              	.LASF141:
 17456 0a2b 52455345 		.ascii	"RESERVED8\000"
 17456      52564544 
 17456      3800
 17457              	.LASF282:
 17458 0a35 7370695F 		.ascii	"spi_lld_polled_exchange\000"
 17458      6C6C645F 
 17458      706F6C6C 
 17458      65645F65 
 17458      78636861 
 17459              	.LASF158:
 17460 0a4d 41504233 		.ascii	"APB3LPENR\000"
 17460      4C50454E 
 17460      5200
 17461              	.LASF150:
 17462 0a57 41504231 		.ascii	"APB1HENR\000"
 17462      48454E52 
 17462      00
 17463              	.LASF176:
 17464 0a60 706F7274 		.ascii	"port_intctx\000"
 17464      5F696E74 
 17464      63747800 
 17465              	.LASF236:
 17466 0a6c 73706973 		.ascii	"spistate_t\000"
 17466      74617465 
 17466      5F7400
 17467              	.LASF170:
 17468 0a77 43524350 		.ascii	"CRCPOLY\000"
 17468      4F4C5900 
 17469              	.LASF165:
 17470 0a7f 43464731 		.ascii	"CFG1\000"
 17470      00
 17471              	.LASF166:
 17472 0a84 43464732 		.ascii	"CFG2\000"
 17472      00
 17473              	.LASF136:
 17474 0a89 41504233 		.ascii	"APB3RSTR\000"
 17474      52535452 
 17474      00
 17475              	.LASF22:
 17476 0a92 706F7274 		.ascii	"port_stkalign_t\000"
 17476      5F73746B 
 17476      616C6967 
 17476      6E5F7400 
 17477              	.LASF280:
 17478 0aa2 74786472 		.ascii	"txdrp16\000"
 17478      70313600 
 17479              	.LASF302:
 17480 0aaa 7072696F 		.ascii	"priority\000"
 17480      72697479 
 17480      00
 17481              	.LASF135:
 17482 0ab3 41484234 		.ascii	"AHB4RSTR\000"
 17482      52535452 
 17482      00
ARM GAS  C:\Users\DEVELO~1\AppData\Local\Temp\cc5EUJSb.s 			page 317


 17483              	.LASF173:
 17484 0abc 55445244 		.ascii	"UDRDR\000"
 17484      5200
 17485              	.LASF222:
 17486 0ac2 4F545950 		.ascii	"OTYPER\000"
 17486      455200
 17487              	.LASF336:
 17488 0ac9 5F5F7365 		.ascii	"__set_BASEPRI\000"
 17488      745F4241 
 17488      53455052 
 17488      4900
 17489              	.LASF201:
 17490 0ad7 63685F6F 		.ascii	"ch_os_instance_config\000"
 17490      735F696E 
 17490      7374616E 
 17490      63655F63 
 17490      6F6E6669 
 17491              	.LASF179:
 17492 0aed 646C6973 		.ascii	"dlist\000"
 17492      7400
 17493              	.LASF98:
 17494 0af3 434D3141 		.ascii	"CM1AR\000"
 17494      5200
 17495              	.LASF245:
 17496 0af9 7478736F 		.ascii	"txsource\000"
 17496      75726365 
 17496      00
 17497              	.LASF180:
 17498 0b02 6C617374 		.ascii	"lasttime\000"
 17498      74696D65 
 17498      00
 17499              	.LASF121:
 17500 0b0b 44314343 		.ascii	"D1CCIPR\000"
 17500      49505200 
 17501              	.LASF106:
 17502 0b13 43464752 		.ascii	"CFGR\000"
 17502      00
 17503              	.LASF49:
 17504 0b18 726C6973 		.ascii	"rlist\000"
 17504      7400
 17505              	.LASF312:
 17506 0b1e 7370695F 		.ascii	"spi_lld_resume\000"
 17506      6C6C645F 
 17506      72657375 
 17506      6D6500
 17507              	.LASF327:
 17508 0b2d 6F73616C 		.ascii	"osalSysUnlockFromISR\000"
 17508      53797355 
 17508      6E6C6F63 
 17508      6B46726F 
 17508      6D495352 
 17509              	.LASF250:
 17510 0b42 64617461 		.ascii	"data_cb\000"
 17510      5F636200 
 17511              	.LASF233:
 17512 0b4a 5350495F 		.ascii	"SPI_READY\000"
 17512      52454144 
ARM GAS  C:\Users\DEVELO~1\AppData\Local\Temp\cc5EUJSb.s 			page 318


 17512      5900
 17513              	.LASF266:
 17514 0b54 646D6153 		.ascii	"dmaStreamAllocI\000"
 17514      74726561 
 17514      6D416C6C 
 17514      6F634900 
 17515              	.LASF152:
 17516 0b64 41504234 		.ascii	"APB4ENR\000"
 17516      454E5200 
 17517              	.LASF5:
 17518 0b6c 5F5F7569 		.ascii	"__uint8_t\000"
 17518      6E74385F 
 17518      7400
 17519              	.LASF35:
 17520 0b76 6E616D65 		.ascii	"name\000"
 17520      00
 17521              	.LASF113:
 17522 0b7b 504C4C43 		.ascii	"PLLCFGR\000"
 17522      46475200 
 17523              	.LASF112:
 17524 0b83 504C4C43 		.ascii	"PLLCKSELR\000"
 17524      4B53454C 
 17524      5200
 17525              	.LASF93:
 17526 0b8d 4D314152 		.ascii	"M1AR\000"
 17526      00
 17527              	.LASF154:
 17528 0b92 41484233 		.ascii	"AHB3LPENR\000"
 17528      4C50454E 
 17528      5200
 17529              	.LASF305:
 17530 0b9c 7370695F 		.ascii	"spi_lld_serve_interrupt\000"
 17530      6C6C645F 
 17530      73657276 
 17530      655F696E 
 17530      74657272 
 17531              	.LASF26:
 17532 0bb4 74726566 		.ascii	"trefs_t\000"
 17532      735F7400 
 17533              	.LASF108:
 17534 0bbc 44314346 		.ascii	"D1CFGR\000"
 17534      475200
 17535              	.LASF272:
 17536 0bc3 5F5F7472 		.ascii	"__trace_isr_leave\000"
 17536      6163655F 
 17536      6973725F 
 17536      6C656176 
 17536      6500
 17537              	.LASF13:
 17538 0bd5 6C6F6E67 		.ascii	"long unsigned int\000"
 17538      20756E73 
 17538      69676E65 
 17538      6420696E 
 17538      7400
 17539              	.LASF200:
 17540 0be7 72656164 		.ascii	"ready_list_t\000"
 17540      795F6C69 
ARM GAS  C:\Users\DEVELO~1\AppData\Local\Temp\cc5EUJSb.s 			page 319


 17540      73745F74 
 17540      00
 17541              	.LASF84:
 17542 0bf4 72747374 		.ascii	"rtstamp\000"
 17542      616D7000 
 17543              	.LASF232:
 17544 0bfc 5350495F 		.ascii	"SPI_STOP\000"
 17544      53544F50 
 17544      00
 17545              	.LASF146:
 17546 0c05 41484232 		.ascii	"AHB2ENR\000"
 17546      454E5200 
 17547              	.LASF18:
 17548 0c0d 696E7433 		.ascii	"int32_t\000"
 17548      325F7400 
 17549              	.LASF60:
 17550 0c15 72666375 		.ascii	"rfcu_t\000"
 17550      5F7400
 17551              	.LASF184:
 17552 0c1c 71756575 		.ascii	"queue\000"
 17552      6500
 17553              	.LASF56:
 17554 0c22 74726163 		.ascii	"trace_buffer\000"
 17554      655F6275 
 17554      66666572 
 17554      00
 17555              	.LASF193:
 17556 0c2f 77747365 		.ascii	"wtsemp\000"
 17556      6D7000
 17557              	.LASF74:
 17558 0c36 63685F70 		.ascii	"ch_priority_queue\000"
 17558      72696F72 
 17558      6974795F 
 17558      71756575 
 17558      6500
 17559              	.LASF196:
 17560 0c48 63685F73 		.ascii	"ch_semaphore\000"
 17560      656D6170 
 17560      686F7265 
 17560      00
 17561              	.LASF114:
 17562 0c55 504C4C31 		.ascii	"PLL1DIVR\000"
 17562      44495652 
 17562      00
 17563              	.LASF268:
 17564 0c5e 646D6153 		.ascii	"dmaSetRequestSource\000"
 17564      65745265 
 17564      71756573 
 17564      74536F75 
 17564      72636500 
 17565              	.LASF71:
 17566 0c72 63685F71 		.ascii	"ch_queue\000"
 17566      75657565 
 17566      00
 17567              	.LASF207:
 17568 0c7b 6D757465 		.ascii	"mutex_t\000"
 17568      785F7400 
ARM GAS  C:\Users\DEVELO~1\AppData\Local\Temp\cc5EUJSb.s 			page 320


 17569              	.LASF83:
 17570 0c83 74797065 		.ascii	"type\000"
 17570      00
 17571              	.LASF332:
 17572 0c88 706F7274 		.ascii	"port_unlock_from_isr\000"
 17572      5F756E6C 
 17572      6F636B5F 
 17572      66726F6D 
 17572      5F697372 
 17573              	.LASF6:
 17574 0c9d 756E7369 		.ascii	"unsigned char\000"
 17574      676E6564 
 17574      20636861 
 17574      7200
 17575              	.LASF105:
 17576 0cab 43534943 		.ascii	"CSICFGR\000"
 17576      46475200 
 17577              	.LASF12:
 17578 0cb3 5F5F7569 		.ascii	"__uint32_t\000"
 17578      6E743332 
 17578      5F7400
 17579              	.LASF40:
 17580 0cbe 77616974 		.ascii	"waiting\000"
 17580      696E6700 
 17581              	.LASF182:
 17582 0cc6 76697274 		.ascii	"virtual_timers_list_t\000"
 17582      75616C5F 
 17582      74696D65 
 17582      72735F6C 
 17582      6973745F 
 17583              	.LASF242:
 17584 0cdc 7278646D 		.ascii	"rxdmamode\000"
 17584      616D6F64 
 17584      6500
 17585              	.LASF319:
 17586 0ce6 72636345 		.ascii	"rccEnableAPB2\000"
 17586      6E61626C 
 17586      65415042 
 17586      3200
 17587              	.LASF316:
 17588 0cf4 72636345 		.ascii	"rccEnableAPB4\000"
 17588      6E61626C 
 17588      65415042 
 17588      3400
 17589              	.LASF143:
 17590 0d02 52455345 		.ascii	"RESERVED11\000"
 17590      52564544 
 17590      313100
 17591              	.LASF153:
 17592 0d0d 52455345 		.ascii	"RESERVED12\000"
 17592      52564544 
 17592      313200
 17593              	.LASF163:
 17594 0d18 52455345 		.ascii	"RESERVED13\000"
 17594      52564544 
 17594      313300
 17595              	.LASF318:
ARM GAS  C:\Users\DEVELO~1\AppData\Local\Temp\cc5EUJSb.s 			page 321


 17596 0d23 72636344 		.ascii	"rccDisableAPB2\000"
 17596      69736162 
 17596      6C654150 
 17596      423200
 17597              	.LASF315:
 17598 0d32 72636344 		.ascii	"rccDisableAPB4\000"
 17598      69736162 
 17598      6C654150 
 17598      423400
 17599              	.LASF174:
 17600 0d41 49325343 		.ascii	"I2SCFGR\000"
 17600      46475200 
 17601              	.LASF55:
 17602 0d49 6D61696E 		.ascii	"mainthread\000"
 17602      74687265 
 17602      616400
 17603              	.LASF37:
 17604 0d54 73746174 		.ascii	"state\000"
 17604      6500
 17605              	.LASF195:
 17606 0d5a 65776D61 		.ascii	"ewmask\000"
 17606      736B00
 17607              	.LASF175:
 17608 0d61 5350495F 		.ascii	"SPI_TypeDef\000"
 17608      54797065 
 17608      44656600 
 17609              	.LASF263:
 17610 0d6d 63685379 		.ascii	"chSysHalt\000"
 17610      7348616C 
 17610      7400
 17611              	.LASF46:
 17612 0d77 6F735F69 		.ascii	"os_instance_t\000"
 17612      6E737461 
 17612      6E63655F 
 17612      7400
 17613              	.LASF20:
 17614 0d85 75696E74 		.ascii	"uint64_t\000"
 17614      36345F74 
 17614      00
 17615              	.LASF237:
 17616 0d8e 53504944 		.ascii	"SPIDriver\000"
 17616      72697665 
 17616      7200
 17617              	.LASF51:
 17618 0d98 7265676C 		.ascii	"reglist\000"
 17618      69737400 
 17619              	.LASF96:
 17620 0da0 43504152 		.ascii	"CPAR\000"
 17620      00
 17621              	.LASF124:
 17622 0da5 44334343 		.ascii	"D3CCIPR\000"
 17622      49505200 
 17623              	.LASF275:
 17624 0dad 6672616D 		.ascii	"frame\000"
 17624      6500
 17625              	.LASF204:
 17626 0db3 69646C65 		.ascii	"idlethread_base\000"
ARM GAS  C:\Users\DEVELO~1\AppData\Local\Temp\cc5EUJSb.s 			page 322


 17626      74687265 
 17626      61645F62 
 17626      61736500 
 17627              	.LASF322:
 17628 0dc3 72636345 		.ascii	"rccEnableAPB1L\000"
 17628      6E61626C 
 17628      65415042 
 17628      314C00
 17629              	.LASF3:
 17630 0dd2 7369676E 		.ascii	"signed char\000"
 17630      65642063 
 17630      68617200 
 17631              	.LASF287:
 17632 0dde 7370695F 		.ascii	"spi_lld_send\000"
 17632      6C6C645F 
 17632      73656E64 
 17632      00
 17633              	.LASF78:
 17634 0deb 64656C74 		.ascii	"delta\000"
 17634      6100
 17635              	.LASF97:
 17636 0df1 434D3041 		.ascii	"CM0AR\000"
 17636      5200
 17637              	.LASF339:
 17638 0df7 2E2E2F2E 		.ascii	"../../../os/hal/ports/STM32/LLD/SPIv3/hal_spi_v2_ll"
 17638      2E2F2E2E 
 17638      2F6F732F 
 17638      68616C2F 
 17638      706F7274 
 17639 0e2a 642E6300 		.ascii	"d.c\000"
 17640              	.LASF9:
 17641 0e2e 73686F72 		.ascii	"short unsigned int\000"
 17641      7420756E 
 17641      7369676E 
 17641      65642069 
 17641      6E7400
 17642              	.LASF23:
 17643 0e41 73746B61 		.ascii	"stkalign_t\000"
 17643      6C69676E 
 17643      5F7400
 17644              	.LASF100:
 17645 0e4c 49464352 		.ascii	"IFCR\000"
 17645      00
 17646              	.LASF239:
 17647 0e51 73796E63 		.ascii	"sync_transfer\000"
 17647      5F747261 
 17647      6E736665 
 17647      7200
 17648              	.LASF199:
 17649 0e5f 63757272 		.ascii	"current\000"
 17649      656E7400 
 17650              	.LASF289:
 17651 0e67 5F5F6675 		.ascii	"__func__\000"
 17651      6E635F5F 
 17651      00
 17652              	.LASF293:
 17653 0e70 7370695F 		.ascii	"spi_lld_stop\000"
ARM GAS  C:\Users\DEVELO~1\AppData\Local\Temp\cc5EUJSb.s 			page 323


 17653      6C6C645F 
 17653      73746F70 
 17653      00
 17654              	.LASF326:
 17655 0e7d 6F73616C 		.ascii	"osalThreadResumeI\000"
 17655      54687265 
 17655      61645265 
 17655      73756D65 
 17655      4900
 17656              	.LASF334:
 17657 0e8f 706F7274 		.ascii	"port_unlock\000"
 17657      5F756E6C 
 17657      6F636B00 
 17658              	.LASF254:
 17659 0e9b 63666731 		.ascii	"cfg1\000"
 17659      00
 17660              	.LASF255:
 17661 0ea0 63666732 		.ascii	"cfg2\000"
 17661      00
 17662              	.LASF241:
 17663 0ea5 69735F62 		.ascii	"is_bdma\000"
 17663      646D6100 
 17664              	.LASF147:
 17665 0ead 41484234 		.ascii	"AHB4ENR\000"
 17665      454E5200 
 17666              	.LASF129:
 17667 0eb5 52455345 		.ascii	"RESERVED5\000"
 17667      52564544 
 17667      3500
 17668              	.LASF273:
 17669 0ebf 5F5F7472 		.ascii	"__trace_isr_enter\000"
 17669      6163655F 
 17669      6973725F 
 17669      656E7465 
 17669      7200
 17670              	.LASF301:
 17671 0ed1 74787374 		.ascii	"txstream\000"
 17671      7265616D 
 17671      00
 17672              	.LASF219:
 17673 0eda 73746D33 		.ascii	"stm32_bdma_stream_t\000"
 17673      325F6264 
 17673      6D615F73 
 17673      74726561 
 17673      6D5F7400 
 17674              	.LASF160:
 17675 0eee 41504231 		.ascii	"APB1HLPENR\000"
 17675      484C5045 
 17675      4E5200
 17676              	.LASF191:
 17677 0ef9 77747472 		.ascii	"wttrp\000"
 17677      7000
 17678              	.LASF279:
 17679 0eff 72786472 		.ascii	"rxdrp8\000"
 17679      703800
 17680              	.LASF244:
 17681 0f06 72787369 		.ascii	"rxsink\000"
ARM GAS  C:\Users\DEVELO~1\AppData\Local\Temp\cc5EUJSb.s 			page 324


 17681      6E6B00
 17682              	.LASF235:
 17683 0f0d 5350495F 		.ascii	"SPI_COMPLETE\000"
 17683      434F4D50 
 17683      4C455445 
 17683      00
 17684              	.LASF190:
 17685 0f1a 65786974 		.ascii	"exitcode\000"
 17685      636F6465 
 17685      00
 17686              	.LASF213:
 17687 0f23 73656C66 		.ascii	"selfindex\000"
 17687      696E6465 
 17687      7800
 17688              	.LASF306:
 17689 0f2d 7370695F 		.ascii	"spi_lld_serve_dma_tx_interrupt\000"
 17689      6C6C645F 
 17689      73657276 
 17689      655F646D 
 17689      615F7478 
 17690              	.LASF274:
 17691 0f4c 73706970 		.ascii	"spip\000"
 17691      00
 17692              	.LASF31:
 17693 0f51 636F7265 		.ascii	"core_id_t\000"
 17693      5F69645F 
 17693      7400
 17694              	.LASF286:
 17695 0f5b 72786275 		.ascii	"rxbuf\000"
 17695      6600
 17696              	.LASF45:
 17697 0f61 6D706F6F 		.ascii	"mpool\000"
 17697      6C00
 17698              	.LASF253:
 17699 0f67 73737061 		.ascii	"sspad\000"
 17699      6400
 17700              		.ident	"GCC: (Arm GNU Toolchain 11.3.Rel1) 11.3.1 20220712"
ARM GAS  C:\Users\DEVELO~1\AppData\Local\Temp\cc5EUJSb.s 			page 325


DEFINED SYMBOLS
                            *ABS*:00000000 hal_spi_v2_lld.c
C:\Users\DEVELO~1\AppData\Local\Temp\cc5EUJSb.s:18     .text.spi_lld_configure.isra.0:00000000 $t
C:\Users\DEVELO~1\AppData\Local\Temp\cc5EUJSb.s:24     .text.spi_lld_configure.isra.0:00000000 spi_lld_configure.isra.0
C:\Users\DEVELO~1\AppData\Local\Temp\cc5EUJSb.s:112    .text.spi_lld_configure.isra.0:0000004c $d
C:\Users\DEVELO~1\AppData\Local\Temp\cc5EUJSb.s:118    .text.spi_lld_stop_abort:00000000 $t
C:\Users\DEVELO~1\AppData\Local\Temp\cc5EUJSb.s:124    .text.spi_lld_stop_abort:00000000 spi_lld_stop_abort
C:\Users\DEVELO~1\AppData\Local\Temp\cc5EUJSb.s:549    .text.spi_lld_stop_abort:00000154 $d
C:\Users\DEVELO~1\AppData\Local\Temp\cc5EUJSb.s:559    .text.spi_lld_stop_nicely:00000000 $t
C:\Users\DEVELO~1\AppData\Local\Temp\cc5EUJSb.s:565    .text.spi_lld_stop_nicely:00000000 spi_lld_stop_nicely
C:\Users\DEVELO~1\AppData\Local\Temp\cc5EUJSb.s:743    .rodata.spi_lld_serve_dma_tx_interrupt.part.0.str1.4:00000000 $d
C:\Users\DEVELO~1\AppData\Local\Temp\cc5EUJSb.s:747    .text.spi_lld_serve_dma_tx_interrupt.part.0:00000000 $t
C:\Users\DEVELO~1\AppData\Local\Temp\cc5EUJSb.s:753    .text.spi_lld_serve_dma_tx_interrupt.part.0:00000000 spi_lld_serve_dma_tx_interrupt.part.0
C:\Users\DEVELO~1\AppData\Local\Temp\cc5EUJSb.s:905    .text.spi_lld_serve_dma_tx_interrupt.part.0:00000034 $d
C:\Users\DEVELO~1\AppData\Local\Temp\cc5EUJSb.s:753    .text.spi_lld_serve_dma_tx_interrupt.part.0:00000000 spi_lld_serve_bdma_tx_interrupt.part.0
C:\Users\DEVELO~1\AppData\Local\Temp\cc5EUJSb.s:911    .text.spi_lld_serve_bdma_tx_interrupt:00000000 $t
C:\Users\DEVELO~1\AppData\Local\Temp\cc5EUJSb.s:917    .text.spi_lld_serve_bdma_tx_interrupt:00000000 spi_lld_serve_bdma_tx_interrupt
C:\Users\DEVELO~1\AppData\Local\Temp\cc5EUJSb.s:939    .text.spi_lld_serve_dma_tx_interrupt:00000000 $t
C:\Users\DEVELO~1\AppData\Local\Temp\cc5EUJSb.s:945    .text.spi_lld_serve_dma_tx_interrupt:00000000 spi_lld_serve_dma_tx_interrupt
C:\Users\DEVELO~1\AppData\Local\Temp\cc5EUJSb.s:967    .text.spi_lld_serve_dma_rx_interrupt:00000000 $t
C:\Users\DEVELO~1\AppData\Local\Temp\cc5EUJSb.s:973    .text.spi_lld_serve_dma_rx_interrupt:00000000 spi_lld_serve_dma_rx_interrupt
C:\Users\DEVELO~1\AppData\Local\Temp\cc5EUJSb.s:1304   .text.spi_lld_serve_dma_rx_interrupt:000000a4 $d
C:\Users\DEVELO~1\AppData\Local\Temp\cc5EUJSb.s:1309   .text.spi_lld_serve_bdma_rx_interrupt:00000000 $t
C:\Users\DEVELO~1\AppData\Local\Temp\cc5EUJSb.s:1315   .text.spi_lld_serve_bdma_rx_interrupt:00000000 spi_lld_serve_bdma_rx_interrupt
C:\Users\DEVELO~1\AppData\Local\Temp\cc5EUJSb.s:1648   .text.spi_lld_serve_bdma_rx_interrupt:000000a4 $d
C:\Users\DEVELO~1\AppData\Local\Temp\cc5EUJSb.s:1653   .text.VectorCC:00000000 $t
C:\Users\DEVELO~1\AppData\Local\Temp\cc5EUJSb.s:1660   .text.VectorCC:00000000 VectorCC
C:\Users\DEVELO~1\AppData\Local\Temp\cc5EUJSb.s:1876   .text.VectorCC:0000005c $d
C:\Users\DEVELO~1\AppData\Local\Temp\cc5EUJSb.s:1883   .text.VectorD0:00000000 $t
C:\Users\DEVELO~1\AppData\Local\Temp\cc5EUJSb.s:1890   .text.VectorD0:00000000 VectorD0
C:\Users\DEVELO~1\AppData\Local\Temp\cc5EUJSb.s:2106   .text.VectorD0:0000005c $d
C:\Users\DEVELO~1\AppData\Local\Temp\cc5EUJSb.s:2113   .text.Vector10C:00000000 $t
C:\Users\DEVELO~1\AppData\Local\Temp\cc5EUJSb.s:2120   .text.Vector10C:00000000 Vector10C
C:\Users\DEVELO~1\AppData\Local\Temp\cc5EUJSb.s:2336   .text.Vector10C:0000005c $d
C:\Users\DEVELO~1\AppData\Local\Temp\cc5EUJSb.s:2343   .text.Vector194:00000000 $t
C:\Users\DEVELO~1\AppData\Local\Temp\cc5EUJSb.s:2350   .text.Vector194:00000000 Vector194
C:\Users\DEVELO~1\AppData\Local\Temp\cc5EUJSb.s:2566   .text.Vector194:0000005c $d
C:\Users\DEVELO~1\AppData\Local\Temp\cc5EUJSb.s:2573   .text.Vector198:00000000 $t
C:\Users\DEVELO~1\AppData\Local\Temp\cc5EUJSb.s:2580   .text.Vector198:00000000 Vector198
C:\Users\DEVELO~1\AppData\Local\Temp\cc5EUJSb.s:2796   .text.Vector198:0000005c $d
C:\Users\DEVELO~1\AppData\Local\Temp\cc5EUJSb.s:2803   .text.spi_lld_init:00000000 $t
C:\Users\DEVELO~1\AppData\Local\Temp\cc5EUJSb.s:2810   .text.spi_lld_init:00000000 spi_lld_init
C:\Users\DEVELO~1\AppData\Local\Temp\cc5EUJSb.s:3002   .text.spi_lld_init:000000bc $d
C:\Users\DEVELO~1\AppData\Local\Temp\cc5EUJSb.s:3018   .text.spi_lld_start:00000000 $t
C:\Users\DEVELO~1\AppData\Local\Temp\cc5EUJSb.s:3025   .text.spi_lld_start:00000000 spi_lld_start
C:\Users\DEVELO~1\AppData\Local\Temp\cc5EUJSb.s:3864   .text.spi_lld_start:00000378 $d
C:\Users\DEVELO~1\AppData\Local\Temp\cc5EUJSb.s:3879   .text.spi_lld_start:000003a0 $t
C:\Users\DEVELO~1\AppData\Local\Temp\cc5EUJSb.s:3900   .text.spi_lld_stop:00000000 $t
C:\Users\DEVELO~1\AppData\Local\Temp\cc5EUJSb.s:3907   .text.spi_lld_stop:00000000 spi_lld_stop
C:\Users\DEVELO~1\AppData\Local\Temp\cc5EUJSb.s:4110   .text.spi_lld_stop:000000ec $d
C:\Users\DEVELO~1\AppData\Local\Temp\cc5EUJSb.s:4120   .text.spi_lld_ignore:00000000 $t
C:\Users\DEVELO~1\AppData\Local\Temp\cc5EUJSb.s:4127   .text.spi_lld_ignore:00000000 spi_lld_ignore
C:\Users\DEVELO~1\AppData\Local\Temp\cc5EUJSb.s:4258   .text.spi_lld_exchange:00000000 $t
C:\Users\DEVELO~1\AppData\Local\Temp\cc5EUJSb.s:4265   .text.spi_lld_exchange:00000000 spi_lld_exchange
C:\Users\DEVELO~1\AppData\Local\Temp\cc5EUJSb.s:4415   .text.spi_lld_send:00000000 $t
C:\Users\DEVELO~1\AppData\Local\Temp\cc5EUJSb.s:4422   .text.spi_lld_send:00000000 spi_lld_send
C:\Users\DEVELO~1\AppData\Local\Temp\cc5EUJSb.s:4569   .text.spi_lld_receive:00000000 $t
ARM GAS  C:\Users\DEVELO~1\AppData\Local\Temp\cc5EUJSb.s 			page 326


C:\Users\DEVELO~1\AppData\Local\Temp\cc5EUJSb.s:4576   .text.spi_lld_receive:00000000 spi_lld_receive
C:\Users\DEVELO~1\AppData\Local\Temp\cc5EUJSb.s:4722   .text.spi_lld_stop_transfer:00000000 $t
C:\Users\DEVELO~1\AppData\Local\Temp\cc5EUJSb.s:4729   .text.spi_lld_stop_transfer:00000000 spi_lld_stop_transfer
C:\Users\DEVELO~1\AppData\Local\Temp\cc5EUJSb.s:4785   .text.spi_lld_polled_exchange:00000000 $t
C:\Users\DEVELO~1\AppData\Local\Temp\cc5EUJSb.s:4792   .text.spi_lld_polled_exchange:00000000 spi_lld_polled_exchange
C:\Users\DEVELO~1\AppData\Local\Temp\cc5EUJSb.s:5052   .bss.SPID6:00000000 SPID6
C:\Users\DEVELO~1\AppData\Local\Temp\cc5EUJSb.s:5045   .bss.SPID5:00000000 SPID5
C:\Users\DEVELO~1\AppData\Local\Temp\cc5EUJSb.s:5038   .bss.SPID3:00000000 SPID3
C:\Users\DEVELO~1\AppData\Local\Temp\cc5EUJSb.s:5031   .bss.SPID2:00000000 SPID2
C:\Users\DEVELO~1\AppData\Local\Temp\cc5EUJSb.s:5024   .bss.SPID1:00000000 SPID1
C:\Users\DEVELO~1\AppData\Local\Temp\cc5EUJSb.s:5020   .bss.SPID1:00000000 $d
C:\Users\DEVELO~1\AppData\Local\Temp\cc5EUJSb.s:5027   .bss.SPID2:00000000 $d
C:\Users\DEVELO~1\AppData\Local\Temp\cc5EUJSb.s:5034   .bss.SPID3:00000000 $d
C:\Users\DEVELO~1\AppData\Local\Temp\cc5EUJSb.s:5041   .bss.SPID5:00000000 $d
C:\Users\DEVELO~1\AppData\Local\Temp\cc5EUJSb.s:5048   .bss.SPID6:00000000 $d
C:\Users\DEVELO~1\AppData\Local\Temp\cc5EUJSb.s:5055   .rodata.__func__.0:00000000 $d
C:\Users\DEVELO~1\AppData\Local\Temp\cc5EUJSb.s:5059   .rodata.__func__.0:00000000 __func__.0
C:\Users\DEVELO~1\AppData\Local\Temp\cc5EUJSb.s:5062   .rodata.__func__.1:00000000 $d
C:\Users\DEVELO~1\AppData\Local\Temp\cc5EUJSb.s:5066   .rodata.__func__.1:00000000 __func__.1
C:\Users\DEVELO~1\AppData\Local\Temp\cc5EUJSb.s:5069   .rodata.__func__.2:00000000 $d
C:\Users\DEVELO~1\AppData\Local\Temp\cc5EUJSb.s:5073   .rodata.__func__.2:00000000 __func__.2
C:\Users\DEVELO~1\AppData\Local\Temp\cc5EUJSb.s:5076   .rodata.__func__.3:00000000 $d
C:\Users\DEVELO~1\AppData\Local\Temp\cc5EUJSb.s:5080   .rodata.__func__.3:00000000 __func__.3
C:\Users\DEVELO~1\AppData\Local\Temp\cc5EUJSb.s:5083   .rodata.__func__.4:00000000 $d
C:\Users\DEVELO~1\AppData\Local\Temp\cc5EUJSb.s:5087   .rodata.__func__.4:00000000 __func__.4

UNDEFINED SYMBOLS
chSysHalt
chThdResumeI
__trace_isr_enter
__trace_isr_leave
__port_irq_epilogue
spiObjectInit
nvicEnableVector
bdmaStreamAllocI
bdmaSetRequestSource
dmaStreamAllocI
dmaSetRequestSource
bdmaStreamFreeI
dmaStreamFreeI
