ARM GAS  C:\Users\DEVELO~1\AppData\Local\Temp\cc5EUJSb.s 			page 1


   1              		.cpu cortex-m7
   2              		.arch armv7e-m
   3              		.fpu softvfp
   4              		.eabi_attribute 20, 1
   5              		.eabi_attribute 21, 1
   6              		.eabi_attribute 23, 3
   7              		.eabi_attribute 24, 1
   8              		.eabi_attribute 25, 1
   9              		.eabi_attribute 26, 1
  10              		.eabi_attribute 30, 2
  11              		.eabi_attribute 34, 1
  12              		.eabi_attribute 18, 4
  13              		.file	"hal_spi_v2_lld.c"
  14              		.text
  15              	.Ltext0:
  16              		.cfi_sections	.debug_frame
  17              		.section	.text.spi_lld_configure.isra.0,"ax",%progbits
  18              		.align	1
  19              		.p2align 4,,15
  20              		.syntax unified
  21              		.thumb
  22              		.thumb_func
  23              		.type	spi_lld_configure.isra.0, %function
  24              	spi_lld_configure.isra.0:
  25              	.LFB462:
  26              		.file 1 "../../../os/hal/ports/STM32/LLD/SPIv3/hal_spi_v2_lld.c"
  27              		.loc 1 99 13 view -0
  28              		.cfi_startproc
  29              		@ args = 0, pretend = 0, frame = 0
  30              		@ frame_needed = 0, uses_anonymous_args = 0
  31              		@ link register save eliminated.
  32              	.LVL0:
  33              		.loc 1 102 3 view .LVU1
  34              		.loc 1 102 19 is_stmt 0 view .LVU2
  35 0000 0022     		movs	r2, #0
  36              		.loc 1 107 38 view .LVU3
  37 0002 124B     		ldr	r3, .L6
  38              		.loc 1 102 19 view .LVU4
  39 0004 0A60     		str	r2, [r1]
  40              		.loc 1 103 3 is_stmt 1 view .LVU5
  41              		.loc 1 103 19 is_stmt 0 view .LVU6
  42 0006 4A60     		str	r2, [r1, #4]
  43              		.loc 1 104 3 is_stmt 1 view .LVU7
  44              		.loc 1 107 38 is_stmt 0 view .LVU8
  45 0008 4269     		ldr	r2, [r0, #20]
  46              		.loc 1 99 13 view .LVU9
  47 000a 10B4     		push	{r4}
  48              		.cfi_def_cfa_offset 4
  49              		.cfi_offset 4, -4
  50              		.loc 1 107 38 view .LVU10
  51 000c 1340     		ands	r3, r3, r2
  52              		.loc 1 104 19 view .LVU11
  53 000e 4024     		movs	r4, #64
  54              		.loc 1 108 6 view .LVU12
  55 0010 4278     		ldrb	r2, [r0, #1]	@ zero_extendqisi2
  56              		.loc 1 104 19 view .LVU13
  57 0012 0C61     		str	r4, [r1, #16]
ARM GAS  C:\Users\DEVELO~1\AppData\Local\Temp\cc5EUJSb.s 			page 2


  58              		.loc 1 105 3 is_stmt 1 view .LVU14
  59              		.loc 1 107 38 is_stmt 0 view .LVU15
  60 0014 43F44043 		orr	r3, r3, #49152
  61              		.loc 1 105 19 view .LVU16
  62 0018 4FF0FF34 		mov	r4, #-1
  63 001c 8C61     		str	r4, [r1, #24]
  64              		.loc 1 106 3 is_stmt 1 view .LVU17
  65              		.loc 1 106 19 is_stmt 0 view .LVU18
  66 001e 8B60     		str	r3, [r1, #8]
  67              		.loc 1 108 3 is_stmt 1 view .LVU19
  68              		.loc 1 108 6 is_stmt 0 view .LVU20
  69 0020 42B1     		cbz	r2, .L2
  70              		.loc 1 109 5 is_stmt 1 view .LVU21
  71              		.loc 1 109 42 is_stmt 0 view .LVU22
  72 0022 8369     		ldr	r3, [r0, #24]
  73              		.loc 1 116 1 view .LVU23
  74 0024 10BC     		pop	{r4}
  75              		.cfi_remember_state
  76              		.cfi_restore 4
  77              		.cfi_def_cfa_offset 0
  78              		.loc 1 109 42 view .LVU24
  79 0026 23F4C023 		bic	r3, r3, #393216
  80              		.loc 1 109 21 view .LVU25
  81 002a CB60     		str	r3, [r1, #12]
  82              		.loc 1 115 3 is_stmt 1 view .LVU26
  83              		.loc 1 115 19 is_stmt 0 view .LVU27
  84 002c 40F20113 		movw	r3, #257
  85 0030 0B60     		str	r3, [r1]
  86              		.loc 1 116 1 view .LVU28
  87 0032 7047     		bx	lr
  88              	.L2:
  89              		.cfi_restore_state
  90              		.loc 1 112 5 is_stmt 1 view .LVU29
  91              		.loc 1 112 78 is_stmt 0 view .LVU30
  92 0034 8269     		ldr	r2, [r0, #24]
  93 0036 064B     		ldr	r3, .L6+4
  94              		.loc 1 116 1 view .LVU31
  95 0038 10BC     		pop	{r4}
  96              		.cfi_restore 4
  97              		.cfi_def_cfa_offset 0
  98              		.loc 1 112 78 view .LVU32
  99 003a 1340     		ands	r3, r3, r2
 100 003c 43F00153 		orr	r3, r3, #541065216
 101              		.loc 1 112 21 view .LVU33
 102 0040 CB60     		str	r3, [r1, #12]
 103              		.loc 1 115 3 is_stmt 1 view .LVU34
 104              		.loc 1 115 19 is_stmt 0 view .LVU35
 105 0042 40F20113 		movw	r3, #257
 106 0046 0B60     		str	r3, [r1]
 107              		.loc 1 116 1 view .LVU36
 108 0048 7047     		bx	lr
 109              	.L7:
 110 004a 00BF     		.align	2
 111              	.L6:
 112 004c 1F3EFFFF 		.word	-49633
 113 0050 FFFFB9DF 		.word	-541458433
 114              		.cfi_endproc
ARM GAS  C:\Users\DEVELO~1\AppData\Local\Temp\cc5EUJSb.s 			page 3


 115              	.LFE462:
 116              		.size	spi_lld_configure.isra.0, .-spi_lld_configure.isra.0
 117              		.section	.text.spi_lld_stop_abort,"ax",%progbits
 118              		.align	1
 119              		.p2align 4,,15
 120              		.syntax unified
 121              		.thumb
 122              		.thumb_func
 123              		.type	spi_lld_stop_abort, %function
 124              	spi_lld_stop_abort:
 125              	.LVL1:
 126              	.LFB435:
 127              		.loc 1 138 49 is_stmt 1 view -0
 128              		.cfi_startproc
 129              		@ args = 0, pretend = 0, frame = 0
 130              		@ frame_needed = 0, uses_anonymous_args = 0
 131              		@ link register save eliminated.
 132              		.loc 1 142 3 view .LVU38
 133              		.loc 1 142 6 is_stmt 0 view .LVU39
 134 0000 90F82030 		ldrb	r3, [r0, #32]	@ zero_extendqisi2
 135              		.loc 1 138 49 view .LVU40
 136 0004 10B4     		push	{r4}
 137              		.cfi_def_cfa_offset 4
 138              		.cfi_offset 4, -4
 139              		.loc 1 142 6 view .LVU41
 140 0006 002B     		cmp	r3, #0
 141 0008 34D0     		beq	.L9
 142              		.loc 1 146 5 is_stmt 1 view .LVU42
 143 000a 836A     		ldr	r3, [r0, #40]
 144 000c D3E90041 		ldrd	r4, r1, [r3]
 145 0010 0A68     		ldr	r2, [r1]
 146 0012 22F00F02 		bic	r2, r2, #15
 147 0016 0A60     		str	r2, [r1]
 148              		.loc 1 146 5 view .LVU43
 149 0018 197A     		ldrb	r1, [r3, #8]	@ zero_extendqisi2
 150 001a 0E23     		movs	r3, #14
 151              		.loc 1 147 5 is_stmt 0 view .LVU44
 152 001c 426A     		ldr	r2, [r0, #36]
 153              		.loc 1 146 5 view .LVU45
 154 001e 03FA01F1 		lsl	r1, r3, r1
 155 0022 6160     		str	r1, [r4, #4]
 156              		.loc 1 146 5 is_stmt 1 view .LVU46
 157              		.loc 1 146 37 view .LVU47
 158              		.loc 1 147 5 view .LVU48
 159 0024 5468     		ldr	r4, [r2, #4]
 160 0026 2168     		ldr	r1, [r4]
 161 0028 21F00F01 		bic	r1, r1, #15
 162 002c 2160     		str	r1, [r4]
 163              		.loc 1 147 5 view .LVU49
 164 002e 117A     		ldrb	r1, [r2, #8]	@ zero_extendqisi2
 165 0030 1268     		ldr	r2, [r2]
 166 0032 8B40     		lsls	r3, r3, r1
 167 0034 5360     		str	r3, [r2, #4]
 168              		.loc 1 147 5 view .LVU50
 169              		.loc 1 147 37 view .LVU51
 170              		.loc 1 156 5 view .LVU52
 171              		.loc 1 156 35 view .LVU53
ARM GAS  C:\Users\DEVELO~1\AppData\Local\Temp\cc5EUJSb.s 			page 4


 172              		.loc 1 162 3 view .LVU54
 173              		.loc 1 166 8 view .LVU55
 174              		.loc 1 166 11 is_stmt 0 view .LVU56
 175 0036 474B     		ldr	r3, .L25
 176 0038 9842     		cmp	r0, r3
 177 003a 3AD0     		beq	.L21
 178              	.L13:
 179              		.loc 1 172 8 is_stmt 1 view .LVU57
 180              		.loc 1 172 11 is_stmt 0 view .LVU58
 181 003c 464B     		ldr	r3, .L25+4
 182 003e 9842     		cmp	r0, r3
 183 0040 4BD0     		beq	.L22
 184              		.loc 1 178 8 is_stmt 1 view .LVU59
 185              		.loc 1 178 11 is_stmt 0 view .LVU60
 186 0042 464B     		ldr	r3, .L25+8
 187 0044 9842     		cmp	r0, r3
 188 0046 5CD0     		beq	.L23
 189              		.loc 1 190 8 is_stmt 1 view .LVU61
 190              		.loc 1 190 11 is_stmt 0 view .LVU62
 191 0048 454B     		ldr	r3, .L25+12
 192 004a 9842     		cmp	r0, r3
 193 004c 6DD0     		beq	.L24
 194              		.loc 1 196 8 is_stmt 1 view .LVU63
 195              		.loc 1 196 11 is_stmt 0 view .LVU64
 196 004e 454B     		ldr	r3, .L25+16
 197 0050 9842     		cmp	r0, r3
 198 0052 51D1     		bne	.L14
 199              		.loc 1 197 5 is_stmt 1 view .LVU65
 200              	.LVL2:
 201              	.LBB271:
 202              	.LBI271:
 203              		.file 2 "../../../os/hal/ports/STM32/STM32H7xx/stm32_rcc.h"
 204              		.loc 2 563 22 view .LVU66
 205              	.LBB272:
 206              		.loc 2 575 3 view .LVU67
 207              	.LBB273:
 208              	.LBI273:
 209              		.loc 2 89 22 view .LVU68
 210              	.LBB274:
 211              		.loc 2 92 3 view .LVU69
 212              		.loc 2 92 17 is_stmt 0 view .LVU70
 213 0054 444B     		ldr	r3, .L25+20
 214 0056 D3F89C20 		ldr	r2, [r3, #156]
 215 005a 42F02002 		orr	r2, r2, #32
 216 005e C3F89C20 		str	r2, [r3, #156]
 217              		.loc 2 93 3 is_stmt 1 view .LVU71
 218              		.loc 2 93 17 is_stmt 0 view .LVU72
 219 0062 D3F89C20 		ldr	r2, [r3, #156]
 220 0066 22F02002 		bic	r2, r2, #32
 221 006a C3F89C20 		str	r2, [r3, #156]
 222              		.loc 2 94 3 is_stmt 1 view .LVU73
 223 006e D3F89C30 		ldr	r3, [r3, #156]
 224              	.LVL3:
 225              		.loc 2 94 3 is_stmt 0 view .LVU74
 226              	.LBE274:
 227              	.LBE273:
 228              		.loc 2 576 1 view .LVU75
ARM GAS  C:\Users\DEVELO~1\AppData\Local\Temp\cc5EUJSb.s 			page 5


 229 0072 41E0     		b	.L14
 230              	.LVL4:
 231              	.L9:
 232              		.loc 2 576 1 view .LVU76
 233              	.LBE272:
 234              	.LBE271:
 235              		.loc 1 155 5 is_stmt 1 view .LVU77
 236 0074 846A     		ldr	r4, [r0, #40]
 237 0076 2268     		ldr	r2, [r4]
 238 0078 1368     		ldr	r3, [r2]
 239 007a 23F01F03 		bic	r3, r3, #31
 240 007e 1360     		str	r3, [r2]
 241              		.loc 1 155 5 view .LVU78
 242              	.L11:
 243              		.loc 1 155 5 discriminator 2 view .LVU79
 244 0080 1368     		ldr	r3, [r2]
 245 0082 D907     		lsls	r1, r3, #31
 246 0084 FCD4     		bmi	.L11
 247              		.loc 1 155 5 discriminator 3 view .LVU80
 248 0086 227B     		ldrb	r2, [r4, #12]	@ zero_extendqisi2
 249 0088 3D23     		movs	r3, #61
 250              		.loc 1 156 5 is_stmt 0 discriminator 3 view .LVU81
 251 008a 416A     		ldr	r1, [r0, #36]
 252              		.loc 1 155 5 discriminator 3 view .LVU82
 253 008c 9340     		lsls	r3, r3, r2
 254 008e 6468     		ldr	r4, [r4, #4]
 255              		.loc 1 156 5 discriminator 3 view .LVU83
 256 0090 0A68     		ldr	r2, [r1]
 257              		.loc 1 155 5 discriminator 3 view .LVU84
 258 0092 2360     		str	r3, [r4]
 259              		.loc 1 155 5 is_stmt 1 discriminator 3 view .LVU85
 260              		.loc 1 155 35 discriminator 3 view .LVU86
 261              		.loc 1 156 5 discriminator 3 view .LVU87
 262 0094 1368     		ldr	r3, [r2]
 263 0096 23F01F03 		bic	r3, r3, #31
 264 009a 1360     		str	r3, [r2]
 265              		.loc 1 156 5 discriminator 3 view .LVU88
 266              	.L12:
 267              		.loc 1 156 5 discriminator 2 view .LVU89
 268 009c 1368     		ldr	r3, [r2]
 269 009e DB07     		lsls	r3, r3, #31
 270 00a0 FCD4     		bmi	.L12
 271              		.loc 1 156 5 discriminator 3 view .LVU90
 272 00a2 0C7B     		ldrb	r4, [r1, #12]	@ zero_extendqisi2
 273 00a4 3D23     		movs	r3, #61
 274 00a6 4A68     		ldr	r2, [r1, #4]
 275 00a8 A340     		lsls	r3, r3, r4
 276 00aa 1360     		str	r3, [r2]
 277              		.loc 1 156 5 discriminator 3 view .LVU91
 278              		.loc 1 156 35 discriminator 3 view .LVU92
 279              		.loc 1 162 3 discriminator 3 view .LVU93
 280              		.loc 1 166 8 discriminator 3 view .LVU94
 281              		.loc 1 166 11 is_stmt 0 discriminator 3 view .LVU95
 282 00ac 294B     		ldr	r3, .L25
 283 00ae 9842     		cmp	r0, r3
 284 00b0 C4D1     		bne	.L13
 285              	.L21:
ARM GAS  C:\Users\DEVELO~1\AppData\Local\Temp\cc5EUJSb.s 			page 6


 286              		.loc 1 167 5 is_stmt 1 view .LVU96
 287              	.LVL5:
 288              	.LBB275:
 289              	.LBI275:
 290              		.loc 2 385 22 view .LVU97
 291              	.LBB276:
 292              		.loc 2 397 3 view .LVU98
 293              	.LBB277:
 294              	.LBI277:
 295              		.loc 2 73 22 view .LVU99
 296              	.LBB278:
 297              		.loc 2 76 3 view .LVU100
 298              		.loc 2 76 17 is_stmt 0 view .LVU101
 299 00b2 2D4B     		ldr	r3, .L25+20
 300              	.LBE278:
 301              	.LBE277:
 302              	.LBE276:
 303              	.LBE275:
 304              		.loc 1 206 3 view .LVU102
 305 00b4 C169     		ldr	r1, [r0, #28]
 306              	.LBB288:
 307              	.LBB285:
 308              	.LBB282:
 309              	.LBB279:
 310              		.loc 2 76 17 view .LVU103
 311 00b6 D3F89820 		ldr	r2, [r3, #152]
 312              	.LBE279:
 313              	.LBE282:
 314              	.LBE285:
 315              	.LBE288:
 316              		.loc 1 206 3 view .LVU104
 317 00ba 4068     		ldr	r0, [r0, #4]
 318              	.LVL6:
 319              	.LBB289:
 320              	.LBB286:
 321              	.LBB283:
 322              	.LBB280:
 323              		.loc 2 76 17 view .LVU105
 324 00bc 42F48052 		orr	r2, r2, #4096
 325              	.LBE280:
 326              	.LBE283:
 327              	.LBE286:
 328              	.LBE289:
 329              		.loc 1 207 1 view .LVU106
 330 00c0 10BC     		pop	{r4}
 331              		.cfi_remember_state
 332              		.cfi_restore 4
 333              		.cfi_def_cfa_offset 0
 334              	.LBB290:
 335              	.LBB287:
 336              	.LBB284:
 337              	.LBB281:
 338              		.loc 2 76 17 view .LVU107
 339 00c2 C3F89820 		str	r2, [r3, #152]
 340              		.loc 2 77 3 is_stmt 1 view .LVU108
 341              		.loc 2 77 17 is_stmt 0 view .LVU109
 342 00c6 D3F89820 		ldr	r2, [r3, #152]
ARM GAS  C:\Users\DEVELO~1\AppData\Local\Temp\cc5EUJSb.s 			page 7


 343 00ca 22F48052 		bic	r2, r2, #4096
 344 00ce C3F89820 		str	r2, [r3, #152]
 345              		.loc 2 78 3 is_stmt 1 view .LVU110
 346 00d2 D3F89830 		ldr	r3, [r3, #152]
 347              	.LVL7:
 348              		.loc 2 78 3 is_stmt 0 view .LVU111
 349              	.LBE281:
 350              	.LBE284:
 351              	.LBE287:
 352              	.LBE290:
 353              		.loc 1 202 5 is_stmt 1 view .LVU112
 354              		.loc 1 206 3 view .LVU113
 355 00d6 FFF7FEBF 		b	spi_lld_configure.isra.0
 356              	.LVL8:
 357              	.L22:
 358              		.cfi_restore_state
 359              		.loc 1 173 5 view .LVU114
 360              	.LBB291:
 361              	.LBI291:
 362              		.loc 2 207 22 view .LVU115
 363              	.LBB292:
 364              		.loc 2 219 3 view .LVU116
 365              	.LBB293:
 366              	.LBI293:
 367              		.loc 2 57 22 view .LVU117
 368              	.LBB294:
 369              		.loc 2 60 3 view .LVU118
 370              		.loc 2 60 18 is_stmt 0 view .LVU119
 371 00da 234B     		ldr	r3, .L25+20
 372 00dc D3F89020 		ldr	r2, [r3, #144]
 373 00e0 42F48042 		orr	r2, r2, #16384
 374 00e4 C3F89020 		str	r2, [r3, #144]
 375              		.loc 2 61 3 is_stmt 1 view .LVU120
 376              		.loc 2 61 18 is_stmt 0 view .LVU121
 377 00e8 D3F89020 		ldr	r2, [r3, #144]
 378 00ec 22F48042 		bic	r2, r2, #16384
 379 00f0 C3F89020 		str	r2, [r3, #144]
 380              		.loc 2 62 3 is_stmt 1 view .LVU122
 381 00f4 D3F89030 		ldr	r3, [r3, #144]
 382              	.LVL9:
 383              	.L14:
 384              		.loc 2 62 3 is_stmt 0 view .LVU123
 385              	.LBE294:
 386              	.LBE293:
 387              	.LBE292:
 388              	.LBE291:
 389              		.loc 1 202 5 is_stmt 1 discriminator 5 view .LVU124
 390              		.loc 1 206 3 discriminator 5 view .LVU125
 391 00f8 C169     		ldr	r1, [r0, #28]
 392              		.loc 1 207 1 is_stmt 0 discriminator 5 view .LVU126
 393 00fa 10BC     		pop	{r4}
 394              		.cfi_remember_state
 395              		.cfi_restore 4
 396              		.cfi_def_cfa_offset 0
 397              		.loc 1 206 3 discriminator 5 view .LVU127
 398 00fc 4068     		ldr	r0, [r0, #4]
 399              	.LVL10:
ARM GAS  C:\Users\DEVELO~1\AppData\Local\Temp\cc5EUJSb.s 			page 8


 400              		.loc 1 206 3 discriminator 5 view .LVU128
 401 00fe FFF7FEBF 		b	spi_lld_configure.isra.0
 402              	.LVL11:
 403              	.L23:
 404              		.cfi_restore_state
 405              		.loc 1 179 5 is_stmt 1 view .LVU129
 406              	.LBB295:
 407              	.LBI295:
 408              		.loc 2 207 22 view .LVU130
 409              	.LBB296:
 410              		.loc 2 219 3 view .LVU131
 411              	.LBB297:
 412              	.LBI297:
 413              		.loc 2 57 22 view .LVU132
 414              	.LBB298:
 415              		.loc 2 60 3 view .LVU133
 416              		.loc 2 60 18 is_stmt 0 view .LVU134
 417 0102 194B     		ldr	r3, .L25+20
 418              	.LBE298:
 419              	.LBE297:
 420              	.LBE296:
 421              	.LBE295:
 422              		.loc 1 206 3 view .LVU135
 423 0104 C169     		ldr	r1, [r0, #28]
 424              	.LBB308:
 425              	.LBB305:
 426              	.LBB302:
 427              	.LBB299:
 428              		.loc 2 60 18 view .LVU136
 429 0106 D3F89020 		ldr	r2, [r3, #144]
 430              	.LBE299:
 431              	.LBE302:
 432              	.LBE305:
 433              	.LBE308:
 434              		.loc 1 206 3 view .LVU137
 435 010a 4068     		ldr	r0, [r0, #4]
 436              	.LVL12:
 437              	.LBB309:
 438              	.LBB306:
 439              	.LBB303:
 440              	.LBB300:
 441              		.loc 2 60 18 view .LVU138
 442 010c 42F40042 		orr	r2, r2, #32768
 443              	.LBE300:
 444              	.LBE303:
 445              	.LBE306:
 446              	.LBE309:
 447              		.loc 1 207 1 view .LVU139
 448 0110 10BC     		pop	{r4}
 449              		.cfi_remember_state
 450              		.cfi_restore 4
 451              		.cfi_def_cfa_offset 0
 452              	.LBB310:
 453              	.LBB307:
 454              	.LBB304:
 455              	.LBB301:
 456              		.loc 2 60 18 view .LVU140
ARM GAS  C:\Users\DEVELO~1\AppData\Local\Temp\cc5EUJSb.s 			page 9


 457 0112 C3F89020 		str	r2, [r3, #144]
 458              		.loc 2 61 3 is_stmt 1 view .LVU141
 459              		.loc 2 61 18 is_stmt 0 view .LVU142
 460 0116 D3F89020 		ldr	r2, [r3, #144]
 461 011a 22F40042 		bic	r2, r2, #32768
 462 011e C3F89020 		str	r2, [r3, #144]
 463              		.loc 2 62 3 is_stmt 1 view .LVU143
 464 0122 D3F89030 		ldr	r3, [r3, #144]
 465              	.LVL13:
 466              		.loc 2 62 3 is_stmt 0 view .LVU144
 467              	.LBE301:
 468              	.LBE304:
 469              	.LBE307:
 470              	.LBE310:
 471              		.loc 1 202 5 is_stmt 1 view .LVU145
 472              		.loc 1 206 3 view .LVU146
 473 0126 FFF7FEBF 		b	spi_lld_configure.isra.0
 474              	.LVL14:
 475              	.L24:
 476              		.cfi_restore_state
 477              		.loc 1 191 5 view .LVU147
 478              	.LBB311:
 479              	.LBI311:
 480              		.loc 2 385 22 view .LVU148
 481              	.LBB312:
 482              		.loc 2 397 3 view .LVU149
 483              	.LBB313:
 484              	.LBI313:
 485              		.loc 2 73 22 view .LVU150
 486              	.LBB314:
 487              		.loc 2 76 3 view .LVU151
 488              		.loc 2 76 17 is_stmt 0 view .LVU152
 489 012a 0F4B     		ldr	r3, .L25+20
 490              	.LBE314:
 491              	.LBE313:
 492              	.LBE312:
 493              	.LBE311:
 494              		.loc 1 206 3 view .LVU153
 495 012c C169     		ldr	r1, [r0, #28]
 496              	.LBB324:
 497              	.LBB321:
 498              	.LBB318:
 499              	.LBB315:
 500              		.loc 2 76 17 view .LVU154
 501 012e D3F89820 		ldr	r2, [r3, #152]
 502              	.LBE315:
 503              	.LBE318:
 504              	.LBE321:
 505              	.LBE324:
 506              		.loc 1 206 3 view .LVU155
 507 0132 4068     		ldr	r0, [r0, #4]
 508              	.LVL15:
 509              	.LBB325:
 510              	.LBB322:
 511              	.LBB319:
 512              	.LBB316:
 513              		.loc 2 76 17 view .LVU156
ARM GAS  C:\Users\DEVELO~1\AppData\Local\Temp\cc5EUJSb.s 			page 10


 514 0134 42F48012 		orr	r2, r2, #1048576
 515              	.LBE316:
 516              	.LBE319:
 517              	.LBE322:
 518              	.LBE325:
 519              		.loc 1 207 1 view .LVU157
 520 0138 10BC     		pop	{r4}
 521              		.cfi_restore 4
 522              		.cfi_def_cfa_offset 0
 523              	.LBB326:
 524              	.LBB323:
 525              	.LBB320:
 526              	.LBB317:
 527              		.loc 2 76 17 view .LVU158
 528 013a C3F89820 		str	r2, [r3, #152]
 529              		.loc 2 77 3 is_stmt 1 view .LVU159
 530              		.loc 2 77 17 is_stmt 0 view .LVU160
 531 013e D3F89820 		ldr	r2, [r3, #152]
 532 0142 22F48012 		bic	r2, r2, #1048576
 533 0146 C3F89820 		str	r2, [r3, #152]
 534              		.loc 2 78 3 is_stmt 1 view .LVU161
 535 014a D3F89830 		ldr	r3, [r3, #152]
 536              	.LVL16:
 537              		.loc 2 78 3 is_stmt 0 view .LVU162
 538              	.LBE317:
 539              	.LBE320:
 540              	.LBE323:
 541              	.LBE326:
 542              		.loc 1 202 5 is_stmt 1 view .LVU163
 543              		.loc 1 206 3 view .LVU164
 544 014e FFF7FEBF 		b	spi_lld_configure.isra.0
 545              	.LVL17:
 546              	.L26:
 547 0152 00BF     		.align	2
 548              	.L25:
 549 0154 00000000 		.word	.LANCHOR0
 550 0158 00000000 		.word	.LANCHOR1
 551 015c 00000000 		.word	.LANCHOR2
 552 0160 00000000 		.word	.LANCHOR3
 553 0164 00000000 		.word	.LANCHOR4
 554 0168 00440258 		.word	1476543488
 555              		.cfi_endproc
 556              	.LFE435:
 557              		.size	spi_lld_stop_abort, .-spi_lld_stop_abort
 558              		.section	.text.spi_lld_stop_nicely,"ax",%progbits
 559              		.align	1
 560              		.p2align 4,,15
 561              		.syntax unified
 562              		.thumb
 563              		.thumb_func
 564              		.type	spi_lld_stop_nicely, %function
 565              	spi_lld_stop_nicely:
 566              	.LVL18:
 567              	.LFB436:
 568              		.loc 1 214 51 view -0
 569              		.cfi_startproc
 570              		@ args = 0, pretend = 0, frame = 0
ARM GAS  C:\Users\DEVELO~1\AppData\Local\Temp\cc5EUJSb.s 			page 11


 571              		@ frame_needed = 0, uses_anonymous_args = 0
 572              		.loc 1 216 3 view .LVU166
 573              		.loc 1 216 19 is_stmt 0 view .LVU167
 574 0000 4368     		ldr	r3, [r0, #4]
 575              		.loc 1 216 6 view .LVU168
 576 0002 5B78     		ldrb	r3, [r3, #1]	@ zero_extendqisi2
 577              		.loc 1 214 51 view .LVU169
 578 0004 10B5     		push	{r4, lr}
 579              		.cfi_def_cfa_offset 8
 580              		.cfi_offset 4, -8
 581              		.cfi_offset 14, -4
 582              		.loc 1 216 6 view .LVU170
 583 0006 002B     		cmp	r3, #0
 584 0008 50D1     		bne	.L43
 585              		.loc 1 225 3 is_stmt 1 view .LVU171
 586              		.loc 1 225 6 is_stmt 0 view .LVU172
 587 000a 90F82030 		ldrb	r3, [r0, #32]	@ zero_extendqisi2
 588 000e 0146     		mov	r1, r0
 589 0010 DBB1     		cbz	r3, .L30
 590              		.loc 1 229 5 is_stmt 1 view .LVU173
 591 0012 836A     		ldr	r3, [r0, #40]
 592 0014 D3E90040 		ldrd	r4, r0, [r3]
 593              	.LVL19:
 594              		.loc 1 229 5 is_stmt 0 view .LVU174
 595 0018 0268     		ldr	r2, [r0]
 596 001a 22F00F02 		bic	r2, r2, #15
 597 001e 0260     		str	r2, [r0]
 598              		.loc 1 229 5 is_stmt 1 view .LVU175
 599 0020 0E22     		movs	r2, #14
 600 0022 187A     		ldrb	r0, [r3, #8]	@ zero_extendqisi2
 601              		.loc 1 232 17 is_stmt 0 view .LVU176
 602 0024 CB69     		ldr	r3, [r1, #28]
 603              		.loc 1 229 5 view .LVU177
 604 0026 8240     		lsls	r2, r2, r0
 605 0028 6260     		str	r2, [r4, #4]
 606              		.loc 1 229 5 is_stmt 1 view .LVU178
 607              		.loc 1 229 37 view .LVU179
 608              		.loc 1 232 5 view .LVU180
 609              	.L31:
 610              		.loc 1 234 5 discriminator 1 view .LVU181
 611              		.loc 1 232 61 discriminator 1 view .LVU182
 612              		.loc 1 232 22 is_stmt 0 discriminator 1 view .LVU183
 613 002a 5A69     		ldr	r2, [r3, #20]
 614              		.loc 1 232 61 discriminator 1 view .LVU184
 615 002c 12F4604F 		tst	r2, #57344
 616 0030 FBD1     		bne	.L31
 617              		.loc 1 236 5 is_stmt 1 view .LVU185
 618 0032 496A     		ldr	r1, [r1, #36]
 619              	.LVL20:
 620              		.loc 1 236 5 is_stmt 0 view .LVU186
 621 0034 D1E90040 		ldrd	r4, r0, [r1]
 622 0038 0268     		ldr	r2, [r0]
 623 003a 22F00F02 		bic	r2, r2, #15
 624 003e 0260     		str	r2, [r0]
 625              		.loc 1 236 5 is_stmt 1 view .LVU187
 626 0040 0E22     		movs	r2, #14
 627 0042 097A     		ldrb	r1, [r1, #8]	@ zero_extendqisi2
ARM GAS  C:\Users\DEVELO~1\AppData\Local\Temp\cc5EUJSb.s 			page 12


 628 0044 8A40     		lsls	r2, r2, r1
 629 0046 6260     		str	r2, [r4, #4]
 630              		.loc 1 236 5 view .LVU188
 631              		.loc 1 236 37 view .LVU189
 632 0048 24E0     		b	.L32
 633              	.LVL21:
 634              	.L30:
 635              		.loc 1 244 5 view .LVU190
 636 004a 806A     		ldr	r0, [r0, #40]
 637              	.LVL22:
 638              		.loc 1 244 5 is_stmt 0 view .LVU191
 639 004c 0268     		ldr	r2, [r0]
 640 004e 1368     		ldr	r3, [r2]
 641 0050 23F01F03 		bic	r3, r3, #31
 642 0054 1360     		str	r3, [r2]
 643              		.loc 1 244 5 is_stmt 1 view .LVU192
 644              	.L33:
 645              		.loc 1 244 5 discriminator 2 view .LVU193
 646 0056 1368     		ldr	r3, [r2]
 647 0058 DB07     		lsls	r3, r3, #31
 648 005a FCD4     		bmi	.L33
 649              		.loc 1 244 5 discriminator 3 view .LVU194
 650 005c 90F80CC0 		ldrb	ip, [r0, #12]	@ zero_extendqisi2
 651 0060 3D22     		movs	r2, #61
 652 0062 4068     		ldr	r0, [r0, #4]
 653 0064 02FA0CF2 		lsl	r2, r2, ip
 654              		.loc 1 247 17 is_stmt 0 discriminator 3 view .LVU195
 655 0068 CB69     		ldr	r3, [r1, #28]
 656              		.loc 1 244 5 discriminator 3 view .LVU196
 657 006a 0260     		str	r2, [r0]
 658              		.loc 1 244 5 is_stmt 1 discriminator 3 view .LVU197
 659              		.loc 1 244 35 discriminator 3 view .LVU198
 660              		.loc 1 247 5 discriminator 3 view .LVU199
 661              	.L34:
 662              		.loc 1 249 5 discriminator 1 view .LVU200
 663              		.loc 1 247 61 discriminator 1 view .LVU201
 664              		.loc 1 247 22 is_stmt 0 discriminator 1 view .LVU202
 665 006c 5A69     		ldr	r2, [r3, #20]
 666              		.loc 1 247 61 discriminator 1 view .LVU203
 667 006e 12F4604F 		tst	r2, #57344
 668 0072 FBD1     		bne	.L34
 669              		.loc 1 251 5 is_stmt 1 view .LVU204
 670 0074 486A     		ldr	r0, [r1, #36]
 671 0076 0168     		ldr	r1, [r0]
 672              	.LVL23:
 673              		.loc 1 251 5 is_stmt 0 view .LVU205
 674 0078 0A68     		ldr	r2, [r1]
 675 007a 22F01F02 		bic	r2, r2, #31
 676 007e 0A60     		str	r2, [r1]
 677              		.loc 1 251 5 is_stmt 1 view .LVU206
 678              	.L35:
 679              		.loc 1 251 5 discriminator 2 view .LVU207
 680 0080 0A68     		ldr	r2, [r1]
 681 0082 D407     		lsls	r4, r2, #31
 682 0084 FCD4     		bmi	.L35
 683              		.loc 1 251 5 discriminator 3 view .LVU208
 684 0086 90F80CC0 		ldrb	ip, [r0, #12]	@ zero_extendqisi2
ARM GAS  C:\Users\DEVELO~1\AppData\Local\Temp\cc5EUJSb.s 			page 13


 685 008a 3D22     		movs	r2, #61
 686 008c 4168     		ldr	r1, [r0, #4]
 687 008e 02FA0CF2 		lsl	r2, r2, ip
 688 0092 0A60     		str	r2, [r1]
 689              	.L32:
 690              		.loc 1 251 5 discriminator 4 view .LVU209
 691              		.loc 1 251 35 discriminator 4 view .LVU210
 692              		.loc 1 256 3 discriminator 4 view .LVU211
 693              	.LBB329:
 694              	.LBI329:
 695              		.loc 1 125 13 discriminator 4 view .LVU212
 696              	.LVL24:
 697              	.LBB330:
 698              		.loc 1 127 3 discriminator 4 view .LVU213
 699              		.loc 1 128 5 discriminator 4 view .LVU214
 700              		.loc 1 128 20 is_stmt 0 discriminator 4 view .LVU215
 701 0094 1A68     		ldr	r2, [r3]
 702 0096 42F48062 		orr	r2, r2, #1024
 703 009a 1A60     		str	r2, [r3]
 704              		.loc 1 129 5 is_stmt 1 discriminator 4 view .LVU216
 705              	.L36:
 706              		.loc 1 130 5 view .LVU217
 707              		.loc 1 129 46 view .LVU218
 708              		.loc 1 129 22 is_stmt 0 view .LVU219
 709 009c 1A68     		ldr	r2, [r3]
 710              		.loc 1 129 46 view .LVU220
 711 009e 9205     		lsls	r2, r2, #22
 712 00a0 FCD4     		bmi	.L36
 713              		.loc 1 132 3 is_stmt 1 view .LVU221
 714              		.loc 1 132 19 is_stmt 0 view .LVU222
 715 00a2 4FF0FF32 		mov	r2, #-1
 716              	.LBE330:
 717              	.LBE329:
 718              		.loc 1 260 1 view .LVU223
 719 00a6 0020     		movs	r0, #0
 720              	.LBB332:
 721              	.LBB331:
 722              		.loc 1 132 19 view .LVU224
 723 00a8 9A61     		str	r2, [r3, #24]
 724              	.LVL25:
 725              		.loc 1 132 19 view .LVU225
 726              	.LBE331:
 727              	.LBE332:
 728              		.loc 1 260 1 view .LVU226
 729 00aa 10BD     		pop	{r4, pc}
 730              	.LVL26:
 731              	.L43:
 732              		.loc 1 218 5 is_stmt 1 view .LVU227
 733 00ac FFF7FEFF 		bl	spi_lld_stop_abort
 734              	.LVL27:
 735              		.loc 1 220 5 view .LVU228
 736              		.loc 1 260 1 is_stmt 0 view .LVU229
 737 00b0 0020     		movs	r0, #0
 738 00b2 10BD     		pop	{r4, pc}
 739              		.cfi_endproc
 740              	.LFE436:
 741              		.size	spi_lld_stop_nicely, .-spi_lld_stop_nicely
ARM GAS  C:\Users\DEVELO~1\AppData\Local\Temp\cc5EUJSb.s 			page 14


 742              		.section	.rodata.spi_lld_serve_dma_tx_interrupt.part.0.str1.4,"aMS",%progbits,1
 743              		.align	2
 744              	.LC0:
 745 0000 444D4120 		.ascii	"DMA failure\000"
 745      6661696C 
 745      75726500 
 746              		.section	.text.spi_lld_serve_dma_tx_interrupt.part.0,"ax",%progbits
 747              		.align	1
 748              		.p2align 4,,15
 749              		.syntax unified
 750              		.thumb
 751              		.thumb_func
 752              		.type	spi_lld_serve_dma_tx_interrupt.part.0, %function
 753              	spi_lld_serve_dma_tx_interrupt.part.0:
 754              	.LVL28:
 755              	.LFB460:
 756              		.loc 1 373 13 is_stmt 1 view -0
 757              		.cfi_startproc
 758              		@ args = 0, pretend = 0, frame = 0
 759              		@ frame_needed = 0, uses_anonymous_args = 0
 760              		.loc 1 378 5 view .LVU231
 761              	.LBB333:
 762              	.LBI333:
 763              		.file 3 "../../../os/hal/osal/rt-nil/osal.h"
 764              		.loc 3 542 20 view .LVU232
 765              	.LBB334:
 766              		.loc 3 544 3 view .LVU233
 767              	.LBE334:
 768              	.LBE333:
 769              		.loc 1 373 13 is_stmt 0 view .LVU234
 770 0000 10B5     		push	{r4, lr}
 771              		.cfi_def_cfa_offset 8
 772              		.cfi_offset 4, -8
 773              		.cfi_offset 14, -4
 774              		.loc 1 373 13 view .LVU235
 775 0002 0446     		mov	r4, r0
 776              	.LBB336:
 777              	.LBB335:
 778              		.loc 3 544 3 view .LVU236
 779 0004 0B48     		ldr	r0, .L50
 780              	.LVL29:
 781              		.loc 3 544 3 view .LVU237
 782 0006 FFF7FEFF 		bl	chSysHalt
 783              	.LVL30:
 784              		.loc 3 544 3 view .LVU238
 785              	.LBE335:
 786              	.LBE336:
 787              		.loc 1 382 5 is_stmt 1 view .LVU239
 788 000a 2046     		mov	r0, r4
 789 000c FFF7FEFF 		bl	spi_lld_stop_abort
 790              	.LVL31:
 791              		.loc 1 385 5 view .LVU240
 792 0010 6368     		ldr	r3, [r4, #4]
 793 0012 9B68     		ldr	r3, [r3, #8]
 794 0014 0BB1     		cbz	r3, .L45
 795              		.loc 1 385 5 view .LVU241
 796 0016 2046     		mov	r0, r4
ARM GAS  C:\Users\DEVELO~1\AppData\Local\Temp\cc5EUJSb.s 			page 15


 797 0018 9847     		blx	r3
 798              	.LVL32:
 799              	.L45:
 800              		.loc 1 385 5 view .LVU242
 801              	.LBB337:
 802              	.LBI337:
 803              		.loc 3 595 20 view .LVU243
 804              		.loc 3 597 3 view .LVU244
 805              	.LBB338:
 806              	.LBI338:
 807              		.file 4 "../../../os/rt/include/chsys.h"
 808              		.loc 4 451 20 view .LVU245
 809              		.loc 4 453 3 view .LVU246
 810              	.LBB339:
 811              	.LBI339:
 812              		.file 5 "../../../os/common/ports/ARMv7-M/chcore.h"
 813              		.loc 5 862 27 view .LVU247
 814              		.loc 5 864 3 view .LVU248
 815              	.LBB340:
 816              	.LBI340:
 817              		.loc 5 823 27 view .LVU249
 818              		.loc 5 831 3 view .LVU250
 819              	.LBB341:
 820              	.LBI341:
 821              		.file 6 "../../../os/common/ext/ARM/CMSIS/Core/Include/cmsis_gcc.h"
 822              		.loc 6 491 27 view .LVU251
 823              	.LBB342:
 824              		.loc 6 493 3 view .LVU252
 825 001a 3023     		movs	r3, #48
 826              		.syntax unified
 827              	@ 493 "../../../os/common/ext/ARM/CMSIS/Core/Include/cmsis_gcc.h" 1
 828 001c 83F31188 		MSR basepri, r3
 829              	@ 0 "" 2
 830              	.LVL33:
 831              		.loc 6 493 3 is_stmt 0 view .LVU253
 832              		.thumb
 833              		.syntax unified
 834              	.LBE342:
 835              	.LBE341:
 836              	.LBE340:
 837              	.LBE339:
 838              		.loc 4 454 35 is_stmt 1 view .LVU254
 839              		.loc 4 455 30 view .LVU255
 840              	.LBE338:
 841              	.LBE337:
 842              		.loc 1 385 5 view .LVU256
 843              	.LBB343:
 844              	.LBI343:
 845              		.loc 3 837 20 view .LVU257
 846              	.LBB344:
 847              		.loc 3 839 3 view .LVU258
 848 0020 6FF01201 		mvn	r1, #18
 849 0024 04F10800 		add	r0, r4, #8
 850              	.LVL34:
 851              		.loc 3 839 3 is_stmt 0 view .LVU259
 852 0028 FFF7FEFF 		bl	chThdResumeI
 853              	.LVL35:
ARM GAS  C:\Users\DEVELO~1\AppData\Local\Temp\cc5EUJSb.s 			page 16


 854              		.loc 3 839 3 view .LVU260
 855              	.LBE344:
 856              	.LBE343:
 857              		.loc 1 385 5 is_stmt 1 view .LVU261
 858              	.LBB345:
 859              	.LBI345:
 860              		.loc 3 606 20 view .LVU262
 861              		.loc 3 608 3 view .LVU263
 862              	.LBB346:
 863              	.LBI346:
 864              		.loc 4 473 20 view .LVU264
 865              		.loc 4 475 32 view .LVU265
 866              		.loc 4 476 34 view .LVU266
 867              		.loc 4 477 3 view .LVU267
 868              	.LBB347:
 869              	.LBI347:
 870              		.loc 5 873 27 view .LVU268
 871              		.loc 5 875 3 view .LVU269
 872              	.LBB348:
 873              	.LBI348:
 874              		.loc 5 847 27 view .LVU270
 875              		.loc 5 850 3 view .LVU271
 876              	.LBB349:
 877              	.LBI349:
 878              		.loc 6 491 27 view .LVU272
 879              	.LBB350:
 880              		.loc 6 493 3 view .LVU273
 881 002c 0023     		movs	r3, #0
 882              		.syntax unified
 883              	@ 493 "../../../os/common/ext/ARM/CMSIS/Core/Include/cmsis_gcc.h" 1
 884 002e 83F31188 		MSR basepri, r3
 885              	@ 0 "" 2
 886              	.LVL36:
 887              		.loc 6 493 3 is_stmt 0 view .LVU274
 888              		.thumb
 889              		.syntax unified
 890              	.LBE350:
 891              	.LBE349:
 892              	.LBE348:
 893              	.LBE347:
 894              	.LBE346:
 895              	.LBE345:
 896              		.loc 1 385 5 is_stmt 1 view .LVU275
 897              		.loc 1 385 51 view .LVU276
 898              		.loc 1 387 1 is_stmt 0 view .LVU277
 899 0032 10BD     		pop	{r4, pc}
 900              	.LVL37:
 901              	.L51:
 902              		.loc 1 387 1 view .LVU278
 903              		.align	2
 904              	.L50:
 905 0034 00000000 		.word	.LC0
 906              		.cfi_endproc
 907              	.LFE460:
 908              		.size	spi_lld_serve_dma_tx_interrupt.part.0, .-spi_lld_serve_dma_tx_interrupt.part.0
 909              		.thumb_set spi_lld_serve_bdma_tx_interrupt.part.0,spi_lld_serve_dma_tx_interrupt.part.0
 910              		.section	.text.spi_lld_serve_bdma_tx_interrupt,"ax",%progbits
ARM GAS  C:\Users\DEVELO~1\AppData\Local\Temp\cc5EUJSb.s 			page 17


 911              		.align	1
 912              		.p2align 4,,15
 913              		.syntax unified
 914              		.thumb
 915              		.thumb_func
 916              		.type	spi_lld_serve_bdma_tx_interrupt, %function
 917              	spi_lld_serve_bdma_tx_interrupt:
 918              	.LVL38:
 919              	.LFB438:
 920              		.loc 1 309 78 is_stmt 1 view -0
 921              		.cfi_startproc
 922              		@ args = 0, pretend = 0, frame = 0
 923              		@ frame_needed = 0, uses_anonymous_args = 0
 924              		@ link register save eliminated.
 925              		.loc 1 312 3 view .LVU280
 926              		.loc 1 312 6 is_stmt 0 view .LVU281
 927 0000 0B07     		lsls	r3, r1, #28
 928 0002 00D4     		bmi	.L54
 929              		.loc 1 323 1 view .LVU282
 930 0004 7047     		bx	lr
 931              	.L54:
 932 0006 FFF7FEBF 		b	spi_lld_serve_bdma_tx_interrupt.part.0
 933              	.LVL39:
 934              		.loc 1 323 1 view .LVU283
 935              		.cfi_endproc
 936              	.LFE438:
 937              		.size	spi_lld_serve_bdma_tx_interrupt, .-spi_lld_serve_bdma_tx_interrupt
 938 000a 00BF     		.section	.text.spi_lld_serve_dma_tx_interrupt,"ax",%progbits
 939              		.align	1
 940              		.p2align 4,,15
 941              		.syntax unified
 942              		.thumb
 943              		.thumb_func
 944              		.type	spi_lld_serve_dma_tx_interrupt, %function
 945              	spi_lld_serve_dma_tx_interrupt:
 946              	.LVL40:
 947              	.LFB440:
 948              		.loc 1 373 77 is_stmt 1 view -0
 949              		.cfi_startproc
 950              		@ args = 0, pretend = 0, frame = 0
 951              		@ frame_needed = 0, uses_anonymous_args = 0
 952              		@ link register save eliminated.
 953              		.loc 1 376 3 view .LVU285
 954              		.loc 1 376 6 is_stmt 0 view .LVU286
 955 0000 11F00C0F 		tst	r1, #12
 956 0004 00D1     		bne	.L57
 957              		.loc 1 387 1 view .LVU287
 958 0006 7047     		bx	lr
 959              	.L57:
 960 0008 FFF7FEBF 		b	spi_lld_serve_dma_tx_interrupt.part.0
 961              	.LVL41:
 962              		.loc 1 387 1 view .LVU288
 963              		.cfi_endproc
 964              	.LFE440:
 965              		.size	spi_lld_serve_dma_tx_interrupt, .-spi_lld_serve_dma_tx_interrupt
 966              		.section	.text.spi_lld_serve_dma_rx_interrupt,"ax",%progbits
 967              		.align	1
ARM GAS  C:\Users\DEVELO~1\AppData\Local\Temp\cc5EUJSb.s 			page 18


 968              		.p2align 4,,15
 969              		.syntax unified
 970              		.thumb
 971              		.thumb_func
 972              		.type	spi_lld_serve_dma_rx_interrupt, %function
 973              	spi_lld_serve_dma_rx_interrupt:
 974              	.LVL42:
 975              	.LFB439:
 976              		.loc 1 333 77 is_stmt 1 view -0
 977              		.cfi_startproc
 978              		@ args = 0, pretend = 0, frame = 0
 979              		@ frame_needed = 0, uses_anonymous_args = 0
 980              		.loc 1 336 3 view .LVU290
 981              		.loc 1 336 6 is_stmt 0 view .LVU291
 982 0000 11F00C0F 		tst	r1, #12
 983              		.loc 1 333 77 view .LVU292
 984 0004 70B5     		push	{r4, r5, r6, lr}
 985              		.cfi_def_cfa_offset 16
 986              		.cfi_offset 4, -16
 987              		.cfi_offset 5, -12
 988              		.cfi_offset 6, -8
 989              		.cfi_offset 14, -4
 990              		.loc 1 333 77 view .LVU293
 991 0006 0D46     		mov	r5, r1
 992 0008 0446     		mov	r4, r0
 993              		.loc 1 336 6 view .LVU294
 994 000a 2DD1     		bne	.L89
 995              	.LVL43:
 996              	.L59:
 997              		.loc 1 345 5 is_stmt 1 discriminator 4 view .LVU295
 998              		.loc 1 345 51 discriminator 4 view .LVU296
 999              		.loc 1 348 3 discriminator 4 view .LVU297
 1000              		.loc 1 348 11 is_stmt 0 discriminator 4 view .LVU298
 1001 000c 6668     		ldr	r6, [r4, #4]
 1002              		.loc 1 348 6 discriminator 4 view .LVU299
 1003 000e 3378     		ldrb	r3, [r6]	@ zero_extendqisi2
 1004 0010 93B1     		cbz	r3, .L61
 1005              		.loc 1 349 5 is_stmt 1 view .LVU300
 1006              		.loc 1 349 8 is_stmt 0 view .LVU301
 1007 0012 EA06     		lsls	r2, r5, #27
 1008 0014 03D5     		bpl	.L62
 1009              		.loc 1 351 7 is_stmt 1 view .LVU302
 1010 0016 7368     		ldr	r3, [r6, #4]
 1011 0018 6BB1     		cbz	r3, .L58
 1012              		.loc 1 351 7 discriminator 1 view .LVU303
 1013 001a 2046     		mov	r0, r4
 1014 001c 9847     		blx	r3
 1015              	.LVL44:
 1016              	.L62:
 1017              		.loc 1 351 32 discriminator 3 view .LVU304
 1018              		.loc 1 353 5 discriminator 3 view .LVU305
 1019              		.loc 1 353 8 is_stmt 0 discriminator 3 view .LVU306
 1020 001e AB06     		lsls	r3, r5, #26
 1021 0020 09D5     		bpl	.L58
 1022              		.loc 1 355 7 is_stmt 1 view .LVU307
 1023 0022 6368     		ldr	r3, [r4, #4]
 1024 0024 5B68     		ldr	r3, [r3, #4]
ARM GAS  C:\Users\DEVELO~1\AppData\Local\Temp\cc5EUJSb.s 			page 19


 1025 0026 33B1     		cbz	r3, .L58
 1026              		.loc 1 355 7 discriminator 1 view .LVU308
 1027 0028 0422     		movs	r2, #4
 1028 002a 2046     		mov	r0, r4
 1029 002c 2270     		strb	r2, [r4]
 1030              		.loc 1 355 7 discriminator 1 view .LVU309
 1031 002e 9847     		blx	r3
 1032              	.LVL45:
 1033              		.loc 1 355 7 discriminator 1 view .LVU310
 1034 0030 2378     		ldrb	r3, [r4]	@ zero_extendqisi2
 1035 0032 042B     		cmp	r3, #4
 1036 0034 30D0     		beq	.L90
 1037              	.L58:
 1038              		.loc 1 365 1 is_stmt 0 view .LVU311
 1039 0036 70BD     		pop	{r4, r5, r6, pc}
 1040              	.LVL46:
 1041              	.L61:
 1042              		.loc 1 360 5 is_stmt 1 view .LVU312
 1043              		.loc 1 360 12 is_stmt 0 view .LVU313
 1044 0038 2046     		mov	r0, r4
 1045 003a FFF7FEFF 		bl	spi_lld_stop_nicely
 1046              	.LVL47:
 1047              		.loc 1 363 5 is_stmt 1 view .LVU314
 1048 003e 7368     		ldr	r3, [r6, #4]
 1049 0040 6BB3     		cbz	r3, .L65
 1050              		.loc 1 363 5 discriminator 1 view .LVU315
 1051 0042 0422     		movs	r2, #4
 1052 0044 2046     		mov	r0, r4
 1053 0046 2270     		strb	r2, [r4]
 1054              		.loc 1 363 5 discriminator 1 view .LVU316
 1055 0048 9847     		blx	r3
 1056              	.LVL48:
 1057              		.loc 1 363 5 discriminator 1 view .LVU317
 1058 004a 2378     		ldrb	r3, [r4]	@ zero_extendqisi2
 1059 004c 042B     		cmp	r3, #4
 1060 004e 26D0     		beq	.L65
 1061              	.L66:
 1062              		.loc 1 363 5 discriminator 4 view .LVU318
 1063              	.LBB351:
 1064              	.LBI351:
 1065              		.loc 3 595 20 discriminator 4 view .LVU319
 1066              		.loc 3 597 3 discriminator 4 view .LVU320
 1067              	.LBB352:
 1068              	.LBI352:
 1069              		.loc 4 451 20 discriminator 4 view .LVU321
 1070              		.loc 4 453 3 discriminator 4 view .LVU322
 1071              	.LBB353:
 1072              	.LBI353:
 1073              		.loc 5 862 27 discriminator 4 view .LVU323
 1074              		.loc 5 864 3 discriminator 4 view .LVU324
 1075              	.LBB354:
 1076              	.LBI354:
 1077              		.loc 5 823 27 discriminator 4 view .LVU325
 1078              		.loc 5 831 3 discriminator 4 view .LVU326
 1079              	.LVL49:
 1080              	.LBB355:
 1081              	.LBI355:
ARM GAS  C:\Users\DEVELO~1\AppData\Local\Temp\cc5EUJSb.s 			page 20


 1082              		.loc 6 491 27 discriminator 4 view .LVU327
 1083              	.LBB356:
 1084              		.loc 6 493 3 discriminator 4 view .LVU328
 1085 0050 3023     		movs	r3, #48
 1086              		.syntax unified
 1087              	@ 493 "../../../os/common/ext/ARM/CMSIS/Core/Include/cmsis_gcc.h" 1
 1088 0052 83F31188 		MSR basepri, r3
 1089              	@ 0 "" 2
 1090              	.LVL50:
 1091              		.loc 6 493 3 is_stmt 0 discriminator 4 view .LVU329
 1092              		.thumb
 1093              		.syntax unified
 1094              	.LBE356:
 1095              	.LBE355:
 1096              	.LBE354:
 1097              	.LBE353:
 1098              		.loc 4 454 35 is_stmt 1 discriminator 4 view .LVU330
 1099              		.loc 4 455 30 discriminator 4 view .LVU331
 1100              	.LBE352:
 1101              	.LBE351:
 1102              		.loc 1 363 5 discriminator 4 view .LVU332
 1103              	.LBB357:
 1104              	.LBI357:
 1105              		.loc 3 837 20 discriminator 4 view .LVU333
 1106              	.LBB358:
 1107              		.loc 3 839 3 discriminator 4 view .LVU334
 1108 0056 0021     		movs	r1, #0
 1109 0058 04F10800 		add	r0, r4, #8
 1110              	.LVL51:
 1111              		.loc 3 839 3 is_stmt 0 discriminator 4 view .LVU335
 1112 005c FFF7FEFF 		bl	chThdResumeI
 1113              	.LVL52:
 1114              		.loc 3 839 3 discriminator 4 view .LVU336
 1115              	.LBE358:
 1116              	.LBE357:
 1117              		.loc 1 363 5 is_stmt 1 discriminator 4 view .LVU337
 1118              	.LBB359:
 1119              	.LBI359:
 1120              		.loc 3 606 20 discriminator 4 view .LVU338
 1121              	.LBB360:
 1122              		.loc 3 608 3 discriminator 4 view .LVU339
 1123              	.LBB361:
 1124              	.LBI361:
 1125              		.loc 4 473 20 discriminator 4 view .LVU340
 1126              		.loc 4 475 32 discriminator 4 view .LVU341
 1127              		.loc 4 476 34 discriminator 4 view .LVU342
 1128              		.loc 4 477 3 discriminator 4 view .LVU343
 1129              	.LBB362:
 1130              	.LBI362:
 1131              		.loc 5 873 27 discriminator 4 view .LVU344
 1132              		.loc 5 875 3 discriminator 4 view .LVU345
 1133              	.LBB363:
 1134              	.LBI363:
 1135              		.loc 5 847 27 discriminator 4 view .LVU346
 1136              		.loc 5 850 3 discriminator 4 view .LVU347
 1137              	.LBB364:
 1138              	.LBI364:
ARM GAS  C:\Users\DEVELO~1\AppData\Local\Temp\cc5EUJSb.s 			page 21


 1139              		.loc 6 491 27 discriminator 4 view .LVU348
 1140              	.LBB365:
 1141              		.loc 6 493 3 discriminator 4 view .LVU349
 1142 0060 0023     		movs	r3, #0
 1143              		.syntax unified
 1144              	@ 493 "../../../os/common/ext/ARM/CMSIS/Core/Include/cmsis_gcc.h" 1
 1145 0062 83F31188 		MSR basepri, r3
 1146              	@ 0 "" 2
 1147              	.LVL53:
 1148              		.loc 6 493 3 is_stmt 0 discriminator 4 view .LVU350
 1149              		.thumb
 1150              		.syntax unified
 1151              	.LBE365:
 1152              	.LBE364:
 1153              	.LBE363:
 1154              	.LBE362:
 1155              	.LBE361:
 1156              	.LBE360:
 1157              	.LBE359:
 1158              		.loc 1 363 5 is_stmt 1 discriminator 4 view .LVU351
 1159              		.loc 1 363 34 discriminator 4 view .LVU352
 1160              		.loc 1 365 1 is_stmt 0 discriminator 4 view .LVU353
 1161 0066 70BD     		pop	{r4, r5, r6, pc}
 1162              	.LVL54:
 1163              	.L89:
 1164              		.loc 1 338 5 is_stmt 1 view .LVU354
 1165              	.LBB366:
 1166              	.LBI366:
 1167              		.loc 3 542 20 view .LVU355
 1168              	.LBB367:
 1169              		.loc 3 544 3 view .LVU356
 1170 0068 0E48     		ldr	r0, .L91
 1171              	.LVL55:
 1172              		.loc 3 544 3 is_stmt 0 view .LVU357
 1173 006a FFF7FEFF 		bl	chSysHalt
 1174              	.LVL56:
 1175              		.loc 3 544 3 view .LVU358
 1176              	.LBE367:
 1177              	.LBE366:
 1178              		.loc 1 342 5 is_stmt 1 view .LVU359
 1179 006e 2046     		mov	r0, r4
 1180 0070 FFF7FEFF 		bl	spi_lld_stop_abort
 1181              	.LVL57:
 1182              		.loc 1 345 5 view .LVU360
 1183 0074 6368     		ldr	r3, [r4, #4]
 1184 0076 9B68     		ldr	r3, [r3, #8]
 1185 0078 0BB1     		cbz	r3, .L60
 1186              		.loc 1 345 5 discriminator 1 view .LVU361
 1187 007a 2046     		mov	r0, r4
 1188 007c 9847     		blx	r3
 1189              	.LVL58:
 1190              	.L60:
 1191              		.loc 1 345 5 discriminator 3 view .LVU362
 1192              	.LBB368:
 1193              	.LBI368:
 1194              		.loc 3 595 20 discriminator 3 view .LVU363
 1195              		.loc 3 597 3 discriminator 3 view .LVU364
ARM GAS  C:\Users\DEVELO~1\AppData\Local\Temp\cc5EUJSb.s 			page 22


 1196              	.LBB369:
 1197              	.LBI369:
 1198              		.loc 4 451 20 discriminator 3 view .LVU365
 1199              		.loc 4 453 3 discriminator 3 view .LVU366
 1200              	.LBB370:
 1201              	.LBI370:
 1202              		.loc 5 862 27 discriminator 3 view .LVU367
 1203              		.loc 5 864 3 discriminator 3 view .LVU368
 1204              	.LBB371:
 1205              	.LBI371:
 1206              		.loc 5 823 27 discriminator 3 view .LVU369
 1207              		.loc 5 831 3 discriminator 3 view .LVU370
 1208              	.LBB372:
 1209              	.LBI372:
 1210              		.loc 6 491 27 discriminator 3 view .LVU371
 1211              	.LBB373:
 1212              		.loc 6 493 3 discriminator 3 view .LVU372
 1213 007e 3023     		movs	r3, #48
 1214              		.syntax unified
 1215              	@ 493 "../../../os/common/ext/ARM/CMSIS/Core/Include/cmsis_gcc.h" 1
 1216 0080 83F31188 		MSR basepri, r3
 1217              	@ 0 "" 2
 1218              	.LVL59:
 1219              		.loc 6 493 3 is_stmt 0 discriminator 3 view .LVU373
 1220              		.thumb
 1221              		.syntax unified
 1222              	.LBE373:
 1223              	.LBE372:
 1224              	.LBE371:
 1225              	.LBE370:
 1226              		.loc 4 454 35 is_stmt 1 discriminator 3 view .LVU374
 1227              		.loc 4 455 30 discriminator 3 view .LVU375
 1228              	.LBE369:
 1229              	.LBE368:
 1230              		.loc 1 345 5 discriminator 3 view .LVU376
 1231              	.LBB374:
 1232              	.LBI374:
 1233              		.loc 3 837 20 discriminator 3 view .LVU377
 1234              	.LBB375:
 1235              		.loc 3 839 3 discriminator 3 view .LVU378
 1236 0084 6FF01201 		mvn	r1, #18
 1237 0088 04F10800 		add	r0, r4, #8
 1238              	.LVL60:
 1239              		.loc 3 839 3 is_stmt 0 discriminator 3 view .LVU379
 1240 008c FFF7FEFF 		bl	chThdResumeI
 1241              	.LVL61:
 1242              		.loc 3 839 3 discriminator 3 view .LVU380
 1243              	.LBE375:
 1244              	.LBE374:
 1245              		.loc 1 345 5 is_stmt 1 discriminator 3 view .LVU381
 1246              	.LBB376:
 1247              	.LBI376:
 1248              		.loc 3 606 20 discriminator 3 view .LVU382
 1249              	.LBB377:
 1250              		.loc 3 608 3 discriminator 3 view .LVU383
 1251              	.LBB378:
 1252              	.LBI378:
ARM GAS  C:\Users\DEVELO~1\AppData\Local\Temp\cc5EUJSb.s 			page 23


 1253              		.loc 4 473 20 discriminator 3 view .LVU384
 1254              		.loc 4 475 32 discriminator 3 view .LVU385
 1255              		.loc 4 476 34 discriminator 3 view .LVU386
 1256              		.loc 4 477 3 discriminator 3 view .LVU387
 1257              	.LBB379:
 1258              	.LBI379:
 1259              		.loc 5 873 27 discriminator 3 view .LVU388
 1260              		.loc 5 875 3 discriminator 3 view .LVU389
 1261              	.LBB380:
 1262              	.LBI380:
 1263              		.loc 5 847 27 discriminator 3 view .LVU390
 1264              		.loc 5 850 3 discriminator 3 view .LVU391
 1265              	.LBB381:
 1266              	.LBI381:
 1267              		.loc 6 491 27 discriminator 3 view .LVU392
 1268              	.LBB382:
 1269              		.loc 6 493 3 discriminator 3 view .LVU393
 1270 0090 0023     		movs	r3, #0
 1271              		.syntax unified
 1272              	@ 493 "../../../os/common/ext/ARM/CMSIS/Core/Include/cmsis_gcc.h" 1
 1273 0092 83F31188 		MSR basepri, r3
 1274              	@ 0 "" 2
 1275              	.LVL62:
 1276              		.loc 6 493 3 is_stmt 0 discriminator 3 view .LVU394
 1277              		.thumb
 1278              		.syntax unified
 1279              	.LBE382:
 1280              	.LBE381:
 1281              	.LBE380:
 1282              	.LBE379:
 1283              	.LBE378:
 1284              		.loc 3 609 1 discriminator 3 view .LVU395
 1285 0096 B9E7     		b	.L59
 1286              	.L90:
 1287              		.loc 3 609 1 discriminator 3 view .LVU396
 1288              	.LBE377:
 1289              	.LBE376:
 1290              		.loc 1 355 7 is_stmt 1 discriminator 3 view .LVU397
 1291 0098 0323     		movs	r3, #3
 1292 009a 2370     		strb	r3, [r4]
 1293              		.loc 1 365 1 is_stmt 0 discriminator 3 view .LVU398
 1294 009c 70BD     		pop	{r4, r5, r6, pc}
 1295              	.LVL63:
 1296              	.L65:
 1297              		.loc 1 363 5 is_stmt 1 discriminator 3 view .LVU399
 1298 009e 0223     		movs	r3, #2
 1299 00a0 2370     		strb	r3, [r4]
 1300 00a2 D5E7     		b	.L66
 1301              	.L92:
 1302              		.align	2
 1303              	.L91:
 1304 00a4 00000000 		.word	.LC0
 1305              		.cfi_endproc
 1306              	.LFE439:
 1307              		.size	spi_lld_serve_dma_rx_interrupt, .-spi_lld_serve_dma_rx_interrupt
 1308              		.section	.text.spi_lld_serve_bdma_rx_interrupt,"ax",%progbits
 1309              		.align	1
ARM GAS  C:\Users\DEVELO~1\AppData\Local\Temp\cc5EUJSb.s 			page 24


 1310              		.p2align 4,,15
 1311              		.syntax unified
 1312              		.thumb
 1313              		.thumb_func
 1314              		.type	spi_lld_serve_bdma_rx_interrupt, %function
 1315              	spi_lld_serve_bdma_rx_interrupt:
 1316              	.LVL64:
 1317              	.LFB437:
 1318              		.loc 1 269 78 view -0
 1319              		.cfi_startproc
 1320              		@ args = 0, pretend = 0, frame = 0
 1321              		@ frame_needed = 0, uses_anonymous_args = 0
 1322              		.loc 1 272 3 view .LVU401
 1323              		.loc 1 269 78 is_stmt 0 view .LVU402
 1324 0000 70B5     		push	{r4, r5, r6, lr}
 1325              		.cfi_def_cfa_offset 16
 1326              		.cfi_offset 4, -16
 1327              		.cfi_offset 5, -12
 1328              		.cfi_offset 6, -8
 1329              		.cfi_offset 14, -4
 1330              		.loc 1 269 78 view .LVU403
 1331 0002 0D46     		mov	r5, r1
 1332              		.loc 1 272 6 view .LVU404
 1333 0004 0907     		lsls	r1, r1, #28
 1334              	.LVL65:
 1335              		.loc 1 269 78 view .LVU405
 1336 0006 0446     		mov	r4, r0
 1337              		.loc 1 272 6 view .LVU406
 1338 0008 2DD4     		bmi	.L124
 1339              	.LVL66:
 1340              	.L94:
 1341              		.loc 1 281 5 is_stmt 1 discriminator 4 view .LVU407
 1342              		.loc 1 281 51 discriminator 4 view .LVU408
 1343              		.loc 1 284 3 discriminator 4 view .LVU409
 1344              		.loc 1 284 11 is_stmt 0 discriminator 4 view .LVU410
 1345 000a 6668     		ldr	r6, [r4, #4]
 1346              		.loc 1 284 6 discriminator 4 view .LVU411
 1347 000c 3378     		ldrb	r3, [r6]	@ zero_extendqisi2
 1348 000e 93B1     		cbz	r3, .L96
 1349              		.loc 1 285 5 is_stmt 1 view .LVU412
 1350              		.loc 1 285 8 is_stmt 0 view .LVU413
 1351 0010 6A07     		lsls	r2, r5, #29
 1352 0012 03D5     		bpl	.L97
 1353              		.loc 1 287 7 is_stmt 1 view .LVU414
 1354 0014 7368     		ldr	r3, [r6, #4]
 1355 0016 6BB1     		cbz	r3, .L93
 1356              		.loc 1 287 7 discriminator 1 view .LVU415
 1357 0018 2046     		mov	r0, r4
 1358 001a 9847     		blx	r3
 1359              	.LVL67:
 1360              	.L97:
 1361              		.loc 1 287 32 discriminator 3 view .LVU416
 1362              		.loc 1 289 5 discriminator 3 view .LVU417
 1363              		.loc 1 289 8 is_stmt 0 discriminator 3 view .LVU418
 1364 001c AB07     		lsls	r3, r5, #30
 1365 001e 09D5     		bpl	.L93
 1366              		.loc 1 291 7 is_stmt 1 view .LVU419
ARM GAS  C:\Users\DEVELO~1\AppData\Local\Temp\cc5EUJSb.s 			page 25


 1367 0020 6368     		ldr	r3, [r4, #4]
 1368 0022 5B68     		ldr	r3, [r3, #4]
 1369 0024 33B1     		cbz	r3, .L93
 1370              		.loc 1 291 7 discriminator 1 view .LVU420
 1371 0026 0422     		movs	r2, #4
 1372 0028 2046     		mov	r0, r4
 1373 002a 2270     		strb	r2, [r4]
 1374              		.loc 1 291 7 discriminator 1 view .LVU421
 1375 002c 9847     		blx	r3
 1376              	.LVL68:
 1377              		.loc 1 291 7 discriminator 1 view .LVU422
 1378 002e 2378     		ldrb	r3, [r4]	@ zero_extendqisi2
 1379 0030 042B     		cmp	r3, #4
 1380 0032 30D0     		beq	.L125
 1381              	.L93:
 1382              		.loc 1 301 1 is_stmt 0 view .LVU423
 1383 0034 70BD     		pop	{r4, r5, r6, pc}
 1384              	.LVL69:
 1385              	.L96:
 1386              		.loc 1 296 5 is_stmt 1 view .LVU424
 1387              		.loc 1 296 12 is_stmt 0 view .LVU425
 1388 0036 2046     		mov	r0, r4
 1389 0038 FFF7FEFF 		bl	spi_lld_stop_nicely
 1390              	.LVL70:
 1391              		.loc 1 299 5 is_stmt 1 view .LVU426
 1392 003c 7368     		ldr	r3, [r6, #4]
 1393 003e 6BB3     		cbz	r3, .L100
 1394              		.loc 1 299 5 discriminator 1 view .LVU427
 1395 0040 0422     		movs	r2, #4
 1396 0042 2046     		mov	r0, r4
 1397 0044 2270     		strb	r2, [r4]
 1398              		.loc 1 299 5 discriminator 1 view .LVU428
 1399 0046 9847     		blx	r3
 1400              	.LVL71:
 1401              		.loc 1 299 5 discriminator 1 view .LVU429
 1402 0048 2378     		ldrb	r3, [r4]	@ zero_extendqisi2
 1403 004a 042B     		cmp	r3, #4
 1404 004c 26D0     		beq	.L100
 1405              	.L101:
 1406              		.loc 1 299 5 discriminator 4 view .LVU430
 1407              	.LBB383:
 1408              	.LBI383:
 1409              		.loc 3 595 20 discriminator 4 view .LVU431
 1410              		.loc 3 597 3 discriminator 4 view .LVU432
 1411              	.LBB384:
 1412              	.LBI384:
 1413              		.loc 4 451 20 discriminator 4 view .LVU433
 1414              		.loc 4 453 3 discriminator 4 view .LVU434
 1415              	.LBB385:
 1416              	.LBI385:
 1417              		.loc 5 862 27 discriminator 4 view .LVU435
 1418              		.loc 5 864 3 discriminator 4 view .LVU436
 1419              	.LBB386:
 1420              	.LBI386:
 1421              		.loc 5 823 27 discriminator 4 view .LVU437
 1422              		.loc 5 831 3 discriminator 4 view .LVU438
 1423              	.LVL72:
ARM GAS  C:\Users\DEVELO~1\AppData\Local\Temp\cc5EUJSb.s 			page 26


 1424              	.LBB387:
 1425              	.LBI387:
 1426              		.loc 6 491 27 discriminator 4 view .LVU439
 1427              	.LBB388:
 1428              		.loc 6 493 3 discriminator 4 view .LVU440
 1429 004e 3023     		movs	r3, #48
 1430              		.syntax unified
 1431              	@ 493 "../../../os/common/ext/ARM/CMSIS/Core/Include/cmsis_gcc.h" 1
 1432 0050 83F31188 		MSR basepri, r3
 1433              	@ 0 "" 2
 1434              	.LVL73:
 1435              		.loc 6 493 3 is_stmt 0 discriminator 4 view .LVU441
 1436              		.thumb
 1437              		.syntax unified
 1438              	.LBE388:
 1439              	.LBE387:
 1440              	.LBE386:
 1441              	.LBE385:
 1442              		.loc 4 454 35 is_stmt 1 discriminator 4 view .LVU442
 1443              		.loc 4 455 30 discriminator 4 view .LVU443
 1444              	.LBE384:
 1445              	.LBE383:
 1446              		.loc 1 299 5 discriminator 4 view .LVU444
 1447              	.LBB389:
 1448              	.LBI389:
 1449              		.loc 3 837 20 discriminator 4 view .LVU445
 1450              	.LBB390:
 1451              		.loc 3 839 3 discriminator 4 view .LVU446
 1452 0054 0021     		movs	r1, #0
 1453 0056 04F10800 		add	r0, r4, #8
 1454              	.LVL74:
 1455              		.loc 3 839 3 is_stmt 0 discriminator 4 view .LVU447
 1456 005a FFF7FEFF 		bl	chThdResumeI
 1457              	.LVL75:
 1458              		.loc 3 839 3 discriminator 4 view .LVU448
 1459              	.LBE390:
 1460              	.LBE389:
 1461              		.loc 1 299 5 is_stmt 1 discriminator 4 view .LVU449
 1462              	.LBB391:
 1463              	.LBI391:
 1464              		.loc 3 606 20 discriminator 4 view .LVU450
 1465              	.LBB392:
 1466              		.loc 3 608 3 discriminator 4 view .LVU451
 1467              	.LBB393:
 1468              	.LBI393:
 1469              		.loc 4 473 20 discriminator 4 view .LVU452
 1470              		.loc 4 475 32 discriminator 4 view .LVU453
 1471              		.loc 4 476 34 discriminator 4 view .LVU454
 1472              		.loc 4 477 3 discriminator 4 view .LVU455
 1473              	.LBB394:
 1474              	.LBI394:
 1475              		.loc 5 873 27 discriminator 4 view .LVU456
 1476              		.loc 5 875 3 discriminator 4 view .LVU457
 1477              	.LBB395:
 1478              	.LBI395:
 1479              		.loc 5 847 27 discriminator 4 view .LVU458
 1480              		.loc 5 850 3 discriminator 4 view .LVU459
ARM GAS  C:\Users\DEVELO~1\AppData\Local\Temp\cc5EUJSb.s 			page 27


 1481              	.LBB396:
 1482              	.LBI396:
 1483              		.loc 6 491 27 discriminator 4 view .LVU460
 1484              	.LBB397:
 1485              		.loc 6 493 3 discriminator 4 view .LVU461
 1486 005e 0023     		movs	r3, #0
 1487              		.syntax unified
 1488              	@ 493 "../../../os/common/ext/ARM/CMSIS/Core/Include/cmsis_gcc.h" 1
 1489 0060 83F31188 		MSR basepri, r3
 1490              	@ 0 "" 2
 1491              	.LVL76:
 1492              		.loc 6 493 3 is_stmt 0 discriminator 4 view .LVU462
 1493              		.thumb
 1494              		.syntax unified
 1495              	.LBE397:
 1496              	.LBE396:
 1497              	.LBE395:
 1498              	.LBE394:
 1499              	.LBE393:
 1500              	.LBE392:
 1501              	.LBE391:
 1502              		.loc 1 299 5 is_stmt 1 discriminator 4 view .LVU463
 1503              		.loc 1 299 34 discriminator 4 view .LVU464
 1504              		.loc 1 301 1 is_stmt 0 discriminator 4 view .LVU465
 1505 0064 70BD     		pop	{r4, r5, r6, pc}
 1506              	.LVL77:
 1507              	.L124:
 1508              		.loc 1 274 5 is_stmt 1 view .LVU466
 1509              	.LBB398:
 1510              	.LBI398:
 1511              		.loc 3 542 20 view .LVU467
 1512              	.LBB399:
 1513              		.loc 3 544 3 view .LVU468
 1514 0066 0F48     		ldr	r0, .L126
 1515              	.LVL78:
 1516              		.loc 3 544 3 is_stmt 0 view .LVU469
 1517 0068 FFF7FEFF 		bl	chSysHalt
 1518              	.LVL79:
 1519              		.loc 3 544 3 view .LVU470
 1520              	.LBE399:
 1521              	.LBE398:
 1522              		.loc 1 278 5 is_stmt 1 view .LVU471
 1523 006c 2046     		mov	r0, r4
 1524 006e FFF7FEFF 		bl	spi_lld_stop_abort
 1525              	.LVL80:
 1526              		.loc 1 281 5 view .LVU472
 1527 0072 6368     		ldr	r3, [r4, #4]
 1528 0074 9B68     		ldr	r3, [r3, #8]
 1529 0076 0BB1     		cbz	r3, .L95
 1530              		.loc 1 281 5 discriminator 1 view .LVU473
 1531 0078 2046     		mov	r0, r4
 1532 007a 9847     		blx	r3
 1533              	.LVL81:
 1534              	.L95:
 1535              		.loc 1 281 5 discriminator 3 view .LVU474
 1536              	.LBB400:
 1537              	.LBI400:
ARM GAS  C:\Users\DEVELO~1\AppData\Local\Temp\cc5EUJSb.s 			page 28


 1538              		.loc 3 595 20 discriminator 3 view .LVU475
 1539              		.loc 3 597 3 discriminator 3 view .LVU476
 1540              	.LBB401:
 1541              	.LBI401:
 1542              		.loc 4 451 20 discriminator 3 view .LVU477
 1543              		.loc 4 453 3 discriminator 3 view .LVU478
 1544              	.LBB402:
 1545              	.LBI402:
 1546              		.loc 5 862 27 discriminator 3 view .LVU479
 1547              		.loc 5 864 3 discriminator 3 view .LVU480
 1548              	.LBB403:
 1549              	.LBI403:
 1550              		.loc 5 823 27 discriminator 3 view .LVU481
 1551              		.loc 5 831 3 discriminator 3 view .LVU482
 1552              	.LBB404:
 1553              	.LBI404:
 1554              		.loc 6 491 27 discriminator 3 view .LVU483
 1555              	.LBB405:
 1556              		.loc 6 493 3 discriminator 3 view .LVU484
 1557 007c 3023     		movs	r3, #48
 1558              		.syntax unified
 1559              	@ 493 "../../../os/common/ext/ARM/CMSIS/Core/Include/cmsis_gcc.h" 1
 1560 007e 83F31188 		MSR basepri, r3
 1561              	@ 0 "" 2
 1562              	.LVL82:
 1563              		.loc 6 493 3 is_stmt 0 discriminator 3 view .LVU485
 1564              		.thumb
 1565              		.syntax unified
 1566              	.LBE405:
 1567              	.LBE404:
 1568              	.LBE403:
 1569              	.LBE402:
 1570              		.loc 4 454 35 is_stmt 1 discriminator 3 view .LVU486
 1571              		.loc 4 455 30 discriminator 3 view .LVU487
 1572              	.LBE401:
 1573              	.LBE400:
 1574              		.loc 1 281 5 discriminator 3 view .LVU488
 1575              	.LBB406:
 1576              	.LBI406:
 1577              		.loc 3 837 20 discriminator 3 view .LVU489
 1578              	.LBB407:
 1579              		.loc 3 839 3 discriminator 3 view .LVU490
 1580 0082 6FF01201 		mvn	r1, #18
 1581 0086 04F10800 		add	r0, r4, #8
 1582              	.LVL83:
 1583              		.loc 3 839 3 is_stmt 0 discriminator 3 view .LVU491
 1584 008a FFF7FEFF 		bl	chThdResumeI
 1585              	.LVL84:
 1586              		.loc 3 839 3 discriminator 3 view .LVU492
 1587              	.LBE407:
 1588              	.LBE406:
 1589              		.loc 1 281 5 is_stmt 1 discriminator 3 view .LVU493
 1590              	.LBB408:
 1591              	.LBI408:
 1592              		.loc 3 606 20 discriminator 3 view .LVU494
 1593              	.LBB409:
 1594              		.loc 3 608 3 discriminator 3 view .LVU495
ARM GAS  C:\Users\DEVELO~1\AppData\Local\Temp\cc5EUJSb.s 			page 29


 1595              	.LBB410:
 1596              	.LBI410:
 1597              		.loc 4 473 20 discriminator 3 view .LVU496
 1598              		.loc 4 475 32 discriminator 3 view .LVU497
 1599              		.loc 4 476 34 discriminator 3 view .LVU498
 1600              		.loc 4 477 3 discriminator 3 view .LVU499
 1601              	.LBB411:
 1602              	.LBI411:
 1603              		.loc 5 873 27 discriminator 3 view .LVU500
 1604              		.loc 5 875 3 discriminator 3 view .LVU501
 1605              	.LBB412:
 1606              	.LBI412:
 1607              		.loc 5 847 27 discriminator 3 view .LVU502
 1608              		.loc 5 850 3 discriminator 3 view .LVU503
 1609              	.LBB413:
 1610              	.LBI413:
 1611              		.loc 6 491 27 discriminator 3 view .LVU504
 1612              	.LBB414:
 1613              		.loc 6 493 3 discriminator 3 view .LVU505
 1614 008e 0023     		movs	r3, #0
 1615              		.syntax unified
 1616              	@ 493 "../../../os/common/ext/ARM/CMSIS/Core/Include/cmsis_gcc.h" 1
 1617 0090 83F31188 		MSR basepri, r3
 1618              	@ 0 "" 2
 1619              	.LVL85:
 1620              		.loc 6 493 3 is_stmt 0 discriminator 3 view .LVU506
 1621              		.thumb
 1622              		.syntax unified
 1623              	.LBE414:
 1624              	.LBE413:
 1625              	.LBE412:
 1626              	.LBE411:
 1627              	.LBE410:
 1628              		.loc 3 609 1 discriminator 3 view .LVU507
 1629 0094 B9E7     		b	.L94
 1630              	.L125:
 1631              		.loc 3 609 1 discriminator 3 view .LVU508
 1632              	.LBE409:
 1633              	.LBE408:
 1634              		.loc 1 291 7 is_stmt 1 discriminator 3 view .LVU509
 1635 0096 0323     		movs	r3, #3
 1636 0098 2370     		strb	r3, [r4]
 1637              		.loc 1 301 1 is_stmt 0 discriminator 3 view .LVU510
 1638 009a 70BD     		pop	{r4, r5, r6, pc}
 1639              	.LVL86:
 1640              	.L100:
 1641              		.loc 1 299 5 is_stmt 1 discriminator 3 view .LVU511
 1642 009c 0223     		movs	r3, #2
 1643 009e 2370     		strb	r3, [r4]
 1644 00a0 D5E7     		b	.L101
 1645              	.L127:
 1646 00a2 00BF     		.align	2
 1647              	.L126:
 1648 00a4 00000000 		.word	.LC0
 1649              		.cfi_endproc
 1650              	.LFE437:
 1651              		.size	spi_lld_serve_bdma_rx_interrupt, .-spi_lld_serve_bdma_rx_interrupt
ARM GAS  C:\Users\DEVELO~1\AppData\Local\Temp\cc5EUJSb.s 			page 30


 1652              		.section	.text.VectorCC,"ax",%progbits
 1653              		.align	1
 1654              		.p2align 4,,15
 1655              		.global	VectorCC
 1656              		.syntax unified
 1657              		.thumb
 1658              		.thumb_func
 1659              		.type	VectorCC, %function
 1660              	VectorCC:
 1661              	.LFB444:
 1662              		.loc 1 489 38 view -0
 1663              		.cfi_startproc
 1664              		@ args = 0, pretend = 0, frame = 0
 1665              		@ frame_needed = 0, uses_anonymous_args = 0
 1666              		.loc 1 491 3 view .LVU513
 1667              		.loc 1 491 3 view .LVU514
 1668              		.loc 1 491 3 view .LVU515
 1669              		.loc 1 491 3 view .LVU516
 1670              		.loc 1 491 3 view .LVU517
 1671              		.loc 1 489 38 is_stmt 0 view .LVU518
 1672 0000 10B5     		push	{r4, lr}
 1673              		.cfi_def_cfa_offset 8
 1674              		.cfi_offset 4, -8
 1675              		.cfi_offset 14, -4
 1676              	.LBB434:
 1677              	.LBB435:
 1678              		.loc 1 398 12 view .LVU519
 1679 0002 164C     		ldr	r4, .L139
 1680              	.LBE435:
 1681              	.LBE434:
 1682              		.loc 1 491 3 view .LVU520
 1683 0004 1648     		ldr	r0, .L139+4
 1684 0006 FFF7FEFF 		bl	__trace_isr_enter
 1685              	.LVL87:
 1686              		.loc 1 491 22 is_stmt 1 view .LVU521
 1687              		.loc 1 493 3 view .LVU522
 1688              	.LBB454:
 1689              	.LBI434:
 1690              		.loc 1 395 13 view .LVU523
 1691              	.LBB452:
 1692              		.loc 1 396 3 view .LVU524
 1693              		.loc 1 398 3 view .LVU525
 1694              		.loc 1 398 12 is_stmt 0 view .LVU526
 1695 000a E269     		ldr	r2, [r4, #28]
 1696              		.loc 1 398 17 view .LVU527
 1697 000c 5369     		ldr	r3, [r2, #20]
 1698              		.loc 1 398 33 view .LVU528
 1699 000e 1169     		ldr	r1, [r2, #16]
 1700              		.loc 1 398 6 view .LVU529
 1701 0010 0B40     		ands	r3, r3, r1
 1702              	.LVL88:
 1703              		.loc 1 399 3 is_stmt 1 view .LVU530
 1704              		.loc 1 399 19 is_stmt 0 view .LVU531
 1705 0012 9361     		str	r3, [r2, #24]
 1706              		.loc 1 401 3 is_stmt 1 view .LVU532
 1707              		.loc 1 401 6 is_stmt 0 view .LVU533
 1708 0014 5B06     		lsls	r3, r3, #25
ARM GAS  C:\Users\DEVELO~1\AppData\Local\Temp\cc5EUJSb.s 			page 31


 1709              	.LVL89:
 1710              		.loc 1 401 6 view .LVU534
 1711 0016 06D4     		bmi	.L138
 1712              		.loc 1 407 5 is_stmt 1 view .LVU535
 1713              		.loc 1 407 51 view .LVU536
 1714              	.LVL90:
 1715              		.loc 1 407 51 is_stmt 0 view .LVU537
 1716              	.LBE452:
 1717              	.LBE454:
 1718              		.loc 1 495 3 is_stmt 1 view .LVU538
 1719              		.loc 1 495 3 view .LVU539
 1720 0018 1148     		ldr	r0, .L139+4
 1721 001a FFF7FEFF 		bl	__trace_isr_leave
 1722              	.LVL91:
 1723              		.loc 1 495 3 view .LVU540
 1724              		.loc 1 495 3 view .LVU541
 1725              		.loc 1 495 3 view .LVU542
 1726              		.loc 1 496 1 is_stmt 0 view .LVU543
 1727 001e BDE81040 		pop	{r4, lr}
 1728              		.cfi_remember_state
 1729              		.cfi_restore 14
 1730              		.cfi_restore 4
 1731              		.cfi_def_cfa_offset 0
 1732              		.loc 1 495 3 view .LVU544
 1733 0022 FFF7FEBF 		b	__port_irq_epilogue
 1734              	.LVL92:
 1735              	.L138:
 1736              		.cfi_restore_state
 1737              	.LBB455:
 1738              	.LBB453:
 1739              	.LBB436:
 1740              	.LBI436:
 1741              		.loc 1 395 13 is_stmt 1 view .LVU545
 1742              	.LBB437:
 1743              		.loc 1 404 5 view .LVU546
 1744 0026 2046     		mov	r0, r4
 1745 0028 FFF7FEFF 		bl	spi_lld_stop_abort
 1746              	.LVL93:
 1747              		.loc 1 407 5 view .LVU547
 1748 002c 6368     		ldr	r3, [r4, #4]
 1749 002e 9B68     		ldr	r3, [r3, #8]
 1750 0030 0BB1     		cbz	r3, .L130
 1751              		.loc 1 407 5 view .LVU548
 1752 0032 2046     		mov	r0, r4
 1753 0034 9847     		blx	r3
 1754              	.LVL94:
 1755              	.L130:
 1756              		.loc 1 407 5 view .LVU549
 1757              	.LBB438:
 1758              	.LBI438:
 1759              		.loc 3 595 20 view .LVU550
 1760              		.loc 3 597 3 view .LVU551
 1761              	.LBB439:
 1762              	.LBI439:
 1763              		.loc 4 451 20 view .LVU552
 1764              		.loc 4 453 3 view .LVU553
 1765              	.LBB440:
ARM GAS  C:\Users\DEVELO~1\AppData\Local\Temp\cc5EUJSb.s 			page 32


 1766              	.LBI440:
 1767              		.loc 5 862 27 view .LVU554
 1768              		.loc 5 864 3 view .LVU555
 1769              	.LBB441:
 1770              	.LBI441:
 1771              		.loc 5 823 27 view .LVU556
 1772              		.loc 5 831 3 view .LVU557
 1773              	.LBB442:
 1774              	.LBI442:
 1775              		.loc 6 491 27 view .LVU558
 1776              	.LBB443:
 1777              		.loc 6 493 3 view .LVU559
 1778 0036 3023     		movs	r3, #48
 1779              		.syntax unified
 1780              	@ 493 "../../../os/common/ext/ARM/CMSIS/Core/Include/cmsis_gcc.h" 1
 1781 0038 83F31188 		MSR basepri, r3
 1782              	@ 0 "" 2
 1783              	.LVL95:
 1784              		.loc 6 493 3 is_stmt 0 view .LVU560
 1785              		.thumb
 1786              		.syntax unified
 1787              	.LBE443:
 1788              	.LBE442:
 1789              	.LBE441:
 1790              	.LBE440:
 1791              		.loc 4 454 35 is_stmt 1 view .LVU561
 1792              		.loc 4 455 30 view .LVU562
 1793              	.LBE439:
 1794              	.LBE438:
 1795              		.loc 1 407 5 view .LVU563
 1796              	.LBB444:
 1797              	.LBI444:
 1798              		.loc 3 837 20 view .LVU564
 1799              	.LBB445:
 1800              		.loc 3 839 3 view .LVU565
 1801 003c 6FF01201 		mvn	r1, #18
 1802 0040 0848     		ldr	r0, .L139+8
 1803 0042 FFF7FEFF 		bl	chThdResumeI
 1804              	.LVL96:
 1805              		.loc 3 839 3 is_stmt 0 view .LVU566
 1806              	.LBE445:
 1807              	.LBE444:
 1808              		.loc 1 407 5 is_stmt 1 view .LVU567
 1809              	.LBB446:
 1810              	.LBI446:
 1811              		.loc 3 606 20 view .LVU568
 1812              		.loc 3 608 3 view .LVU569
 1813              	.LBB447:
 1814              	.LBI447:
 1815              		.loc 4 473 20 view .LVU570
 1816              		.loc 4 475 32 view .LVU571
 1817              		.loc 4 476 34 view .LVU572
 1818              		.loc 4 477 3 view .LVU573
 1819              	.LBB448:
 1820              	.LBI448:
 1821              		.loc 5 873 27 view .LVU574
 1822              		.loc 5 875 3 view .LVU575
ARM GAS  C:\Users\DEVELO~1\AppData\Local\Temp\cc5EUJSb.s 			page 33


 1823              	.LBB449:
 1824              	.LBI449:
 1825              		.loc 5 847 27 view .LVU576
 1826              		.loc 5 850 3 view .LVU577
 1827              	.LBB450:
 1828              	.LBI450:
 1829              		.loc 6 491 27 view .LVU578
 1830              	.LBB451:
 1831              		.loc 6 493 3 view .LVU579
 1832 0046 0023     		movs	r3, #0
 1833              		.syntax unified
 1834              	@ 493 "../../../os/common/ext/ARM/CMSIS/Core/Include/cmsis_gcc.h" 1
 1835 0048 83F31188 		MSR basepri, r3
 1836              	@ 0 "" 2
 1837              	.LVL97:
 1838              		.loc 6 493 3 is_stmt 0 view .LVU580
 1839              		.thumb
 1840              		.syntax unified
 1841              	.LBE451:
 1842              	.LBE450:
 1843              	.LBE449:
 1844              	.LBE448:
 1845              	.LBE447:
 1846              	.LBE446:
 1847              		.loc 1 407 5 is_stmt 1 view .LVU581
 1848              		.loc 1 407 51 view .LVU582
 1849              		.loc 1 407 51 is_stmt 0 view .LVU583
 1850              	.LBE437:
 1851              	.LBE436:
 1852              		.loc 1 407 5 is_stmt 1 view .LVU584
 1853              		.loc 1 407 51 view .LVU585
 1854              		.loc 1 407 51 is_stmt 0 view .LVU586
 1855              	.LBE453:
 1856              	.LBE455:
 1857              		.loc 1 495 3 is_stmt 1 view .LVU587
 1858              		.loc 1 495 3 view .LVU588
 1859 004c 0448     		ldr	r0, .L139+4
 1860 004e FFF7FEFF 		bl	__trace_isr_leave
 1861              	.LVL98:
 1862              		.loc 1 495 3 view .LVU589
 1863              		.loc 1 495 3 view .LVU590
 1864              		.loc 1 495 3 view .LVU591
 1865              		.loc 1 496 1 is_stmt 0 view .LVU592
 1866 0052 BDE81040 		pop	{r4, lr}
 1867              		.cfi_restore 14
 1868              		.cfi_restore 4
 1869              		.cfi_def_cfa_offset 0
 1870              		.loc 1 495 3 view .LVU593
 1871 0056 FFF7FEBF 		b	__port_irq_epilogue
 1872              	.LVL99:
 1873              	.L140:
 1874 005a 00BF     		.align	2
 1875              	.L139:
 1876 005c 00000000 		.word	.LANCHOR0
 1877 0060 00000000 		.word	.LANCHOR5
 1878 0064 08000000 		.word	.LANCHOR0+8
 1879              		.cfi_endproc
ARM GAS  C:\Users\DEVELO~1\AppData\Local\Temp\cc5EUJSb.s 			page 34


 1880              	.LFE444:
 1881              		.size	VectorCC, .-VectorCC
 1882              		.section	.text.VectorD0,"ax",%progbits
 1883              		.align	1
 1884              		.p2align 4,,15
 1885              		.global	VectorD0
 1886              		.syntax unified
 1887              		.thumb
 1888              		.thumb_func
 1889              		.type	VectorD0, %function
 1890              	VectorD0:
 1891              	.LFB445:
 1892              		.loc 1 510 38 is_stmt 1 view -0
 1893              		.cfi_startproc
 1894              		@ args = 0, pretend = 0, frame = 0
 1895              		@ frame_needed = 0, uses_anonymous_args = 0
 1896              		.loc 1 512 3 view .LVU595
 1897              		.loc 1 512 3 view .LVU596
 1898              		.loc 1 512 3 view .LVU597
 1899              		.loc 1 512 3 view .LVU598
 1900              		.loc 1 512 3 view .LVU599
 1901              		.loc 1 510 38 is_stmt 0 view .LVU600
 1902 0000 10B5     		push	{r4, lr}
 1903              		.cfi_def_cfa_offset 8
 1904              		.cfi_offset 4, -8
 1905              		.cfi_offset 14, -4
 1906              	.LBB475:
 1907              	.LBB476:
 1908              		.loc 1 398 12 view .LVU601
 1909 0002 164C     		ldr	r4, .L152
 1910              	.LBE476:
 1911              	.LBE475:
 1912              		.loc 1 512 3 view .LVU602
 1913 0004 1648     		ldr	r0, .L152+4
 1914 0006 FFF7FEFF 		bl	__trace_isr_enter
 1915              	.LVL100:
 1916              		.loc 1 512 22 is_stmt 1 view .LVU603
 1917              		.loc 1 514 3 view .LVU604
 1918              	.LBB495:
 1919              	.LBI475:
 1920              		.loc 1 395 13 view .LVU605
 1921              	.LBB493:
 1922              		.loc 1 396 3 view .LVU606
 1923              		.loc 1 398 3 view .LVU607
 1924              		.loc 1 398 12 is_stmt 0 view .LVU608
 1925 000a E269     		ldr	r2, [r4, #28]
 1926              		.loc 1 398 17 view .LVU609
 1927 000c 5369     		ldr	r3, [r2, #20]
 1928              		.loc 1 398 33 view .LVU610
 1929 000e 1169     		ldr	r1, [r2, #16]
 1930              		.loc 1 398 6 view .LVU611
 1931 0010 0B40     		ands	r3, r3, r1
 1932              	.LVL101:
 1933              		.loc 1 399 3 is_stmt 1 view .LVU612
 1934              		.loc 1 399 19 is_stmt 0 view .LVU613
 1935 0012 9361     		str	r3, [r2, #24]
 1936              		.loc 1 401 3 is_stmt 1 view .LVU614
ARM GAS  C:\Users\DEVELO~1\AppData\Local\Temp\cc5EUJSb.s 			page 35


 1937              		.loc 1 401 6 is_stmt 0 view .LVU615
 1938 0014 5B06     		lsls	r3, r3, #25
 1939              	.LVL102:
 1940              		.loc 1 401 6 view .LVU616
 1941 0016 06D4     		bmi	.L151
 1942              		.loc 1 407 5 is_stmt 1 view .LVU617
 1943              		.loc 1 407 51 view .LVU618
 1944              	.LVL103:
 1945              		.loc 1 407 51 is_stmt 0 view .LVU619
 1946              	.LBE493:
 1947              	.LBE495:
 1948              		.loc 1 516 3 is_stmt 1 view .LVU620
 1949              		.loc 1 516 3 view .LVU621
 1950 0018 1148     		ldr	r0, .L152+4
 1951 001a FFF7FEFF 		bl	__trace_isr_leave
 1952              	.LVL104:
 1953              		.loc 1 516 3 view .LVU622
 1954              		.loc 1 516 3 view .LVU623
 1955              		.loc 1 516 3 view .LVU624
 1956              		.loc 1 517 1 is_stmt 0 view .LVU625
 1957 001e BDE81040 		pop	{r4, lr}
 1958              		.cfi_remember_state
 1959              		.cfi_restore 14
 1960              		.cfi_restore 4
 1961              		.cfi_def_cfa_offset 0
 1962              		.loc 1 516 3 view .LVU626
 1963 0022 FFF7FEBF 		b	__port_irq_epilogue
 1964              	.LVL105:
 1965              	.L151:
 1966              		.cfi_restore_state
 1967              	.LBB496:
 1968              	.LBB494:
 1969              	.LBB477:
 1970              	.LBI477:
 1971              		.loc 1 395 13 is_stmt 1 view .LVU627
 1972              	.LBB478:
 1973              		.loc 1 404 5 view .LVU628
 1974 0026 2046     		mov	r0, r4
 1975 0028 FFF7FEFF 		bl	spi_lld_stop_abort
 1976              	.LVL106:
 1977              		.loc 1 407 5 view .LVU629
 1978 002c 6368     		ldr	r3, [r4, #4]
 1979 002e 9B68     		ldr	r3, [r3, #8]
 1980 0030 0BB1     		cbz	r3, .L143
 1981              		.loc 1 407 5 view .LVU630
 1982 0032 2046     		mov	r0, r4
 1983 0034 9847     		blx	r3
 1984              	.LVL107:
 1985              	.L143:
 1986              		.loc 1 407 5 view .LVU631
 1987              	.LBB479:
 1988              	.LBI479:
 1989              		.loc 3 595 20 view .LVU632
 1990              		.loc 3 597 3 view .LVU633
 1991              	.LBB480:
 1992              	.LBI480:
 1993              		.loc 4 451 20 view .LVU634
ARM GAS  C:\Users\DEVELO~1\AppData\Local\Temp\cc5EUJSb.s 			page 36


 1994              		.loc 4 453 3 view .LVU635
 1995              	.LBB481:
 1996              	.LBI481:
 1997              		.loc 5 862 27 view .LVU636
 1998              		.loc 5 864 3 view .LVU637
 1999              	.LBB482:
 2000              	.LBI482:
 2001              		.loc 5 823 27 view .LVU638
 2002              		.loc 5 831 3 view .LVU639
 2003              	.LBB483:
 2004              	.LBI483:
 2005              		.loc 6 491 27 view .LVU640
 2006              	.LBB484:
 2007              		.loc 6 493 3 view .LVU641
 2008 0036 3023     		movs	r3, #48
 2009              		.syntax unified
 2010              	@ 493 "../../../os/common/ext/ARM/CMSIS/Core/Include/cmsis_gcc.h" 1
 2011 0038 83F31188 		MSR basepri, r3
 2012              	@ 0 "" 2
 2013              	.LVL108:
 2014              		.loc 6 493 3 is_stmt 0 view .LVU642
 2015              		.thumb
 2016              		.syntax unified
 2017              	.LBE484:
 2018              	.LBE483:
 2019              	.LBE482:
 2020              	.LBE481:
 2021              		.loc 4 454 35 is_stmt 1 view .LVU643
 2022              		.loc 4 455 30 view .LVU644
 2023              	.LBE480:
 2024              	.LBE479:
 2025              		.loc 1 407 5 view .LVU645
 2026              	.LBB485:
 2027              	.LBI485:
 2028              		.loc 3 837 20 view .LVU646
 2029              	.LBB486:
 2030              		.loc 3 839 3 view .LVU647
 2031 003c 6FF01201 		mvn	r1, #18
 2032 0040 0848     		ldr	r0, .L152+8
 2033 0042 FFF7FEFF 		bl	chThdResumeI
 2034              	.LVL109:
 2035              		.loc 3 839 3 is_stmt 0 view .LVU648
 2036              	.LBE486:
 2037              	.LBE485:
 2038              		.loc 1 407 5 is_stmt 1 view .LVU649
 2039              	.LBB487:
 2040              	.LBI487:
 2041              		.loc 3 606 20 view .LVU650
 2042              		.loc 3 608 3 view .LVU651
 2043              	.LBB488:
 2044              	.LBI488:
 2045              		.loc 4 473 20 view .LVU652
 2046              		.loc 4 475 32 view .LVU653
 2047              		.loc 4 476 34 view .LVU654
 2048              		.loc 4 477 3 view .LVU655
 2049              	.LBB489:
 2050              	.LBI489:
ARM GAS  C:\Users\DEVELO~1\AppData\Local\Temp\cc5EUJSb.s 			page 37


 2051              		.loc 5 873 27 view .LVU656
 2052              		.loc 5 875 3 view .LVU657
 2053              	.LBB490:
 2054              	.LBI490:
 2055              		.loc 5 847 27 view .LVU658
 2056              		.loc 5 850 3 view .LVU659
 2057              	.LBB491:
 2058              	.LBI491:
 2059              		.loc 6 491 27 view .LVU660
 2060              	.LBB492:
 2061              		.loc 6 493 3 view .LVU661
 2062 0046 0023     		movs	r3, #0
 2063              		.syntax unified
 2064              	@ 493 "../../../os/common/ext/ARM/CMSIS/Core/Include/cmsis_gcc.h" 1
 2065 0048 83F31188 		MSR basepri, r3
 2066              	@ 0 "" 2
 2067              	.LVL110:
 2068              		.loc 6 493 3 is_stmt 0 view .LVU662
 2069              		.thumb
 2070              		.syntax unified
 2071              	.LBE492:
 2072              	.LBE491:
 2073              	.LBE490:
 2074              	.LBE489:
 2075              	.LBE488:
 2076              	.LBE487:
 2077              		.loc 1 407 5 is_stmt 1 view .LVU663
 2078              		.loc 1 407 51 view .LVU664
 2079              		.loc 1 407 51 is_stmt 0 view .LVU665
 2080              	.LBE478:
 2081              	.LBE477:
 2082              		.loc 1 407 5 is_stmt 1 view .LVU666
 2083              		.loc 1 407 51 view .LVU667
 2084              		.loc 1 407 51 is_stmt 0 view .LVU668
 2085              	.LBE494:
 2086              	.LBE496:
 2087              		.loc 1 516 3 is_stmt 1 view .LVU669
 2088              		.loc 1 516 3 view .LVU670
 2089 004c 0448     		ldr	r0, .L152+4
 2090 004e FFF7FEFF 		bl	__trace_isr_leave
 2091              	.LVL111:
 2092              		.loc 1 516 3 view .LVU671
 2093              		.loc 1 516 3 view .LVU672
 2094              		.loc 1 516 3 view .LVU673
 2095              		.loc 1 517 1 is_stmt 0 view .LVU674
 2096 0052 BDE81040 		pop	{r4, lr}
 2097              		.cfi_restore 14
 2098              		.cfi_restore 4
 2099              		.cfi_def_cfa_offset 0
 2100              		.loc 1 516 3 view .LVU675
 2101 0056 FFF7FEBF 		b	__port_irq_epilogue
 2102              	.LVL112:
 2103              	.L153:
 2104 005a 00BF     		.align	2
 2105              	.L152:
 2106 005c 00000000 		.word	.LANCHOR1
 2107 0060 00000000 		.word	.LANCHOR6
ARM GAS  C:\Users\DEVELO~1\AppData\Local\Temp\cc5EUJSb.s 			page 38


 2108 0064 08000000 		.word	.LANCHOR1+8
 2109              		.cfi_endproc
 2110              	.LFE445:
 2111              		.size	VectorD0, .-VectorD0
 2112              		.section	.text.Vector10C,"ax",%progbits
 2113              		.align	1
 2114              		.p2align 4,,15
 2115              		.global	Vector10C
 2116              		.syntax unified
 2117              		.thumb
 2118              		.thumb_func
 2119              		.type	Vector10C, %function
 2120              	Vector10C:
 2121              	.LFB446:
 2122              		.loc 1 531 38 is_stmt 1 view -0
 2123              		.cfi_startproc
 2124              		@ args = 0, pretend = 0, frame = 0
 2125              		@ frame_needed = 0, uses_anonymous_args = 0
 2126              		.loc 1 533 3 view .LVU677
 2127              		.loc 1 533 3 view .LVU678
 2128              		.loc 1 533 3 view .LVU679
 2129              		.loc 1 533 3 view .LVU680
 2130              		.loc 1 533 3 view .LVU681
 2131              		.loc 1 531 38 is_stmt 0 view .LVU682
 2132 0000 10B5     		push	{r4, lr}
 2133              		.cfi_def_cfa_offset 8
 2134              		.cfi_offset 4, -8
 2135              		.cfi_offset 14, -4
 2136              	.LBB516:
 2137              	.LBB517:
 2138              		.loc 1 398 12 view .LVU683
 2139 0002 164C     		ldr	r4, .L165
 2140              	.LBE517:
 2141              	.LBE516:
 2142              		.loc 1 533 3 view .LVU684
 2143 0004 1648     		ldr	r0, .L165+4
 2144 0006 FFF7FEFF 		bl	__trace_isr_enter
 2145              	.LVL113:
 2146              		.loc 1 533 22 is_stmt 1 view .LVU685
 2147              		.loc 1 535 3 view .LVU686
 2148              	.LBB536:
 2149              	.LBI516:
 2150              		.loc 1 395 13 view .LVU687
 2151              	.LBB534:
 2152              		.loc 1 396 3 view .LVU688
 2153              		.loc 1 398 3 view .LVU689
 2154              		.loc 1 398 12 is_stmt 0 view .LVU690
 2155 000a E269     		ldr	r2, [r4, #28]
 2156              		.loc 1 398 17 view .LVU691
 2157 000c 5369     		ldr	r3, [r2, #20]
 2158              		.loc 1 398 33 view .LVU692
 2159 000e 1169     		ldr	r1, [r2, #16]
 2160              		.loc 1 398 6 view .LVU693
 2161 0010 0B40     		ands	r3, r3, r1
 2162              	.LVL114:
 2163              		.loc 1 399 3 is_stmt 1 view .LVU694
 2164              		.loc 1 399 19 is_stmt 0 view .LVU695
ARM GAS  C:\Users\DEVELO~1\AppData\Local\Temp\cc5EUJSb.s 			page 39


 2165 0012 9361     		str	r3, [r2, #24]
 2166              		.loc 1 401 3 is_stmt 1 view .LVU696
 2167              		.loc 1 401 6 is_stmt 0 view .LVU697
 2168 0014 5B06     		lsls	r3, r3, #25
 2169              	.LVL115:
 2170              		.loc 1 401 6 view .LVU698
 2171 0016 06D4     		bmi	.L164
 2172              		.loc 1 407 5 is_stmt 1 view .LVU699
 2173              		.loc 1 407 51 view .LVU700
 2174              	.LVL116:
 2175              		.loc 1 407 51 is_stmt 0 view .LVU701
 2176              	.LBE534:
 2177              	.LBE536:
 2178              		.loc 1 537 3 is_stmt 1 view .LVU702
 2179              		.loc 1 537 3 view .LVU703
 2180 0018 1148     		ldr	r0, .L165+4
 2181 001a FFF7FEFF 		bl	__trace_isr_leave
 2182              	.LVL117:
 2183              		.loc 1 537 3 view .LVU704
 2184              		.loc 1 537 3 view .LVU705
 2185              		.loc 1 537 3 view .LVU706
 2186              		.loc 1 538 1 is_stmt 0 view .LVU707
 2187 001e BDE81040 		pop	{r4, lr}
 2188              		.cfi_remember_state
 2189              		.cfi_restore 14
 2190              		.cfi_restore 4
 2191              		.cfi_def_cfa_offset 0
 2192              		.loc 1 537 3 view .LVU708
 2193 0022 FFF7FEBF 		b	__port_irq_epilogue
 2194              	.LVL118:
 2195              	.L164:
 2196              		.cfi_restore_state
 2197              	.LBB537:
 2198              	.LBB535:
 2199              	.LBB518:
 2200              	.LBI518:
 2201              		.loc 1 395 13 is_stmt 1 view .LVU709
 2202              	.LBB519:
 2203              		.loc 1 404 5 view .LVU710
 2204 0026 2046     		mov	r0, r4
 2205 0028 FFF7FEFF 		bl	spi_lld_stop_abort
 2206              	.LVL119:
 2207              		.loc 1 407 5 view .LVU711
 2208 002c 6368     		ldr	r3, [r4, #4]
 2209 002e 9B68     		ldr	r3, [r3, #8]
 2210 0030 0BB1     		cbz	r3, .L156
 2211              		.loc 1 407 5 view .LVU712
 2212 0032 2046     		mov	r0, r4
 2213 0034 9847     		blx	r3
 2214              	.LVL120:
 2215              	.L156:
 2216              		.loc 1 407 5 view .LVU713
 2217              	.LBB520:
 2218              	.LBI520:
 2219              		.loc 3 595 20 view .LVU714
 2220              		.loc 3 597 3 view .LVU715
 2221              	.LBB521:
ARM GAS  C:\Users\DEVELO~1\AppData\Local\Temp\cc5EUJSb.s 			page 40


 2222              	.LBI521:
 2223              		.loc 4 451 20 view .LVU716
 2224              		.loc 4 453 3 view .LVU717
 2225              	.LBB522:
 2226              	.LBI522:
 2227              		.loc 5 862 27 view .LVU718
 2228              		.loc 5 864 3 view .LVU719
 2229              	.LBB523:
 2230              	.LBI523:
 2231              		.loc 5 823 27 view .LVU720
 2232              		.loc 5 831 3 view .LVU721
 2233              	.LBB524:
 2234              	.LBI524:
 2235              		.loc 6 491 27 view .LVU722
 2236              	.LBB525:
 2237              		.loc 6 493 3 view .LVU723
 2238 0036 3023     		movs	r3, #48
 2239              		.syntax unified
 2240              	@ 493 "../../../os/common/ext/ARM/CMSIS/Core/Include/cmsis_gcc.h" 1
 2241 0038 83F31188 		MSR basepri, r3
 2242              	@ 0 "" 2
 2243              	.LVL121:
 2244              		.loc 6 493 3 is_stmt 0 view .LVU724
 2245              		.thumb
 2246              		.syntax unified
 2247              	.LBE525:
 2248              	.LBE524:
 2249              	.LBE523:
 2250              	.LBE522:
 2251              		.loc 4 454 35 is_stmt 1 view .LVU725
 2252              		.loc 4 455 30 view .LVU726
 2253              	.LBE521:
 2254              	.LBE520:
 2255              		.loc 1 407 5 view .LVU727
 2256              	.LBB526:
 2257              	.LBI526:
 2258              		.loc 3 837 20 view .LVU728
 2259              	.LBB527:
 2260              		.loc 3 839 3 view .LVU729
 2261 003c 6FF01201 		mvn	r1, #18
 2262 0040 0848     		ldr	r0, .L165+8
 2263 0042 FFF7FEFF 		bl	chThdResumeI
 2264              	.LVL122:
 2265              		.loc 3 839 3 is_stmt 0 view .LVU730
 2266              	.LBE527:
 2267              	.LBE526:
 2268              		.loc 1 407 5 is_stmt 1 view .LVU731
 2269              	.LBB528:
 2270              	.LBI528:
 2271              		.loc 3 606 20 view .LVU732
 2272              		.loc 3 608 3 view .LVU733
 2273              	.LBB529:
 2274              	.LBI529:
 2275              		.loc 4 473 20 view .LVU734
 2276              		.loc 4 475 32 view .LVU735
 2277              		.loc 4 476 34 view .LVU736
 2278              		.loc 4 477 3 view .LVU737
ARM GAS  C:\Users\DEVELO~1\AppData\Local\Temp\cc5EUJSb.s 			page 41


 2279              	.LBB530:
 2280              	.LBI530:
 2281              		.loc 5 873 27 view .LVU738
 2282              		.loc 5 875 3 view .LVU739
 2283              	.LBB531:
 2284              	.LBI531:
 2285              		.loc 5 847 27 view .LVU740
 2286              		.loc 5 850 3 view .LVU741
 2287              	.LBB532:
 2288              	.LBI532:
 2289              		.loc 6 491 27 view .LVU742
 2290              	.LBB533:
 2291              		.loc 6 493 3 view .LVU743
 2292 0046 0023     		movs	r3, #0
 2293              		.syntax unified
 2294              	@ 493 "../../../os/common/ext/ARM/CMSIS/Core/Include/cmsis_gcc.h" 1
 2295 0048 83F31188 		MSR basepri, r3
 2296              	@ 0 "" 2
 2297              	.LVL123:
 2298              		.loc 6 493 3 is_stmt 0 view .LVU744
 2299              		.thumb
 2300              		.syntax unified
 2301              	.LBE533:
 2302              	.LBE532:
 2303              	.LBE531:
 2304              	.LBE530:
 2305              	.LBE529:
 2306              	.LBE528:
 2307              		.loc 1 407 5 is_stmt 1 view .LVU745
 2308              		.loc 1 407 51 view .LVU746
 2309              		.loc 1 407 51 is_stmt 0 view .LVU747
 2310              	.LBE519:
 2311              	.LBE518:
 2312              		.loc 1 407 5 is_stmt 1 view .LVU748
 2313              		.loc 1 407 51 view .LVU749
 2314              		.loc 1 407 51 is_stmt 0 view .LVU750
 2315              	.LBE535:
 2316              	.LBE537:
 2317              		.loc 1 537 3 is_stmt 1 view .LVU751
 2318              		.loc 1 537 3 view .LVU752
 2319 004c 0448     		ldr	r0, .L165+4
 2320 004e FFF7FEFF 		bl	__trace_isr_leave
 2321              	.LVL124:
 2322              		.loc 1 537 3 view .LVU753
 2323              		.loc 1 537 3 view .LVU754
 2324              		.loc 1 537 3 view .LVU755
 2325              		.loc 1 538 1 is_stmt 0 view .LVU756
 2326 0052 BDE81040 		pop	{r4, lr}
 2327              		.cfi_restore 14
 2328              		.cfi_restore 4
 2329              		.cfi_def_cfa_offset 0
 2330              		.loc 1 537 3 view .LVU757
 2331 0056 FFF7FEBF 		b	__port_irq_epilogue
 2332              	.LVL125:
 2333              	.L166:
 2334 005a 00BF     		.align	2
 2335              	.L165:
ARM GAS  C:\Users\DEVELO~1\AppData\Local\Temp\cc5EUJSb.s 			page 42


 2336 005c 00000000 		.word	.LANCHOR2
 2337 0060 00000000 		.word	.LANCHOR7
 2338 0064 08000000 		.word	.LANCHOR2+8
 2339              		.cfi_endproc
 2340              	.LFE446:
 2341              		.size	Vector10C, .-Vector10C
 2342              		.section	.text.Vector194,"ax",%progbits
 2343              		.align	1
 2344              		.p2align 4,,15
 2345              		.global	Vector194
 2346              		.syntax unified
 2347              		.thumb
 2348              		.thumb_func
 2349              		.type	Vector194, %function
 2350              	Vector194:
 2351              	.LFB447:
 2352              		.loc 1 573 38 is_stmt 1 view -0
 2353              		.cfi_startproc
 2354              		@ args = 0, pretend = 0, frame = 0
 2355              		@ frame_needed = 0, uses_anonymous_args = 0
 2356              		.loc 1 575 3 view .LVU759
 2357              		.loc 1 575 3 view .LVU760
 2358              		.loc 1 575 3 view .LVU761
 2359              		.loc 1 575 3 view .LVU762
 2360              		.loc 1 575 3 view .LVU763
 2361              		.loc 1 573 38 is_stmt 0 view .LVU764
 2362 0000 10B5     		push	{r4, lr}
 2363              		.cfi_def_cfa_offset 8
 2364              		.cfi_offset 4, -8
 2365              		.cfi_offset 14, -4
 2366              	.LBB557:
 2367              	.LBB558:
 2368              		.loc 1 398 12 view .LVU765
 2369 0002 164C     		ldr	r4, .L178
 2370              	.LBE558:
 2371              	.LBE557:
 2372              		.loc 1 575 3 view .LVU766
 2373 0004 1648     		ldr	r0, .L178+4
 2374 0006 FFF7FEFF 		bl	__trace_isr_enter
 2375              	.LVL126:
 2376              		.loc 1 575 22 is_stmt 1 view .LVU767
 2377              		.loc 1 577 3 view .LVU768
 2378              	.LBB577:
 2379              	.LBI557:
 2380              		.loc 1 395 13 view .LVU769
 2381              	.LBB575:
 2382              		.loc 1 396 3 view .LVU770
 2383              		.loc 1 398 3 view .LVU771
 2384              		.loc 1 398 12 is_stmt 0 view .LVU772
 2385 000a E269     		ldr	r2, [r4, #28]
 2386              		.loc 1 398 17 view .LVU773
 2387 000c 5369     		ldr	r3, [r2, #20]
 2388              		.loc 1 398 33 view .LVU774
 2389 000e 1169     		ldr	r1, [r2, #16]
 2390              		.loc 1 398 6 view .LVU775
 2391 0010 0B40     		ands	r3, r3, r1
 2392              	.LVL127:
ARM GAS  C:\Users\DEVELO~1\AppData\Local\Temp\cc5EUJSb.s 			page 43


 2393              		.loc 1 399 3 is_stmt 1 view .LVU776
 2394              		.loc 1 399 19 is_stmt 0 view .LVU777
 2395 0012 9361     		str	r3, [r2, #24]
 2396              		.loc 1 401 3 is_stmt 1 view .LVU778
 2397              		.loc 1 401 6 is_stmt 0 view .LVU779
 2398 0014 5B06     		lsls	r3, r3, #25
 2399              	.LVL128:
 2400              		.loc 1 401 6 view .LVU780
 2401 0016 06D4     		bmi	.L177
 2402              		.loc 1 407 5 is_stmt 1 view .LVU781
 2403              		.loc 1 407 51 view .LVU782
 2404              	.LVL129:
 2405              		.loc 1 407 51 is_stmt 0 view .LVU783
 2406              	.LBE575:
 2407              	.LBE577:
 2408              		.loc 1 579 3 is_stmt 1 view .LVU784
 2409              		.loc 1 579 3 view .LVU785
 2410 0018 1148     		ldr	r0, .L178+4
 2411 001a FFF7FEFF 		bl	__trace_isr_leave
 2412              	.LVL130:
 2413              		.loc 1 579 3 view .LVU786
 2414              		.loc 1 579 3 view .LVU787
 2415              		.loc 1 579 3 view .LVU788
 2416              		.loc 1 580 1 is_stmt 0 view .LVU789
 2417 001e BDE81040 		pop	{r4, lr}
 2418              		.cfi_remember_state
 2419              		.cfi_restore 14
 2420              		.cfi_restore 4
 2421              		.cfi_def_cfa_offset 0
 2422              		.loc 1 579 3 view .LVU790
 2423 0022 FFF7FEBF 		b	__port_irq_epilogue
 2424              	.LVL131:
 2425              	.L177:
 2426              		.cfi_restore_state
 2427              	.LBB578:
 2428              	.LBB576:
 2429              	.LBB559:
 2430              	.LBI559:
 2431              		.loc 1 395 13 is_stmt 1 view .LVU791
 2432              	.LBB560:
 2433              		.loc 1 404 5 view .LVU792
 2434 0026 2046     		mov	r0, r4
 2435 0028 FFF7FEFF 		bl	spi_lld_stop_abort
 2436              	.LVL132:
 2437              		.loc 1 407 5 view .LVU793
 2438 002c 6368     		ldr	r3, [r4, #4]
 2439 002e 9B68     		ldr	r3, [r3, #8]
 2440 0030 0BB1     		cbz	r3, .L169
 2441              		.loc 1 407 5 view .LVU794
 2442 0032 2046     		mov	r0, r4
 2443 0034 9847     		blx	r3
 2444              	.LVL133:
 2445              	.L169:
 2446              		.loc 1 407 5 view .LVU795
 2447              	.LBB561:
 2448              	.LBI561:
 2449              		.loc 3 595 20 view .LVU796
ARM GAS  C:\Users\DEVELO~1\AppData\Local\Temp\cc5EUJSb.s 			page 44


 2450              		.loc 3 597 3 view .LVU797
 2451              	.LBB562:
 2452              	.LBI562:
 2453              		.loc 4 451 20 view .LVU798
 2454              		.loc 4 453 3 view .LVU799
 2455              	.LBB563:
 2456              	.LBI563:
 2457              		.loc 5 862 27 view .LVU800
 2458              		.loc 5 864 3 view .LVU801
 2459              	.LBB564:
 2460              	.LBI564:
 2461              		.loc 5 823 27 view .LVU802
 2462              		.loc 5 831 3 view .LVU803
 2463              	.LBB565:
 2464              	.LBI565:
 2465              		.loc 6 491 27 view .LVU804
 2466              	.LBB566:
 2467              		.loc 6 493 3 view .LVU805
 2468 0036 3023     		movs	r3, #48
 2469              		.syntax unified
 2470              	@ 493 "../../../os/common/ext/ARM/CMSIS/Core/Include/cmsis_gcc.h" 1
 2471 0038 83F31188 		MSR basepri, r3
 2472              	@ 0 "" 2
 2473              	.LVL134:
 2474              		.loc 6 493 3 is_stmt 0 view .LVU806
 2475              		.thumb
 2476              		.syntax unified
 2477              	.LBE566:
 2478              	.LBE565:
 2479              	.LBE564:
 2480              	.LBE563:
 2481              		.loc 4 454 35 is_stmt 1 view .LVU807
 2482              		.loc 4 455 30 view .LVU808
 2483              	.LBE562:
 2484              	.LBE561:
 2485              		.loc 1 407 5 view .LVU809
 2486              	.LBB567:
 2487              	.LBI567:
 2488              		.loc 3 837 20 view .LVU810
 2489              	.LBB568:
 2490              		.loc 3 839 3 view .LVU811
 2491 003c 6FF01201 		mvn	r1, #18
 2492 0040 0848     		ldr	r0, .L178+8
 2493 0042 FFF7FEFF 		bl	chThdResumeI
 2494              	.LVL135:
 2495              		.loc 3 839 3 is_stmt 0 view .LVU812
 2496              	.LBE568:
 2497              	.LBE567:
 2498              		.loc 1 407 5 is_stmt 1 view .LVU813
 2499              	.LBB569:
 2500              	.LBI569:
 2501              		.loc 3 606 20 view .LVU814
 2502              		.loc 3 608 3 view .LVU815
 2503              	.LBB570:
 2504              	.LBI570:
 2505              		.loc 4 473 20 view .LVU816
 2506              		.loc 4 475 32 view .LVU817
ARM GAS  C:\Users\DEVELO~1\AppData\Local\Temp\cc5EUJSb.s 			page 45


 2507              		.loc 4 476 34 view .LVU818
 2508              		.loc 4 477 3 view .LVU819
 2509              	.LBB571:
 2510              	.LBI571:
 2511              		.loc 5 873 27 view .LVU820
 2512              		.loc 5 875 3 view .LVU821
 2513              	.LBB572:
 2514              	.LBI572:
 2515              		.loc 5 847 27 view .LVU822
 2516              		.loc 5 850 3 view .LVU823
 2517              	.LBB573:
 2518              	.LBI573:
 2519              		.loc 6 491 27 view .LVU824
 2520              	.LBB574:
 2521              		.loc 6 493 3 view .LVU825
 2522 0046 0023     		movs	r3, #0
 2523              		.syntax unified
 2524              	@ 493 "../../../os/common/ext/ARM/CMSIS/Core/Include/cmsis_gcc.h" 1
 2525 0048 83F31188 		MSR basepri, r3
 2526              	@ 0 "" 2
 2527              	.LVL136:
 2528              		.loc 6 493 3 is_stmt 0 view .LVU826
 2529              		.thumb
 2530              		.syntax unified
 2531              	.LBE574:
 2532              	.LBE573:
 2533              	.LBE572:
 2534              	.LBE571:
 2535              	.LBE570:
 2536              	.LBE569:
 2537              		.loc 1 407 5 is_stmt 1 view .LVU827
 2538              		.loc 1 407 51 view .LVU828
 2539              		.loc 1 407 51 is_stmt 0 view .LVU829
 2540              	.LBE560:
 2541              	.LBE559:
 2542              		.loc 1 407 5 is_stmt 1 view .LVU830
 2543              		.loc 1 407 51 view .LVU831
 2544              		.loc 1 407 51 is_stmt 0 view .LVU832
 2545              	.LBE576:
 2546              	.LBE578:
 2547              		.loc 1 579 3 is_stmt 1 view .LVU833
 2548              		.loc 1 579 3 view .LVU834
 2549 004c 0448     		ldr	r0, .L178+4
 2550 004e FFF7FEFF 		bl	__trace_isr_leave
 2551              	.LVL137:
 2552              		.loc 1 579 3 view .LVU835
 2553              		.loc 1 579 3 view .LVU836
 2554              		.loc 1 579 3 view .LVU837
 2555              		.loc 1 580 1 is_stmt 0 view .LVU838
 2556 0052 BDE81040 		pop	{r4, lr}
 2557              		.cfi_restore 14
 2558              		.cfi_restore 4
 2559              		.cfi_def_cfa_offset 0
 2560              		.loc 1 579 3 view .LVU839
 2561 0056 FFF7FEBF 		b	__port_irq_epilogue
 2562              	.LVL138:
 2563              	.L179:
ARM GAS  C:\Users\DEVELO~1\AppData\Local\Temp\cc5EUJSb.s 			page 46


 2564 005a 00BF     		.align	2
 2565              	.L178:
 2566 005c 00000000 		.word	.LANCHOR3
 2567 0060 00000000 		.word	.LANCHOR8
 2568 0064 08000000 		.word	.LANCHOR3+8
 2569              		.cfi_endproc
 2570              	.LFE447:
 2571              		.size	Vector194, .-Vector194
 2572              		.section	.text.Vector198,"ax",%progbits
 2573              		.align	1
 2574              		.p2align 4,,15
 2575              		.global	Vector198
 2576              		.syntax unified
 2577              		.thumb
 2578              		.thumb_func
 2579              		.type	Vector198, %function
 2580              	Vector198:
 2581              	.LFB448:
 2582              		.loc 1 594 38 is_stmt 1 view -0
 2583              		.cfi_startproc
 2584              		@ args = 0, pretend = 0, frame = 0
 2585              		@ frame_needed = 0, uses_anonymous_args = 0
 2586              		.loc 1 596 3 view .LVU841
 2587              		.loc 1 596 3 view .LVU842
 2588              		.loc 1 596 3 view .LVU843
 2589              		.loc 1 596 3 view .LVU844
 2590              		.loc 1 596 3 view .LVU845
 2591              		.loc 1 594 38 is_stmt 0 view .LVU846
 2592 0000 10B5     		push	{r4, lr}
 2593              		.cfi_def_cfa_offset 8
 2594              		.cfi_offset 4, -8
 2595              		.cfi_offset 14, -4
 2596              	.LBB598:
 2597              	.LBB599:
 2598              		.loc 1 398 12 view .LVU847
 2599 0002 164C     		ldr	r4, .L191
 2600              	.LBE599:
 2601              	.LBE598:
 2602              		.loc 1 596 3 view .LVU848
 2603 0004 1648     		ldr	r0, .L191+4
 2604 0006 FFF7FEFF 		bl	__trace_isr_enter
 2605              	.LVL139:
 2606              		.loc 1 596 22 is_stmt 1 view .LVU849
 2607              		.loc 1 598 3 view .LVU850
 2608              	.LBB618:
 2609              	.LBI598:
 2610              		.loc 1 395 13 view .LVU851
 2611              	.LBB616:
 2612              		.loc 1 396 3 view .LVU852
 2613              		.loc 1 398 3 view .LVU853
 2614              		.loc 1 398 12 is_stmt 0 view .LVU854
 2615 000a E269     		ldr	r2, [r4, #28]
 2616              		.loc 1 398 17 view .LVU855
 2617 000c 5369     		ldr	r3, [r2, #20]
 2618              		.loc 1 398 33 view .LVU856
 2619 000e 1169     		ldr	r1, [r2, #16]
 2620              		.loc 1 398 6 view .LVU857
ARM GAS  C:\Users\DEVELO~1\AppData\Local\Temp\cc5EUJSb.s 			page 47


 2621 0010 0B40     		ands	r3, r3, r1
 2622              	.LVL140:
 2623              		.loc 1 399 3 is_stmt 1 view .LVU858
 2624              		.loc 1 399 19 is_stmt 0 view .LVU859
 2625 0012 9361     		str	r3, [r2, #24]
 2626              		.loc 1 401 3 is_stmt 1 view .LVU860
 2627              		.loc 1 401 6 is_stmt 0 view .LVU861
 2628 0014 5B06     		lsls	r3, r3, #25
 2629              	.LVL141:
 2630              		.loc 1 401 6 view .LVU862
 2631 0016 06D4     		bmi	.L190
 2632              		.loc 1 407 5 is_stmt 1 view .LVU863
 2633              		.loc 1 407 51 view .LVU864
 2634              	.LVL142:
 2635              		.loc 1 407 51 is_stmt 0 view .LVU865
 2636              	.LBE616:
 2637              	.LBE618:
 2638              		.loc 1 600 3 is_stmt 1 view .LVU866
 2639              		.loc 1 600 3 view .LVU867
 2640 0018 1148     		ldr	r0, .L191+4
 2641 001a FFF7FEFF 		bl	__trace_isr_leave
 2642              	.LVL143:
 2643              		.loc 1 600 3 view .LVU868
 2644              		.loc 1 600 3 view .LVU869
 2645              		.loc 1 600 3 view .LVU870
 2646              		.loc 1 601 1 is_stmt 0 view .LVU871
 2647 001e BDE81040 		pop	{r4, lr}
 2648              		.cfi_remember_state
 2649              		.cfi_restore 14
 2650              		.cfi_restore 4
 2651              		.cfi_def_cfa_offset 0
 2652              		.loc 1 600 3 view .LVU872
 2653 0022 FFF7FEBF 		b	__port_irq_epilogue
 2654              	.LVL144:
 2655              	.L190:
 2656              		.cfi_restore_state
 2657              	.LBB619:
 2658              	.LBB617:
 2659              	.LBB600:
 2660              	.LBI600:
 2661              		.loc 1 395 13 is_stmt 1 view .LVU873
 2662              	.LBB601:
 2663              		.loc 1 404 5 view .LVU874
 2664 0026 2046     		mov	r0, r4
 2665 0028 FFF7FEFF 		bl	spi_lld_stop_abort
 2666              	.LVL145:
 2667              		.loc 1 407 5 view .LVU875
 2668 002c 6368     		ldr	r3, [r4, #4]
 2669 002e 9B68     		ldr	r3, [r3, #8]
 2670 0030 0BB1     		cbz	r3, .L182
 2671              		.loc 1 407 5 view .LVU876
 2672 0032 2046     		mov	r0, r4
 2673 0034 9847     		blx	r3
 2674              	.LVL146:
 2675              	.L182:
 2676              		.loc 1 407 5 view .LVU877
 2677              	.LBB602:
ARM GAS  C:\Users\DEVELO~1\AppData\Local\Temp\cc5EUJSb.s 			page 48


 2678              	.LBI602:
 2679              		.loc 3 595 20 view .LVU878
 2680              		.loc 3 597 3 view .LVU879
 2681              	.LBB603:
 2682              	.LBI603:
 2683              		.loc 4 451 20 view .LVU880
 2684              		.loc 4 453 3 view .LVU881
 2685              	.LBB604:
 2686              	.LBI604:
 2687              		.loc 5 862 27 view .LVU882
 2688              		.loc 5 864 3 view .LVU883
 2689              	.LBB605:
 2690              	.LBI605:
 2691              		.loc 5 823 27 view .LVU884
 2692              		.loc 5 831 3 view .LVU885
 2693              	.LBB606:
 2694              	.LBI606:
 2695              		.loc 6 491 27 view .LVU886
 2696              	.LBB607:
 2697              		.loc 6 493 3 view .LVU887
 2698 0036 3023     		movs	r3, #48
 2699              		.syntax unified
 2700              	@ 493 "../../../os/common/ext/ARM/CMSIS/Core/Include/cmsis_gcc.h" 1
 2701 0038 83F31188 		MSR basepri, r3
 2702              	@ 0 "" 2
 2703              	.LVL147:
 2704              		.loc 6 493 3 is_stmt 0 view .LVU888
 2705              		.thumb
 2706              		.syntax unified
 2707              	.LBE607:
 2708              	.LBE606:
 2709              	.LBE605:
 2710              	.LBE604:
 2711              		.loc 4 454 35 is_stmt 1 view .LVU889
 2712              		.loc 4 455 30 view .LVU890
 2713              	.LBE603:
 2714              	.LBE602:
 2715              		.loc 1 407 5 view .LVU891
 2716              	.LBB608:
 2717              	.LBI608:
 2718              		.loc 3 837 20 view .LVU892
 2719              	.LBB609:
 2720              		.loc 3 839 3 view .LVU893
 2721 003c 6FF01201 		mvn	r1, #18
 2722 0040 0848     		ldr	r0, .L191+8
 2723 0042 FFF7FEFF 		bl	chThdResumeI
 2724              	.LVL148:
 2725              		.loc 3 839 3 is_stmt 0 view .LVU894
 2726              	.LBE609:
 2727              	.LBE608:
 2728              		.loc 1 407 5 is_stmt 1 view .LVU895
 2729              	.LBB610:
 2730              	.LBI610:
 2731              		.loc 3 606 20 view .LVU896
 2732              		.loc 3 608 3 view .LVU897
 2733              	.LBB611:
 2734              	.LBI611:
ARM GAS  C:\Users\DEVELO~1\AppData\Local\Temp\cc5EUJSb.s 			page 49


 2735              		.loc 4 473 20 view .LVU898
 2736              		.loc 4 475 32 view .LVU899
 2737              		.loc 4 476 34 view .LVU900
 2738              		.loc 4 477 3 view .LVU901
 2739              	.LBB612:
 2740              	.LBI612:
 2741              		.loc 5 873 27 view .LVU902
 2742              		.loc 5 875 3 view .LVU903
 2743              	.LBB613:
 2744              	.LBI613:
 2745              		.loc 5 847 27 view .LVU904
 2746              		.loc 5 850 3 view .LVU905
 2747              	.LBB614:
 2748              	.LBI614:
 2749              		.loc 6 491 27 view .LVU906
 2750              	.LBB615:
 2751              		.loc 6 493 3 view .LVU907
 2752 0046 0023     		movs	r3, #0
 2753              		.syntax unified
 2754              	@ 493 "../../../os/common/ext/ARM/CMSIS/Core/Include/cmsis_gcc.h" 1
 2755 0048 83F31188 		MSR basepri, r3
 2756              	@ 0 "" 2
 2757              	.LVL149:
 2758              		.loc 6 493 3 is_stmt 0 view .LVU908
 2759              		.thumb
 2760              		.syntax unified
 2761              	.LBE615:
 2762              	.LBE614:
 2763              	.LBE613:
 2764              	.LBE612:
 2765              	.LBE611:
 2766              	.LBE610:
 2767              		.loc 1 407 5 is_stmt 1 view .LVU909
 2768              		.loc 1 407 51 view .LVU910
 2769              		.loc 1 407 51 is_stmt 0 view .LVU911
 2770              	.LBE601:
 2771              	.LBE600:
 2772              		.loc 1 407 5 is_stmt 1 view .LVU912
 2773              		.loc 1 407 51 view .LVU913
 2774              		.loc 1 407 51 is_stmt 0 view .LVU914
 2775              	.LBE617:
 2776              	.LBE619:
 2777              		.loc 1 600 3 is_stmt 1 view .LVU915
 2778              		.loc 1 600 3 view .LVU916
 2779 004c 0448     		ldr	r0, .L191+4
 2780 004e FFF7FEFF 		bl	__trace_isr_leave
 2781              	.LVL150:
 2782              		.loc 1 600 3 view .LVU917
 2783              		.loc 1 600 3 view .LVU918
 2784              		.loc 1 600 3 view .LVU919
 2785              		.loc 1 601 1 is_stmt 0 view .LVU920
 2786 0052 BDE81040 		pop	{r4, lr}
 2787              		.cfi_restore 14
 2788              		.cfi_restore 4
 2789              		.cfi_def_cfa_offset 0
 2790              		.loc 1 600 3 view .LVU921
 2791 0056 FFF7FEBF 		b	__port_irq_epilogue
ARM GAS  C:\Users\DEVELO~1\AppData\Local\Temp\cc5EUJSb.s 			page 50


 2792              	.LVL151:
 2793              	.L192:
 2794 005a 00BF     		.align	2
 2795              	.L191:
 2796 005c 00000000 		.word	.LANCHOR4
 2797 0060 00000000 		.word	.LANCHOR9
 2798 0064 08000000 		.word	.LANCHOR4+8
 2799              		.cfi_endproc
 2800              	.LFE448:
 2801              		.size	Vector198, .-Vector198
 2802              		.section	.text.spi_lld_init,"ax",%progbits
 2803              		.align	1
 2804              		.p2align 4,,15
 2805              		.global	spi_lld_init
 2806              		.syntax unified
 2807              		.thumb
 2808              		.thumb_func
 2809              		.type	spi_lld_init, %function
 2810              	spi_lld_init:
 2811              	.LFB449:
 2812              		.loc 1 614 25 is_stmt 1 view -0
 2813              		.cfi_startproc
 2814              		@ args = 0, pretend = 0, frame = 0
 2815              		@ frame_needed = 0, uses_anonymous_args = 0
 2816              		.loc 1 617 3 view .LVU923
 2817              		.loc 1 614 25 is_stmt 0 view .LVU924
 2818 0000 2DE9F041 		push	{r4, r5, r6, r7, r8, lr}
 2819              		.cfi_def_cfa_offset 24
 2820              		.cfi_offset 4, -24
 2821              		.cfi_offset 5, -20
 2822              		.cfi_offset 6, -16
 2823              		.cfi_offset 7, -12
 2824              		.cfi_offset 8, -8
 2825              		.cfi_offset 14, -4
 2826              		.loc 1 617 3 view .LVU925
 2827 0004 2D4D     		ldr	r5, .L195
 2828              		.loc 1 620 19 view .LVU926
 2829 0006 0024     		movs	r4, #0
 2830              		.loc 1 624 19 view .LVU927
 2831 0008 DFF8B480 		ldr	r8, .L195+4
 2832              		.loc 1 617 3 view .LVU928
 2833 000c 2846     		mov	r0, r5
 2834              		.loc 1 629 19 view .LVU929
 2835 000e 2D4F     		ldr	r7, .L195+8
 2836              		.loc 1 617 3 view .LVU930
 2837 0010 FFF7FEFF 		bl	spiObjectInit
 2838              	.LVL152:
 2839              		.loc 1 618 3 is_stmt 1 view .LVU931
 2840              		.loc 1 618 19 is_stmt 0 view .LVU932
 2841 0014 2C4B     		ldr	r3, .L195+12
 2842              		.loc 1 620 19 view .LVU933
 2843 0016 85F82040 		strb	r4, [r5, #32]
 2844              		.loc 1 634 3 view .LVU934
 2845 001a 0A21     		movs	r1, #10
 2846              		.loc 1 618 19 view .LVU935
 2847 001c EB61     		str	r3, [r5, #28]
 2848              		.loc 1 620 3 is_stmt 1 view .LVU936
ARM GAS  C:\Users\DEVELO~1\AppData\Local\Temp\cc5EUJSb.s 			page 51


 2849              		.loc 1 622 3 view .LVU937
 2850              		.loc 1 623 3 view .LVU938
 2851              		.loc 1 634 3 is_stmt 0 view .LVU939
 2852 001e 2320     		movs	r0, #35
 2853              		.loc 1 622 19 view .LVU940
 2854 0020 6C62     		str	r4, [r5, #36]
 2855              		.loc 1 629 19 view .LVU941
 2856 0022 2F63     		str	r7, [r5, #48]
 2857              		.loc 1 705 3 view .LVU942
 2858 0024 294E     		ldr	r6, .L195+16
 2859              		.loc 1 624 19 view .LVU943
 2860 0026 C5E90A48 		strd	r4, r8, [r5, #40]
 2861              		.loc 1 629 3 is_stmt 1 view .LVU944
 2862              		.loc 1 634 3 view .LVU945
 2863              		.loc 1 639 3 is_stmt 0 view .LVU946
 2864 002a 294D     		ldr	r5, .L195+20
 2865              		.loc 1 634 3 view .LVU947
 2866 002c FFF7FEFF 		bl	nvicEnableVector
 2867              	.LVL153:
 2868              		.loc 1 639 3 is_stmt 1 view .LVU948
 2869 0030 2846     		mov	r0, r5
 2870 0032 FFF7FEFF 		bl	spiObjectInit
 2871              	.LVL154:
 2872              		.loc 1 640 3 view .LVU949
 2873              		.loc 1 640 19 is_stmt 0 view .LVU950
 2874 0036 274B     		ldr	r3, .L195+24
 2875              		.loc 1 642 19 view .LVU951
 2876 0038 85F82040 		strb	r4, [r5, #32]
 2877              		.loc 1 656 3 view .LVU952
 2878 003c 0A21     		movs	r1, #10
 2879              		.loc 1 640 19 view .LVU953
 2880 003e EB61     		str	r3, [r5, #28]
 2881              		.loc 1 642 3 is_stmt 1 view .LVU954
 2882              		.loc 1 644 3 view .LVU955
 2883              		.loc 1 645 3 view .LVU956
 2884              		.loc 1 656 3 is_stmt 0 view .LVU957
 2885 0040 2420     		movs	r0, #36
 2886              		.loc 1 644 19 view .LVU958
 2887 0042 6C62     		str	r4, [r5, #36]
 2888              		.loc 1 651 19 view .LVU959
 2889 0044 2F63     		str	r7, [r5, #48]
 2890              		.loc 1 646 19 view .LVU960
 2891 0046 C5E90A48 		strd	r4, r8, [r5, #40]
 2892              		.loc 1 651 3 is_stmt 1 view .LVU961
 2893              		.loc 1 656 3 view .LVU962
 2894              		.loc 1 661 3 is_stmt 0 view .LVU963
 2895 004a 234D     		ldr	r5, .L195+28
 2896              		.loc 1 656 3 view .LVU964
 2897 004c FFF7FEFF 		bl	nvicEnableVector
 2898              	.LVL155:
 2899              		.loc 1 661 3 is_stmt 1 view .LVU965
 2900 0050 2846     		mov	r0, r5
 2901 0052 FFF7FEFF 		bl	spiObjectInit
 2902              	.LVL156:
 2903              		.loc 1 662 3 view .LVU966
 2904              		.loc 1 662 19 is_stmt 0 view .LVU967
 2905 0056 214B     		ldr	r3, .L195+32
ARM GAS  C:\Users\DEVELO~1\AppData\Local\Temp\cc5EUJSb.s 			page 52


 2906              		.loc 1 678 3 view .LVU968
 2907 0058 0A21     		movs	r1, #10
 2908 005a 3320     		movs	r0, #51
 2909              		.loc 1 662 19 view .LVU969
 2910 005c EB61     		str	r3, [r5, #28]
 2911              		.loc 1 664 3 is_stmt 1 view .LVU970
 2912              		.loc 1 666 3 view .LVU971
 2913              		.loc 1 667 3 view .LVU972
 2914              		.loc 1 664 19 is_stmt 0 view .LVU973
 2915 005e 85F82040 		strb	r4, [r5, #32]
 2916              		.loc 1 666 19 view .LVU974
 2917 0062 6C62     		str	r4, [r5, #36]
 2918              		.loc 1 673 19 view .LVU975
 2919 0064 2F63     		str	r7, [r5, #48]
 2920              		.loc 1 668 19 view .LVU976
 2921 0066 C5E90A48 		strd	r4, r8, [r5, #40]
 2922              		.loc 1 673 3 is_stmt 1 view .LVU977
 2923              		.loc 1 678 3 view .LVU978
 2924 006a FFF7FEFF 		bl	nvicEnableVector
 2925              	.LVL157:
 2926              		.loc 1 705 3 view .LVU979
 2927 006e 3046     		mov	r0, r6
 2928 0070 FFF7FEFF 		bl	spiObjectInit
 2929              	.LVL158:
 2930              		.loc 1 706 3 view .LVU980
 2931              		.loc 1 727 3 is_stmt 0 view .LVU981
 2932 0074 1A4D     		ldr	r5, .L195+36
 2933              		.loc 1 706 19 view .LVU982
 2934 0076 1B4B     		ldr	r3, .L195+40
 2935              		.loc 1 722 3 view .LVU983
 2936 0078 0A21     		movs	r1, #10
 2937 007a 5520     		movs	r0, #85
 2938              		.loc 1 708 19 view .LVU984
 2939 007c 86F82040 		strb	r4, [r6, #32]
 2940              		.loc 1 706 19 view .LVU985
 2941 0080 F361     		str	r3, [r6, #28]
 2942              		.loc 1 708 3 is_stmt 1 view .LVU986
 2943              		.loc 1 710 3 view .LVU987
 2944              		.loc 1 711 3 view .LVU988
 2945              		.loc 1 710 19 is_stmt 0 view .LVU989
 2946 0082 7462     		str	r4, [r6, #36]
 2947              		.loc 1 717 19 view .LVU990
 2948 0084 3763     		str	r7, [r6, #48]
 2949              		.loc 1 712 19 view .LVU991
 2950 0086 C6E90A48 		strd	r4, r8, [r6, #40]
 2951              		.loc 1 717 3 is_stmt 1 view .LVU992
 2952              		.loc 1 722 3 view .LVU993
 2953 008a FFF7FEFF 		bl	nvicEnableVector
 2954              	.LVL159:
 2955              		.loc 1 727 3 view .LVU994
 2956 008e 2846     		mov	r0, r5
 2957 0090 FFF7FEFF 		bl	spiObjectInit
 2958              	.LVL160:
 2959              		.loc 1 728 3 view .LVU995
 2960              		.loc 1 730 19 is_stmt 0 view .LVU996
 2961 0094 0123     		movs	r3, #1
 2962              		.loc 1 728 19 view .LVU997
ARM GAS  C:\Users\DEVELO~1\AppData\Local\Temp\cc5EUJSb.s 			page 53


 2963 0096 1449     		ldr	r1, .L195+44
 2964              		.loc 1 734 19 view .LVU998
 2965 0098 41F20A02 		movw	r2, #4106
 2966              		.loc 1 730 19 view .LVU999
 2967 009c 85F82030 		strb	r3, [r5, #32]
 2968              		.loc 1 738 19 view .LVU1000
 2969 00a0 41F21803 		movw	r3, #4120
 2970              		.loc 1 728 19 view .LVU1001
 2971 00a4 E961     		str	r1, [r5, #28]
 2972              		.loc 1 730 3 is_stmt 1 view .LVU1002
 2973              		.loc 1 732 3 view .LVU1003
 2974              		.loc 1 733 3 view .LVU1004
 2975              		.loc 1 742 3 is_stmt 0 view .LVU1005
 2976 00a6 5620     		movs	r0, #86
 2977              		.loc 1 732 19 view .LVU1006
 2978 00a8 6C62     		str	r4, [r5, #36]
 2979              		.loc 1 742 3 view .LVU1007
 2980 00aa 0A21     		movs	r1, #10
 2981              		.loc 1 738 19 view .LVU1008
 2982 00ac 2B63     		str	r3, [r5, #48]
 2983              		.loc 1 734 19 view .LVU1009
 2984 00ae C5E90A42 		strd	r4, r2, [r5, #40]
 2985              		.loc 1 738 3 is_stmt 1 view .LVU1010
 2986              		.loc 1 742 3 view .LVU1011
 2987              		.loc 1 745 1 is_stmt 0 view .LVU1012
 2988 00b2 BDE8F041 		pop	{r4, r5, r6, r7, r8, lr}
 2989              		.cfi_restore 14
 2990              		.cfi_restore 8
 2991              		.cfi_restore 7
 2992              		.cfi_restore 6
 2993              		.cfi_restore 5
 2994              		.cfi_restore 4
 2995              		.cfi_def_cfa_offset 0
 2996              		.loc 1 742 3 view .LVU1013
 2997 00b6 FFF7FEBF 		b	nvicEnableVector
 2998              	.LVL161:
 2999              	.L196:
 3000 00ba 00BF     		.align	2
 3001              	.L195:
 3002 00bc 00000000 		.word	.LANCHOR0
 3003 00c0 16000100 		.word	65558
 3004 00c4 46000100 		.word	65606
 3005 00c8 00300140 		.word	1073819648
 3006 00cc 00000000 		.word	.LANCHOR3
 3007 00d0 00000000 		.word	.LANCHOR1
 3008 00d4 00380040 		.word	1073756160
 3009 00d8 00000000 		.word	.LANCHOR2
 3010 00dc 003C0040 		.word	1073757184
 3011 00e0 00000000 		.word	.LANCHOR4
 3012 00e4 00500140 		.word	1073827840
 3013 00e8 00140058 		.word	1476400128
 3014              		.cfi_endproc
 3015              	.LFE449:
 3016              		.size	spi_lld_init, .-spi_lld_init
 3017              		.section	.text.spi_lld_start,"ax",%progbits
 3018              		.align	1
 3019              		.p2align 4,,15
ARM GAS  C:\Users\DEVELO~1\AppData\Local\Temp\cc5EUJSb.s 			page 54


 3020              		.global	spi_lld_start
 3021              		.syntax unified
 3022              		.thumb
 3023              		.thumb_func
 3024              		.type	spi_lld_start, %function
 3025              	spi_lld_start:
 3026              	.LVL162:
 3027              	.LFB450:
 3028              		.loc 1 755 38 is_stmt 1 view -0
 3029              		.cfi_startproc
 3030              		@ args = 0, pretend = 0, frame = 0
 3031              		@ frame_needed = 0, uses_anonymous_args = 0
 3032              		.loc 1 756 3 view .LVU1015
 3033              		.loc 1 757 3 view .LVU1016
 3034              		.loc 1 760 3 view .LVU1017
 3035              		.loc 1 755 38 is_stmt 0 view .LVU1018
 3036 0000 10B5     		push	{r4, lr}
 3037              		.cfi_def_cfa_offset 8
 3038              		.cfi_offset 4, -8
 3039              		.cfi_offset 14, -4
 3040              		.loc 1 763 6 view .LVU1019
 3041 0002 0378     		ldrb	r3, [r0]	@ zero_extendqisi2
 3042              		.loc 1 760 18 view .LVU1020
 3043 0004 4FF0FF32 		mov	r2, #-1
 3044              		.loc 1 755 38 view .LVU1021
 3045 0008 0446     		mov	r4, r0
 3046              		.loc 1 763 6 view .LVU1022
 3047 000a 012B     		cmp	r3, #1
 3048              		.loc 1 760 18 view .LVU1023
 3049 000c 8263     		str	r2, [r0, #56]
 3050              		.loc 1 763 3 is_stmt 1 view .LVU1024
 3051              		.loc 1 763 6 is_stmt 0 view .LVU1025
 3052 000e 20D0     		beq	.L244
 3053              		.loc 1 892 61 is_stmt 1 discriminator 1 view .LVU1026
 3054              		.loc 1 898 3 discriminator 1 view .LVU1027
 3055              		.loc 1 898 16 is_stmt 0 discriminator 1 view .LVU1028
 3056 0010 4068     		ldr	r0, [r0, #4]
 3057              	.LVL163:
 3058              		.loc 1 900 6 discriminator 1 view .LVU1029
 3059 0012 94F82020 		ldrb	r2, [r4, #32]	@ zero_extendqisi2
 3060              		.loc 1 898 31 discriminator 1 view .LVU1030
 3061 0016 4369     		ldr	r3, [r0, #20]
 3062 0018 03F01F03 		and	r3, r3, #31
 3063              		.loc 1 898 9 discriminator 1 view .LVU1031
 3064 001c 0133     		adds	r3, r3, #1
 3065              	.LVL164:
 3066              		.loc 1 900 3 is_stmt 1 discriminator 1 view .LVU1032
 3067              		.loc 1 900 6 is_stmt 0 discriminator 1 view .LVU1033
 3068 001e 002A     		cmp	r2, #0
 3069 0020 77D1     		bne	.L213
 3070              	.L214:
 3071              		.loc 1 940 5 is_stmt 1 view .LVU1034
 3072              		.loc 1 940 8 is_stmt 0 view .LVU1035
 3073 0022 082B     		cmp	r3, #8
 3074              		.loc 1 943 49 view .LVU1036
 3075 0024 E26A     		ldr	r2, [r4, #44]
 3076              		.loc 1 940 8 view .LVU1037
ARM GAS  C:\Users\DEVELO~1\AppData\Local\Temp\cc5EUJSb.s 			page 55


 3077 0026 00F29980 		bhi	.L220
 3078              		.loc 1 942 7 is_stmt 1 view .LVU1038
 3079              		.loc 1 945 49 is_stmt 0 view .LVU1039
 3080 002a 236B     		ldr	r3, [r4, #48]
 3081              	.LVL165:
 3082              		.loc 1 943 49 view .LVU1040
 3083 002c 22F4F042 		bic	r2, r2, #30720
 3084              		.loc 1 944 7 is_stmt 1 view .LVU1041
 3085              		.loc 1 945 49 is_stmt 0 view .LVU1042
 3086 0030 23F4F043 		bic	r3, r3, #30720
 3087              	.L221:
 3088              		.loc 1 961 5 is_stmt 1 view .LVU1043
 3089              		.loc 1 961 8 is_stmt 0 view .LVU1044
 3090 0034 0178     		ldrb	r1, [r0]	@ zero_extendqisi2
 3091 0036 0029     		cmp	r1, #0
 3092 0038 00F08B80 		beq	.L223
 3093              		.loc 1 962 7 is_stmt 1 view .LVU1045
 3094              		.loc 1 962 23 is_stmt 0 view .LVU1046
 3095 003c 42F48472 		orr	r2, r2, #264
 3096              		.loc 1 963 7 is_stmt 1 view .LVU1047
 3097              		.loc 1 963 23 is_stmt 0 view .LVU1048
 3098 0040 43F48473 		orr	r3, r3, #264
 3099              	.L219:
 3100              		.loc 1 973 3 view .LVU1049
 3101 0044 E169     		ldr	r1, [r4, #28]
 3102              		.loc 1 931 23 view .LVU1050
 3103 0046 C4E90B23 		strd	r2, r3, [r4, #44]
 3104              		.loc 1 973 3 is_stmt 1 view .LVU1051
 3105 004a FFF7FEFF 		bl	spi_lld_configure.isra.0
 3106              	.LVL166:
 3107              		.loc 1 975 3 view .LVU1052
 3108              		.loc 1 975 10 is_stmt 0 view .LVU1053
 3109 004e 0020     		movs	r0, #0
 3110              		.loc 1 976 1 view .LVU1054
 3111 0050 10BD     		pop	{r4, pc}
 3112              	.LVL167:
 3113              	.L244:
 3114              		.loc 1 766 5 is_stmt 1 view .LVU1055
 3115              		.loc 1 770 10 view .LVU1056
 3116              		.loc 1 770 13 is_stmt 0 view .LVU1057
 3117 0052 C94B     		ldr	r3, .L250
 3118 0054 9842     		cmp	r0, r3
 3119 0056 00F0A280 		beq	.L245
 3120              		.loc 1 787 10 is_stmt 1 view .LVU1058
 3121              		.loc 1 787 13 is_stmt 0 view .LVU1059
 3122 005a C84B     		ldr	r3, .L250+4
 3123 005c 9842     		cmp	r0, r3
 3124 005e 00F01281 		beq	.L246
 3125              		.loc 1 804 10 is_stmt 1 view .LVU1060
 3126              		.loc 1 804 13 is_stmt 0 view .LVU1061
 3127 0062 C74B     		ldr	r3, .L250+8
 3128 0064 9842     		cmp	r0, r3
 3129 0066 00F0D480 		beq	.L247
 3130              		.loc 1 838 10 is_stmt 1 view .LVU1062
 3131              		.loc 1 838 13 is_stmt 0 view .LVU1063
 3132 006a C64B     		ldr	r3, .L250+12
 3133 006c 9842     		cmp	r0, r3
ARM GAS  C:\Users\DEVELO~1\AppData\Local\Temp\cc5EUJSb.s 			page 56


 3134 006e 00F04281 		beq	.L248
 3135              		.loc 1 855 10 is_stmt 1 view .LVU1064
 3136              		.loc 1 855 13 is_stmt 0 view .LVU1065
 3137 0072 C54B     		ldr	r3, .L250+16
 3138 0074 9842     		cmp	r0, r3
 3139 0076 40F07581 		bne	.L224
 3140              		.loc 1 856 7 is_stmt 1 view .LVU1066
 3141              	.LBB660:
 3142              	.LBI660:
 3143              		.loc 1 453 14 view .LVU1067
 3144              	.LVL168:
 3145              	.LBB661:
 3146              		.loc 1 456 3 view .LVU1068
 3147              		.loc 1 456 19 is_stmt 0 view .LVU1069
 3148 007a 0346     		mov	r3, r0
 3149 007c C34A     		ldr	r2, .L250+20
 3150 007e 0A21     		movs	r1, #10
 3151 0080 0820     		movs	r0, #8
 3152              	.LVL169:
 3153              		.loc 1 456 19 view .LVU1070
 3154 0082 FFF7FEFF 		bl	bdmaStreamAllocI
 3155              	.LVL170:
 3156              		.loc 1 456 17 view .LVU1071
 3157 0086 6062     		str	r0, [r4, #36]
 3158              		.loc 1 459 3 is_stmt 1 view .LVU1072
 3159              		.loc 1 459 6 is_stmt 0 view .LVU1073
 3160 0088 0028     		cmp	r0, #0
 3161 008a 00F07181 		beq	.L241
 3162              		.loc 1 463 3 is_stmt 1 view .LVU1074
 3163              		.loc 1 463 19 is_stmt 0 view .LVU1075
 3164 008e 2346     		mov	r3, r4
 3165 0090 BF4A     		ldr	r2, .L250+24
 3166 0092 0A21     		movs	r1, #10
 3167 0094 0820     		movs	r0, #8
 3168 0096 FFF7FEFF 		bl	bdmaStreamAllocI
 3169              	.LVL171:
 3170              		.loc 1 463 17 view .LVU1076
 3171 009a A062     		str	r0, [r4, #40]
 3172              		.loc 1 466 3 is_stmt 1 view .LVU1077
 3173              		.loc 1 466 6 is_stmt 0 view .LVU1078
 3174 009c 0028     		cmp	r0, #0
 3175 009e 00F06481 		beq	.L249
 3176              	.LVL172:
 3177              		.loc 1 466 6 view .LVU1079
 3178              	.LBE661:
 3179              	.LBE660:
 3180              		.loc 1 860 7 is_stmt 1 view .LVU1080
 3181              		.loc 1 863 7 view .LVU1081
 3182 00a2 0B21     		movs	r1, #11
 3183 00a4 606A     		ldr	r0, [r4, #36]
 3184 00a6 FFF7FEFF 		bl	bdmaSetRequestSource
 3185              	.LVL173:
 3186              		.loc 1 864 7 view .LVU1082
 3187 00aa 0C21     		movs	r1, #12
 3188 00ac A06A     		ldr	r0, [r4, #40]
 3189 00ae FFF7FEFF 		bl	bdmaSetRequestSource
 3190              	.LVL174:
ARM GAS  C:\Users\DEVELO~1\AppData\Local\Temp\cc5EUJSb.s 			page 57


 3191              		.loc 1 866 7 view .LVU1083
 3192              	.LBB664:
 3193              	.LBI664:
 3194              		.loc 2 497 22 view .LVU1084
 3195              	.LBB665:
 3196              		.loc 2 501 3 view .LVU1085
 3197              		.loc 2 501 19 is_stmt 0 view .LVU1086
 3198 00b2 B84B     		ldr	r3, .L250+28
 3199 00b4 D3F8F420 		ldr	r2, [r3, #244]
 3200 00b8 42F02002 		orr	r2, r2, #32
 3201 00bc C3F8F420 		str	r2, [r3, #244]
 3202              		.loc 2 502 3 is_stmt 1 view .LVU1087
 3203              		.loc 2 503 5 view .LVU1088
 3204              		.loc 2 503 23 is_stmt 0 view .LVU1089
 3205 00c0 D3F81C21 		ldr	r2, [r3, #284]
 3206 00c4 42F02002 		orr	r2, r2, #32
 3207 00c8 C3F81C21 		str	r2, [r3, #284]
 3208              		.loc 2 508 3 is_stmt 1 view .LVU1090
 3209 00cc D3F81C21 		ldr	r2, [r3, #284]
 3210              	.LVL175:
 3211              		.loc 2 508 3 is_stmt 0 view .LVU1091
 3212              	.LBE665:
 3213              	.LBE664:
 3214              		.loc 1 867 7 is_stmt 1 view .LVU1092
 3215              	.LBB666:
 3216              	.LBI666:
 3217              		.loc 2 563 22 view .LVU1093
 3218              	.LBB667:
 3219              		.loc 2 575 3 view .LVU1094
 3220              	.LBB668:
 3221              	.LBI668:
 3222              		.loc 2 89 22 view .LVU1095
 3223              	.LBB669:
 3224              		.loc 2 92 3 view .LVU1096
 3225              		.loc 2 92 17 is_stmt 0 view .LVU1097
 3226 00d0 D3F89C20 		ldr	r2, [r3, #156]
 3227 00d4 42F02002 		orr	r2, r2, #32
 3228 00d8 C3F89C20 		str	r2, [r3, #156]
 3229              		.loc 2 93 3 is_stmt 1 view .LVU1098
 3230              		.loc 2 93 17 is_stmt 0 view .LVU1099
 3231 00dc D3F89C20 		ldr	r2, [r3, #156]
 3232 00e0 22F02002 		bic	r2, r2, #32
 3233 00e4 C3F89C20 		str	r2, [r3, #156]
 3234              		.loc 2 94 3 is_stmt 1 view .LVU1100
 3235 00e8 D3F89C30 		ldr	r3, [r3, #156]
 3236              	.LVL176:
 3237              	.L203:
 3238              		.loc 2 94 3 is_stmt 0 view .LVU1101
 3239              	.LBE669:
 3240              	.LBE668:
 3241              	.LBE667:
 3242              	.LBE666:
 3243              		.loc 1 878 5 is_stmt 1 view .LVU1102
 3244              		.loc 1 882 7 is_stmt 0 view .LVU1103
 3245 00ec E269     		ldr	r2, [r4, #28]
 3246              		.loc 1 878 8 view .LVU1104
 3247 00ee 94F82030 		ldrb	r3, [r4, #32]	@ zero_extendqisi2
ARM GAS  C:\Users\DEVELO~1\AppData\Local\Temp\cc5EUJSb.s 			page 58


 3248              		.loc 1 882 7 view .LVU1105
 3249 00f2 02F13001 		add	r1, r2, #48
 3250              		.loc 1 898 16 view .LVU1106
 3251 00f6 6068     		ldr	r0, [r4, #4]
 3252              		.loc 1 883 7 view .LVU1107
 3253 00f8 2032     		adds	r2, r2, #32
 3254              		.loc 1 878 8 view .LVU1108
 3255 00fa 002B     		cmp	r3, #0
 3256 00fc 44D0     		beq	.L212
 3257              		.loc 1 882 7 is_stmt 1 view .LVU1109
 3258 00fe 636A     		ldr	r3, [r4, #36]
 3259 0100 5B68     		ldr	r3, [r3, #4]
 3260 0102 9960     		str	r1, [r3, #8]
 3261              		.loc 1 882 63 view .LVU1110
 3262              		.loc 1 883 7 view .LVU1111
 3263              		.loc 1 898 31 is_stmt 0 view .LVU1112
 3264 0104 4369     		ldr	r3, [r0, #20]
 3265              		.loc 1 883 7 view .LVU1113
 3266 0106 A16A     		ldr	r1, [r4, #40]
 3267              		.loc 1 898 31 view .LVU1114
 3268 0108 03F01F03 		and	r3, r3, #31
 3269              		.loc 1 883 7 view .LVU1115
 3270 010c 4968     		ldr	r1, [r1, #4]
 3271              		.loc 1 898 9 view .LVU1116
 3272 010e 0133     		adds	r3, r3, #1
 3273              		.loc 1 883 7 view .LVU1117
 3274 0110 8A60     		str	r2, [r1, #8]
 3275              		.loc 1 883 63 is_stmt 1 view .LVU1118
 3276              		.loc 1 892 61 view .LVU1119
 3277              		.loc 1 898 3 view .LVU1120
 3278              	.LVL177:
 3279              		.loc 1 900 3 view .LVU1121
 3280              	.L213:
 3281              		.loc 1 904 5 view .LVU1122
 3282              		.loc 1 904 8 is_stmt 0 view .LVU1123
 3283 0112 082B     		cmp	r3, #8
 3284              		.loc 1 907 50 view .LVU1124
 3285 0114 E26A     		ldr	r2, [r4, #44]
 3286              		.loc 1 904 8 view .LVU1125
 3287 0116 10D8     		bhi	.L215
 3288              		.loc 1 906 7 is_stmt 1 view .LVU1126
 3289              		.loc 1 909 50 is_stmt 0 view .LVU1127
 3290 0118 236B     		ldr	r3, [r4, #48]
 3291              	.LVL178:
 3292              		.loc 1 907 50 view .LVU1128
 3293 011a 22F47062 		bic	r2, r2, #3840
 3294              		.loc 1 908 7 is_stmt 1 view .LVU1129
 3295              		.loc 1 909 50 is_stmt 0 view .LVU1130
 3296 011e 23F47063 		bic	r3, r3, #3840
 3297              	.L216:
 3298              		.loc 1 925 5 is_stmt 1 view .LVU1131
 3299              		.loc 1 925 8 is_stmt 0 view .LVU1132
 3300 0122 0178     		ldrb	r1, [r0]	@ zero_extendqisi2
 3301 0124 21B1     		cbz	r1, .L218
 3302              		.loc 1 926 7 is_stmt 1 view .LVU1133
 3303              		.loc 1 926 23 is_stmt 0 view .LVU1134
 3304 0126 42F02402 		orr	r2, r2, #36
ARM GAS  C:\Users\DEVELO~1\AppData\Local\Temp\cc5EUJSb.s 			page 59


 3305              		.loc 1 927 7 is_stmt 1 view .LVU1135
 3306              		.loc 1 927 23 is_stmt 0 view .LVU1136
 3307 012a 43F02403 		orr	r3, r3, #36
 3308 012e 89E7     		b	.L219
 3309              	.L218:
 3310              		.loc 1 930 7 is_stmt 1 view .LVU1137
 3311              		.loc 1 930 23 is_stmt 0 view .LVU1138
 3312 0130 22F02402 		bic	r2, r2, #36
 3313              		.loc 1 931 7 is_stmt 1 view .LVU1139
 3314              		.loc 1 931 23 is_stmt 0 view .LVU1140
 3315 0134 23F02403 		bic	r3, r3, #36
 3316 0138 84E7     		b	.L219
 3317              	.LVL179:
 3318              	.L215:
 3319              		.loc 1 911 10 is_stmt 1 view .LVU1141
 3320              		.loc 1 911 13 is_stmt 0 view .LVU1142
 3321 013a 102B     		cmp	r3, #16
 3322              		.loc 1 915 42 view .LVU1143
 3323 013c 236B     		ldr	r3, [r4, #48]
 3324              	.LVL180:
 3325              		.loc 1 913 42 view .LVU1144
 3326 013e 22F47062 		bic	r2, r2, #3840
 3327              		.loc 1 915 42 view .LVU1145
 3328 0142 23F47063 		bic	r3, r3, #3840
 3329              		.loc 1 911 13 view .LVU1146
 3330 0146 1AD8     		bhi	.L217
 3331              		.loc 1 913 7 is_stmt 1 view .LVU1147
 3332              		.loc 1 914 51 is_stmt 0 view .LVU1148
 3333 0148 42F4A062 		orr	r2, r2, #1280
 3334              		.loc 1 915 7 is_stmt 1 view .LVU1149
 3335              		.loc 1 916 51 is_stmt 0 view .LVU1150
 3336 014c 43F4A063 		orr	r3, r3, #1280
 3337 0150 E7E7     		b	.L216
 3338              	.L223:
 3339              		.loc 1 966 7 is_stmt 1 view .LVU1151
 3340              		.loc 1 966 23 is_stmt 0 view .LVU1152
 3341 0152 22F48472 		bic	r2, r2, #264
 3342              		.loc 1 967 7 is_stmt 1 view .LVU1153
 3343              		.loc 1 967 23 is_stmt 0 view .LVU1154
 3344 0156 23F48473 		bic	r3, r3, #264
 3345 015a 73E7     		b	.L219
 3346              	.LVL181:
 3347              	.L220:
 3348              		.loc 1 947 10 is_stmt 1 view .LVU1155
 3349              		.loc 1 947 13 is_stmt 0 view .LVU1156
 3350 015c 102B     		cmp	r3, #16
 3351              		.loc 1 951 42 view .LVU1157
 3352 015e 236B     		ldr	r3, [r4, #48]
 3353              	.LVL182:
 3354              		.loc 1 949 42 view .LVU1158
 3355 0160 22F4F042 		bic	r2, r2, #30720
 3356              		.loc 1 951 42 view .LVU1159
 3357 0164 23F4F043 		bic	r3, r3, #30720
 3358              		.loc 1 947 13 view .LVU1160
 3359 0168 04D8     		bhi	.L222
 3360              		.loc 1 949 7 is_stmt 1 view .LVU1161
 3361              		.loc 1 950 50 is_stmt 0 view .LVU1162
ARM GAS  C:\Users\DEVELO~1\AppData\Local\Temp\cc5EUJSb.s 			page 60


 3362 016a 42F42052 		orr	r2, r2, #10240
 3363              		.loc 1 951 7 is_stmt 1 view .LVU1163
 3364              		.loc 1 952 50 is_stmt 0 view .LVU1164
 3365 016e 43F42053 		orr	r3, r3, #10240
 3366 0172 5FE7     		b	.L221
 3367              	.L222:
 3368              		.loc 1 956 7 is_stmt 1 view .LVU1165
 3369              		.loc 1 957 49 is_stmt 0 view .LVU1166
 3370 0174 42F4A042 		orr	r2, r2, #20480
 3371              		.loc 1 958 7 is_stmt 1 view .LVU1167
 3372              		.loc 1 959 49 is_stmt 0 view .LVU1168
 3373 0178 43F4A043 		orr	r3, r3, #20480
 3374 017c 5AE7     		b	.L221
 3375              	.L217:
 3376              		.loc 1 920 7 is_stmt 1 view .LVU1169
 3377              		.loc 1 921 50 is_stmt 0 view .LVU1170
 3378 017e 42F42062 		orr	r2, r2, #2560
 3379              		.loc 1 922 7 is_stmt 1 view .LVU1171
 3380              		.loc 1 923 50 is_stmt 0 view .LVU1172
 3381 0182 43F42063 		orr	r3, r3, #2560
 3382 0186 CCE7     		b	.L216
 3383              	.LVL183:
 3384              	.L212:
 3385              		.loc 1 891 7 is_stmt 1 view .LVU1173
 3386 0188 636A     		ldr	r3, [r4, #36]
 3387 018a 1B68     		ldr	r3, [r3]
 3388 018c 9960     		str	r1, [r3, #8]
 3389              		.loc 1 891 61 view .LVU1174
 3390              		.loc 1 892 7 view .LVU1175
 3391 018e A16A     		ldr	r1, [r4, #40]
 3392              		.loc 1 898 31 is_stmt 0 view .LVU1176
 3393 0190 4369     		ldr	r3, [r0, #20]
 3394              		.loc 1 892 7 view .LVU1177
 3395 0192 0968     		ldr	r1, [r1]
 3396              		.loc 1 898 31 view .LVU1178
 3397 0194 03F01F03 		and	r3, r3, #31
 3398              		.loc 1 892 7 view .LVU1179
 3399 0198 8A60     		str	r2, [r1, #8]
 3400              		.loc 1 892 61 is_stmt 1 view .LVU1180
 3401              		.loc 1 898 3 view .LVU1181
 3402              		.loc 1 898 9 is_stmt 0 view .LVU1182
 3403 019a 0133     		adds	r3, r3, #1
 3404              	.LVL184:
 3405              		.loc 1 900 3 is_stmt 1 view .LVU1183
 3406 019c 41E7     		b	.L214
 3407              	.LVL185:
 3408              	.L245:
 3409              		.loc 1 771 7 view .LVU1184
 3410              	.LBB670:
 3411              	.LBI670:
 3412              		.loc 1 421 14 view .LVU1185
 3413              	.LBB671:
 3414              		.loc 1 424 3 view .LVU1186
 3415              		.loc 1 424 18 is_stmt 0 view .LVU1187
 3416 019e 0346     		mov	r3, r0
 3417 01a0 7D4A     		ldr	r2, .L250+32
 3418 01a2 0A21     		movs	r1, #10
ARM GAS  C:\Users\DEVELO~1\AppData\Local\Temp\cc5EUJSb.s 			page 61


 3419 01a4 1020     		movs	r0, #16
 3420              	.LVL186:
 3421              		.loc 1 424 18 view .LVU1188
 3422 01a6 FFF7FEFF 		bl	dmaStreamAllocI
 3423              	.LVL187:
 3424              		.loc 1 424 16 view .LVU1189
 3425 01aa 6062     		str	r0, [r4, #36]
 3426              		.loc 1 427 3 is_stmt 1 view .LVU1190
 3427              		.loc 1 427 6 is_stmt 0 view .LVU1191
 3428 01ac 0028     		cmp	r0, #0
 3429 01ae 00F0DF80 		beq	.L241
 3430              		.loc 1 431 3 is_stmt 1 view .LVU1192
 3431              		.loc 1 431 18 is_stmt 0 view .LVU1193
 3432 01b2 2346     		mov	r3, r4
 3433 01b4 794A     		ldr	r2, .L250+36
 3434 01b6 0A21     		movs	r1, #10
 3435 01b8 1020     		movs	r0, #16
 3436 01ba FFF7FEFF 		bl	dmaStreamAllocI
 3437              	.LVL188:
 3438              		.loc 1 431 16 view .LVU1194
 3439 01be A062     		str	r0, [r4, #40]
 3440              		.loc 1 434 3 is_stmt 1 view .LVU1195
 3441              		.loc 1 434 6 is_stmt 0 view .LVU1196
 3442 01c0 0028     		cmp	r0, #0
 3443 01c2 00F0ED80 		beq	.L243
 3444              	.LVL189:
 3445              		.loc 1 434 6 view .LVU1197
 3446              	.LBE671:
 3447              	.LBE670:
 3448              		.loc 1 775 7 is_stmt 1 view .LVU1198
 3449              		.loc 1 778 7 view .LVU1199
 3450 01c6 2521     		movs	r1, #37
 3451 01c8 606A     		ldr	r0, [r4, #36]
 3452 01ca FFF7FEFF 		bl	dmaSetRequestSource
 3453              	.LVL190:
 3454              		.loc 1 779 7 view .LVU1200
 3455 01ce 2621     		movs	r1, #38
 3456 01d0 A06A     		ldr	r0, [r4, #40]
 3457 01d2 FFF7FEFF 		bl	dmaSetRequestSource
 3458              	.LVL191:
 3459              		.loc 1 781 7 view .LVU1201
 3460              	.LBB672:
 3461              	.LBI672:
 3462              		.loc 2 319 22 view .LVU1202
 3463              	.LBB673:
 3464              		.loc 2 323 3 view .LVU1203
 3465              		.loc 2 323 19 is_stmt 0 view .LVU1204
 3466 01d6 6F4B     		ldr	r3, .L250+28
 3467 01d8 D3F8F020 		ldr	r2, [r3, #240]
 3468 01dc 42F48052 		orr	r2, r2, #4096
 3469 01e0 C3F8F020 		str	r2, [r3, #240]
 3470              		.loc 2 324 3 is_stmt 1 view .LVU1205
 3471              		.loc 2 325 5 view .LVU1206
 3472              		.loc 2 325 23 is_stmt 0 view .LVU1207
 3473 01e4 D3F81821 		ldr	r2, [r3, #280]
 3474 01e8 42F48052 		orr	r2, r2, #4096
 3475 01ec C3F81821 		str	r2, [r3, #280]
ARM GAS  C:\Users\DEVELO~1\AppData\Local\Temp\cc5EUJSb.s 			page 62


 3476              		.loc 2 330 3 is_stmt 1 view .LVU1208
 3477 01f0 D3F81821 		ldr	r2, [r3, #280]
 3478              	.LVL192:
 3479              		.loc 2 330 3 is_stmt 0 view .LVU1209
 3480              	.LBE673:
 3481              	.LBE672:
 3482              		.loc 1 782 7 is_stmt 1 view .LVU1210
 3483              	.LBB674:
 3484              	.LBI674:
 3485              		.loc 2 385 22 view .LVU1211
 3486              	.LBB675:
 3487              		.loc 2 397 3 view .LVU1212
 3488              	.LBB676:
 3489              	.LBI676:
 3490              		.loc 2 73 22 view .LVU1213
 3491              	.LBB677:
 3492              		.loc 2 76 3 view .LVU1214
 3493              		.loc 2 76 17 is_stmt 0 view .LVU1215
 3494 01f4 D3F89820 		ldr	r2, [r3, #152]
 3495 01f8 42F48052 		orr	r2, r2, #4096
 3496 01fc C3F89820 		str	r2, [r3, #152]
 3497              		.loc 2 77 3 is_stmt 1 view .LVU1216
 3498              		.loc 2 77 17 is_stmt 0 view .LVU1217
 3499 0200 D3F89820 		ldr	r2, [r3, #152]
 3500 0204 22F48052 		bic	r2, r2, #4096
 3501 0208 C3F89820 		str	r2, [r3, #152]
 3502              		.loc 2 78 3 is_stmt 1 view .LVU1218
 3503 020c D3F89830 		ldr	r3, [r3, #152]
 3504              	.LVL193:
 3505              		.loc 2 78 3 is_stmt 0 view .LVU1219
 3506              	.LBE677:
 3507              	.LBE676:
 3508              		.loc 2 398 1 view .LVU1220
 3509 0210 6CE7     		b	.L203
 3510              	.LVL194:
 3511              	.L247:
 3512              		.loc 2 398 1 view .LVU1221
 3513              	.LBE675:
 3514              	.LBE674:
 3515              		.loc 1 805 7 is_stmt 1 view .LVU1222
 3516              	.LBB678:
 3517              	.LBI678:
 3518              		.loc 1 421 14 view .LVU1223
 3519              	.LBB679:
 3520              		.loc 1 424 3 view .LVU1224
 3521              		.loc 1 424 18 is_stmt 0 view .LVU1225
 3522 0212 0346     		mov	r3, r0
 3523 0214 604A     		ldr	r2, .L250+32
 3524 0216 0A21     		movs	r1, #10
 3525 0218 1020     		movs	r0, #16
 3526              	.LVL195:
 3527              		.loc 1 424 18 view .LVU1226
 3528 021a FFF7FEFF 		bl	dmaStreamAllocI
 3529              	.LVL196:
 3530              		.loc 1 424 16 view .LVU1227
 3531 021e 6062     		str	r0, [r4, #36]
 3532              		.loc 1 427 3 is_stmt 1 view .LVU1228
ARM GAS  C:\Users\DEVELO~1\AppData\Local\Temp\cc5EUJSb.s 			page 63


 3533              		.loc 1 427 6 is_stmt 0 view .LVU1229
 3534 0220 0028     		cmp	r0, #0
 3535 0222 00F0A580 		beq	.L241
 3536              		.loc 1 431 3 is_stmt 1 view .LVU1230
 3537              		.loc 1 431 18 is_stmt 0 view .LVU1231
 3538 0226 2346     		mov	r3, r4
 3539 0228 5C4A     		ldr	r2, .L250+36
 3540 022a 0A21     		movs	r1, #10
 3541 022c 1020     		movs	r0, #16
 3542 022e FFF7FEFF 		bl	dmaStreamAllocI
 3543              	.LVL197:
 3544              		.loc 1 431 16 view .LVU1232
 3545 0232 A062     		str	r0, [r4, #40]
 3546              		.loc 1 434 3 is_stmt 1 view .LVU1233
 3547              		.loc 1 434 6 is_stmt 0 view .LVU1234
 3548 0234 0028     		cmp	r0, #0
 3549 0236 00F0B380 		beq	.L243
 3550              	.LVL198:
 3551              		.loc 1 434 6 view .LVU1235
 3552              	.LBE679:
 3553              	.LBE678:
 3554              		.loc 1 809 7 is_stmt 1 view .LVU1236
 3555              		.loc 1 812 7 view .LVU1237
 3556 023a 3D21     		movs	r1, #61
 3557 023c 606A     		ldr	r0, [r4, #36]
 3558 023e FFF7FEFF 		bl	dmaSetRequestSource
 3559              	.LVL199:
 3560              		.loc 1 813 7 view .LVU1238
 3561 0242 3E21     		movs	r1, #62
 3562 0244 A06A     		ldr	r0, [r4, #40]
 3563 0246 FFF7FEFF 		bl	dmaSetRequestSource
 3564              	.LVL200:
 3565              		.loc 1 815 7 view .LVU1239
 3566              	.LBB680:
 3567              	.LBI680:
 3568              		.loc 2 141 22 view .LVU1240
 3569              	.LBB681:
 3570              		.loc 2 145 3 view .LVU1241
 3571              		.loc 2 145 20 is_stmt 0 view .LVU1242
 3572 024a 524B     		ldr	r3, .L250+28
 3573 024c D3F8E820 		ldr	r2, [r3, #232]
 3574 0250 42F40042 		orr	r2, r2, #32768
 3575 0254 C3F8E820 		str	r2, [r3, #232]
 3576              		.loc 2 146 3 is_stmt 1 view .LVU1243
 3577              		.loc 2 147 5 view .LVU1244
 3578              		.loc 2 147 24 is_stmt 0 view .LVU1245
 3579 0258 D3F81021 		ldr	r2, [r3, #272]
 3580 025c 42F40042 		orr	r2, r2, #32768
 3581 0260 C3F81021 		str	r2, [r3, #272]
 3582              		.loc 2 152 3 is_stmt 1 view .LVU1246
 3583 0264 D3F81021 		ldr	r2, [r3, #272]
 3584              	.LVL201:
 3585              		.loc 2 152 3 is_stmt 0 view .LVU1247
 3586              	.LBE681:
 3587              	.LBE680:
 3588              		.loc 1 816 7 is_stmt 1 view .LVU1248
 3589              	.LBB682:
ARM GAS  C:\Users\DEVELO~1\AppData\Local\Temp\cc5EUJSb.s 			page 64


 3590              	.LBI682:
 3591              		.loc 2 207 22 view .LVU1249
 3592              	.LBB683:
 3593              		.loc 2 219 3 view .LVU1250
 3594              	.LBB684:
 3595              	.LBI684:
 3596              		.loc 2 57 22 view .LVU1251
 3597              	.LBB685:
 3598              		.loc 2 60 3 view .LVU1252
 3599              		.loc 2 60 18 is_stmt 0 view .LVU1253
 3600 0268 D3F89020 		ldr	r2, [r3, #144]
 3601 026c 42F40042 		orr	r2, r2, #32768
 3602 0270 C3F89020 		str	r2, [r3, #144]
 3603              		.loc 2 61 3 is_stmt 1 view .LVU1254
 3604              		.loc 2 61 18 is_stmt 0 view .LVU1255
 3605 0274 D3F89020 		ldr	r2, [r3, #144]
 3606 0278 22F40042 		bic	r2, r2, #32768
 3607 027c C3F89020 		str	r2, [r3, #144]
 3608              		.loc 2 62 3 is_stmt 1 view .LVU1256
 3609 0280 D3F89030 		ldr	r3, [r3, #144]
 3610              	.LVL202:
 3611              		.loc 2 62 3 is_stmt 0 view .LVU1257
 3612              	.LBE685:
 3613              	.LBE684:
 3614              		.loc 2 220 1 view .LVU1258
 3615 0284 32E7     		b	.L203
 3616              	.LVL203:
 3617              	.L246:
 3618              		.loc 2 220 1 view .LVU1259
 3619              	.LBE683:
 3620              	.LBE682:
 3621              		.loc 1 788 7 is_stmt 1 view .LVU1260
 3622              	.LBB686:
 3623              	.LBI686:
 3624              		.loc 1 421 14 view .LVU1261
 3625              	.LBB687:
 3626              		.loc 1 424 3 view .LVU1262
 3627              		.loc 1 424 18 is_stmt 0 view .LVU1263
 3628 0286 0346     		mov	r3, r0
 3629 0288 434A     		ldr	r2, .L250+32
 3630 028a 0A21     		movs	r1, #10
 3631 028c 1020     		movs	r0, #16
 3632              	.LVL204:
 3633              		.loc 1 424 18 view .LVU1264
 3634 028e FFF7FEFF 		bl	dmaStreamAllocI
 3635              	.LVL205:
 3636              		.loc 1 424 16 view .LVU1265
 3637 0292 6062     		str	r0, [r4, #36]
 3638              		.loc 1 427 3 is_stmt 1 view .LVU1266
 3639              		.loc 1 427 6 is_stmt 0 view .LVU1267
 3640 0294 0028     		cmp	r0, #0
 3641 0296 6BD0     		beq	.L241
 3642              		.loc 1 431 3 is_stmt 1 view .LVU1268
 3643              		.loc 1 431 18 is_stmt 0 view .LVU1269
 3644 0298 2346     		mov	r3, r4
 3645 029a 404A     		ldr	r2, .L250+36
 3646 029c 0A21     		movs	r1, #10
ARM GAS  C:\Users\DEVELO~1\AppData\Local\Temp\cc5EUJSb.s 			page 65


 3647 029e 1020     		movs	r0, #16
 3648 02a0 FFF7FEFF 		bl	dmaStreamAllocI
 3649              	.LVL206:
 3650              		.loc 1 431 16 view .LVU1270
 3651 02a4 A062     		str	r0, [r4, #40]
 3652              		.loc 1 434 3 is_stmt 1 view .LVU1271
 3653              		.loc 1 434 6 is_stmt 0 view .LVU1272
 3654 02a6 0028     		cmp	r0, #0
 3655 02a8 7AD0     		beq	.L243
 3656              	.LVL207:
 3657              		.loc 1 434 6 view .LVU1273
 3658              	.LBE687:
 3659              	.LBE686:
 3660              		.loc 1 792 7 is_stmt 1 view .LVU1274
 3661              		.loc 1 795 7 view .LVU1275
 3662 02aa 2721     		movs	r1, #39
 3663 02ac 606A     		ldr	r0, [r4, #36]
 3664 02ae FFF7FEFF 		bl	dmaSetRequestSource
 3665              	.LVL208:
 3666              		.loc 1 796 7 view .LVU1276
 3667 02b2 2821     		movs	r1, #40
 3668 02b4 A06A     		ldr	r0, [r4, #40]
 3669 02b6 FFF7FEFF 		bl	dmaSetRequestSource
 3670              	.LVL209:
 3671              		.loc 1 798 7 view .LVU1277
 3672              	.LBB688:
 3673              	.LBI688:
 3674              		.loc 2 141 22 view .LVU1278
 3675              	.LBB689:
 3676              		.loc 2 145 3 view .LVU1279
 3677              		.loc 2 145 20 is_stmt 0 view .LVU1280
 3678 02ba 364B     		ldr	r3, .L250+28
 3679 02bc D3F8E820 		ldr	r2, [r3, #232]
 3680 02c0 42F48042 		orr	r2, r2, #16384
 3681 02c4 C3F8E820 		str	r2, [r3, #232]
 3682              		.loc 2 146 3 is_stmt 1 view .LVU1281
 3683              		.loc 2 147 5 view .LVU1282
 3684              		.loc 2 147 24 is_stmt 0 view .LVU1283
 3685 02c8 D3F81021 		ldr	r2, [r3, #272]
 3686 02cc 42F48042 		orr	r2, r2, #16384
 3687 02d0 C3F81021 		str	r2, [r3, #272]
 3688              		.loc 2 152 3 is_stmt 1 view .LVU1284
 3689 02d4 D3F81021 		ldr	r2, [r3, #272]
 3690              	.LVL210:
 3691              		.loc 2 152 3 is_stmt 0 view .LVU1285
 3692              	.LBE689:
 3693              	.LBE688:
 3694              		.loc 1 799 7 is_stmt 1 view .LVU1286
 3695              	.LBB690:
 3696              	.LBI690:
 3697              		.loc 2 207 22 view .LVU1287
 3698              	.LBB691:
 3699              		.loc 2 219 3 view .LVU1288
 3700              	.LBB692:
 3701              	.LBI692:
 3702              		.loc 2 57 22 view .LVU1289
 3703              	.LBB693:
ARM GAS  C:\Users\DEVELO~1\AppData\Local\Temp\cc5EUJSb.s 			page 66


 3704              		.loc 2 60 3 view .LVU1290
 3705              		.loc 2 60 18 is_stmt 0 view .LVU1291
 3706 02d8 D3F89020 		ldr	r2, [r3, #144]
 3707 02dc 42F48042 		orr	r2, r2, #16384
 3708 02e0 C3F89020 		str	r2, [r3, #144]
 3709              		.loc 2 61 3 is_stmt 1 view .LVU1292
 3710              		.loc 2 61 18 is_stmt 0 view .LVU1293
 3711 02e4 D3F89020 		ldr	r2, [r3, #144]
 3712 02e8 22F48042 		bic	r2, r2, #16384
 3713 02ec C3F89020 		str	r2, [r3, #144]
 3714              		.loc 2 62 3 is_stmt 1 view .LVU1294
 3715 02f0 D3F89030 		ldr	r3, [r3, #144]
 3716              	.LVL211:
 3717              		.loc 2 62 3 is_stmt 0 view .LVU1295
 3718              	.LBE693:
 3719              	.LBE692:
 3720              		.loc 2 220 1 view .LVU1296
 3721 02f4 FAE6     		b	.L203
 3722              	.LVL212:
 3723              	.L248:
 3724              		.loc 2 220 1 view .LVU1297
 3725              	.LBE691:
 3726              	.LBE690:
 3727              		.loc 1 839 7 is_stmt 1 view .LVU1298
 3728              	.LBB694:
 3729              	.LBI694:
 3730              		.loc 1 421 14 view .LVU1299
 3731              	.LBB695:
 3732              		.loc 1 424 3 view .LVU1300
 3733              		.loc 1 424 18 is_stmt 0 view .LVU1301
 3734 02f6 0346     		mov	r3, r0
 3735 02f8 274A     		ldr	r2, .L250+32
 3736 02fa 0A21     		movs	r1, #10
 3737 02fc 1020     		movs	r0, #16
 3738              	.LVL213:
 3739              		.loc 1 424 18 view .LVU1302
 3740 02fe FFF7FEFF 		bl	dmaStreamAllocI
 3741              	.LVL214:
 3742              		.loc 1 424 16 view .LVU1303
 3743 0302 6062     		str	r0, [r4, #36]
 3744              		.loc 1 427 3 is_stmt 1 view .LVU1304
 3745              		.loc 1 427 6 is_stmt 0 view .LVU1305
 3746 0304 A0B3     		cbz	r0, .L241
 3747              		.loc 1 431 3 is_stmt 1 view .LVU1306
 3748              		.loc 1 431 18 is_stmt 0 view .LVU1307
 3749 0306 2346     		mov	r3, r4
 3750 0308 244A     		ldr	r2, .L250+36
 3751 030a 0A21     		movs	r1, #10
 3752 030c 1020     		movs	r0, #16
 3753 030e FFF7FEFF 		bl	dmaStreamAllocI
 3754              	.LVL215:
 3755              		.loc 1 431 16 view .LVU1308
 3756 0312 A062     		str	r0, [r4, #40]
 3757              		.loc 1 434 3 is_stmt 1 view .LVU1309
 3758              		.loc 1 434 6 is_stmt 0 view .LVU1310
 3759 0314 0028     		cmp	r0, #0
 3760 0316 43D0     		beq	.L243
ARM GAS  C:\Users\DEVELO~1\AppData\Local\Temp\cc5EUJSb.s 			page 67


 3761              	.LVL216:
 3762              		.loc 1 434 6 view .LVU1311
 3763              	.LBE695:
 3764              	.LBE694:
 3765              		.loc 1 843 7 is_stmt 1 view .LVU1312
 3766              		.loc 1 846 7 view .LVU1313
 3767 0318 5521     		movs	r1, #85
 3768 031a 606A     		ldr	r0, [r4, #36]
 3769 031c FFF7FEFF 		bl	dmaSetRequestSource
 3770              	.LVL217:
 3771              		.loc 1 847 7 view .LVU1314
 3772 0320 5621     		movs	r1, #86
 3773 0322 A06A     		ldr	r0, [r4, #40]
 3774 0324 FFF7FEFF 		bl	dmaSetRequestSource
 3775              	.LVL218:
 3776              		.loc 1 849 7 view .LVU1315
 3777              	.LBB698:
 3778              	.LBI698:
 3779              		.loc 2 319 22 view .LVU1316
 3780              	.LBB699:
 3781              		.loc 2 323 3 view .LVU1317
 3782              		.loc 2 323 19 is_stmt 0 view .LVU1318
 3783 0328 1A4B     		ldr	r3, .L250+28
 3784 032a D3F8F020 		ldr	r2, [r3, #240]
 3785 032e 42F48012 		orr	r2, r2, #1048576
 3786 0332 C3F8F020 		str	r2, [r3, #240]
 3787              		.loc 2 324 3 is_stmt 1 view .LVU1319
 3788              		.loc 2 325 5 view .LVU1320
 3789              		.loc 2 325 23 is_stmt 0 view .LVU1321
 3790 0336 D3F81821 		ldr	r2, [r3, #280]
 3791 033a 42F48012 		orr	r2, r2, #1048576
 3792 033e C3F81821 		str	r2, [r3, #280]
 3793              		.loc 2 330 3 is_stmt 1 view .LVU1322
 3794 0342 D3F81821 		ldr	r2, [r3, #280]
 3795              	.LVL219:
 3796              		.loc 2 330 3 is_stmt 0 view .LVU1323
 3797              	.LBE699:
 3798              	.LBE698:
 3799              		.loc 1 850 7 is_stmt 1 view .LVU1324
 3800              	.LBB700:
 3801              	.LBI700:
 3802              		.loc 2 385 22 view .LVU1325
 3803              	.LBB701:
 3804              		.loc 2 397 3 view .LVU1326
 3805              	.LBB702:
 3806              	.LBI702:
 3807              		.loc 2 73 22 view .LVU1327
 3808              	.LBB703:
 3809              		.loc 2 76 3 view .LVU1328
 3810              		.loc 2 76 17 is_stmt 0 view .LVU1329
 3811 0346 D3F89820 		ldr	r2, [r3, #152]
 3812 034a 42F48012 		orr	r2, r2, #1048576
 3813 034e C3F89820 		str	r2, [r3, #152]
 3814              		.loc 2 77 3 is_stmt 1 view .LVU1330
 3815              		.loc 2 77 17 is_stmt 0 view .LVU1331
 3816 0352 D3F89820 		ldr	r2, [r3, #152]
 3817 0356 22F48012 		bic	r2, r2, #1048576
ARM GAS  C:\Users\DEVELO~1\AppData\Local\Temp\cc5EUJSb.s 			page 68


 3818 035a C3F89820 		str	r2, [r3, #152]
 3819              		.loc 2 78 3 is_stmt 1 view .LVU1332
 3820 035e D3F89830 		ldr	r3, [r3, #152]
 3821              	.LVL220:
 3822              		.loc 2 78 3 is_stmt 0 view .LVU1333
 3823              	.LBE703:
 3824              	.LBE702:
 3825              		.loc 2 398 1 view .LVU1334
 3826 0362 C3E6     		b	.L203
 3827              	.LVL221:
 3828              	.L224:
 3829              		.loc 2 398 1 view .LVU1335
 3830              	.LBE701:
 3831              	.LBE700:
 3832              		.loc 1 873 14 view .LVU1336
 3833 0364 6FF01400 		mvn	r0, #20
 3834              	.LVL222:
 3835              		.loc 1 976 1 view .LVU1337
 3836 0368 10BD     		pop	{r4, pc}
 3837              	.LVL223:
 3838              	.L249:
 3839              	.LBB704:
 3840              	.LBB662:
 3841              		.loc 1 467 5 is_stmt 1 view .LVU1338
 3842 036a 606A     		ldr	r0, [r4, #36]
 3843 036c FFF7FEFF 		bl	bdmaStreamFreeI
 3844              	.LVL224:
 3845              	.L241:
 3846              		.loc 1 468 5 view .LVU1339
 3847              		.loc 1 468 5 is_stmt 0 view .LVU1340
 3848              	.LBE662:
 3849              	.LBE704:
 3850              		.loc 1 860 7 is_stmt 1 view .LVU1341
 3851              	.LBB705:
 3852              	.LBB663:
 3853              		.loc 1 468 12 is_stmt 0 view .LVU1342
 3854 0370 6FF01000 		mvn	r0, #16
 3855              	.LBE663:
 3856              	.LBE705:
 3857              		.loc 1 976 1 view .LVU1343
 3858 0374 10BD     		pop	{r4, pc}
 3859              	.LVL225:
 3860              	.L251:
 3861              		.loc 1 976 1 view .LVU1344
 3862 0376 00BF     		.align	2
 3863              	.L250:
 3864 0378 00000000 		.word	.LANCHOR0
 3865 037c 00000000 		.word	.LANCHOR1
 3866 0380 00000000 		.word	.LANCHOR2
 3867 0384 00000000 		.word	.LANCHOR3
 3868 0388 00000000 		.word	.LANCHOR4
 3869 038c 00000000 		.word	spi_lld_serve_bdma_rx_interrupt
 3870 0390 00000000 		.word	spi_lld_serve_bdma_tx_interrupt
 3871 0394 00440258 		.word	1476543488
 3872 0398 00000000 		.word	spi_lld_serve_dma_rx_interrupt
 3873 039c 00000000 		.word	spi_lld_serve_dma_tx_interrupt
 3874              	.LVL226:
ARM GAS  C:\Users\DEVELO~1\AppData\Local\Temp\cc5EUJSb.s 			page 69


 3875              	.L243:
 3876              	.LBB706:
 3877              	.LBB696:
 3878              		.loc 1 435 5 is_stmt 1 view .LVU1345
 3879 03a0 606A     		ldr	r0, [r4, #36]
 3880 03a2 FFF7FEFF 		bl	dmaStreamFreeI
 3881              	.LVL227:
 3882              		.loc 1 436 5 view .LVU1346
 3883              		.loc 1 436 5 is_stmt 0 view .LVU1347
 3884              	.LBE696:
 3885              	.LBE706:
 3886              		.loc 1 843 7 is_stmt 1 view .LVU1348
 3887              	.LBB707:
 3888              	.LBB697:
 3889              		.loc 1 436 12 is_stmt 0 view .LVU1349
 3890 03a6 6FF01000 		mvn	r0, #16
 3891              	.LBE697:
 3892              	.LBE707:
 3893              		.loc 1 976 1 view .LVU1350
 3894 03aa 10BD     		pop	{r4, pc}
 3895              		.loc 1 976 1 view .LVU1351
 3896              		.cfi_endproc
 3897              	.LFE450:
 3898              		.size	spi_lld_start, .-spi_lld_start
 3899              		.section	.text.spi_lld_stop,"ax",%progbits
 3900              		.align	1
 3901              		.p2align 4,,15
 3902              		.global	spi_lld_stop
 3903              		.syntax unified
 3904              		.thumb
 3905              		.thumb_func
 3906              		.type	spi_lld_stop, %function
 3907              	spi_lld_stop:
 3908              	.LVL228:
 3909              	.LFB451:
 3910              		.loc 1 985 36 is_stmt 1 view -0
 3911              		.cfi_startproc
 3912              		@ args = 0, pretend = 0, frame = 0
 3913              		@ frame_needed = 0, uses_anonymous_args = 0
 3914              		.loc 1 988 3 view .LVU1353
 3915              		.loc 1 988 6 is_stmt 0 view .LVU1354
 3916 0000 0378     		ldrb	r3, [r0]	@ zero_extendqisi2
 3917 0002 022B     		cmp	r3, #2
 3918 0004 00D0     		beq	.L266
 3919 0006 7047     		bx	lr
 3920              	.L266:
 3921              		.loc 1 991 5 is_stmt 1 view .LVU1355
 3922              		.loc 1 985 36 is_stmt 0 view .LVU1356
 3923 0008 10B5     		push	{r4, lr}
 3924              		.cfi_def_cfa_offset 8
 3925              		.cfi_offset 4, -8
 3926              		.cfi_offset 14, -4
 3927 000a 0446     		mov	r4, r0
 3928              		.loc 1 991 5 view .LVU1357
 3929 000c FFF7FEFF 		bl	spi_lld_stop_abort
 3930              	.LVL229:
 3931              		.loc 1 994 5 is_stmt 1 view .LVU1358
ARM GAS  C:\Users\DEVELO~1\AppData\Local\Temp\cc5EUJSb.s 			page 70


 3932              		.loc 1 994 8 is_stmt 0 view .LVU1359
 3933 0010 94F82030 		ldrb	r3, [r4, #32]	@ zero_extendqisi2
 3934              		.loc 1 998 7 view .LVU1360
 3935 0014 606A     		ldr	r0, [r4, #36]
 3936              		.loc 1 994 8 view .LVU1361
 3937 0016 1BBB     		cbnz	r3, .L267
 3938              		.loc 1 1007 7 is_stmt 1 view .LVU1362
 3939 0018 FFF7FEFF 		bl	dmaStreamFreeI
 3940              	.LVL230:
 3941              		.loc 1 1008 7 view .LVU1363
 3942 001c A06A     		ldr	r0, [r4, #40]
 3943 001e FFF7FEFF 		bl	dmaStreamFreeI
 3944              	.LVL231:
 3945              	.L256:
 3946              		.loc 1 1013 5 view .LVU1364
 3947              		.loc 1 1017 10 view .LVU1365
 3948              		.loc 1 1017 13 is_stmt 0 view .LVU1366
 3949 0022 324B     		ldr	r3, .L272
 3950 0024 9C42     		cmp	r4, r3
 3951 0026 21D0     		beq	.L268
 3952              		.loc 1 1023 10 is_stmt 1 view .LVU1367
 3953              		.loc 1 1023 13 is_stmt 0 view .LVU1368
 3954 0028 314B     		ldr	r3, .L272+4
 3955 002a 9C42     		cmp	r4, r3
 3956 002c 3ED0     		beq	.L269
 3957              		.loc 1 1029 10 is_stmt 1 view .LVU1369
 3958              		.loc 1 1029 13 is_stmt 0 view .LVU1370
 3959 002e 314B     		ldr	r3, .L272+8
 3960 0030 9C42     		cmp	r4, r3
 3961 0032 4BD0     		beq	.L270
 3962              		.loc 1 1041 10 is_stmt 1 view .LVU1371
 3963              		.loc 1 1041 13 is_stmt 0 view .LVU1372
 3964 0034 304B     		ldr	r3, .L272+12
 3965 0036 9C42     		cmp	r4, r3
 3966 0038 28D0     		beq	.L271
 3967              		.loc 1 1047 10 is_stmt 1 view .LVU1373
 3968              		.loc 1 1047 13 is_stmt 0 view .LVU1374
 3969 003a 304B     		ldr	r3, .L272+16
 3970 003c 9C42     		cmp	r4, r3
 3971 003e 0ED1     		bne	.L252
 3972              		.loc 1 1048 7 is_stmt 1 view .LVU1375
 3973              	.LVL232:
 3974              	.LBB708:
 3975              	.LBI708:
 3976              		.loc 2 529 22 view .LVU1376
 3977              	.LBB709:
 3978              		.loc 2 539 3 view .LVU1377
 3979              		.loc 2 539 19 is_stmt 0 view .LVU1378
 3980 0040 2F4B     		ldr	r3, .L272+20
 3981 0042 D3F8F420 		ldr	r2, [r3, #244]
 3982 0046 22F02002 		bic	r2, r2, #32
 3983 004a C3F8F420 		str	r2, [r3, #244]
 3984              		.loc 2 540 3 is_stmt 1 view .LVU1379
 3985              		.loc 2 540 21 is_stmt 0 view .LVU1380
 3986 004e D3F81C21 		ldr	r2, [r3, #284]
 3987 0052 22F02002 		bic	r2, r2, #32
 3988 0056 C3F81C21 		str	r2, [r3, #284]
ARM GAS  C:\Users\DEVELO~1\AppData\Local\Temp\cc5EUJSb.s 			page 71


 3989              		.loc 2 541 3 is_stmt 1 view .LVU1381
 3990 005a D3F81C31 		ldr	r3, [r3, #284]
 3991              	.LVL233:
 3992              		.loc 2 541 3 is_stmt 0 view .LVU1382
 3993              	.LBE709:
 3994              	.LBE708:
 3995              		.loc 1 1053 7 is_stmt 1 view .LVU1383
 3996              	.L252:
 3997              		.loc 1 1056 1 is_stmt 0 view .LVU1384
 3998 005e 10BD     		pop	{r4, pc}
 3999              	.LVL234:
 4000              	.L267:
 4001              		.loc 1 998 7 is_stmt 1 view .LVU1385
 4002 0060 FFF7FEFF 		bl	bdmaStreamFreeI
 4003              	.LVL235:
 4004              		.loc 1 999 7 view .LVU1386
 4005 0064 A06A     		ldr	r0, [r4, #40]
 4006 0066 FFF7FEFF 		bl	bdmaStreamFreeI
 4007              	.LVL236:
 4008 006a DAE7     		b	.L256
 4009              	.L268:
 4010              		.loc 1 1018 7 view .LVU1387
 4011              	.LVL237:
 4012              	.LBB710:
 4013              	.LBI710:
 4014              		.loc 2 351 22 view .LVU1388
 4015              	.LBB711:
 4016              		.loc 2 361 3 view .LVU1389
 4017              		.loc 2 361 19 is_stmt 0 view .LVU1390
 4018 006c 244B     		ldr	r3, .L272+20
 4019 006e D3F8F020 		ldr	r2, [r3, #240]
 4020 0072 22F48052 		bic	r2, r2, #4096
 4021 0076 C3F8F020 		str	r2, [r3, #240]
 4022              		.loc 2 362 3 is_stmt 1 view .LVU1391
 4023              		.loc 2 362 21 is_stmt 0 view .LVU1392
 4024 007a D3F81821 		ldr	r2, [r3, #280]
 4025 007e 22F48052 		bic	r2, r2, #4096
 4026 0082 C3F81821 		str	r2, [r3, #280]
 4027              		.loc 2 363 3 is_stmt 1 view .LVU1393
 4028 0086 D3F81831 		ldr	r3, [r3, #280]
 4029              	.LBE711:
 4030              	.LBE710:
 4031              		.loc 1 1056 1 is_stmt 0 view .LVU1394
 4032 008a 10BD     		pop	{r4, pc}
 4033              	.LVL238:
 4034              	.L271:
 4035              		.loc 1 1042 7 is_stmt 1 view .LVU1395
 4036              	.LBB712:
 4037              	.LBI712:
 4038              		.loc 2 351 22 view .LVU1396
 4039              	.LBB713:
 4040              		.loc 2 361 3 view .LVU1397
 4041              		.loc 2 361 19 is_stmt 0 view .LVU1398
 4042 008c 1C4B     		ldr	r3, .L272+20
 4043 008e D3F8F020 		ldr	r2, [r3, #240]
 4044 0092 22F48012 		bic	r2, r2, #1048576
 4045 0096 C3F8F020 		str	r2, [r3, #240]
ARM GAS  C:\Users\DEVELO~1\AppData\Local\Temp\cc5EUJSb.s 			page 72


 4046              		.loc 2 362 3 is_stmt 1 view .LVU1399
 4047              		.loc 2 362 21 is_stmt 0 view .LVU1400
 4048 009a D3F81821 		ldr	r2, [r3, #280]
 4049 009e 22F48012 		bic	r2, r2, #1048576
 4050 00a2 C3F81821 		str	r2, [r3, #280]
 4051              		.loc 2 363 3 is_stmt 1 view .LVU1401
 4052 00a6 D3F81831 		ldr	r3, [r3, #280]
 4053              	.LBE713:
 4054              	.LBE712:
 4055              		.loc 1 1056 1 is_stmt 0 view .LVU1402
 4056 00aa 10BD     		pop	{r4, pc}
 4057              	.LVL239:
 4058              	.L269:
 4059              		.loc 1 1024 7 is_stmt 1 view .LVU1403
 4060              	.LBB714:
 4061              	.LBI714:
 4062              		.loc 2 173 22 view .LVU1404
 4063              	.LBB715:
 4064              		.loc 2 183 3 view .LVU1405
 4065              		.loc 2 183 20 is_stmt 0 view .LVU1406
 4066 00ac 144B     		ldr	r3, .L272+20
 4067 00ae D3F8E820 		ldr	r2, [r3, #232]
 4068 00b2 22F48042 		bic	r2, r2, #16384
 4069 00b6 C3F8E820 		str	r2, [r3, #232]
 4070              		.loc 2 184 3 is_stmt 1 view .LVU1407
 4071              		.loc 2 184 22 is_stmt 0 view .LVU1408
 4072 00ba D3F81021 		ldr	r2, [r3, #272]
 4073 00be 22F48042 		bic	r2, r2, #16384
 4074 00c2 C3F81021 		str	r2, [r3, #272]
 4075              		.loc 2 185 3 is_stmt 1 view .LVU1409
 4076 00c6 D3F81031 		ldr	r3, [r3, #272]
 4077              	.LBE715:
 4078              	.LBE714:
 4079              		.loc 1 1056 1 is_stmt 0 view .LVU1410
 4080 00ca 10BD     		pop	{r4, pc}
 4081              	.LVL240:
 4082              	.L270:
 4083              		.loc 1 1030 7 is_stmt 1 view .LVU1411
 4084              	.LBB716:
 4085              	.LBI716:
 4086              		.loc 2 173 22 view .LVU1412
 4087              	.LBB717:
 4088              		.loc 2 183 3 view .LVU1413
 4089              		.loc 2 183 20 is_stmt 0 view .LVU1414
 4090 00cc 0C4B     		ldr	r3, .L272+20
 4091 00ce D3F8E820 		ldr	r2, [r3, #232]
 4092 00d2 22F40042 		bic	r2, r2, #32768
 4093 00d6 C3F8E820 		str	r2, [r3, #232]
 4094              		.loc 2 184 3 is_stmt 1 view .LVU1415
 4095              		.loc 2 184 22 is_stmt 0 view .LVU1416
 4096 00da D3F81021 		ldr	r2, [r3, #272]
 4097 00de 22F40042 		bic	r2, r2, #32768
 4098 00e2 C3F81021 		str	r2, [r3, #272]
 4099              		.loc 2 185 3 is_stmt 1 view .LVU1417
 4100 00e6 D3F81031 		ldr	r3, [r3, #272]
 4101              	.LBE717:
 4102              	.LBE716:
ARM GAS  C:\Users\DEVELO~1\AppData\Local\Temp\cc5EUJSb.s 			page 73


 4103              		.loc 1 1056 1 is_stmt 0 view .LVU1418
 4104 00ea 10BD     		pop	{r4, pc}
 4105              	.LVL241:
 4106              	.L273:
 4107              		.loc 1 1056 1 view .LVU1419
 4108              		.align	2
 4109              	.L272:
 4110 00ec 00000000 		.word	.LANCHOR0
 4111 00f0 00000000 		.word	.LANCHOR1
 4112 00f4 00000000 		.word	.LANCHOR2
 4113 00f8 00000000 		.word	.LANCHOR3
 4114 00fc 00000000 		.word	.LANCHOR4
 4115 0100 00440258 		.word	1476543488
 4116              		.cfi_endproc
 4117              	.LFE451:
 4118              		.size	spi_lld_stop, .-spi_lld_stop
 4119              		.section	.text.spi_lld_ignore,"ax",%progbits
 4120              		.align	1
 4121              		.p2align 4,,15
 4122              		.global	spi_lld_ignore
 4123              		.syntax unified
 4124              		.thumb
 4125              		.thumb_func
 4126              		.type	spi_lld_ignore, %function
 4127              	spi_lld_ignore:
 4128              	.LVL242:
 4129              	.LFB452:
 4130              		.loc 1 1097 49 is_stmt 1 view -0
 4131              		.cfi_startproc
 4132              		@ args = 0, pretend = 0, frame = 0
 4133              		@ frame_needed = 0, uses_anonymous_args = 0
 4134              		@ link register save eliminated.
 4135              		.loc 1 1099 3 view .LVU1421
 4136              		.loc 1 1099 3 view .LVU1422
 4137              		.loc 1 1099 3 view .LVU1423
 4138              		.loc 1 1102 3 view .LVU1424
 4139              		.loc 1 1102 6 is_stmt 0 view .LVU1425
 4140 0000 90F82030 		ldrb	r3, [r0, #32]	@ zero_extendqisi2
 4141              		.loc 1 1097 49 view .LVU1426
 4142 0004 30B4     		push	{r4, r5}
 4143              		.cfi_def_cfa_offset 8
 4144              		.cfi_offset 4, -8
 4145              		.cfi_offset 5, -4
 4146              		.loc 1 1110 5 view .LVU1427
 4147 0006 D0E90925 		ldrd	r2, r5, [r0, #36]
 4148              		.loc 1 1108 5 view .LVU1428
 4149 000a C46A     		ldr	r4, [r0, #44]
 4150              		.loc 1 1102 6 view .LVU1429
 4151 000c FBB1     		cbz	r3, .L275
 4152              		.loc 1 1106 5 is_stmt 1 view .LVU1430
 4153 000e 00F13403 		add	r3, r0, #52
 4154 0012 5268     		ldr	r2, [r2, #4]
 4155 0014 D360     		str	r3, [r2, #12]
 4156              		.loc 1 1106 54 view .LVU1431
 4157              		.loc 1 1107 5 view .LVU1432
 4158              		.loc 1 1110 5 is_stmt 0 view .LVU1433
 4159 0016 6B68     		ldr	r3, [r5, #4]
ARM GAS  C:\Users\DEVELO~1\AppData\Local\Temp\cc5EUJSb.s 			page 74


 4160              	.L279:
 4161              		.loc 1 1124 5 view .LVU1434
 4162 0018 5160     		str	r1, [r2, #4]
 4163              		.loc 1 1124 49 is_stmt 1 view .LVU1435
 4164              		.loc 1 1125 5 view .LVU1436
 4165              		.loc 1 1127 5 is_stmt 0 view .LVU1437
 4166 001a 00F13805 		add	r5, r0, #56
 4167              		.loc 1 1125 5 view .LVU1438
 4168 001e 1460     		str	r4, [r2]
 4169              		.loc 1 1125 52 is_stmt 1 view .LVU1439
 4170              		.loc 1 1127 5 view .LVU1440
 4171              		.loc 1 1129 5 is_stmt 0 view .LVU1441
 4172 0020 046B     		ldr	r4, [r0, #48]
 4173              		.loc 1 1127 5 view .LVU1442
 4174 0022 DD60     		str	r5, [r3, #12]
 4175              		.loc 1 1127 55 is_stmt 1 view .LVU1443
 4176              		.loc 1 1128 5 view .LVU1444
 4177 0024 5960     		str	r1, [r3, #4]
 4178              		.loc 1 1128 49 view .LVU1445
 4179              		.loc 1 1129 5 view .LVU1446
 4180 0026 1C60     		str	r4, [r3]
 4181              		.loc 1 1129 52 view .LVU1447
 4182              		.loc 1 1131 5 view .LVU1448
 4183 0028 1168     		ldr	r1, [r2]
 4184              	.LVL243:
 4185              		.loc 1 1131 5 is_stmt 0 view .LVU1449
 4186 002a 41F00101 		orr	r1, r1, #1
 4187 002e 1160     		str	r1, [r2]
 4188              		.loc 1 1131 34 is_stmt 1 view .LVU1450
 4189              		.loc 1 1132 5 view .LVU1451
 4190              		.loc 1 1132 34 view .LVU1452
 4191              		.loc 1 1136 3 view .LVU1453
 4192              	.LVL244:
 4193              	.LBB722:
 4194              	.LBI722:
 4195              		.loc 1 118 13 view .LVU1454
 4196              	.LBB723:
 4197              		.loc 1 120 3 view .LVU1455
 4198              	.LBE723:
 4199              	.LBE722:
 4200              		.loc 1 1132 5 is_stmt 0 view .LVU1456
 4201 0030 1A68     		ldr	r2, [r3]
 4202 0032 42F00102 		orr	r2, r2, #1
 4203 0036 1A60     		str	r2, [r3]
 4204              	.LBB727:
 4205              	.LBB726:
 4206              		.loc 1 120 20 view .LVU1457
 4207 0038 4368     		ldr	r3, [r0, #4]
 4208              		.loc 1 120 6 view .LVU1458
 4209 003a 5B78     		ldrb	r3, [r3, #1]	@ zero_extendqisi2
 4210 003c 23B9     		cbnz	r3, .L277
 4211 003e C269     		ldr	r2, [r0, #28]
 4212              	.LBB724:
 4213              	.LBI724:
 4214              		.loc 1 118 13 is_stmt 1 view .LVU1459
 4215              	.LVL245:
 4216              	.LBB725:
ARM GAS  C:\Users\DEVELO~1\AppData\Local\Temp\cc5EUJSb.s 			page 75


 4217              		.loc 1 121 5 view .LVU1460
 4218              		.loc 1 121 20 is_stmt 0 view .LVU1461
 4219 0040 1368     		ldr	r3, [r2]
 4220 0042 43F40073 		orr	r3, r3, #512
 4221 0046 1360     		str	r3, [r2]
 4222              	.L277:
 4223              	.LVL246:
 4224              		.loc 1 121 20 view .LVU1462
 4225              	.LBE725:
 4226              	.LBE724:
 4227              	.LBE726:
 4228              	.LBE727:
 4229              		.loc 1 1138 3 is_stmt 1 view .LVU1463
 4230              		.loc 1 1139 1 is_stmt 0 view .LVU1464
 4231 0048 0020     		movs	r0, #0
 4232              	.LVL247:
 4233              		.loc 1 1139 1 view .LVU1465
 4234 004a 30BC     		pop	{r4, r5}
 4235              		.cfi_remember_state
 4236              		.cfi_restore 5
 4237              		.cfi_restore 4
 4238              		.cfi_def_cfa_offset 0
 4239              	.LVL248:
 4240              		.loc 1 1139 1 view .LVU1466
 4241 004c 7047     		bx	lr
 4242              	.LVL249:
 4243              	.L275:
 4244              		.cfi_restore_state
 4245              		.loc 1 1123 5 is_stmt 1 view .LVU1467
 4246 004e 00F13403 		add	r3, r0, #52
 4247 0052 1268     		ldr	r2, [r2]
 4248 0054 D360     		str	r3, [r2, #12]
 4249              		.loc 1 1123 53 view .LVU1468
 4250              		.loc 1 1124 5 view .LVU1469
 4251              		.loc 1 1127 5 is_stmt 0 view .LVU1470
 4252 0056 2B68     		ldr	r3, [r5]
 4253 0058 DEE7     		b	.L279
 4254              		.cfi_endproc
 4255              	.LFE452:
 4256              		.size	spi_lld_ignore, .-spi_lld_ignore
 4257 005a 00BF     		.section	.text.spi_lld_exchange,"ax",%progbits
 4258              		.align	1
 4259              		.p2align 4,,15
 4260              		.global	spi_lld_exchange
 4261              		.syntax unified
 4262              		.thumb
 4263              		.thumb_func
 4264              		.type	spi_lld_exchange, %function
 4265              	spi_lld_exchange:
 4266              	.LVL250:
 4267              	.LFB453:
 4268              		.loc 1 1158 56 is_stmt 1 view -0
 4269              		.cfi_startproc
 4270              		@ args = 0, pretend = 0, frame = 0
 4271              		@ frame_needed = 0, uses_anonymous_args = 0
 4272              		@ link register save eliminated.
 4273              		.loc 1 1160 3 view .LVU1472
ARM GAS  C:\Users\DEVELO~1\AppData\Local\Temp\cc5EUJSb.s 			page 76


 4274              		.loc 1 1160 3 view .LVU1473
 4275              		.loc 1 1160 3 view .LVU1474
 4276              		.loc 1 1163 3 view .LVU1475
 4277              		.loc 1 1158 56 is_stmt 0 view .LVU1476
 4278 0000 10B4     		push	{r4}
 4279              		.cfi_def_cfa_offset 4
 4280              		.cfi_offset 4, -4
 4281              		.loc 1 1163 6 view .LVU1477
 4282 0002 90F82040 		ldrb	r4, [r0, #32]	@ zero_extendqisi2
 4283 0006 14B3     		cbz	r4, .L281
 4284              		.loc 1 1167 5 is_stmt 1 view .LVU1478
 4285 0008 446A     		ldr	r4, [r0, #36]
 4286 000a 6468     		ldr	r4, [r4, #4]
 4287 000c E360     		str	r3, [r4, #12]
 4288              		.loc 1 1167 46 view .LVU1479
 4289              		.loc 1 1168 5 view .LVU1480
 4290              		.loc 1 1169 5 is_stmt 0 view .LVU1481
 4291 000e C36A     		ldr	r3, [r0, #44]
 4292              	.LVL251:
 4293              		.loc 1 1168 5 view .LVU1482
 4294 0010 6160     		str	r1, [r4, #4]
 4295              	.LVL252:
 4296              		.loc 1 1168 51 is_stmt 1 view .LVU1483
 4297              		.loc 1 1169 5 view .LVU1484
 4298 0012 43F08003 		orr	r3, r3, #128
 4299 0016 2360     		str	r3, [r4]
 4300              		.loc 1 1169 75 view .LVU1485
 4301              		.loc 1 1171 5 view .LVU1486
 4302 0018 836A     		ldr	r3, [r0, #40]
 4303 001a 5B68     		ldr	r3, [r3, #4]
 4304 001c DA60     		str	r2, [r3, #12]
 4305              		.loc 1 1171 46 view .LVU1487
 4306              		.loc 1 1172 5 view .LVU1488
 4307              		.loc 1 1173 5 is_stmt 0 view .LVU1489
 4308 001e 026B     		ldr	r2, [r0, #48]
 4309              	.LVL253:
 4310              		.loc 1 1172 5 view .LVU1490
 4311 0020 5960     		str	r1, [r3, #4]
 4312              	.LVL254:
 4313              		.loc 1 1172 51 is_stmt 1 view .LVU1491
 4314              		.loc 1 1173 5 view .LVU1492
 4315 0022 42F08002 		orr	r2, r2, #128
 4316              	.L285:
 4317              		.loc 1 1190 5 is_stmt 0 view .LVU1493
 4318 0026 1A60     		str	r2, [r3]
 4319              		.loc 1 1190 72 is_stmt 1 view .LVU1494
 4320              		.loc 1 1192 5 view .LVU1495
 4321 0028 2268     		ldr	r2, [r4]
 4322 002a 42F00102 		orr	r2, r2, #1
 4323 002e 2260     		str	r2, [r4]
 4324              		.loc 1 1192 34 view .LVU1496
 4325              		.loc 1 1193 5 view .LVU1497
 4326              		.loc 1 1193 34 view .LVU1498
 4327              		.loc 1 1197 3 view .LVU1499
 4328              	.LVL255:
 4329              	.LBB732:
 4330              	.LBI732:
ARM GAS  C:\Users\DEVELO~1\AppData\Local\Temp\cc5EUJSb.s 			page 77


 4331              		.loc 1 118 13 view .LVU1500
 4332              	.LBB733:
 4333              		.loc 1 120 3 view .LVU1501
 4334              	.LBE733:
 4335              	.LBE732:
 4336              		.loc 1 1193 5 is_stmt 0 view .LVU1502
 4337 0030 1A68     		ldr	r2, [r3]
 4338 0032 42F00102 		orr	r2, r2, #1
 4339 0036 1A60     		str	r2, [r3]
 4340              	.LBB737:
 4341              	.LBB736:
 4342              		.loc 1 120 20 view .LVU1503
 4343 0038 4368     		ldr	r3, [r0, #4]
 4344              		.loc 1 120 6 view .LVU1504
 4345 003a 5B78     		ldrb	r3, [r3, #1]	@ zero_extendqisi2
 4346 003c 23B9     		cbnz	r3, .L283
 4347 003e C269     		ldr	r2, [r0, #28]
 4348              	.LBB734:
 4349              	.LBI734:
 4350              		.loc 1 118 13 is_stmt 1 view .LVU1505
 4351              	.LVL256:
 4352              	.LBB735:
 4353              		.loc 1 121 5 view .LVU1506
 4354              		.loc 1 121 20 is_stmt 0 view .LVU1507
 4355 0040 1368     		ldr	r3, [r2]
 4356 0042 43F40073 		orr	r3, r3, #512
 4357 0046 1360     		str	r3, [r2]
 4358              	.L283:
 4359              	.LVL257:
 4360              		.loc 1 121 20 view .LVU1508
 4361              	.LBE735:
 4362              	.LBE734:
 4363              	.LBE736:
 4364              	.LBE737:
 4365              		.loc 1 1199 3 is_stmt 1 view .LVU1509
 4366              		.loc 1 1200 1 is_stmt 0 view .LVU1510
 4367 0048 0020     		movs	r0, #0
 4368              	.LVL258:
 4369              		.loc 1 1200 1 view .LVU1511
 4370 004a 10BC     		pop	{r4}
 4371              		.cfi_remember_state
 4372              		.cfi_restore 4
 4373              		.cfi_def_cfa_offset 0
 4374 004c 7047     		bx	lr
 4375              	.LVL259:
 4376              	.L281:
 4377              		.cfi_restore_state
 4378              		.loc 1 1184 5 is_stmt 1 view .LVU1512
 4379 004e 446A     		ldr	r4, [r0, #36]
 4380 0050 2468     		ldr	r4, [r4]
 4381 0052 E360     		str	r3, [r4, #12]
 4382              		.loc 1 1184 45 view .LVU1513
 4383              		.loc 1 1185 5 view .LVU1514
 4384              		.loc 1 1186 5 is_stmt 0 view .LVU1515
 4385 0054 C36A     		ldr	r3, [r0, #44]
 4386              	.LVL260:
 4387              		.loc 1 1185 5 view .LVU1516
ARM GAS  C:\Users\DEVELO~1\AppData\Local\Temp\cc5EUJSb.s 			page 78


 4388 0056 6160     		str	r1, [r4, #4]
 4389              	.LVL261:
 4390              		.loc 1 1185 49 is_stmt 1 view .LVU1517
 4391              		.loc 1 1186 5 view .LVU1518
 4392 0058 43F48063 		orr	r3, r3, #1024
 4393 005c 2360     		str	r3, [r4]
 4394              		.loc 1 1186 72 view .LVU1519
 4395              		.loc 1 1188 5 view .LVU1520
 4396 005e 836A     		ldr	r3, [r0, #40]
 4397 0060 1B68     		ldr	r3, [r3]
 4398 0062 DA60     		str	r2, [r3, #12]
 4399              		.loc 1 1188 45 view .LVU1521
 4400              		.loc 1 1189 5 view .LVU1522
 4401              		.loc 1 1190 5 is_stmt 0 view .LVU1523
 4402 0064 026B     		ldr	r2, [r0, #48]
 4403              	.LVL262:
 4404              		.loc 1 1189 5 view .LVU1524
 4405 0066 5960     		str	r1, [r3, #4]
 4406              	.LVL263:
 4407              		.loc 1 1189 49 is_stmt 1 view .LVU1525
 4408              		.loc 1 1190 5 view .LVU1526
 4409 0068 42F48062 		orr	r2, r2, #1024
 4410 006c DBE7     		b	.L285
 4411              		.cfi_endproc
 4412              	.LFE453:
 4413              		.size	spi_lld_exchange, .-spi_lld_exchange
 4414 006e 00BF     		.section	.text.spi_lld_send,"ax",%progbits
 4415              		.align	1
 4416              		.p2align 4,,15
 4417              		.global	spi_lld_send
 4418              		.syntax unified
 4419              		.thumb
 4420              		.thumb_func
 4421              		.type	spi_lld_send, %function
 4422              	spi_lld_send:
 4423              	.LVL264:
 4424              	.LFB454:
 4425              		.loc 1 1216 66 view -0
 4426              		.cfi_startproc
 4427              		@ args = 0, pretend = 0, frame = 0
 4428              		@ frame_needed = 0, uses_anonymous_args = 0
 4429              		@ link register save eliminated.
 4430              		.loc 1 1218 3 view .LVU1528
 4431              		.loc 1 1218 3 view .LVU1529
 4432              		.loc 1 1218 3 view .LVU1530
 4433              		.loc 1 1221 3 view .LVU1531
 4434              		.loc 1 1221 6 is_stmt 0 view .LVU1532
 4435 0000 90F82030 		ldrb	r3, [r0, #32]	@ zero_extendqisi2
 4436              		.loc 1 1216 66 view .LVU1533
 4437 0004 10B4     		push	{r4}
 4438              		.cfi_def_cfa_offset 4
 4439              		.cfi_offset 4, -4
 4440              		.loc 1 1225 5 view .LVU1534
 4441 0006 446A     		ldr	r4, [r0, #36]
 4442              		.loc 1 1221 6 view .LVU1535
 4443 0008 0BB3     		cbz	r3, .L287
 4444              		.loc 1 1225 5 is_stmt 1 view .LVU1536
ARM GAS  C:\Users\DEVELO~1\AppData\Local\Temp\cc5EUJSb.s 			page 79


 4445 000a 6468     		ldr	r4, [r4, #4]
 4446 000c 00F13403 		add	r3, r0, #52
 4447 0010 E360     		str	r3, [r4, #12]
 4448              		.loc 1 1225 54 view .LVU1537
 4449              		.loc 1 1226 5 view .LVU1538
 4450              		.loc 1 1227 5 is_stmt 0 view .LVU1539
 4451 0012 C36A     		ldr	r3, [r0, #44]
 4452              		.loc 1 1226 5 view .LVU1540
 4453 0014 6160     		str	r1, [r4, #4]
 4454              		.loc 1 1226 51 is_stmt 1 view .LVU1541
 4455              		.loc 1 1227 5 view .LVU1542
 4456 0016 2360     		str	r3, [r4]
 4457              		.loc 1 1227 54 view .LVU1543
 4458              		.loc 1 1229 5 view .LVU1544
 4459 0018 836A     		ldr	r3, [r0, #40]
 4460 001a 5B68     		ldr	r3, [r3, #4]
 4461 001c DA60     		str	r2, [r3, #12]
 4462              		.loc 1 1229 46 view .LVU1545
 4463              		.loc 1 1230 5 view .LVU1546
 4464              		.loc 1 1231 5 is_stmt 0 view .LVU1547
 4465 001e 026B     		ldr	r2, [r0, #48]
 4466              	.LVL265:
 4467              		.loc 1 1230 5 view .LVU1548
 4468 0020 5960     		str	r1, [r3, #4]
 4469              	.LVL266:
 4470              		.loc 1 1230 51 is_stmt 1 view .LVU1549
 4471              		.loc 1 1231 5 view .LVU1550
 4472 0022 42F08002 		orr	r2, r2, #128
 4473              	.L291:
 4474              		.loc 1 1248 5 is_stmt 0 view .LVU1551
 4475 0026 1A60     		str	r2, [r3]
 4476              		.loc 1 1248 72 is_stmt 1 view .LVU1552
 4477              		.loc 1 1250 5 view .LVU1553
 4478 0028 2268     		ldr	r2, [r4]
 4479 002a 42F00102 		orr	r2, r2, #1
 4480 002e 2260     		str	r2, [r4]
 4481              		.loc 1 1250 34 view .LVU1554
 4482              		.loc 1 1251 5 view .LVU1555
 4483              		.loc 1 1251 34 view .LVU1556
 4484              		.loc 1 1255 3 view .LVU1557
 4485              	.LVL267:
 4486              	.LBB742:
 4487              	.LBI742:
 4488              		.loc 1 118 13 view .LVU1558
 4489              	.LBB743:
 4490              		.loc 1 120 3 view .LVU1559
 4491              	.LBE743:
 4492              	.LBE742:
 4493              		.loc 1 1251 5 is_stmt 0 view .LVU1560
 4494 0030 1A68     		ldr	r2, [r3]
 4495 0032 42F00102 		orr	r2, r2, #1
 4496 0036 1A60     		str	r2, [r3]
 4497              	.LBB747:
 4498              	.LBB746:
 4499              		.loc 1 120 20 view .LVU1561
 4500 0038 4368     		ldr	r3, [r0, #4]
 4501              		.loc 1 120 6 view .LVU1562
ARM GAS  C:\Users\DEVELO~1\AppData\Local\Temp\cc5EUJSb.s 			page 80


 4502 003a 5B78     		ldrb	r3, [r3, #1]	@ zero_extendqisi2
 4503 003c 23B9     		cbnz	r3, .L289
 4504 003e C269     		ldr	r2, [r0, #28]
 4505              	.LBB744:
 4506              	.LBI744:
 4507              		.loc 1 118 13 is_stmt 1 view .LVU1563
 4508              	.LVL268:
 4509              	.LBB745:
 4510              		.loc 1 121 5 view .LVU1564
 4511              		.loc 1 121 20 is_stmt 0 view .LVU1565
 4512 0040 1368     		ldr	r3, [r2]
 4513 0042 43F40073 		orr	r3, r3, #512
 4514 0046 1360     		str	r3, [r2]
 4515              	.L289:
 4516              	.LVL269:
 4517              		.loc 1 121 20 view .LVU1566
 4518              	.LBE745:
 4519              	.LBE744:
 4520              	.LBE746:
 4521              	.LBE747:
 4522              		.loc 1 1257 3 is_stmt 1 view .LVU1567
 4523              		.loc 1 1258 1 is_stmt 0 view .LVU1568
 4524 0048 0020     		movs	r0, #0
 4525              	.LVL270:
 4526              		.loc 1 1258 1 view .LVU1569
 4527 004a 10BC     		pop	{r4}
 4528              		.cfi_remember_state
 4529              		.cfi_restore 4
 4530              		.cfi_def_cfa_offset 0
 4531 004c 7047     		bx	lr
 4532              	.LVL271:
 4533              	.L287:
 4534              		.cfi_restore_state
 4535              		.loc 1 1242 5 is_stmt 1 view .LVU1570
 4536 004e 2468     		ldr	r4, [r4]
 4537 0050 00F13403 		add	r3, r0, #52
 4538 0054 E360     		str	r3, [r4, #12]
 4539              		.loc 1 1242 53 view .LVU1571
 4540              		.loc 1 1243 5 view .LVU1572
 4541              		.loc 1 1244 5 is_stmt 0 view .LVU1573
 4542 0056 C36A     		ldr	r3, [r0, #44]
 4543              		.loc 1 1243 5 view .LVU1574
 4544 0058 6160     		str	r1, [r4, #4]
 4545              		.loc 1 1243 49 is_stmt 1 view .LVU1575
 4546              		.loc 1 1244 5 view .LVU1576
 4547 005a 2360     		str	r3, [r4]
 4548              		.loc 1 1244 52 view .LVU1577
 4549              		.loc 1 1246 5 view .LVU1578
 4550 005c 836A     		ldr	r3, [r0, #40]
 4551 005e 1B68     		ldr	r3, [r3]
 4552 0060 DA60     		str	r2, [r3, #12]
 4553              		.loc 1 1246 45 view .LVU1579
 4554              		.loc 1 1247 5 view .LVU1580
 4555              		.loc 1 1248 5 is_stmt 0 view .LVU1581
 4556 0062 026B     		ldr	r2, [r0, #48]
 4557              	.LVL272:
 4558              		.loc 1 1247 5 view .LVU1582
ARM GAS  C:\Users\DEVELO~1\AppData\Local\Temp\cc5EUJSb.s 			page 81


 4559 0064 5960     		str	r1, [r3, #4]
 4560              	.LVL273:
 4561              		.loc 1 1247 49 is_stmt 1 view .LVU1583
 4562              		.loc 1 1248 5 view .LVU1584
 4563 0066 42F48062 		orr	r2, r2, #1024
 4564 006a DCE7     		b	.L291
 4565              		.cfi_endproc
 4566              	.LFE454:
 4567              		.size	spi_lld_send, .-spi_lld_send
 4568              		.section	.text.spi_lld_receive,"ax",%progbits
 4569              		.align	1
 4570              		.p2align 4,,15
 4571              		.global	spi_lld_receive
 4572              		.syntax unified
 4573              		.thumb
 4574              		.thumb_func
 4575              		.type	spi_lld_receive, %function
 4576              	spi_lld_receive:
 4577              	.LVL274:
 4578              	.LFB455:
 4579              		.loc 1 1274 63 view -0
 4580              		.cfi_startproc
 4581              		@ args = 0, pretend = 0, frame = 0
 4582              		@ frame_needed = 0, uses_anonymous_args = 0
 4583              		@ link register save eliminated.
 4584              		.loc 1 1276 3 view .LVU1586
 4585              		.loc 1 1276 3 view .LVU1587
 4586              		.loc 1 1276 3 view .LVU1588
 4587              		.loc 1 1279 3 view .LVU1589
 4588              		.loc 1 1279 6 is_stmt 0 view .LVU1590
 4589 0000 90F82030 		ldrb	r3, [r0, #32]	@ zero_extendqisi2
 4590              		.loc 1 1274 63 view .LVU1591
 4591 0004 10B4     		push	{r4}
 4592              		.cfi_def_cfa_offset 4
 4593              		.cfi_offset 4, -4
 4594              		.loc 1 1283 5 view .LVU1592
 4595 0006 446A     		ldr	r4, [r0, #36]
 4596              		.loc 1 1279 6 view .LVU1593
 4597 0008 0BB3     		cbz	r3, .L293
 4598              		.loc 1 1283 5 is_stmt 1 view .LVU1594
 4599              		.loc 1 1285 5 is_stmt 0 view .LVU1595
 4600 000a C36A     		ldr	r3, [r0, #44]
 4601              		.loc 1 1283 5 view .LVU1596
 4602 000c 6468     		ldr	r4, [r4, #4]
 4603              		.loc 1 1285 5 view .LVU1597
 4604 000e 43F08003 		orr	r3, r3, #128
 4605              		.loc 1 1283 5 view .LVU1598
 4606 0012 E260     		str	r2, [r4, #12]
 4607              		.loc 1 1283 46 is_stmt 1 view .LVU1599
 4608              		.loc 1 1284 5 view .LVU1600
 4609              		.loc 1 1287 5 is_stmt 0 view .LVU1601
 4610 0014 00F13802 		add	r2, r0, #56
 4611              	.LVL275:
 4612              		.loc 1 1284 5 view .LVU1602
 4613 0018 6160     		str	r1, [r4, #4]
 4614              	.LVL276:
 4615              		.loc 1 1284 51 is_stmt 1 view .LVU1603
ARM GAS  C:\Users\DEVELO~1\AppData\Local\Temp\cc5EUJSb.s 			page 82


 4616              		.loc 1 1285 5 view .LVU1604
 4617 001a 2360     		str	r3, [r4]
 4618              		.loc 1 1285 75 view .LVU1605
 4619              		.loc 1 1287 5 view .LVU1606
 4620 001c 836A     		ldr	r3, [r0, #40]
 4621 001e 5B68     		ldr	r3, [r3, #4]
 4622              	.L297:
 4623              		.loc 1 1304 5 is_stmt 0 view .LVU1607
 4624 0020 DA60     		str	r2, [r3, #12]
 4625              		.loc 1 1304 55 is_stmt 1 view .LVU1608
 4626              		.loc 1 1305 5 view .LVU1609
 4627              		.loc 1 1306 5 is_stmt 0 view .LVU1610
 4628 0022 026B     		ldr	r2, [r0, #48]
 4629              		.loc 1 1305 5 view .LVU1611
 4630 0024 5960     		str	r1, [r3, #4]
 4631              		.loc 1 1305 49 is_stmt 1 view .LVU1612
 4632              		.loc 1 1306 5 view .LVU1613
 4633 0026 1A60     		str	r2, [r3]
 4634              		.loc 1 1306 52 view .LVU1614
 4635              		.loc 1 1308 5 view .LVU1615
 4636 0028 2268     		ldr	r2, [r4]
 4637 002a 42F00102 		orr	r2, r2, #1
 4638 002e 2260     		str	r2, [r4]
 4639              		.loc 1 1308 34 view .LVU1616
 4640              		.loc 1 1309 5 view .LVU1617
 4641              		.loc 1 1309 34 view .LVU1618
 4642              		.loc 1 1313 3 view .LVU1619
 4643              	.LVL277:
 4644              	.LBB752:
 4645              	.LBI752:
 4646              		.loc 1 118 13 view .LVU1620
 4647              	.LBB753:
 4648              		.loc 1 120 3 view .LVU1621
 4649              	.LBE753:
 4650              	.LBE752:
 4651              		.loc 1 1309 5 is_stmt 0 view .LVU1622
 4652 0030 1A68     		ldr	r2, [r3]
 4653 0032 42F00102 		orr	r2, r2, #1
 4654 0036 1A60     		str	r2, [r3]
 4655              	.LBB757:
 4656              	.LBB756:
 4657              		.loc 1 120 20 view .LVU1623
 4658 0038 4368     		ldr	r3, [r0, #4]
 4659              		.loc 1 120 6 view .LVU1624
 4660 003a 5B78     		ldrb	r3, [r3, #1]	@ zero_extendqisi2
 4661 003c 23B9     		cbnz	r3, .L295
 4662 003e C269     		ldr	r2, [r0, #28]
 4663              	.LBB754:
 4664              	.LBI754:
 4665              		.loc 1 118 13 is_stmt 1 view .LVU1625
 4666              	.LVL278:
 4667              	.LBB755:
 4668              		.loc 1 121 5 view .LVU1626
 4669              		.loc 1 121 20 is_stmt 0 view .LVU1627
 4670 0040 1368     		ldr	r3, [r2]
 4671 0042 43F40073 		orr	r3, r3, #512
 4672 0046 1360     		str	r3, [r2]
ARM GAS  C:\Users\DEVELO~1\AppData\Local\Temp\cc5EUJSb.s 			page 83


 4673              	.L295:
 4674              	.LVL279:
 4675              		.loc 1 121 20 view .LVU1628
 4676              	.LBE755:
 4677              	.LBE754:
 4678              	.LBE756:
 4679              	.LBE757:
 4680              		.loc 1 1315 3 is_stmt 1 view .LVU1629
 4681              		.loc 1 1316 1 is_stmt 0 view .LVU1630
 4682 0048 0020     		movs	r0, #0
 4683              	.LVL280:
 4684              		.loc 1 1316 1 view .LVU1631
 4685 004a 10BC     		pop	{r4}
 4686              		.cfi_remember_state
 4687              		.cfi_restore 4
 4688              		.cfi_def_cfa_offset 0
 4689 004c 7047     		bx	lr
 4690              	.LVL281:
 4691              	.L293:
 4692              		.cfi_restore_state
 4693              		.loc 1 1300 5 is_stmt 1 view .LVU1632
 4694              		.loc 1 1302 5 is_stmt 0 view .LVU1633
 4695 004e C36A     		ldr	r3, [r0, #44]
 4696              		.loc 1 1300 5 view .LVU1634
 4697 0050 2468     		ldr	r4, [r4]
 4698              		.loc 1 1302 5 view .LVU1635
 4699 0052 43F48063 		orr	r3, r3, #1024
 4700              		.loc 1 1300 5 view .LVU1636
 4701 0056 E260     		str	r2, [r4, #12]
 4702              		.loc 1 1300 45 is_stmt 1 view .LVU1637
 4703              		.loc 1 1301 5 view .LVU1638
 4704              		.loc 1 1304 5 is_stmt 0 view .LVU1639
 4705 0058 00F13802 		add	r2, r0, #56
 4706              	.LVL282:
 4707              		.loc 1 1301 5 view .LVU1640
 4708 005c 6160     		str	r1, [r4, #4]
 4709              	.LVL283:
 4710              		.loc 1 1301 49 is_stmt 1 view .LVU1641
 4711              		.loc 1 1302 5 view .LVU1642
 4712 005e 2360     		str	r3, [r4]
 4713              		.loc 1 1302 72 view .LVU1643
 4714              		.loc 1 1304 5 view .LVU1644
 4715 0060 836A     		ldr	r3, [r0, #40]
 4716 0062 1B68     		ldr	r3, [r3]
 4717 0064 DCE7     		b	.L297
 4718              		.cfi_endproc
 4719              	.LFE455:
 4720              		.size	spi_lld_receive, .-spi_lld_receive
 4721 0066 00BF     		.section	.text.spi_lld_stop_transfer,"ax",%progbits
 4722              		.align	1
 4723              		.p2align 4,,15
 4724              		.global	spi_lld_stop_transfer
 4725              		.syntax unified
 4726              		.thumb
 4727              		.thumb_func
 4728              		.type	spi_lld_stop_transfer, %function
 4729              	spi_lld_stop_transfer:
ARM GAS  C:\Users\DEVELO~1\AppData\Local\Temp\cc5EUJSb.s 			page 84


 4730              	.LVL284:
 4731              	.LFB456:
 4732              		.loc 1 1328 61 view -0
 4733              		.cfi_startproc
 4734              		@ args = 0, pretend = 0, frame = 0
 4735              		@ frame_needed = 0, uses_anonymous_args = 0
 4736              		.loc 1 1329 3 view .LVU1646
 4737              		.loc 1 1332 3 view .LVU1647
 4738              		.loc 1 1328 61 is_stmt 0 view .LVU1648
 4739 0000 38B5     		push	{r3, r4, r5, lr}
 4740              		.cfi_def_cfa_offset 16
 4741              		.cfi_offset 3, -16
 4742              		.cfi_offset 4, -12
 4743              		.cfi_offset 5, -8
 4744              		.cfi_offset 14, -4
 4745              		.loc 1 1328 61 view .LVU1649
 4746 0002 0C46     		mov	r4, r1
 4747 0004 0546     		mov	r5, r0
 4748              		.loc 1 1332 9 view .LVU1650
 4749 0006 FFF7FEFF 		bl	spi_lld_stop_nicely
 4750              	.LVL285:
 4751              		.loc 1 1334 3 is_stmt 1 view .LVU1651
 4752              		.loc 1 1334 6 is_stmt 0 view .LVU1652
 4753 000a 34B1     		cbz	r4, .L298
 4754              		.loc 1 1336 5 is_stmt 1 view .LVU1653
 4755              		.loc 1 1336 8 is_stmt 0 view .LVU1654
 4756 000c 95F82030 		ldrb	r3, [r5, #32]	@ zero_extendqisi2
 4757 0010 23B1     		cbz	r3, .L300
 4758              		.loc 1 1340 7 is_stmt 1 view .LVU1655
 4759              		.loc 1 1340 16 is_stmt 0 view .LVU1656
 4760 0012 6B6A     		ldr	r3, [r5, #36]
 4761 0014 5B68     		ldr	r3, [r3, #4]
 4762 0016 5B68     		ldr	r3, [r3, #4]
 4763              		.loc 1 1340 14 view .LVU1657
 4764 0018 2360     		str	r3, [r4]
 4765              	.L298:
 4766              		.loc 1 1354 1 view .LVU1658
 4767 001a 38BD     		pop	{r3, r4, r5, pc}
 4768              	.LVL286:
 4769              	.L300:
 4770              		.loc 1 1348 7 is_stmt 1 view .LVU1659
 4771              		.loc 1 1348 16 is_stmt 0 view .LVU1660
 4772 001c 6B6A     		ldr	r3, [r5, #36]
 4773 001e 1B68     		ldr	r3, [r3]
 4774 0020 5B68     		ldr	r3, [r3, #4]
 4775              		.loc 1 1348 14 view .LVU1661
 4776 0022 2360     		str	r3, [r4]
 4777              		.loc 1 1353 3 is_stmt 1 view .LVU1662
 4778              		.loc 1 1354 1 is_stmt 0 view .LVU1663
 4779 0024 38BD     		pop	{r3, r4, r5, pc}
 4780              		.loc 1 1354 1 view .LVU1664
 4781              		.cfi_endproc
 4782              	.LFE456:
 4783              		.size	spi_lld_stop_transfer, .-spi_lld_stop_transfer
 4784 0026 00BF     		.section	.text.spi_lld_polled_exchange,"ax",%progbits
 4785              		.align	1
 4786              		.p2align 4,,15
ARM GAS  C:\Users\DEVELO~1\AppData\Local\Temp\cc5EUJSb.s 			page 85


 4787              		.global	spi_lld_polled_exchange
 4788              		.syntax unified
 4789              		.thumb
 4790              		.thumb_func
 4791              		.type	spi_lld_polled_exchange, %function
 4792              	spi_lld_polled_exchange:
 4793              	.LVL287:
 4794              	.LFB457:
 4795              		.loc 1 1370 67 is_stmt 1 view -0
 4796              		.cfi_startproc
 4797              		@ args = 0, pretend = 0, frame = 0
 4798              		@ frame_needed = 0, uses_anonymous_args = 0
 4799              		@ link register save eliminated.
 4800              		.loc 1 1371 3 view .LVU1666
 4801              		.loc 1 1371 25 is_stmt 0 view .LVU1667
 4802 0000 C369     		ldr	r3, [r0, #28]
 4803              		.loc 1 1370 67 view .LVU1668
 4804 0002 10B4     		push	{r4}
 4805              		.cfi_def_cfa_offset 4
 4806              		.cfi_offset 4, -4
 4807              		.loc 1 1371 30 view .LVU1669
 4808 0004 9A68     		ldr	r2, [r3, #8]
 4809              	.LBB766:
 4810              	.LBB767:
 4811              		.loc 1 120 20 view .LVU1670
 4812 0006 4468     		ldr	r4, [r0, #4]
 4813              	.LBE767:
 4814              	.LBE766:
 4815              		.loc 1 1371 37 view .LVU1671
 4816 0008 02F01F0C 		and	ip, r2, #31
 4817              	.LBB772:
 4818              	.LBB770:
 4819              		.loc 1 120 20 view .LVU1672
 4820 000c 6478     		ldrb	r4, [r4, #1]	@ zero_extendqisi2
 4821              	.LBE770:
 4822              	.LBE772:
 4823              		.loc 1 1371 12 view .LVU1673
 4824 000e 0CF1010C 		add	ip, ip, #1
 4825              	.LVL288:
 4826              		.loc 1 1372 3 is_stmt 1 view .LVU1674
 4827              		.loc 1 1374 3 view .LVU1675
 4828              	.LBB773:
 4829              	.LBI766:
 4830              		.loc 1 118 13 view .LVU1676
 4831              	.LBB771:
 4832              		.loc 1 120 3 view .LVU1677
 4833              		.loc 1 120 6 is_stmt 0 view .LVU1678
 4834 0012 1CB9     		cbnz	r4, .L307
 4835              	.LBB768:
 4836              	.LBI768:
 4837              		.loc 1 118 13 is_stmt 1 view .LVU1679
 4838              	.LVL289:
 4839              	.LBB769:
 4840              		.loc 1 121 5 view .LVU1680
 4841              		.loc 1 121 20 is_stmt 0 view .LVU1681
 4842 0014 1A68     		ldr	r2, [r3]
 4843 0016 42F40072 		orr	r2, r2, #512
ARM GAS  C:\Users\DEVELO~1\AppData\Local\Temp\cc5EUJSb.s 			page 86


 4844 001a 1A60     		str	r2, [r3]
 4845              	.LVL290:
 4846              	.L307:
 4847              		.loc 1 121 20 view .LVU1682
 4848              	.LBE769:
 4849              	.LBE768:
 4850              	.LBE771:
 4851              	.LBE773:
 4852              		.loc 1 1377 39 is_stmt 1 discriminator 1 view .LVU1683
 4853              		.loc 1 1377 20 is_stmt 0 discriminator 1 view .LVU1684
 4854 001c 5A69     		ldr	r2, [r3, #20]
 4855              		.loc 1 1377 39 discriminator 1 view .LVU1685
 4856 001e 9207     		lsls	r2, r2, #30
 4857 0020 FCD5     		bpl	.L307
 4858              		.loc 1 1382 3 is_stmt 1 view .LVU1686
 4859              		.loc 1 1382 6 is_stmt 0 view .LVU1687
 4860 0022 BCF1080F 		cmp	ip, #8
 4861 0026 18D8     		bhi	.L308
 4862              	.LBB774:
 4863              		.loc 1 1384 5 is_stmt 1 view .LVU1688
 4864              	.LVL291:
 4865              		.loc 1 1385 5 view .LVU1689
 4866              		.loc 1 1386 5 view .LVU1690
 4867              		.loc 1 1386 15 is_stmt 0 view .LVU1691
 4868 0028 C9B2     		uxtb	r1, r1
 4869              	.LVL292:
 4870              		.loc 1 1386 13 view .LVU1692
 4871 002a 83F82010 		strb	r1, [r3, #32]
 4872              		.loc 1 1387 5 is_stmt 1 view .LVU1693
 4873              		.loc 1 1387 17 is_stmt 0 view .LVU1694
 4874 002e C269     		ldr	r2, [r0, #28]
 4875              	.L309:
 4876              		.loc 1 1387 41 is_stmt 1 discriminator 1 view .LVU1695
 4877              		.loc 1 1387 22 is_stmt 0 discriminator 1 view .LVU1696
 4878 0030 5169     		ldr	r1, [r2, #20]
 4879              		.loc 1 1387 41 discriminator 1 view .LVU1697
 4880 0032 CC07     		lsls	r4, r1, #31
 4881 0034 FCD5     		bpl	.L309
 4882              		.loc 1 1389 5 is_stmt 1 view .LVU1698
 4883              	.LBE774:
 4884              	.LBB775:
 4885              	.LBB776:
 4886              		.loc 1 127 20 is_stmt 0 view .LVU1699
 4887 0036 4168     		ldr	r1, [r0, #4]
 4888              	.LBE776:
 4889              	.LBE775:
 4890              	.LBB780:
 4891              		.loc 1 1389 25 view .LVU1700
 4892 0038 93F83030 		ldrb	r3, [r3, #48]	@ zero_extendqisi2
 4893              	.LVL293:
 4894              		.loc 1 1389 25 view .LVU1701
 4895              	.LBE780:
 4896              	.LBB781:
 4897              	.LBB777:
 4898              		.loc 1 127 20 view .LVU1702
 4899 003c 4C78     		ldrb	r4, [r1, #1]	@ zero_extendqisi2
 4900              	.LBE777:
ARM GAS  C:\Users\DEVELO~1\AppData\Local\Temp\cc5EUJSb.s 			page 87


 4901              	.LBE781:
 4902              	.LBB782:
 4903              		.loc 1 1389 25 view .LVU1703
 4904 003e D8B2     		uxtb	r0, r3
 4905              	.LVL294:
 4906              	.L310:
 4907              		.loc 1 1389 25 view .LVU1704
 4908              	.LBE782:
 4909              		.loc 1 1408 3 is_stmt 1 view .LVU1705
 4910              	.LBB783:
 4911              	.LBI775:
 4912              		.loc 1 125 13 view .LVU1706
 4913              	.LBB778:
 4914              		.loc 1 127 3 view .LVU1707
 4915              		.loc 1 127 6 is_stmt 0 view .LVU1708
 4916 0040 34B9     		cbnz	r4, .L316
 4917              		.loc 1 128 5 is_stmt 1 view .LVU1709
 4918              		.loc 1 128 20 is_stmt 0 view .LVU1710
 4919 0042 1368     		ldr	r3, [r2]
 4920 0044 43F48063 		orr	r3, r3, #1024
 4921 0048 1360     		str	r3, [r2]
 4922              		.loc 1 129 5 is_stmt 1 view .LVU1711
 4923              	.L315:
 4924              		.loc 1 130 5 view .LVU1712
 4925              		.loc 1 129 46 view .LVU1713
 4926              		.loc 1 129 22 is_stmt 0 view .LVU1714
 4927 004a 1368     		ldr	r3, [r2]
 4928              		.loc 1 129 46 view .LVU1715
 4929 004c 9B05     		lsls	r3, r3, #22
 4930 004e FCD4     		bmi	.L315
 4931              	.L316:
 4932              		.loc 1 132 3 is_stmt 1 view .LVU1716
 4933              		.loc 1 132 19 is_stmt 0 view .LVU1717
 4934 0050 4FF0FF33 		mov	r3, #-1
 4935              	.LBE778:
 4936              	.LBE783:
 4937              		.loc 1 1412 1 view .LVU1718
 4938 0054 10BC     		pop	{r4}
 4939              		.cfi_remember_state
 4940              		.cfi_restore 4
 4941              		.cfi_def_cfa_offset 0
 4942              	.LBB784:
 4943              	.LBB779:
 4944              		.loc 1 132 19 view .LVU1719
 4945 0056 9361     		str	r3, [r2, #24]
 4946              	.LVL295:
 4947              		.loc 1 132 19 view .LVU1720
 4948              	.LBE779:
 4949              	.LBE784:
 4950              		.loc 1 1411 3 is_stmt 1 view .LVU1721
 4951              		.loc 1 1412 1 is_stmt 0 view .LVU1722
 4952 0058 7047     		bx	lr
 4953              	.LVL296:
 4954              	.L308:
 4955              		.cfi_restore_state
 4956              		.loc 1 1391 8 is_stmt 1 view .LVU1723
 4957              		.loc 1 1391 11 is_stmt 0 view .LVU1724
ARM GAS  C:\Users\DEVELO~1\AppData\Local\Temp\cc5EUJSb.s 			page 88


 4958 005a BCF1100F 		cmp	ip, #16
 4959 005e 08D8     		bhi	.L311
 4960              	.LBB785:
 4961              		.loc 1 1393 5 is_stmt 1 view .LVU1725
 4962              	.LVL297:
 4963              		.loc 1 1394 5 view .LVU1726
 4964              		.loc 1 1395 5 view .LVU1727
 4965              		.loc 1 1395 16 is_stmt 0 view .LVU1728
 4966 0060 89B2     		uxth	r1, r1
 4967              	.LVL298:
 4968              		.loc 1 1395 14 view .LVU1729
 4969 0062 1984     		strh	r1, [r3, #32]	@ movhi
 4970              		.loc 1 1396 5 is_stmt 1 view .LVU1730
 4971              	.L312:
 4972              		.loc 1 1396 41 discriminator 1 view .LVU1731
 4973              		.loc 1 1396 22 is_stmt 0 discriminator 1 view .LVU1732
 4974 0064 5A69     		ldr	r2, [r3, #20]
 4975              		.loc 1 1396 41 discriminator 1 view .LVU1733
 4976 0066 D107     		lsls	r1, r2, #31
 4977 0068 FCD5     		bpl	.L312
 4978              		.loc 1 1398 5 is_stmt 1 view .LVU1734
 4979              		.loc 1 1398 25 is_stmt 0 view .LVU1735
 4980 006a 188E     		ldrh	r0, [r3, #48]
 4981              	.LVL299:
 4982              		.loc 1 1398 25 view .LVU1736
 4983              	.LBE785:
 4984 006c 1A46     		mov	r2, r3
 4985              	.LBB786:
 4986 006e 80B2     		uxth	r0, r0
 4987              	.LVL300:
 4988              		.loc 1 1398 25 view .LVU1737
 4989              	.LBE786:
 4990 0070 E6E7     		b	.L310
 4991              	.LVL301:
 4992              	.L311:
 4993              		.loc 1 1402 5 is_stmt 1 view .LVU1738
 4994              		.loc 1 1402 21 is_stmt 0 view .LVU1739
 4995 0072 1962     		str	r1, [r3, #32]
 4996              		.loc 1 1403 5 is_stmt 1 view .LVU1740
 4997              	.L313:
 4998              		.loc 1 1403 41 discriminator 1 view .LVU1741
 4999              		.loc 1 1403 22 is_stmt 0 discriminator 1 view .LVU1742
 5000 0074 5A69     		ldr	r2, [r3, #20]
 5001              		.loc 1 1403 41 discriminator 1 view .LVU1743
 5002 0076 D207     		lsls	r2, r2, #31
 5003 0078 FCD5     		bpl	.L313
 5004              		.loc 1 1405 5 is_stmt 1 view .LVU1744
 5005              		.loc 1 1405 13 is_stmt 0 view .LVU1745
 5006 007a 186B     		ldr	r0, [r3, #48]
 5007              	.LVL302:
 5008              		.loc 1 1405 13 view .LVU1746
 5009 007c 1A46     		mov	r2, r3
 5010 007e DFE7     		b	.L310
 5011              		.cfi_endproc
 5012              	.LFE457:
 5013              		.size	spi_lld_polled_exchange, .-spi_lld_polled_exchange
 5014              		.global	SPID6
ARM GAS  C:\Users\DEVELO~1\AppData\Local\Temp\cc5EUJSb.s 			page 89


 5015              		.global	SPID5
 5016              		.global	SPID3
 5017              		.global	SPID2
 5018              		.global	SPID1
 5019              		.section	.bss.SPID1,"aw",%nobits
 5020              		.align	2
 5021              		.set	.LANCHOR0,. + 0
 5022              		.type	SPID1, %object
 5023              		.size	SPID1, 60
 5024              	SPID1:
 5025 0000 00000000 		.space	60
 5025      00000000 
 5025      00000000 
 5025      00000000 
 5025      00000000 
 5026              		.section	.bss.SPID2,"aw",%nobits
 5027              		.align	2
 5028              		.set	.LANCHOR1,. + 0
 5029              		.type	SPID2, %object
 5030              		.size	SPID2, 60
 5031              	SPID2:
 5032 0000 00000000 		.space	60
 5032      00000000 
 5032      00000000 
 5032      00000000 
 5032      00000000 
 5033              		.section	.bss.SPID3,"aw",%nobits
 5034              		.align	2
 5035              		.set	.LANCHOR2,. + 0
 5036              		.type	SPID3, %object
 5037              		.size	SPID3, 60
 5038              	SPID3:
 5039 0000 00000000 		.space	60
 5039      00000000 
 5039      00000000 
 5039      00000000 
 5039      00000000 
 5040              		.section	.bss.SPID5,"aw",%nobits
 5041              		.align	2
 5042              		.set	.LANCHOR3,. + 0
 5043              		.type	SPID5, %object
 5044              		.size	SPID5, 60
 5045              	SPID5:
 5046 0000 00000000 		.space	60
 5046      00000000 
 5046      00000000 
 5046      00000000 
 5046      00000000 
 5047              		.section	.bss.SPID6,"aw",%nobits
 5048              		.align	2
 5049              		.set	.LANCHOR4,. + 0
 5050              		.type	SPID6, %object
 5051              		.size	SPID6, 60
 5052              	SPID6:
 5053 0000 00000000 		.space	60
 5053      00000000 
 5053      00000000 
ARM GAS  C:\Users\DEVELO~1\AppData\Local\Temp\cc5EUJSb.s 			page 90


 5053      00000000 
 5053      00000000 
 5054              		.section	.rodata.__func__.0,"a"
 5055              		.align	2
 5056              		.set	.LANCHOR9,. + 0
 5057              		.type	__func__.0, %object
 5058              		.size	__func__.0, 10
 5059              	__func__.0:
 5060 0000 56656374 		.ascii	"Vector198\000"
 5060      6F723139 
 5060      3800
 5061              		.section	.rodata.__func__.1,"a"
 5062              		.align	2
 5063              		.set	.LANCHOR8,. + 0
 5064              		.type	__func__.1, %object
 5065              		.size	__func__.1, 10
 5066              	__func__.1:
 5067 0000 56656374 		.ascii	"Vector194\000"
 5067      6F723139 
 5067      3400
 5068              		.section	.rodata.__func__.2,"a"
 5069              		.align	2
 5070              		.set	.LANCHOR7,. + 0
 5071              		.type	__func__.2, %object
 5072              		.size	__func__.2, 10
 5073              	__func__.2:
 5074 0000 56656374 		.ascii	"Vector10C\000"
 5074      6F723130 
 5074      4300
 5075              		.section	.rodata.__func__.3,"a"
 5076              		.align	2
 5077              		.set	.LANCHOR6,. + 0
 5078              		.type	__func__.3, %object
 5079              		.size	__func__.3, 9
 5080              	__func__.3:
 5081 0000 56656374 		.ascii	"VectorD0\000"
 5081      6F724430 
 5081      00
 5082              		.section	.rodata.__func__.4,"a"
 5083              		.align	2
 5084              		.set	.LANCHOR5,. + 0
 5085              		.type	__func__.4, %object
 5086              		.size	__func__.4, 9
 5087              	__func__.4:
 5088 0000 56656374 		.ascii	"VectorCC\000"
 5088      6F724343 
 5088      00
 5089              		.text
 5090              	.Letext0:
 5091              		.file 7 "c:\\chibistudio\\tools\\gnu tools arm embedded\\11.3 2022.08\\lib\\gcc\\arm-none-eabi\\11
 5092              		.file 8 "c:\\chibistudio\\tools\\gnu tools arm embedded\\11.3 2022.08\\arm-none-eabi\\include\\mac
 5093              		.file 9 "c:\\chibistudio\\tools\\gnu tools arm embedded\\11.3 2022.08\\arm-none-eabi\\include\\sys
 5094              		.file 10 "c:\\chibistudio\\tools\\gnu tools arm embedded\\11.3 2022.08\\arm-none-eabi\\include\\st
 5095              		.file 11 "../../../os/common/ports/ARM-common/chtypes.h"
 5096              		.file 12 "../../../os/rt/include/chearly.h"
 5097              		.file 13 "../../../os/rt/include/chobjects.h"
 5098              		.file 14 "../../../os/rt/include/chrfcu.h"
ARM GAS  C:\Users\DEVELO~1\AppData\Local\Temp\cc5EUJSb.s 			page 91


 5099              		.file 15 "../../../os/rt/include/chdebug.h"
 5100              		.file 16 "../../../os/rt/include/chtime.h"
 5101              		.file 17 "../../../os/rt/include/chlists.h"
 5102              		.file 18 "../../../os/rt/include/chtrace.h"
 5103              		.file 19 "../../../os/common/ext/ST/STM32H7xx/stm32h743xx.h"
 5104              		.file 20 "../../../os/rt/include/chsem.h"
 5105              		.file 21 "../../../os/rt/include/chmtx.h"
 5106              		.file 22 "../../../os/hal/ports/STM32/LLD/DMAv2/stm32_dma.h"
 5107              		.file 23 "../../../os/hal/ports/STM32/LLD/BDMAv1/stm32_bdma.h"
 5108              		.file 24 "../../../os/hal/ports/STM32/LLD/GPIOv2/stm32_gpio.h"
 5109              		.file 25 "../../../os/hal/ports/STM32/LLD/GPIOv2/hal_pal_lld.h"
 5110              		.file 26 "../../../os/hal/include/hal_spi_v2.h"
 5111              		.file 27 "../../../os/hal/ports/STM32/LLD/SPIv3/hal_spi_v2_lld.h"
 5112              		.file 28 "../../../os/hal/ports/common/ARMCMx/nvic.h"
 5113              		.file 29 "../../../os/rt/include/chthreads.h"