ARM GAS  C:\Users\DEVELO~1\AppData\Local\Temp\ccsHIVqO.s 			page 1


   1              		.cpu cortex-m7
   2              		.arch armv7e-m
   3              		.fpu softvfp
   4              		.eabi_attribute 20, 1
   5              		.eabi_attribute 21, 1
   6              		.eabi_attribute 23, 3
   7              		.eabi_attribute 24, 1
   8              		.eabi_attribute 25, 1
   9              		.eabi_attribute 26, 1
  10              		.eabi_attribute 30, 6
  11              		.eabi_attribute 34, 1
  12              		.eabi_attribute 18, 4
  13              		.file	"hal_sai_lld.c"
  14              		.text
  15              	.Ltext0:
  16              		.cfi_sections	.debug_frame
  17              		.section	.text.rccEnableAPB2,"ax",%progbits
  18              		.align	1
  19              		.syntax unified
  20              		.thumb
  21              		.thumb_func
  22              		.type	rccEnableAPB2, %function
  23              	rccEnableAPB2:
  24              	.LFB394:
  25              		.file 1 "../../../os/hal/ports/STM32/STM32H7xx/stm32_rcc.h"
  26              		.loc 1 319 60
  27              		.cfi_startproc
  28              		@ args = 0, pretend = 0, frame = 8
  29              		@ frame_needed = 1, uses_anonymous_args = 0
  30              		@ link register save eliminated.
  31 0000 80B4     		push	{r7}
  32              		.cfi_def_cfa_offset 4
  33              		.cfi_offset 7, -4
  34 0002 83B0     		sub	sp, sp, #12
  35              		.cfi_def_cfa_offset 16
  36 0004 00AF     		add	r7, sp, #0
  37              		.cfi_def_cfa_register 7
  38 0006 7860     		str	r0, [r7, #4]
  39 0008 0B46     		mov	r3, r1
  40 000a FB70     		strb	r3, [r7, #3]
  41              		.loc 1 323 19
  42 000c 124B     		ldr	r3, .L4
  43 000e D3F8F020 		ldr	r2, [r3, #240]
  44 0012 1149     		ldr	r1, .L4
  45 0014 7B68     		ldr	r3, [r7, #4]
  46 0016 1343     		orrs	r3, r3, r2
  47 0018 C1F8F030 		str	r3, [r1, #240]
  48              		.loc 1 324 6
  49 001c FB78     		ldrb	r3, [r7, #3]	@ zero_extendqisi2
  50 001e 002B     		cmp	r3, #0
  51 0020 08D0     		beq	.L2
  52              		.loc 1 325 23
  53 0022 0D4B     		ldr	r3, .L4
  54 0024 D3F81821 		ldr	r2, [r3, #280]
  55 0028 0B49     		ldr	r1, .L4
  56 002a 7B68     		ldr	r3, [r7, #4]
  57 002c 1343     		orrs	r3, r3, r2
ARM GAS  C:\Users\DEVELO~1\AppData\Local\Temp\ccsHIVqO.s 			page 2


  58 002e C1F81831 		str	r3, [r1, #280]
  59 0032 08E0     		b	.L3
  60              	.L2:
  61              		.loc 1 328 23
  62 0034 084B     		ldr	r3, .L4
  63 0036 D3F81821 		ldr	r2, [r3, #280]
  64              		.loc 1 328 26
  65 003a 7B68     		ldr	r3, [r7, #4]
  66 003c DB43     		mvns	r3, r3
  67              		.loc 1 328 23
  68 003e 0649     		ldr	r1, .L4
  69 0040 1340     		ands	r3, r3, r2
  70 0042 C1F81831 		str	r3, [r1, #280]
  71              	.L3:
  72              		.loc 1 330 15
  73 0046 044B     		ldr	r3, .L4
  74              		.loc 1 330 3
  75 0048 D3F81831 		ldr	r3, [r3, #280]
  76              		.loc 1 342 1
  77 004c 00BF     		nop
  78 004e 0C37     		adds	r7, r7, #12
  79              		.cfi_def_cfa_offset 4
  80 0050 BD46     		mov	sp, r7
  81              		.cfi_def_cfa_register 13
  82              		@ sp needed
  83 0052 80BC     		pop	{r7}
  84              		.cfi_restore 7
  85              		.cfi_def_cfa_offset 0
  86 0054 7047     		bx	lr
  87              	.L5:
  88 0056 00BF     		.align	2
  89              	.L4:
  90 0058 00440258 		.word	1476543488
  91              		.cfi_endproc
  92              	.LFE394:
  93              		.size	rccEnableAPB2, .-rccEnableAPB2
  94              		.section	.text.rccDisableAPB2,"ax",%progbits
  95              		.align	1
  96              		.syntax unified
  97              		.thumb
  98              		.thumb_func
  99              		.type	rccDisableAPB2, %function
 100              	rccDisableAPB2:
 101              	.LFB395:
 102              		.loc 1 351 52
 103              		.cfi_startproc
 104              		@ args = 0, pretend = 0, frame = 8
 105              		@ frame_needed = 1, uses_anonymous_args = 0
 106              		@ link register save eliminated.
 107 0000 80B4     		push	{r7}
 108              		.cfi_def_cfa_offset 4
 109              		.cfi_offset 7, -4
 110 0002 83B0     		sub	sp, sp, #12
 111              		.cfi_def_cfa_offset 16
 112 0004 00AF     		add	r7, sp, #0
 113              		.cfi_def_cfa_register 7
 114 0006 7860     		str	r0, [r7, #4]
ARM GAS  C:\Users\DEVELO~1\AppData\Local\Temp\ccsHIVqO.s 			page 3


 115              		.loc 1 361 19
 116 0008 0C4B     		ldr	r3, .L7
 117 000a D3F8F020 		ldr	r2, [r3, #240]
 118              		.loc 1 361 22
 119 000e 7B68     		ldr	r3, [r7, #4]
 120 0010 DB43     		mvns	r3, r3
 121              		.loc 1 361 19
 122 0012 0A49     		ldr	r1, .L7
 123 0014 1340     		ands	r3, r3, r2
 124 0016 C1F8F030 		str	r3, [r1, #240]
 125              		.loc 1 362 21
 126 001a 084B     		ldr	r3, .L7
 127 001c D3F81821 		ldr	r2, [r3, #280]
 128              		.loc 1 362 24
 129 0020 7B68     		ldr	r3, [r7, #4]
 130 0022 DB43     		mvns	r3, r3
 131              		.loc 1 362 21
 132 0024 0549     		ldr	r1, .L7
 133 0026 1340     		ands	r3, r3, r2
 134 0028 C1F81831 		str	r3, [r1, #280]
 135              		.loc 1 363 15
 136 002c 034B     		ldr	r3, .L7
 137              		.loc 1 363 3
 138 002e D3F81831 		ldr	r3, [r3, #280]
 139              		.loc 1 376 1
 140 0032 00BF     		nop
 141 0034 0C37     		adds	r7, r7, #12
 142              		.cfi_def_cfa_offset 4
 143 0036 BD46     		mov	sp, r7
 144              		.cfi_def_cfa_register 13
 145              		@ sp needed
 146 0038 80BC     		pop	{r7}
 147              		.cfi_restore 7
 148              		.cfi_def_cfa_offset 0
 149 003a 7047     		bx	lr
 150              	.L8:
 151              		.align	2
 152              	.L7:
 153 003c 00440258 		.word	1476543488
 154              		.cfi_endproc
 155              	.LFE395:
 156              		.size	rccDisableAPB2, .-rccDisableAPB2
 157              		.global	SAID2A
 158              		.section	.bss.SAID2A,"aw",%nobits
 159              		.align	2
 160              		.type	SAID2A, %object
 161              		.size	SAID2A, 48
 162              	SAID2A:
 163 0000 00000000 		.space	48
 163      00000000 
 163      00000000 
 163      00000000 
 163      00000000 
 164              		.section	.bss.sai1_ref,"aw",%nobits
 165              		.align	2
 166              		.type	sai1_ref, %object
 167              		.size	sai1_ref, 4
ARM GAS  C:\Users\DEVELO~1\AppData\Local\Temp\ccsHIVqO.s 			page 4


 168              	sai1_ref:
 169 0000 00000000 		.space	4
 170              		.section	.bss.sai2_ref,"aw",%nobits
 171              		.align	2
 172              		.type	sai2_ref, %object
 173              		.size	sai2_ref, 4
 174              	sai2_ref:
 175 0000 00000000 		.space	4
 176              		.section	.text.sai_lld_is_rx,"ax",%progbits
 177              		.align	1
 178              		.syntax unified
 179              		.thumb
 180              		.thumb_func
 181              		.type	sai_lld_is_rx, %function
 182              	sai_lld_is_rx:
 183              	.LFB432:
 184              		.file 2 "../../../os/hal/ports/STM32/LLD/SAIv1/hal_sai_lld.c"
 185              		.loc 2 71 50
 186              		.cfi_startproc
 187              		@ args = 0, pretend = 0, frame = 16
 188              		@ frame_needed = 1, uses_anonymous_args = 0
 189              		@ link register save eliminated.
 190 0000 80B4     		push	{r7}
 191              		.cfi_def_cfa_offset 4
 192              		.cfi_offset 7, -4
 193 0002 85B0     		sub	sp, sp, #20
 194              		.cfi_def_cfa_offset 24
 195 0004 00AF     		add	r7, sp, #0
 196              		.cfi_def_cfa_register 7
 197 0006 7860     		str	r0, [r7, #4]
 198              		.loc 2 72 23
 199 0008 7B68     		ldr	r3, [r7, #4]
 200 000a 5B68     		ldr	r3, [r3, #4]
 201              		.loc 2 72 31
 202 000c 5B69     		ldr	r3, [r3, #20]
 203              		.loc 2 72 12
 204 000e 03F00303 		and	r3, r3, #3
 205 0012 FB60     		str	r3, [r7, #12]
 206              		.loc 2 74 36
 207 0014 FB68     		ldr	r3, [r7, #12]
 208 0016 012B     		cmp	r3, #1
 209 0018 02D0     		beq	.L10
 210              		.loc 2 74 36 is_stmt 0 discriminator 2
 211 001a FB68     		ldr	r3, [r7, #12]
 212 001c 032B     		cmp	r3, #3
 213 001e 01D1     		bne	.L11
 214              	.L10:
 215              		.loc 2 74 36 discriminator 3
 216 0020 0123     		movs	r3, #1
 217 0022 00E0     		b	.L12
 218              	.L11:
 219              		.loc 2 74 36 discriminator 4
 220 0024 0023     		movs	r3, #0
 221              	.L12:
 222              		.loc 2 74 36 discriminator 6
 223 0026 03F00103 		and	r3, r3, #1
 224 002a DBB2     		uxtb	r3, r3
ARM GAS  C:\Users\DEVELO~1\AppData\Local\Temp\ccsHIVqO.s 			page 5


 225              		.loc 2 75 1 is_stmt 1 discriminator 6
 226 002c 1846     		mov	r0, r3
 227 002e 1437     		adds	r7, r7, #20
 228              		.cfi_def_cfa_offset 4
 229 0030 BD46     		mov	sp, r7
 230              		.cfi_def_cfa_register 13
 231              		@ sp needed
 232 0032 80BC     		pop	{r7}
 233              		.cfi_restore 7
 234              		.cfi_def_cfa_offset 0
 235 0034 7047     		bx	lr
 236              		.cfi_endproc
 237              	.LFE432:
 238              		.size	sai_lld_is_rx, .-sai_lld_is_rx
 239              		.section	.text.sai_lld_dma_request,"ax",%progbits
 240              		.align	1
 241              		.syntax unified
 242              		.thumb
 243              		.thumb_func
 244              		.type	sai_lld_dma_request, %function
 245              	sai_lld_dma_request:
 246              	.LFB433:
 247              		.loc 2 77 60
 248              		.cfi_startproc
 249              		@ args = 0, pretend = 0, frame = 8
 250              		@ frame_needed = 1, uses_anonymous_args = 0
 251              		@ link register save eliminated.
 252 0000 80B4     		push	{r7}
 253              		.cfi_def_cfa_offset 4
 254              		.cfi_offset 7, -4
 255 0002 83B0     		sub	sp, sp, #12
 256              		.cfi_def_cfa_offset 16
 257 0004 00AF     		add	r7, sp, #0
 258              		.cfi_def_cfa_register 7
 259 0006 7860     		str	r0, [r7, #4]
 260              		.loc 2 79 11
 261 0008 7B68     		ldr	r3, [r7, #4]
 262 000a 9B68     		ldr	r3, [r3, #8]
 263              		.loc 2 79 6
 264 000c 0B4A     		ldr	r2, .L21
 265 000e 9342     		cmp	r3, r2
 266 0010 07D1     		bne	.L15
 267              		.loc 2 80 17
 268 0012 7B68     		ldr	r3, [r7, #4]
 269 0014 1B7C     		ldrb	r3, [r3, #16]	@ zero_extendqisi2
 270              		.loc 2 81 30
 271 0016 002B     		cmp	r3, #0
 272 0018 01D1     		bne	.L16
 273              		.loc 2 81 30 is_stmt 0 discriminator 1
 274 001a 5723     		movs	r3, #87
 275 001c 08E0     		b	.L18
 276              	.L16:
 277              		.loc 2 81 30 discriminator 2
 278 001e 5823     		movs	r3, #88
 279 0020 06E0     		b	.L18
 280              	.L15:
 281              		.loc 2 84 15 is_stmt 1
ARM GAS  C:\Users\DEVELO~1\AppData\Local\Temp\ccsHIVqO.s 			page 6


 282 0022 7B68     		ldr	r3, [r7, #4]
 283 0024 1B7C     		ldrb	r3, [r3, #16]	@ zero_extendqisi2
 284              		.loc 2 85 28
 285 0026 002B     		cmp	r3, #0
 286 0028 01D1     		bne	.L19
 287              		.loc 2 85 28 is_stmt 0 discriminator 1
 288 002a 5923     		movs	r3, #89
 289 002c 00E0     		b	.L18
 290              	.L19:
 291              		.loc 2 85 28 discriminator 2
 292 002e 5A23     		movs	r3, #90
 293              	.L18:
 294              		.loc 2 86 1 is_stmt 1
 295 0030 1846     		mov	r0, r3
 296 0032 0C37     		adds	r7, r7, #12
 297              		.cfi_def_cfa_offset 4
 298 0034 BD46     		mov	sp, r7
 299              		.cfi_def_cfa_register 13
 300              		@ sp needed
 301 0036 80BC     		pop	{r7}
 302              		.cfi_restore 7
 303              		.cfi_def_cfa_offset 0
 304 0038 7047     		bx	lr
 305              	.L22:
 306 003a 00BF     		.align	2
 307              	.L21:
 308 003c 00580140 		.word	1073829888
 309              		.cfi_endproc
 310              	.LFE433:
 311              		.size	sai_lld_dma_request, .-sai_lld_dma_request
 312              		.section	.text.sai_lld_serve_dma_interrupt,"ax",%progbits
 313              		.align	1
 314              		.syntax unified
 315              		.thumb
 316              		.thumb_func
 317              		.type	sai_lld_serve_dma_interrupt, %function
 318              	sai_lld_serve_dma_interrupt:
 319              	.LFB434:
 320              		.loc 2 88 74
 321              		.cfi_startproc
 322              		@ args = 0, pretend = 0, frame = 8
 323              		@ frame_needed = 1, uses_anonymous_args = 0
 324 0000 80B5     		push	{r7, lr}
 325              		.cfi_def_cfa_offset 8
 326              		.cfi_offset 7, -8
 327              		.cfi_offset 14, -4
 328 0002 82B0     		sub	sp, sp, #8
 329              		.cfi_def_cfa_offset 16
 330 0004 00AF     		add	r7, sp, #0
 331              		.cfi_def_cfa_register 7
 332 0006 7860     		str	r0, [r7, #4]
 333 0008 3960     		str	r1, [r7]
 334              		.loc 2 91 14
 335 000a 3B68     		ldr	r3, [r7]
 336 000c 03F00C03 		and	r3, r3, #12
 337              		.loc 2 91 6
 338 0010 002B     		cmp	r3, #0
ARM GAS  C:\Users\DEVELO~1\AppData\Local\Temp\ccsHIVqO.s 			page 7


 339 0012 02D0     		beq	.L24
 340              		.loc 2 92 5
 341 0014 7868     		ldr	r0, [r7, #4]
 342 0016 FFF7FEFF 		bl	sai_dma_error_hook
 343              	.L24:
 344              		.loc 2 98 14
 345 001a 3B68     		ldr	r3, [r7]
 346 001c 03F01003 		and	r3, r3, #16
 347              		.loc 2 98 6
 348 0020 002B     		cmp	r3, #0
 349 0022 0AD0     		beq	.L25
 350              		.loc 2 99 5
 351 0024 7B68     		ldr	r3, [r7, #4]
 352 0026 5B68     		ldr	r3, [r3, #4]
 353 0028 DB68     		ldr	r3, [r3, #12]
 354 002a 002B     		cmp	r3, #0
 355 002c 05D0     		beq	.L25
 356              		.loc 2 99 5 is_stmt 0 discriminator 1
 357 002e 7B68     		ldr	r3, [r7, #4]
 358 0030 5B68     		ldr	r3, [r3, #4]
 359 0032 DB68     		ldr	r3, [r3, #12]
 360 0034 0121     		movs	r1, #1
 361 0036 7868     		ldr	r0, [r7, #4]
 362 0038 9847     		blx	r3
 363              	.LVL0:
 364              	.L25:
 365              		.loc 2 101 14 is_stmt 1
 366 003a 3B68     		ldr	r3, [r7]
 367 003c 03F02003 		and	r3, r3, #32
 368              		.loc 2 101 6
 369 0040 002B     		cmp	r3, #0
 370 0042 0AD0     		beq	.L27
 371              		.loc 2 102 5
 372 0044 7B68     		ldr	r3, [r7, #4]
 373 0046 5B68     		ldr	r3, [r3, #4]
 374 0048 DB68     		ldr	r3, [r3, #12]
 375 004a 002B     		cmp	r3, #0
 376 004c 05D0     		beq	.L27
 377              		.loc 2 102 5 is_stmt 0 discriminator 1
 378 004e 7B68     		ldr	r3, [r7, #4]
 379 0050 5B68     		ldr	r3, [r3, #4]
 380 0052 DB68     		ldr	r3, [r3, #12]
 381 0054 0021     		movs	r1, #0
 382 0056 7868     		ldr	r0, [r7, #4]
 383 0058 9847     		blx	r3
 384              	.LVL1:
 385              	.L27:
 386              		.loc 2 104 1 is_stmt 1
 387 005a 00BF     		nop
 388 005c 0837     		adds	r7, r7, #8
 389              		.cfi_def_cfa_offset 8
 390 005e BD46     		mov	sp, r7
 391              		.cfi_def_cfa_register 13
 392              		@ sp needed
 393 0060 80BD     		pop	{r7, pc}
 394              		.cfi_endproc
 395              	.LFE434:
ARM GAS  C:\Users\DEVELO~1\AppData\Local\Temp\ccsHIVqO.s 			page 8


 396              		.size	sai_lld_serve_dma_interrupt, .-sai_lld_serve_dma_interrupt
 397              		.section	.text.sai_lld_stream_id,"ax",%progbits
 398              		.align	1
 399              		.syntax unified
 400              		.thumb
 401              		.thumb_func
 402              		.type	sai_lld_stream_id, %function
 403              	sai_lld_stream_id:
 404              	.LFB435:
 405              		.loc 2 106 70
 406              		.cfi_startproc
 407              		@ args = 0, pretend = 0, frame = 8
 408              		@ frame_needed = 1, uses_anonymous_args = 0
 409              		@ link register save eliminated.
 410 0000 80B4     		push	{r7}
 411              		.cfi_def_cfa_offset 4
 412              		.cfi_offset 7, -4
 413 0002 83B0     		sub	sp, sp, #12
 414              		.cfi_def_cfa_offset 16
 415 0004 00AF     		add	r7, sp, #0
 416              		.cfi_def_cfa_register 7
 417 0006 7860     		str	r0, [r7, #4]
 418 0008 0B46     		mov	r3, r1
 419 000a FB70     		strb	r3, [r7, #3]
 420              		.loc 2 108 11
 421 000c 7B68     		ldr	r3, [r7, #4]
 422 000e 9B68     		ldr	r3, [r3, #8]
 423              		.loc 2 108 6
 424 0010 0D4A     		ldr	r2, .L35
 425 0012 9342     		cmp	r3, r2
 426 0014 07D1     		bne	.L29
 427              		.loc 2 109 13
 428 0016 7B68     		ldr	r3, [r7, #4]
 429 0018 1B7C     		ldrb	r3, [r3, #16]	@ zero_extendqisi2
 430              		.loc 2 109 8
 431 001a 002B     		cmp	r3, #0
 432 001c 01D1     		bne	.L30
 433              		.loc 2 110 52
 434 001e 1023     		movs	r3, #16
 435 0020 0DE0     		b	.L31
 436              	.L30:
 437              		.loc 2 112 50
 438 0022 1023     		movs	r3, #16
 439 0024 0BE0     		b	.L31
 440              	.L29:
 441              		.loc 2 115 11
 442 0026 7B68     		ldr	r3, [r7, #4]
 443 0028 1B7C     		ldrb	r3, [r3, #16]	@ zero_extendqisi2
 444              		.loc 2 115 6
 445 002a 002B     		cmp	r3, #0
 446 002c 06D1     		bne	.L32
 447              		.loc 2 116 50
 448 002e FB78     		ldrb	r3, [r7, #3]	@ zero_extendqisi2
 449 0030 002B     		cmp	r3, #0
 450 0032 01D0     		beq	.L33
 451              		.loc 2 116 50 is_stmt 0 discriminator 1
 452 0034 0923     		movs	r3, #9
ARM GAS  C:\Users\DEVELO~1\AppData\Local\Temp\ccsHIVqO.s 			page 9


 453 0036 02E0     		b	.L31
 454              	.L33:
 455              		.loc 2 116 50 discriminator 2
 456 0038 0823     		movs	r3, #8
 457 003a 00E0     		b	.L31
 458              	.L32:
 459              		.loc 2 119 48 is_stmt 1
 460 003c 1023     		movs	r3, #16
 461              	.L31:
 462              		.loc 2 120 1
 463 003e 1846     		mov	r0, r3
 464 0040 0C37     		adds	r7, r7, #12
 465              		.cfi_def_cfa_offset 4
 466 0042 BD46     		mov	sp, r7
 467              		.cfi_def_cfa_register 13
 468              		@ sp needed
 469 0044 80BC     		pop	{r7}
 470              		.cfi_restore 7
 471              		.cfi_def_cfa_offset 0
 472 0046 7047     		bx	lr
 473              	.L36:
 474              		.align	2
 475              	.L35:
 476 0048 00580140 		.word	1073829888
 477              		.cfi_endproc
 478              	.LFE435:
 479              		.size	sai_lld_stream_id, .-sai_lld_stream_id
 480              		.section	.text.sai_lld_irq_priority,"ax",%progbits
 481              		.align	1
 482              		.syntax unified
 483              		.thumb
 484              		.thumb_func
 485              		.type	sai_lld_irq_priority, %function
 486              	sai_lld_irq_priority:
 487              	.LFB436:
 488              		.loc 2 122 61
 489              		.cfi_startproc
 490              		@ args = 0, pretend = 0, frame = 8
 491              		@ frame_needed = 1, uses_anonymous_args = 0
 492              		@ link register save eliminated.
 493 0000 80B4     		push	{r7}
 494              		.cfi_def_cfa_offset 4
 495              		.cfi_offset 7, -4
 496 0002 83B0     		sub	sp, sp, #12
 497              		.cfi_def_cfa_offset 16
 498 0004 00AF     		add	r7, sp, #0
 499              		.cfi_def_cfa_register 7
 500 0006 7860     		str	r0, [r7, #4]
 501              		.loc 2 124 11
 502 0008 7B68     		ldr	r3, [r7, #4]
 503 000a 9B68     		ldr	r3, [r3, #8]
 504              		.loc 2 124 6
 505 000c 084A     		ldr	r2, .L42
 506 000e 9342     		cmp	r3, r2
 507 0010 01D1     		bne	.L38
 508              		.loc 2 126 47
 509 0012 0A23     		movs	r3, #10
ARM GAS  C:\Users\DEVELO~1\AppData\Local\Temp\ccsHIVqO.s 			page 10


 510 0014 06E0     		b	.L39
 511              	.L38:
 512              		.loc 2 129 15
 513 0016 7B68     		ldr	r3, [r7, #4]
 514 0018 1B7C     		ldrb	r3, [r3, #16]	@ zero_extendqisi2
 515              		.loc 2 130 45
 516 001a 002B     		cmp	r3, #0
 517 001c 01D1     		bne	.L40
 518              		.loc 2 130 45 is_stmt 0 discriminator 1
 519 001e 0523     		movs	r3, #5
 520 0020 00E0     		b	.L39
 521              	.L40:
 522              		.loc 2 130 45 discriminator 2
 523 0022 0A23     		movs	r3, #10
 524              	.L39:
 525              		.loc 2 131 1 is_stmt 1
 526 0024 1846     		mov	r0, r3
 527 0026 0C37     		adds	r7, r7, #12
 528              		.cfi_def_cfa_offset 4
 529 0028 BD46     		mov	sp, r7
 530              		.cfi_def_cfa_register 13
 531              		@ sp needed
 532 002a 80BC     		pop	{r7}
 533              		.cfi_restore 7
 534              		.cfi_def_cfa_offset 0
 535 002c 7047     		bx	lr
 536              	.L43:
 537 002e 00BF     		.align	2
 538              	.L42:
 539 0030 00580140 		.word	1073829888
 540              		.cfi_endproc
 541              	.LFE436:
 542              		.size	sai_lld_irq_priority, .-sai_lld_irq_priority
 543              		.section	.text.sai_lld_dma_priority,"ax",%progbits
 544              		.align	1
 545              		.syntax unified
 546              		.thumb
 547              		.thumb_func
 548              		.type	sai_lld_dma_priority, %function
 549              	sai_lld_dma_priority:
 550              	.LFB437:
 551              		.loc 2 133 61
 552              		.cfi_startproc
 553              		@ args = 0, pretend = 0, frame = 8
 554              		@ frame_needed = 1, uses_anonymous_args = 0
 555              		@ link register save eliminated.
 556 0000 80B4     		push	{r7}
 557              		.cfi_def_cfa_offset 4
 558              		.cfi_offset 7, -4
 559 0002 83B0     		sub	sp, sp, #12
 560              		.cfi_def_cfa_offset 16
 561 0004 00AF     		add	r7, sp, #0
 562              		.cfi_def_cfa_register 7
 563 0006 7860     		str	r0, [r7, #4]
 564              		.loc 2 135 11
 565 0008 7B68     		ldr	r3, [r7, #4]
 566 000a 9B68     		ldr	r3, [r3, #8]
ARM GAS  C:\Users\DEVELO~1\AppData\Local\Temp\ccsHIVqO.s 			page 11


 567              		.loc 2 135 6
 568 000c 084A     		ldr	r2, .L49
 569 000e 9342     		cmp	r3, r2
 570 0010 01D1     		bne	.L45
 571              		.loc 2 137 47
 572 0012 0123     		movs	r3, #1
 573 0014 06E0     		b	.L46
 574              	.L45:
 575              		.loc 2 140 15
 576 0016 7B68     		ldr	r3, [r7, #4]
 577 0018 1B7C     		ldrb	r3, [r3, #16]	@ zero_extendqisi2
 578              		.loc 2 141 45
 579 001a 002B     		cmp	r3, #0
 580 001c 01D1     		bne	.L47
 581              		.loc 2 141 45 is_stmt 0 discriminator 1
 582 001e 0223     		movs	r3, #2
 583 0020 00E0     		b	.L46
 584              	.L47:
 585              		.loc 2 141 45 discriminator 2
 586 0022 0123     		movs	r3, #1
 587              	.L46:
 588              		.loc 2 142 1 is_stmt 1
 589 0024 1846     		mov	r0, r3
 590 0026 0C37     		adds	r7, r7, #12
 591              		.cfi_def_cfa_offset 4
 592 0028 BD46     		mov	sp, r7
 593              		.cfi_def_cfa_register 13
 594              		@ sp needed
 595 002a 80BC     		pop	{r7}
 596              		.cfi_restore 7
 597              		.cfi_def_cfa_offset 0
 598 002c 7047     		bx	lr
 599              	.L50:
 600 002e 00BF     		.align	2
 601              	.L49:
 602 0030 00580140 		.word	1073829888
 603              		.cfi_endproc
 604              	.LFE437:
 605              		.size	sai_lld_dma_priority, .-sai_lld_dma_priority
 606              		.section	.text.sai_lld_init,"ax",%progbits
 607              		.align	1
 608              		.global	sai_lld_init
 609              		.syntax unified
 610              		.thumb
 611              		.thumb_func
 612              		.type	sai_lld_init, %function
 613              	sai_lld_init:
 614              	.LFB438:
 615              		.loc 2 148 25
 616              		.cfi_startproc
 617              		@ args = 0, pretend = 0, frame = 0
 618              		@ frame_needed = 1, uses_anonymous_args = 0
 619 0000 80B5     		push	{r7, lr}
 620              		.cfi_def_cfa_offset 8
 621              		.cfi_offset 7, -8
 622              		.cfi_offset 14, -4
 623 0002 00AF     		add	r7, sp, #0
ARM GAS  C:\Users\DEVELO~1\AppData\Local\Temp\ccsHIVqO.s 			page 12


 624              		.cfi_def_cfa_register 7
 625              		.loc 2 167 3
 626 0004 0648     		ldr	r0, .L52
 627 0006 FFF7FEFF 		bl	saiObjectInit
 628              		.loc 2 168 14
 629 000a 054B     		ldr	r3, .L52
 630 000c 054A     		ldr	r2, .L52+4
 631 000e 9A60     		str	r2, [r3, #8]
 632              		.loc 2 170 17
 633 0010 034B     		ldr	r3, .L52
 634 0012 054A     		ldr	r2, .L52+8
 635 0014 DA60     		str	r2, [r3, #12]
 636              		.loc 2 171 16
 637 0016 024B     		ldr	r3, .L52
 638 0018 0022     		movs	r2, #0
 639 001a 1A74     		strb	r2, [r3, #16]
 640              		.loc 2 181 1
 641 001c 00BF     		nop
 642 001e 80BD     		pop	{r7, pc}
 643              	.L53:
 644              		.align	2
 645              	.L52:
 646 0020 00000000 		.word	SAID2A
 647 0024 005C0140 		.word	1073830912
 648 0028 045C0140 		.word	1073830916
 649              		.cfi_endproc
 650              	.LFE438:
 651              		.size	sai_lld_init, .-sai_lld_init
 652              		.section	.text.sai_lld_start,"ax",%progbits
 653              		.align	1
 654              		.global	sai_lld_start
 655              		.syntax unified
 656              		.thumb
 657              		.thumb_func
 658              		.type	sai_lld_start, %function
 659              	sai_lld_start:
 660              	.LFB439:
 661              		.loc 2 183 37
 662              		.cfi_startproc
 663              		@ args = 0, pretend = 0, frame = 16
 664              		@ frame_needed = 1, uses_anonymous_args = 0
 665 0000 90B5     		push	{r4, r7, lr}
 666              		.cfi_def_cfa_offset 12
 667              		.cfi_offset 4, -12
 668              		.cfi_offset 7, -8
 669              		.cfi_offset 14, -4
 670 0002 85B0     		sub	sp, sp, #20
 671              		.cfi_def_cfa_offset 32
 672 0004 00AF     		add	r7, sp, #0
 673              		.cfi_def_cfa_register 7
 674 0006 7860     		str	r0, [r7, #4]
 675              		.loc 2 187 11
 676 0008 7B68     		ldr	r3, [r7, #4]
 677 000a 1B78     		ldrb	r3, [r3]	@ zero_extendqisi2
 678              		.loc 2 187 6
 679 000c 012B     		cmp	r3, #1
 680 000e 4ED1     		bne	.L55
ARM GAS  C:\Users\DEVELO~1\AppData\Local\Temp\ccsHIVqO.s 			page 13


 681              		.loc 2 188 13
 682 0010 7B68     		ldr	r3, [r7, #4]
 683 0012 9B68     		ldr	r3, [r3, #8]
 684              		.loc 2 188 8
 685 0014 4D4A     		ldr	r2, .L60
 686 0016 9342     		cmp	r3, r2
 687 0018 0CD1     		bne	.L56
 688              		.loc 2 189 19
 689 001a 4D4B     		ldr	r3, .L60+4
 690 001c 1B68     		ldr	r3, [r3]
 691 001e 5A1C     		adds	r2, r3, #1
 692 0020 4B49     		ldr	r1, .L60+4
 693 0022 0A60     		str	r2, [r1]
 694              		.loc 2 189 10
 695 0024 002B     		cmp	r3, #0
 696 0026 11D1     		bne	.L57
 697              		.loc 2 190 9
 698 0028 0121     		movs	r1, #1
 699 002a 4FF48000 		mov	r0, #4194304
 700 002e FFF7FEFF 		bl	rccEnableAPB2
 701 0032 0BE0     		b	.L57
 702              	.L56:
 703              		.loc 2 194 19
 704 0034 474B     		ldr	r3, .L60+8
 705 0036 1B68     		ldr	r3, [r3]
 706 0038 5A1C     		adds	r2, r3, #1
 707 003a 4649     		ldr	r1, .L60+8
 708 003c 0A60     		str	r2, [r1]
 709              		.loc 2 194 10
 710 003e 002B     		cmp	r3, #0
 711 0040 04D1     		bne	.L57
 712              		.loc 2 195 9
 713 0042 0121     		movs	r1, #1
 714 0044 4FF40000 		mov	r0, #8388608
 715 0048 FFF7FEFF 		bl	rccEnableAPB2
 716              	.L57:
 717              		.loc 2 199 13
 718 004c 7868     		ldr	r0, [r7, #4]
 719 004e FFF7FEFF 		bl	sai_lld_is_rx
 720 0052 0346     		mov	r3, r0
 721 0054 FB73     		strb	r3, [r7, #15]
 722              		.loc 2 201 8
 723 0056 FB7B     		ldrb	r3, [r7, #15]	@ zero_extendqisi2
 724 0058 002B     		cmp	r3, #0
 725 005a 14D0     		beq	.L58
 726              		.loc 2 202 21
 727 005c 0121     		movs	r1, #1
 728 005e 7868     		ldr	r0, [r7, #4]
 729 0060 FFF7FEFF 		bl	sai_lld_stream_id
 730 0064 0446     		mov	r4, r0
 731 0066 7868     		ldr	r0, [r7, #4]
 732 0068 FFF7FEFF 		bl	sai_lld_irq_priority
 733 006c 0146     		mov	r1, r0
 734 006e 7B68     		ldr	r3, [r7, #4]
 735 0070 394A     		ldr	r2, .L60+12
 736 0072 2046     		mov	r0, r4
 737 0074 FFF7FEFF 		bl	dmaStreamAllocI
ARM GAS  C:\Users\DEVELO~1\AppData\Local\Temp\ccsHIVqO.s 			page 14


 738 0078 0246     		mov	r2, r0
 739              		.loc 2 202 19
 740 007a 7B68     		ldr	r3, [r7, #4]
 741 007c 5A61     		str	r2, [r3, #20]
 742              		.loc 2 207 19
 743 007e 7B68     		ldr	r3, [r7, #4]
 744 0080 0022     		movs	r2, #0
 745 0082 9A61     		str	r2, [r3, #24]
 746 0084 13E0     		b	.L55
 747              	.L58:
 748              		.loc 2 210 21
 749 0086 0021     		movs	r1, #0
 750 0088 7868     		ldr	r0, [r7, #4]
 751 008a FFF7FEFF 		bl	sai_lld_stream_id
 752 008e 0446     		mov	r4, r0
 753 0090 7868     		ldr	r0, [r7, #4]
 754 0092 FFF7FEFF 		bl	sai_lld_irq_priority
 755 0096 0146     		mov	r1, r0
 756 0098 7B68     		ldr	r3, [r7, #4]
 757 009a 2F4A     		ldr	r2, .L60+12
 758 009c 2046     		mov	r0, r4
 759 009e FFF7FEFF 		bl	dmaStreamAllocI
 760 00a2 0246     		mov	r2, r0
 761              		.loc 2 210 19
 762 00a4 7B68     		ldr	r3, [r7, #4]
 763 00a6 9A61     		str	r2, [r3, #24]
 764              		.loc 2 215 19
 765 00a8 7B68     		ldr	r3, [r7, #4]
 766 00aa 0022     		movs	r2, #0
 767 00ac 5A61     		str	r2, [r3, #20]
 768              	.L55:
 769              		.loc 2 219 13
 770 00ae 7B68     		ldr	r3, [r7, #4]
 771 00b0 5B68     		ldr	r3, [r3, #4]
 772              		.loc 2 219 21
 773 00b2 5B69     		ldr	r3, [r3, #20]
 774              		.loc 2 219 7
 775 00b4 23F44033 		bic	r3, r3, #196608
 776 00b8 BB60     		str	r3, [r7, #8]
 777              		.loc 2 220 7
 778 00ba 7B68     		ldr	r3, [r7, #4]
 779 00bc DB68     		ldr	r3, [r3, #12]
 780              		.loc 2 220 21
 781 00be 1A68     		ldr	r2, [r3]
 782              		.loc 2 220 7
 783 00c0 7B68     		ldr	r3, [r7, #4]
 784 00c2 DB68     		ldr	r3, [r3, #12]
 785              		.loc 2 220 21
 786 00c4 22F48032 		bic	r2, r2, #65536
 787 00c8 1A60     		str	r2, [r3]
 788              		.loc 2 221 9
 789 00ca 00BF     		nop
 790              	.L59:
 791              		.loc 2 221 15 discriminator 1
 792 00cc 7B68     		ldr	r3, [r7, #4]
 793 00ce DB68     		ldr	r3, [r3, #12]
 794              		.loc 2 221 23 discriminator 1
ARM GAS  C:\Users\DEVELO~1\AppData\Local\Temp\ccsHIVqO.s 			page 15


 795 00d0 1B68     		ldr	r3, [r3]
 796              		.loc 2 221 29 discriminator 1
 797 00d2 03F48033 		and	r3, r3, #65536
 798              		.loc 2 221 47 discriminator 1
 799 00d6 002B     		cmp	r3, #0
 800 00d8 F8D1     		bne	.L59
 801              		.loc 2 223 7
 802 00da 7B68     		ldr	r3, [r7, #4]
 803 00dc DB68     		ldr	r3, [r3, #12]
 804              		.loc 2 223 21
 805 00de 1A68     		ldr	r2, [r3]
 806              		.loc 2 223 7
 807 00e0 7B68     		ldr	r3, [r7, #4]
 808 00e2 DB68     		ldr	r3, [r3, #12]
 809              		.loc 2 223 21
 810 00e4 22F40032 		bic	r2, r2, #131072
 811 00e8 1A60     		str	r2, [r3]
 812              		.loc 2 224 7
 813 00ea 7B68     		ldr	r3, [r7, #4]
 814 00ec DB68     		ldr	r3, [r3, #12]
 815              		.loc 2 224 21
 816 00ee 1A68     		ldr	r2, [r3]
 817              		.loc 2 224 7
 818 00f0 7B68     		ldr	r3, [r7, #4]
 819 00f2 DB68     		ldr	r3, [r3, #12]
 820              		.loc 2 224 21
 821 00f4 22F40032 		bic	r2, r2, #131072
 822 00f8 1A60     		str	r2, [r3]
 823              		.loc 2 228 24
 824 00fa 7B68     		ldr	r3, [r7, #4]
 825 00fc 5A68     		ldr	r2, [r3, #4]
 826              		.loc 2 228 7
 827 00fe 7B68     		ldr	r3, [r7, #4]
 828 0100 9B68     		ldr	r3, [r3, #8]
 829              		.loc 2 228 32
 830 0102 1269     		ldr	r2, [r2, #16]
 831              		.loc 2 228 18
 832 0104 1A60     		str	r2, [r3]
 833              		.loc 2 229 7
 834 0106 7B68     		ldr	r3, [r7, #4]
 835 0108 DB68     		ldr	r3, [r3, #12]
 836              		.loc 2 229 21
 837 010a BA68     		ldr	r2, [r7, #8]
 838 010c 1A60     		str	r2, [r3]
 839              		.loc 2 230 27
 840 010e 7B68     		ldr	r3, [r7, #4]
 841 0110 5A68     		ldr	r2, [r3, #4]
 842              		.loc 2 230 7
 843 0112 7B68     		ldr	r3, [r7, #4]
 844 0114 DB68     		ldr	r3, [r3, #12]
 845              		.loc 2 230 35
 846 0116 9269     		ldr	r2, [r2, #24]
 847              		.loc 2 230 21
 848 0118 5A60     		str	r2, [r3, #4]
 849              		.loc 2 231 28
 850 011a 7B68     		ldr	r3, [r7, #4]
 851 011c 5A68     		ldr	r2, [r3, #4]
ARM GAS  C:\Users\DEVELO~1\AppData\Local\Temp\ccsHIVqO.s 			page 16


 852              		.loc 2 231 7
 853 011e 7B68     		ldr	r3, [r7, #4]
 854 0120 DB68     		ldr	r3, [r3, #12]
 855              		.loc 2 231 36
 856 0122 D269     		ldr	r2, [r2, #28]
 857              		.loc 2 231 22
 858 0124 9A60     		str	r2, [r3, #8]
 859              		.loc 2 232 29
 860 0126 7B68     		ldr	r3, [r7, #4]
 861 0128 5A68     		ldr	r2, [r3, #4]
 862              		.loc 2 232 7
 863 012a 7B68     		ldr	r3, [r7, #4]
 864 012c DB68     		ldr	r3, [r3, #12]
 865              		.loc 2 232 37
 866 012e 126A     		ldr	r2, [r2, #32]
 867              		.loc 2 232 23
 868 0130 DA60     		str	r2, [r3, #12]
 869              		.loc 2 233 7
 870 0132 7B68     		ldr	r3, [r7, #4]
 871 0134 DB68     		ldr	r3, [r3, #12]
 872              		.loc 2 233 21
 873 0136 0022     		movs	r2, #0
 874 0138 1A61     		str	r2, [r3, #16]
 875              		.loc 2 234 7
 876 013a 7B68     		ldr	r3, [r7, #4]
 877 013c DB68     		ldr	r3, [r3, #12]
 878              		.loc 2 234 23
 879 013e 4FF0FF32 		mov	r2, #-1
 880 0142 9A61     		str	r2, [r3, #24]
 881              		.loc 2 235 1
 882 0144 00BF     		nop
 883 0146 1437     		adds	r7, r7, #20
 884              		.cfi_def_cfa_offset 12
 885 0148 BD46     		mov	sp, r7
 886              		.cfi_def_cfa_register 13
 887              		@ sp needed
 888 014a 90BD     		pop	{r4, r7, pc}
 889              	.L61:
 890              		.align	2
 891              	.L60:
 892 014c 00580140 		.word	1073829888
 893 0150 00000000 		.word	sai1_ref
 894 0154 00000000 		.word	sai2_ref
 895 0158 00000000 		.word	sai_lld_serve_dma_interrupt
 896              		.cfi_endproc
 897              	.LFE439:
 898              		.size	sai_lld_start, .-sai_lld_start
 899              		.section	.text.sai_lld_stop,"ax",%progbits
 900              		.align	1
 901              		.global	sai_lld_stop
 902              		.syntax unified
 903              		.thumb
 904              		.thumb_func
 905              		.type	sai_lld_stop, %function
 906              	sai_lld_stop:
 907              	.LFB440:
 908              		.loc 2 237 36
ARM GAS  C:\Users\DEVELO~1\AppData\Local\Temp\ccsHIVqO.s 			page 17


 909              		.cfi_startproc
 910              		@ args = 0, pretend = 0, frame = 8
 911              		@ frame_needed = 1, uses_anonymous_args = 0
 912 0000 80B5     		push	{r7, lr}
 913              		.cfi_def_cfa_offset 8
 914              		.cfi_offset 7, -8
 915              		.cfi_offset 14, -4
 916 0002 82B0     		sub	sp, sp, #8
 917              		.cfi_def_cfa_offset 16
 918 0004 00AF     		add	r7, sp, #0
 919              		.cfi_def_cfa_register 7
 920 0006 7860     		str	r0, [r7, #4]
 921              		.loc 2 238 7
 922 0008 7B68     		ldr	r3, [r7, #4]
 923 000a DB68     		ldr	r3, [r3, #12]
 924              		.loc 2 238 21
 925 000c 1A68     		ldr	r2, [r3]
 926              		.loc 2 238 7
 927 000e 7B68     		ldr	r3, [r7, #4]
 928 0010 DB68     		ldr	r3, [r3, #12]
 929              		.loc 2 238 21
 930 0012 22F48032 		bic	r2, r2, #65536
 931 0016 1A60     		str	r2, [r3]
 932              		.loc 2 239 9
 933 0018 00BF     		nop
 934              	.L63:
 935              		.loc 2 239 15 discriminator 1
 936 001a 7B68     		ldr	r3, [r7, #4]
 937 001c DB68     		ldr	r3, [r3, #12]
 938              		.loc 2 239 23 discriminator 1
 939 001e 1B68     		ldr	r3, [r3]
 940              		.loc 2 239 29 discriminator 1
 941 0020 03F48033 		and	r3, r3, #65536
 942              		.loc 2 239 47 discriminator 1
 943 0024 002B     		cmp	r3, #0
 944 0026 F8D1     		bne	.L63
 945              		.loc 2 241 7
 946 0028 7B68     		ldr	r3, [r7, #4]
 947 002a DB68     		ldr	r3, [r3, #12]
 948              		.loc 2 241 21
 949 002c 1A68     		ldr	r2, [r3]
 950              		.loc 2 241 7
 951 002e 7B68     		ldr	r3, [r7, #4]
 952 0030 DB68     		ldr	r3, [r3, #12]
 953              		.loc 2 241 21
 954 0032 22F40032 		bic	r2, r2, #131072
 955 0036 1A60     		str	r2, [r3]
 956              		.loc 2 243 11
 957 0038 7B68     		ldr	r3, [r7, #4]
 958 003a 5B69     		ldr	r3, [r3, #20]
 959              		.loc 2 243 6
 960 003c 002B     		cmp	r3, #0
 961 003e 23D0     		beq	.L64
 962              		.loc 2 244 5
 963 0040 7B68     		ldr	r3, [r7, #4]
 964 0042 5B69     		ldr	r3, [r3, #20]
 965 0044 1B68     		ldr	r3, [r3]
ARM GAS  C:\Users\DEVELO~1\AppData\Local\Temp\ccsHIVqO.s 			page 18


 966 0046 1A68     		ldr	r2, [r3]
 967 0048 7B68     		ldr	r3, [r7, #4]
 968 004a 5B69     		ldr	r3, [r3, #20]
 969 004c 1B68     		ldr	r3, [r3]
 970 004e 22F01F02 		bic	r2, r2, #31
 971 0052 1A60     		str	r2, [r3]
 972              	.L65:
 973              		.loc 2 244 5 is_stmt 0 discriminator 2
 974 0054 7B68     		ldr	r3, [r7, #4]
 975 0056 5B69     		ldr	r3, [r3, #20]
 976 0058 1B68     		ldr	r3, [r3]
 977 005a 1B68     		ldr	r3, [r3]
 978 005c 03F00103 		and	r3, r3, #1
 979 0060 002B     		cmp	r3, #0
 980 0062 F7D1     		bne	.L65
 981              		.loc 2 244 5 discriminator 3
 982 0064 7B68     		ldr	r3, [r7, #4]
 983 0066 5B69     		ldr	r3, [r3, #20]
 984 0068 1B7B     		ldrb	r3, [r3, #12]	@ zero_extendqisi2
 985 006a 1946     		mov	r1, r3
 986 006c 7B68     		ldr	r3, [r7, #4]
 987 006e 5B69     		ldr	r3, [r3, #20]
 988 0070 5B68     		ldr	r3, [r3, #4]
 989 0072 3D22     		movs	r2, #61
 990 0074 8A40     		lsls	r2, r2, r1
 991 0076 1A60     		str	r2, [r3]
 992              		.loc 2 245 5 is_stmt 1 discriminator 3
 993 0078 7B68     		ldr	r3, [r7, #4]
 994 007a 5B69     		ldr	r3, [r3, #20]
 995 007c 1846     		mov	r0, r3
 996 007e FFF7FEFF 		bl	dmaStreamFreeI
 997              		.loc 2 246 17 discriminator 3
 998 0082 7B68     		ldr	r3, [r7, #4]
 999 0084 0022     		movs	r2, #0
 1000 0086 5A61     		str	r2, [r3, #20]
 1001              	.L64:
 1002              		.loc 2 249 11
 1003 0088 7B68     		ldr	r3, [r7, #4]
 1004 008a 9B69     		ldr	r3, [r3, #24]
 1005              		.loc 2 249 6
 1006 008c 002B     		cmp	r3, #0
 1007 008e 23D0     		beq	.L66
 1008              		.loc 2 250 5
 1009 0090 7B68     		ldr	r3, [r7, #4]
 1010 0092 9B69     		ldr	r3, [r3, #24]
 1011 0094 1B68     		ldr	r3, [r3]
 1012 0096 1A68     		ldr	r2, [r3]
 1013 0098 7B68     		ldr	r3, [r7, #4]
 1014 009a 9B69     		ldr	r3, [r3, #24]
 1015 009c 1B68     		ldr	r3, [r3]
 1016 009e 22F01F02 		bic	r2, r2, #31
 1017 00a2 1A60     		str	r2, [r3]
 1018              	.L67:
 1019              		.loc 2 250 5 is_stmt 0 discriminator 2
 1020 00a4 7B68     		ldr	r3, [r7, #4]
 1021 00a6 9B69     		ldr	r3, [r3, #24]
 1022 00a8 1B68     		ldr	r3, [r3]
ARM GAS  C:\Users\DEVELO~1\AppData\Local\Temp\ccsHIVqO.s 			page 19


 1023 00aa 1B68     		ldr	r3, [r3]
 1024 00ac 03F00103 		and	r3, r3, #1
 1025 00b0 002B     		cmp	r3, #0
 1026 00b2 F7D1     		bne	.L67
 1027              		.loc 2 250 5 discriminator 3
 1028 00b4 7B68     		ldr	r3, [r7, #4]
 1029 00b6 9B69     		ldr	r3, [r3, #24]
 1030 00b8 1B7B     		ldrb	r3, [r3, #12]	@ zero_extendqisi2
 1031 00ba 1946     		mov	r1, r3
 1032 00bc 7B68     		ldr	r3, [r7, #4]
 1033 00be 9B69     		ldr	r3, [r3, #24]
 1034 00c0 5B68     		ldr	r3, [r3, #4]
 1035 00c2 3D22     		movs	r2, #61
 1036 00c4 8A40     		lsls	r2, r2, r1
 1037 00c6 1A60     		str	r2, [r3]
 1038              		.loc 2 251 5 is_stmt 1 discriminator 3
 1039 00c8 7B68     		ldr	r3, [r7, #4]
 1040 00ca 9B69     		ldr	r3, [r3, #24]
 1041 00cc 1846     		mov	r0, r3
 1042 00ce FFF7FEFF 		bl	dmaStreamFreeI
 1043              		.loc 2 252 17 discriminator 3
 1044 00d2 7B68     		ldr	r3, [r7, #4]
 1045 00d4 0022     		movs	r2, #0
 1046 00d6 9A61     		str	r2, [r3, #24]
 1047              	.L66:
 1048              		.loc 2 255 11
 1049 00d8 7B68     		ldr	r3, [r7, #4]
 1050 00da 9B68     		ldr	r3, [r3, #8]
 1051              		.loc 2 255 6
 1052 00dc 104A     		ldr	r2, .L71
 1053 00de 9342     		cmp	r3, r2
 1054 00e0 0DD1     		bne	.L68
 1055              		.loc 2 256 9
 1056 00e2 104B     		ldr	r3, .L71+4
 1057 00e4 1B68     		ldr	r3, [r3]
 1058 00e6 013B     		subs	r3, r3, #1
 1059              		.loc 2 256 8
 1060 00e8 0E4A     		ldr	r2, .L71+4
 1061 00ea 1360     		str	r3, [r2]
 1062              		.loc 2 256 9
 1063 00ec 0D4B     		ldr	r3, .L71+4
 1064 00ee 1B68     		ldr	r3, [r3]
 1065              		.loc 2 256 8
 1066 00f0 002B     		cmp	r3, #0
 1067 00f2 11D1     		bne	.L70
 1068              		.loc 2 257 7
 1069 00f4 4FF48000 		mov	r0, #4194304
 1070 00f8 FFF7FEFF 		bl	rccDisableAPB2
 1071              		.loc 2 265 1
 1072 00fc 0CE0     		b	.L70
 1073              	.L68:
 1074              		.loc 2 261 9
 1075 00fe 0A4B     		ldr	r3, .L71+8
 1076 0100 1B68     		ldr	r3, [r3]
 1077 0102 013B     		subs	r3, r3, #1
 1078              		.loc 2 261 8
 1079 0104 084A     		ldr	r2, .L71+8
ARM GAS  C:\Users\DEVELO~1\AppData\Local\Temp\ccsHIVqO.s 			page 20


 1080 0106 1360     		str	r3, [r2]
 1081              		.loc 2 261 9
 1082 0108 074B     		ldr	r3, .L71+8
 1083 010a 1B68     		ldr	r3, [r3]
 1084              		.loc 2 261 8
 1085 010c 002B     		cmp	r3, #0
 1086 010e 03D1     		bne	.L70
 1087              		.loc 2 262 7
 1088 0110 4FF40000 		mov	r0, #8388608
 1089 0114 FFF7FEFF 		bl	rccDisableAPB2
 1090              	.L70:
 1091              		.loc 2 265 1
 1092 0118 00BF     		nop
 1093 011a 0837     		adds	r7, r7, #8
 1094              		.cfi_def_cfa_offset 8
 1095 011c BD46     		mov	sp, r7
 1096              		.cfi_def_cfa_register 13
 1097              		@ sp needed
 1098 011e 80BD     		pop	{r7, pc}
 1099              	.L72:
 1100              		.align	2
 1101              	.L71:
 1102 0120 00580140 		.word	1073829888
 1103 0124 00000000 		.word	sai1_ref
 1104 0128 00000000 		.word	sai2_ref
 1105              		.cfi_endproc
 1106              	.LFE440:
 1107              		.size	sai_lld_stop, .-sai_lld_stop
 1108              		.section	.text.sai_lld_set_buffers,"ax",%progbits
 1109              		.align	1
 1110              		.global	sai_lld_set_buffers
 1111              		.syntax unified
 1112              		.thumb
 1113              		.thumb_func
 1114              		.type	sai_lld_set_buffers, %function
 1115              	sai_lld_set_buffers:
 1116              	.LFB441:
 1117              		.loc 2 270 39
 1118              		.cfi_startproc
 1119              		@ args = 0, pretend = 0, frame = 24
 1120              		@ frame_needed = 1, uses_anonymous_args = 0
 1121 0000 90B5     		push	{r4, r7, lr}
 1122              		.cfi_def_cfa_offset 12
 1123              		.cfi_offset 4, -12
 1124              		.cfi_offset 7, -8
 1125              		.cfi_offset 14, -4
 1126 0002 87B0     		sub	sp, sp, #28
 1127              		.cfi_def_cfa_offset 40
 1128 0004 00AF     		add	r7, sp, #0
 1129              		.cfi_def_cfa_register 7
 1130 0006 F860     		str	r0, [r7, #12]
 1131 0008 B960     		str	r1, [r7, #8]
 1132 000a 7A60     		str	r2, [r7, #4]
 1133 000c 3B60     		str	r3, [r7]
 1134              		.loc 2 278 15
 1135 000e FB68     		ldr	r3, [r7, #12]
 1136 0010 BA68     		ldr	r2, [r7, #8]
ARM GAS  C:\Users\DEVELO~1\AppData\Local\Temp\ccsHIVqO.s 			page 21


 1137 0012 5A62     		str	r2, [r3, #36]
 1138              		.loc 2 279 15
 1139 0014 FB68     		ldr	r3, [r7, #12]
 1140 0016 7A68     		ldr	r2, [r7, #4]
 1141 0018 9A62     		str	r2, [r3, #40]
 1142              		.loc 2 280 17
 1143 001a FB68     		ldr	r3, [r7, #12]
 1144 001c 3A68     		ldr	r2, [r7]
 1145 001e DA62     		str	r2, [r3, #44]
 1146              		.loc 2 282 13
 1147 0020 F868     		ldr	r0, [r7, #12]
 1148 0022 FFF7FEFF 		bl	sai_lld_dma_request
 1149 0026 7861     		str	r0, [r7, #20]
 1150              		.loc 2 283 11
 1151 0028 F868     		ldr	r0, [r7, #12]
 1152 002a FFF7FEFF 		bl	sai_lld_is_rx
 1153 002e 0346     		mov	r3, r0
 1154 0030 FB74     		strb	r3, [r7, #19]
 1155              		.loc 2 285 6
 1156 0032 FB7C     		ldrb	r3, [r7, #19]	@ zero_extendqisi2
 1157 0034 002B     		cmp	r3, #0
 1158 0036 5DD0     		beq	.L74
 1159              		.loc 2 289 5
 1160 0038 FB68     		ldr	r3, [r7, #12]
 1161 003a 5B69     		ldr	r3, [r3, #20]
 1162 003c 1B68     		ldr	r3, [r3]
 1163 003e 1A68     		ldr	r2, [r3]
 1164 0040 FB68     		ldr	r3, [r7, #12]
 1165 0042 5B69     		ldr	r3, [r3, #20]
 1166 0044 1B68     		ldr	r3, [r3]
 1167 0046 22F01F02 		bic	r2, r2, #31
 1168 004a 1A60     		str	r2, [r3]
 1169              	.L75:
 1170              		.loc 2 289 5 is_stmt 0 discriminator 2
 1171 004c FB68     		ldr	r3, [r7, #12]
 1172 004e 5B69     		ldr	r3, [r3, #20]
 1173 0050 1B68     		ldr	r3, [r3]
 1174 0052 1B68     		ldr	r3, [r3]
 1175 0054 03F00103 		and	r3, r3, #1
 1176 0058 002B     		cmp	r3, #0
 1177 005a F7D1     		bne	.L75
 1178              		.loc 2 289 5 discriminator 3
 1179 005c FB68     		ldr	r3, [r7, #12]
 1180 005e 5B69     		ldr	r3, [r3, #20]
 1181 0060 1B7B     		ldrb	r3, [r3, #12]	@ zero_extendqisi2
 1182 0062 1946     		mov	r1, r3
 1183 0064 FB68     		ldr	r3, [r7, #12]
 1184 0066 5B69     		ldr	r3, [r3, #20]
 1185 0068 5B68     		ldr	r3, [r3, #4]
 1186 006a 3D22     		movs	r2, #61
 1187 006c 8A40     		lsls	r2, r2, r1
 1188 006e 1A60     		str	r2, [r3]
 1189              		.loc 2 290 5 is_stmt 1 discriminator 3
 1190 0070 FB68     		ldr	r3, [r7, #12]
 1191 0072 5B69     		ldr	r3, [r3, #20]
 1192 0074 1B7B     		ldrb	r3, [r3, #12]	@ zero_extendqisi2
 1193 0076 1946     		mov	r1, r3
ARM GAS  C:\Users\DEVELO~1\AppData\Local\Temp\ccsHIVqO.s 			page 22


 1194 0078 FB68     		ldr	r3, [r7, #12]
 1195 007a 5B69     		ldr	r3, [r3, #20]
 1196 007c 5B68     		ldr	r3, [r3, #4]
 1197 007e 3D22     		movs	r2, #61
 1198 0080 8A40     		lsls	r2, r2, r1
 1199 0082 1A60     		str	r2, [r3]
 1200              		.loc 2 293 5 discriminator 3
 1201 0084 FB68     		ldr	r3, [r7, #12]
 1202 0086 5B69     		ldr	r3, [r3, #20]
 1203 0088 7969     		ldr	r1, [r7, #20]
 1204 008a 1846     		mov	r0, r3
 1205 008c FFF7FEFF 		bl	dmaSetRequestSource
 1206              		.loc 2 295 5 discriminator 3
 1207 0090 FB68     		ldr	r3, [r7, #12]
 1208 0092 DB68     		ldr	r3, [r3, #12]
 1209 0094 03F11C02 		add	r2, r3, #28
 1210 0098 FB68     		ldr	r3, [r7, #12]
 1211 009a 5B69     		ldr	r3, [r3, #20]
 1212 009c 1B68     		ldr	r3, [r3]
 1213 009e 9A60     		str	r2, [r3, #8]
 1214              		.loc 2 296 5 discriminator 3
 1215 00a0 FB68     		ldr	r3, [r7, #12]
 1216 00a2 5B69     		ldr	r3, [r3, #20]
 1217 00a4 1B68     		ldr	r3, [r3]
 1218 00a6 7A68     		ldr	r2, [r7, #4]
 1219 00a8 DA60     		str	r2, [r3, #12]
 1220              		.loc 2 297 5 discriminator 3
 1221 00aa FB68     		ldr	r3, [r7, #12]
 1222 00ac 5B69     		ldr	r3, [r3, #20]
 1223 00ae 1B68     		ldr	r3, [r3]
 1224 00b0 3A68     		ldr	r2, [r7]
 1225 00b2 5A60     		str	r2, [r3, #4]
 1226              		.loc 2 298 27 discriminator 3
 1227 00b4 FB68     		ldr	r3, [r7, #12]
 1228 00b6 5B68     		ldr	r3, [r3, #4]
 1229              		.loc 2 298 35 discriminator 3
 1230 00b8 5C6A     		ldr	r4, [r3, #36]
 1231              		.loc 2 302 23 discriminator 3
 1232 00ba F868     		ldr	r0, [r7, #12]
 1233 00bc FFF7FEFF 		bl	sai_lld_dma_priority
 1234 00c0 0346     		mov	r3, r0
 1235 00c2 1B04     		lsls	r3, r3, #16
 1236              		.loc 2 301 62 discriminator 3
 1237 00c4 44EA0302 		orr	r2, r4, r3
 1238 00c8 40F21E53 		movw	r3, #1310
 1239 00cc 1343     		orrs	r3, r3, r2
 1240              		.loc 2 298 21 discriminator 3
 1241 00ce FA68     		ldr	r2, [r7, #12]
 1242 00d0 D361     		str	r3, [r2, #28]
 1243              		.loc 2 303 5 discriminator 3
 1244 00d2 FB68     		ldr	r3, [r7, #12]
 1245 00d4 5B69     		ldr	r3, [r3, #20]
 1246 00d6 1B68     		ldr	r3, [r3]
 1247 00d8 FA68     		ldr	r2, [r7, #12]
 1248 00da D269     		ldr	r2, [r2, #28]
 1249 00dc 1A60     		str	r2, [r3]
 1250              		.loc 2 304 5 discriminator 3
ARM GAS  C:\Users\DEVELO~1\AppData\Local\Temp\ccsHIVqO.s 			page 23


 1251 00de FB68     		ldr	r3, [r7, #12]
 1252 00e0 5B69     		ldr	r3, [r3, #20]
 1253 00e2 1B68     		ldr	r3, [r3]
 1254 00e4 1A68     		ldr	r2, [r3]
 1255 00e6 FB68     		ldr	r3, [r7, #12]
 1256 00e8 5B69     		ldr	r3, [r3, #20]
 1257 00ea 1B68     		ldr	r3, [r3]
 1258 00ec 42F00102 		orr	r2, r2, #1
 1259 00f0 1A60     		str	r2, [r3]
 1260              		.loc 2 327 1 discriminator 3
 1261 00f2 5CE0     		b	.L78
 1262              	.L74:
 1263              		.loc 2 310 5
 1264 00f4 FB68     		ldr	r3, [r7, #12]
 1265 00f6 9B69     		ldr	r3, [r3, #24]
 1266 00f8 1B68     		ldr	r3, [r3]
 1267 00fa 1A68     		ldr	r2, [r3]
 1268 00fc FB68     		ldr	r3, [r7, #12]
 1269 00fe 9B69     		ldr	r3, [r3, #24]
 1270 0100 1B68     		ldr	r3, [r3]
 1271 0102 22F01F02 		bic	r2, r2, #31
 1272 0106 1A60     		str	r2, [r3]
 1273              	.L77:
 1274              		.loc 2 310 5 is_stmt 0 discriminator 2
 1275 0108 FB68     		ldr	r3, [r7, #12]
 1276 010a 9B69     		ldr	r3, [r3, #24]
 1277 010c 1B68     		ldr	r3, [r3]
 1278 010e 1B68     		ldr	r3, [r3]
 1279 0110 03F00103 		and	r3, r3, #1
 1280 0114 002B     		cmp	r3, #0
 1281 0116 F7D1     		bne	.L77
 1282              		.loc 2 310 5 discriminator 3
 1283 0118 FB68     		ldr	r3, [r7, #12]
 1284 011a 9B69     		ldr	r3, [r3, #24]
 1285 011c 1B7B     		ldrb	r3, [r3, #12]	@ zero_extendqisi2
 1286 011e 1946     		mov	r1, r3
 1287 0120 FB68     		ldr	r3, [r7, #12]
 1288 0122 9B69     		ldr	r3, [r3, #24]
 1289 0124 5B68     		ldr	r3, [r3, #4]
 1290 0126 3D22     		movs	r2, #61
 1291 0128 8A40     		lsls	r2, r2, r1
 1292 012a 1A60     		str	r2, [r3]
 1293              		.loc 2 311 5 is_stmt 1 discriminator 3
 1294 012c FB68     		ldr	r3, [r7, #12]
 1295 012e 9B69     		ldr	r3, [r3, #24]
 1296 0130 1B7B     		ldrb	r3, [r3, #12]	@ zero_extendqisi2
 1297 0132 1946     		mov	r1, r3
 1298 0134 FB68     		ldr	r3, [r7, #12]
 1299 0136 9B69     		ldr	r3, [r3, #24]
 1300 0138 5B68     		ldr	r3, [r3, #4]
 1301 013a 3D22     		movs	r2, #61
 1302 013c 8A40     		lsls	r2, r2, r1
 1303 013e 1A60     		str	r2, [r3]
 1304              		.loc 2 314 5 discriminator 3
 1305 0140 FB68     		ldr	r3, [r7, #12]
 1306 0142 9B69     		ldr	r3, [r3, #24]
 1307 0144 7969     		ldr	r1, [r7, #20]
ARM GAS  C:\Users\DEVELO~1\AppData\Local\Temp\ccsHIVqO.s 			page 24


 1308 0146 1846     		mov	r0, r3
 1309 0148 FFF7FEFF 		bl	dmaSetRequestSource
 1310              		.loc 2 316 5 discriminator 3
 1311 014c FB68     		ldr	r3, [r7, #12]
 1312 014e DB68     		ldr	r3, [r3, #12]
 1313 0150 03F11C02 		add	r2, r3, #28
 1314 0154 FB68     		ldr	r3, [r7, #12]
 1315 0156 9B69     		ldr	r3, [r3, #24]
 1316 0158 1B68     		ldr	r3, [r3]
 1317 015a 9A60     		str	r2, [r3, #8]
 1318              		.loc 2 317 5 discriminator 3
 1319 015c FB68     		ldr	r3, [r7, #12]
 1320 015e 9B69     		ldr	r3, [r3, #24]
 1321 0160 1B68     		ldr	r3, [r3]
 1322 0162 BA68     		ldr	r2, [r7, #8]
 1323 0164 DA60     		str	r2, [r3, #12]
 1324              		.loc 2 318 5 discriminator 3
 1325 0166 FB68     		ldr	r3, [r7, #12]
 1326 0168 9B69     		ldr	r3, [r3, #24]
 1327 016a 1B68     		ldr	r3, [r3]
 1328 016c 3A68     		ldr	r2, [r7]
 1329 016e 5A60     		str	r2, [r3, #4]
 1330              		.loc 2 319 27 discriminator 3
 1331 0170 FB68     		ldr	r3, [r7, #12]
 1332 0172 5B68     		ldr	r3, [r3, #4]
 1333              		.loc 2 319 35 discriminator 3
 1334 0174 5C6A     		ldr	r4, [r3, #36]
 1335              		.loc 2 323 23 discriminator 3
 1336 0176 F868     		ldr	r0, [r7, #12]
 1337 0178 FFF7FEFF 		bl	sai_lld_dma_priority
 1338 017c 0346     		mov	r3, r0
 1339 017e 1B04     		lsls	r3, r3, #16
 1340              		.loc 2 322 62 discriminator 3
 1341 0180 44EA0302 		orr	r2, r4, r3
 1342 0184 40F25E53 		movw	r3, #1374
 1343 0188 1343     		orrs	r3, r3, r2
 1344              		.loc 2 319 21 discriminator 3
 1345 018a FA68     		ldr	r2, [r7, #12]
 1346 018c 1362     		str	r3, [r2, #32]
 1347              		.loc 2 324 5 discriminator 3
 1348 018e FB68     		ldr	r3, [r7, #12]
 1349 0190 9B69     		ldr	r3, [r3, #24]
 1350 0192 1B68     		ldr	r3, [r3]
 1351 0194 FA68     		ldr	r2, [r7, #12]
 1352 0196 126A     		ldr	r2, [r2, #32]
 1353 0198 1A60     		str	r2, [r3]
 1354              		.loc 2 325 5 discriminator 3
 1355 019a FB68     		ldr	r3, [r7, #12]
 1356 019c 9B69     		ldr	r3, [r3, #24]
 1357 019e 1B68     		ldr	r3, [r3]
 1358 01a0 1A68     		ldr	r2, [r3]
 1359 01a2 FB68     		ldr	r3, [r7, #12]
 1360 01a4 9B69     		ldr	r3, [r3, #24]
 1361 01a6 1B68     		ldr	r3, [r3]
 1362 01a8 42F00102 		orr	r2, r2, #1
 1363 01ac 1A60     		str	r2, [r3]
 1364              	.L78:
ARM GAS  C:\Users\DEVELO~1\AppData\Local\Temp\ccsHIVqO.s 			page 25


 1365              		.loc 2 327 1
 1366 01ae 00BF     		nop
 1367 01b0 1C37     		adds	r7, r7, #28
 1368              		.cfi_def_cfa_offset 12
 1369 01b2 BD46     		mov	sp, r7
 1370              		.cfi_def_cfa_register 13
 1371              		@ sp needed
 1372 01b4 90BD     		pop	{r4, r7, pc}
 1373              		.cfi_endproc
 1374              	.LFE441:
 1375              		.size	sai_lld_set_buffers, .-sai_lld_set_buffers
 1376              		.section	.text.sai_lld_start_exchange,"ax",%progbits
 1377              		.align	1
 1378              		.global	sai_lld_start_exchange
 1379              		.syntax unified
 1380              		.thumb
 1381              		.thumb_func
 1382              		.type	sai_lld_start_exchange, %function
 1383              	sai_lld_start_exchange:
 1384              	.LFB442:
 1385              		.loc 2 329 46
 1386              		.cfi_startproc
 1387              		@ args = 0, pretend = 0, frame = 8
 1388              		@ frame_needed = 1, uses_anonymous_args = 0
 1389              		@ link register save eliminated.
 1390 0000 80B4     		push	{r7}
 1391              		.cfi_def_cfa_offset 4
 1392              		.cfi_offset 7, -4
 1393 0002 83B0     		sub	sp, sp, #12
 1394              		.cfi_def_cfa_offset 16
 1395 0004 00AF     		add	r7, sp, #0
 1396              		.cfi_def_cfa_register 7
 1397 0006 7860     		str	r0, [r7, #4]
 1398              		.loc 2 332 28
 1399 0008 7B68     		ldr	r3, [r7, #4]
 1400 000a DB68     		ldr	r3, [r3, #12]
 1401              		.loc 2 332 36
 1402 000c 1B68     		ldr	r3, [r3]
 1403              		.loc 2 332 60
 1404 000e 23F44032 		bic	r2, r3, #196608
 1405              		.loc 2 332 7
 1406 0012 7B68     		ldr	r3, [r7, #4]
 1407 0014 DB68     		ldr	r3, [r3, #12]
 1408              		.loc 2 332 60
 1409 0016 42F40032 		orr	r2, r2, #131072
 1410              		.loc 2 332 21
 1411 001a 1A60     		str	r2, [r3]
 1412              		.loc 2 333 7
 1413 001c 7B68     		ldr	r3, [r7, #4]
 1414 001e DB68     		ldr	r3, [r3, #12]
 1415              		.loc 2 333 21
 1416 0020 1A68     		ldr	r2, [r3]
 1417              		.loc 2 333 7
 1418 0022 7B68     		ldr	r3, [r7, #4]
 1419 0024 DB68     		ldr	r3, [r3, #12]
 1420              		.loc 2 333 21
 1421 0026 42F48032 		orr	r2, r2, #65536
ARM GAS  C:\Users\DEVELO~1\AppData\Local\Temp\ccsHIVqO.s 			page 26


 1422 002a 1A60     		str	r2, [r3]
 1423              		.loc 2 334 1
 1424 002c 00BF     		nop
 1425 002e 0C37     		adds	r7, r7, #12
 1426              		.cfi_def_cfa_offset 4
 1427 0030 BD46     		mov	sp, r7
 1428              		.cfi_def_cfa_register 13
 1429              		@ sp needed
 1430 0032 80BC     		pop	{r7}
 1431              		.cfi_restore 7
 1432              		.cfi_def_cfa_offset 0
 1433 0034 7047     		bx	lr
 1434              		.cfi_endproc
 1435              	.LFE442:
 1436              		.size	sai_lld_start_exchange, .-sai_lld_start_exchange
 1437              		.section	.text.sai_lld_stop_exchange,"ax",%progbits
 1438              		.align	1
 1439              		.global	sai_lld_stop_exchange
 1440              		.syntax unified
 1441              		.thumb
 1442              		.thumb_func
 1443              		.type	sai_lld_stop_exchange, %function
 1444              	sai_lld_stop_exchange:
 1445              	.LFB443:
 1446              		.loc 2 336 45
 1447              		.cfi_startproc
 1448              		@ args = 0, pretend = 0, frame = 8
 1449              		@ frame_needed = 1, uses_anonymous_args = 0
 1450              		@ link register save eliminated.
 1451 0000 80B4     		push	{r7}
 1452              		.cfi_def_cfa_offset 4
 1453              		.cfi_offset 7, -4
 1454 0002 83B0     		sub	sp, sp, #12
 1455              		.cfi_def_cfa_offset 16
 1456 0004 00AF     		add	r7, sp, #0
 1457              		.cfi_def_cfa_register 7
 1458 0006 7860     		str	r0, [r7, #4]
 1459              		.loc 2 337 7
 1460 0008 7B68     		ldr	r3, [r7, #4]
 1461 000a DB68     		ldr	r3, [r3, #12]
 1462              		.loc 2 337 21
 1463 000c 1A68     		ldr	r2, [r3]
 1464              		.loc 2 337 7
 1465 000e 7B68     		ldr	r3, [r7, #4]
 1466 0010 DB68     		ldr	r3, [r3, #12]
 1467              		.loc 2 337 21
 1468 0012 22F48032 		bic	r2, r2, #65536
 1469 0016 1A60     		str	r2, [r3]
 1470              		.loc 2 338 9
 1471 0018 00BF     		nop
 1472              	.L81:
 1473              		.loc 2 338 15 discriminator 1
 1474 001a 7B68     		ldr	r3, [r7, #4]
 1475 001c DB68     		ldr	r3, [r3, #12]
 1476              		.loc 2 338 23 discriminator 1
 1477 001e 1B68     		ldr	r3, [r3]
 1478              		.loc 2 338 29 discriminator 1
ARM GAS  C:\Users\DEVELO~1\AppData\Local\Temp\ccsHIVqO.s 			page 27


 1479 0020 03F48033 		and	r3, r3, #65536
 1480              		.loc 2 338 47 discriminator 1
 1481 0024 002B     		cmp	r3, #0
 1482 0026 F8D1     		bne	.L81
 1483              		.loc 2 340 7
 1484 0028 7B68     		ldr	r3, [r7, #4]
 1485 002a DB68     		ldr	r3, [r3, #12]
 1486              		.loc 2 340 21
 1487 002c 1A68     		ldr	r2, [r3]
 1488              		.loc 2 340 7
 1489 002e 7B68     		ldr	r3, [r7, #4]
 1490 0030 DB68     		ldr	r3, [r3, #12]
 1491              		.loc 2 340 21
 1492 0032 22F40032 		bic	r2, r2, #131072
 1493 0036 1A60     		str	r2, [r3]
 1494              		.loc 2 342 11
 1495 0038 7B68     		ldr	r3, [r7, #4]
 1496 003a 5B69     		ldr	r3, [r3, #20]
 1497              		.loc 2 342 6
 1498 003c 002B     		cmp	r3, #0
 1499 003e 1BD0     		beq	.L82
 1500              		.loc 2 343 5
 1501 0040 7B68     		ldr	r3, [r7, #4]
 1502 0042 5B69     		ldr	r3, [r3, #20]
 1503 0044 1B68     		ldr	r3, [r3]
 1504 0046 1A68     		ldr	r2, [r3]
 1505 0048 7B68     		ldr	r3, [r7, #4]
 1506 004a 5B69     		ldr	r3, [r3, #20]
 1507 004c 1B68     		ldr	r3, [r3]
 1508 004e 22F01F02 		bic	r2, r2, #31
 1509 0052 1A60     		str	r2, [r3]
 1510              	.L83:
 1511              		.loc 2 343 5 is_stmt 0 discriminator 2
 1512 0054 7B68     		ldr	r3, [r7, #4]
 1513 0056 5B69     		ldr	r3, [r3, #20]
 1514 0058 1B68     		ldr	r3, [r3]
 1515 005a 1B68     		ldr	r3, [r3]
 1516 005c 03F00103 		and	r3, r3, #1
 1517 0060 002B     		cmp	r3, #0
 1518 0062 F7D1     		bne	.L83
 1519              		.loc 2 343 5 discriminator 3
 1520 0064 7B68     		ldr	r3, [r7, #4]
 1521 0066 5B69     		ldr	r3, [r3, #20]
 1522 0068 1B7B     		ldrb	r3, [r3, #12]	@ zero_extendqisi2
 1523 006a 1946     		mov	r1, r3
 1524 006c 7B68     		ldr	r3, [r7, #4]
 1525 006e 5B69     		ldr	r3, [r3, #20]
 1526 0070 5B68     		ldr	r3, [r3, #4]
 1527 0072 3D22     		movs	r2, #61
 1528 0074 8A40     		lsls	r2, r2, r1
 1529 0076 1A60     		str	r2, [r3]
 1530              	.L82:
 1531              		.loc 2 345 11 is_stmt 1
 1532 0078 7B68     		ldr	r3, [r7, #4]
 1533 007a 9B69     		ldr	r3, [r3, #24]
 1534              		.loc 2 345 6
 1535 007c 002B     		cmp	r3, #0
ARM GAS  C:\Users\DEVELO~1\AppData\Local\Temp\ccsHIVqO.s 			page 28


 1536 007e 1BD0     		beq	.L86
 1537              		.loc 2 346 5
 1538 0080 7B68     		ldr	r3, [r7, #4]
 1539 0082 9B69     		ldr	r3, [r3, #24]
 1540 0084 1B68     		ldr	r3, [r3]
 1541 0086 1A68     		ldr	r2, [r3]
 1542 0088 7B68     		ldr	r3, [r7, #4]
 1543 008a 9B69     		ldr	r3, [r3, #24]
 1544 008c 1B68     		ldr	r3, [r3]
 1545 008e 22F01F02 		bic	r2, r2, #31
 1546 0092 1A60     		str	r2, [r3]
 1547              	.L85:
 1548              		.loc 2 346 5 is_stmt 0 discriminator 2
 1549 0094 7B68     		ldr	r3, [r7, #4]
 1550 0096 9B69     		ldr	r3, [r3, #24]
 1551 0098 1B68     		ldr	r3, [r3]
 1552 009a 1B68     		ldr	r3, [r3]
 1553 009c 03F00103 		and	r3, r3, #1
 1554 00a0 002B     		cmp	r3, #0
 1555 00a2 F7D1     		bne	.L85
 1556              		.loc 2 346 5 discriminator 3
 1557 00a4 7B68     		ldr	r3, [r7, #4]
 1558 00a6 9B69     		ldr	r3, [r3, #24]
 1559 00a8 1B7B     		ldrb	r3, [r3, #12]	@ zero_extendqisi2
 1560 00aa 1946     		mov	r1, r3
 1561 00ac 7B68     		ldr	r3, [r7, #4]
 1562 00ae 9B69     		ldr	r3, [r3, #24]
 1563 00b0 5B68     		ldr	r3, [r3, #4]
 1564 00b2 3D22     		movs	r2, #61
 1565 00b4 8A40     		lsls	r2, r2, r1
 1566 00b6 1A60     		str	r2, [r3]
 1567              	.L86:
 1568              		.loc 2 348 1 is_stmt 1
 1569 00b8 00BF     		nop
 1570 00ba 0C37     		adds	r7, r7, #12
 1571              		.cfi_def_cfa_offset 4
 1572 00bc BD46     		mov	sp, r7
 1573              		.cfi_def_cfa_register 13
 1574              		@ sp needed
 1575 00be 80BC     		pop	{r7}
 1576              		.cfi_restore 7
 1577              		.cfi_def_cfa_offset 0
 1578 00c0 7047     		bx	lr
 1579              		.cfi_endproc
 1580              	.LFE443:
 1581              		.size	sai_lld_stop_exchange, .-sai_lld_stop_exchange
 1582              		.text
 1583              	.Letext0:
 1584              		.file 3 "c:\\chibistudio\\tools\\gnu tools arm embedded\\11.3 2022.08\\lib\\gcc\\arm-none-eabi\\11
 1585              		.file 4 "c:\\chibistudio\\tools\\gnu tools arm embedded\\11.3 2022.08\\arm-none-eabi\\include\\mac
 1586              		.file 5 "c:\\chibistudio\\tools\\gnu tools arm embedded\\11.3 2022.08\\arm-none-eabi\\include\\sys
 1587              		.file 6 "../../../os/common/ext/ST/STM32H7xx/stm32h743xx.h"
 1588              		.file 7 "../../../os/hal/ports/STM32/LLD/DMAv2/stm32_dma.h"
 1589              		.file 8 "../../../os/hal/include/hal_sai.h"
 1590              		.file 9 "../../../os/hal/ports/STM32/LLD/SAIv1/hal_sai_lld.h"