ARM GAS  C:\Users\DEVELO~1\AppData\Local\Temp\ccvAZLUt.s 			page 1


   1              		.cpu cortex-m7
   2              		.arch armv7e-m
   3              		.fpu softvfp
   4              		.eabi_attribute 20, 1
   5              		.eabi_attribute 21, 1
   6              		.eabi_attribute 23, 3
   7              		.eabi_attribute 24, 1
   8              		.eabi_attribute 25, 1
   9              		.eabi_attribute 26, 1
  10              		.eabi_attribute 30, 2
  11              		.eabi_attribute 34, 1
  12              		.eabi_attribute 18, 4
  13              		.file	"hal_fsmc.c"
  14              		.text
  15              	.Ltext0:
  16              		.cfi_sections	.debug_frame
  17              		.section	.text.fsmcInit,"ax",%progbits
  18              		.align	1
  19              		.p2align 4,,15
  20              		.global	fsmcInit
  21              		.syntax unified
  22              		.thumb
  23              		.thumb_func
  24              		.type	fsmcInit, %function
  25              	fsmcInit:
  26              	.LFB432:
  27              		.file 1 "../../../ChibiOS-Contrib-chibios-21.11.x/os/hal/src/hal_fsmc.c"
  28              		.loc 1 70 21 view -0
  29              		.cfi_startproc
  30              		@ args = 0, pretend = 0, frame = 0
  31              		@ frame_needed = 0, uses_anonymous_args = 0
  32              		@ link register save eliminated.
  33              		.loc 1 72 3 view .LVU1
  34              		.loc 1 72 13 is_stmt 0 view .LVU2
  35 0000 034B     		ldr	r3, .L4
  36              		.loc 1 72 6 view .LVU3
  37 0002 1A78     		ldrb	r2, [r3]	@ zero_extendqisi2
  38 0004 1AB9     		cbnz	r2, .L1
  39              		.loc 1 73 5 is_stmt 1 view .LVU4
  40              		.loc 1 73 19 is_stmt 0 view .LVU5
  41 0006 0121     		movs	r1, #1
  42              		.loc 1 110 18 view .LVU6
  43 0008 024A     		ldr	r2, .L4+4
  44              		.loc 1 73 19 view .LVU7
  45 000a 1970     		strb	r1, [r3]
  46              		.loc 1 110 5 is_stmt 1 view .LVU8
  47              		.loc 1 110 18 is_stmt 0 view .LVU9
  48 000c 5A60     		str	r2, [r3, #4]
  49              	.L1:
  50              		.loc 1 115 1 view .LVU10
  51 000e 7047     		bx	lr
  52              	.L5:
  53              		.align	2
  54              	.L4:
  55 0010 00000000 		.word	.LANCHOR0
  56 0014 40410052 		.word	1375748416
  57              		.cfi_endproc
ARM GAS  C:\Users\DEVELO~1\AppData\Local\Temp\ccvAZLUt.s 			page 2


  58              	.LFE432:
  59              		.size	fsmcInit, .-fsmcInit
  60              		.section	.text.fsmcStart,"ax",%progbits
  61              		.align	1
  62              		.p2align 4,,15
  63              		.global	fsmcStart
  64              		.syntax unified
  65              		.thumb
  66              		.thumb_func
  67              		.type	fsmcStart, %function
  68              	fsmcStart:
  69              	.LVL0:
  70              	.LFB433:
  71              		.loc 1 124 35 is_stmt 1 view -0
  72              		.cfi_startproc
  73              		@ args = 0, pretend = 0, frame = 0
  74              		@ frame_needed = 0, uses_anonymous_args = 0
  75              		@ link register save eliminated.
  76              		.loc 1 126 3 view .LVU12
  77              		.loc 1 126 3 view .LVU13
  78              		.loc 1 126 3 view .LVU14
  79              		.loc 1 129 3 view .LVU15
  80              		.loc 1 129 6 is_stmt 0 view .LVU16
  81 0000 0378     		ldrb	r3, [r0]	@ zero_extendqisi2
  82 0002 012B     		cmp	r3, #1
  83 0004 00D0     		beq	.L9
  84              		.loc 1 145 1 view .LVU17
  85 0006 7047     		bx	lr
  86              	.L9:
  87              		.loc 1 132 5 is_stmt 1 view .LVU18
  88              		.loc 1 132 8 is_stmt 0 view .LVU19
  89 0008 0F4B     		ldr	r3, .L11
  90 000a 9842     		cmp	r0, r3
  91 000c 02D0     		beq	.L10
  92              	.L8:
  93              		.loc 1 143 5 is_stmt 1 view .LVU20
  94              		.loc 1 143 18 is_stmt 0 view .LVU21
  95 000e 0223     		movs	r3, #2
  96 0010 0370     		strb	r3, [r0]
  97              		.loc 1 145 1 view .LVU22
  98 0012 7047     		bx	lr
  99              	.L10:
 100              		.loc 1 134 7 is_stmt 1 view .LVU23
 101              	.LVL1:
 102              	.LBB16:
 103              	.LBI16:
 104              		.file 2 "../../../os/hal/ports/STM32/STM32H7xx/stm32_rcc.h"
 105              		.loc 2 830 22 view .LVU24
 106              		.loc 2 842 3 view .LVU25
 107              	.LBB17:
 108              	.LBI17:
 109              		.loc 2 113 22 view .LVU26
 110              	.LBB18:
 111              		.loc 2 116 3 view .LVU27
 112              		.loc 2 116 17 is_stmt 0 view .LVU28
 113 0014 0D4B     		ldr	r3, .L11+4
 114 0016 DA6F     		ldr	r2, [r3, #124]
ARM GAS  C:\Users\DEVELO~1\AppData\Local\Temp\ccvAZLUt.s 			page 3


 115 0018 42F48052 		orr	r2, r2, #4096
 116 001c DA67     		str	r2, [r3, #124]
 117              		.loc 2 117 3 is_stmt 1 view .LVU29
 118              		.loc 2 117 17 is_stmt 0 view .LVU30
 119 001e DA6F     		ldr	r2, [r3, #124]
 120 0020 22F48052 		bic	r2, r2, #4096
 121 0024 DA67     		str	r2, [r3, #124]
 122              		.loc 2 118 3 is_stmt 1 view .LVU31
 123 0026 DA6F     		ldr	r2, [r3, #124]
 124              	.LVL2:
 125              		.loc 2 118 3 is_stmt 0 view .LVU32
 126              	.LBE18:
 127              	.LBE17:
 128              	.LBE16:
 129              		.loc 1 136 7 is_stmt 1 view .LVU33
 130              	.LBB19:
 131              	.LBI19:
 132              		.loc 2 764 22 view .LVU34
 133              	.LBB20:
 134              		.loc 2 768 3 view .LVU35
 135              		.loc 2 768 19 is_stmt 0 view .LVU36
 136 0028 D3F8D420 		ldr	r2, [r3, #212]
 137 002c 42F48052 		orr	r2, r2, #4096
 138 0030 C3F8D420 		str	r2, [r3, #212]
 139              		.loc 2 769 3 is_stmt 1 view .LVU37
 140              		.loc 2 773 5 view .LVU38
 141              		.loc 2 773 23 is_stmt 0 view .LVU39
 142 0034 D3F8FC20 		ldr	r2, [r3, #252]
 143 0038 22F48052 		bic	r2, r2, #4096
 144 003c C3F8FC20 		str	r2, [r3, #252]
 145              		.loc 2 775 3 is_stmt 1 view .LVU40
 146 0040 D3F8FC30 		ldr	r3, [r3, #252]
 147              		.loc 2 787 1 is_stmt 0 view .LVU41
 148 0044 E3E7     		b	.L8
 149              	.L12:
 150 0046 00BF     		.align	2
 151              	.L11:
 152 0048 00000000 		.word	.LANCHOR0
 153 004c 00440258 		.word	1476543488
 154              	.LBE20:
 155              	.LBE19:
 156              		.cfi_endproc
 157              	.LFE433:
 158              		.size	fsmcStart, .-fsmcStart
 159              		.section	.text.fsmcStop,"ax",%progbits
 160              		.align	1
 161              		.p2align 4,,15
 162              		.global	fsmcStop
 163              		.syntax unified
 164              		.thumb
 165              		.thumb_func
 166              		.type	fsmcStop, %function
 167              	fsmcStop:
 168              	.LVL3:
 169              	.LFB434:
 170              		.loc 1 154 34 is_stmt 1 view -0
 171              		.cfi_startproc
ARM GAS  C:\Users\DEVELO~1\AppData\Local\Temp\ccvAZLUt.s 			page 4


 172              		@ args = 0, pretend = 0, frame = 0
 173              		@ frame_needed = 0, uses_anonymous_args = 0
 174              		@ link register save eliminated.
 175              		.loc 1 156 3 view .LVU43
 176              		.loc 1 156 6 is_stmt 0 view .LVU44
 177 0000 0378     		ldrb	r3, [r0]	@ zero_extendqisi2
 178 0002 022B     		cmp	r3, #2
 179 0004 00D0     		beq	.L16
 180              		.loc 1 174 1 view .LVU45
 181 0006 7047     		bx	lr
 182              	.L16:
 183              		.loc 1 159 5 is_stmt 1 view .LVU46
 184              	.LVL4:
 185              	.LBB21:
 186              	.LBI21:
 187              		.loc 2 830 22 view .LVU47
 188              		.loc 2 842 3 view .LVU48
 189              	.LBB22:
 190              	.LBI22:
 191              		.loc 2 113 22 view .LVU49
 192              	.LBB23:
 193              		.loc 2 116 3 view .LVU50
 194              		.loc 2 116 17 is_stmt 0 view .LVU51
 195 0008 0F4B     		ldr	r3, .L18
 196              	.LBE23:
 197              	.LBE22:
 198              	.LBE21:
 199              		.loc 1 164 8 view .LVU52
 200 000a 1049     		ldr	r1, .L18+4
 201              	.LBB28:
 202              	.LBB26:
 203              	.LBB24:
 204              		.loc 2 116 17 view .LVU53
 205 000c DA6F     		ldr	r2, [r3, #124]
 206              	.LBE24:
 207              	.LBE26:
 208              	.LBE28:
 209              		.loc 1 164 8 view .LVU54
 210 000e 8842     		cmp	r0, r1
 211              	.LBB29:
 212              	.LBB27:
 213              	.LBB25:
 214              		.loc 2 116 17 view .LVU55
 215 0010 42F48052 		orr	r2, r2, #4096
 216 0014 DA67     		str	r2, [r3, #124]
 217              		.loc 2 117 3 is_stmt 1 view .LVU56
 218              		.loc 2 117 17 is_stmt 0 view .LVU57
 219 0016 DA6F     		ldr	r2, [r3, #124]
 220 0018 22F48052 		bic	r2, r2, #4096
 221 001c DA67     		str	r2, [r3, #124]
 222              		.loc 2 118 3 is_stmt 1 view .LVU58
 223 001e DA6F     		ldr	r2, [r3, #124]
 224              	.LVL5:
 225              		.loc 2 118 3 is_stmt 0 view .LVU59
 226              	.LBE25:
 227              	.LBE27:
 228              	.LBE29:
ARM GAS  C:\Users\DEVELO~1\AppData\Local\Temp\ccvAZLUt.s 			page 5


 229              		.loc 1 164 5 is_stmt 1 view .LVU60
 230              		.loc 1 164 8 is_stmt 0 view .LVU61
 231 0020 02D0     		beq	.L17
 232              	.L15:
 233              		.loc 1 172 5 is_stmt 1 view .LVU62
 234              		.loc 1 172 18 is_stmt 0 view .LVU63
 235 0022 0123     		movs	r3, #1
 236 0024 0370     		strb	r3, [r0]
 237              		.loc 1 174 1 view .LVU64
 238 0026 7047     		bx	lr
 239              	.L17:
 240              		.loc 1 168 7 is_stmt 1 view .LVU65
 241              	.LVL6:
 242              	.LBB30:
 243              	.LBI30:
 244              		.loc 2 796 22 view .LVU66
 245              	.LBB31:
 246              		.loc 2 806 3 view .LVU67
 247              		.loc 2 806 19 is_stmt 0 view .LVU68
 248 0028 D3F8D420 		ldr	r2, [r3, #212]
 249 002c 22F48052 		bic	r2, r2, #4096
 250 0030 C3F8D420 		str	r2, [r3, #212]
 251              		.loc 2 807 3 is_stmt 1 view .LVU69
 252              		.loc 2 807 21 is_stmt 0 view .LVU70
 253 0034 D3F8FC20 		ldr	r2, [r3, #252]
 254 0038 22F48052 		bic	r2, r2, #4096
 255 003c C3F8FC20 		str	r2, [r3, #252]
 256              		.loc 2 808 3 is_stmt 1 view .LVU71
 257 0040 D3F8FC30 		ldr	r3, [r3, #252]
 258              		.loc 2 821 1 is_stmt 0 view .LVU72
 259 0044 EDE7     		b	.L15
 260              	.L19:
 261 0046 00BF     		.align	2
 262              	.L18:
 263 0048 00440258 		.word	1476543488
 264 004c 00000000 		.word	.LANCHOR0
 265              	.LBE31:
 266              	.LBE30:
 267              		.cfi_endproc
 268              	.LFE434:
 269              		.size	fsmcStop, .-fsmcStop
 270              		.section	.text.Vector100,"ax",%progbits
 271              		.align	1
 272              		.p2align 4,,15
 273              		.global	Vector100
 274              		.syntax unified
 275              		.thumb
 276              		.thumb_func
 277              		.type	Vector100, %function
 278              	Vector100:
 279              	.LFB435:
 280              		.loc 1 181 36 is_stmt 1 view -0
 281              		.cfi_startproc
 282              		@ args = 0, pretend = 0, frame = 0
 283              		@ frame_needed = 0, uses_anonymous_args = 0
 284              		.loc 1 183 3 view .LVU74
 285              		.loc 1 183 3 view .LVU75
ARM GAS  C:\Users\DEVELO~1\AppData\Local\Temp\ccvAZLUt.s 			page 6


 286              		.loc 1 183 3 view .LVU76
 287              		.loc 1 183 3 view .LVU77
 288              		.loc 1 183 3 view .LVU78
 289              		.loc 1 181 36 is_stmt 0 view .LVU79
 290 0000 10B5     		push	{r4, lr}
 291              		.cfi_def_cfa_offset 8
 292              		.cfi_offset 4, -8
 293              		.cfi_offset 14, -4
 294              		.loc 1 183 3 view .LVU80
 295 0002 054C     		ldr	r4, .L22
 296 0004 2046     		mov	r0, r4
 297 0006 FFF7FEFF 		bl	__trace_isr_enter
 298              	.LVL7:
 299              		.loc 1 183 20 is_stmt 1 view .LVU81
 300              		.loc 1 196 3 view .LVU82
 301              		.loc 1 196 3 view .LVU83
 302 000a 2046     		mov	r0, r4
 303 000c FFF7FEFF 		bl	__trace_isr_leave
 304              	.LVL8:
 305              		.loc 1 196 3 view .LVU84
 306              		.loc 1 196 3 view .LVU85
 307              		.loc 1 196 3 view .LVU86
 308              		.loc 1 197 1 is_stmt 0 view .LVU87
 309 0010 BDE81040 		pop	{r4, lr}
 310              		.cfi_restore 14
 311              		.cfi_restore 4
 312              		.cfi_def_cfa_offset 0
 313              		.loc 1 196 3 view .LVU88
 314 0014 FFF7FEBF 		b	__port_irq_epilogue
 315              	.LVL9:
 316              	.L23:
 317              		.align	2
 318              	.L22:
 319 0018 00000000 		.word	.LANCHOR1
 320              		.cfi_endproc
 321              	.LFE435:
 322              		.size	Vector100, .-Vector100
 323              		.global	FSMCD1
 324              		.section	.bss.FSMCD1,"aw",%nobits
 325              		.align	2
 326              		.set	.LANCHOR0,. + 0
 327              		.type	FSMCD1, %object
 328              		.size	FSMCD1, 8
 329              	FSMCD1:
 330 0000 00000000 		.space	8
 330      00000000 
 331              		.section	.rodata.__func__.0,"a"
 332              		.align	2
 333              		.set	.LANCHOR1,. + 0
 334              		.type	__func__.0, %object
 335              		.size	__func__.0, 10
 336              	__func__.0:
 337 0000 56656374 		.ascii	"Vector100\000"
 337      6F723130 
 337      3000
 338              		.text
 339              	.Letext0:
ARM GAS  C:\Users\DEVELO~1\AppData\Local\Temp\ccvAZLUt.s 			page 7


 340              		.file 3 "c:\\chibistudio\\tools\\gnu tools arm embedded\\11.3 2022.08\\arm-none-eabi\\include\\mac
 341              		.file 4 "c:\\chibistudio\\tools\\gnu tools arm embedded\\11.3 2022.08\\arm-none-eabi\\include\\sys
 342              		.file 5 "../../../os/common/ext/ST/STM32H7xx/stm32h743xx.h"
 343              		.file 6 "../../../ChibiOS-Contrib-chibios-21.11.x/os/hal/include/hal_fsmc.h"
 344              		.file 7 "../../../os/rt/include/chtrace.h"
 345              		.file 8 "../../../os/common/ports/ARMv7-M/chcore.h"