ARM GAS  C:\Users\DEVELO~1\AppData\Local\Temp\ccuygmoc.s 			page 1


   1              		.cpu cortex-m7
   2              		.arch armv7e-m
   3              		.fpu softvfp
   4              		.eabi_attribute 20, 1
   5              		.eabi_attribute 21, 1
   6              		.eabi_attribute 23, 3
   7              		.eabi_attribute 24, 1
   8              		.eabi_attribute 25, 1
   9              		.eabi_attribute 26, 1
  10              		.eabi_attribute 30, 2
  11              		.eabi_attribute 34, 1
  12              		.eabi_attribute 18, 4
  13              		.file	"hal_sai.c"
  14              		.text
  15              	.Ltext0:
  16              		.cfi_sections	.debug_frame
  17              		.section	.text.saiInit,"ax",%progbits
  18              		.align	1
  19              		.p2align 4,,15
  20              		.global	saiInit
  21              		.syntax unified
  22              		.thumb
  23              		.thumb_func
  24              		.type	saiInit, %function
  25              	saiInit:
  26              	.LFB432:
  27              		.file 1 "../../../os/hal/src/hal_sai.c"
  28              		.loc 1 39 20 view -0
  29              		.cfi_startproc
  30              		@ args = 0, pretend = 0, frame = 0
  31              		@ frame_needed = 0, uses_anonymous_args = 0
  32              		@ link register save eliminated.
  33              		.loc 1 41 3 view .LVU1
  34 0000 FFF7FEBF 		b	sai_lld_init
  35              	.LVL0:
  36              		.cfi_endproc
  37              	.LFE432:
  38              		.size	saiInit, .-saiInit
  39              		.section	.text.saiObjectInit,"ax",%progbits
  40              		.align	1
  41              		.p2align 4,,15
  42              		.global	saiObjectInit
  43              		.syntax unified
  44              		.thumb
  45              		.thumb_func
  46              		.type	saiObjectInit, %function
  47              	saiObjectInit:
  48              	.LVL1:
  49              	.LFB433:
  50              		.loc 1 51 37 view -0
  51              		.cfi_startproc
  52              		@ args = 0, pretend = 0, frame = 0
  53              		@ frame_needed = 0, uses_anonymous_args = 0
  54              		@ link register save eliminated.
  55              		.loc 1 53 3 view .LVU3
  56              		.loc 1 53 16 is_stmt 0 view .LVU4
  57 0000 0122     		movs	r2, #1
ARM GAS  C:\Users\DEVELO~1\AppData\Local\Temp\ccuygmoc.s 			page 2


  58              		.loc 1 54 16 view .LVU5
  59 0002 0023     		movs	r3, #0
  60              		.loc 1 53 16 view .LVU6
  61 0004 0270     		strb	r2, [r0]
  62              		.loc 1 54 3 is_stmt 1 view .LVU7
  63              		.loc 1 54 16 is_stmt 0 view .LVU8
  64 0006 4360     		str	r3, [r0, #4]
  65              		.loc 1 55 1 view .LVU9
  66 0008 7047     		bx	lr
  67              		.cfi_endproc
  68              	.LFE433:
  69              		.size	saiObjectInit, .-saiObjectInit
  70 000a 00BF     		.section	.text.saiStart,"ax",%progbits
  71              		.align	1
  72              		.p2align 4,,15
  73              		.global	saiStart
  74              		.syntax unified
  75              		.thumb
  76              		.thumb_func
  77              		.type	saiStart, %function
  78              	saiStart:
  79              	.LVL2:
  80              	.LFB434:
  81              		.loc 1 66 58 is_stmt 1 view -0
  82              		.cfi_startproc
  83              		@ args = 0, pretend = 0, frame = 0
  84              		@ frame_needed = 0, uses_anonymous_args = 0
  85              		.loc 1 67 3 view .LVU11
  86              		.loc 1 69 3 view .LVU12
  87              		.loc 1 69 3 view .LVU13
  88              		.loc 1 69 3 view .LVU14
  89              		.loc 1 71 3 view .LVU15
  90              	.LBB89:
  91              	.LBI89:
  92              		.file 2 "../../../os/hal/osal/rt-nil/osal.h"
  93              		.loc 2 573 20 view .LVU16
  94              		.loc 2 575 3 view .LVU17
  95              	.LBB90:
  96              	.LBI90:
  97              		.file 3 "../../../os/rt/include/chsys.h"
  98              		.loc 3 407 20 view .LVU18
  99              		.loc 3 409 3 view .LVU19
 100              	.LBB91:
 101              	.LBI91:
 102              		.file 4 "../../../os/common/ports/ARMv7-M/chcore.h"
 103              		.loc 4 823 27 view .LVU20
 104              		.loc 4 831 3 view .LVU21
 105              	.LBB92:
 106              	.LBI92:
 107              		.file 5 "../../../os/common/ext/ARM/CMSIS/Core/Include/cmsis_gcc.h"
 108              		.loc 5 491 27 view .LVU22
 109              	.LBB93:
 110              		.loc 5 493 3 view .LVU23
 111              	.LBE93:
 112              	.LBE92:
 113              	.LBE91:
 114              	.LBE90:
ARM GAS  C:\Users\DEVELO~1\AppData\Local\Temp\ccuygmoc.s 			page 3


 115              	.LBE89:
 116              		.loc 1 66 58 is_stmt 0 view .LVU24
 117 0000 10B5     		push	{r4, lr}
 118              		.cfi_def_cfa_offset 8
 119              		.cfi_offset 4, -8
 120              		.cfi_offset 14, -4
 121              	.LBB102:
 122              	.LBB100:
 123              	.LBB98:
 124              	.LBB96:
 125              	.LBB94:
 126              		.loc 5 493 3 view .LVU25
 127 0002 3023     		movs	r3, #48
 128              	.LBE94:
 129              	.LBE96:
 130              	.LBE98:
 131              	.LBE100:
 132              	.LBE102:
 133              		.loc 1 66 58 view .LVU26
 134 0004 0446     		mov	r4, r0
 135              	.LBB103:
 136              	.LBB101:
 137              	.LBB99:
 138              	.LBB97:
 139              	.LBB95:
 140              		.loc 5 493 3 view .LVU27
 141              		.syntax unified
 142              	@ 493 "../../../os/common/ext/ARM/CMSIS/Core/Include/cmsis_gcc.h" 1
 143 0006 83F31188 		MSR basepri, r3
 144              	@ 0 "" 2
 145              	.LVL3:
 146              		.loc 5 493 3 view .LVU28
 147              		.thumb
 148              		.syntax unified
 149              	.LBE95:
 150              	.LBE97:
 151              	.LBE99:
 152              		.loc 3 410 35 is_stmt 1 view .LVU29
 153              		.loc 3 411 21 view .LVU30
 154              	.LBE101:
 155              	.LBE103:
 156              		.loc 1 72 3 view .LVU31
 157              		.loc 1 72 3 view .LVU32
 158              		.loc 1 72 3 view .LVU33
 159              		.loc 1 75 3 view .LVU34
 160              		.loc 1 75 16 is_stmt 0 view .LVU35
 161 000a 4160     		str	r1, [r0, #4]
 162              		.loc 1 86 3 is_stmt 1 view .LVU36
 163 000c FFF7FEFF 		bl	sai_lld_start
 164              	.LVL4:
 165              		.loc 1 87 3 view .LVU37
 166              		.loc 1 87 15 is_stmt 0 view .LVU38
 167 0010 0223     		movs	r3, #2
 168              	.LBB104:
 169              	.LBB105:
 170              	.LBB106:
 171              	.LBB107:
ARM GAS  C:\Users\DEVELO~1\AppData\Local\Temp\ccuygmoc.s 			page 4


 172              	.LBB108:
 173              	.LBB109:
 174              		.loc 5 493 3 view .LVU39
 175 0012 0020     		movs	r0, #0
 176              	.LBE109:
 177              	.LBE108:
 178              	.LBE107:
 179              	.LBE106:
 180              	.LBE105:
 181              	.LBE104:
 182              		.loc 1 87 15 view .LVU40
 183 0014 2370     		strb	r3, [r4]
 184              		.loc 1 88 3 is_stmt 1 view .LVU41
 185              	.LVL5:
 186              		.loc 1 91 3 view .LVU42
 187              	.LBB115:
 188              	.LBI104:
 189              		.loc 2 584 20 view .LVU43
 190              		.loc 2 586 3 view .LVU44
 191              	.LBB114:
 192              	.LBI105:
 193              		.loc 3 421 20 view .LVU45
 194              	.LBB113:
 195              		.loc 3 423 23 view .LVU46
 196              		.loc 3 424 34 view .LVU47
 197              		.loc 3 430 3 view .LVU48
 198              		.loc 3 430 3 view .LVU49
 199              		.loc 3 430 3 view .LVU50
 200              		.loc 3 434 3 view .LVU51
 201              	.LBB112:
 202              	.LBI107:
 203              		.loc 4 847 27 view .LVU52
 204              		.loc 4 850 3 view .LVU53
 205              	.LBB111:
 206              	.LBI108:
 207              		.loc 5 491 27 view .LVU54
 208              	.LBB110:
 209              		.loc 5 493 3 view .LVU55
 210              		.syntax unified
 211              	@ 493 "../../../os/common/ext/ARM/CMSIS/Core/Include/cmsis_gcc.h" 1
 212 0016 80F31188 		MSR basepri, r0
 213              	@ 0 "" 2
 214              	.LVL6:
 215              		.loc 5 493 3 is_stmt 0 view .LVU56
 216              		.thumb
 217              		.syntax unified
 218              	.LBE110:
 219              	.LBE111:
 220              	.LBE112:
 221              	.LBE113:
 222              	.LBE114:
 223              	.LBE115:
 224              		.loc 1 93 3 is_stmt 1 view .LVU57
 225              		.loc 1 94 1 is_stmt 0 view .LVU58
 226 001a 10BD     		pop	{r4, pc}
 227              		.loc 1 94 1 view .LVU59
 228              		.cfi_endproc
ARM GAS  C:\Users\DEVELO~1\AppData\Local\Temp\ccuygmoc.s 			page 5


 229              	.LFE434:
 230              		.size	saiStart, .-saiStart
 231              		.section	.text.saiStop,"ax",%progbits
 232              		.align	1
 233              		.p2align 4,,15
 234              		.global	saiStop
 235              		.syntax unified
 236              		.thumb
 237              		.thumb_func
 238              		.type	saiStop, %function
 239              	saiStop:
 240              	.LVL7:
 241              	.LFB435:
 242              		.loc 1 103 31 is_stmt 1 view -0
 243              		.cfi_startproc
 244              		@ args = 0, pretend = 0, frame = 0
 245              		@ frame_needed = 0, uses_anonymous_args = 0
 246              		.loc 1 105 3 view .LVU61
 247              		.loc 1 105 3 view .LVU62
 248              		.loc 1 105 3 view .LVU63
 249              		.loc 1 107 3 view .LVU64
 250              	.LBB116:
 251              	.LBI116:
 252              		.loc 2 573 20 view .LVU65
 253              		.loc 2 575 3 view .LVU66
 254              	.LBB117:
 255              	.LBI117:
 256              		.loc 3 407 20 view .LVU67
 257              		.loc 3 409 3 view .LVU68
 258              	.LBB118:
 259              	.LBI118:
 260              		.loc 4 823 27 view .LVU69
 261              		.loc 4 831 3 view .LVU70
 262              	.LBB119:
 263              	.LBI119:
 264              		.loc 5 491 27 view .LVU71
 265              	.LBB120:
 266              		.loc 5 493 3 view .LVU72
 267              	.LBE120:
 268              	.LBE119:
 269              	.LBE118:
 270              	.LBE117:
 271              	.LBE116:
 272              		.loc 1 103 31 is_stmt 0 view .LVU73
 273 0000 10B5     		push	{r4, lr}
 274              		.cfi_def_cfa_offset 8
 275              		.cfi_offset 4, -8
 276              		.cfi_offset 14, -4
 277              	.LBB129:
 278              	.LBB127:
 279              	.LBB125:
 280              	.LBB123:
 281              	.LBB121:
 282              		.loc 5 493 3 view .LVU74
 283 0002 3023     		movs	r3, #48
 284              	.LBE121:
 285              	.LBE123:
ARM GAS  C:\Users\DEVELO~1\AppData\Local\Temp\ccuygmoc.s 			page 6


 286              	.LBE125:
 287              	.LBE127:
 288              	.LBE129:
 289              		.loc 1 103 31 view .LVU75
 290 0004 0446     		mov	r4, r0
 291              	.LBB130:
 292              	.LBB128:
 293              	.LBB126:
 294              	.LBB124:
 295              	.LBB122:
 296              		.loc 5 493 3 view .LVU76
 297              		.syntax unified
 298              	@ 493 "../../../os/common/ext/ARM/CMSIS/Core/Include/cmsis_gcc.h" 1
 299 0006 83F31188 		MSR basepri, r3
 300              	@ 0 "" 2
 301              	.LVL8:
 302              		.loc 5 493 3 view .LVU77
 303              		.thumb
 304              		.syntax unified
 305              	.LBE122:
 306              	.LBE124:
 307              	.LBE126:
 308              		.loc 3 410 35 is_stmt 1 view .LVU78
 309              		.loc 3 411 21 view .LVU79
 310              	.LBE128:
 311              	.LBE130:
 312              		.loc 1 108 3 view .LVU80
 313              		.loc 1 108 3 view .LVU81
 314              		.loc 1 108 3 view .LVU82
 315              		.loc 1 111 3 view .LVU83
 316 000a FFF7FEFF 		bl	sai_lld_stop
 317              	.LVL9:
 318              		.loc 1 112 3 view .LVU84
 319              		.loc 1 112 16 is_stmt 0 view .LVU85
 320 000e 0023     		movs	r3, #0
 321              		.loc 1 113 16 view .LVU86
 322 0010 0122     		movs	r2, #1
 323              		.loc 1 112 16 view .LVU87
 324 0012 6360     		str	r3, [r4, #4]
 325              		.loc 1 113 3 is_stmt 1 view .LVU88
 326              		.loc 1 113 16 is_stmt 0 view .LVU89
 327 0014 2270     		strb	r2, [r4]
 328              		.loc 1 115 3 is_stmt 1 view .LVU90
 329              	.LBB131:
 330              	.LBI131:
 331              		.loc 2 584 20 view .LVU91
 332              		.loc 2 586 3 view .LVU92
 333              	.LBB132:
 334              	.LBI132:
 335              		.loc 3 421 20 view .LVU93
 336              	.LBB133:
 337              		.loc 3 423 23 view .LVU94
 338              		.loc 3 424 34 view .LVU95
 339              		.loc 3 430 3 view .LVU96
 340              		.loc 3 430 3 view .LVU97
 341              		.loc 3 430 3 view .LVU98
 342              		.loc 3 434 3 view .LVU99
ARM GAS  C:\Users\DEVELO~1\AppData\Local\Temp\ccuygmoc.s 			page 7


 343              	.LBB134:
 344              	.LBI134:
 345              		.loc 4 847 27 view .LVU100
 346              		.loc 4 850 3 view .LVU101
 347              	.LVL10:
 348              	.LBB135:
 349              	.LBI135:
 350              		.loc 5 491 27 view .LVU102
 351              	.LBB136:
 352              		.loc 5 493 3 view .LVU103
 353              		.syntax unified
 354              	@ 493 "../../../os/common/ext/ARM/CMSIS/Core/Include/cmsis_gcc.h" 1
 355 0016 83F31188 		MSR basepri, r3
 356              	@ 0 "" 2
 357              	.LVL11:
 358              		.loc 5 493 3 is_stmt 0 view .LVU104
 359              		.thumb
 360              		.syntax unified
 361              	.LBE136:
 362              	.LBE135:
 363              	.LBE134:
 364              	.LBE133:
 365              	.LBE132:
 366              	.LBE131:
 367              		.loc 1 116 1 view .LVU105
 368 001a 10BD     		pop	{r4, pc}
 369              		.loc 1 116 1 view .LVU106
 370              		.cfi_endproc
 371              	.LFE435:
 372              		.size	saiStop, .-saiStop
 373              		.section	.text.saiSetBuffers,"ax",%progbits
 374              		.align	1
 375              		.p2align 4,,15
 376              		.global	saiSetBuffers
 377              		.syntax unified
 378              		.thumb
 379              		.thumb_func
 380              		.type	saiSetBuffers, %function
 381              	saiSetBuffers:
 382              	.LVL12:
 383              	.LFB436:
 384              		.loc 1 131 33 is_stmt 1 view -0
 385              		.cfi_startproc
 386              		@ args = 0, pretend = 0, frame = 0
 387              		@ frame_needed = 0, uses_anonymous_args = 0
 388              		.loc 1 133 3 view .LVU108
 389              		.loc 1 133 3 view .LVU109
 390              		.loc 1 133 3 view .LVU110
 391              		.loc 1 135 3 view .LVU111
 392              	.LBB137:
 393              	.LBI137:
 394              		.loc 2 573 20 view .LVU112
 395              		.loc 2 575 3 view .LVU113
 396              	.LBB138:
 397              	.LBI138:
 398              		.loc 3 407 20 view .LVU114
 399              		.loc 3 409 3 view .LVU115
ARM GAS  C:\Users\DEVELO~1\AppData\Local\Temp\ccuygmoc.s 			page 8


 400              	.LBB139:
 401              	.LBI139:
 402              		.loc 4 823 27 view .LVU116
 403              		.loc 4 831 3 view .LVU117
 404              	.LBB140:
 405              	.LBI140:
 406              		.loc 5 491 27 view .LVU118
 407              	.LBB141:
 408              		.loc 5 493 3 view .LVU119
 409 0000 4FF0300C 		mov	ip, #48
 410              	.LBE141:
 411              	.LBE140:
 412              	.LBE139:
 413              	.LBE138:
 414              	.LBE137:
 415              		.loc 1 131 33 is_stmt 0 view .LVU120
 416 0004 08B5     		push	{r3, lr}
 417              		.cfi_def_cfa_offset 8
 418              		.cfi_offset 3, -8
 419              		.cfi_offset 14, -4
 420              	.LBB146:
 421              	.LBB145:
 422              	.LBB144:
 423              	.LBB143:
 424              	.LBB142:
 425              		.loc 5 493 3 view .LVU121
 426              		.syntax unified
 427              	@ 493 "../../../os/common/ext/ARM/CMSIS/Core/Include/cmsis_gcc.h" 1
 428 0006 8CF31188 		MSR basepri, ip
 429              	@ 0 "" 2
 430              	.LVL13:
 431              		.loc 5 493 3 view .LVU122
 432              		.thumb
 433              		.syntax unified
 434              	.LBE142:
 435              	.LBE143:
 436              	.LBE144:
 437              		.loc 3 410 35 is_stmt 1 view .LVU123
 438              		.loc 3 411 21 view .LVU124
 439              	.LBE145:
 440              	.LBE146:
 441              		.loc 1 136 3 view .LVU125
 442              		.loc 1 136 3 view .LVU126
 443              		.loc 1 136 3 view .LVU127
 444              		.loc 1 138 3 view .LVU128
 445 000a FFF7FEFF 		bl	sai_lld_set_buffers
 446              	.LVL14:
 447              		.loc 1 140 3 view .LVU129
 448              	.LBB147:
 449              	.LBI147:
 450              		.loc 2 584 20 view .LVU130
 451              		.loc 2 586 3 view .LVU131
 452              	.LBB148:
 453              	.LBI148:
 454              		.loc 3 421 20 view .LVU132
 455              	.LBB149:
 456              		.loc 3 423 23 view .LVU133
ARM GAS  C:\Users\DEVELO~1\AppData\Local\Temp\ccuygmoc.s 			page 9


 457              		.loc 3 424 34 view .LVU134
 458              		.loc 3 430 3 view .LVU135
 459              		.loc 3 430 3 view .LVU136
 460              		.loc 3 430 3 view .LVU137
 461              		.loc 3 434 3 view .LVU138
 462              	.LBB150:
 463              	.LBI150:
 464              		.loc 4 847 27 view .LVU139
 465              		.loc 4 850 3 view .LVU140
 466              	.LBB151:
 467              	.LBI151:
 468              		.loc 5 491 27 view .LVU141
 469              	.LBB152:
 470              		.loc 5 493 3 view .LVU142
 471 000e 0023     		movs	r3, #0
 472              		.syntax unified
 473              	@ 493 "../../../os/common/ext/ARM/CMSIS/Core/Include/cmsis_gcc.h" 1
 474 0010 83F31188 		MSR basepri, r3
 475              	@ 0 "" 2
 476              	.LVL15:
 477              		.loc 5 493 3 is_stmt 0 view .LVU143
 478              		.thumb
 479              		.syntax unified
 480              	.LBE152:
 481              	.LBE151:
 482              	.LBE150:
 483              	.LBE149:
 484              	.LBE148:
 485              	.LBE147:
 486              		.loc 1 141 1 view .LVU144
 487 0014 08BD     		pop	{r3, pc}
 488              		.cfi_endproc
 489              	.LFE436:
 490              		.size	saiSetBuffers, .-saiSetBuffers
 491 0016 00BF     		.section	.text.saiStartExchange,"ax",%progbits
 492              		.align	1
 493              		.p2align 4,,15
 494              		.global	saiStartExchange
 495              		.syntax unified
 496              		.thumb
 497              		.thumb_func
 498              		.type	saiStartExchange, %function
 499              	saiStartExchange:
 500              	.LVL16:
 501              	.LFB437:
 502              		.loc 1 150 40 is_stmt 1 view -0
 503              		.cfi_startproc
 504              		@ args = 0, pretend = 0, frame = 0
 505              		@ frame_needed = 0, uses_anonymous_args = 0
 506              		.loc 1 152 3 view .LVU146
 507              		.loc 1 152 3 view .LVU147
 508              		.loc 1 152 3 view .LVU148
 509              		.loc 1 154 3 view .LVU149
 510              	.LBB153:
 511              	.LBI153:
 512              		.loc 2 573 20 view .LVU150
 513              		.loc 2 575 3 view .LVU151
ARM GAS  C:\Users\DEVELO~1\AppData\Local\Temp\ccuygmoc.s 			page 10


 514              	.LBB154:
 515              	.LBI154:
 516              		.loc 3 407 20 view .LVU152
 517              		.loc 3 409 3 view .LVU153
 518              	.LBB155:
 519              	.LBI155:
 520              		.loc 4 823 27 view .LVU154
 521              		.loc 4 831 3 view .LVU155
 522              	.LBB156:
 523              	.LBI156:
 524              		.loc 5 491 27 view .LVU156
 525              	.LBB157:
 526              		.loc 5 493 3 view .LVU157
 527              	.LBE157:
 528              	.LBE156:
 529              	.LBE155:
 530              	.LBE154:
 531              	.LBE153:
 532              		.loc 1 150 40 is_stmt 0 view .LVU158
 533 0000 10B5     		push	{r4, lr}
 534              		.cfi_def_cfa_offset 8
 535              		.cfi_offset 4, -8
 536              		.cfi_offset 14, -4
 537              	.LBB166:
 538              	.LBB164:
 539              	.LBB162:
 540              	.LBB160:
 541              	.LBB158:
 542              		.loc 5 493 3 view .LVU159
 543 0002 3023     		movs	r3, #48
 544              	.LBE158:
 545              	.LBE160:
 546              	.LBE162:
 547              	.LBE164:
 548              	.LBE166:
 549              		.loc 1 150 40 view .LVU160
 550 0004 0446     		mov	r4, r0
 551              	.LBB167:
 552              	.LBB165:
 553              	.LBB163:
 554              	.LBB161:
 555              	.LBB159:
 556              		.loc 5 493 3 view .LVU161
 557              		.syntax unified
 558              	@ 493 "../../../os/common/ext/ARM/CMSIS/Core/Include/cmsis_gcc.h" 1
 559 0006 83F31188 		MSR basepri, r3
 560              	@ 0 "" 2
 561              	.LVL17:
 562              		.loc 5 493 3 view .LVU162
 563              		.thumb
 564              		.syntax unified
 565              	.LBE159:
 566              	.LBE161:
 567              	.LBE163:
 568              		.loc 3 410 35 is_stmt 1 view .LVU163
 569              		.loc 3 411 21 view .LVU164
 570              	.LBE165:
ARM GAS  C:\Users\DEVELO~1\AppData\Local\Temp\ccuygmoc.s 			page 11


 571              	.LBE167:
 572              		.loc 1 155 3 view .LVU165
 573              		.loc 1 155 3 view .LVU166
 574              		.loc 1 155 3 view .LVU167
 575              		.loc 1 156 3 view .LVU168
 576 000a FFF7FEFF 		bl	sai_lld_start_exchange
 577              	.LVL18:
 578              		.loc 1 156 3 view .LVU169
 579 000e 0322     		movs	r2, #3
 580              	.LBB168:
 581              	.LBB169:
 582              	.LBB170:
 583              	.LBB171:
 584              	.LBB172:
 585              	.LBB173:
 586              		.loc 5 493 3 is_stmt 0 view .LVU170
 587 0010 0023     		movs	r3, #0
 588              	.LBE173:
 589              	.LBE172:
 590              	.LBE171:
 591              	.LBE170:
 592              	.LBE169:
 593              	.LBE168:
 594              		.loc 1 156 3 view .LVU171
 595 0012 2270     		strb	r2, [r4]
 596              		.loc 1 156 26 is_stmt 1 view .LVU172
 597              		.loc 1 157 3 view .LVU173
 598              	.LBB179:
 599              	.LBI168:
 600              		.loc 2 584 20 view .LVU174
 601              		.loc 2 586 3 view .LVU175
 602              	.LBB178:
 603              	.LBI169:
 604              		.loc 3 421 20 view .LVU176
 605              	.LBB177:
 606              		.loc 3 423 23 view .LVU177
 607              		.loc 3 424 34 view .LVU178
 608              		.loc 3 430 3 view .LVU179
 609              		.loc 3 430 3 view .LVU180
 610              		.loc 3 430 3 view .LVU181
 611              		.loc 3 434 3 view .LVU182
 612              	.LBB176:
 613              	.LBI171:
 614              		.loc 4 847 27 view .LVU183
 615              		.loc 4 850 3 view .LVU184
 616              	.LVL19:
 617              	.LBB175:
 618              	.LBI172:
 619              		.loc 5 491 27 view .LVU185
 620              	.LBB174:
 621              		.loc 5 493 3 view .LVU186
 622              		.syntax unified
 623              	@ 493 "../../../os/common/ext/ARM/CMSIS/Core/Include/cmsis_gcc.h" 1
 624 0014 83F31188 		MSR basepri, r3
 625              	@ 0 "" 2
 626              	.LVL20:
 627              		.loc 5 493 3 is_stmt 0 view .LVU187
ARM GAS  C:\Users\DEVELO~1\AppData\Local\Temp\ccuygmoc.s 			page 12


 628              		.thumb
 629              		.syntax unified
 630              	.LBE174:
 631              	.LBE175:
 632              	.LBE176:
 633              	.LBE177:
 634              	.LBE178:
 635              	.LBE179:
 636              		.loc 1 158 1 view .LVU188
 637 0018 10BD     		pop	{r4, pc}
 638              		.loc 1 158 1 view .LVU189
 639              		.cfi_endproc
 640              	.LFE437:
 641              		.size	saiStartExchange, .-saiStartExchange
 642 001a 00BF     		.section	.text.saiStopExchange,"ax",%progbits
 643              		.align	1
 644              		.p2align 4,,15
 645              		.global	saiStopExchange
 646              		.syntax unified
 647              		.thumb
 648              		.thumb_func
 649              		.type	saiStopExchange, %function
 650              	saiStopExchange:
 651              	.LVL21:
 652              	.LFB438:
 653              		.loc 1 167 39 is_stmt 1 view -0
 654              		.cfi_startproc
 655              		@ args = 0, pretend = 0, frame = 0
 656              		@ frame_needed = 0, uses_anonymous_args = 0
 657              		.loc 1 169 3 view .LVU191
 658              		.loc 1 169 3 view .LVU192
 659              		.loc 1 169 3 view .LVU193
 660              		.loc 1 171 3 view .LVU194
 661              	.LBB180:
 662              	.LBI180:
 663              		.loc 2 573 20 view .LVU195
 664              		.loc 2 575 3 view .LVU196
 665              	.LBB181:
 666              	.LBI181:
 667              		.loc 3 407 20 view .LVU197
 668              		.loc 3 409 3 view .LVU198
 669              	.LBB182:
 670              	.LBI182:
 671              		.loc 4 823 27 view .LVU199
 672              		.loc 4 831 3 view .LVU200
 673              	.LBB183:
 674              	.LBI183:
 675              		.loc 5 491 27 view .LVU201
 676              	.LBB184:
 677              		.loc 5 493 3 view .LVU202
 678              	.LBE184:
 679              	.LBE183:
 680              	.LBE182:
 681              	.LBE181:
 682              	.LBE180:
 683              		.loc 1 167 39 is_stmt 0 view .LVU203
 684 0000 10B5     		push	{r4, lr}
ARM GAS  C:\Users\DEVELO~1\AppData\Local\Temp\ccuygmoc.s 			page 13


 685              		.cfi_def_cfa_offset 8
 686              		.cfi_offset 4, -8
 687              		.cfi_offset 14, -4
 688              	.LBB193:
 689              	.LBB191:
 690              	.LBB189:
 691              	.LBB187:
 692              	.LBB185:
 693              		.loc 5 493 3 view .LVU204
 694 0002 3023     		movs	r3, #48
 695              	.LBE185:
 696              	.LBE187:
 697              	.LBE189:
 698              	.LBE191:
 699              	.LBE193:
 700              		.loc 1 167 39 view .LVU205
 701 0004 0446     		mov	r4, r0
 702              	.LBB194:
 703              	.LBB192:
 704              	.LBB190:
 705              	.LBB188:
 706              	.LBB186:
 707              		.loc 5 493 3 view .LVU206
 708              		.syntax unified
 709              	@ 493 "../../../os/common/ext/ARM/CMSIS/Core/Include/cmsis_gcc.h" 1
 710 0006 83F31188 		MSR basepri, r3
 711              	@ 0 "" 2
 712              	.LVL22:
 713              		.loc 5 493 3 view .LVU207
 714              		.thumb
 715              		.syntax unified
 716              	.LBE186:
 717              	.LBE188:
 718              	.LBE190:
 719              		.loc 3 410 35 is_stmt 1 view .LVU208
 720              		.loc 3 411 21 view .LVU209
 721              	.LBE192:
 722              	.LBE194:
 723              		.loc 1 172 3 view .LVU210
 724              		.loc 1 172 3 view .LVU211
 725              		.loc 1 172 3 view .LVU212
 726              		.loc 1 173 3 view .LVU213
 727 000a FFF7FEFF 		bl	sai_lld_stop_exchange
 728              	.LVL23:
 729              		.loc 1 173 3 view .LVU214
 730 000e 0222     		movs	r2, #2
 731              	.LBB195:
 732              	.LBB196:
 733              	.LBB197:
 734              	.LBB198:
 735              	.LBB199:
 736              	.LBB200:
 737              		.loc 5 493 3 is_stmt 0 view .LVU215
 738 0010 0023     		movs	r3, #0
 739              	.LBE200:
 740              	.LBE199:
 741              	.LBE198:
ARM GAS  C:\Users\DEVELO~1\AppData\Local\Temp\ccuygmoc.s 			page 14


 742              	.LBE197:
 743              	.LBE196:
 744              	.LBE195:
 745              		.loc 1 173 3 view .LVU216
 746 0012 2270     		strb	r2, [r4]
 747              		.loc 1 173 25 is_stmt 1 view .LVU217
 748              		.loc 1 174 3 view .LVU218
 749              	.LBB206:
 750              	.LBI195:
 751              		.loc 2 584 20 view .LVU219
 752              		.loc 2 586 3 view .LVU220
 753              	.LBB205:
 754              	.LBI196:
 755              		.loc 3 421 20 view .LVU221
 756              	.LBB204:
 757              		.loc 3 423 23 view .LVU222
 758              		.loc 3 424 34 view .LVU223
 759              		.loc 3 430 3 view .LVU224
 760              		.loc 3 430 3 view .LVU225
 761              		.loc 3 430 3 view .LVU226
 762              		.loc 3 434 3 view .LVU227
 763              	.LBB203:
 764              	.LBI198:
 765              		.loc 4 847 27 view .LVU228
 766              		.loc 4 850 3 view .LVU229
 767              	.LVL24:
 768              	.LBB202:
 769              	.LBI199:
 770              		.loc 5 491 27 view .LVU230
 771              	.LBB201:
 772              		.loc 5 493 3 view .LVU231
 773              		.syntax unified
 774              	@ 493 "../../../os/common/ext/ARM/CMSIS/Core/Include/cmsis_gcc.h" 1
 775 0014 83F31188 		MSR basepri, r3
 776              	@ 0 "" 2
 777              	.LVL25:
 778              		.loc 5 493 3 is_stmt 0 view .LVU232
 779              		.thumb
 780              		.syntax unified
 781              	.LBE201:
 782              	.LBE202:
 783              	.LBE203:
 784              	.LBE204:
 785              	.LBE205:
 786              	.LBE206:
 787              		.loc 1 175 1 view .LVU233
 788 0018 10BD     		pop	{r4, pc}
 789              		.loc 1 175 1 view .LVU234
 790              		.cfi_endproc
 791              	.LFE438:
 792              		.size	saiStopExchange, .-saiStopExchange
 793 001a 00BF     		.text
 794              	.Letext0:
 795              		.file 6 "c:\\chibistudio\\tools\\gnu tools arm embedded\\11.3 2022.08\\lib\\gcc\\arm-none-eabi\\11
 796              		.file 7 "c:\\chibistudio\\tools\\gnu tools arm embedded\\11.3 2022.08\\arm-none-eabi\\include\\mac
 797              		.file 8 "c:\\chibistudio\\tools\\gnu tools arm embedded\\11.3 2022.08\\arm-none-eabi\\include\\sys
 798              		.file 9 "../../../os/rt/include/chearly.h"
ARM GAS  C:\Users\DEVELO~1\AppData\Local\Temp\ccuygmoc.s 			page 15


 799              		.file 10 "../../../os/common/ext/ST/STM32H7xx/stm32h743xx.h"
 800              		.file 11 "../../../os/hal/ports/STM32/LLD/DMAv2/stm32_dma.h"
 801              		.file 12 "../../../os/hal/include/hal_sai.h"
 802              		.file 13 "../../../os/hal/ports/STM32/LLD/SAIv1/hal_sai_lld.h"
 803              		.section	.debug_info,"",%progbits
 804              	.Ldebug_info0:
 805 0000 630B0000 		.4byte	0xb63
 806 0004 0500     		.2byte	0x5
 807 0006 01       		.byte	0x1
 808 0007 04       		.byte	0x4
 809 0008 00000000 		.4byte	.Ldebug_abbrev0
 810 000c 1D       		.uleb128 0x1d
 811 000d D2000000 		.4byte	.LASF85
 812 0011 1D       		.byte	0x1d
 813 0012 39000000 		.4byte	.LASF86
 814 0016 37030000 		.4byte	.LASF87
 815 001a 78000000 		.4byte	.LLRL27
 816 001e 00000000 		.4byte	0
 817 0022 00000000 		.4byte	.Ldebug_line0
 818 0026 1E       		.uleb128 0x1e
 819 0027 04       		.byte	0x4
 820 0028 05       		.byte	0x5
 821 0029 696E7400 		.ascii	"int\000"
 822 002d 04       		.uleb128 0x4
 823 002e 7A000000 		.4byte	.LASF4
 824 0032 06       		.byte	0x6
 825 0033 D1       		.byte	0xd1
 826 0034 17       		.byte	0x17
 827 0035 39000000 		.4byte	0x39
 828 0039 05       		.uleb128 0x5
 829 003a 04       		.byte	0x4
 830 003b 07       		.byte	0x7
 831 003c B5040000 		.4byte	.LASF0
 832 0040 05       		.uleb128 0x5
 833 0041 08       		.byte	0x8
 834 0042 05       		.byte	0x5
 835 0043 2A020000 		.4byte	.LASF1
 836 0047 05       		.uleb128 0x5
 837 0048 08       		.byte	0x8
 838 0049 04       		.byte	0x4
 839 004a 1E020000 		.4byte	.LASF2
 840 004e 05       		.uleb128 0x5
 841 004f 01       		.byte	0x1
 842 0050 06       		.byte	0x6
 843 0051 D2020000 		.4byte	.LASF3
 844 0055 04       		.uleb128 0x4
 845 0056 63020000 		.4byte	.LASF5
 846 005a 07       		.byte	0x7
 847 005b 2B       		.byte	0x2b
 848 005c 18       		.byte	0x18
 849 005d 61000000 		.4byte	0x61
 850 0061 05       		.uleb128 0x5
 851 0062 01       		.byte	0x1
 852 0063 08       		.byte	0x8
 853 0064 96020000 		.4byte	.LASF6
 854 0068 05       		.uleb128 0x5
 855 0069 02       		.byte	0x2
ARM GAS  C:\Users\DEVELO~1\AppData\Local\Temp\ccuygmoc.s 			page 16


 856 006a 05       		.byte	0x5
 857 006b 70000000 		.4byte	.LASF7
 858 006f 05       		.uleb128 0x5
 859 0070 02       		.byte	0x2
 860 0071 07       		.byte	0x7
 861 0072 A5030000 		.4byte	.LASF8
 862 0076 04       		.uleb128 0x4
 863 0077 73040000 		.4byte	.LASF9
 864 007b 07       		.byte	0x7
 865 007c 4D       		.byte	0x4d
 866 007d 18       		.byte	0x18
 867 007e 82000000 		.4byte	0x82
 868 0082 05       		.uleb128 0x5
 869 0083 04       		.byte	0x4
 870 0084 05       		.byte	0x5
 871 0085 D0030000 		.4byte	.LASF10
 872 0089 04       		.uleb128 0x4
 873 008a 73020000 		.4byte	.LASF11
 874 008e 07       		.byte	0x7
 875 008f 4F       		.byte	0x4f
 876 0090 19       		.byte	0x19
 877 0091 95000000 		.4byte	0x95
 878 0095 05       		.uleb128 0x5
 879 0096 04       		.byte	0x4
 880 0097 07       		.byte	0x7
 881 0098 8D030000 		.4byte	.LASF12
 882 009c 05       		.uleb128 0x5
 883 009d 08       		.byte	0x8
 884 009e 07       		.byte	0x7
 885 009f E8020000 		.4byte	.LASF13
 886 00a3 04       		.uleb128 0x4
 887 00a4 E8010000 		.4byte	.LASF14
 888 00a8 08       		.byte	0x8
 889 00a9 18       		.byte	0x18
 890 00aa 13       		.byte	0x13
 891 00ab 55000000 		.4byte	0x55
 892 00af 04       		.uleb128 0x4
 893 00b0 D9030000 		.4byte	.LASF15
 894 00b4 08       		.byte	0x8
 895 00b5 2C       		.byte	0x2c
 896 00b6 13       		.byte	0x13
 897 00b7 76000000 		.4byte	0x76
 898 00bb 04       		.uleb128 0x4
 899 00bc 04030000 		.4byte	.LASF16
 900 00c0 08       		.byte	0x8
 901 00c1 30       		.byte	0x30
 902 00c2 14       		.byte	0x14
 903 00c3 89000000 		.4byte	0x89
 904 00c7 1F       		.uleb128 0x1f
 905 00c8 BB000000 		.4byte	0xbb
 906 00cc 04       		.uleb128 0x4
 907 00cd CE040000 		.4byte	.LASF17
 908 00d1 09       		.byte	0x9
 909 00d2 58       		.byte	0x58
 910 00d3 19       		.byte	0x19
 911 00d4 AF000000 		.4byte	0xaf
 912 00d8 05       		.uleb128 0x5
ARM GAS  C:\Users\DEVELO~1\AppData\Local\Temp\ccuygmoc.s 			page 17


 913 00d9 01       		.byte	0x1
 914 00da 08       		.byte	0x8
 915 00db CB030000 		.4byte	.LASF18
 916 00df 0A       		.uleb128 0xa
 917 00e0 D8000000 		.4byte	0xd8
 918 00e4 20       		.uleb128 0x20
 919 00e5 04       		.byte	0x4
 920 00e6 13       		.uleb128 0x13
 921 00e7 18       		.byte	0x18
 922 00e8 0A       		.byte	0xa
 923 00e9 3002     		.2byte	0x230
 924 00eb 43010000 		.4byte	0x143
 925 00ef 06       		.uleb128 0x6
 926 00f0 435200   		.ascii	"CR\000"
 927 00f3 0A       		.byte	0xa
 928 00f4 3202     		.2byte	0x232
 929 00f6 11       		.byte	0x11
 930 00f7 C7000000 		.4byte	0xc7
 931 00fb 00       		.byte	0
 932 00fc 03       		.uleb128 0x3
 933 00fd F7010000 		.4byte	.LASF19
 934 0101 0A       		.byte	0xa
 935 0102 3302     		.2byte	0x233
 936 0104 11       		.byte	0x11
 937 0105 C7000000 		.4byte	0xc7
 938 0109 04       		.byte	0x4
 939 010a 06       		.uleb128 0x6
 940 010b 50415200 		.ascii	"PAR\000"
 941 010f 0A       		.byte	0xa
 942 0110 3402     		.2byte	0x234
 943 0112 11       		.byte	0x11
 944 0113 C7000000 		.4byte	0xc7
 945 0117 08       		.byte	0x8
 946 0118 03       		.uleb128 0x3
 947 0119 27040000 		.4byte	.LASF20
 948 011d 0A       		.byte	0xa
 949 011e 3502     		.2byte	0x235
 950 0120 11       		.byte	0x11
 951 0121 C7000000 		.4byte	0xc7
 952 0125 0C       		.byte	0xc
 953 0126 03       		.uleb128 0x3
 954 0127 C6030000 		.4byte	.LASF21
 955 012b 0A       		.byte	0xa
 956 012c 3602     		.2byte	0x236
 957 012e 11       		.byte	0x11
 958 012f C7000000 		.4byte	0xc7
 959 0133 10       		.byte	0x10
 960 0134 06       		.uleb128 0x6
 961 0135 46435200 		.ascii	"FCR\000"
 962 0139 0A       		.byte	0xa
 963 013a 3702     		.2byte	0x237
 964 013c 11       		.byte	0x11
 965 013d C7000000 		.4byte	0xc7
 966 0141 14       		.byte	0x14
 967 0142 00       		.byte	0
 968 0143 14       		.uleb128 0x14
 969 0144 57000000 		.4byte	.LASF22
ARM GAS  C:\Users\DEVELO~1\AppData\Local\Temp\ccuygmoc.s 			page 18


 970 0148 0A       		.byte	0xa
 971 0149 3802     		.2byte	0x238
 972 014b 03       		.byte	0x3
 973 014c E6000000 		.4byte	0xe6
 974 0150 13       		.uleb128 0x13
 975 0151 04       		.byte	0x4
 976 0152 0A       		.byte	0xa
 977 0153 5102     		.2byte	0x251
 978 0155 68010000 		.4byte	0x168
 979 0159 06       		.uleb128 0x6
 980 015a 43435200 		.ascii	"CCR\000"
 981 015e 0A       		.byte	0xa
 982 015f 5302     		.2byte	0x253
 983 0161 12       		.byte	0x12
 984 0162 C7000000 		.4byte	0xc7
 985 0166 00       		.byte	0
 986 0167 00       		.byte	0
 987 0168 14       		.uleb128 0x14
 988 0169 AC010000 		.4byte	.LASF23
 989 016d 0A       		.byte	0xa
 990 016e 5402     		.2byte	0x254
 991 0170 02       		.byte	0x2
 992 0171 50010000 		.4byte	0x150
 993 0175 13       		.uleb128 0x13
 994 0176 4C       		.byte	0x4c
 995 0177 0A       		.byte	0xa
 996 0178 5405     		.2byte	0x554
 997 017a B7010000 		.4byte	0x1b7
 998 017e 06       		.uleb128 0x6
 999 017f 47435200 		.ascii	"GCR\000"
 1000 0183 0A       		.byte	0xa
 1001 0184 5605     		.2byte	0x556
 1002 0186 11       		.byte	0x11
 1003 0187 C7000000 		.4byte	0xc7
 1004 018b 00       		.byte	0
 1005 018c 03       		.uleb128 0x3
 1006 018d 1D040000 		.4byte	.LASF24
 1007 0191 0A       		.byte	0xa
 1008 0192 5705     		.2byte	0x557
 1009 0194 11       		.byte	0x11
 1010 0195 B7010000 		.4byte	0x1b7
 1011 0199 04       		.byte	0x4
 1012 019a 03       		.uleb128 0x3
 1013 019b 1E000000 		.4byte	.LASF25
 1014 019f 0A       		.byte	0xa
 1015 01a0 5805     		.2byte	0x558
 1016 01a2 11       		.byte	0x11
 1017 01a3 C7000000 		.4byte	0xc7
 1018 01a7 44       		.byte	0x44
 1019 01a8 03       		.uleb128 0x3
 1020 01a9 41020000 		.4byte	.LASF26
 1021 01ad 0A       		.byte	0xa
 1022 01ae 5905     		.2byte	0x559
 1023 01b0 11       		.byte	0x11
 1024 01b1 C7000000 		.4byte	0xc7
 1025 01b5 48       		.byte	0x48
 1026 01b6 00       		.byte	0
ARM GAS  C:\Users\DEVELO~1\AppData\Local\Temp\ccuygmoc.s 			page 19


 1027 01b7 0E       		.uleb128 0xe
 1028 01b8 BB000000 		.4byte	0xbb
 1029 01bc C7010000 		.4byte	0x1c7
 1030 01c0 0F       		.uleb128 0xf
 1031 01c1 39000000 		.4byte	0x39
 1032 01c5 0F       		.byte	0xf
 1033 01c6 00       		.byte	0
 1034 01c7 14       		.uleb128 0x14
 1035 01c8 99010000 		.4byte	.LASF27
 1036 01cc 0A       		.byte	0xa
 1037 01cd 5A05     		.2byte	0x55a
 1038 01cf 03       		.byte	0x3
 1039 01d0 75010000 		.4byte	0x175
 1040 01d4 13       		.uleb128 0x13
 1041 01d5 20       		.byte	0x20
 1042 01d6 0A       		.byte	0xa
 1043 01d7 5C05     		.2byte	0x55c
 1044 01d9 4C020000 		.4byte	0x24c
 1045 01dd 06       		.uleb128 0x6
 1046 01de 43523100 		.ascii	"CR1\000"
 1047 01e2 0A       		.byte	0xa
 1048 01e3 5E05     		.2byte	0x55e
 1049 01e5 11       		.byte	0x11
 1050 01e6 C7000000 		.4byte	0xc7
 1051 01ea 00       		.byte	0
 1052 01eb 06       		.uleb128 0x6
 1053 01ec 43523200 		.ascii	"CR2\000"
 1054 01f0 0A       		.byte	0xa
 1055 01f1 5F05     		.2byte	0x55f
 1056 01f3 11       		.byte	0x11
 1057 01f4 C7000000 		.4byte	0xc7
 1058 01f8 04       		.byte	0x4
 1059 01f9 03       		.uleb128 0x3
 1060 01fa FF020000 		.4byte	.LASF28
 1061 01fe 0A       		.byte	0xa
 1062 01ff 6005     		.2byte	0x560
 1063 0201 11       		.byte	0x11
 1064 0202 C7000000 		.4byte	0xc7
 1065 0206 08       		.byte	0x8
 1066 0207 03       		.uleb128 0x3
 1067 0208 84020000 		.4byte	.LASF29
 1068 020c 0A       		.byte	0xa
 1069 020d 6105     		.2byte	0x561
 1070 020f 11       		.byte	0x11
 1071 0210 C7000000 		.4byte	0xc7
 1072 0214 0C       		.byte	0xc
 1073 0215 06       		.uleb128 0x6
 1074 0216 494D5200 		.ascii	"IMR\000"
 1075 021a 0A       		.byte	0xa
 1076 021b 6205     		.2byte	0x562
 1077 021d 11       		.byte	0x11
 1078 021e C7000000 		.4byte	0xc7
 1079 0222 10       		.byte	0x10
 1080 0223 06       		.uleb128 0x6
 1081 0224 535200   		.ascii	"SR\000"
 1082 0227 0A       		.byte	0xa
 1083 0228 6305     		.2byte	0x563
ARM GAS  C:\Users\DEVELO~1\AppData\Local\Temp\ccuygmoc.s 			page 20


 1084 022a 11       		.byte	0x11
 1085 022b C7000000 		.4byte	0xc7
 1086 022f 14       		.byte	0x14
 1087 0230 03       		.uleb128 0x3
 1088 0231 4F040000 		.4byte	.LASF30
 1089 0235 0A       		.byte	0xa
 1090 0236 6405     		.2byte	0x564
 1091 0238 11       		.byte	0x11
 1092 0239 C7000000 		.4byte	0xc7
 1093 023d 18       		.byte	0x18
 1094 023e 06       		.uleb128 0x6
 1095 023f 445200   		.ascii	"DR\000"
 1096 0242 0A       		.byte	0xa
 1097 0243 6505     		.2byte	0x565
 1098 0245 11       		.byte	0x11
 1099 0246 C7000000 		.4byte	0xc7
 1100 024a 1C       		.byte	0x1c
 1101 024b 00       		.byte	0
 1102 024c 14       		.uleb128 0x14
 1103 024d 87010000 		.4byte	.LASF31
 1104 0251 0A       		.byte	0xa
 1105 0252 6605     		.2byte	0x566
 1106 0254 03       		.byte	0x3
 1107 0255 D4010000 		.4byte	0x1d4
 1108 0259 05       		.uleb128 0x5
 1109 025a 01       		.byte	0x1
 1110 025b 02       		.byte	0x2
 1111 025c EF030000 		.4byte	.LASF32
 1112 0260 13       		.uleb128 0x13
 1113 0261 10       		.byte	0x10
 1114 0262 0B       		.byte	0xb
 1115 0263 A701     		.2byte	0x1a7
 1116 0265 BE020000 		.4byte	0x2be
 1117 0269 03       		.uleb128 0x3
 1118 026a 4E020000 		.4byte	.LASF33
 1119 026e 0B       		.byte	0xb
 1120 026f A801     		.2byte	0x1a8
 1121 0271 1A       		.byte	0x1a
 1122 0272 BE020000 		.4byte	0x2be
 1123 0276 00       		.byte	0
 1124 0277 03       		.uleb128 0x3
 1125 0278 C9040000 		.4byte	.LASF34
 1126 027c 0B       		.byte	0xb
 1127 027d A901     		.2byte	0x1a9
 1128 027f 1A       		.byte	0x1a
 1129 0280 C3020000 		.4byte	0x2c3
 1130 0284 04       		.byte	0x4
 1131 0285 06       		.uleb128 0x6
 1132 0286 6D757800 		.ascii	"mux\000"
 1133 028a 0B       		.byte	0xb
 1134 028b AB01     		.2byte	0x1ab
 1135 028d 1B       		.byte	0x1b
 1136 028e C8020000 		.4byte	0x2c8
 1137 0292 08       		.byte	0x8
 1138 0293 03       		.uleb128 0x3
 1139 0294 48020000 		.4byte	.LASF35
 1140 0298 0B       		.byte	0xb
ARM GAS  C:\Users\DEVELO~1\AppData\Local\Temp\ccuygmoc.s 			page 21


 1141 0299 AF01     		.2byte	0x1af
 1142 029b 19       		.byte	0x19
 1143 029c A3000000 		.4byte	0xa3
 1144 02a0 0C       		.byte	0xc
 1145 02a1 03       		.uleb128 0x3
 1146 02a2 23030000 		.4byte	.LASF36
 1147 02a6 0B       		.byte	0xb
 1148 02a7 B101     		.2byte	0x1b1
 1149 02a9 19       		.byte	0x19
 1150 02aa A3000000 		.4byte	0xa3
 1151 02ae 0D       		.byte	0xd
 1152 02af 03       		.uleb128 0x3
 1153 02b0 F0010000 		.4byte	.LASF37
 1154 02b4 0B       		.byte	0xb
 1155 02b5 B201     		.2byte	0x1b2
 1156 02b7 19       		.byte	0x19
 1157 02b8 A3000000 		.4byte	0xa3
 1158 02bc 0E       		.byte	0xe
 1159 02bd 00       		.byte	0
 1160 02be 07       		.uleb128 0x7
 1161 02bf 43010000 		.4byte	0x143
 1162 02c3 07       		.uleb128 0x7
 1163 02c4 C7000000 		.4byte	0xc7
 1164 02c8 07       		.uleb128 0x7
 1165 02c9 68010000 		.4byte	0x168
 1166 02cd 14       		.uleb128 0x14
 1167 02ce C3010000 		.4byte	.LASF38
 1168 02d2 0B       		.byte	0xb
 1169 02d3 B301     		.2byte	0x1b3
 1170 02d5 03       		.byte	0x3
 1171 02d6 60020000 		.4byte	0x260
 1172 02da 0A       		.uleb128 0xa
 1173 02db CD020000 		.4byte	0x2cd
 1174 02df 07       		.uleb128 0x7
 1175 02e0 DA020000 		.4byte	0x2da
 1176 02e4 21       		.uleb128 0x21
 1177 02e5 07       		.byte	0x7
 1178 02e6 01       		.byte	0x1
 1179 02e7 61000000 		.4byte	0x61
 1180 02eb 0C       		.byte	0xc
 1181 02ec 25       		.byte	0x25
 1182 02ed 0E       		.byte	0xe
 1183 02ee 0B030000 		.4byte	0x30b
 1184 02f2 18       		.uleb128 0x18
 1185 02f3 00000000 		.4byte	.LASF39
 1186 02f7 00       		.byte	0
 1187 02f8 18       		.uleb128 0x18
 1188 02f9 D4040000 		.4byte	.LASF40
 1189 02fd 01       		.byte	0x1
 1190 02fe 18       		.uleb128 0x18
 1191 02ff 14000000 		.4byte	.LASF41
 1192 0303 02       		.byte	0x2
 1193 0304 18       		.uleb128 0x18
 1194 0305 A3000000 		.4byte	.LASF42
 1195 0309 03       		.byte	0x3
 1196 030a 00       		.byte	0
 1197 030b 04       		.uleb128 0x4
ARM GAS  C:\Users\DEVELO~1\AppData\Local\Temp\ccuygmoc.s 			page 22


 1198 030c FC010000 		.4byte	.LASF43
 1199 0310 0C       		.byte	0xc
 1200 0311 2A       		.byte	0x2a
 1201 0312 03       		.byte	0x3
 1202 0313 E4020000 		.4byte	0x2e4
 1203 0317 04       		.uleb128 0x4
 1204 0318 DE020000 		.4byte	.LASF44
 1205 031c 0C       		.byte	0xc
 1206 031d 2F       		.byte	0x2f
 1207 031e 1F       		.byte	0x1f
 1208 031f 23030000 		.4byte	0x323
 1209 0323 1B       		.uleb128 0x1b
 1210 0324 A0040000 		.4byte	.LASF57
 1211 0328 30       		.byte	0x30
 1212 0329 45       		.byte	0x45
 1213 032a BE030000 		.4byte	0x3be
 1214 032e 02       		.uleb128 0x2
 1215 032f 6A000000 		.4byte	.LASF45
 1216 0333 49       		.byte	0x49
 1217 0334 1D       		.byte	0x1d
 1218 0335 0B030000 		.4byte	0x30b
 1219 0339 00       		.byte	0
 1220 033a 02       		.uleb128 0x2
 1221 033b A5010000 		.4byte	.LASF46
 1222 033f 4D       		.byte	0x4d
 1223 0340 1E       		.byte	0x1e
 1224 0341 76040000 		.4byte	0x476
 1225 0345 04       		.byte	0x4
 1226 0346 19       		.uleb128 0x19
 1227 0347 73616900 		.ascii	"sai\000"
 1228 034b 4F       		.byte	0x4f
 1229 034c 7B040000 		.4byte	0x47b
 1230 0350 08       		.byte	0x8
 1231 0351 02       		.uleb128 0x2
 1232 0352 7D040000 		.4byte	.LASF47
 1233 0356 4F       		.byte	0x4f
 1234 0357 03       		.byte	0x3
 1235 0358 80040000 		.4byte	0x480
 1236 035c 0C       		.byte	0xc
 1237 035d 02       		.uleb128 0x2
 1238 035e 6D020000 		.4byte	.LASF48
 1239 0362 4F       		.byte	0x4f
 1240 0363 03       		.byte	0x3
 1241 0364 A3000000 		.4byte	0xa3
 1242 0368 10       		.byte	0x10
 1243 0369 02       		.uleb128 0x2
 1244 036a 33000000 		.4byte	.LASF49
 1245 036e 4F       		.byte	0x4f
 1246 036f 03       		.byte	0x3
 1247 0370 DF020000 		.4byte	0x2df
 1248 0374 14       		.byte	0x14
 1249 0375 02       		.uleb128 0x2
 1250 0376 9F030000 		.4byte	.LASF50
 1251 037a 4F       		.byte	0x4f
 1252 037b 03       		.byte	0x3
 1253 037c DF020000 		.4byte	0x2df
 1254 0380 18       		.byte	0x18
ARM GAS  C:\Users\DEVELO~1\AppData\Local\Temp\ccuygmoc.s 			page 23


 1255 0381 02       		.uleb128 0x2
 1256 0382 A4020000 		.4byte	.LASF51
 1257 0386 4F       		.byte	0x4f
 1258 0387 03       		.byte	0x3
 1259 0388 BB000000 		.4byte	0xbb
 1260 038c 1C       		.byte	0x1c
 1261 038d 02       		.uleb128 0x2
 1262 038e 2D030000 		.4byte	.LASF52
 1263 0392 4F       		.byte	0x4f
 1264 0393 03       		.byte	0x3
 1265 0394 BB000000 		.4byte	0xbb
 1266 0398 20       		.byte	0x20
 1267 0399 02       		.uleb128 0x2
 1268 039a C0030000 		.4byte	.LASF53
 1269 039e 4F       		.byte	0x4f
 1270 039f 03       		.byte	0x3
 1271 03a0 85040000 		.4byte	0x485
 1272 03a4 24       		.byte	0x24
 1273 03a5 02       		.uleb128 0x2
 1274 03a6 AF040000 		.4byte	.LASF54
 1275 03aa 4F       		.byte	0x4f
 1276 03ab 03       		.byte	0x3
 1277 03ac E4000000 		.4byte	0xe4
 1278 03b0 28       		.byte	0x28
 1279 03b1 02       		.uleb128 0x2
 1280 03b2 55040000 		.4byte	.LASF55
 1281 03b6 4F       		.byte	0x4f
 1282 03b7 03       		.byte	0x3
 1283 03b8 2D000000 		.4byte	0x2d
 1284 03bc 2C       		.byte	0x2c
 1285 03bd 00       		.byte	0
 1286 03be 04       		.uleb128 0x4
 1287 03bf AE000000 		.4byte	.LASF56
 1288 03c3 0C       		.byte	0xc
 1289 03c4 34       		.byte	0x34
 1290 03c5 1F       		.byte	0x1f
 1291 03c6 CF030000 		.4byte	0x3cf
 1292 03ca 0A       		.uleb128 0xa
 1293 03cb BE030000 		.4byte	0x3be
 1294 03cf 1B       		.uleb128 0x1b
 1295 03d0 24000000 		.4byte	.LASF58
 1296 03d4 28       		.byte	0x28
 1297 03d5 55       		.byte	0x55
 1298 03d6 50040000 		.4byte	0x450
 1299 03da 02       		.uleb128 0x2
 1300 03db AE020000 		.4byte	.LASF59
 1301 03df 5A       		.byte	0x5a
 1302 03e0 1E       		.byte	0x1e
 1303 03e1 85040000 		.4byte	0x485
 1304 03e5 00       		.byte	0
 1305 03e6 02       		.uleb128 0x2
 1306 03e7 0B040000 		.4byte	.LASF60
 1307 03eb 5F       		.byte	0x5f
 1308 03ec 1E       		.byte	0x1e
 1309 03ed E4000000 		.4byte	0xe4
 1310 03f1 04       		.byte	0x4
 1311 03f2 02       		.uleb128 0x2
ARM GAS  C:\Users\DEVELO~1\AppData\Local\Temp\ccuygmoc.s 			page 24


 1312 03f3 62040000 		.4byte	.LASF61
 1313 03f7 63       		.byte	0x63
 1314 03f8 1D       		.byte	0x1d
 1315 03f9 2D000000 		.4byte	0x2d
 1316 03fd 08       		.byte	0x8
 1317 03fe 02       		.uleb128 0x2
 1318 03ff C2040000 		.4byte	.LASF62
 1319 0403 67       		.byte	0x67
 1320 0404 1D       		.byte	0x1d
 1321 0405 50040000 		.4byte	0x450
 1322 0409 0C       		.byte	0xc
 1323 040a 19       		.uleb128 0x19
 1324 040b 67637200 		.ascii	"gcr\000"
 1325 040f 69       		.byte	0x69
 1326 0410 BB000000 		.4byte	0xbb
 1327 0414 10       		.byte	0x10
 1328 0415 19       		.uleb128 0x19
 1329 0416 63723100 		.ascii	"cr1\000"
 1330 041a 69       		.byte	0x69
 1331 041b BB000000 		.4byte	0xbb
 1332 041f 14       		.byte	0x14
 1333 0420 19       		.uleb128 0x19
 1334 0421 63723200 		.ascii	"cr2\000"
 1335 0425 69       		.byte	0x69
 1336 0426 BB000000 		.4byte	0xbb
 1337 042a 18       		.byte	0x18
 1338 042b 02       		.uleb128 0x2
 1339 042c 5D040000 		.4byte	.LASF63
 1340 0430 69       		.byte	0x69
 1341 0431 03       		.byte	0x3
 1342 0432 BB000000 		.4byte	0xbb
 1343 0436 1C       		.byte	0x1c
 1344 0437 02       		.uleb128 0x2
 1345 0438 7E020000 		.4byte	.LASF64
 1346 043c 69       		.byte	0x69
 1347 043d 03       		.byte	0x3
 1348 043e BB000000 		.4byte	0xbb
 1349 0442 20       		.byte	0x20
 1350 0443 02       		.uleb128 0x2
 1351 0444 38020000 		.4byte	.LASF65
 1352 0448 69       		.byte	0x69
 1353 0449 03       		.byte	0x3
 1354 044a BB000000 		.4byte	0xbb
 1355 044e 24       		.byte	0x24
 1356 044f 00       		.byte	0
 1357 0450 04       		.uleb128 0x4
 1358 0451 55020000 		.4byte	.LASF66
 1359 0455 0C       		.byte	0xc
 1360 0456 3C       		.byte	0x3c
 1361 0457 10       		.byte	0x10
 1362 0458 5C040000 		.4byte	0x45c
 1363 045c 07       		.uleb128 0x7
 1364 045d 61040000 		.4byte	0x461
 1365 0461 22       		.uleb128 0x22
 1366 0462 71040000 		.4byte	0x471
 1367 0466 08       		.uleb128 0x8
 1368 0467 71040000 		.4byte	0x471
ARM GAS  C:\Users\DEVELO~1\AppData\Local\Temp\ccuygmoc.s 			page 25


 1369 046b 08       		.uleb128 0x8
 1370 046c 59020000 		.4byte	0x259
 1371 0470 00       		.byte	0
 1372 0471 07       		.uleb128 0x7
 1373 0472 17030000 		.4byte	0x317
 1374 0476 07       		.uleb128 0x7
 1375 0477 CA030000 		.4byte	0x3ca
 1376 047b 07       		.uleb128 0x7
 1377 047c C7010000 		.4byte	0x1c7
 1378 0480 07       		.uleb128 0x7
 1379 0481 4C020000 		.4byte	0x24c
 1380 0485 07       		.uleb128 0x7
 1381 0486 8A040000 		.4byte	0x48a
 1382 048a 23       		.uleb128 0x23
 1383 048b 15       		.uleb128 0x15
 1384 048c 0D030000 		.4byte	.LASF67
 1385 0490 0801     		.2byte	0x108
 1386 0492 9C040000 		.4byte	0x49c
 1387 0496 08       		.uleb128 0x8
 1388 0497 71040000 		.4byte	0x471
 1389 049b 00       		.byte	0
 1390 049c 15       		.uleb128 0x15
 1391 049d 07020000 		.4byte	.LASF68
 1392 04a1 0701     		.2byte	0x107
 1393 04a3 AD040000 		.4byte	0x4ad
 1394 04a7 08       		.uleb128 0x8
 1395 04a8 71040000 		.4byte	0x471
 1396 04ac 00       		.byte	0
 1397 04ad 15       		.uleb128 0x15
 1398 04ae 81000000 		.4byte	.LASF69
 1399 04b2 0301     		.2byte	0x103
 1400 04b4 CD040000 		.4byte	0x4cd
 1401 04b8 08       		.uleb128 0x8
 1402 04b9 71040000 		.4byte	0x471
 1403 04bd 08       		.uleb128 0x8
 1404 04be 85040000 		.4byte	0x485
 1405 04c2 08       		.uleb128 0x8
 1406 04c3 E4000000 		.4byte	0xe4
 1407 04c7 08       		.uleb128 0x8
 1408 04c8 2D000000 		.4byte	0x2d
 1409 04cc 00       		.byte	0
 1410 04cd 15       		.uleb128 0x15
 1411 04ce DB010000 		.4byte	.LASF70
 1412 04d2 0201     		.2byte	0x102
 1413 04d4 DE040000 		.4byte	0x4de
 1414 04d8 08       		.uleb128 0x8
 1415 04d9 71040000 		.4byte	0x471
 1416 04dd 00       		.byte	0
 1417 04de 15       		.uleb128 0x15
 1418 04df 84040000 		.4byte	.LASF71
 1419 04e3 0101     		.2byte	0x101
 1420 04e5 EF040000 		.4byte	0x4ef
 1421 04e9 08       		.uleb128 0x8
 1422 04ea 71040000 		.4byte	0x471
 1423 04ee 00       		.byte	0
 1424 04ef 24       		.uleb128 0x24
 1425 04f0 3A040000 		.4byte	.LASF88
ARM GAS  C:\Users\DEVELO~1\AppData\Local\Temp\ccuygmoc.s 			page 26


 1426 04f4 0D       		.byte	0xd
 1427 04f5 0001     		.2byte	0x100
 1428 04f7 08       		.byte	0x8
 1429 04f8 10       		.uleb128 0x10
 1430 04f9 B8000000 		.4byte	.LASF72
 1431 04fd A7       		.byte	0xa7
 1432 04fe 00000000 		.4byte	.LFB438
 1433 0502 1A000000 		.4byte	.LFE438-.LFB438
 1434 0506 01       		.uleb128 0x1
 1435 0507 9C       		.byte	0x9c
 1436 0508 ED050000 		.4byte	0x5ed
 1437 050c 0B       		.uleb128 0xb
 1438 050d D6010000 		.4byte	.LASF74
 1439 0511 A7       		.byte	0xa7
 1440 0512 21       		.byte	0x21
 1441 0513 71040000 		.4byte	0x471
 1442 0517 10000000 		.4byte	.LLST22
 1443 051b 0C000000 		.4byte	.LVUS22
 1444 051f 11       		.uleb128 0x11
 1445 0520 B8020000 		.4byte	.LASF75
 1446 0524 FD050000 		.4byte	0x5fd
 1447 0528 0C       		.uleb128 0xc
 1448 0529 FD0A0000 		.4byte	0xafd
 1449 052d 00000000 		.4byte	.LBI180
 1450 0531 05       		.byte	.LVU195
 1451 0532 5D000000 		.4byte	.LLRL23
 1452 0536 AB       		.byte	0xab
 1453 0537 7F050000 		.4byte	0x57f
 1454 053b 01       		.uleb128 0x1
 1455 053c 330B0000 		.4byte	0xb33
 1456 0540 00000000 		.4byte	.LBI181
 1457 0544 07       		.byte	.LVU197
 1458 0545 5D000000 		.4byte	.LLRL23
 1459 0549 02       		.byte	0x2
 1460 054a 3F02     		.2byte	0x23f
 1461 054c 01       		.uleb128 0x1
 1462 054d 450B0000 		.4byte	0xb45
 1463 0551 00000000 		.4byte	.LBI182
 1464 0555 09       		.byte	.LVU199
 1465 0556 5D000000 		.4byte	.LLRL23
 1466 055a 03       		.byte	0x3
 1467 055b 9901     		.2byte	0x199
 1468 055d 01       		.uleb128 0x1
 1469 055e 4E0B0000 		.4byte	0xb4e
 1470 0562 00000000 		.4byte	.LBI183
 1471 0566 0B       		.byte	.LVU201
 1472 0567 5D000000 		.4byte	.LLRL23
 1473 056b 04       		.byte	0x4
 1474 056c 3F03     		.2byte	0x33f
 1475 056e 09       		.uleb128 0x9
 1476 056f 580B0000 		.4byte	0xb58
 1477 0573 22000000 		.4byte	.LLST24
 1478 0577 20000000 		.4byte	.LVUS24
 1479 057b 00       		.byte	0
 1480 057c 00       		.byte	0
 1481 057d 00       		.byte	0
 1482 057e 00       		.byte	0
ARM GAS  C:\Users\DEVELO~1\AppData\Local\Temp\ccuygmoc.s 			page 27


 1483 057f 0C       		.uleb128 0xc
 1484 0580 F40A0000 		.4byte	0xaf4
 1485 0584 14000000 		.4byte	.LBI195
 1486 0588 02       		.byte	.LVU219
 1487 0589 6C000000 		.4byte	.LLRL25
 1488 058d AE       		.byte	0xae
 1489 058e DC050000 		.4byte	0x5dc
 1490 0592 01       		.uleb128 0x1
 1491 0593 060B0000 		.4byte	0xb06
 1492 0597 14000000 		.4byte	.LBI196
 1493 059b 04       		.byte	.LVU221
 1494 059c 6C000000 		.4byte	.LLRL25
 1495 05a0 02       		.byte	0x2
 1496 05a1 4A02     		.2byte	0x24a
 1497 05a3 1A       		.uleb128 0x1a
 1498 05a4 6C000000 		.4byte	.LLRL25
 1499 05a8 01       		.uleb128 0x1
 1500 05a9 3C0B0000 		.4byte	0xb3c
 1501 05ad 14000000 		.4byte	.LBI198
 1502 05b1 0B       		.byte	.LVU228
 1503 05b2 6C000000 		.4byte	.LLRL25
 1504 05b6 03       		.byte	0x3
 1505 05b7 B201     		.2byte	0x1b2
 1506 05b9 01       		.uleb128 0x1
 1507 05ba 4E0B0000 		.4byte	0xb4e
 1508 05be 14000000 		.4byte	.LBI199
 1509 05c2 0D       		.byte	.LVU230
 1510 05c3 6C000000 		.4byte	.LLRL25
 1511 05c7 04       		.byte	0x4
 1512 05c8 5203     		.2byte	0x352
 1513 05ca 09       		.uleb128 0x9
 1514 05cb 580B0000 		.4byte	0xb58
 1515 05cf 2F000000 		.4byte	.LLST26
 1516 05d3 2D000000 		.4byte	.LVUS26
 1517 05d7 00       		.byte	0
 1518 05d8 00       		.byte	0
 1519 05d9 00       		.byte	0
 1520 05da 00       		.byte	0
 1521 05db 00       		.byte	0
 1522 05dc 16       		.uleb128 0x16
 1523 05dd 0E000000 		.4byte	.LVL23
 1524 05e1 8B040000 		.4byte	0x48b
 1525 05e5 0D       		.uleb128 0xd
 1526 05e6 01       		.uleb128 0x1
 1527 05e7 50       		.byte	0x50
 1528 05e8 02       		.uleb128 0x2
 1529 05e9 74       		.byte	0x74
 1530 05ea 00       		.sleb128 0
 1531 05eb 00       		.byte	0
 1532 05ec 00       		.byte	0
 1533 05ed 0E       		.uleb128 0xe
 1534 05ee DF000000 		.4byte	0xdf
 1535 05f2 FD050000 		.4byte	0x5fd
 1536 05f6 0F       		.uleb128 0xf
 1537 05f7 39000000 		.4byte	0x39
 1538 05fb 0F       		.byte	0xf
 1539 05fc 00       		.byte	0
ARM GAS  C:\Users\DEVELO~1\AppData\Local\Temp\ccuygmoc.s 			page 28


 1540 05fd 0A       		.uleb128 0xa
 1541 05fe ED050000 		.4byte	0x5ed
 1542 0602 10       		.uleb128 0x10
 1543 0603 C1020000 		.4byte	.LASF73
 1544 0607 96       		.byte	0x96
 1545 0608 00000000 		.4byte	.LFB437
 1546 060c 1A000000 		.4byte	.LFE437-.LFB437
 1547 0610 01       		.uleb128 0x1
 1548 0611 9C       		.byte	0x9c
 1549 0612 F7060000 		.4byte	0x6f7
 1550 0616 0B       		.uleb128 0xb
 1551 0617 D6010000 		.4byte	.LASF74
 1552 061b 96       		.byte	0x96
 1553 061c 22       		.byte	0x22
 1554 061d 71040000 		.4byte	0x471
 1555 0621 3D000000 		.4byte	.LLST17
 1556 0625 39000000 		.4byte	.LVUS17
 1557 0629 11       		.uleb128 0x11
 1558 062a B8020000 		.4byte	.LASF75
 1559 062e 07070000 		.4byte	0x707
 1560 0632 0C       		.uleb128 0xc
 1561 0633 FD0A0000 		.4byte	0xafd
 1562 0637 00000000 		.4byte	.LBI153
 1563 063b 05       		.byte	.LVU150
 1564 063c 42000000 		.4byte	.LLRL18
 1565 0640 9A       		.byte	0x9a
 1566 0641 89060000 		.4byte	0x689
 1567 0645 01       		.uleb128 0x1
 1568 0646 330B0000 		.4byte	0xb33
 1569 064a 00000000 		.4byte	.LBI154
 1570 064e 07       		.byte	.LVU152
 1571 064f 42000000 		.4byte	.LLRL18
 1572 0653 02       		.byte	0x2
 1573 0654 3F02     		.2byte	0x23f
 1574 0656 01       		.uleb128 0x1
 1575 0657 450B0000 		.4byte	0xb45
 1576 065b 00000000 		.4byte	.LBI155
 1577 065f 09       		.byte	.LVU154
 1578 0660 42000000 		.4byte	.LLRL18
 1579 0664 03       		.byte	0x3
 1580 0665 9901     		.2byte	0x199
 1581 0667 01       		.uleb128 0x1
 1582 0668 4E0B0000 		.4byte	0xb4e
 1583 066c 00000000 		.4byte	.LBI156
 1584 0670 0B       		.byte	.LVU156
 1585 0671 42000000 		.4byte	.LLRL18
 1586 0675 04       		.byte	0x4
 1587 0676 3F03     		.2byte	0x33f
 1588 0678 09       		.uleb128 0x9
 1589 0679 580B0000 		.4byte	0xb58
 1590 067d 4F000000 		.4byte	.LLST19
 1591 0681 4D000000 		.4byte	.LVUS19
 1592 0685 00       		.byte	0
 1593 0686 00       		.byte	0
 1594 0687 00       		.byte	0
 1595 0688 00       		.byte	0
 1596 0689 0C       		.uleb128 0xc
ARM GAS  C:\Users\DEVELO~1\AppData\Local\Temp\ccuygmoc.s 			page 29


 1597 068a F40A0000 		.4byte	0xaf4
 1598 068e 14000000 		.4byte	.LBI168
 1599 0692 02       		.byte	.LVU174
 1600 0693 51000000 		.4byte	.LLRL20
 1601 0697 9D       		.byte	0x9d
 1602 0698 E6060000 		.4byte	0x6e6
 1603 069c 01       		.uleb128 0x1
 1604 069d 060B0000 		.4byte	0xb06
 1605 06a1 14000000 		.4byte	.LBI169
 1606 06a5 04       		.byte	.LVU176
 1607 06a6 51000000 		.4byte	.LLRL20
 1608 06aa 02       		.byte	0x2
 1609 06ab 4A02     		.2byte	0x24a
 1610 06ad 1A       		.uleb128 0x1a
 1611 06ae 51000000 		.4byte	.LLRL20
 1612 06b2 01       		.uleb128 0x1
 1613 06b3 3C0B0000 		.4byte	0xb3c
 1614 06b7 14000000 		.4byte	.LBI171
 1615 06bb 0B       		.byte	.LVU183
 1616 06bc 51000000 		.4byte	.LLRL20
 1617 06c0 03       		.byte	0x3
 1618 06c1 B201     		.2byte	0x1b2
 1619 06c3 01       		.uleb128 0x1
 1620 06c4 4E0B0000 		.4byte	0xb4e
 1621 06c8 14000000 		.4byte	.LBI172
 1622 06cc 0D       		.byte	.LVU185
 1623 06cd 51000000 		.4byte	.LLRL20
 1624 06d1 04       		.byte	0x4
 1625 06d2 5203     		.2byte	0x352
 1626 06d4 09       		.uleb128 0x9
 1627 06d5 580B0000 		.4byte	0xb58
 1628 06d9 5C000000 		.4byte	.LLST21
 1629 06dd 5A000000 		.4byte	.LVUS21
 1630 06e1 00       		.byte	0
 1631 06e2 00       		.byte	0
 1632 06e3 00       		.byte	0
 1633 06e4 00       		.byte	0
 1634 06e5 00       		.byte	0
 1635 06e6 16       		.uleb128 0x16
 1636 06e7 0E000000 		.4byte	.LVL18
 1637 06eb 9C040000 		.4byte	0x49c
 1638 06ef 0D       		.uleb128 0xd
 1639 06f0 01       		.uleb128 0x1
 1640 06f1 50       		.byte	0x50
 1641 06f2 02       		.uleb128 0x2
 1642 06f3 74       		.byte	0x74
 1643 06f4 00       		.sleb128 0
 1644 06f5 00       		.byte	0
 1645 06f6 00       		.byte	0
 1646 06f7 0E       		.uleb128 0xe
 1647 06f8 DF000000 		.4byte	0xdf
 1648 06fc 07070000 		.4byte	0x707
 1649 0700 0F       		.uleb128 0xf
 1650 0701 39000000 		.4byte	0x39
 1651 0705 10       		.byte	0x10
 1652 0706 00       		.byte	0
 1653 0707 0A       		.uleb128 0xa
ARM GAS  C:\Users\DEVELO~1\AppData\Local\Temp\ccuygmoc.s 			page 30


 1654 0708 F7060000 		.4byte	0x6f7
 1655 070c 10       		.uleb128 0x10
 1656 070d 2C040000 		.4byte	.LASF76
 1657 0711 80       		.byte	0x80
 1658 0712 00000000 		.4byte	.LFB436
 1659 0716 16000000 		.4byte	.LFE436-.LFB436
 1660 071a 01       		.uleb128 0x1
 1661 071b 9C       		.byte	0x9c
 1662 071c 5A080000 		.4byte	0x85a
 1663 0720 0B       		.uleb128 0xb
 1664 0721 D6010000 		.4byte	.LASF74
 1665 0725 80       		.byte	0x80
 1666 0726 1F       		.byte	0x1f
 1667 0727 71040000 		.4byte	0x471
 1668 072b 6A000000 		.4byte	.LLST10
 1669 072f 66000000 		.4byte	.LVUS10
 1670 0733 0B       		.uleb128 0xb
 1671 0734 AE020000 		.4byte	.LASF59
 1672 0738 81       		.byte	0x81
 1673 0739 20       		.byte	0x20
 1674 073a 85040000 		.4byte	0x485
 1675 073e 81000000 		.4byte	.LLST11
 1676 0742 7D000000 		.4byte	.LVUS11
 1677 0746 0B       		.uleb128 0xb
 1678 0747 0B040000 		.4byte	.LASF60
 1679 074b 82       		.byte	0x82
 1680 074c 1A       		.byte	0x1a
 1681 074d E4000000 		.4byte	0xe4
 1682 0751 98000000 		.4byte	.LLST12
 1683 0755 94000000 		.4byte	.LVUS12
 1684 0759 0B       		.uleb128 0xb
 1685 075a 62040000 		.4byte	.LASF61
 1686 075e 83       		.byte	0x83
 1687 075f 1B       		.byte	0x1b
 1688 0760 2D000000 		.4byte	0x2d
 1689 0764 AF000000 		.4byte	.LLST13
 1690 0768 AB000000 		.4byte	.LVUS13
 1691 076c 11       		.uleb128 0x11
 1692 076d B8020000 		.4byte	.LASF75
 1693 0771 6A080000 		.4byte	0x86a
 1694 0775 0C       		.uleb128 0xc
 1695 0776 FD0A0000 		.4byte	0xafd
 1696 077a 00000000 		.4byte	.LBI137
 1697 077e 05       		.byte	.LVU112
 1698 077f 36000000 		.4byte	.LLRL14
 1699 0783 87       		.byte	0x87
 1700 0784 CC070000 		.4byte	0x7cc
 1701 0788 01       		.uleb128 0x1
 1702 0789 330B0000 		.4byte	0xb33
 1703 078d 00000000 		.4byte	.LBI138
 1704 0791 07       		.byte	.LVU114
 1705 0792 36000000 		.4byte	.LLRL14
 1706 0796 02       		.byte	0x2
 1707 0797 3F02     		.2byte	0x23f
 1708 0799 01       		.uleb128 0x1
 1709 079a 450B0000 		.4byte	0xb45
 1710 079e 00000000 		.4byte	.LBI139
ARM GAS  C:\Users\DEVELO~1\AppData\Local\Temp\ccuygmoc.s 			page 31


 1711 07a2 09       		.byte	.LVU116
 1712 07a3 36000000 		.4byte	.LLRL14
 1713 07a7 03       		.byte	0x3
 1714 07a8 9901     		.2byte	0x199
 1715 07aa 01       		.uleb128 0x1
 1716 07ab 4E0B0000 		.4byte	0xb4e
 1717 07af 00000000 		.4byte	.LBI140
 1718 07b3 0B       		.byte	.LVU118
 1719 07b4 36000000 		.4byte	.LLRL14
 1720 07b8 04       		.byte	0x4
 1721 07b9 3F03     		.2byte	0x33f
 1722 07bb 09       		.uleb128 0x9
 1723 07bc 580B0000 		.4byte	0xb58
 1724 07c0 C4000000 		.4byte	.LLST15
 1725 07c4 C2000000 		.4byte	.LVUS15
 1726 07c8 00       		.byte	0
 1727 07c9 00       		.byte	0
 1728 07ca 00       		.byte	0
 1729 07cb 00       		.byte	0
 1730 07cc 1C       		.uleb128 0x1c
 1731 07cd F40A0000 		.4byte	0xaf4
 1732 07d1 0E000000 		.4byte	.LBI147
 1733 07d5 01       		.byte	.LVU130
 1734 07d6 0E000000 		.4byte	.LBB147
 1735 07da 06000000 		.4byte	.LBE147-.LBB147
 1736 07de 8C       		.byte	0x8c
 1737 07df 33080000 		.4byte	0x833
 1738 07e3 12       		.uleb128 0x12
 1739 07e4 060B0000 		.4byte	0xb06
 1740 07e8 0E000000 		.4byte	.LBI148
 1741 07ec 03       		.byte	.LVU132
 1742 07ed 0E000000 		.4byte	.LBB148
 1743 07f1 06000000 		.4byte	.LBE148-.LBB148
 1744 07f5 02       		.byte	0x2
 1745 07f6 4A02     		.2byte	0x24a
 1746 07f8 12       		.uleb128 0x12
 1747 07f9 3C0B0000 		.4byte	0xb3c
 1748 07fd 0E000000 		.4byte	.LBI150
 1749 0801 0A       		.byte	.LVU139
 1750 0802 0E000000 		.4byte	.LBB150
 1751 0806 06000000 		.4byte	.LBE150-.LBB150
 1752 080a 03       		.byte	0x3
 1753 080b B201     		.2byte	0x1b2
 1754 080d 12       		.uleb128 0x12
 1755 080e 4E0B0000 		.4byte	0xb4e
 1756 0812 0E000000 		.4byte	.LBI151
 1757 0816 0C       		.byte	.LVU141
 1758 0817 0E000000 		.4byte	.LBB151
 1759 081b 06000000 		.4byte	.LBE151-.LBB151
 1760 081f 04       		.byte	0x4
 1761 0820 5203     		.2byte	0x352
 1762 0822 09       		.uleb128 0x9
 1763 0823 580B0000 		.4byte	0xb58
 1764 0827 D1000000 		.4byte	.LLST16
 1765 082b CF000000 		.4byte	.LVUS16
 1766 082f 00       		.byte	0
 1767 0830 00       		.byte	0
ARM GAS  C:\Users\DEVELO~1\AppData\Local\Temp\ccuygmoc.s 			page 32


 1768 0831 00       		.byte	0
 1769 0832 00       		.byte	0
 1770 0833 16       		.uleb128 0x16
 1771 0834 0E000000 		.4byte	.LVL14
 1772 0838 AD040000 		.4byte	0x4ad
 1773 083c 0D       		.uleb128 0xd
 1774 083d 01       		.uleb128 0x1
 1775 083e 50       		.byte	0x50
 1776 083f 03       		.uleb128 0x3
 1777 0840 A3       		.byte	0xa3
 1778 0841 01       		.uleb128 0x1
 1779 0842 50       		.byte	0x50
 1780 0843 0D       		.uleb128 0xd
 1781 0844 01       		.uleb128 0x1
 1782 0845 51       		.byte	0x51
 1783 0846 03       		.uleb128 0x3
 1784 0847 A3       		.byte	0xa3
 1785 0848 01       		.uleb128 0x1
 1786 0849 51       		.byte	0x51
 1787 084a 0D       		.uleb128 0xd
 1788 084b 01       		.uleb128 0x1
 1789 084c 52       		.byte	0x52
 1790 084d 03       		.uleb128 0x3
 1791 084e A3       		.byte	0xa3
 1792 084f 01       		.uleb128 0x1
 1793 0850 52       		.byte	0x52
 1794 0851 0D       		.uleb128 0xd
 1795 0852 01       		.uleb128 0x1
 1796 0853 53       		.byte	0x53
 1797 0854 03       		.uleb128 0x3
 1798 0855 A3       		.byte	0xa3
 1799 0856 01       		.uleb128 0x1
 1800 0857 53       		.byte	0x53
 1801 0858 00       		.byte	0
 1802 0859 00       		.byte	0
 1803 085a 0E       		.uleb128 0xe
 1804 085b DF000000 		.4byte	0xdf
 1805 085f 6A080000 		.4byte	0x86a
 1806 0863 0F       		.uleb128 0xf
 1807 0864 39000000 		.4byte	0x39
 1808 0868 0D       		.byte	0xd
 1809 0869 00       		.byte	0
 1810 086a 0A       		.uleb128 0xa
 1811 086b 5A080000 		.4byte	0x85a
 1812 086f 10       		.uleb128 0x10
 1813 0870 15040000 		.4byte	.LASF77
 1814 0874 67       		.byte	0x67
 1815 0875 00000000 		.4byte	.LFB435
 1816 0879 1C000000 		.4byte	.LFE435-.LFB435
 1817 087d 01       		.uleb128 0x1
 1818 087e 9C       		.byte	0x9c
 1819 087f 6E090000 		.4byte	0x96e
 1820 0883 0B       		.uleb128 0xb
 1821 0884 D6010000 		.4byte	.LASF74
 1822 0888 67       		.byte	0x67
 1823 0889 19       		.byte	0x19
 1824 088a 71040000 		.4byte	0x471
ARM GAS  C:\Users\DEVELO~1\AppData\Local\Temp\ccuygmoc.s 			page 33


 1825 088e DF000000 		.4byte	.LLST6
 1826 0892 DB000000 		.4byte	.LVUS6
 1827 0896 11       		.uleb128 0x11
 1828 0897 B8020000 		.4byte	.LASF75
 1829 089b 7E090000 		.4byte	0x97e
 1830 089f 0C       		.uleb128 0xc
 1831 08a0 FD0A0000 		.4byte	0xafd
 1832 08a4 00000000 		.4byte	.LBI116
 1833 08a8 05       		.byte	.LVU65
 1834 08a9 27000000 		.4byte	.LLRL7
 1835 08ad 6B       		.byte	0x6b
 1836 08ae F6080000 		.4byte	0x8f6
 1837 08b2 01       		.uleb128 0x1
 1838 08b3 330B0000 		.4byte	0xb33
 1839 08b7 00000000 		.4byte	.LBI117
 1840 08bb 07       		.byte	.LVU67
 1841 08bc 27000000 		.4byte	.LLRL7
 1842 08c0 02       		.byte	0x2
 1843 08c1 3F02     		.2byte	0x23f
 1844 08c3 01       		.uleb128 0x1
 1845 08c4 450B0000 		.4byte	0xb45
 1846 08c8 00000000 		.4byte	.LBI118
 1847 08cc 09       		.byte	.LVU69
 1848 08cd 27000000 		.4byte	.LLRL7
 1849 08d1 03       		.byte	0x3
 1850 08d2 9901     		.2byte	0x199
 1851 08d4 01       		.uleb128 0x1
 1852 08d5 4E0B0000 		.4byte	0xb4e
 1853 08d9 00000000 		.4byte	.LBI119
 1854 08dd 0B       		.byte	.LVU71
 1855 08de 27000000 		.4byte	.LLRL7
 1856 08e2 04       		.byte	0x4
 1857 08e3 3F03     		.2byte	0x33f
 1858 08e5 09       		.uleb128 0x9
 1859 08e6 580B0000 		.4byte	0xb58
 1860 08ea F1000000 		.4byte	.LLST8
 1861 08ee EF000000 		.4byte	.LVUS8
 1862 08f2 00       		.byte	0
 1863 08f3 00       		.byte	0
 1864 08f4 00       		.byte	0
 1865 08f5 00       		.byte	0
 1866 08f6 1C       		.uleb128 0x1c
 1867 08f7 F40A0000 		.4byte	0xaf4
 1868 08fb 16000000 		.4byte	.LBI131
 1869 08ff 01       		.byte	.LVU91
 1870 0900 16000000 		.4byte	.LBB131
 1871 0904 04000000 		.4byte	.LBE131-.LBB131
 1872 0908 73       		.byte	0x73
 1873 0909 5D090000 		.4byte	0x95d
 1874 090d 12       		.uleb128 0x12
 1875 090e 060B0000 		.4byte	0xb06
 1876 0912 16000000 		.4byte	.LBI132
 1877 0916 03       		.byte	.LVU93
 1878 0917 16000000 		.4byte	.LBB132
 1879 091b 04000000 		.4byte	.LBE132-.LBB132
 1880 091f 02       		.byte	0x2
 1881 0920 4A02     		.2byte	0x24a
ARM GAS  C:\Users\DEVELO~1\AppData\Local\Temp\ccuygmoc.s 			page 34


 1882 0922 12       		.uleb128 0x12
 1883 0923 3C0B0000 		.4byte	0xb3c
 1884 0927 16000000 		.4byte	.LBI134
 1885 092b 0A       		.byte	.LVU100
 1886 092c 16000000 		.4byte	.LBB134
 1887 0930 04000000 		.4byte	.LBE134-.LBB134
 1888 0934 03       		.byte	0x3
 1889 0935 B201     		.2byte	0x1b2
 1890 0937 12       		.uleb128 0x12
 1891 0938 4E0B0000 		.4byte	0xb4e
 1892 093c 16000000 		.4byte	.LBI135
 1893 0940 0C       		.byte	.LVU102
 1894 0941 16000000 		.4byte	.LBB135
 1895 0945 04000000 		.4byte	.LBE135-.LBB135
 1896 0949 04       		.byte	0x4
 1897 094a 5203     		.2byte	0x352
 1898 094c 09       		.uleb128 0x9
 1899 094d 580B0000 		.4byte	0xb58
 1900 0951 FE000000 		.4byte	.LLST9
 1901 0955 FC000000 		.4byte	.LVUS9
 1902 0959 00       		.byte	0
 1903 095a 00       		.byte	0
 1904 095b 00       		.byte	0
 1905 095c 00       		.byte	0
 1906 095d 16       		.uleb128 0x16
 1907 095e 0E000000 		.4byte	.LVL9
 1908 0962 CD040000 		.4byte	0x4cd
 1909 0966 0D       		.uleb128 0xd
 1910 0967 01       		.uleb128 0x1
 1911 0968 50       		.byte	0x50
 1912 0969 02       		.uleb128 0x2
 1913 096a 74       		.byte	0x74
 1914 096b 00       		.sleb128 0
 1915 096c 00       		.byte	0
 1916 096d 00       		.byte	0
 1917 096e 0E       		.uleb128 0xe
 1918 096f DF000000 		.4byte	0xdf
 1919 0973 7E090000 		.4byte	0x97e
 1920 0977 0F       		.uleb128 0xf
 1921 0978 39000000 		.4byte	0x39
 1922 097c 07       		.byte	0x7
 1923 097d 00       		.byte	0
 1924 097e 0A       		.uleb128 0xa
 1925 097f 6E090000 		.4byte	0x96e
 1926 0983 25       		.uleb128 0x25
 1927 0984 0B000000 		.4byte	.LASF89
 1928 0988 01       		.byte	0x1
 1929 0989 42       		.byte	0x42
 1930 098a 07       		.byte	0x7
 1931 098b CC000000 		.4byte	0xcc
 1932 098f 00000000 		.4byte	.LFB434
 1933 0993 1C000000 		.4byte	.LFE434-.LFB434
 1934 0997 01       		.uleb128 0x1
 1935 0998 9C       		.byte	0x9c
 1936 0999 9E0A0000 		.4byte	0xa9e
 1937 099d 0B       		.uleb128 0xb
 1938 099e D6010000 		.4byte	.LASF74
ARM GAS  C:\Users\DEVELO~1\AppData\Local\Temp\ccuygmoc.s 			page 35


 1939 09a2 42       		.byte	0x42
 1940 09a3 1B       		.byte	0x1b
 1941 09a4 71040000 		.4byte	0x471
 1942 09a8 0C010000 		.4byte	.LLST0
 1943 09ac 08010000 		.4byte	.LVUS0
 1944 09b0 0B       		.uleb128 0xb
 1945 09b1 A5010000 		.4byte	.LASF46
 1946 09b5 42       		.byte	0x42
 1947 09b6 32       		.byte	0x32
 1948 09b7 76040000 		.4byte	0x476
 1949 09bb 20010000 		.4byte	.LLST1
 1950 09bf 1C010000 		.4byte	.LVUS1
 1951 09c3 26       		.uleb128 0x26
 1952 09c4 6D736700 		.ascii	"msg\000"
 1953 09c8 01       		.byte	0x1
 1954 09c9 43       		.byte	0x43
 1955 09ca 09       		.byte	0x9
 1956 09cb CC000000 		.4byte	0xcc
 1957 09cf 00       		.byte	0
 1958 09d0 11       		.uleb128 0x11
 1959 09d1 B8020000 		.4byte	.LASF75
 1960 09d5 AE0A0000 		.4byte	0xaae
 1961 09d9 0C       		.uleb128 0xc
 1962 09da FD0A0000 		.4byte	0xafd
 1963 09de 00000000 		.4byte	.LBI89
 1964 09e2 06       		.byte	.LVU16
 1965 09e3 0C000000 		.4byte	.LLRL2
 1966 09e7 47       		.byte	0x47
 1967 09e8 300A0000 		.4byte	0xa30
 1968 09ec 01       		.uleb128 0x1
 1969 09ed 330B0000 		.4byte	0xb33
 1970 09f1 00000000 		.4byte	.LBI90
 1971 09f5 08       		.byte	.LVU18
 1972 09f6 0C000000 		.4byte	.LLRL2
 1973 09fa 02       		.byte	0x2
 1974 09fb 3F02     		.2byte	0x23f
 1975 09fd 01       		.uleb128 0x1
 1976 09fe 450B0000 		.4byte	0xb45
 1977 0a02 00000000 		.4byte	.LBI91
 1978 0a06 0A       		.byte	.LVU20
 1979 0a07 0C000000 		.4byte	.LLRL2
 1980 0a0b 03       		.byte	0x3
 1981 0a0c 9901     		.2byte	0x199
 1982 0a0e 01       		.uleb128 0x1
 1983 0a0f 4E0B0000 		.4byte	0xb4e
 1984 0a13 00000000 		.4byte	.LBI92
 1985 0a17 0C       		.byte	.LVU22
 1986 0a18 0C000000 		.4byte	.LLRL2
 1987 0a1c 04       		.byte	0x4
 1988 0a1d 3F03     		.2byte	0x33f
 1989 0a1f 09       		.uleb128 0x9
 1990 0a20 580B0000 		.4byte	0xb58
 1991 0a24 35010000 		.4byte	.LLST3
 1992 0a28 33010000 		.4byte	.LVUS3
 1993 0a2c 00       		.byte	0
 1994 0a2d 00       		.byte	0
 1995 0a2e 00       		.byte	0
ARM GAS  C:\Users\DEVELO~1\AppData\Local\Temp\ccuygmoc.s 			page 36


 1996 0a2f 00       		.byte	0
 1997 0a30 0C       		.uleb128 0xc
 1998 0a31 F40A0000 		.4byte	0xaf4
 1999 0a35 16000000 		.4byte	.LBI104
 2000 0a39 02       		.byte	.LVU43
 2001 0a3a 1B000000 		.4byte	.LLRL4
 2002 0a3e 5B       		.byte	0x5b
 2003 0a3f 8D0A0000 		.4byte	0xa8d
 2004 0a43 01       		.uleb128 0x1
 2005 0a44 060B0000 		.4byte	0xb06
 2006 0a48 16000000 		.4byte	.LBI105
 2007 0a4c 04       		.byte	.LVU45
 2008 0a4d 1B000000 		.4byte	.LLRL4
 2009 0a51 02       		.byte	0x2
 2010 0a52 4A02     		.2byte	0x24a
 2011 0a54 1A       		.uleb128 0x1a
 2012 0a55 1B000000 		.4byte	.LLRL4
 2013 0a59 01       		.uleb128 0x1
 2014 0a5a 3C0B0000 		.4byte	0xb3c
 2015 0a5e 16000000 		.4byte	.LBI107
 2016 0a62 0B       		.byte	.LVU52
 2017 0a63 1B000000 		.4byte	.LLRL4
 2018 0a67 03       		.byte	0x3
 2019 0a68 B201     		.2byte	0x1b2
 2020 0a6a 01       		.uleb128 0x1
 2021 0a6b 4E0B0000 		.4byte	0xb4e
 2022 0a6f 16000000 		.4byte	.LBI108
 2023 0a73 0D       		.byte	.LVU54
 2024 0a74 1B000000 		.4byte	.LLRL4
 2025 0a78 04       		.byte	0x4
 2026 0a79 5203     		.2byte	0x352
 2027 0a7b 09       		.uleb128 0x9
 2028 0a7c 580B0000 		.4byte	0xb58
 2029 0a80 42010000 		.4byte	.LLST5
 2030 0a84 40010000 		.4byte	.LVUS5
 2031 0a88 00       		.byte	0
 2032 0a89 00       		.byte	0
 2033 0a8a 00       		.byte	0
 2034 0a8b 00       		.byte	0
 2035 0a8c 00       		.byte	0
 2036 0a8d 16       		.uleb128 0x16
 2037 0a8e 10000000 		.4byte	.LVL4
 2038 0a92 DE040000 		.4byte	0x4de
 2039 0a96 0D       		.uleb128 0xd
 2040 0a97 01       		.uleb128 0x1
 2041 0a98 50       		.byte	0x50
 2042 0a99 02       		.uleb128 0x2
 2043 0a9a 74       		.byte	0x74
 2044 0a9b 00       		.sleb128 0
 2045 0a9c 00       		.byte	0
 2046 0a9d 00       		.byte	0
 2047 0a9e 0E       		.uleb128 0xe
 2048 0a9f DF000000 		.4byte	0xdf
 2049 0aa3 AE0A0000 		.4byte	0xaae
 2050 0aa7 0F       		.uleb128 0xf
 2051 0aa8 39000000 		.4byte	0x39
 2052 0aac 08       		.byte	0x8
ARM GAS  C:\Users\DEVELO~1\AppData\Local\Temp\ccuygmoc.s 			page 37


 2053 0aad 00       		.byte	0
 2054 0aae 0A       		.uleb128 0xa
 2055 0aaf 9E0A0000 		.4byte	0xa9e
 2056 0ab3 10       		.uleb128 0x10
 2057 0ab4 E1030000 		.4byte	.LASF78
 2058 0ab8 33       		.byte	0x33
 2059 0ab9 00000000 		.4byte	.LFB433
 2060 0abd 0A000000 		.4byte	.LFE433-.LFB433
 2061 0ac1 01       		.uleb128 0x1
 2062 0ac2 9C       		.byte	0x9c
 2063 0ac3 D60A0000 		.4byte	0xad6
 2064 0ac7 27       		.uleb128 0x27
 2065 0ac8 D6010000 		.4byte	.LASF74
 2066 0acc 01       		.byte	0x1
 2067 0acd 33       		.byte	0x33
 2068 0ace 1F       		.byte	0x1f
 2069 0acf 71040000 		.4byte	0x471
 2070 0ad3 01       		.uleb128 0x1
 2071 0ad4 50       		.byte	0x50
 2072 0ad5 00       		.byte	0
 2073 0ad6 10       		.uleb128 0x10
 2074 0ad7 47040000 		.4byte	.LASF79
 2075 0adb 27       		.byte	0x27
 2076 0adc 00000000 		.4byte	.LFB432
 2077 0ae0 04000000 		.4byte	.LFE432-.LFB432
 2078 0ae4 01       		.uleb128 0x1
 2079 0ae5 9C       		.byte	0x9c
 2080 0ae6 F40A0000 		.4byte	0xaf4
 2081 0aea 28       		.uleb128 0x28
 2082 0aeb 04000000 		.4byte	.LVL0
 2083 0aef EF040000 		.4byte	0x4ef
 2084 0af3 00       		.byte	0
 2085 0af4 17       		.uleb128 0x17
 2086 0af5 95000000 		.4byte	.LASF80
 2087 0af9 02       		.byte	0x2
 2088 0afa 4802     		.2byte	0x248
 2089 0afc 14       		.byte	0x14
 2090 0afd 17       		.uleb128 0x17
 2091 0afe 8A020000 		.4byte	.LASF81
 2092 0b02 02       		.byte	0x2
 2093 0b03 3D02     		.2byte	0x23d
 2094 0b05 14       		.byte	0x14
 2095 0b06 29       		.uleb128 0x29
 2096 0b07 67040000 		.4byte	.LASF90
 2097 0b0b 03       		.byte	0x3
 2098 0b0c A501     		.2byte	0x1a5
 2099 0b0e 14       		.byte	0x14
 2100 0b0f 03       		.byte	0x3
 2101 0b10 1E0B0000 		.4byte	0xb1e
 2102 0b14 11       		.uleb128 0x11
 2103 0b15 B8020000 		.4byte	.LASF75
 2104 0b19 2E0B0000 		.4byte	0xb2e
 2105 0b1d 00       		.byte	0
 2106 0b1e 0E       		.uleb128 0xe
 2107 0b1f DF000000 		.4byte	0xdf
 2108 0b23 2E0B0000 		.4byte	0xb2e
 2109 0b27 0F       		.uleb128 0xf
ARM GAS  C:\Users\DEVELO~1\AppData\Local\Temp\ccuygmoc.s 			page 38


 2110 0b28 39000000 		.4byte	0x39
 2111 0b2c 0B       		.byte	0xb
 2112 0b2d 00       		.byte	0
 2113 0b2e 0A       		.uleb128 0xa
 2114 0b2f 1E0B0000 		.4byte	0xb1e
 2115 0b33 17       		.uleb128 0x17
 2116 0b34 C8000000 		.4byte	.LASF82
 2117 0b38 03       		.byte	0x3
 2118 0b39 9701     		.2byte	0x197
 2119 0b3b 14       		.byte	0x14
 2120 0b3c 17       		.uleb128 0x17
 2121 0b3d F5030000 		.4byte	.LASF83
 2122 0b41 04       		.byte	0x4
 2123 0b42 4F03     		.2byte	0x34f
 2124 0b44 1B       		.byte	0x1b
 2125 0b45 17       		.uleb128 0x17
 2126 0b46 01040000 		.4byte	.LASF84
 2127 0b4a 04       		.byte	0x4
 2128 0b4b 3703     		.2byte	0x337
 2129 0b4d 1B       		.byte	0x1b
 2130 0b4e 2A       		.uleb128 0x2a
 2131 0b4f 92040000 		.4byte	.LASF91
 2132 0b53 05       		.byte	0x5
 2133 0b54 EB01     		.2byte	0x1eb
 2134 0b56 1B       		.byte	0x1b
 2135 0b57 03       		.byte	0x3
 2136 0b58 2B       		.uleb128 0x2b
 2137 0b59 B8030000 		.4byte	.LASF92
 2138 0b5d 05       		.byte	0x5
 2139 0b5e EB01     		.2byte	0x1eb
 2140 0b60 32       		.byte	0x32
 2141 0b61 BB000000 		.4byte	0xbb
 2142 0b65 00       		.byte	0
 2143 0b66 00       		.byte	0
 2144              		.section	.debug_abbrev,"",%progbits
 2145              	.Ldebug_abbrev0:
 2146 0000 01       		.uleb128 0x1
 2147 0001 1D       		.uleb128 0x1d
 2148 0002 01       		.byte	0x1
 2149 0003 31       		.uleb128 0x31
 2150 0004 13       		.uleb128 0x13
 2151 0005 52       		.uleb128 0x52
 2152 0006 01       		.uleb128 0x1
 2153 0007 B842     		.uleb128 0x2138
 2154 0009 0B       		.uleb128 0xb
 2155 000a 55       		.uleb128 0x55
 2156 000b 17       		.uleb128 0x17
 2157 000c 58       		.uleb128 0x58
 2158 000d 0B       		.uleb128 0xb
 2159 000e 59       		.uleb128 0x59
 2160 000f 05       		.uleb128 0x5
 2161 0010 57       		.uleb128 0x57
 2162 0011 21       		.uleb128 0x21
 2163 0012 03       		.sleb128 3
 2164 0013 00       		.byte	0
 2165 0014 00       		.byte	0
 2166 0015 02       		.uleb128 0x2
ARM GAS  C:\Users\DEVELO~1\AppData\Local\Temp\ccuygmoc.s 			page 39


 2167 0016 0D       		.uleb128 0xd
 2168 0017 00       		.byte	0
 2169 0018 03       		.uleb128 0x3
 2170 0019 0E       		.uleb128 0xe
 2171 001a 3A       		.uleb128 0x3a
 2172 001b 21       		.uleb128 0x21
 2173 001c 0C       		.sleb128 12
 2174 001d 3B       		.uleb128 0x3b
 2175 001e 0B       		.uleb128 0xb
 2176 001f 39       		.uleb128 0x39
 2177 0020 0B       		.uleb128 0xb
 2178 0021 49       		.uleb128 0x49
 2179 0022 13       		.uleb128 0x13
 2180 0023 38       		.uleb128 0x38
 2181 0024 0B       		.uleb128 0xb
 2182 0025 00       		.byte	0
 2183 0026 00       		.byte	0
 2184 0027 03       		.uleb128 0x3
 2185 0028 0D       		.uleb128 0xd
 2186 0029 00       		.byte	0
 2187 002a 03       		.uleb128 0x3
 2188 002b 0E       		.uleb128 0xe
 2189 002c 3A       		.uleb128 0x3a
 2190 002d 0B       		.uleb128 0xb
 2191 002e 3B       		.uleb128 0x3b
 2192 002f 05       		.uleb128 0x5
 2193 0030 39       		.uleb128 0x39
 2194 0031 0B       		.uleb128 0xb
 2195 0032 49       		.uleb128 0x49
 2196 0033 13       		.uleb128 0x13
 2197 0034 38       		.uleb128 0x38
 2198 0035 0B       		.uleb128 0xb
 2199 0036 00       		.byte	0
 2200 0037 00       		.byte	0
 2201 0038 04       		.uleb128 0x4
 2202 0039 16       		.uleb128 0x16
 2203 003a 00       		.byte	0
 2204 003b 03       		.uleb128 0x3
 2205 003c 0E       		.uleb128 0xe
 2206 003d 3A       		.uleb128 0x3a
 2207 003e 0B       		.uleb128 0xb
 2208 003f 3B       		.uleb128 0x3b
 2209 0040 0B       		.uleb128 0xb
 2210 0041 39       		.uleb128 0x39
 2211 0042 0B       		.uleb128 0xb
 2212 0043 49       		.uleb128 0x49
 2213 0044 13       		.uleb128 0x13
 2214 0045 00       		.byte	0
 2215 0046 00       		.byte	0
 2216 0047 05       		.uleb128 0x5
 2217 0048 24       		.uleb128 0x24
 2218 0049 00       		.byte	0
 2219 004a 0B       		.uleb128 0xb
 2220 004b 0B       		.uleb128 0xb
 2221 004c 3E       		.uleb128 0x3e
 2222 004d 0B       		.uleb128 0xb
 2223 004e 03       		.uleb128 0x3
ARM GAS  C:\Users\DEVELO~1\AppData\Local\Temp\ccuygmoc.s 			page 40


 2224 004f 0E       		.uleb128 0xe
 2225 0050 00       		.byte	0
 2226 0051 00       		.byte	0
 2227 0052 06       		.uleb128 0x6
 2228 0053 0D       		.uleb128 0xd
 2229 0054 00       		.byte	0
 2230 0055 03       		.uleb128 0x3
 2231 0056 08       		.uleb128 0x8
 2232 0057 3A       		.uleb128 0x3a
 2233 0058 0B       		.uleb128 0xb
 2234 0059 3B       		.uleb128 0x3b
 2235 005a 05       		.uleb128 0x5
 2236 005b 39       		.uleb128 0x39
 2237 005c 0B       		.uleb128 0xb
 2238 005d 49       		.uleb128 0x49
 2239 005e 13       		.uleb128 0x13
 2240 005f 38       		.uleb128 0x38
 2241 0060 0B       		.uleb128 0xb
 2242 0061 00       		.byte	0
 2243 0062 00       		.byte	0
 2244 0063 07       		.uleb128 0x7
 2245 0064 0F       		.uleb128 0xf
 2246 0065 00       		.byte	0
 2247 0066 0B       		.uleb128 0xb
 2248 0067 21       		.uleb128 0x21
 2249 0068 04       		.sleb128 4
 2250 0069 49       		.uleb128 0x49
 2251 006a 13       		.uleb128 0x13
 2252 006b 00       		.byte	0
 2253 006c 00       		.byte	0
 2254 006d 08       		.uleb128 0x8
 2255 006e 05       		.uleb128 0x5
 2256 006f 00       		.byte	0
 2257 0070 49       		.uleb128 0x49
 2258 0071 13       		.uleb128 0x13
 2259 0072 00       		.byte	0
 2260 0073 00       		.byte	0
 2261 0074 09       		.uleb128 0x9
 2262 0075 05       		.uleb128 0x5
 2263 0076 00       		.byte	0
 2264 0077 31       		.uleb128 0x31
 2265 0078 13       		.uleb128 0x13
 2266 0079 02       		.uleb128 0x2
 2267 007a 17       		.uleb128 0x17
 2268 007b B742     		.uleb128 0x2137
 2269 007d 17       		.uleb128 0x17
 2270 007e 00       		.byte	0
 2271 007f 00       		.byte	0
 2272 0080 0A       		.uleb128 0xa
 2273 0081 26       		.uleb128 0x26
 2274 0082 00       		.byte	0
 2275 0083 49       		.uleb128 0x49
 2276 0084 13       		.uleb128 0x13
 2277 0085 00       		.byte	0
 2278 0086 00       		.byte	0
 2279 0087 0B       		.uleb128 0xb
 2280 0088 05       		.uleb128 0x5
ARM GAS  C:\Users\DEVELO~1\AppData\Local\Temp\ccuygmoc.s 			page 41


 2281 0089 00       		.byte	0
 2282 008a 03       		.uleb128 0x3
 2283 008b 0E       		.uleb128 0xe
 2284 008c 3A       		.uleb128 0x3a
 2285 008d 21       		.uleb128 0x21
 2286 008e 01       		.sleb128 1
 2287 008f 3B       		.uleb128 0x3b
 2288 0090 0B       		.uleb128 0xb
 2289 0091 39       		.uleb128 0x39
 2290 0092 0B       		.uleb128 0xb
 2291 0093 49       		.uleb128 0x49
 2292 0094 13       		.uleb128 0x13
 2293 0095 02       		.uleb128 0x2
 2294 0096 17       		.uleb128 0x17
 2295 0097 B742     		.uleb128 0x2137
 2296 0099 17       		.uleb128 0x17
 2297 009a 00       		.byte	0
 2298 009b 00       		.byte	0
 2299 009c 0C       		.uleb128 0xc
 2300 009d 1D       		.uleb128 0x1d
 2301 009e 01       		.byte	0x1
 2302 009f 31       		.uleb128 0x31
 2303 00a0 13       		.uleb128 0x13
 2304 00a1 52       		.uleb128 0x52
 2305 00a2 01       		.uleb128 0x1
 2306 00a3 B842     		.uleb128 0x2138
 2307 00a5 0B       		.uleb128 0xb
 2308 00a6 55       		.uleb128 0x55
 2309 00a7 17       		.uleb128 0x17
 2310 00a8 58       		.uleb128 0x58
 2311 00a9 21       		.uleb128 0x21
 2312 00aa 01       		.sleb128 1
 2313 00ab 59       		.uleb128 0x59
 2314 00ac 0B       		.uleb128 0xb
 2315 00ad 57       		.uleb128 0x57
 2316 00ae 21       		.uleb128 0x21
 2317 00af 03       		.sleb128 3
 2318 00b0 01       		.uleb128 0x1
 2319 00b1 13       		.uleb128 0x13
 2320 00b2 00       		.byte	0
 2321 00b3 00       		.byte	0
 2322 00b4 0D       		.uleb128 0xd
 2323 00b5 49       		.uleb128 0x49
 2324 00b6 00       		.byte	0
 2325 00b7 02       		.uleb128 0x2
 2326 00b8 18       		.uleb128 0x18
 2327 00b9 7E       		.uleb128 0x7e
 2328 00ba 18       		.uleb128 0x18
 2329 00bb 00       		.byte	0
 2330 00bc 00       		.byte	0
 2331 00bd 0E       		.uleb128 0xe
 2332 00be 01       		.uleb128 0x1
 2333 00bf 01       		.byte	0x1
 2334 00c0 49       		.uleb128 0x49
 2335 00c1 13       		.uleb128 0x13
 2336 00c2 01       		.uleb128 0x1
 2337 00c3 13       		.uleb128 0x13
ARM GAS  C:\Users\DEVELO~1\AppData\Local\Temp\ccuygmoc.s 			page 42


 2338 00c4 00       		.byte	0
 2339 00c5 00       		.byte	0
 2340 00c6 0F       		.uleb128 0xf
 2341 00c7 21       		.uleb128 0x21
 2342 00c8 00       		.byte	0
 2343 00c9 49       		.uleb128 0x49
 2344 00ca 13       		.uleb128 0x13
 2345 00cb 2F       		.uleb128 0x2f
 2346 00cc 0B       		.uleb128 0xb
 2347 00cd 00       		.byte	0
 2348 00ce 00       		.byte	0
 2349 00cf 10       		.uleb128 0x10
 2350 00d0 2E       		.uleb128 0x2e
 2351 00d1 01       		.byte	0x1
 2352 00d2 3F       		.uleb128 0x3f
 2353 00d3 19       		.uleb128 0x19
 2354 00d4 03       		.uleb128 0x3
 2355 00d5 0E       		.uleb128 0xe
 2356 00d6 3A       		.uleb128 0x3a
 2357 00d7 21       		.uleb128 0x21
 2358 00d8 01       		.sleb128 1
 2359 00d9 3B       		.uleb128 0x3b
 2360 00da 0B       		.uleb128 0xb
 2361 00db 39       		.uleb128 0x39
 2362 00dc 21       		.uleb128 0x21
 2363 00dd 06       		.sleb128 6
 2364 00de 27       		.uleb128 0x27
 2365 00df 19       		.uleb128 0x19
 2366 00e0 11       		.uleb128 0x11
 2367 00e1 01       		.uleb128 0x1
 2368 00e2 12       		.uleb128 0x12
 2369 00e3 06       		.uleb128 0x6
 2370 00e4 40       		.uleb128 0x40
 2371 00e5 18       		.uleb128 0x18
 2372 00e6 7A       		.uleb128 0x7a
 2373 00e7 19       		.uleb128 0x19
 2374 00e8 01       		.uleb128 0x1
 2375 00e9 13       		.uleb128 0x13
 2376 00ea 00       		.byte	0
 2377 00eb 00       		.byte	0
 2378 00ec 11       		.uleb128 0x11
 2379 00ed 34       		.uleb128 0x34
 2380 00ee 00       		.byte	0
 2381 00ef 03       		.uleb128 0x3
 2382 00f0 0E       		.uleb128 0xe
 2383 00f1 49       		.uleb128 0x49
 2384 00f2 13       		.uleb128 0x13
 2385 00f3 34       		.uleb128 0x34
 2386 00f4 19       		.uleb128 0x19
 2387 00f5 00       		.byte	0
 2388 00f6 00       		.byte	0
 2389 00f7 12       		.uleb128 0x12
 2390 00f8 1D       		.uleb128 0x1d
 2391 00f9 01       		.byte	0x1
 2392 00fa 31       		.uleb128 0x31
 2393 00fb 13       		.uleb128 0x13
 2394 00fc 52       		.uleb128 0x52
ARM GAS  C:\Users\DEVELO~1\AppData\Local\Temp\ccuygmoc.s 			page 43


 2395 00fd 01       		.uleb128 0x1
 2396 00fe B842     		.uleb128 0x2138
 2397 0100 0B       		.uleb128 0xb
 2398 0101 11       		.uleb128 0x11
 2399 0102 01       		.uleb128 0x1
 2400 0103 12       		.uleb128 0x12
 2401 0104 06       		.uleb128 0x6
 2402 0105 58       		.uleb128 0x58
 2403 0106 0B       		.uleb128 0xb
 2404 0107 59       		.uleb128 0x59
 2405 0108 05       		.uleb128 0x5
 2406 0109 57       		.uleb128 0x57
 2407 010a 21       		.uleb128 0x21
 2408 010b 03       		.sleb128 3
 2409 010c 00       		.byte	0
 2410 010d 00       		.byte	0
 2411 010e 13       		.uleb128 0x13
 2412 010f 13       		.uleb128 0x13
 2413 0110 01       		.byte	0x1
 2414 0111 0B       		.uleb128 0xb
 2415 0112 0B       		.uleb128 0xb
 2416 0113 3A       		.uleb128 0x3a
 2417 0114 0B       		.uleb128 0xb
 2418 0115 3B       		.uleb128 0x3b
 2419 0116 05       		.uleb128 0x5
 2420 0117 39       		.uleb128 0x39
 2421 0118 21       		.uleb128 0x21
 2422 0119 09       		.sleb128 9
 2423 011a 01       		.uleb128 0x1
 2424 011b 13       		.uleb128 0x13
 2425 011c 00       		.byte	0
 2426 011d 00       		.byte	0
 2427 011e 14       		.uleb128 0x14
 2428 011f 16       		.uleb128 0x16
 2429 0120 00       		.byte	0
 2430 0121 03       		.uleb128 0x3
 2431 0122 0E       		.uleb128 0xe
 2432 0123 3A       		.uleb128 0x3a
 2433 0124 0B       		.uleb128 0xb
 2434 0125 3B       		.uleb128 0x3b
 2435 0126 05       		.uleb128 0x5
 2436 0127 39       		.uleb128 0x39
 2437 0128 0B       		.uleb128 0xb
 2438 0129 49       		.uleb128 0x49
 2439 012a 13       		.uleb128 0x13
 2440 012b 00       		.byte	0
 2441 012c 00       		.byte	0
 2442 012d 15       		.uleb128 0x15
 2443 012e 2E       		.uleb128 0x2e
 2444 012f 01       		.byte	0x1
 2445 0130 3F       		.uleb128 0x3f
 2446 0131 19       		.uleb128 0x19
 2447 0132 03       		.uleb128 0x3
 2448 0133 0E       		.uleb128 0xe
 2449 0134 3A       		.uleb128 0x3a
 2450 0135 21       		.uleb128 0x21
 2451 0136 0D       		.sleb128 13
ARM GAS  C:\Users\DEVELO~1\AppData\Local\Temp\ccuygmoc.s 			page 44


 2452 0137 3B       		.uleb128 0x3b
 2453 0138 05       		.uleb128 0x5
 2454 0139 39       		.uleb128 0x39
 2455 013a 21       		.uleb128 0x21
 2456 013b 08       		.sleb128 8
 2457 013c 27       		.uleb128 0x27
 2458 013d 19       		.uleb128 0x19
 2459 013e 3C       		.uleb128 0x3c
 2460 013f 19       		.uleb128 0x19
 2461 0140 01       		.uleb128 0x1
 2462 0141 13       		.uleb128 0x13
 2463 0142 00       		.byte	0
 2464 0143 00       		.byte	0
 2465 0144 16       		.uleb128 0x16
 2466 0145 48       		.uleb128 0x48
 2467 0146 01       		.byte	0x1
 2468 0147 7D       		.uleb128 0x7d
 2469 0148 01       		.uleb128 0x1
 2470 0149 7F       		.uleb128 0x7f
 2471 014a 13       		.uleb128 0x13
 2472 014b 00       		.byte	0
 2473 014c 00       		.byte	0
 2474 014d 17       		.uleb128 0x17
 2475 014e 2E       		.uleb128 0x2e
 2476 014f 00       		.byte	0
 2477 0150 03       		.uleb128 0x3
 2478 0151 0E       		.uleb128 0xe
 2479 0152 3A       		.uleb128 0x3a
 2480 0153 0B       		.uleb128 0xb
 2481 0154 3B       		.uleb128 0x3b
 2482 0155 05       		.uleb128 0x5
 2483 0156 39       		.uleb128 0x39
 2484 0157 0B       		.uleb128 0xb
 2485 0158 27       		.uleb128 0x27
 2486 0159 19       		.uleb128 0x19
 2487 015a 20       		.uleb128 0x20
 2488 015b 21       		.uleb128 0x21
 2489 015c 03       		.sleb128 3
 2490 015d 00       		.byte	0
 2491 015e 00       		.byte	0
 2492 015f 18       		.uleb128 0x18
 2493 0160 28       		.uleb128 0x28
 2494 0161 00       		.byte	0
 2495 0162 03       		.uleb128 0x3
 2496 0163 0E       		.uleb128 0xe
 2497 0164 1C       		.uleb128 0x1c
 2498 0165 0B       		.uleb128 0xb
 2499 0166 00       		.byte	0
 2500 0167 00       		.byte	0
 2501 0168 19       		.uleb128 0x19
 2502 0169 0D       		.uleb128 0xd
 2503 016a 00       		.byte	0
 2504 016b 03       		.uleb128 0x3
 2505 016c 08       		.uleb128 0x8
 2506 016d 3A       		.uleb128 0x3a
 2507 016e 21       		.uleb128 0x21
 2508 016f 0C       		.sleb128 12
ARM GAS  C:\Users\DEVELO~1\AppData\Local\Temp\ccuygmoc.s 			page 45


 2509 0170 3B       		.uleb128 0x3b
 2510 0171 0B       		.uleb128 0xb
 2511 0172 39       		.uleb128 0x39
 2512 0173 21       		.uleb128 0x21
 2513 0174 03       		.sleb128 3
 2514 0175 49       		.uleb128 0x49
 2515 0176 13       		.uleb128 0x13
 2516 0177 38       		.uleb128 0x38
 2517 0178 0B       		.uleb128 0xb
 2518 0179 00       		.byte	0
 2519 017a 00       		.byte	0
 2520 017b 1A       		.uleb128 0x1a
 2521 017c 0B       		.uleb128 0xb
 2522 017d 01       		.byte	0x1
 2523 017e 55       		.uleb128 0x55
 2524 017f 17       		.uleb128 0x17
 2525 0180 00       		.byte	0
 2526 0181 00       		.byte	0
 2527 0182 1B       		.uleb128 0x1b
 2528 0183 13       		.uleb128 0x13
 2529 0184 01       		.byte	0x1
 2530 0185 03       		.uleb128 0x3
 2531 0186 0E       		.uleb128 0xe
 2532 0187 0B       		.uleb128 0xb
 2533 0188 0B       		.uleb128 0xb
 2534 0189 3A       		.uleb128 0x3a
 2535 018a 21       		.uleb128 0x21
 2536 018b 0C       		.sleb128 12
 2537 018c 3B       		.uleb128 0x3b
 2538 018d 0B       		.uleb128 0xb
 2539 018e 39       		.uleb128 0x39
 2540 018f 21       		.uleb128 0x21
 2541 0190 08       		.sleb128 8
 2542 0191 01       		.uleb128 0x1
 2543 0192 13       		.uleb128 0x13
 2544 0193 00       		.byte	0
 2545 0194 00       		.byte	0
 2546 0195 1C       		.uleb128 0x1c
 2547 0196 1D       		.uleb128 0x1d
 2548 0197 01       		.byte	0x1
 2549 0198 31       		.uleb128 0x31
 2550 0199 13       		.uleb128 0x13
 2551 019a 52       		.uleb128 0x52
 2552 019b 01       		.uleb128 0x1
 2553 019c B842     		.uleb128 0x2138
 2554 019e 0B       		.uleb128 0xb
 2555 019f 11       		.uleb128 0x11
 2556 01a0 01       		.uleb128 0x1
 2557 01a1 12       		.uleb128 0x12
 2558 01a2 06       		.uleb128 0x6
 2559 01a3 58       		.uleb128 0x58
 2560 01a4 21       		.uleb128 0x21
 2561 01a5 01       		.sleb128 1
 2562 01a6 59       		.uleb128 0x59
 2563 01a7 0B       		.uleb128 0xb
 2564 01a8 57       		.uleb128 0x57
 2565 01a9 21       		.uleb128 0x21
ARM GAS  C:\Users\DEVELO~1\AppData\Local\Temp\ccuygmoc.s 			page 46


 2566 01aa 03       		.sleb128 3
 2567 01ab 01       		.uleb128 0x1
 2568 01ac 13       		.uleb128 0x13
 2569 01ad 00       		.byte	0
 2570 01ae 00       		.byte	0
 2571 01af 1D       		.uleb128 0x1d
 2572 01b0 11       		.uleb128 0x11
 2573 01b1 01       		.byte	0x1
 2574 01b2 25       		.uleb128 0x25
 2575 01b3 0E       		.uleb128 0xe
 2576 01b4 13       		.uleb128 0x13
 2577 01b5 0B       		.uleb128 0xb
 2578 01b6 03       		.uleb128 0x3
 2579 01b7 0E       		.uleb128 0xe
 2580 01b8 1B       		.uleb128 0x1b
 2581 01b9 0E       		.uleb128 0xe
 2582 01ba 55       		.uleb128 0x55
 2583 01bb 17       		.uleb128 0x17
 2584 01bc 11       		.uleb128 0x11
 2585 01bd 01       		.uleb128 0x1
 2586 01be 10       		.uleb128 0x10
 2587 01bf 17       		.uleb128 0x17
 2588 01c0 00       		.byte	0
 2589 01c1 00       		.byte	0
 2590 01c2 1E       		.uleb128 0x1e
 2591 01c3 24       		.uleb128 0x24
 2592 01c4 00       		.byte	0
 2593 01c5 0B       		.uleb128 0xb
 2594 01c6 0B       		.uleb128 0xb
 2595 01c7 3E       		.uleb128 0x3e
 2596 01c8 0B       		.uleb128 0xb
 2597 01c9 03       		.uleb128 0x3
 2598 01ca 08       		.uleb128 0x8
 2599 01cb 00       		.byte	0
 2600 01cc 00       		.byte	0
 2601 01cd 1F       		.uleb128 0x1f
 2602 01ce 35       		.uleb128 0x35
 2603 01cf 00       		.byte	0
 2604 01d0 49       		.uleb128 0x49
 2605 01d1 13       		.uleb128 0x13
 2606 01d2 00       		.byte	0
 2607 01d3 00       		.byte	0
 2608 01d4 20       		.uleb128 0x20
 2609 01d5 0F       		.uleb128 0xf
 2610 01d6 00       		.byte	0
 2611 01d7 0B       		.uleb128 0xb
 2612 01d8 0B       		.uleb128 0xb
 2613 01d9 00       		.byte	0
 2614 01da 00       		.byte	0
 2615 01db 21       		.uleb128 0x21
 2616 01dc 04       		.uleb128 0x4
 2617 01dd 01       		.byte	0x1
 2618 01de 3E       		.uleb128 0x3e
 2619 01df 0B       		.uleb128 0xb
 2620 01e0 0B       		.uleb128 0xb
 2621 01e1 0B       		.uleb128 0xb
 2622 01e2 49       		.uleb128 0x49
ARM GAS  C:\Users\DEVELO~1\AppData\Local\Temp\ccuygmoc.s 			page 47


 2623 01e3 13       		.uleb128 0x13
 2624 01e4 3A       		.uleb128 0x3a
 2625 01e5 0B       		.uleb128 0xb
 2626 01e6 3B       		.uleb128 0x3b
 2627 01e7 0B       		.uleb128 0xb
 2628 01e8 39       		.uleb128 0x39
 2629 01e9 0B       		.uleb128 0xb
 2630 01ea 01       		.uleb128 0x1
 2631 01eb 13       		.uleb128 0x13
 2632 01ec 00       		.byte	0
 2633 01ed 00       		.byte	0
 2634 01ee 22       		.uleb128 0x22
 2635 01ef 15       		.uleb128 0x15
 2636 01f0 01       		.byte	0x1
 2637 01f1 27       		.uleb128 0x27
 2638 01f2 19       		.uleb128 0x19
 2639 01f3 01       		.uleb128 0x1
 2640 01f4 13       		.uleb128 0x13
 2641 01f5 00       		.byte	0
 2642 01f6 00       		.byte	0
 2643 01f7 23       		.uleb128 0x23
 2644 01f8 26       		.uleb128 0x26
 2645 01f9 00       		.byte	0
 2646 01fa 00       		.byte	0
 2647 01fb 00       		.byte	0
 2648 01fc 24       		.uleb128 0x24
 2649 01fd 2E       		.uleb128 0x2e
 2650 01fe 00       		.byte	0
 2651 01ff 3F       		.uleb128 0x3f
 2652 0200 19       		.uleb128 0x19
 2653 0201 03       		.uleb128 0x3
 2654 0202 0E       		.uleb128 0xe
 2655 0203 3A       		.uleb128 0x3a
 2656 0204 0B       		.uleb128 0xb
 2657 0205 3B       		.uleb128 0x3b
 2658 0206 05       		.uleb128 0x5
 2659 0207 39       		.uleb128 0x39
 2660 0208 0B       		.uleb128 0xb
 2661 0209 27       		.uleb128 0x27
 2662 020a 19       		.uleb128 0x19
 2663 020b 3C       		.uleb128 0x3c
 2664 020c 19       		.uleb128 0x19
 2665 020d 00       		.byte	0
 2666 020e 00       		.byte	0
 2667 020f 25       		.uleb128 0x25
 2668 0210 2E       		.uleb128 0x2e
 2669 0211 01       		.byte	0x1
 2670 0212 3F       		.uleb128 0x3f
 2671 0213 19       		.uleb128 0x19
 2672 0214 03       		.uleb128 0x3
 2673 0215 0E       		.uleb128 0xe
 2674 0216 3A       		.uleb128 0x3a
 2675 0217 0B       		.uleb128 0xb
 2676 0218 3B       		.uleb128 0x3b
 2677 0219 0B       		.uleb128 0xb
 2678 021a 39       		.uleb128 0x39
 2679 021b 0B       		.uleb128 0xb
ARM GAS  C:\Users\DEVELO~1\AppData\Local\Temp\ccuygmoc.s 			page 48


 2680 021c 27       		.uleb128 0x27
 2681 021d 19       		.uleb128 0x19
 2682 021e 49       		.uleb128 0x49
 2683 021f 13       		.uleb128 0x13
 2684 0220 11       		.uleb128 0x11
 2685 0221 01       		.uleb128 0x1
 2686 0222 12       		.uleb128 0x12
 2687 0223 06       		.uleb128 0x6
 2688 0224 40       		.uleb128 0x40
 2689 0225 18       		.uleb128 0x18
 2690 0226 7A       		.uleb128 0x7a
 2691 0227 19       		.uleb128 0x19
 2692 0228 01       		.uleb128 0x1
 2693 0229 13       		.uleb128 0x13
 2694 022a 00       		.byte	0
 2695 022b 00       		.byte	0
 2696 022c 26       		.uleb128 0x26
 2697 022d 34       		.uleb128 0x34
 2698 022e 00       		.byte	0
 2699 022f 03       		.uleb128 0x3
 2700 0230 08       		.uleb128 0x8
 2701 0231 3A       		.uleb128 0x3a
 2702 0232 0B       		.uleb128 0xb
 2703 0233 3B       		.uleb128 0x3b
 2704 0234 0B       		.uleb128 0xb
 2705 0235 39       		.uleb128 0x39
 2706 0236 0B       		.uleb128 0xb
 2707 0237 49       		.uleb128 0x49
 2708 0238 13       		.uleb128 0x13
 2709 0239 1C       		.uleb128 0x1c
 2710 023a 0B       		.uleb128 0xb
 2711 023b 00       		.byte	0
 2712 023c 00       		.byte	0
 2713 023d 27       		.uleb128 0x27
 2714 023e 05       		.uleb128 0x5
 2715 023f 00       		.byte	0
 2716 0240 03       		.uleb128 0x3
 2717 0241 0E       		.uleb128 0xe
 2718 0242 3A       		.uleb128 0x3a
 2719 0243 0B       		.uleb128 0xb
 2720 0244 3B       		.uleb128 0x3b
 2721 0245 0B       		.uleb128 0xb
 2722 0246 39       		.uleb128 0x39
 2723 0247 0B       		.uleb128 0xb
 2724 0248 49       		.uleb128 0x49
 2725 0249 13       		.uleb128 0x13
 2726 024a 02       		.uleb128 0x2
 2727 024b 18       		.uleb128 0x18
 2728 024c 00       		.byte	0
 2729 024d 00       		.byte	0
 2730 024e 28       		.uleb128 0x28
 2731 024f 48       		.uleb128 0x48
 2732 0250 00       		.byte	0
 2733 0251 7D       		.uleb128 0x7d
 2734 0252 01       		.uleb128 0x1
 2735 0253 8201     		.uleb128 0x82
 2736 0255 19       		.uleb128 0x19
ARM GAS  C:\Users\DEVELO~1\AppData\Local\Temp\ccuygmoc.s 			page 49


 2737 0256 7F       		.uleb128 0x7f
 2738 0257 13       		.uleb128 0x13
 2739 0258 00       		.byte	0
 2740 0259 00       		.byte	0
 2741 025a 29       		.uleb128 0x29
 2742 025b 2E       		.uleb128 0x2e
 2743 025c 01       		.byte	0x1
 2744 025d 03       		.uleb128 0x3
 2745 025e 0E       		.uleb128 0xe
 2746 025f 3A       		.uleb128 0x3a
 2747 0260 0B       		.uleb128 0xb
 2748 0261 3B       		.uleb128 0x3b
 2749 0262 05       		.uleb128 0x5
 2750 0263 39       		.uleb128 0x39
 2751 0264 0B       		.uleb128 0xb
 2752 0265 27       		.uleb128 0x27
 2753 0266 19       		.uleb128 0x19
 2754 0267 20       		.uleb128 0x20
 2755 0268 0B       		.uleb128 0xb
 2756 0269 01       		.uleb128 0x1
 2757 026a 13       		.uleb128 0x13
 2758 026b 00       		.byte	0
 2759 026c 00       		.byte	0
 2760 026d 2A       		.uleb128 0x2a
 2761 026e 2E       		.uleb128 0x2e
 2762 026f 01       		.byte	0x1
 2763 0270 03       		.uleb128 0x3
 2764 0271 0E       		.uleb128 0xe
 2765 0272 3A       		.uleb128 0x3a
 2766 0273 0B       		.uleb128 0xb
 2767 0274 3B       		.uleb128 0x3b
 2768 0275 05       		.uleb128 0x5
 2769 0276 39       		.uleb128 0x39
 2770 0277 0B       		.uleb128 0xb
 2771 0278 27       		.uleb128 0x27
 2772 0279 19       		.uleb128 0x19
 2773 027a 20       		.uleb128 0x20
 2774 027b 0B       		.uleb128 0xb
 2775 027c 00       		.byte	0
 2776 027d 00       		.byte	0
 2777 027e 2B       		.uleb128 0x2b
 2778 027f 05       		.uleb128 0x5
 2779 0280 00       		.byte	0
 2780 0281 03       		.uleb128 0x3
 2781 0282 0E       		.uleb128 0xe
 2782 0283 3A       		.uleb128 0x3a
 2783 0284 0B       		.uleb128 0xb
 2784 0285 3B       		.uleb128 0x3b
 2785 0286 05       		.uleb128 0x5
 2786 0287 39       		.uleb128 0x39
 2787 0288 0B       		.uleb128 0xb
 2788 0289 49       		.uleb128 0x49
 2789 028a 13       		.uleb128 0x13
 2790 028b 00       		.byte	0
 2791 028c 00       		.byte	0
 2792 028d 00       		.byte	0
 2793              		.section	.debug_loclists,"",%progbits
ARM GAS  C:\Users\DEVELO~1\AppData\Local\Temp\ccuygmoc.s 			page 50


 2794 0000 48010000 		.4byte	.Ldebug_loc3-.Ldebug_loc2
 2795              	.Ldebug_loc2:
 2796 0004 0500     		.2byte	0x5
 2797 0006 04       		.byte	0x4
 2798 0007 00       		.byte	0
 2799 0008 00000000 		.4byte	0
 2800              	.Ldebug_loc0:
 2801              	.LVUS22:
 2802 000c 00       		.uleb128 0
 2803 000d 00       		.uleb128 .LVU214
 2804 000e 00       		.uleb128 .LVU214
 2805 000f 00       		.uleb128 0
 2806              	.LLST22:
 2807 0010 06       		.byte	0x6
 2808 0011 00000000 		.4byte	.LVL21
 2809 0015 04       		.byte	0x4
 2810 0016 00       		.uleb128 .LVL21-.LVL21
 2811 0017 0D       		.uleb128 .LVL23-1-.LVL21
 2812 0018 01       		.uleb128 0x1
 2813 0019 50       		.byte	0x50
 2814 001a 04       		.byte	0x4
 2815 001b 0D       		.uleb128 .LVL23-1-.LVL21
 2816 001c 1A       		.uleb128 .LFE438-.LVL21
 2817 001d 01       		.uleb128 0x1
 2818 001e 54       		.byte	0x54
 2819 001f 00       		.byte	0
 2820              	.LVUS24:
 2821 0020 0B       		.uleb128 .LVU201
 2822 0021 00       		.uleb128 .LVU207
 2823              	.LLST24:
 2824 0022 08       		.byte	0x8
 2825 0023 00000000 		.4byte	.LVL21
 2826 0027 0A       		.uleb128 .LVL22-.LVL21
 2827 0028 03       		.uleb128 0x3
 2828 0029 08       		.byte	0x8
 2829 002a 30       		.byte	0x30
 2830 002b 9F       		.byte	0x9f
 2831 002c 00       		.byte	0
 2832              	.LVUS26:
 2833 002d 0D       		.uleb128 .LVU230
 2834 002e 00       		.uleb128 .LVU232
 2835              	.LLST26:
 2836 002f 08       		.byte	0x8
 2837 0030 14000000 		.4byte	.LVL24
 2838 0034 04       		.uleb128 .LVL25-.LVL24
 2839 0035 02       		.uleb128 0x2
 2840 0036 30       		.byte	0x30
 2841 0037 9F       		.byte	0x9f
 2842 0038 00       		.byte	0
 2843              	.LVUS17:
 2844 0039 00       		.uleb128 0
 2845 003a 00       		.uleb128 .LVU169
 2846 003b 00       		.uleb128 .LVU169
 2847 003c 00       		.uleb128 0
 2848              	.LLST17:
 2849 003d 06       		.byte	0x6
 2850 003e 00000000 		.4byte	.LVL16
ARM GAS  C:\Users\DEVELO~1\AppData\Local\Temp\ccuygmoc.s 			page 51


 2851 0042 04       		.byte	0x4
 2852 0043 00       		.uleb128 .LVL16-.LVL16
 2853 0044 0D       		.uleb128 .LVL18-1-.LVL16
 2854 0045 01       		.uleb128 0x1
 2855 0046 50       		.byte	0x50
 2856 0047 04       		.byte	0x4
 2857 0048 0D       		.uleb128 .LVL18-1-.LVL16
 2858 0049 1A       		.uleb128 .LFE437-.LVL16
 2859 004a 01       		.uleb128 0x1
 2860 004b 54       		.byte	0x54
 2861 004c 00       		.byte	0
 2862              	.LVUS19:
 2863 004d 0B       		.uleb128 .LVU156
 2864 004e 00       		.uleb128 .LVU162
 2865              	.LLST19:
 2866 004f 08       		.byte	0x8
 2867 0050 00000000 		.4byte	.LVL16
 2868 0054 0A       		.uleb128 .LVL17-.LVL16
 2869 0055 03       		.uleb128 0x3
 2870 0056 08       		.byte	0x8
 2871 0057 30       		.byte	0x30
 2872 0058 9F       		.byte	0x9f
 2873 0059 00       		.byte	0
 2874              	.LVUS21:
 2875 005a 0D       		.uleb128 .LVU185
 2876 005b 00       		.uleb128 .LVU187
 2877              	.LLST21:
 2878 005c 08       		.byte	0x8
 2879 005d 14000000 		.4byte	.LVL19
 2880 0061 04       		.uleb128 .LVL20-.LVL19
 2881 0062 02       		.uleb128 0x2
 2882 0063 30       		.byte	0x30
 2883 0064 9F       		.byte	0x9f
 2884 0065 00       		.byte	0
 2885              	.LVUS10:
 2886 0066 00       		.uleb128 0
 2887 0067 00       		.uleb128 .LVU129
 2888 0068 00       		.uleb128 .LVU129
 2889 0069 00       		.uleb128 0
 2890              	.LLST10:
 2891 006a 06       		.byte	0x6
 2892 006b 00000000 		.4byte	.LVL12
 2893 006f 04       		.byte	0x4
 2894 0070 00       		.uleb128 .LVL12-.LVL12
 2895 0071 0D       		.uleb128 .LVL14-1-.LVL12
 2896 0072 01       		.uleb128 0x1
 2897 0073 50       		.byte	0x50
 2898 0074 04       		.byte	0x4
 2899 0075 0D       		.uleb128 .LVL14-1-.LVL12
 2900 0076 16       		.uleb128 .LFE436-.LVL12
 2901 0077 04       		.uleb128 0x4
 2902 0078 A3       		.byte	0xa3
 2903 0079 01       		.uleb128 0x1
 2904 007a 50       		.byte	0x50
 2905 007b 9F       		.byte	0x9f
 2906 007c 00       		.byte	0
 2907              	.LVUS11:
ARM GAS  C:\Users\DEVELO~1\AppData\Local\Temp\ccuygmoc.s 			page 52


 2908 007d 00       		.uleb128 0
 2909 007e 00       		.uleb128 .LVU129
 2910 007f 00       		.uleb128 .LVU129
 2911 0080 00       		.uleb128 0
 2912              	.LLST11:
 2913 0081 06       		.byte	0x6
 2914 0082 00000000 		.4byte	.LVL12
 2915 0086 04       		.byte	0x4
 2916 0087 00       		.uleb128 .LVL12-.LVL12
 2917 0088 0D       		.uleb128 .LVL14-1-.LVL12
 2918 0089 01       		.uleb128 0x1
 2919 008a 51       		.byte	0x51
 2920 008b 04       		.byte	0x4
 2921 008c 0D       		.uleb128 .LVL14-1-.LVL12
 2922 008d 16       		.uleb128 .LFE436-.LVL12
 2923 008e 04       		.uleb128 0x4
 2924 008f A3       		.byte	0xa3
 2925 0090 01       		.uleb128 0x1
 2926 0091 51       		.byte	0x51
 2927 0092 9F       		.byte	0x9f
 2928 0093 00       		.byte	0
 2929              	.LVUS12:
 2930 0094 00       		.uleb128 0
 2931 0095 00       		.uleb128 .LVU129
 2932 0096 00       		.uleb128 .LVU129
 2933 0097 00       		.uleb128 0
 2934              	.LLST12:
 2935 0098 06       		.byte	0x6
 2936 0099 00000000 		.4byte	.LVL12
 2937 009d 04       		.byte	0x4
 2938 009e 00       		.uleb128 .LVL12-.LVL12
 2939 009f 0D       		.uleb128 .LVL14-1-.LVL12
 2940 00a0 01       		.uleb128 0x1
 2941 00a1 52       		.byte	0x52
 2942 00a2 04       		.byte	0x4
 2943 00a3 0D       		.uleb128 .LVL14-1-.LVL12
 2944 00a4 16       		.uleb128 .LFE436-.LVL12
 2945 00a5 04       		.uleb128 0x4
 2946 00a6 A3       		.byte	0xa3
 2947 00a7 01       		.uleb128 0x1
 2948 00a8 52       		.byte	0x52
 2949 00a9 9F       		.byte	0x9f
 2950 00aa 00       		.byte	0
 2951              	.LVUS13:
 2952 00ab 00       		.uleb128 0
 2953 00ac 00       		.uleb128 .LVU129
 2954 00ad 00       		.uleb128 .LVU129
 2955 00ae 00       		.uleb128 0
 2956              	.LLST13:
 2957 00af 06       		.byte	0x6
 2958 00b0 00000000 		.4byte	.LVL12
 2959 00b4 04       		.byte	0x4
 2960 00b5 00       		.uleb128 .LVL12-.LVL12
 2961 00b6 0D       		.uleb128 .LVL14-1-.LVL12
 2962 00b7 01       		.uleb128 0x1
 2963 00b8 53       		.byte	0x53
 2964 00b9 04       		.byte	0x4
ARM GAS  C:\Users\DEVELO~1\AppData\Local\Temp\ccuygmoc.s 			page 53


 2965 00ba 0D       		.uleb128 .LVL14-1-.LVL12
 2966 00bb 16       		.uleb128 .LFE436-.LVL12
 2967 00bc 04       		.uleb128 0x4
 2968 00bd A3       		.byte	0xa3
 2969 00be 01       		.uleb128 0x1
 2970 00bf 53       		.byte	0x53
 2971 00c0 9F       		.byte	0x9f
 2972 00c1 00       		.byte	0
 2973              	.LVUS15:
 2974 00c2 0B       		.uleb128 .LVU118
 2975 00c3 00       		.uleb128 .LVU122
 2976              	.LLST15:
 2977 00c4 08       		.byte	0x8
 2978 00c5 00000000 		.4byte	.LVL12
 2979 00c9 0A       		.uleb128 .LVL13-.LVL12
 2980 00ca 03       		.uleb128 0x3
 2981 00cb 08       		.byte	0x8
 2982 00cc 30       		.byte	0x30
 2983 00cd 9F       		.byte	0x9f
 2984 00ce 00       		.byte	0
 2985              	.LVUS16:
 2986 00cf 0C       		.uleb128 .LVU141
 2987 00d0 00       		.uleb128 .LVU143
 2988              	.LLST16:
 2989 00d1 08       		.byte	0x8
 2990 00d2 0E000000 		.4byte	.LVL14
 2991 00d6 06       		.uleb128 .LVL15-.LVL14
 2992 00d7 02       		.uleb128 0x2
 2993 00d8 30       		.byte	0x30
 2994 00d9 9F       		.byte	0x9f
 2995 00da 00       		.byte	0
 2996              	.LVUS6:
 2997 00db 00       		.uleb128 0
 2998 00dc 00       		.uleb128 .LVU84
 2999 00dd 00       		.uleb128 .LVU84
 3000 00de 00       		.uleb128 0
 3001              	.LLST6:
 3002 00df 06       		.byte	0x6
 3003 00e0 00000000 		.4byte	.LVL7
 3004 00e4 04       		.byte	0x4
 3005 00e5 00       		.uleb128 .LVL7-.LVL7
 3006 00e6 0D       		.uleb128 .LVL9-1-.LVL7
 3007 00e7 01       		.uleb128 0x1
 3008 00e8 50       		.byte	0x50
 3009 00e9 04       		.byte	0x4
 3010 00ea 0D       		.uleb128 .LVL9-1-.LVL7
 3011 00eb 1C       		.uleb128 .LFE435-.LVL7
 3012 00ec 01       		.uleb128 0x1
 3013 00ed 54       		.byte	0x54
 3014 00ee 00       		.byte	0
 3015              	.LVUS8:
 3016 00ef 0B       		.uleb128 .LVU71
 3017 00f0 00       		.uleb128 .LVU77
 3018              	.LLST8:
 3019 00f1 08       		.byte	0x8
 3020 00f2 00000000 		.4byte	.LVL7
 3021 00f6 0A       		.uleb128 .LVL8-.LVL7
ARM GAS  C:\Users\DEVELO~1\AppData\Local\Temp\ccuygmoc.s 			page 54


 3022 00f7 03       		.uleb128 0x3
 3023 00f8 08       		.byte	0x8
 3024 00f9 30       		.byte	0x30
 3025 00fa 9F       		.byte	0x9f
 3026 00fb 00       		.byte	0
 3027              	.LVUS9:
 3028 00fc 0C       		.uleb128 .LVU102
 3029 00fd 00       		.uleb128 .LVU104
 3030              	.LLST9:
 3031 00fe 08       		.byte	0x8
 3032 00ff 16000000 		.4byte	.LVL10
 3033 0103 04       		.uleb128 .LVL11-.LVL10
 3034 0104 02       		.uleb128 0x2
 3035 0105 30       		.byte	0x30
 3036 0106 9F       		.byte	0x9f
 3037 0107 00       		.byte	0
 3038              	.LVUS0:
 3039 0108 00       		.uleb128 0
 3040 0109 00       		.uleb128 .LVU37
 3041 010a 00       		.uleb128 .LVU37
 3042 010b 00       		.uleb128 0
 3043              	.LLST0:
 3044 010c 06       		.byte	0x6
 3045 010d 00000000 		.4byte	.LVL2
 3046 0111 04       		.byte	0x4
 3047 0112 00       		.uleb128 .LVL2-.LVL2
 3048 0113 0F       		.uleb128 .LVL4-1-.LVL2
 3049 0114 01       		.uleb128 0x1
 3050 0115 50       		.byte	0x50
 3051 0116 04       		.byte	0x4
 3052 0117 0F       		.uleb128 .LVL4-1-.LVL2
 3053 0118 1C       		.uleb128 .LFE434-.LVL2
 3054 0119 01       		.uleb128 0x1
 3055 011a 54       		.byte	0x54
 3056 011b 00       		.byte	0
 3057              	.LVUS1:
 3058 011c 00       		.uleb128 0
 3059 011d 00       		.uleb128 .LVU37
 3060 011e 00       		.uleb128 .LVU37
 3061 011f 00       		.uleb128 0
 3062              	.LLST1:
 3063 0120 06       		.byte	0x6
 3064 0121 00000000 		.4byte	.LVL2
 3065 0125 04       		.byte	0x4
 3066 0126 00       		.uleb128 .LVL2-.LVL2
 3067 0127 0F       		.uleb128 .LVL4-1-.LVL2
 3068 0128 01       		.uleb128 0x1
 3069 0129 51       		.byte	0x51
 3070 012a 04       		.byte	0x4
 3071 012b 0F       		.uleb128 .LVL4-1-.LVL2
 3072 012c 1C       		.uleb128 .LFE434-.LVL2
 3073 012d 04       		.uleb128 0x4
 3074 012e A3       		.byte	0xa3
 3075 012f 01       		.uleb128 0x1
 3076 0130 51       		.byte	0x51
 3077 0131 9F       		.byte	0x9f
 3078 0132 00       		.byte	0
ARM GAS  C:\Users\DEVELO~1\AppData\Local\Temp\ccuygmoc.s 			page 55


 3079              	.LVUS3:
 3080 0133 0C       		.uleb128 .LVU22
 3081 0134 00       		.uleb128 .LVU28
 3082              	.LLST3:
 3083 0135 08       		.byte	0x8
 3084 0136 00000000 		.4byte	.LVL2
 3085 013a 0A       		.uleb128 .LVL3-.LVL2
 3086 013b 03       		.uleb128 0x3
 3087 013c 08       		.byte	0x8
 3088 013d 30       		.byte	0x30
 3089 013e 9F       		.byte	0x9f
 3090 013f 00       		.byte	0
 3091              	.LVUS5:
 3092 0140 0D       		.uleb128 .LVU54
 3093 0141 00       		.uleb128 .LVU56
 3094              	.LLST5:
 3095 0142 08       		.byte	0x8
 3096 0143 16000000 		.4byte	.LVL5
 3097 0147 04       		.uleb128 .LVL6-.LVL5
 3098 0148 02       		.uleb128 0x2
 3099 0149 30       		.byte	0x30
 3100 014a 9F       		.byte	0x9f
 3101 014b 00       		.byte	0
 3102              	.Ldebug_loc3:
 3103              		.section	.debug_aranges,"",%progbits
 3104 0000 4C000000 		.4byte	0x4c
 3105 0004 0200     		.2byte	0x2
 3106 0006 00000000 		.4byte	.Ldebug_info0
 3107 000a 04       		.byte	0x4
 3108 000b 00       		.byte	0
 3109 000c 0000     		.2byte	0
 3110 000e 0000     		.2byte	0
 3111 0010 00000000 		.4byte	.LFB432
 3112 0014 04000000 		.4byte	.LFE432-.LFB432
 3113 0018 00000000 		.4byte	.LFB433
 3114 001c 0A000000 		.4byte	.LFE433-.LFB433
 3115 0020 00000000 		.4byte	.LFB434
 3116 0024 1C000000 		.4byte	.LFE434-.LFB434
 3117 0028 00000000 		.4byte	.LFB435
 3118 002c 1C000000 		.4byte	.LFE435-.LFB435
 3119 0030 00000000 		.4byte	.LFB436
 3120 0034 16000000 		.4byte	.LFE436-.LFB436
 3121 0038 00000000 		.4byte	.LFB437
 3122 003c 1A000000 		.4byte	.LFE437-.LFB437
 3123 0040 00000000 		.4byte	.LFB438
 3124 0044 1A000000 		.4byte	.LFE438-.LFB438
 3125 0048 00000000 		.4byte	0
 3126 004c 00000000 		.4byte	0
 3127              		.section	.debug_rnglists,"",%progbits
 3128              	.Ldebug_ranges0:
 3129 0000 9F000000 		.4byte	.Ldebug_ranges3-.Ldebug_ranges2
 3130              	.Ldebug_ranges2:
 3131 0004 0500     		.2byte	0x5
 3132 0006 04       		.byte	0x4
 3133 0007 00       		.byte	0
 3134 0008 00000000 		.4byte	0
 3135              	.LLRL2:
ARM GAS  C:\Users\DEVELO~1\AppData\Local\Temp\ccuygmoc.s 			page 56


 3136 000c 05       		.byte	0x5
 3137 000d 00000000 		.4byte	.LBB89
 3138 0011 04       		.byte	0x4
 3139 0012 00       		.uleb128 .LBB89-.LBB89
 3140 0013 00       		.uleb128 .LBE89-.LBB89
 3141 0014 04       		.byte	0x4
 3142 0015 02       		.uleb128 .LBB102-.LBB89
 3143 0016 04       		.uleb128 .LBE102-.LBB89
 3144 0017 04       		.byte	0x4
 3145 0018 06       		.uleb128 .LBB103-.LBB89
 3146 0019 0A       		.uleb128 .LBE103-.LBB89
 3147 001a 00       		.byte	0
 3148              	.LLRL4:
 3149 001b 05       		.byte	0x5
 3150 001c 12000000 		.4byte	.LBB104
 3151 0020 04       		.byte	0x4
 3152 0021 00       		.uleb128 .LBB104-.LBB104
 3153 0022 02       		.uleb128 .LBE104-.LBB104
 3154 0023 04       		.byte	0x4
 3155 0024 04       		.uleb128 .LBB115-.LBB104
 3156 0025 08       		.uleb128 .LBE115-.LBB104
 3157 0026 00       		.byte	0
 3158              	.LLRL7:
 3159 0027 05       		.byte	0x5
 3160 0028 00000000 		.4byte	.LBB116
 3161 002c 04       		.byte	0x4
 3162 002d 00       		.uleb128 .LBB116-.LBB116
 3163 002e 00       		.uleb128 .LBE116-.LBB116
 3164 002f 04       		.byte	0x4
 3165 0030 02       		.uleb128 .LBB129-.LBB116
 3166 0031 04       		.uleb128 .LBE129-.LBB116
 3167 0032 04       		.byte	0x4
 3168 0033 06       		.uleb128 .LBB130-.LBB116
 3169 0034 0A       		.uleb128 .LBE130-.LBB116
 3170 0035 00       		.byte	0
 3171              	.LLRL14:
 3172 0036 05       		.byte	0x5
 3173 0037 00000000 		.4byte	.LBB137
 3174 003b 04       		.byte	0x4
 3175 003c 00       		.uleb128 .LBB137-.LBB137
 3176 003d 04       		.uleb128 .LBE137-.LBB137
 3177 003e 04       		.byte	0x4
 3178 003f 06       		.uleb128 .LBB146-.LBB137
 3179 0040 0A       		.uleb128 .LBE146-.LBB137
 3180 0041 00       		.byte	0
 3181              	.LLRL18:
 3182 0042 05       		.byte	0x5
 3183 0043 00000000 		.4byte	.LBB153
 3184 0047 04       		.byte	0x4
 3185 0048 00       		.uleb128 .LBB153-.LBB153
 3186 0049 00       		.uleb128 .LBE153-.LBB153
 3187 004a 04       		.byte	0x4
 3188 004b 02       		.uleb128 .LBB166-.LBB153
 3189 004c 04       		.uleb128 .LBE166-.LBB153
 3190 004d 04       		.byte	0x4
 3191 004e 06       		.uleb128 .LBB167-.LBB153
 3192 004f 0A       		.uleb128 .LBE167-.LBB153
ARM GAS  C:\Users\DEVELO~1\AppData\Local\Temp\ccuygmoc.s 			page 57


 3193 0050 00       		.byte	0
 3194              	.LLRL20:
 3195 0051 05       		.byte	0x5
 3196 0052 10000000 		.4byte	.LBB168
 3197 0056 04       		.byte	0x4
 3198 0057 00       		.uleb128 .LBB168-.LBB168
 3199 0058 02       		.uleb128 .LBE168-.LBB168
 3200 0059 04       		.byte	0x4
 3201 005a 04       		.uleb128 .LBB179-.LBB168
 3202 005b 08       		.uleb128 .LBE179-.LBB168
 3203 005c 00       		.byte	0
 3204              	.LLRL23:
 3205 005d 05       		.byte	0x5
 3206 005e 00000000 		.4byte	.LBB180
 3207 0062 04       		.byte	0x4
 3208 0063 00       		.uleb128 .LBB180-.LBB180
 3209 0064 00       		.uleb128 .LBE180-.LBB180
 3210 0065 04       		.byte	0x4
 3211 0066 02       		.uleb128 .LBB193-.LBB180
 3212 0067 04       		.uleb128 .LBE193-.LBB180
 3213 0068 04       		.byte	0x4
 3214 0069 06       		.uleb128 .LBB194-.LBB180
 3215 006a 0A       		.uleb128 .LBE194-.LBB180
 3216 006b 00       		.byte	0
 3217              	.LLRL25:
 3218 006c 05       		.byte	0x5
 3219 006d 10000000 		.4byte	.LBB195
 3220 0071 04       		.byte	0x4
 3221 0072 00       		.uleb128 .LBB195-.LBB195
 3222 0073 02       		.uleb128 .LBE195-.LBB195
 3223 0074 04       		.byte	0x4
 3224 0075 04       		.uleb128 .LBB206-.LBB195
 3225 0076 08       		.uleb128 .LBE206-.LBB195
 3226 0077 00       		.byte	0
 3227              	.LLRL27:
 3228 0078 07       		.byte	0x7
 3229 0079 00000000 		.4byte	.LFB432
 3230 007d 04       		.uleb128 .LFE432-.LFB432
 3231 007e 07       		.byte	0x7
 3232 007f 00000000 		.4byte	.LFB433
 3233 0083 0A       		.uleb128 .LFE433-.LFB433
 3234 0084 07       		.byte	0x7
 3235 0085 00000000 		.4byte	.LFB434
 3236 0089 1C       		.uleb128 .LFE434-.LFB434
 3237 008a 07       		.byte	0x7
 3238 008b 00000000 		.4byte	.LFB435
 3239 008f 1C       		.uleb128 .LFE435-.LFB435
 3240 0090 07       		.byte	0x7
 3241 0091 00000000 		.4byte	.LFB436
 3242 0095 16       		.uleb128 .LFE436-.LFB436
 3243 0096 07       		.byte	0x7
 3244 0097 00000000 		.4byte	.LFB437
 3245 009b 1A       		.uleb128 .LFE437-.LFB437
 3246 009c 07       		.byte	0x7
 3247 009d 00000000 		.4byte	.LFB438
 3248 00a1 1A       		.uleb128 .LFE438-.LFB438
 3249 00a2 00       		.byte	0
ARM GAS  C:\Users\DEVELO~1\AppData\Local\Temp\ccuygmoc.s 			page 58


 3250              	.Ldebug_ranges3:
 3251              		.section	.debug_line,"",%progbits
 3252              	.Ldebug_line0:
 3253 0000 2B070000 		.section	.debug_str,"MS",%progbits,1
 3253      0300EE02 
 3253      00000201 
 3253      FB0E0D00 
 3253      01010101 
 3254              	.LASF39:
 3255 0000 5341495F 		.ascii	"SAI_UNINIT\000"
 3255      554E494E 
 3255      495400
 3256              	.LASF89:
 3257 000b 73616953 		.ascii	"saiStart\000"
 3257      74617274 
 3257      00
 3258              	.LASF41:
 3259 0014 5341495F 		.ascii	"SAI_READY\000"
 3259      52454144 
 3259      5900
 3260              	.LASF25:
 3261 001e 50444D43 		.ascii	"PDMCR\000"
 3261      5200
 3262              	.LASF58:
 3263 0024 68616C5F 		.ascii	"hal_sai_config\000"
 3263      7361695F 
 3263      636F6E66 
 3263      696700
 3264              	.LASF49:
 3265 0033 646D6172 		.ascii	"dmarx\000"
 3265      7800
 3266              	.LASF86:
 3267 0039 2E2E2F2E 		.ascii	"../../../os/hal/src/hal_sai.c\000"
 3267      2E2F2E2E 
 3267      2F6F732F 
 3267      68616C2F 
 3267      7372632F 
 3268              	.LASF22:
 3269 0057 444D415F 		.ascii	"DMA_Stream_TypeDef\000"
 3269      53747265 
 3269      616D5F54 
 3269      79706544 
 3269      656600
 3270              	.LASF45:
 3271 006a 73746174 		.ascii	"state\000"
 3271      6500
 3272              	.LASF7:
 3273 0070 73686F72 		.ascii	"short int\000"
 3273      7420696E 
 3273      7400
 3274              	.LASF4:
 3275 007a 73697A65 		.ascii	"size_t\000"
 3275      5F7400
 3276              	.LASF69:
 3277 0081 7361695F 		.ascii	"sai_lld_set_buffers\000"
 3277      6C6C645F 
 3277      7365745F 
ARM GAS  C:\Users\DEVELO~1\AppData\Local\Temp\ccuygmoc.s 			page 59


 3277      62756666 
 3277      65727300 
 3278              	.LASF80:
 3279 0095 6F73616C 		.ascii	"osalSysUnlock\000"
 3279      53797355 
 3279      6E6C6F63 
 3279      6B00
 3280              	.LASF42:
 3281 00a3 5341495F 		.ascii	"SAI_ACTIVE\000"
 3281      41435449 
 3281      564500
 3282              	.LASF56:
 3283 00ae 53414943 		.ascii	"SAIConfig\000"
 3283      6F6E6669 
 3283      6700
 3284              	.LASF72:
 3285 00b8 73616953 		.ascii	"saiStopExchange\000"
 3285      746F7045 
 3285      78636861 
 3285      6E676500 
 3286              	.LASF82:
 3287 00c8 63685379 		.ascii	"chSysLock\000"
 3287      734C6F63 
 3287      6B00
 3288              	.LASF85:
 3289 00d2 474E5520 		.ascii	"GNU C17 11.3.1 20220712 -mcpu=cortex-m7 -mthumb -mf"
 3289      43313720 
 3289      31312E33 
 3289      2E312032 
 3289      30323230 
 3290 0105 6C6F6174 		.ascii	"loat-abi=soft -march=armv7e-m -ggdb -O2 -fomit-fram"
 3290      2D616269 
 3290      3D736F66 
 3290      74202D6D 
 3290      61726368 
 3291 0138 652D706F 		.ascii	"e-pointer -falign-functions=16 -ffunction-sections "
 3291      696E7465 
 3291      72202D66 
 3291      616C6967 
 3291      6E2D6675 
 3292 016b 2D666461 		.ascii	"-fdata-sections -fno-common\000"
 3292      74612D73 
 3292      65637469 
 3292      6F6E7320 
 3292      2D666E6F 
 3293              	.LASF31:
 3294 0187 5341495F 		.ascii	"SAI_Block_TypeDef\000"
 3294      426C6F63 
 3294      6B5F5479 
 3294      70654465 
 3294      6600
 3295              	.LASF27:
 3296 0199 5341495F 		.ascii	"SAI_TypeDef\000"
 3296      54797065 
 3296      44656600 
 3297              	.LASF46:
 3298 01a5 636F6E66 		.ascii	"config\000"
ARM GAS  C:\Users\DEVELO~1\AppData\Local\Temp\ccuygmoc.s 			page 60


 3298      696700
 3299              	.LASF23:
 3300 01ac 444D414D 		.ascii	"DMAMUX_Channel_TypeDef\000"
 3300      55585F43 
 3300      68616E6E 
 3300      656C5F54 
 3300      79706544 
 3301              	.LASF38:
 3302 01c3 73746D33 		.ascii	"stm32_dma_stream_t\000"
 3302      325F646D 
 3302      615F7374 
 3302      7265616D 
 3302      5F7400
 3303              	.LASF74:
 3304 01d6 73616970 		.ascii	"saip\000"
 3304      00
 3305              	.LASF70:
 3306 01db 7361695F 		.ascii	"sai_lld_stop\000"
 3306      6C6C645F 
 3306      73746F70 
 3306      00
 3307              	.LASF14:
 3308 01e8 75696E74 		.ascii	"uint8_t\000"
 3308      385F7400 
 3309              	.LASF37:
 3310 01f0 76656374 		.ascii	"vector\000"
 3310      6F7200
 3311              	.LASF19:
 3312 01f7 4E445452 		.ascii	"NDTR\000"
 3312      00
 3313              	.LASF43:
 3314 01fc 73616973 		.ascii	"saistate_t\000"
 3314      74617465 
 3314      5F7400
 3315              	.LASF68:
 3316 0207 7361695F 		.ascii	"sai_lld_start_exchange\000"
 3316      6C6C645F 
 3316      73746172 
 3316      745F6578 
 3316      6368616E 
 3317              	.LASF2:
 3318 021e 6C6F6E67 		.ascii	"long double\000"
 3318      20646F75 
 3318      626C6500 
 3319              	.LASF1:
 3320 022a 6C6F6E67 		.ascii	"long long int\000"
 3320      206C6F6E 
 3320      6720696E 
 3320      7400
 3321              	.LASF65:
 3322 0238 646D615F 		.ascii	"dma_mode\000"
 3322      6D6F6465 
 3322      00
 3323              	.LASF26:
 3324 0241 50444D44 		.ascii	"PDMDLY\000"
 3324      4C5900
 3325              	.LASF35:
ARM GAS  C:\Users\DEVELO~1\AppData\Local\Temp\ccuygmoc.s 			page 61


 3326 0248 73686966 		.ascii	"shift\000"
 3326      7400
 3327              	.LASF33:
 3328 024e 73747265 		.ascii	"stream\000"
 3328      616D00
 3329              	.LASF66:
 3330 0255 73616963 		.ascii	"saicallback_t\000"
 3330      616C6C62 
 3330      61636B5F 
 3330      7400
 3331              	.LASF5:
 3332 0263 5F5F7569 		.ascii	"__uint8_t\000"
 3332      6E74385F 
 3332      7400
 3333              	.LASF48:
 3334 026d 626C6F63 		.ascii	"block\000"
 3334      6B00
 3335              	.LASF11:
 3336 0273 5F5F7569 		.ascii	"__uint32_t\000"
 3336      6E743332 
 3336      5F7400
 3337              	.LASF64:
 3338 027e 736C6F74 		.ascii	"slotr\000"
 3338      7200
 3339              	.LASF29:
 3340 0284 534C4F54 		.ascii	"SLOTR\000"
 3340      5200
 3341              	.LASF81:
 3342 028a 6F73616C 		.ascii	"osalSysLock\000"
 3342      5379734C 
 3342      6F636B00 
 3343              	.LASF6:
 3344 0296 756E7369 		.ascii	"unsigned char\000"
 3344      676E6564 
 3344      20636861 
 3344      7200
 3345              	.LASF51:
 3346 02a4 7278646D 		.ascii	"rxdmamode\000"
 3346      616D6F64 
 3346      6500
 3347              	.LASF59:
 3348 02ae 74785F62 		.ascii	"tx_buffer\000"
 3348      75666665 
 3348      7200
 3349              	.LASF75:
 3350 02b8 5F5F6675 		.ascii	"__func__\000"
 3350      6E635F5F 
 3350      00
 3351              	.LASF73:
 3352 02c1 73616953 		.ascii	"saiStartExchange\000"
 3352      74617274 
 3352      45786368 
 3352      616E6765 
 3352      00
 3353              	.LASF3:
 3354 02d2 7369676E 		.ascii	"signed char\000"
 3354      65642063 
ARM GAS  C:\Users\DEVELO~1\AppData\Local\Temp\ccuygmoc.s 			page 62


 3354      68617200 
 3355              	.LASF44:
 3356 02de 53414944 		.ascii	"SAIDriver\000"
 3356      72697665 
 3356      7200
 3357              	.LASF13:
 3358 02e8 6C6F6E67 		.ascii	"long long unsigned int\000"
 3358      206C6F6E 
 3358      6720756E 
 3358      7369676E 
 3358      65642069 
 3359              	.LASF28:
 3360 02ff 46524352 		.ascii	"FRCR\000"
 3360      00
 3361              	.LASF16:
 3362 0304 75696E74 		.ascii	"uint32_t\000"
 3362      33325F74 
 3362      00
 3363              	.LASF67:
 3364 030d 7361695F 		.ascii	"sai_lld_stop_exchange\000"
 3364      6C6C645F 
 3364      73746F70 
 3364      5F657863 
 3364      68616E67 
 3365              	.LASF36:
 3366 0323 73656C66 		.ascii	"selfindex\000"
 3366      696E6465 
 3366      7800
 3367              	.LASF52:
 3368 032d 7478646D 		.ascii	"txdmamode\000"
 3368      616D6F64 
 3368      6500
 3369              	.LASF87:
 3370 0337 433A5C50 		.ascii	"C:\\PROJET\\ChibiOS project\\ChibiOS_21.11.4\\demos"
 3370      524F4A45 
 3370      545C4368 
 3370      6962694F 
 3370      53207072 
 3371 0366 5C53544D 		.ascii	"\\STM32\\RT-STM32H743ZI_REV_XY-NUCLEO144\000"
 3371      33325C52 
 3371      542D5354 
 3371      4D333248 
 3371      3734335A 
 3372              	.LASF12:
 3373 038d 6C6F6E67 		.ascii	"long unsigned int\000"
 3373      20756E73 
 3373      69676E65 
 3373      6420696E 
 3373      7400
 3374              	.LASF50:
 3375 039f 646D6174 		.ascii	"dmatx\000"
 3375      7800
 3376              	.LASF8:
 3377 03a5 73686F72 		.ascii	"short unsigned int\000"
 3377      7420756E 
 3377      7369676E 
 3377      65642069 
ARM GAS  C:\Users\DEVELO~1\AppData\Local\Temp\ccuygmoc.s 			page 63


 3377      6E7400
 3378              	.LASF92:
 3379 03b8 62617365 		.ascii	"basePri\000"
 3379      50726900 
 3380              	.LASF53:
 3381 03c0 74786275 		.ascii	"txbuf\000"
 3381      6600
 3382              	.LASF21:
 3383 03c6 4D314152 		.ascii	"M1AR\000"
 3383      00
 3384              	.LASF18:
 3385 03cb 63686172 		.ascii	"char\000"
 3385      00
 3386              	.LASF10:
 3387 03d0 6C6F6E67 		.ascii	"long int\000"
 3387      20696E74 
 3387      00
 3388              	.LASF15:
 3389 03d9 696E7433 		.ascii	"int32_t\000"
 3389      325F7400 
 3390              	.LASF78:
 3391 03e1 7361694F 		.ascii	"saiObjectInit\000"
 3391      626A6563 
 3391      74496E69 
 3391      7400
 3392              	.LASF32:
 3393 03ef 5F426F6F 		.ascii	"_Bool\000"
 3393      6C00
 3394              	.LASF83:
 3395 03f5 706F7274 		.ascii	"port_unlock\000"
 3395      5F756E6C 
 3395      6F636B00 
 3396              	.LASF84:
 3397 0401 706F7274 		.ascii	"port_lock\000"
 3397      5F6C6F63 
 3397      6B00
 3398              	.LASF60:
 3399 040b 72785F62 		.ascii	"rx_buffer\000"
 3399      75666665 
 3399      7200
 3400              	.LASF77:
 3401 0415 73616953 		.ascii	"saiStop\000"
 3401      746F7000 
 3402              	.LASF24:
 3403 041d 52455345 		.ascii	"RESERVED0\000"
 3403      52564544 
 3403      3000
 3404              	.LASF20:
 3405 0427 4D304152 		.ascii	"M0AR\000"
 3405      00
 3406              	.LASF76:
 3407 042c 73616953 		.ascii	"saiSetBuffers\000"
 3407      65744275 
 3407      66666572 
 3407      7300
 3408              	.LASF88:
 3409 043a 7361695F 		.ascii	"sai_lld_init\000"
ARM GAS  C:\Users\DEVELO~1\AppData\Local\Temp\ccuygmoc.s 			page 64


 3409      6C6C645F 
 3409      696E6974 
 3409      00
 3410              	.LASF79:
 3411 0447 73616949 		.ascii	"saiInit\000"
 3411      6E697400 
 3412              	.LASF30:
 3413 044f 434C5246 		.ascii	"CLRFR\000"
 3413      5200
 3414              	.LASF55:
 3415 0455 62756673 		.ascii	"bufsize\000"
 3415      697A6500 
 3416              	.LASF63:
 3417 045d 66726372 		.ascii	"frcr\000"
 3417      00
 3418              	.LASF61:
 3419 0462 73697A65 		.ascii	"size\000"
 3419      00
 3420              	.LASF90:
 3421 0467 63685379 		.ascii	"chSysUnlock\000"
 3421      73556E6C 
 3421      6F636B00 
 3422              	.LASF9:
 3423 0473 5F5F696E 		.ascii	"__int32_t\000"
 3423      7433325F 
 3423      7400
 3424              	.LASF47:
 3425 047d 626C6F63 		.ascii	"blockp\000"
 3425      6B7000
 3426              	.LASF71:
 3427 0484 7361695F 		.ascii	"sai_lld_start\000"
 3427      6C6C645F 
 3427      73746172 
 3427      7400
 3428              	.LASF91:
 3429 0492 5F5F7365 		.ascii	"__set_BASEPRI\000"
 3429      745F4241 
 3429      53455052 
 3429      4900
 3430              	.LASF57:
 3431 04a0 68616C5F 		.ascii	"hal_sai_driver\000"
 3431      7361695F 
 3431      64726976 
 3431      657200
 3432              	.LASF54:
 3433 04af 72786275 		.ascii	"rxbuf\000"
 3433      6600
 3434              	.LASF0:
 3435 04b5 756E7369 		.ascii	"unsigned int\000"
 3435      676E6564 
 3435      20696E74 
 3435      00
 3436              	.LASF62:
 3437 04c2 656E645F 		.ascii	"end_cb\000"
 3437      636200
 3438              	.LASF34:
 3439 04c9 69666372 		.ascii	"ifcr\000"
ARM GAS  C:\Users\DEVELO~1\AppData\Local\Temp\ccuygmoc.s 			page 65


 3439      00
 3440              	.LASF17:
 3441 04ce 6D73675F 		.ascii	"msg_t\000"
 3441      7400
 3442              	.LASF40:
 3443 04d4 5341495F 		.ascii	"SAI_STOP\000"
 3443      53544F50 
 3443      00
 3444              		.ident	"GCC: (Arm GNU Toolchain 11.3.Rel1) 11.3.1 20220712"
ARM GAS  C:\Users\DEVELO~1\AppData\Local\Temp\ccuygmoc.s 			page 66


DEFINED SYMBOLS
                            *ABS*:00000000 hal_sai.c
C:\Users\DEVELO~1\AppData\Local\Temp\ccuygmoc.s:18     .text.saiInit:00000000 $t
C:\Users\DEVELO~1\AppData\Local\Temp\ccuygmoc.s:25     .text.saiInit:00000000 saiInit
C:\Users\DEVELO~1\AppData\Local\Temp\ccuygmoc.s:40     .text.saiObjectInit:00000000 $t
C:\Users\DEVELO~1\AppData\Local\Temp\ccuygmoc.s:47     .text.saiObjectInit:00000000 saiObjectInit
C:\Users\DEVELO~1\AppData\Local\Temp\ccuygmoc.s:71     .text.saiStart:00000000 $t
C:\Users\DEVELO~1\AppData\Local\Temp\ccuygmoc.s:78     .text.saiStart:00000000 saiStart
C:\Users\DEVELO~1\AppData\Local\Temp\ccuygmoc.s:232    .text.saiStop:00000000 $t
C:\Users\DEVELO~1\AppData\Local\Temp\ccuygmoc.s:239    .text.saiStop:00000000 saiStop
C:\Users\DEVELO~1\AppData\Local\Temp\ccuygmoc.s:374    .text.saiSetBuffers:00000000 $t
C:\Users\DEVELO~1\AppData\Local\Temp\ccuygmoc.s:381    .text.saiSetBuffers:00000000 saiSetBuffers
C:\Users\DEVELO~1\AppData\Local\Temp\ccuygmoc.s:492    .text.saiStartExchange:00000000 $t
C:\Users\DEVELO~1\AppData\Local\Temp\ccuygmoc.s:499    .text.saiStartExchange:00000000 saiStartExchange
C:\Users\DEVELO~1\AppData\Local\Temp\ccuygmoc.s:643    .text.saiStopExchange:00000000 $t
C:\Users\DEVELO~1\AppData\Local\Temp\ccuygmoc.s:650    .text.saiStopExchange:00000000 saiStopExchange

UNDEFINED SYMBOLS
sai_lld_init
sai_lld_start
sai_lld_stop
sai_lld_set_buffers
sai_lld_start_exchange
sai_lld_stop_exchange
