ARM GAS  C:\Users\DEVELO~1\AppData\Local\Temp\ccUklYSj.s 			page 1


   1              		.cpu cortex-m7
   2              		.arch armv7e-m
   3              		.fpu softvfp
   4              		.eabi_attribute 20, 1
   5              		.eabi_attribute 21, 1
   6              		.eabi_attribute 23, 3
   7              		.eabi_attribute 24, 1
   8              		.eabi_attribute 25, 1
   9              		.eabi_attribute 26, 1
  10              		.eabi_attribute 30, 6
  11              		.eabi_attribute 34, 1
  12              		.eabi_attribute 18, 4
  13              		.file	"hal_sai.c"
  14              		.text
  15              	.Ltext0:
  16              		.cfi_sections	.debug_frame
  17              		.section	.text.chSysLock,"ax",%progbits
  18              		.align	1
  19              		.syntax unified
  20              		.thumb
  21              		.thumb_func
  22              		.type	chSysLock, %function
  23              	chSysLock:
  24              	.LFB202:
  25              		.file 1 "../../../os/rt/include/chsys.h"
  26              		.loc 1 407 36
  27              		.cfi_startproc
  28              		@ args = 0, pretend = 0, frame = 8
  29              		@ frame_needed = 1, uses_anonymous_args = 0
  30              		@ link register save eliminated.
  31 0000 80B4     		push	{r7}
  32              		.cfi_def_cfa_offset 4
  33              		.cfi_offset 7, -4
  34 0002 83B0     		sub	sp, sp, #12
  35              		.cfi_def_cfa_offset 16
  36 0004 00AF     		add	r7, sp, #0
  37              		.cfi_def_cfa_register 7
  38 0006 3023     		movs	r3, #48
  39 0008 7B60     		str	r3, [r7, #4]
  40              	.LBB14:
  41              	.LBB15:
  42              	.LBB16:
  43              	.LBB17:
  44              		.file 2 "../../../os/common/ext/ARM/CMSIS/Core/Include/cmsis_gcc.h"
  45              		.loc 2 493 3
  46 000a 7B68     		ldr	r3, [r7, #4]
  47              		.syntax unified
  48              	@ 493 "../../../os/common/ext/ARM/CMSIS/Core/Include/cmsis_gcc.h" 1
  49 000c 83F31188 		MSR basepri, r3
  50              	@ 0 "" 2
  51              		.loc 2 494 1
  52              		.thumb
  53              		.syntax unified
  54 0010 00BF     		nop
  55              	.LBE17:
  56              	.LBE16:
  57              		.file 3 "../../../os/common/ports/ARMv7-M/chcore.h"
ARM GAS  C:\Users\DEVELO~1\AppData\Local\Temp\ccUklYSj.s 			page 2


  58              		.loc 3 840 1
  59 0012 00BF     		nop
  60              	.LBE15:
  61              	.LBE14:
  62              		.loc 1 412 1
  63 0014 00BF     		nop
  64 0016 0C37     		adds	r7, r7, #12
  65              		.cfi_def_cfa_offset 4
  66 0018 BD46     		mov	sp, r7
  67              		.cfi_def_cfa_register 13
  68              		@ sp needed
  69 001a 80BC     		pop	{r7}
  70              		.cfi_restore 7
  71              		.cfi_def_cfa_offset 0
  72 001c 7047     		bx	lr
  73              		.cfi_endproc
  74              	.LFE202:
  75              		.size	chSysLock, .-chSysLock
  76              		.section	.text.chSysUnlock,"ax",%progbits
  77              		.align	1
  78              		.syntax unified
  79              		.thumb
  80              		.thumb_func
  81              		.type	chSysUnlock, %function
  82              	chSysUnlock:
  83              	.LFB203:
  84              		.loc 1 421 38
  85              		.cfi_startproc
  86              		@ args = 0, pretend = 0, frame = 8
  87              		@ frame_needed = 1, uses_anonymous_args = 0
  88              		@ link register save eliminated.
  89 0000 80B4     		push	{r7}
  90              		.cfi_def_cfa_offset 4
  91              		.cfi_offset 7, -4
  92 0002 83B0     		sub	sp, sp, #12
  93              		.cfi_def_cfa_offset 16
  94 0004 00AF     		add	r7, sp, #0
  95              		.cfi_def_cfa_register 7
  96 0006 0023     		movs	r3, #0
  97 0008 7B60     		str	r3, [r7, #4]
  98              	.LBB18:
  99              	.LBB19:
 100              	.LBB20:
 101              	.LBB21:
 102              		.loc 2 493 3
 103 000a 7B68     		ldr	r3, [r7, #4]
 104              		.syntax unified
 105              	@ 493 "../../../os/common/ext/ARM/CMSIS/Core/Include/cmsis_gcc.h" 1
 106 000c 83F31188 		MSR basepri, r3
 107              	@ 0 "" 2
 108              		.loc 2 494 1
 109              		.thumb
 110              		.syntax unified
 111 0010 00BF     		nop
 112              	.LBE21:
 113              	.LBE20:
 114              		.loc 3 854 1
ARM GAS  C:\Users\DEVELO~1\AppData\Local\Temp\ccUklYSj.s 			page 3


 115 0012 00BF     		nop
 116              	.LBE19:
 117              	.LBE18:
 118              		.loc 1 435 1
 119 0014 00BF     		nop
 120 0016 0C37     		adds	r7, r7, #12
 121              		.cfi_def_cfa_offset 4
 122 0018 BD46     		mov	sp, r7
 123              		.cfi_def_cfa_register 13
 124              		@ sp needed
 125 001a 80BC     		pop	{r7}
 126              		.cfi_restore 7
 127              		.cfi_def_cfa_offset 0
 128 001c 7047     		bx	lr
 129              		.cfi_endproc
 130              	.LFE203:
 131              		.size	chSysUnlock, .-chSysUnlock
 132              		.section	.text.osalSysLock,"ax",%progbits
 133              		.align	1
 134              		.syntax unified
 135              		.thumb
 136              		.thumb_func
 137              		.type	osalSysLock, %function
 138              	osalSysLock:
 139              	.LFB350:
 140              		.file 4 "../../../os/hal/osal/rt-nil/osal.h"
 141              		.loc 4 573 38
 142              		.cfi_startproc
 143              		@ args = 0, pretend = 0, frame = 0
 144              		@ frame_needed = 1, uses_anonymous_args = 0
 145 0000 80B5     		push	{r7, lr}
 146              		.cfi_def_cfa_offset 8
 147              		.cfi_offset 7, -8
 148              		.cfi_offset 14, -4
 149 0002 00AF     		add	r7, sp, #0
 150              		.cfi_def_cfa_register 7
 151              		.loc 4 575 3
 152 0004 FFF7FEFF 		bl	chSysLock
 153              		.loc 4 576 1
 154 0008 00BF     		nop
 155 000a 80BD     		pop	{r7, pc}
 156              		.cfi_endproc
 157              	.LFE350:
 158              		.size	osalSysLock, .-osalSysLock
 159              		.section	.text.osalSysUnlock,"ax",%progbits
 160              		.align	1
 161              		.syntax unified
 162              		.thumb
 163              		.thumb_func
 164              		.type	osalSysUnlock, %function
 165              	osalSysUnlock:
 166              	.LFB351:
 167              		.loc 4 584 40
 168              		.cfi_startproc
 169              		@ args = 0, pretend = 0, frame = 0
 170              		@ frame_needed = 1, uses_anonymous_args = 0
 171 0000 80B5     		push	{r7, lr}
ARM GAS  C:\Users\DEVELO~1\AppData\Local\Temp\ccUklYSj.s 			page 4


 172              		.cfi_def_cfa_offset 8
 173              		.cfi_offset 7, -8
 174              		.cfi_offset 14, -4
 175 0002 00AF     		add	r7, sp, #0
 176              		.cfi_def_cfa_register 7
 177              		.loc 4 586 3
 178 0004 FFF7FEFF 		bl	chSysUnlock
 179              		.loc 4 587 1
 180 0008 00BF     		nop
 181 000a 80BD     		pop	{r7, pc}
 182              		.cfi_endproc
 183              	.LFE351:
 184              		.size	osalSysUnlock, .-osalSysUnlock
 185              		.section	.text.saiInit,"ax",%progbits
 186              		.align	1
 187              		.global	saiInit
 188              		.syntax unified
 189              		.thumb
 190              		.thumb_func
 191              		.type	saiInit, %function
 192              	saiInit:
 193              	.LFB432:
 194              		.file 5 "../../../os/hal/src/hal_sai.c"
 195              		.loc 5 39 20
 196              		.cfi_startproc
 197              		@ args = 0, pretend = 0, frame = 0
 198              		@ frame_needed = 1, uses_anonymous_args = 0
 199 0000 80B5     		push	{r7, lr}
 200              		.cfi_def_cfa_offset 8
 201              		.cfi_offset 7, -8
 202              		.cfi_offset 14, -4
 203 0002 00AF     		add	r7, sp, #0
 204              		.cfi_def_cfa_register 7
 205              		.loc 5 41 3
 206 0004 FFF7FEFF 		bl	sai_lld_init
 207              		.loc 5 42 1
 208 0008 00BF     		nop
 209 000a 80BD     		pop	{r7, pc}
 210              		.cfi_endproc
 211              	.LFE432:
 212              		.size	saiInit, .-saiInit
 213              		.section	.text.saiObjectInit,"ax",%progbits
 214              		.align	1
 215              		.global	saiObjectInit
 216              		.syntax unified
 217              		.thumb
 218              		.thumb_func
 219              		.type	saiObjectInit, %function
 220              	saiObjectInit:
 221              	.LFB433:
 222              		.loc 5 51 37
 223              		.cfi_startproc
 224              		@ args = 0, pretend = 0, frame = 8
 225              		@ frame_needed = 1, uses_anonymous_args = 0
 226              		@ link register save eliminated.
 227 0000 80B4     		push	{r7}
 228              		.cfi_def_cfa_offset 4
ARM GAS  C:\Users\DEVELO~1\AppData\Local\Temp\ccUklYSj.s 			page 5


 229              		.cfi_offset 7, -4
 230 0002 83B0     		sub	sp, sp, #12
 231              		.cfi_def_cfa_offset 16
 232 0004 00AF     		add	r7, sp, #0
 233              		.cfi_def_cfa_register 7
 234 0006 7860     		str	r0, [r7, #4]
 235              		.loc 5 53 16
 236 0008 7B68     		ldr	r3, [r7, #4]
 237 000a 0122     		movs	r2, #1
 238 000c 1A70     		strb	r2, [r3]
 239              		.loc 5 54 16
 240 000e 7B68     		ldr	r3, [r7, #4]
 241 0010 0022     		movs	r2, #0
 242 0012 5A60     		str	r2, [r3, #4]
 243              		.loc 5 55 1
 244 0014 00BF     		nop
 245 0016 0C37     		adds	r7, r7, #12
 246              		.cfi_def_cfa_offset 4
 247 0018 BD46     		mov	sp, r7
 248              		.cfi_def_cfa_register 13
 249              		@ sp needed
 250 001a 80BC     		pop	{r7}
 251              		.cfi_restore 7
 252              		.cfi_def_cfa_offset 0
 253 001c 7047     		bx	lr
 254              		.cfi_endproc
 255              	.LFE433:
 256              		.size	saiObjectInit, .-saiObjectInit
 257              		.section	.text.saiStart,"ax",%progbits
 258              		.align	1
 259              		.global	saiStart
 260              		.syntax unified
 261              		.thumb
 262              		.thumb_func
 263              		.type	saiStart, %function
 264              	saiStart:
 265              	.LFB434:
 266              		.loc 5 66 58
 267              		.cfi_startproc
 268              		@ args = 0, pretend = 0, frame = 16
 269              		@ frame_needed = 1, uses_anonymous_args = 0
 270 0000 80B5     		push	{r7, lr}
 271              		.cfi_def_cfa_offset 8
 272              		.cfi_offset 7, -8
 273              		.cfi_offset 14, -4
 274 0002 84B0     		sub	sp, sp, #16
 275              		.cfi_def_cfa_offset 24
 276 0004 00AF     		add	r7, sp, #0
 277              		.cfi_def_cfa_register 7
 278 0006 7860     		str	r0, [r7, #4]
 279 0008 3960     		str	r1, [r7]
 280              		.loc 5 71 3
 281 000a FFF7FEFF 		bl	osalSysLock
 282              		.loc 5 75 16
 283 000e 7B68     		ldr	r3, [r7, #4]
 284 0010 3A68     		ldr	r2, [r7]
 285 0012 5A60     		str	r2, [r3, #4]
ARM GAS  C:\Users\DEVELO~1\AppData\Local\Temp\ccUklYSj.s 			page 6


 286              		.loc 5 86 3
 287 0014 7868     		ldr	r0, [r7, #4]
 288 0016 FFF7FEFF 		bl	sai_lld_start
 289              		.loc 5 87 15
 290 001a 7B68     		ldr	r3, [r7, #4]
 291 001c 0222     		movs	r2, #2
 292 001e 1A70     		strb	r2, [r3]
 293              		.loc 5 88 7
 294 0020 0023     		movs	r3, #0
 295 0022 FB60     		str	r3, [r7, #12]
 296              		.loc 5 91 3
 297 0024 FFF7FEFF 		bl	osalSysUnlock
 298              		.loc 5 93 10
 299 0028 FB68     		ldr	r3, [r7, #12]
 300              		.loc 5 94 1
 301 002a 1846     		mov	r0, r3
 302 002c 1037     		adds	r7, r7, #16
 303              		.cfi_def_cfa_offset 8
 304 002e BD46     		mov	sp, r7
 305              		.cfi_def_cfa_register 13
 306              		@ sp needed
 307 0030 80BD     		pop	{r7, pc}
 308              		.cfi_endproc
 309              	.LFE434:
 310              		.size	saiStart, .-saiStart
 311              		.section	.text.saiStop,"ax",%progbits
 312              		.align	1
 313              		.global	saiStop
 314              		.syntax unified
 315              		.thumb
 316              		.thumb_func
 317              		.type	saiStop, %function
 318              	saiStop:
 319              	.LFB435:
 320              		.loc 5 103 31
 321              		.cfi_startproc
 322              		@ args = 0, pretend = 0, frame = 8
 323              		@ frame_needed = 1, uses_anonymous_args = 0
 324 0000 80B5     		push	{r7, lr}
 325              		.cfi_def_cfa_offset 8
 326              		.cfi_offset 7, -8
 327              		.cfi_offset 14, -4
 328 0002 82B0     		sub	sp, sp, #8
 329              		.cfi_def_cfa_offset 16
 330 0004 00AF     		add	r7, sp, #0
 331              		.cfi_def_cfa_register 7
 332 0006 7860     		str	r0, [r7, #4]
 333              		.loc 5 107 3
 334 0008 FFF7FEFF 		bl	osalSysLock
 335              		.loc 5 111 3
 336 000c 7868     		ldr	r0, [r7, #4]
 337 000e FFF7FEFF 		bl	sai_lld_stop
 338              		.loc 5 112 16
 339 0012 7B68     		ldr	r3, [r7, #4]
 340 0014 0022     		movs	r2, #0
 341 0016 5A60     		str	r2, [r3, #4]
 342              		.loc 5 113 16
ARM GAS  C:\Users\DEVELO~1\AppData\Local\Temp\ccUklYSj.s 			page 7


 343 0018 7B68     		ldr	r3, [r7, #4]
 344 001a 0122     		movs	r2, #1
 345 001c 1A70     		strb	r2, [r3]
 346              		.loc 5 115 3
 347 001e FFF7FEFF 		bl	osalSysUnlock
 348              		.loc 5 116 1
 349 0022 00BF     		nop
 350 0024 0837     		adds	r7, r7, #8
 351              		.cfi_def_cfa_offset 8
 352 0026 BD46     		mov	sp, r7
 353              		.cfi_def_cfa_register 13
 354              		@ sp needed
 355 0028 80BD     		pop	{r7, pc}
 356              		.cfi_endproc
 357              	.LFE435:
 358              		.size	saiStop, .-saiStop
 359              		.section	.text.saiSetBuffers,"ax",%progbits
 360              		.align	1
 361              		.global	saiSetBuffers
 362              		.syntax unified
 363              		.thumb
 364              		.thumb_func
 365              		.type	saiSetBuffers, %function
 366              	saiSetBuffers:
 367              	.LFB436:
 368              		.loc 5 131 33
 369              		.cfi_startproc
 370              		@ args = 0, pretend = 0, frame = 16
 371              		@ frame_needed = 1, uses_anonymous_args = 0
 372 0000 80B5     		push	{r7, lr}
 373              		.cfi_def_cfa_offset 8
 374              		.cfi_offset 7, -8
 375              		.cfi_offset 14, -4
 376 0002 84B0     		sub	sp, sp, #16
 377              		.cfi_def_cfa_offset 24
 378 0004 00AF     		add	r7, sp, #0
 379              		.cfi_def_cfa_register 7
 380 0006 F860     		str	r0, [r7, #12]
 381 0008 B960     		str	r1, [r7, #8]
 382 000a 7A60     		str	r2, [r7, #4]
 383 000c 3B60     		str	r3, [r7]
 384              		.loc 5 135 3
 385 000e FFF7FEFF 		bl	osalSysLock
 386              		.loc 5 138 3
 387 0012 3B68     		ldr	r3, [r7]
 388 0014 7A68     		ldr	r2, [r7, #4]
 389 0016 B968     		ldr	r1, [r7, #8]
 390 0018 F868     		ldr	r0, [r7, #12]
 391 001a FFF7FEFF 		bl	sai_lld_set_buffers
 392              		.loc 5 140 3
 393 001e FFF7FEFF 		bl	osalSysUnlock
 394              		.loc 5 141 1
 395 0022 00BF     		nop
 396 0024 1037     		adds	r7, r7, #16
 397              		.cfi_def_cfa_offset 8
 398 0026 BD46     		mov	sp, r7
 399              		.cfi_def_cfa_register 13
ARM GAS  C:\Users\DEVELO~1\AppData\Local\Temp\ccUklYSj.s 			page 8


 400              		@ sp needed
 401 0028 80BD     		pop	{r7, pc}
 402              		.cfi_endproc
 403              	.LFE436:
 404              		.size	saiSetBuffers, .-saiSetBuffers
 405              		.section	.text.saiStartExchange,"ax",%progbits
 406              		.align	1
 407              		.global	saiStartExchange
 408              		.syntax unified
 409              		.thumb
 410              		.thumb_func
 411              		.type	saiStartExchange, %function
 412              	saiStartExchange:
 413              	.LFB437:
 414              		.loc 5 150 40
 415              		.cfi_startproc
 416              		@ args = 0, pretend = 0, frame = 8
 417              		@ frame_needed = 1, uses_anonymous_args = 0
 418 0000 80B5     		push	{r7, lr}
 419              		.cfi_def_cfa_offset 8
 420              		.cfi_offset 7, -8
 421              		.cfi_offset 14, -4
 422 0002 82B0     		sub	sp, sp, #8
 423              		.cfi_def_cfa_offset 16
 424 0004 00AF     		add	r7, sp, #0
 425              		.cfi_def_cfa_register 7
 426 0006 7860     		str	r0, [r7, #4]
 427              		.loc 5 154 3
 428 0008 FFF7FEFF 		bl	osalSysLock
 429              		.loc 5 156 3
 430 000c 7868     		ldr	r0, [r7, #4]
 431 000e FFF7FEFF 		bl	sai_lld_start_exchange
 432 0012 7B68     		ldr	r3, [r7, #4]
 433 0014 0322     		movs	r2, #3
 434 0016 1A70     		strb	r2, [r3]
 435              		.loc 5 157 3
 436 0018 FFF7FEFF 		bl	osalSysUnlock
 437              		.loc 5 158 1
 438 001c 00BF     		nop
 439 001e 0837     		adds	r7, r7, #8
 440              		.cfi_def_cfa_offset 8
 441 0020 BD46     		mov	sp, r7
 442              		.cfi_def_cfa_register 13
 443              		@ sp needed
 444 0022 80BD     		pop	{r7, pc}
 445              		.cfi_endproc
 446              	.LFE437:
 447              		.size	saiStartExchange, .-saiStartExchange
 448              		.section	.text.saiStopExchange,"ax",%progbits
 449              		.align	1
 450              		.global	saiStopExchange
 451              		.syntax unified
 452              		.thumb
 453              		.thumb_func
 454              		.type	saiStopExchange, %function
 455              	saiStopExchange:
 456              	.LFB438:
ARM GAS  C:\Users\DEVELO~1\AppData\Local\Temp\ccUklYSj.s 			page 9


 457              		.loc 5 167 39
 458              		.cfi_startproc
 459              		@ args = 0, pretend = 0, frame = 8
 460              		@ frame_needed = 1, uses_anonymous_args = 0
 461 0000 80B5     		push	{r7, lr}
 462              		.cfi_def_cfa_offset 8
 463              		.cfi_offset 7, -8
 464              		.cfi_offset 14, -4
 465 0002 82B0     		sub	sp, sp, #8
 466              		.cfi_def_cfa_offset 16
 467 0004 00AF     		add	r7, sp, #0
 468              		.cfi_def_cfa_register 7
 469 0006 7860     		str	r0, [r7, #4]
 470              		.loc 5 171 3
 471 0008 FFF7FEFF 		bl	osalSysLock
 472              		.loc 5 173 3
 473 000c 7868     		ldr	r0, [r7, #4]
 474 000e FFF7FEFF 		bl	sai_lld_stop_exchange
 475 0012 7B68     		ldr	r3, [r7, #4]
 476 0014 0222     		movs	r2, #2
 477 0016 1A70     		strb	r2, [r3]
 478              		.loc 5 174 3
 479 0018 FFF7FEFF 		bl	osalSysUnlock
 480              		.loc 5 175 1
 481 001c 00BF     		nop
 482 001e 0837     		adds	r7, r7, #8
 483              		.cfi_def_cfa_offset 8
 484 0020 BD46     		mov	sp, r7
 485              		.cfi_def_cfa_register 13
 486              		@ sp needed
 487 0022 80BD     		pop	{r7, pc}
 488              		.cfi_endproc
 489              	.LFE438:
 490              		.size	saiStopExchange, .-saiStopExchange
 491              		.text
 492              	.Letext0:
 493              		.file 6 "c:\\chibistudio\\tools\\gnu tools arm embedded\\11.3 2022.08\\lib\\gcc\\arm-none-eabi\\11
 494              		.file 7 "c:\\chibistudio\\tools\\gnu tools arm embedded\\11.3 2022.08\\arm-none-eabi\\include\\mac
 495              		.file 8 "c:\\chibistudio\\tools\\gnu tools arm embedded\\11.3 2022.08\\arm-none-eabi\\include\\sys
 496              		.file 9 "../../../os/rt/include/chearly.h"
 497              		.file 10 "../../../os/common/ext/ST/STM32H7xx/stm32h743xx.h"
 498              		.file 11 "../../../os/hal/ports/STM32/LLD/DMAv2/stm32_dma.h"
 499              		.file 12 "../../../os/hal/include/hal_sai.h"
 500              		.file 13 "../../../os/hal/ports/STM32/LLD/SAIv1/hal_sai_lld.h"
 501              		.section	.debug_info,"",%progbits
 502              	.Ldebug_info0:
 503 0000 A4070000 		.4byte	0x7a4
 504 0004 0500     		.2byte	0x5
 505 0006 01       		.byte	0x1
 506 0007 04       		.byte	0x4
 507 0008 00000000 		.4byte	.Ldebug_abbrev0
 508 000c 19       		.uleb128 0x19
 509 000d 92030000 		.4byte	.LASF85
 510 0011 1D       		.byte	0x1d
 511 0012 39000000 		.4byte	.LASF86
 512 0016 8F020000 		.4byte	.LASF87
 513 001a 0C000000 		.4byte	.LLRL0
ARM GAS  C:\Users\DEVELO~1\AppData\Local\Temp\ccUklYSj.s 			page 10


 514 001e 00000000 		.4byte	0
 515 0022 00000000 		.4byte	.Ldebug_line0
 516 0026 1A       		.uleb128 0x1a
 517 0027 04       		.byte	0x4
 518 0028 05       		.byte	0x5
 519 0029 696E7400 		.ascii	"int\000"
 520 002d 03       		.uleb128 0x3
 521 002e 7A000000 		.4byte	.LASF4
 522 0032 06       		.byte	0x6
 523 0033 D1       		.byte	0xd1
 524 0034 17       		.byte	0x17
 525 0035 39000000 		.4byte	0x39
 526 0039 04       		.uleb128 0x4
 527 003a 04       		.byte	0x4
 528 003b 07       		.byte	0x7
 529 003c 8B040000 		.4byte	.LASF0
 530 0040 04       		.uleb128 0x4
 531 0041 08       		.byte	0x8
 532 0042 05       		.byte	0x5
 533 0043 75010000 		.4byte	.LASF1
 534 0047 04       		.uleb128 0x4
 535 0048 08       		.byte	0x8
 536 0049 04       		.byte	0x4
 537 004a 69010000 		.4byte	.LASF2
 538 004e 04       		.uleb128 0x4
 539 004f 01       		.byte	0x1
 540 0050 06       		.byte	0x6
 541 0051 2A020000 		.4byte	.LASF3
 542 0055 03       		.uleb128 0x3
 543 0056 BB010000 		.4byte	.LASF5
 544 005a 07       		.byte	0x7
 545 005b 2B       		.byte	0x2b
 546 005c 18       		.byte	0x18
 547 005d 61000000 		.4byte	0x61
 548 0061 04       		.uleb128 0x4
 549 0062 01       		.byte	0x1
 550 0063 08       		.byte	0x8
 551 0064 EE010000 		.4byte	.LASF6
 552 0068 04       		.uleb128 0x4
 553 0069 02       		.byte	0x2
 554 006a 05       		.byte	0x5
 555 006b 70000000 		.4byte	.LASF7
 556 006f 04       		.uleb128 0x4
 557 0070 02       		.byte	0x2
 558 0071 07       		.byte	0x7
 559 0072 FD020000 		.4byte	.LASF8
 560 0076 03       		.uleb128 0x3
 561 0077 49040000 		.4byte	.LASF9
 562 007b 07       		.byte	0x7
 563 007c 4D       		.byte	0x4d
 564 007d 18       		.byte	0x18
 565 007e 82000000 		.4byte	0x82
 566 0082 04       		.uleb128 0x4
 567 0083 04       		.byte	0x4
 568 0084 05       		.byte	0x5
 569 0085 28030000 		.4byte	.LASF10
 570 0089 03       		.uleb128 0x3
ARM GAS  C:\Users\DEVELO~1\AppData\Local\Temp\ccUklYSj.s 			page 11


 571 008a CB010000 		.4byte	.LASF11
 572 008e 07       		.byte	0x7
 573 008f 4F       		.byte	0x4f
 574 0090 19       		.byte	0x19
 575 0091 95000000 		.4byte	0x95
 576 0095 04       		.uleb128 0x4
 577 0096 04       		.byte	0x4
 578 0097 07       		.byte	0x7
 579 0098 E5020000 		.4byte	.LASF12
 580 009c 04       		.uleb128 0x4
 581 009d 08       		.byte	0x8
 582 009e 07       		.byte	0x7
 583 009f 40020000 		.4byte	.LASF13
 584 00a3 03       		.uleb128 0x3
 585 00a4 33010000 		.4byte	.LASF14
 586 00a8 08       		.byte	0x8
 587 00a9 18       		.byte	0x18
 588 00aa 13       		.byte	0x13
 589 00ab 55000000 		.4byte	0x55
 590 00af 03       		.uleb128 0x3
 591 00b0 31030000 		.4byte	.LASF15
 592 00b4 08       		.byte	0x8
 593 00b5 2C       		.byte	0x2c
 594 00b6 13       		.byte	0x13
 595 00b7 76000000 		.4byte	0x76
 596 00bb 03       		.uleb128 0x3
 597 00bc 5C020000 		.4byte	.LASF16
 598 00c0 08       		.byte	0x8
 599 00c1 30       		.byte	0x30
 600 00c2 14       		.byte	0x14
 601 00c3 89000000 		.4byte	0x89
 602 00c7 1B       		.uleb128 0x1b
 603 00c8 BB000000 		.4byte	0xbb
 604 00cc 03       		.uleb128 0x3
 605 00cd A4040000 		.4byte	.LASF17
 606 00d1 09       		.byte	0x9
 607 00d2 58       		.byte	0x58
 608 00d3 19       		.byte	0x19
 609 00d4 AF000000 		.4byte	0xaf
 610 00d8 04       		.uleb128 0x4
 611 00d9 01       		.byte	0x1
 612 00da 08       		.byte	0x8
 613 00db 23030000 		.4byte	.LASF18
 614 00df 09       		.uleb128 0x9
 615 00e0 D8000000 		.4byte	0xd8
 616 00e4 1C       		.uleb128 0x1c
 617 00e5 04       		.byte	0x4
 618 00e6 0D       		.uleb128 0xd
 619 00e7 18       		.byte	0x18
 620 00e8 0A       		.byte	0xa
 621 00e9 3002     		.2byte	0x230
 622 00eb 43010000 		.4byte	0x143
 623 00ef 05       		.uleb128 0x5
 624 00f0 435200   		.ascii	"CR\000"
 625 00f3 0A       		.byte	0xa
 626 00f4 3202     		.2byte	0x232
 627 00f6 11       		.byte	0x11
ARM GAS  C:\Users\DEVELO~1\AppData\Local\Temp\ccUklYSj.s 			page 12


 628 00f7 C7000000 		.4byte	0xc7
 629 00fb 00       		.byte	0
 630 00fc 02       		.uleb128 0x2
 631 00fd 42010000 		.4byte	.LASF19
 632 0101 0A       		.byte	0xa
 633 0102 3302     		.2byte	0x233
 634 0104 11       		.byte	0x11
 635 0105 C7000000 		.4byte	0xc7
 636 0109 04       		.byte	0x4
 637 010a 05       		.uleb128 0x5
 638 010b 50415200 		.ascii	"PAR\000"
 639 010f 0A       		.byte	0xa
 640 0110 3402     		.2byte	0x234
 641 0112 11       		.byte	0x11
 642 0113 C7000000 		.4byte	0xc7
 643 0117 08       		.byte	0x8
 644 0118 02       		.uleb128 0x2
 645 0119 7F030000 		.4byte	.LASF20
 646 011d 0A       		.byte	0xa
 647 011e 3502     		.2byte	0x235
 648 0120 11       		.byte	0x11
 649 0121 C7000000 		.4byte	0xc7
 650 0125 0C       		.byte	0xc
 651 0126 02       		.uleb128 0x2
 652 0127 1E030000 		.4byte	.LASF21
 653 012b 0A       		.byte	0xa
 654 012c 3602     		.2byte	0x236
 655 012e 11       		.byte	0x11
 656 012f C7000000 		.4byte	0xc7
 657 0133 10       		.byte	0x10
 658 0134 05       		.uleb128 0x5
 659 0135 46435200 		.ascii	"FCR\000"
 660 0139 0A       		.byte	0xa
 661 013a 3702     		.2byte	0x237
 662 013c 11       		.byte	0x11
 663 013d C7000000 		.4byte	0xc7
 664 0141 14       		.byte	0x14
 665 0142 00       		.byte	0
 666 0143 0E       		.uleb128 0xe
 667 0144 57000000 		.4byte	.LASF22
 668 0148 0A       		.byte	0xa
 669 0149 3802     		.2byte	0x238
 670 014b 03       		.byte	0x3
 671 014c E6000000 		.4byte	0xe6
 672 0150 0D       		.uleb128 0xd
 673 0151 04       		.byte	0x4
 674 0152 0A       		.byte	0xa
 675 0153 5102     		.2byte	0x251
 676 0155 68010000 		.4byte	0x168
 677 0159 05       		.uleb128 0x5
 678 015a 43435200 		.ascii	"CCR\000"
 679 015e 0A       		.byte	0xa
 680 015f 5302     		.2byte	0x253
 681 0161 12       		.byte	0x12
 682 0162 C7000000 		.4byte	0xc7
 683 0166 00       		.byte	0
 684 0167 00       		.byte	0
ARM GAS  C:\Users\DEVELO~1\AppData\Local\Temp\ccUklYSj.s 			page 13


 685 0168 0E       		.uleb128 0xe
 686 0169 F7000000 		.4byte	.LASF23
 687 016d 0A       		.byte	0xa
 688 016e 5402     		.2byte	0x254
 689 0170 02       		.byte	0x2
 690 0171 50010000 		.4byte	0x150
 691 0175 0D       		.uleb128 0xd
 692 0176 4C       		.byte	0x4c
 693 0177 0A       		.byte	0xa
 694 0178 5405     		.2byte	0x554
 695 017a B7010000 		.4byte	0x1b7
 696 017e 05       		.uleb128 0x5
 697 017f 47435200 		.ascii	"GCR\000"
 698 0183 0A       		.byte	0xa
 699 0184 5605     		.2byte	0x556
 700 0186 11       		.byte	0x11
 701 0187 C7000000 		.4byte	0xc7
 702 018b 00       		.byte	0
 703 018c 02       		.uleb128 0x2
 704 018d 75030000 		.4byte	.LASF24
 705 0191 0A       		.byte	0xa
 706 0192 5705     		.2byte	0x557
 707 0194 11       		.byte	0x11
 708 0195 B7010000 		.4byte	0x1b7
 709 0199 04       		.byte	0x4
 710 019a 02       		.uleb128 0x2
 711 019b 1E000000 		.4byte	.LASF25
 712 019f 0A       		.byte	0xa
 713 01a0 5805     		.2byte	0x558
 714 01a2 11       		.byte	0x11
 715 01a3 C7000000 		.4byte	0xc7
 716 01a7 44       		.byte	0x44
 717 01a8 02       		.uleb128 0x2
 718 01a9 8C010000 		.4byte	.LASF26
 719 01ad 0A       		.byte	0xa
 720 01ae 5905     		.2byte	0x559
 721 01b0 11       		.byte	0x11
 722 01b1 C7000000 		.4byte	0xc7
 723 01b5 48       		.byte	0x48
 724 01b6 00       		.byte	0
 725 01b7 0A       		.uleb128 0xa
 726 01b8 BB000000 		.4byte	0xbb
 727 01bc C7010000 		.4byte	0x1c7
 728 01c0 0B       		.uleb128 0xb
 729 01c1 39000000 		.4byte	0x39
 730 01c5 0F       		.byte	0xf
 731 01c6 00       		.byte	0
 732 01c7 0E       		.uleb128 0xe
 733 01c8 E4000000 		.4byte	.LASF27
 734 01cc 0A       		.byte	0xa
 735 01cd 5A05     		.2byte	0x55a
 736 01cf 03       		.byte	0x3
 737 01d0 75010000 		.4byte	0x175
 738 01d4 0D       		.uleb128 0xd
 739 01d5 20       		.byte	0x20
 740 01d6 0A       		.byte	0xa
 741 01d7 5C05     		.2byte	0x55c
ARM GAS  C:\Users\DEVELO~1\AppData\Local\Temp\ccUklYSj.s 			page 14


 742 01d9 4C020000 		.4byte	0x24c
 743 01dd 05       		.uleb128 0x5
 744 01de 43523100 		.ascii	"CR1\000"
 745 01e2 0A       		.byte	0xa
 746 01e3 5E05     		.2byte	0x55e
 747 01e5 11       		.byte	0x11
 748 01e6 C7000000 		.4byte	0xc7
 749 01ea 00       		.byte	0
 750 01eb 05       		.uleb128 0x5
 751 01ec 43523200 		.ascii	"CR2\000"
 752 01f0 0A       		.byte	0xa
 753 01f1 5F05     		.2byte	0x55f
 754 01f3 11       		.byte	0x11
 755 01f4 C7000000 		.4byte	0xc7
 756 01f8 04       		.byte	0x4
 757 01f9 02       		.uleb128 0x2
 758 01fa 57020000 		.4byte	.LASF28
 759 01fe 0A       		.byte	0xa
 760 01ff 6005     		.2byte	0x560
 761 0201 11       		.byte	0x11
 762 0202 C7000000 		.4byte	0xc7
 763 0206 08       		.byte	0x8
 764 0207 02       		.uleb128 0x2
 765 0208 DC010000 		.4byte	.LASF29
 766 020c 0A       		.byte	0xa
 767 020d 6105     		.2byte	0x561
 768 020f 11       		.byte	0x11
 769 0210 C7000000 		.4byte	0xc7
 770 0214 0C       		.byte	0xc
 771 0215 05       		.uleb128 0x5
 772 0216 494D5200 		.ascii	"IMR\000"
 773 021a 0A       		.byte	0xa
 774 021b 6205     		.2byte	0x562
 775 021d 11       		.byte	0x11
 776 021e C7000000 		.4byte	0xc7
 777 0222 10       		.byte	0x10
 778 0223 05       		.uleb128 0x5
 779 0224 535200   		.ascii	"SR\000"
 780 0227 0A       		.byte	0xa
 781 0228 6305     		.2byte	0x563
 782 022a 11       		.byte	0x11
 783 022b C7000000 		.4byte	0xc7
 784 022f 14       		.byte	0x14
 785 0230 02       		.uleb128 0x2
 786 0231 25040000 		.4byte	.LASF30
 787 0235 0A       		.byte	0xa
 788 0236 6405     		.2byte	0x564
 789 0238 11       		.byte	0x11
 790 0239 C7000000 		.4byte	0xc7
 791 023d 18       		.byte	0x18
 792 023e 05       		.uleb128 0x5
 793 023f 445200   		.ascii	"DR\000"
 794 0242 0A       		.byte	0xa
 795 0243 6505     		.2byte	0x565
 796 0245 11       		.byte	0x11
 797 0246 C7000000 		.4byte	0xc7
 798 024a 1C       		.byte	0x1c
ARM GAS  C:\Users\DEVELO~1\AppData\Local\Temp\ccUklYSj.s 			page 15


 799 024b 00       		.byte	0
 800 024c 0E       		.uleb128 0xe
 801 024d D2000000 		.4byte	.LASF31
 802 0251 0A       		.byte	0xa
 803 0252 6605     		.2byte	0x566
 804 0254 03       		.byte	0x3
 805 0255 D4010000 		.4byte	0x1d4
 806 0259 04       		.uleb128 0x4
 807 025a 01       		.byte	0x1
 808 025b 02       		.byte	0x2
 809 025c 47030000 		.4byte	.LASF32
 810 0260 0D       		.uleb128 0xd
 811 0261 10       		.byte	0x10
 812 0262 0B       		.byte	0xb
 813 0263 A701     		.2byte	0x1a7
 814 0265 BE020000 		.4byte	0x2be
 815 0269 02       		.uleb128 0x2
 816 026a A6010000 		.4byte	.LASF33
 817 026e 0B       		.byte	0xb
 818 026f A801     		.2byte	0x1a8
 819 0271 1A       		.byte	0x1a
 820 0272 BE020000 		.4byte	0x2be
 821 0276 00       		.byte	0
 822 0277 02       		.uleb128 0x2
 823 0278 9F040000 		.4byte	.LASF34
 824 027c 0B       		.byte	0xb
 825 027d A901     		.2byte	0x1a9
 826 027f 1A       		.byte	0x1a
 827 0280 C3020000 		.4byte	0x2c3
 828 0284 04       		.byte	0x4
 829 0285 05       		.uleb128 0x5
 830 0286 6D757800 		.ascii	"mux\000"
 831 028a 0B       		.byte	0xb
 832 028b AB01     		.2byte	0x1ab
 833 028d 1B       		.byte	0x1b
 834 028e C8020000 		.4byte	0x2c8
 835 0292 08       		.byte	0x8
 836 0293 02       		.uleb128 0x2
 837 0294 A0010000 		.4byte	.LASF35
 838 0298 0B       		.byte	0xb
 839 0299 AF01     		.2byte	0x1af
 840 029b 19       		.byte	0x19
 841 029c A3000000 		.4byte	0xa3
 842 02a0 0C       		.byte	0xc
 843 02a1 02       		.uleb128 0x2
 844 02a2 7B020000 		.4byte	.LASF36
 845 02a6 0B       		.byte	0xb
 846 02a7 B101     		.2byte	0x1b1
 847 02a9 19       		.byte	0x19
 848 02aa A3000000 		.4byte	0xa3
 849 02ae 0D       		.byte	0xd
 850 02af 02       		.uleb128 0x2
 851 02b0 3B010000 		.4byte	.LASF37
 852 02b4 0B       		.byte	0xb
 853 02b5 B201     		.2byte	0x1b2
 854 02b7 19       		.byte	0x19
 855 02b8 A3000000 		.4byte	0xa3
ARM GAS  C:\Users\DEVELO~1\AppData\Local\Temp\ccUklYSj.s 			page 16


 856 02bc 0E       		.byte	0xe
 857 02bd 00       		.byte	0
 858 02be 06       		.uleb128 0x6
 859 02bf 43010000 		.4byte	0x143
 860 02c3 06       		.uleb128 0x6
 861 02c4 C7000000 		.4byte	0xc7
 862 02c8 06       		.uleb128 0x6
 863 02c9 68010000 		.4byte	0x168
 864 02cd 0E       		.uleb128 0xe
 865 02ce 0E010000 		.4byte	.LASF38
 866 02d2 0B       		.byte	0xb
 867 02d3 B301     		.2byte	0x1b3
 868 02d5 03       		.byte	0x3
 869 02d6 60020000 		.4byte	0x260
 870 02da 09       		.uleb128 0x9
 871 02db CD020000 		.4byte	0x2cd
 872 02df 06       		.uleb128 0x6
 873 02e0 DA020000 		.4byte	0x2da
 874 02e4 1D       		.uleb128 0x1d
 875 02e5 07       		.byte	0x7
 876 02e6 01       		.byte	0x1
 877 02e7 61000000 		.4byte	0x61
 878 02eb 0C       		.byte	0xc
 879 02ec 25       		.byte	0x25
 880 02ed 0E       		.byte	0xe
 881 02ee 0B030000 		.4byte	0x30b
 882 02f2 10       		.uleb128 0x10
 883 02f3 00000000 		.4byte	.LASF39
 884 02f7 00       		.byte	0
 885 02f8 10       		.uleb128 0x10
 886 02f9 AA040000 		.4byte	.LASF40
 887 02fd 01       		.byte	0x1
 888 02fe 10       		.uleb128 0x10
 889 02ff 14000000 		.4byte	.LASF41
 890 0303 02       		.byte	0x2
 891 0304 10       		.uleb128 0x10
 892 0305 A3000000 		.4byte	.LASF42
 893 0309 03       		.byte	0x3
 894 030a 00       		.byte	0
 895 030b 03       		.uleb128 0x3
 896 030c 47010000 		.4byte	.LASF43
 897 0310 0C       		.byte	0xc
 898 0311 2A       		.byte	0x2a
 899 0312 03       		.byte	0x3
 900 0313 E4020000 		.4byte	0x2e4
 901 0317 03       		.uleb128 0x3
 902 0318 36020000 		.4byte	.LASF44
 903 031c 0C       		.byte	0xc
 904 031d 2F       		.byte	0x2f
 905 031e 1F       		.byte	0x1f
 906 031f 23030000 		.4byte	0x323
 907 0323 14       		.uleb128 0x14
 908 0324 76040000 		.4byte	.LASF57
 909 0328 30       		.byte	0x30
 910 0329 45       		.byte	0x45
 911 032a BE030000 		.4byte	0x3be
 912 032e 01       		.uleb128 0x1
ARM GAS  C:\Users\DEVELO~1\AppData\Local\Temp\ccUklYSj.s 			page 17


 913 032f 6A000000 		.4byte	.LASF45
 914 0333 49       		.byte	0x49
 915 0334 1D       		.byte	0x1d
 916 0335 0B030000 		.4byte	0x30b
 917 0339 00       		.byte	0
 918 033a 01       		.uleb128 0x1
 919 033b F0000000 		.4byte	.LASF46
 920 033f 4D       		.byte	0x4d
 921 0340 1E       		.byte	0x1e
 922 0341 76040000 		.4byte	0x476
 923 0345 04       		.byte	0x4
 924 0346 11       		.uleb128 0x11
 925 0347 73616900 		.ascii	"sai\000"
 926 034b 4F       		.byte	0x4f
 927 034c 7B040000 		.4byte	0x47b
 928 0350 08       		.byte	0x8
 929 0351 01       		.uleb128 0x1
 930 0352 53040000 		.4byte	.LASF47
 931 0356 4F       		.byte	0x4f
 932 0357 03       		.byte	0x3
 933 0358 80040000 		.4byte	0x480
 934 035c 0C       		.byte	0xc
 935 035d 01       		.uleb128 0x1
 936 035e C5010000 		.4byte	.LASF48
 937 0362 4F       		.byte	0x4f
 938 0363 03       		.byte	0x3
 939 0364 A3000000 		.4byte	0xa3
 940 0368 10       		.byte	0x10
 941 0369 01       		.uleb128 0x1
 942 036a 33000000 		.4byte	.LASF49
 943 036e 4F       		.byte	0x4f
 944 036f 03       		.byte	0x3
 945 0370 DF020000 		.4byte	0x2df
 946 0374 14       		.byte	0x14
 947 0375 01       		.uleb128 0x1
 948 0376 F7020000 		.4byte	.LASF50
 949 037a 4F       		.byte	0x4f
 950 037b 03       		.byte	0x3
 951 037c DF020000 		.4byte	0x2df
 952 0380 18       		.byte	0x18
 953 0381 01       		.uleb128 0x1
 954 0382 FC010000 		.4byte	.LASF51
 955 0386 4F       		.byte	0x4f
 956 0387 03       		.byte	0x3
 957 0388 BB000000 		.4byte	0xbb
 958 038c 1C       		.byte	0x1c
 959 038d 01       		.uleb128 0x1
 960 038e 85020000 		.4byte	.LASF52
 961 0392 4F       		.byte	0x4f
 962 0393 03       		.byte	0x3
 963 0394 BB000000 		.4byte	0xbb
 964 0398 20       		.byte	0x20
 965 0399 01       		.uleb128 0x1
 966 039a 18030000 		.4byte	.LASF53
 967 039e 4F       		.byte	0x4f
 968 039f 03       		.byte	0x3
 969 03a0 85040000 		.4byte	0x485
ARM GAS  C:\Users\DEVELO~1\AppData\Local\Temp\ccUklYSj.s 			page 18


 970 03a4 24       		.byte	0x24
 971 03a5 01       		.uleb128 0x1
 972 03a6 85040000 		.4byte	.LASF54
 973 03aa 4F       		.byte	0x4f
 974 03ab 03       		.byte	0x3
 975 03ac E4000000 		.4byte	0xe4
 976 03b0 28       		.byte	0x28
 977 03b1 01       		.uleb128 0x1
 978 03b2 2B040000 		.4byte	.LASF55
 979 03b6 4F       		.byte	0x4f
 980 03b7 03       		.byte	0x3
 981 03b8 2D000000 		.4byte	0x2d
 982 03bc 2C       		.byte	0x2c
 983 03bd 00       		.byte	0
 984 03be 03       		.uleb128 0x3
 985 03bf AE000000 		.4byte	.LASF56
 986 03c3 0C       		.byte	0xc
 987 03c4 34       		.byte	0x34
 988 03c5 1F       		.byte	0x1f
 989 03c6 CF030000 		.4byte	0x3cf
 990 03ca 09       		.uleb128 0x9
 991 03cb BE030000 		.4byte	0x3be
 992 03cf 14       		.uleb128 0x14
 993 03d0 24000000 		.4byte	.LASF58
 994 03d4 28       		.byte	0x28
 995 03d5 55       		.byte	0x55
 996 03d6 50040000 		.4byte	0x450
 997 03da 01       		.uleb128 0x1
 998 03db 06020000 		.4byte	.LASF59
 999 03df 5A       		.byte	0x5a
 1000 03e0 1E       		.byte	0x1e
 1001 03e1 85040000 		.4byte	0x485
 1002 03e5 00       		.byte	0
 1003 03e6 01       		.uleb128 0x1
 1004 03e7 63030000 		.4byte	.LASF60
 1005 03eb 5F       		.byte	0x5f
 1006 03ec 1E       		.byte	0x1e
 1007 03ed E4000000 		.4byte	0xe4
 1008 03f1 04       		.byte	0x4
 1009 03f2 01       		.uleb128 0x1
 1010 03f3 38040000 		.4byte	.LASF61
 1011 03f7 63       		.byte	0x63
 1012 03f8 1D       		.byte	0x1d
 1013 03f9 2D000000 		.4byte	0x2d
 1014 03fd 08       		.byte	0x8
 1015 03fe 01       		.uleb128 0x1
 1016 03ff 98040000 		.4byte	.LASF62
 1017 0403 67       		.byte	0x67
 1018 0404 1D       		.byte	0x1d
 1019 0405 50040000 		.4byte	0x450
 1020 0409 0C       		.byte	0xc
 1021 040a 11       		.uleb128 0x11
 1022 040b 67637200 		.ascii	"gcr\000"
 1023 040f 69       		.byte	0x69
 1024 0410 BB000000 		.4byte	0xbb
 1025 0414 10       		.byte	0x10
 1026 0415 11       		.uleb128 0x11
ARM GAS  C:\Users\DEVELO~1\AppData\Local\Temp\ccUklYSj.s 			page 19


 1027 0416 63723100 		.ascii	"cr1\000"
 1028 041a 69       		.byte	0x69
 1029 041b BB000000 		.4byte	0xbb
 1030 041f 14       		.byte	0x14
 1031 0420 11       		.uleb128 0x11
 1032 0421 63723200 		.ascii	"cr2\000"
 1033 0425 69       		.byte	0x69
 1034 0426 BB000000 		.4byte	0xbb
 1035 042a 18       		.byte	0x18
 1036 042b 01       		.uleb128 0x1
 1037 042c 33040000 		.4byte	.LASF63
 1038 0430 69       		.byte	0x69
 1039 0431 03       		.byte	0x3
 1040 0432 BB000000 		.4byte	0xbb
 1041 0436 1C       		.byte	0x1c
 1042 0437 01       		.uleb128 0x1
 1043 0438 D6010000 		.4byte	.LASF64
 1044 043c 69       		.byte	0x69
 1045 043d 03       		.byte	0x3
 1046 043e BB000000 		.4byte	0xbb
 1047 0442 20       		.byte	0x20
 1048 0443 01       		.uleb128 0x1
 1049 0444 83010000 		.4byte	.LASF65
 1050 0448 69       		.byte	0x69
 1051 0449 03       		.byte	0x3
 1052 044a BB000000 		.4byte	0xbb
 1053 044e 24       		.byte	0x24
 1054 044f 00       		.byte	0
 1055 0450 03       		.uleb128 0x3
 1056 0451 AD010000 		.4byte	.LASF66
 1057 0455 0C       		.byte	0xc
 1058 0456 3C       		.byte	0x3c
 1059 0457 10       		.byte	0x10
 1060 0458 5C040000 		.4byte	0x45c
 1061 045c 06       		.uleb128 0x6
 1062 045d 61040000 		.4byte	0x461
 1063 0461 1E       		.uleb128 0x1e
 1064 0462 71040000 		.4byte	0x471
 1065 0466 07       		.uleb128 0x7
 1066 0467 71040000 		.4byte	0x471
 1067 046b 07       		.uleb128 0x7
 1068 046c 59020000 		.4byte	0x259
 1069 0470 00       		.byte	0
 1070 0471 06       		.uleb128 0x6
 1071 0472 17030000 		.4byte	0x317
 1072 0476 06       		.uleb128 0x6
 1073 0477 CA030000 		.4byte	0x3ca
 1074 047b 06       		.uleb128 0x6
 1075 047c C7010000 		.4byte	0x1c7
 1076 0480 06       		.uleb128 0x6
 1077 0481 4C020000 		.4byte	0x24c
 1078 0485 06       		.uleb128 0x6
 1079 0486 8A040000 		.4byte	0x48a
 1080 048a 1F       		.uleb128 0x1f
 1081 048b 0F       		.uleb128 0xf
 1082 048c 65020000 		.4byte	.LASF67
 1083 0490 0801     		.2byte	0x108
ARM GAS  C:\Users\DEVELO~1\AppData\Local\Temp\ccUklYSj.s 			page 20


 1084 0492 9C040000 		.4byte	0x49c
 1085 0496 07       		.uleb128 0x7
 1086 0497 71040000 		.4byte	0x471
 1087 049b 00       		.byte	0
 1088 049c 0F       		.uleb128 0xf
 1089 049d 52010000 		.4byte	.LASF68
 1090 04a1 0701     		.2byte	0x107
 1091 04a3 AD040000 		.4byte	0x4ad
 1092 04a7 07       		.uleb128 0x7
 1093 04a8 71040000 		.4byte	0x471
 1094 04ac 00       		.byte	0
 1095 04ad 0F       		.uleb128 0xf
 1096 04ae 81000000 		.4byte	.LASF69
 1097 04b2 0301     		.2byte	0x103
 1098 04b4 CD040000 		.4byte	0x4cd
 1099 04b8 07       		.uleb128 0x7
 1100 04b9 71040000 		.4byte	0x471
 1101 04bd 07       		.uleb128 0x7
 1102 04be 85040000 		.4byte	0x485
 1103 04c2 07       		.uleb128 0x7
 1104 04c3 E4000000 		.4byte	0xe4
 1105 04c7 07       		.uleb128 0x7
 1106 04c8 2D000000 		.4byte	0x2d
 1107 04cc 00       		.byte	0
 1108 04cd 0F       		.uleb128 0xf
 1109 04ce 26010000 		.4byte	.LASF70
 1110 04d2 0201     		.2byte	0x102
 1111 04d4 DE040000 		.4byte	0x4de
 1112 04d8 07       		.uleb128 0x7
 1113 04d9 71040000 		.4byte	0x471
 1114 04dd 00       		.byte	0
 1115 04de 0F       		.uleb128 0xf
 1116 04df 5A040000 		.4byte	.LASF71
 1117 04e3 0101     		.2byte	0x101
 1118 04e5 EF040000 		.4byte	0x4ef
 1119 04e9 07       		.uleb128 0x7
 1120 04ea 71040000 		.4byte	0x471
 1121 04ee 00       		.byte	0
 1122 04ef 20       		.uleb128 0x20
 1123 04f0 93010000 		.4byte	.LASF88
 1124 04f4 0D       		.byte	0xd
 1125 04f5 0001     		.2byte	0x100
 1126 04f7 08       		.byte	0x8
 1127 04f8 12       		.uleb128 0x12
 1128 04f9 B8000000 		.4byte	.LASF72
 1129 04fd A7       		.byte	0xa7
 1130 04fe 00000000 		.4byte	.LFB438
 1131 0502 24000000 		.4byte	.LFE438-.LFB438
 1132 0506 01       		.uleb128 0x1
 1133 0507 9C       		.byte	0x9c
 1134 0508 24050000 		.4byte	0x524
 1135 050c 08       		.uleb128 0x8
 1136 050d 21010000 		.4byte	.LASF74
 1137 0511 A7       		.byte	0xa7
 1138 0512 21       		.byte	0x21
 1139 0513 71040000 		.4byte	0x471
 1140 0517 02       		.uleb128 0x2
ARM GAS  C:\Users\DEVELO~1\AppData\Local\Temp\ccUklYSj.s 			page 21


 1141 0518 91       		.byte	0x91
 1142 0519 74       		.sleb128 -12
 1143 051a 0C       		.uleb128 0xc
 1144 051b 10020000 		.4byte	.LASF75
 1145 051f 34050000 		.4byte	0x534
 1146 0523 00       		.byte	0
 1147 0524 0A       		.uleb128 0xa
 1148 0525 DF000000 		.4byte	0xdf
 1149 0529 34050000 		.4byte	0x534
 1150 052d 0B       		.uleb128 0xb
 1151 052e 39000000 		.4byte	0x39
 1152 0532 0F       		.byte	0xf
 1153 0533 00       		.byte	0
 1154 0534 09       		.uleb128 0x9
 1155 0535 24050000 		.4byte	0x524
 1156 0539 12       		.uleb128 0x12
 1157 053a 19020000 		.4byte	.LASF73
 1158 053e 96       		.byte	0x96
 1159 053f 00000000 		.4byte	.LFB437
 1160 0543 24000000 		.4byte	.LFE437-.LFB437
 1161 0547 01       		.uleb128 0x1
 1162 0548 9C       		.byte	0x9c
 1163 0549 65050000 		.4byte	0x565
 1164 054d 08       		.uleb128 0x8
 1165 054e 21010000 		.4byte	.LASF74
 1166 0552 96       		.byte	0x96
 1167 0553 22       		.byte	0x22
 1168 0554 71040000 		.4byte	0x471
 1169 0558 02       		.uleb128 0x2
 1170 0559 91       		.byte	0x91
 1171 055a 74       		.sleb128 -12
 1172 055b 0C       		.uleb128 0xc
 1173 055c 10020000 		.4byte	.LASF75
 1174 0560 75050000 		.4byte	0x575
 1175 0564 00       		.byte	0
 1176 0565 0A       		.uleb128 0xa
 1177 0566 DF000000 		.4byte	0xdf
 1178 056a 75050000 		.4byte	0x575
 1179 056e 0B       		.uleb128 0xb
 1180 056f 39000000 		.4byte	0x39
 1181 0573 10       		.byte	0x10
 1182 0574 00       		.byte	0
 1183 0575 09       		.uleb128 0x9
 1184 0576 65050000 		.4byte	0x565
 1185 057a 12       		.uleb128 0x12
 1186 057b 84030000 		.4byte	.LASF76
 1187 057f 80       		.byte	0x80
 1188 0580 00000000 		.4byte	.LFB436
 1189 0584 2A000000 		.4byte	.LFE436-.LFB436
 1190 0588 01       		.uleb128 0x1
 1191 0589 9C       		.byte	0x9c
 1192 058a D0050000 		.4byte	0x5d0
 1193 058e 08       		.uleb128 0x8
 1194 058f 21010000 		.4byte	.LASF74
 1195 0593 80       		.byte	0x80
 1196 0594 1F       		.byte	0x1f
 1197 0595 71040000 		.4byte	0x471
ARM GAS  C:\Users\DEVELO~1\AppData\Local\Temp\ccUklYSj.s 			page 22


 1198 0599 02       		.uleb128 0x2
 1199 059a 91       		.byte	0x91
 1200 059b 74       		.sleb128 -12
 1201 059c 08       		.uleb128 0x8
 1202 059d 06020000 		.4byte	.LASF59
 1203 05a1 81       		.byte	0x81
 1204 05a2 20       		.byte	0x20
 1205 05a3 85040000 		.4byte	0x485
 1206 05a7 02       		.uleb128 0x2
 1207 05a8 91       		.byte	0x91
 1208 05a9 70       		.sleb128 -16
 1209 05aa 08       		.uleb128 0x8
 1210 05ab 63030000 		.4byte	.LASF60
 1211 05af 82       		.byte	0x82
 1212 05b0 1A       		.byte	0x1a
 1213 05b1 E4000000 		.4byte	0xe4
 1214 05b5 02       		.uleb128 0x2
 1215 05b6 91       		.byte	0x91
 1216 05b7 6C       		.sleb128 -20
 1217 05b8 08       		.uleb128 0x8
 1218 05b9 38040000 		.4byte	.LASF61
 1219 05bd 83       		.byte	0x83
 1220 05be 1B       		.byte	0x1b
 1221 05bf 2D000000 		.4byte	0x2d
 1222 05c3 02       		.uleb128 0x2
 1223 05c4 91       		.byte	0x91
 1224 05c5 68       		.sleb128 -24
 1225 05c6 0C       		.uleb128 0xc
 1226 05c7 10020000 		.4byte	.LASF75
 1227 05cb E0050000 		.4byte	0x5e0
 1228 05cf 00       		.byte	0
 1229 05d0 0A       		.uleb128 0xa
 1230 05d1 DF000000 		.4byte	0xdf
 1231 05d5 E0050000 		.4byte	0x5e0
 1232 05d9 0B       		.uleb128 0xb
 1233 05da 39000000 		.4byte	0x39
 1234 05de 0D       		.byte	0xd
 1235 05df 00       		.byte	0
 1236 05e0 09       		.uleb128 0x9
 1237 05e1 D0050000 		.4byte	0x5d0
 1238 05e5 12       		.uleb128 0x12
 1239 05e6 6D030000 		.4byte	.LASF77
 1240 05ea 67       		.byte	0x67
 1241 05eb 00000000 		.4byte	.LFB435
 1242 05ef 2A000000 		.4byte	.LFE435-.LFB435
 1243 05f3 01       		.uleb128 0x1
 1244 05f4 9C       		.byte	0x9c
 1245 05f5 11060000 		.4byte	0x611
 1246 05f9 08       		.uleb128 0x8
 1247 05fa 21010000 		.4byte	.LASF74
 1248 05fe 67       		.byte	0x67
 1249 05ff 19       		.byte	0x19
 1250 0600 71040000 		.4byte	0x471
 1251 0604 02       		.uleb128 0x2
 1252 0605 91       		.byte	0x91
 1253 0606 74       		.sleb128 -12
 1254 0607 0C       		.uleb128 0xc
ARM GAS  C:\Users\DEVELO~1\AppData\Local\Temp\ccUklYSj.s 			page 23


 1255 0608 10020000 		.4byte	.LASF75
 1256 060c 21060000 		.4byte	0x621
 1257 0610 00       		.byte	0
 1258 0611 0A       		.uleb128 0xa
 1259 0612 DF000000 		.4byte	0xdf
 1260 0616 21060000 		.4byte	0x621
 1261 061a 0B       		.uleb128 0xb
 1262 061b 39000000 		.4byte	0x39
 1263 061f 07       		.byte	0x7
 1264 0620 00       		.byte	0
 1265 0621 09       		.uleb128 0x9
 1266 0622 11060000 		.4byte	0x611
 1267 0626 21       		.uleb128 0x21
 1268 0627 0B000000 		.4byte	.LASF89
 1269 062b 05       		.byte	0x5
 1270 062c 42       		.byte	0x42
 1271 062d 07       		.byte	0x7
 1272 062e CC000000 		.4byte	0xcc
 1273 0632 00000000 		.4byte	.LFB434
 1274 0636 32000000 		.4byte	.LFE434-.LFB434
 1275 063a 01       		.uleb128 0x1
 1276 063b 9C       		.byte	0x9c
 1277 063c 75060000 		.4byte	0x675
 1278 0640 08       		.uleb128 0x8
 1279 0641 21010000 		.4byte	.LASF74
 1280 0645 42       		.byte	0x42
 1281 0646 1B       		.byte	0x1b
 1282 0647 71040000 		.4byte	0x471
 1283 064b 02       		.uleb128 0x2
 1284 064c 91       		.byte	0x91
 1285 064d 6C       		.sleb128 -20
 1286 064e 08       		.uleb128 0x8
 1287 064f F0000000 		.4byte	.LASF46
 1288 0653 42       		.byte	0x42
 1289 0654 32       		.byte	0x32
 1290 0655 76040000 		.4byte	0x476
 1291 0659 02       		.uleb128 0x2
 1292 065a 91       		.byte	0x91
 1293 065b 68       		.sleb128 -24
 1294 065c 22       		.uleb128 0x22
 1295 065d 6D736700 		.ascii	"msg\000"
 1296 0661 05       		.byte	0x5
 1297 0662 43       		.byte	0x43
 1298 0663 09       		.byte	0x9
 1299 0664 CC000000 		.4byte	0xcc
 1300 0668 02       		.uleb128 0x2
 1301 0669 91       		.byte	0x91
 1302 066a 74       		.sleb128 -12
 1303 066b 0C       		.uleb128 0xc
 1304 066c 10020000 		.4byte	.LASF75
 1305 0670 85060000 		.4byte	0x685
 1306 0674 00       		.byte	0
 1307 0675 0A       		.uleb128 0xa
 1308 0676 DF000000 		.4byte	0xdf
 1309 067a 85060000 		.4byte	0x685
 1310 067e 0B       		.uleb128 0xb
 1311 067f 39000000 		.4byte	0x39
ARM GAS  C:\Users\DEVELO~1\AppData\Local\Temp\ccUklYSj.s 			page 24


 1312 0683 08       		.byte	0x8
 1313 0684 00       		.byte	0
 1314 0685 09       		.uleb128 0x9
 1315 0686 75060000 		.4byte	0x675
 1316 068a 23       		.uleb128 0x23
 1317 068b 39030000 		.4byte	.LASF78
 1318 068f 05       		.byte	0x5
 1319 0690 33       		.byte	0x33
 1320 0691 06       		.byte	0x6
 1321 0692 00000000 		.4byte	.LFB433
 1322 0696 1E000000 		.4byte	.LFE433-.LFB433
 1323 069a 01       		.uleb128 0x1
 1324 069b 9C       		.byte	0x9c
 1325 069c AF060000 		.4byte	0x6af
 1326 06a0 08       		.uleb128 0x8
 1327 06a1 21010000 		.4byte	.LASF74
 1328 06a5 33       		.byte	0x33
 1329 06a6 1F       		.byte	0x1f
 1330 06a7 71040000 		.4byte	0x471
 1331 06ab 02       		.uleb128 0x2
 1332 06ac 91       		.byte	0x91
 1333 06ad 74       		.sleb128 -12
 1334 06ae 00       		.byte	0
 1335 06af 24       		.uleb128 0x24
 1336 06b0 1D040000 		.4byte	.LASF90
 1337 06b4 05       		.byte	0x5
 1338 06b5 27       		.byte	0x27
 1339 06b6 06       		.byte	0x6
 1340 06b7 00000000 		.4byte	.LFB432
 1341 06bb 0C000000 		.4byte	.LFE432-.LFB432
 1342 06bf 01       		.uleb128 0x1
 1343 06c0 9C       		.byte	0x9c
 1344 06c1 15       		.uleb128 0x15
 1345 06c2 95000000 		.4byte	.LASF79
 1346 06c6 4802     		.2byte	0x248
 1347 06c8 00000000 		.4byte	.LFB351
 1348 06cc 0C000000 		.4byte	.LFE351-.LFB351
 1349 06d0 01       		.uleb128 0x1
 1350 06d1 9C       		.byte	0x9c
 1351 06d2 15       		.uleb128 0x15
 1352 06d3 E2010000 		.4byte	.LASF80
 1353 06d7 3D02     		.2byte	0x23d
 1354 06d9 00000000 		.4byte	.LFB350
 1355 06dd 0C000000 		.4byte	.LFE350-.LFB350
 1356 06e1 01       		.uleb128 0x1
 1357 06e2 9C       		.byte	0x9c
 1358 06e3 16       		.uleb128 0x16
 1359 06e4 3D040000 		.4byte	.LASF81
 1360 06e8 A501     		.2byte	0x1a5
 1361 06ea 00000000 		.4byte	.LFB203
 1362 06ee 1E000000 		.4byte	.LFE203-.LFB203
 1363 06f2 01       		.uleb128 0x1
 1364 06f3 9C       		.byte	0x9c
 1365 06f4 2C070000 		.4byte	0x72c
 1366 06f8 0C       		.uleb128 0xc
 1367 06f9 10020000 		.4byte	.LASF75
 1368 06fd 3C070000 		.4byte	0x73c
ARM GAS  C:\Users\DEVELO~1\AppData\Local\Temp\ccUklYSj.s 			page 25


 1369 0701 13       		.uleb128 0x13
 1370 0702 81070000 		.4byte	0x781
 1371 0706 0A000000 		.4byte	.LBB18
 1372 070a 0A000000 		.4byte	.LBE18-.LBB18
 1373 070e 01       		.byte	0x1
 1374 070f B201     		.2byte	0x1b2
 1375 0711 13       		.uleb128 0x13
 1376 0712 8F070000 		.4byte	0x78f
 1377 0716 0A000000 		.4byte	.LBB20
 1378 071a 08000000 		.4byte	.LBE20-.LBB20
 1379 071e 03       		.byte	0x3
 1380 071f 5203     		.2byte	0x352
 1381 0721 17       		.uleb128 0x17
 1382 0722 99070000 		.4byte	0x799
 1383 0726 02       		.uleb128 0x2
 1384 0727 91       		.byte	0x91
 1385 0728 74       		.sleb128 -12
 1386 0729 00       		.byte	0
 1387 072a 00       		.byte	0
 1388 072b 00       		.byte	0
 1389 072c 0A       		.uleb128 0xa
 1390 072d DF000000 		.4byte	0xdf
 1391 0731 3C070000 		.4byte	0x73c
 1392 0735 0B       		.uleb128 0xb
 1393 0736 39000000 		.4byte	0x39
 1394 073a 0B       		.byte	0xb
 1395 073b 00       		.byte	0
 1396 073c 09       		.uleb128 0x9
 1397 073d 2C070000 		.4byte	0x72c
 1398 0741 16       		.uleb128 0x16
 1399 0742 C8000000 		.4byte	.LASF82
 1400 0746 9701     		.2byte	0x197
 1401 0748 00000000 		.4byte	.LFB202
 1402 074c 1E000000 		.4byte	.LFE202-.LFB202
 1403 0750 01       		.uleb128 0x1
 1404 0751 9C       		.byte	0x9c
 1405 0752 81070000 		.4byte	0x781
 1406 0756 13       		.uleb128 0x13
 1407 0757 88070000 		.4byte	0x788
 1408 075b 0A000000 		.4byte	.LBB14
 1409 075f 0A000000 		.4byte	.LBE14-.LBB14
 1410 0763 01       		.byte	0x1
 1411 0764 9901     		.2byte	0x199
 1412 0766 13       		.uleb128 0x13
 1413 0767 8F070000 		.4byte	0x78f
 1414 076b 0A000000 		.4byte	.LBB16
 1415 076f 08000000 		.4byte	.LBE16-.LBB16
 1416 0773 03       		.byte	0x3
 1417 0774 3F03     		.2byte	0x33f
 1418 0776 17       		.uleb128 0x17
 1419 0777 99070000 		.4byte	0x799
 1420 077b 02       		.uleb128 0x2
 1421 077c 91       		.byte	0x91
 1422 077d 74       		.sleb128 -12
 1423 077e 00       		.byte	0
 1424 077f 00       		.byte	0
 1425 0780 00       		.byte	0
ARM GAS  C:\Users\DEVELO~1\AppData\Local\Temp\ccUklYSj.s 			page 26


 1426 0781 18       		.uleb128 0x18
 1427 0782 4D030000 		.4byte	.LASF83
 1428 0786 4F03     		.2byte	0x34f
 1429 0788 18       		.uleb128 0x18
 1430 0789 59030000 		.4byte	.LASF84
 1431 078d 3703     		.2byte	0x337
 1432 078f 25       		.uleb128 0x25
 1433 0790 68040000 		.4byte	.LASF91
 1434 0794 02       		.byte	0x2
 1435 0795 EB01     		.2byte	0x1eb
 1436 0797 1B       		.byte	0x1b
 1437 0798 03       		.byte	0x3
 1438 0799 26       		.uleb128 0x26
 1439 079a 10030000 		.4byte	.LASF92
 1440 079e 02       		.byte	0x2
 1441 079f EB01     		.2byte	0x1eb
 1442 07a1 32       		.byte	0x32
 1443 07a2 BB000000 		.4byte	0xbb
 1444 07a6 00       		.byte	0
 1445 07a7 00       		.byte	0
 1446              		.section	.debug_abbrev,"",%progbits
 1447              	.Ldebug_abbrev0:
 1448 0000 01       		.uleb128 0x1
 1449 0001 0D       		.uleb128 0xd
 1450 0002 00       		.byte	0
 1451 0003 03       		.uleb128 0x3
 1452 0004 0E       		.uleb128 0xe
 1453 0005 3A       		.uleb128 0x3a
 1454 0006 21       		.uleb128 0x21
 1455 0007 0C       		.sleb128 12
 1456 0008 3B       		.uleb128 0x3b
 1457 0009 0B       		.uleb128 0xb
 1458 000a 39       		.uleb128 0x39
 1459 000b 0B       		.uleb128 0xb
 1460 000c 49       		.uleb128 0x49
 1461 000d 13       		.uleb128 0x13
 1462 000e 38       		.uleb128 0x38
 1463 000f 0B       		.uleb128 0xb
 1464 0010 00       		.byte	0
 1465 0011 00       		.byte	0
 1466 0012 02       		.uleb128 0x2
 1467 0013 0D       		.uleb128 0xd
 1468 0014 00       		.byte	0
 1469 0015 03       		.uleb128 0x3
 1470 0016 0E       		.uleb128 0xe
 1471 0017 3A       		.uleb128 0x3a
 1472 0018 0B       		.uleb128 0xb
 1473 0019 3B       		.uleb128 0x3b
 1474 001a 05       		.uleb128 0x5
 1475 001b 39       		.uleb128 0x39
 1476 001c 0B       		.uleb128 0xb
 1477 001d 49       		.uleb128 0x49
 1478 001e 13       		.uleb128 0x13
 1479 001f 38       		.uleb128 0x38
 1480 0020 0B       		.uleb128 0xb
 1481 0021 00       		.byte	0
 1482 0022 00       		.byte	0
ARM GAS  C:\Users\DEVELO~1\AppData\Local\Temp\ccUklYSj.s 			page 27


 1483 0023 03       		.uleb128 0x3
 1484 0024 16       		.uleb128 0x16
 1485 0025 00       		.byte	0
 1486 0026 03       		.uleb128 0x3
 1487 0027 0E       		.uleb128 0xe
 1488 0028 3A       		.uleb128 0x3a
 1489 0029 0B       		.uleb128 0xb
 1490 002a 3B       		.uleb128 0x3b
 1491 002b 0B       		.uleb128 0xb
 1492 002c 39       		.uleb128 0x39
 1493 002d 0B       		.uleb128 0xb
 1494 002e 49       		.uleb128 0x49
 1495 002f 13       		.uleb128 0x13
 1496 0030 00       		.byte	0
 1497 0031 00       		.byte	0
 1498 0032 04       		.uleb128 0x4
 1499 0033 24       		.uleb128 0x24
 1500 0034 00       		.byte	0
 1501 0035 0B       		.uleb128 0xb
 1502 0036 0B       		.uleb128 0xb
 1503 0037 3E       		.uleb128 0x3e
 1504 0038 0B       		.uleb128 0xb
 1505 0039 03       		.uleb128 0x3
 1506 003a 0E       		.uleb128 0xe
 1507 003b 00       		.byte	0
 1508 003c 00       		.byte	0
 1509 003d 05       		.uleb128 0x5
 1510 003e 0D       		.uleb128 0xd
 1511 003f 00       		.byte	0
 1512 0040 03       		.uleb128 0x3
 1513 0041 08       		.uleb128 0x8
 1514 0042 3A       		.uleb128 0x3a
 1515 0043 0B       		.uleb128 0xb
 1516 0044 3B       		.uleb128 0x3b
 1517 0045 05       		.uleb128 0x5
 1518 0046 39       		.uleb128 0x39
 1519 0047 0B       		.uleb128 0xb
 1520 0048 49       		.uleb128 0x49
 1521 0049 13       		.uleb128 0x13
 1522 004a 38       		.uleb128 0x38
 1523 004b 0B       		.uleb128 0xb
 1524 004c 00       		.byte	0
 1525 004d 00       		.byte	0
 1526 004e 06       		.uleb128 0x6
 1527 004f 0F       		.uleb128 0xf
 1528 0050 00       		.byte	0
 1529 0051 0B       		.uleb128 0xb
 1530 0052 21       		.uleb128 0x21
 1531 0053 04       		.sleb128 4
 1532 0054 49       		.uleb128 0x49
 1533 0055 13       		.uleb128 0x13
 1534 0056 00       		.byte	0
 1535 0057 00       		.byte	0
 1536 0058 07       		.uleb128 0x7
 1537 0059 05       		.uleb128 0x5
 1538 005a 00       		.byte	0
 1539 005b 49       		.uleb128 0x49
ARM GAS  C:\Users\DEVELO~1\AppData\Local\Temp\ccUklYSj.s 			page 28


 1540 005c 13       		.uleb128 0x13
 1541 005d 00       		.byte	0
 1542 005e 00       		.byte	0
 1543 005f 08       		.uleb128 0x8
 1544 0060 05       		.uleb128 0x5
 1545 0061 00       		.byte	0
 1546 0062 03       		.uleb128 0x3
 1547 0063 0E       		.uleb128 0xe
 1548 0064 3A       		.uleb128 0x3a
 1549 0065 21       		.uleb128 0x21
 1550 0066 05       		.sleb128 5
 1551 0067 3B       		.uleb128 0x3b
 1552 0068 0B       		.uleb128 0xb
 1553 0069 39       		.uleb128 0x39
 1554 006a 0B       		.uleb128 0xb
 1555 006b 49       		.uleb128 0x49
 1556 006c 13       		.uleb128 0x13
 1557 006d 02       		.uleb128 0x2
 1558 006e 18       		.uleb128 0x18
 1559 006f 00       		.byte	0
 1560 0070 00       		.byte	0
 1561 0071 09       		.uleb128 0x9
 1562 0072 26       		.uleb128 0x26
 1563 0073 00       		.byte	0
 1564 0074 49       		.uleb128 0x49
 1565 0075 13       		.uleb128 0x13
 1566 0076 00       		.byte	0
 1567 0077 00       		.byte	0
 1568 0078 0A       		.uleb128 0xa
 1569 0079 01       		.uleb128 0x1
 1570 007a 01       		.byte	0x1
 1571 007b 49       		.uleb128 0x49
 1572 007c 13       		.uleb128 0x13
 1573 007d 01       		.uleb128 0x1
 1574 007e 13       		.uleb128 0x13
 1575 007f 00       		.byte	0
 1576 0080 00       		.byte	0
 1577 0081 0B       		.uleb128 0xb
 1578 0082 21       		.uleb128 0x21
 1579 0083 00       		.byte	0
 1580 0084 49       		.uleb128 0x49
 1581 0085 13       		.uleb128 0x13
 1582 0086 2F       		.uleb128 0x2f
 1583 0087 0B       		.uleb128 0xb
 1584 0088 00       		.byte	0
 1585 0089 00       		.byte	0
 1586 008a 0C       		.uleb128 0xc
 1587 008b 34       		.uleb128 0x34
 1588 008c 00       		.byte	0
 1589 008d 03       		.uleb128 0x3
 1590 008e 0E       		.uleb128 0xe
 1591 008f 49       		.uleb128 0x49
 1592 0090 13       		.uleb128 0x13
 1593 0091 34       		.uleb128 0x34
 1594 0092 19       		.uleb128 0x19
 1595 0093 00       		.byte	0
 1596 0094 00       		.byte	0
ARM GAS  C:\Users\DEVELO~1\AppData\Local\Temp\ccUklYSj.s 			page 29


 1597 0095 0D       		.uleb128 0xd
 1598 0096 13       		.uleb128 0x13
 1599 0097 01       		.byte	0x1
 1600 0098 0B       		.uleb128 0xb
 1601 0099 0B       		.uleb128 0xb
 1602 009a 3A       		.uleb128 0x3a
 1603 009b 0B       		.uleb128 0xb
 1604 009c 3B       		.uleb128 0x3b
 1605 009d 05       		.uleb128 0x5
 1606 009e 39       		.uleb128 0x39
 1607 009f 21       		.uleb128 0x21
 1608 00a0 09       		.sleb128 9
 1609 00a1 01       		.uleb128 0x1
 1610 00a2 13       		.uleb128 0x13
 1611 00a3 00       		.byte	0
 1612 00a4 00       		.byte	0
 1613 00a5 0E       		.uleb128 0xe
 1614 00a6 16       		.uleb128 0x16
 1615 00a7 00       		.byte	0
 1616 00a8 03       		.uleb128 0x3
 1617 00a9 0E       		.uleb128 0xe
 1618 00aa 3A       		.uleb128 0x3a
 1619 00ab 0B       		.uleb128 0xb
 1620 00ac 3B       		.uleb128 0x3b
 1621 00ad 05       		.uleb128 0x5
 1622 00ae 39       		.uleb128 0x39
 1623 00af 0B       		.uleb128 0xb
 1624 00b0 49       		.uleb128 0x49
 1625 00b1 13       		.uleb128 0x13
 1626 00b2 00       		.byte	0
 1627 00b3 00       		.byte	0
 1628 00b4 0F       		.uleb128 0xf
 1629 00b5 2E       		.uleb128 0x2e
 1630 00b6 01       		.byte	0x1
 1631 00b7 3F       		.uleb128 0x3f
 1632 00b8 19       		.uleb128 0x19
 1633 00b9 03       		.uleb128 0x3
 1634 00ba 0E       		.uleb128 0xe
 1635 00bb 3A       		.uleb128 0x3a
 1636 00bc 21       		.uleb128 0x21
 1637 00bd 0D       		.sleb128 13
 1638 00be 3B       		.uleb128 0x3b
 1639 00bf 05       		.uleb128 0x5
 1640 00c0 39       		.uleb128 0x39
 1641 00c1 21       		.uleb128 0x21
 1642 00c2 08       		.sleb128 8
 1643 00c3 27       		.uleb128 0x27
 1644 00c4 19       		.uleb128 0x19
 1645 00c5 3C       		.uleb128 0x3c
 1646 00c6 19       		.uleb128 0x19
 1647 00c7 01       		.uleb128 0x1
 1648 00c8 13       		.uleb128 0x13
 1649 00c9 00       		.byte	0
 1650 00ca 00       		.byte	0
 1651 00cb 10       		.uleb128 0x10
 1652 00cc 28       		.uleb128 0x28
 1653 00cd 00       		.byte	0
ARM GAS  C:\Users\DEVELO~1\AppData\Local\Temp\ccUklYSj.s 			page 30


 1654 00ce 03       		.uleb128 0x3
 1655 00cf 0E       		.uleb128 0xe
 1656 00d0 1C       		.uleb128 0x1c
 1657 00d1 0B       		.uleb128 0xb
 1658 00d2 00       		.byte	0
 1659 00d3 00       		.byte	0
 1660 00d4 11       		.uleb128 0x11
 1661 00d5 0D       		.uleb128 0xd
 1662 00d6 00       		.byte	0
 1663 00d7 03       		.uleb128 0x3
 1664 00d8 08       		.uleb128 0x8
 1665 00d9 3A       		.uleb128 0x3a
 1666 00da 21       		.uleb128 0x21
 1667 00db 0C       		.sleb128 12
 1668 00dc 3B       		.uleb128 0x3b
 1669 00dd 0B       		.uleb128 0xb
 1670 00de 39       		.uleb128 0x39
 1671 00df 21       		.uleb128 0x21
 1672 00e0 03       		.sleb128 3
 1673 00e1 49       		.uleb128 0x49
 1674 00e2 13       		.uleb128 0x13
 1675 00e3 38       		.uleb128 0x38
 1676 00e4 0B       		.uleb128 0xb
 1677 00e5 00       		.byte	0
 1678 00e6 00       		.byte	0
 1679 00e7 12       		.uleb128 0x12
 1680 00e8 2E       		.uleb128 0x2e
 1681 00e9 01       		.byte	0x1
 1682 00ea 3F       		.uleb128 0x3f
 1683 00eb 19       		.uleb128 0x19
 1684 00ec 03       		.uleb128 0x3
 1685 00ed 0E       		.uleb128 0xe
 1686 00ee 3A       		.uleb128 0x3a
 1687 00ef 21       		.uleb128 0x21
 1688 00f0 05       		.sleb128 5
 1689 00f1 3B       		.uleb128 0x3b
 1690 00f2 0B       		.uleb128 0xb
 1691 00f3 39       		.uleb128 0x39
 1692 00f4 21       		.uleb128 0x21
 1693 00f5 06       		.sleb128 6
 1694 00f6 27       		.uleb128 0x27
 1695 00f7 19       		.uleb128 0x19
 1696 00f8 11       		.uleb128 0x11
 1697 00f9 01       		.uleb128 0x1
 1698 00fa 12       		.uleb128 0x12
 1699 00fb 06       		.uleb128 0x6
 1700 00fc 40       		.uleb128 0x40
 1701 00fd 18       		.uleb128 0x18
 1702 00fe 7C       		.uleb128 0x7c
 1703 00ff 19       		.uleb128 0x19
 1704 0100 01       		.uleb128 0x1
 1705 0101 13       		.uleb128 0x13
 1706 0102 00       		.byte	0
 1707 0103 00       		.byte	0
 1708 0104 13       		.uleb128 0x13
 1709 0105 1D       		.uleb128 0x1d
 1710 0106 01       		.byte	0x1
ARM GAS  C:\Users\DEVELO~1\AppData\Local\Temp\ccUklYSj.s 			page 31


 1711 0107 31       		.uleb128 0x31
 1712 0108 13       		.uleb128 0x13
 1713 0109 11       		.uleb128 0x11
 1714 010a 01       		.uleb128 0x1
 1715 010b 12       		.uleb128 0x12
 1716 010c 06       		.uleb128 0x6
 1717 010d 58       		.uleb128 0x58
 1718 010e 0B       		.uleb128 0xb
 1719 010f 59       		.uleb128 0x59
 1720 0110 05       		.uleb128 0x5
 1721 0111 57       		.uleb128 0x57
 1722 0112 21       		.uleb128 0x21
 1723 0113 03       		.sleb128 3
 1724 0114 00       		.byte	0
 1725 0115 00       		.byte	0
 1726 0116 14       		.uleb128 0x14
 1727 0117 13       		.uleb128 0x13
 1728 0118 01       		.byte	0x1
 1729 0119 03       		.uleb128 0x3
 1730 011a 0E       		.uleb128 0xe
 1731 011b 0B       		.uleb128 0xb
 1732 011c 0B       		.uleb128 0xb
 1733 011d 3A       		.uleb128 0x3a
 1734 011e 21       		.uleb128 0x21
 1735 011f 0C       		.sleb128 12
 1736 0120 3B       		.uleb128 0x3b
 1737 0121 0B       		.uleb128 0xb
 1738 0122 39       		.uleb128 0x39
 1739 0123 21       		.uleb128 0x21
 1740 0124 08       		.sleb128 8
 1741 0125 01       		.uleb128 0x1
 1742 0126 13       		.uleb128 0x13
 1743 0127 00       		.byte	0
 1744 0128 00       		.byte	0
 1745 0129 15       		.uleb128 0x15
 1746 012a 2E       		.uleb128 0x2e
 1747 012b 00       		.byte	0
 1748 012c 03       		.uleb128 0x3
 1749 012d 0E       		.uleb128 0xe
 1750 012e 3A       		.uleb128 0x3a
 1751 012f 21       		.uleb128 0x21
 1752 0130 04       		.sleb128 4
 1753 0131 3B       		.uleb128 0x3b
 1754 0132 05       		.uleb128 0x5
 1755 0133 39       		.uleb128 0x39
 1756 0134 21       		.uleb128 0x21
 1757 0135 14       		.sleb128 20
 1758 0136 27       		.uleb128 0x27
 1759 0137 19       		.uleb128 0x19
 1760 0138 11       		.uleb128 0x11
 1761 0139 01       		.uleb128 0x1
 1762 013a 12       		.uleb128 0x12
 1763 013b 06       		.uleb128 0x6
 1764 013c 40       		.uleb128 0x40
 1765 013d 18       		.uleb128 0x18
 1766 013e 7C       		.uleb128 0x7c
 1767 013f 19       		.uleb128 0x19
ARM GAS  C:\Users\DEVELO~1\AppData\Local\Temp\ccUklYSj.s 			page 32


 1768 0140 00       		.byte	0
 1769 0141 00       		.byte	0
 1770 0142 16       		.uleb128 0x16
 1771 0143 2E       		.uleb128 0x2e
 1772 0144 01       		.byte	0x1
 1773 0145 03       		.uleb128 0x3
 1774 0146 0E       		.uleb128 0xe
 1775 0147 3A       		.uleb128 0x3a
 1776 0148 21       		.uleb128 0x21
 1777 0149 01       		.sleb128 1
 1778 014a 3B       		.uleb128 0x3b
 1779 014b 05       		.uleb128 0x5
 1780 014c 39       		.uleb128 0x39
 1781 014d 21       		.uleb128 0x21
 1782 014e 14       		.sleb128 20
 1783 014f 27       		.uleb128 0x27
 1784 0150 19       		.uleb128 0x19
 1785 0151 11       		.uleb128 0x11
 1786 0152 01       		.uleb128 0x1
 1787 0153 12       		.uleb128 0x12
 1788 0154 06       		.uleb128 0x6
 1789 0155 40       		.uleb128 0x40
 1790 0156 18       		.uleb128 0x18
 1791 0157 7A       		.uleb128 0x7a
 1792 0158 19       		.uleb128 0x19
 1793 0159 01       		.uleb128 0x1
 1794 015a 13       		.uleb128 0x13
 1795 015b 00       		.byte	0
 1796 015c 00       		.byte	0
 1797 015d 17       		.uleb128 0x17
 1798 015e 05       		.uleb128 0x5
 1799 015f 00       		.byte	0
 1800 0160 31       		.uleb128 0x31
 1801 0161 13       		.uleb128 0x13
 1802 0162 02       		.uleb128 0x2
 1803 0163 18       		.uleb128 0x18
 1804 0164 00       		.byte	0
 1805 0165 00       		.byte	0
 1806 0166 18       		.uleb128 0x18
 1807 0167 2E       		.uleb128 0x2e
 1808 0168 00       		.byte	0
 1809 0169 03       		.uleb128 0x3
 1810 016a 0E       		.uleb128 0xe
 1811 016b 3A       		.uleb128 0x3a
 1812 016c 21       		.uleb128 0x21
 1813 016d 03       		.sleb128 3
 1814 016e 3B       		.uleb128 0x3b
 1815 016f 05       		.uleb128 0x5
 1816 0170 39       		.uleb128 0x39
 1817 0171 21       		.uleb128 0x21
 1818 0172 1B       		.sleb128 27
 1819 0173 27       		.uleb128 0x27
 1820 0174 19       		.uleb128 0x19
 1821 0175 20       		.uleb128 0x20
 1822 0176 21       		.uleb128 0x21
 1823 0177 03       		.sleb128 3
 1824 0178 00       		.byte	0
ARM GAS  C:\Users\DEVELO~1\AppData\Local\Temp\ccUklYSj.s 			page 33


 1825 0179 00       		.byte	0
 1826 017a 19       		.uleb128 0x19
 1827 017b 11       		.uleb128 0x11
 1828 017c 01       		.byte	0x1
 1829 017d 25       		.uleb128 0x25
 1830 017e 0E       		.uleb128 0xe
 1831 017f 13       		.uleb128 0x13
 1832 0180 0B       		.uleb128 0xb
 1833 0181 03       		.uleb128 0x3
 1834 0182 0E       		.uleb128 0xe
 1835 0183 1B       		.uleb128 0x1b
 1836 0184 0E       		.uleb128 0xe
 1837 0185 55       		.uleb128 0x55
 1838 0186 17       		.uleb128 0x17
 1839 0187 11       		.uleb128 0x11
 1840 0188 01       		.uleb128 0x1
 1841 0189 10       		.uleb128 0x10
 1842 018a 17       		.uleb128 0x17
 1843 018b 00       		.byte	0
 1844 018c 00       		.byte	0
 1845 018d 1A       		.uleb128 0x1a
 1846 018e 24       		.uleb128 0x24
 1847 018f 00       		.byte	0
 1848 0190 0B       		.uleb128 0xb
 1849 0191 0B       		.uleb128 0xb
 1850 0192 3E       		.uleb128 0x3e
 1851 0193 0B       		.uleb128 0xb
 1852 0194 03       		.uleb128 0x3
 1853 0195 08       		.uleb128 0x8
 1854 0196 00       		.byte	0
 1855 0197 00       		.byte	0
 1856 0198 1B       		.uleb128 0x1b
 1857 0199 35       		.uleb128 0x35
 1858 019a 00       		.byte	0
 1859 019b 49       		.uleb128 0x49
 1860 019c 13       		.uleb128 0x13
 1861 019d 00       		.byte	0
 1862 019e 00       		.byte	0
 1863 019f 1C       		.uleb128 0x1c
 1864 01a0 0F       		.uleb128 0xf
 1865 01a1 00       		.byte	0
 1866 01a2 0B       		.uleb128 0xb
 1867 01a3 0B       		.uleb128 0xb
 1868 01a4 00       		.byte	0
 1869 01a5 00       		.byte	0
 1870 01a6 1D       		.uleb128 0x1d
 1871 01a7 04       		.uleb128 0x4
 1872 01a8 01       		.byte	0x1
 1873 01a9 3E       		.uleb128 0x3e
 1874 01aa 0B       		.uleb128 0xb
 1875 01ab 0B       		.uleb128 0xb
 1876 01ac 0B       		.uleb128 0xb
 1877 01ad 49       		.uleb128 0x49
 1878 01ae 13       		.uleb128 0x13
 1879 01af 3A       		.uleb128 0x3a
 1880 01b0 0B       		.uleb128 0xb
 1881 01b1 3B       		.uleb128 0x3b
ARM GAS  C:\Users\DEVELO~1\AppData\Local\Temp\ccUklYSj.s 			page 34


 1882 01b2 0B       		.uleb128 0xb
 1883 01b3 39       		.uleb128 0x39
 1884 01b4 0B       		.uleb128 0xb
 1885 01b5 01       		.uleb128 0x1
 1886 01b6 13       		.uleb128 0x13
 1887 01b7 00       		.byte	0
 1888 01b8 00       		.byte	0
 1889 01b9 1E       		.uleb128 0x1e
 1890 01ba 15       		.uleb128 0x15
 1891 01bb 01       		.byte	0x1
 1892 01bc 27       		.uleb128 0x27
 1893 01bd 19       		.uleb128 0x19
 1894 01be 01       		.uleb128 0x1
 1895 01bf 13       		.uleb128 0x13
 1896 01c0 00       		.byte	0
 1897 01c1 00       		.byte	0
 1898 01c2 1F       		.uleb128 0x1f
 1899 01c3 26       		.uleb128 0x26
 1900 01c4 00       		.byte	0
 1901 01c5 00       		.byte	0
 1902 01c6 00       		.byte	0
 1903 01c7 20       		.uleb128 0x20
 1904 01c8 2E       		.uleb128 0x2e
 1905 01c9 00       		.byte	0
 1906 01ca 3F       		.uleb128 0x3f
 1907 01cb 19       		.uleb128 0x19
 1908 01cc 03       		.uleb128 0x3
 1909 01cd 0E       		.uleb128 0xe
 1910 01ce 3A       		.uleb128 0x3a
 1911 01cf 0B       		.uleb128 0xb
 1912 01d0 3B       		.uleb128 0x3b
 1913 01d1 05       		.uleb128 0x5
 1914 01d2 39       		.uleb128 0x39
 1915 01d3 0B       		.uleb128 0xb
 1916 01d4 27       		.uleb128 0x27
 1917 01d5 19       		.uleb128 0x19
 1918 01d6 3C       		.uleb128 0x3c
 1919 01d7 19       		.uleb128 0x19
 1920 01d8 00       		.byte	0
 1921 01d9 00       		.byte	0
 1922 01da 21       		.uleb128 0x21
 1923 01db 2E       		.uleb128 0x2e
 1924 01dc 01       		.byte	0x1
 1925 01dd 3F       		.uleb128 0x3f
 1926 01de 19       		.uleb128 0x19
 1927 01df 03       		.uleb128 0x3
 1928 01e0 0E       		.uleb128 0xe
 1929 01e1 3A       		.uleb128 0x3a
 1930 01e2 0B       		.uleb128 0xb
 1931 01e3 3B       		.uleb128 0x3b
 1932 01e4 0B       		.uleb128 0xb
 1933 01e5 39       		.uleb128 0x39
 1934 01e6 0B       		.uleb128 0xb
 1935 01e7 27       		.uleb128 0x27
 1936 01e8 19       		.uleb128 0x19
 1937 01e9 49       		.uleb128 0x49
 1938 01ea 13       		.uleb128 0x13
ARM GAS  C:\Users\DEVELO~1\AppData\Local\Temp\ccUklYSj.s 			page 35


 1939 01eb 11       		.uleb128 0x11
 1940 01ec 01       		.uleb128 0x1
 1941 01ed 12       		.uleb128 0x12
 1942 01ee 06       		.uleb128 0x6
 1943 01ef 40       		.uleb128 0x40
 1944 01f0 18       		.uleb128 0x18
 1945 01f1 7C       		.uleb128 0x7c
 1946 01f2 19       		.uleb128 0x19
 1947 01f3 01       		.uleb128 0x1
 1948 01f4 13       		.uleb128 0x13
 1949 01f5 00       		.byte	0
 1950 01f6 00       		.byte	0
 1951 01f7 22       		.uleb128 0x22
 1952 01f8 34       		.uleb128 0x34
 1953 01f9 00       		.byte	0
 1954 01fa 03       		.uleb128 0x3
 1955 01fb 08       		.uleb128 0x8
 1956 01fc 3A       		.uleb128 0x3a
 1957 01fd 0B       		.uleb128 0xb
 1958 01fe 3B       		.uleb128 0x3b
 1959 01ff 0B       		.uleb128 0xb
 1960 0200 39       		.uleb128 0x39
 1961 0201 0B       		.uleb128 0xb
 1962 0202 49       		.uleb128 0x49
 1963 0203 13       		.uleb128 0x13
 1964 0204 02       		.uleb128 0x2
 1965 0205 18       		.uleb128 0x18
 1966 0206 00       		.byte	0
 1967 0207 00       		.byte	0
 1968 0208 23       		.uleb128 0x23
 1969 0209 2E       		.uleb128 0x2e
 1970 020a 01       		.byte	0x1
 1971 020b 3F       		.uleb128 0x3f
 1972 020c 19       		.uleb128 0x19
 1973 020d 03       		.uleb128 0x3
 1974 020e 0E       		.uleb128 0xe
 1975 020f 3A       		.uleb128 0x3a
 1976 0210 0B       		.uleb128 0xb
 1977 0211 3B       		.uleb128 0x3b
 1978 0212 0B       		.uleb128 0xb
 1979 0213 39       		.uleb128 0x39
 1980 0214 0B       		.uleb128 0xb
 1981 0215 27       		.uleb128 0x27
 1982 0216 19       		.uleb128 0x19
 1983 0217 11       		.uleb128 0x11
 1984 0218 01       		.uleb128 0x1
 1985 0219 12       		.uleb128 0x12
 1986 021a 06       		.uleb128 0x6
 1987 021b 40       		.uleb128 0x40
 1988 021c 18       		.uleb128 0x18
 1989 021d 7A       		.uleb128 0x7a
 1990 021e 19       		.uleb128 0x19
 1991 021f 01       		.uleb128 0x1
 1992 0220 13       		.uleb128 0x13
 1993 0221 00       		.byte	0
 1994 0222 00       		.byte	0
 1995 0223 24       		.uleb128 0x24
ARM GAS  C:\Users\DEVELO~1\AppData\Local\Temp\ccUklYSj.s 			page 36


 1996 0224 2E       		.uleb128 0x2e
 1997 0225 00       		.byte	0
 1998 0226 3F       		.uleb128 0x3f
 1999 0227 19       		.uleb128 0x19
 2000 0228 03       		.uleb128 0x3
 2001 0229 0E       		.uleb128 0xe
 2002 022a 3A       		.uleb128 0x3a
 2003 022b 0B       		.uleb128 0xb
 2004 022c 3B       		.uleb128 0x3b
 2005 022d 0B       		.uleb128 0xb
 2006 022e 39       		.uleb128 0x39
 2007 022f 0B       		.uleb128 0xb
 2008 0230 27       		.uleb128 0x27
 2009 0231 19       		.uleb128 0x19
 2010 0232 11       		.uleb128 0x11
 2011 0233 01       		.uleb128 0x1
 2012 0234 12       		.uleb128 0x12
 2013 0235 06       		.uleb128 0x6
 2014 0236 40       		.uleb128 0x40
 2015 0237 18       		.uleb128 0x18
 2016 0238 7C       		.uleb128 0x7c
 2017 0239 19       		.uleb128 0x19
 2018 023a 00       		.byte	0
 2019 023b 00       		.byte	0
 2020 023c 25       		.uleb128 0x25
 2021 023d 2E       		.uleb128 0x2e
 2022 023e 01       		.byte	0x1
 2023 023f 03       		.uleb128 0x3
 2024 0240 0E       		.uleb128 0xe
 2025 0241 3A       		.uleb128 0x3a
 2026 0242 0B       		.uleb128 0xb
 2027 0243 3B       		.uleb128 0x3b
 2028 0244 05       		.uleb128 0x5
 2029 0245 39       		.uleb128 0x39
 2030 0246 0B       		.uleb128 0xb
 2031 0247 27       		.uleb128 0x27
 2032 0248 19       		.uleb128 0x19
 2033 0249 20       		.uleb128 0x20
 2034 024a 0B       		.uleb128 0xb
 2035 024b 00       		.byte	0
 2036 024c 00       		.byte	0
 2037 024d 26       		.uleb128 0x26
 2038 024e 05       		.uleb128 0x5
 2039 024f 00       		.byte	0
 2040 0250 03       		.uleb128 0x3
 2041 0251 0E       		.uleb128 0xe
 2042 0252 3A       		.uleb128 0x3a
 2043 0253 0B       		.uleb128 0xb
 2044 0254 3B       		.uleb128 0x3b
 2045 0255 05       		.uleb128 0x5
 2046 0256 39       		.uleb128 0x39
 2047 0257 0B       		.uleb128 0xb
 2048 0258 49       		.uleb128 0x49
 2049 0259 13       		.uleb128 0x13
 2050 025a 00       		.byte	0
 2051 025b 00       		.byte	0
 2052 025c 00       		.byte	0
ARM GAS  C:\Users\DEVELO~1\AppData\Local\Temp\ccUklYSj.s 			page 37


 2053              		.section	.debug_aranges,"",%progbits
 2054 0000 6C000000 		.4byte	0x6c
 2055 0004 0200     		.2byte	0x2
 2056 0006 00000000 		.4byte	.Ldebug_info0
 2057 000a 04       		.byte	0x4
 2058 000b 00       		.byte	0
 2059 000c 0000     		.2byte	0
 2060 000e 0000     		.2byte	0
 2061 0010 00000000 		.4byte	.LFB202
 2062 0014 1E000000 		.4byte	.LFE202-.LFB202
 2063 0018 00000000 		.4byte	.LFB203
 2064 001c 1E000000 		.4byte	.LFE203-.LFB203
 2065 0020 00000000 		.4byte	.LFB350
 2066 0024 0C000000 		.4byte	.LFE350-.LFB350
 2067 0028 00000000 		.4byte	.LFB351
 2068 002c 0C000000 		.4byte	.LFE351-.LFB351
 2069 0030 00000000 		.4byte	.LFB432
 2070 0034 0C000000 		.4byte	.LFE432-.LFB432
 2071 0038 00000000 		.4byte	.LFB433
 2072 003c 1E000000 		.4byte	.LFE433-.LFB433
 2073 0040 00000000 		.4byte	.LFB434
 2074 0044 32000000 		.4byte	.LFE434-.LFB434
 2075 0048 00000000 		.4byte	.LFB435
 2076 004c 2A000000 		.4byte	.LFE435-.LFB435
 2077 0050 00000000 		.4byte	.LFB436
 2078 0054 2A000000 		.4byte	.LFE436-.LFB436
 2079 0058 00000000 		.4byte	.LFB437
 2080 005c 24000000 		.4byte	.LFE437-.LFB437
 2081 0060 00000000 		.4byte	.LFB438
 2082 0064 24000000 		.4byte	.LFE438-.LFB438
 2083 0068 00000000 		.4byte	0
 2084 006c 00000000 		.4byte	0
 2085              		.section	.debug_rnglists,"",%progbits
 2086              	.Ldebug_ranges0:
 2087 0000 4B000000 		.4byte	.Ldebug_ranges3-.Ldebug_ranges2
 2088              	.Ldebug_ranges2:
 2089 0004 0500     		.2byte	0x5
 2090 0006 04       		.byte	0x4
 2091 0007 00       		.byte	0
 2092 0008 00000000 		.4byte	0
 2093              	.LLRL0:
 2094 000c 07       		.byte	0x7
 2095 000d 00000000 		.4byte	.LFB202
 2096 0011 1E       		.uleb128 .LFE202-.LFB202
 2097 0012 07       		.byte	0x7
 2098 0013 00000000 		.4byte	.LFB203
 2099 0017 1E       		.uleb128 .LFE203-.LFB203
 2100 0018 07       		.byte	0x7
 2101 0019 00000000 		.4byte	.LFB350
 2102 001d 0C       		.uleb128 .LFE350-.LFB350
 2103 001e 07       		.byte	0x7
 2104 001f 00000000 		.4byte	.LFB351
 2105 0023 0C       		.uleb128 .LFE351-.LFB351
 2106 0024 07       		.byte	0x7
 2107 0025 00000000 		.4byte	.LFB432
 2108 0029 0C       		.uleb128 .LFE432-.LFB432
 2109 002a 07       		.byte	0x7
ARM GAS  C:\Users\DEVELO~1\AppData\Local\Temp\ccUklYSj.s 			page 38


 2110 002b 00000000 		.4byte	.LFB433
 2111 002f 1E       		.uleb128 .LFE433-.LFB433
 2112 0030 07       		.byte	0x7
 2113 0031 00000000 		.4byte	.LFB434
 2114 0035 32       		.uleb128 .LFE434-.LFB434
 2115 0036 07       		.byte	0x7
 2116 0037 00000000 		.4byte	.LFB435
 2117 003b 2A       		.uleb128 .LFE435-.LFB435
 2118 003c 07       		.byte	0x7
 2119 003d 00000000 		.4byte	.LFB436
 2120 0041 2A       		.uleb128 .LFE436-.LFB436
 2121 0042 07       		.byte	0x7
 2122 0043 00000000 		.4byte	.LFB437
 2123 0047 24       		.uleb128 .LFE437-.LFB437
 2124 0048 07       		.byte	0x7
 2125 0049 00000000 		.4byte	.LFB438
 2126 004d 24       		.uleb128 .LFE438-.LFB438
 2127 004e 00       		.byte	0
 2128              	.Ldebug_ranges3:
 2129              		.section	.debug_line,"",%progbits
 2130              	.Ldebug_line0:
 2131 0000 51040000 		.section	.debug_str,"MS",%progbits,1
 2131      0300EE02 
 2131      00000201 
 2131      FB0E0D00 
 2131      01010101 
 2132              	.LASF39:
 2133 0000 5341495F 		.ascii	"SAI_UNINIT\000"
 2133      554E494E 
 2133      495400
 2134              	.LASF89:
 2135 000b 73616953 		.ascii	"saiStart\000"
 2135      74617274 
 2135      00
 2136              	.LASF41:
 2137 0014 5341495F 		.ascii	"SAI_READY\000"
 2137      52454144 
 2137      5900
 2138              	.LASF25:
 2139 001e 50444D43 		.ascii	"PDMCR\000"
 2139      5200
 2140              	.LASF58:
 2141 0024 68616C5F 		.ascii	"hal_sai_config\000"
 2141      7361695F 
 2141      636F6E66 
 2141      696700
 2142              	.LASF49:
 2143 0033 646D6172 		.ascii	"dmarx\000"
 2143      7800
 2144              	.LASF86:
 2145 0039 2E2E2F2E 		.ascii	"../../../os/hal/src/hal_sai.c\000"
 2145      2E2F2E2E 
 2145      2F6F732F 
 2145      68616C2F 
 2145      7372632F 
 2146              	.LASF22:
 2147 0057 444D415F 		.ascii	"DMA_Stream_TypeDef\000"
ARM GAS  C:\Users\DEVELO~1\AppData\Local\Temp\ccUklYSj.s 			page 39


 2147      53747265 
 2147      616D5F54 
 2147      79706544 
 2147      656600
 2148              	.LASF45:
 2149 006a 73746174 		.ascii	"state\000"
 2149      6500
 2150              	.LASF7:
 2151 0070 73686F72 		.ascii	"short int\000"
 2151      7420696E 
 2151      7400
 2152              	.LASF4:
 2153 007a 73697A65 		.ascii	"size_t\000"
 2153      5F7400
 2154              	.LASF69:
 2155 0081 7361695F 		.ascii	"sai_lld_set_buffers\000"
 2155      6C6C645F 
 2155      7365745F 
 2155      62756666 
 2155      65727300 
 2156              	.LASF79:
 2157 0095 6F73616C 		.ascii	"osalSysUnlock\000"
 2157      53797355 
 2157      6E6C6F63 
 2157      6B00
 2158              	.LASF42:
 2159 00a3 5341495F 		.ascii	"SAI_ACTIVE\000"
 2159      41435449 
 2159      564500
 2160              	.LASF56:
 2161 00ae 53414943 		.ascii	"SAIConfig\000"
 2161      6F6E6669 
 2161      6700
 2162              	.LASF72:
 2163 00b8 73616953 		.ascii	"saiStopExchange\000"
 2163      746F7045 
 2163      78636861 
 2163      6E676500 
 2164              	.LASF82:
 2165 00c8 63685379 		.ascii	"chSysLock\000"
 2165      734C6F63 
 2165      6B00
 2166              	.LASF31:
 2167 00d2 5341495F 		.ascii	"SAI_Block_TypeDef\000"
 2167      426C6F63 
 2167      6B5F5479 
 2167      70654465 
 2167      6600
 2168              	.LASF27:
 2169 00e4 5341495F 		.ascii	"SAI_TypeDef\000"
 2169      54797065 
 2169      44656600 
 2170              	.LASF46:
 2171 00f0 636F6E66 		.ascii	"config\000"
 2171      696700
 2172              	.LASF23:
 2173 00f7 444D414D 		.ascii	"DMAMUX_Channel_TypeDef\000"
ARM GAS  C:\Users\DEVELO~1\AppData\Local\Temp\ccUklYSj.s 			page 40


 2173      55585F43 
 2173      68616E6E 
 2173      656C5F54 
 2173      79706544 
 2174              	.LASF38:
 2175 010e 73746D33 		.ascii	"stm32_dma_stream_t\000"
 2175      325F646D 
 2175      615F7374 
 2175      7265616D 
 2175      5F7400
 2176              	.LASF74:
 2177 0121 73616970 		.ascii	"saip\000"
 2177      00
 2178              	.LASF70:
 2179 0126 7361695F 		.ascii	"sai_lld_stop\000"
 2179      6C6C645F 
 2179      73746F70 
 2179      00
 2180              	.LASF14:
 2181 0133 75696E74 		.ascii	"uint8_t\000"
 2181      385F7400 
 2182              	.LASF37:
 2183 013b 76656374 		.ascii	"vector\000"
 2183      6F7200
 2184              	.LASF19:
 2185 0142 4E445452 		.ascii	"NDTR\000"
 2185      00
 2186              	.LASF43:
 2187 0147 73616973 		.ascii	"saistate_t\000"
 2187      74617465 
 2187      5F7400
 2188              	.LASF68:
 2189 0152 7361695F 		.ascii	"sai_lld_start_exchange\000"
 2189      6C6C645F 
 2189      73746172 
 2189      745F6578 
 2189      6368616E 
 2190              	.LASF2:
 2191 0169 6C6F6E67 		.ascii	"long double\000"
 2191      20646F75 
 2191      626C6500 
 2192              	.LASF1:
 2193 0175 6C6F6E67 		.ascii	"long long int\000"
 2193      206C6F6E 
 2193      6720696E 
 2193      7400
 2194              	.LASF65:
 2195 0183 646D615F 		.ascii	"dma_mode\000"
 2195      6D6F6465 
 2195      00
 2196              	.LASF26:
 2197 018c 50444D44 		.ascii	"PDMDLY\000"
 2197      4C5900
 2198              	.LASF88:
 2199 0193 7361695F 		.ascii	"sai_lld_init\000"
 2199      6C6C645F 
 2199      696E6974 
ARM GAS  C:\Users\DEVELO~1\AppData\Local\Temp\ccUklYSj.s 			page 41


 2199      00
 2200              	.LASF35:
 2201 01a0 73686966 		.ascii	"shift\000"
 2201      7400
 2202              	.LASF33:
 2203 01a6 73747265 		.ascii	"stream\000"
 2203      616D00
 2204              	.LASF66:
 2205 01ad 73616963 		.ascii	"saicallback_t\000"
 2205      616C6C62 
 2205      61636B5F 
 2205      7400
 2206              	.LASF5:
 2207 01bb 5F5F7569 		.ascii	"__uint8_t\000"
 2207      6E74385F 
 2207      7400
 2208              	.LASF48:
 2209 01c5 626C6F63 		.ascii	"block\000"
 2209      6B00
 2210              	.LASF11:
 2211 01cb 5F5F7569 		.ascii	"__uint32_t\000"
 2211      6E743332 
 2211      5F7400
 2212              	.LASF64:
 2213 01d6 736C6F74 		.ascii	"slotr\000"
 2213      7200
 2214              	.LASF29:
 2215 01dc 534C4F54 		.ascii	"SLOTR\000"
 2215      5200
 2216              	.LASF80:
 2217 01e2 6F73616C 		.ascii	"osalSysLock\000"
 2217      5379734C 
 2217      6F636B00 
 2218              	.LASF6:
 2219 01ee 756E7369 		.ascii	"unsigned char\000"
 2219      676E6564 
 2219      20636861 
 2219      7200
 2220              	.LASF51:
 2221 01fc 7278646D 		.ascii	"rxdmamode\000"
 2221      616D6F64 
 2221      6500
 2222              	.LASF59:
 2223 0206 74785F62 		.ascii	"tx_buffer\000"
 2223      75666665 
 2223      7200
 2224              	.LASF75:
 2225 0210 5F5F6675 		.ascii	"__func__\000"
 2225      6E635F5F 
 2225      00
 2226              	.LASF73:
 2227 0219 73616953 		.ascii	"saiStartExchange\000"
 2227      74617274 
 2227      45786368 
 2227      616E6765 
 2227      00
 2228              	.LASF3:
ARM GAS  C:\Users\DEVELO~1\AppData\Local\Temp\ccUklYSj.s 			page 42


 2229 022a 7369676E 		.ascii	"signed char\000"
 2229      65642063 
 2229      68617200 
 2230              	.LASF44:
 2231 0236 53414944 		.ascii	"SAIDriver\000"
 2231      72697665 
 2231      7200
 2232              	.LASF13:
 2233 0240 6C6F6E67 		.ascii	"long long unsigned int\000"
 2233      206C6F6E 
 2233      6720756E 
 2233      7369676E 
 2233      65642069 
 2234              	.LASF28:
 2235 0257 46524352 		.ascii	"FRCR\000"
 2235      00
 2236              	.LASF16:
 2237 025c 75696E74 		.ascii	"uint32_t\000"
 2237      33325F74 
 2237      00
 2238              	.LASF67:
 2239 0265 7361695F 		.ascii	"sai_lld_stop_exchange\000"
 2239      6C6C645F 
 2239      73746F70 
 2239      5F657863 
 2239      68616E67 
 2240              	.LASF36:
 2241 027b 73656C66 		.ascii	"selfindex\000"
 2241      696E6465 
 2241      7800
 2242              	.LASF52:
 2243 0285 7478646D 		.ascii	"txdmamode\000"
 2243      616D6F64 
 2243      6500
 2244              	.LASF87:
 2245 028f 433A5C50 		.ascii	"C:\\PROJET\\ChibiOS project\\ChibiOS_21.11.4\\demos"
 2245      524F4A45 
 2245      545C4368 
 2245      6962694F 
 2245      53207072 
 2246 02be 5C53544D 		.ascii	"\\STM32\\RT-STM32H743ZI_REV_XY-NUCLEO144\000"
 2246      33325C52 
 2246      542D5354 
 2246      4D333248 
 2246      3734335A 
 2247              	.LASF12:
 2248 02e5 6C6F6E67 		.ascii	"long unsigned int\000"
 2248      20756E73 
 2248      69676E65 
 2248      6420696E 
 2248      7400
 2249              	.LASF50:
 2250 02f7 646D6174 		.ascii	"dmatx\000"
 2250      7800
 2251              	.LASF8:
 2252 02fd 73686F72 		.ascii	"short unsigned int\000"
 2252      7420756E 
ARM GAS  C:\Users\DEVELO~1\AppData\Local\Temp\ccUklYSj.s 			page 43


 2252      7369676E 
 2252      65642069 
 2252      6E7400
 2253              	.LASF92:
 2254 0310 62617365 		.ascii	"basePri\000"
 2254      50726900 
 2255              	.LASF53:
 2256 0318 74786275 		.ascii	"txbuf\000"
 2256      6600
 2257              	.LASF21:
 2258 031e 4D314152 		.ascii	"M1AR\000"
 2258      00
 2259              	.LASF18:
 2260 0323 63686172 		.ascii	"char\000"
 2260      00
 2261              	.LASF10:
 2262 0328 6C6F6E67 		.ascii	"long int\000"
 2262      20696E74 
 2262      00
 2263              	.LASF15:
 2264 0331 696E7433 		.ascii	"int32_t\000"
 2264      325F7400 
 2265              	.LASF78:
 2266 0339 7361694F 		.ascii	"saiObjectInit\000"
 2266      626A6563 
 2266      74496E69 
 2266      7400
 2267              	.LASF32:
 2268 0347 5F426F6F 		.ascii	"_Bool\000"
 2268      6C00
 2269              	.LASF83:
 2270 034d 706F7274 		.ascii	"port_unlock\000"
 2270      5F756E6C 
 2270      6F636B00 
 2271              	.LASF84:
 2272 0359 706F7274 		.ascii	"port_lock\000"
 2272      5F6C6F63 
 2272      6B00
 2273              	.LASF60:
 2274 0363 72785F62 		.ascii	"rx_buffer\000"
 2274      75666665 
 2274      7200
 2275              	.LASF77:
 2276 036d 73616953 		.ascii	"saiStop\000"
 2276      746F7000 
 2277              	.LASF24:
 2278 0375 52455345 		.ascii	"RESERVED0\000"
 2278      52564544 
 2278      3000
 2279              	.LASF20:
 2280 037f 4D304152 		.ascii	"M0AR\000"
 2280      00
 2281              	.LASF76:
 2282 0384 73616953 		.ascii	"saiSetBuffers\000"
 2282      65744275 
 2282      66666572 
 2282      7300
ARM GAS  C:\Users\DEVELO~1\AppData\Local\Temp\ccUklYSj.s 			page 44


 2283              	.LASF85:
 2284 0392 474E5520 		.ascii	"GNU C17 11.3.1 20220712 -mcpu=cortex-m7 -mthumb -mf"
 2284      43313720 
 2284      31312E33 
 2284      2E312032 
 2284      30323230 
 2285 03c5 6C6F6174 		.ascii	"loat-abi=soft -march=armv7e-m -ggdb -O0 -ffunction-"
 2285      2D616269 
 2285      3D736F66 
 2285      74202D6D 
 2285      61726368 
 2286 03f8 73656374 		.ascii	"sections -fdata-sections -fno-common\000"
 2286      696F6E73 
 2286      202D6664 
 2286      6174612D 
 2286      73656374 
 2287              	.LASF90:
 2288 041d 73616949 		.ascii	"saiInit\000"
 2288      6E697400 
 2289              	.LASF30:
 2290 0425 434C5246 		.ascii	"CLRFR\000"
 2290      5200
 2291              	.LASF55:
 2292 042b 62756673 		.ascii	"bufsize\000"
 2292      697A6500 
 2293              	.LASF63:
 2294 0433 66726372 		.ascii	"frcr\000"
 2294      00
 2295              	.LASF61:
 2296 0438 73697A65 		.ascii	"size\000"
 2296      00
 2297              	.LASF81:
 2298 043d 63685379 		.ascii	"chSysUnlock\000"
 2298      73556E6C 
 2298      6F636B00 
 2299              	.LASF9:
 2300 0449 5F5F696E 		.ascii	"__int32_t\000"
 2300      7433325F 
 2300      7400
 2301              	.LASF47:
 2302 0453 626C6F63 		.ascii	"blockp\000"
 2302      6B7000
 2303              	.LASF71:
 2304 045a 7361695F 		.ascii	"sai_lld_start\000"
 2304      6C6C645F 
 2304      73746172 
 2304      7400
 2305              	.LASF91:
 2306 0468 5F5F7365 		.ascii	"__set_BASEPRI\000"
 2306      745F4241 
 2306      53455052 
 2306      4900
 2307              	.LASF57:
 2308 0476 68616C5F 		.ascii	"hal_sai_driver\000"
 2308      7361695F 
 2308      64726976 
 2308      657200
ARM GAS  C:\Users\DEVELO~1\AppData\Local\Temp\ccUklYSj.s 			page 45


 2309              	.LASF54:
 2310 0485 72786275 		.ascii	"rxbuf\000"
 2310      6600
 2311              	.LASF0:
 2312 048b 756E7369 		.ascii	"unsigned int\000"
 2312      676E6564 
 2312      20696E74 
 2312      00
 2313              	.LASF62:
 2314 0498 656E645F 		.ascii	"end_cb\000"
 2314      636200
 2315              	.LASF34:
 2316 049f 69666372 		.ascii	"ifcr\000"
 2316      00
 2317              	.LASF17:
 2318 04a4 6D73675F 		.ascii	"msg_t\000"
 2318      7400
 2319              	.LASF40:
 2320 04aa 5341495F 		.ascii	"SAI_STOP\000"
 2320      53544F50 
 2320      00
 2321              		.ident	"GCC: (Arm GNU Toolchain 11.3.Rel1) 11.3.1 20220712"
ARM GAS  C:\Users\DEVELO~1\AppData\Local\Temp\ccUklYSj.s 			page 46


DEFINED SYMBOLS
                            *ABS*:00000000 hal_sai.c
C:\Users\DEVELO~1\AppData\Local\Temp\ccUklYSj.s:18     .text.chSysLock:00000000 $t
C:\Users\DEVELO~1\AppData\Local\Temp\ccUklYSj.s:23     .text.chSysLock:00000000 chSysLock
C:\Users\DEVELO~1\AppData\Local\Temp\ccUklYSj.s:77     .text.chSysUnlock:00000000 $t
C:\Users\DEVELO~1\AppData\Local\Temp\ccUklYSj.s:82     .text.chSysUnlock:00000000 chSysUnlock
C:\Users\DEVELO~1\AppData\Local\Temp\ccUklYSj.s:133    .text.osalSysLock:00000000 $t
C:\Users\DEVELO~1\AppData\Local\Temp\ccUklYSj.s:138    .text.osalSysLock:00000000 osalSysLock
C:\Users\DEVELO~1\AppData\Local\Temp\ccUklYSj.s:160    .text.osalSysUnlock:00000000 $t
C:\Users\DEVELO~1\AppData\Local\Temp\ccUklYSj.s:165    .text.osalSysUnlock:00000000 osalSysUnlock
C:\Users\DEVELO~1\AppData\Local\Temp\ccUklYSj.s:186    .text.saiInit:00000000 $t
C:\Users\DEVELO~1\AppData\Local\Temp\ccUklYSj.s:192    .text.saiInit:00000000 saiInit
C:\Users\DEVELO~1\AppData\Local\Temp\ccUklYSj.s:214    .text.saiObjectInit:00000000 $t
C:\Users\DEVELO~1\AppData\Local\Temp\ccUklYSj.s:220    .text.saiObjectInit:00000000 saiObjectInit
C:\Users\DEVELO~1\AppData\Local\Temp\ccUklYSj.s:258    .text.saiStart:00000000 $t
C:\Users\DEVELO~1\AppData\Local\Temp\ccUklYSj.s:264    .text.saiStart:00000000 saiStart
C:\Users\DEVELO~1\AppData\Local\Temp\ccUklYSj.s:312    .text.saiStop:00000000 $t
C:\Users\DEVELO~1\AppData\Local\Temp\ccUklYSj.s:318    .text.saiStop:00000000 saiStop
C:\Users\DEVELO~1\AppData\Local\Temp\ccUklYSj.s:360    .text.saiSetBuffers:00000000 $t
C:\Users\DEVELO~1\AppData\Local\Temp\ccUklYSj.s:366    .text.saiSetBuffers:00000000 saiSetBuffers
C:\Users\DEVELO~1\AppData\Local\Temp\ccUklYSj.s:406    .text.saiStartExchange:00000000 $t
C:\Users\DEVELO~1\AppData\Local\Temp\ccUklYSj.s:412    .text.saiStartExchange:00000000 saiStartExchange
C:\Users\DEVELO~1\AppData\Local\Temp\ccUklYSj.s:449    .text.saiStopExchange:00000000 $t
C:\Users\DEVELO~1\AppData\Local\Temp\ccUklYSj.s:455    .text.saiStopExchange:00000000 saiStopExchange

UNDEFINED SYMBOLS
sai_lld_init
sai_lld_start
sai_lld_stop
sai_lld_set_buffers
sai_lld_start_exchange
sai_lld_stop_exchange
