ARM GAS  C:\Users\DEVELO~1\AppData\Local\Temp\ccsHIVqO.s 			page 1


   1              		.cpu cortex-m7
   2              		.arch armv7e-m
   3              		.fpu softvfp
   4              		.eabi_attribute 20, 1
   5              		.eabi_attribute 21, 1
   6              		.eabi_attribute 23, 3
   7              		.eabi_attribute 24, 1
   8              		.eabi_attribute 25, 1
   9              		.eabi_attribute 26, 1
  10              		.eabi_attribute 30, 6
  11              		.eabi_attribute 34, 1
  12              		.eabi_attribute 18, 4
  13              		.file	"hal_sai_lld.c"
  14              		.text
  15              	.Ltext0:
  16              		.cfi_sections	.debug_frame
  17              		.section	.text.rccEnableAPB2,"ax",%progbits
  18              		.align	1
  19              		.syntax unified
  20              		.thumb
  21              		.thumb_func
  22              		.type	rccEnableAPB2, %function
  23              	rccEnableAPB2:
  24              	.LFB394:
  25              		.file 1 "../../../os/hal/ports/STM32/STM32H7xx/stm32_rcc.h"
  26              		.loc 1 319 60
  27              		.cfi_startproc
  28              		@ args = 0, pretend = 0, frame = 8
  29              		@ frame_needed = 1, uses_anonymous_args = 0
  30              		@ link register save eliminated.
  31 0000 80B4     		push	{r7}
  32              		.cfi_def_cfa_offset 4
  33              		.cfi_offset 7, -4
  34 0002 83B0     		sub	sp, sp, #12
  35              		.cfi_def_cfa_offset 16
  36 0004 00AF     		add	r7, sp, #0
  37              		.cfi_def_cfa_register 7
  38 0006 7860     		str	r0, [r7, #4]
  39 0008 0B46     		mov	r3, r1
  40 000a FB70     		strb	r3, [r7, #3]
  41              		.loc 1 323 19
  42 000c 124B     		ldr	r3, .L4
  43 000e D3F8F020 		ldr	r2, [r3, #240]
  44 0012 1149     		ldr	r1, .L4
  45 0014 7B68     		ldr	r3, [r7, #4]
  46 0016 1343     		orrs	r3, r3, r2
  47 0018 C1F8F030 		str	r3, [r1, #240]
  48              		.loc 1 324 6
  49 001c FB78     		ldrb	r3, [r7, #3]	@ zero_extendqisi2
  50 001e 002B     		cmp	r3, #0
  51 0020 08D0     		beq	.L2
  52              		.loc 1 325 23
  53 0022 0D4B     		ldr	r3, .L4
  54 0024 D3F81821 		ldr	r2, [r3, #280]
  55 0028 0B49     		ldr	r1, .L4
  56 002a 7B68     		ldr	r3, [r7, #4]
  57 002c 1343     		orrs	r3, r3, r2
ARM GAS  C:\Users\DEVELO~1\AppData\Local\Temp\ccsHIVqO.s 			page 2


  58 002e C1F81831 		str	r3, [r1, #280]
  59 0032 08E0     		b	.L3
  60              	.L2:
  61              		.loc 1 328 23
  62 0034 084B     		ldr	r3, .L4
  63 0036 D3F81821 		ldr	r2, [r3, #280]
  64              		.loc 1 328 26
  65 003a 7B68     		ldr	r3, [r7, #4]
  66 003c DB43     		mvns	r3, r3
  67              		.loc 1 328 23
  68 003e 0649     		ldr	r1, .L4
  69 0040 1340     		ands	r3, r3, r2
  70 0042 C1F81831 		str	r3, [r1, #280]
  71              	.L3:
  72              		.loc 1 330 15
  73 0046 044B     		ldr	r3, .L4
  74              		.loc 1 330 3
  75 0048 D3F81831 		ldr	r3, [r3, #280]
  76              		.loc 1 342 1
  77 004c 00BF     		nop
  78 004e 0C37     		adds	r7, r7, #12
  79              		.cfi_def_cfa_offset 4
  80 0050 BD46     		mov	sp, r7
  81              		.cfi_def_cfa_register 13
  82              		@ sp needed
  83 0052 80BC     		pop	{r7}
  84              		.cfi_restore 7
  85              		.cfi_def_cfa_offset 0
  86 0054 7047     		bx	lr
  87              	.L5:
  88 0056 00BF     		.align	2
  89              	.L4:
  90 0058 00440258 		.word	1476543488
  91              		.cfi_endproc
  92              	.LFE394:
  93              		.size	rccEnableAPB2, .-rccEnableAPB2
  94              		.section	.text.rccDisableAPB2,"ax",%progbits
  95              		.align	1
  96              		.syntax unified
  97              		.thumb
  98              		.thumb_func
  99              		.type	rccDisableAPB2, %function
 100              	rccDisableAPB2:
 101              	.LFB395:
 102              		.loc 1 351 52
 103              		.cfi_startproc
 104              		@ args = 0, pretend = 0, frame = 8
 105              		@ frame_needed = 1, uses_anonymous_args = 0
 106              		@ link register save eliminated.
 107 0000 80B4     		push	{r7}
 108              		.cfi_def_cfa_offset 4
 109              		.cfi_offset 7, -4
 110 0002 83B0     		sub	sp, sp, #12
 111              		.cfi_def_cfa_offset 16
 112 0004 00AF     		add	r7, sp, #0
 113              		.cfi_def_cfa_register 7
 114 0006 7860     		str	r0, [r7, #4]
ARM GAS  C:\Users\DEVELO~1\AppData\Local\Temp\ccsHIVqO.s 			page 3


 115              		.loc 1 361 19
 116 0008 0C4B     		ldr	r3, .L7
 117 000a D3F8F020 		ldr	r2, [r3, #240]
 118              		.loc 1 361 22
 119 000e 7B68     		ldr	r3, [r7, #4]
 120 0010 DB43     		mvns	r3, r3
 121              		.loc 1 361 19
 122 0012 0A49     		ldr	r1, .L7
 123 0014 1340     		ands	r3, r3, r2
 124 0016 C1F8F030 		str	r3, [r1, #240]
 125              		.loc 1 362 21
 126 001a 084B     		ldr	r3, .L7
 127 001c D3F81821 		ldr	r2, [r3, #280]
 128              		.loc 1 362 24
 129 0020 7B68     		ldr	r3, [r7, #4]
 130 0022 DB43     		mvns	r3, r3
 131              		.loc 1 362 21
 132 0024 0549     		ldr	r1, .L7
 133 0026 1340     		ands	r3, r3, r2
 134 0028 C1F81831 		str	r3, [r1, #280]
 135              		.loc 1 363 15
 136 002c 034B     		ldr	r3, .L7
 137              		.loc 1 363 3
 138 002e D3F81831 		ldr	r3, [r3, #280]
 139              		.loc 1 376 1
 140 0032 00BF     		nop
 141 0034 0C37     		adds	r7, r7, #12
 142              		.cfi_def_cfa_offset 4
 143 0036 BD46     		mov	sp, r7
 144              		.cfi_def_cfa_register 13
 145              		@ sp needed
 146 0038 80BC     		pop	{r7}
 147              		.cfi_restore 7
 148              		.cfi_def_cfa_offset 0
 149 003a 7047     		bx	lr
 150              	.L8:
 151              		.align	2
 152              	.L7:
 153 003c 00440258 		.word	1476543488
 154              		.cfi_endproc
 155              	.LFE395:
 156              		.size	rccDisableAPB2, .-rccDisableAPB2
 157              		.global	SAID2A
 158              		.section	.bss.SAID2A,"aw",%nobits
 159              		.align	2
 160              		.type	SAID2A, %object
 161              		.size	SAID2A, 48
 162              	SAID2A:
 163 0000 00000000 		.space	48
 163      00000000 
 163      00000000 
 163      00000000 
 163      00000000 
 164              		.section	.bss.sai1_ref,"aw",%nobits
 165              		.align	2
 166              		.type	sai1_ref, %object
 167              		.size	sai1_ref, 4
ARM GAS  C:\Users\DEVELO~1\AppData\Local\Temp\ccsHIVqO.s 			page 4


 168              	sai1_ref:
 169 0000 00000000 		.space	4
 170              		.section	.bss.sai2_ref,"aw",%nobits
 171              		.align	2
 172              		.type	sai2_ref, %object
 173              		.size	sai2_ref, 4
 174              	sai2_ref:
 175 0000 00000000 		.space	4
 176              		.section	.text.sai_lld_is_rx,"ax",%progbits
 177              		.align	1
 178              		.syntax unified
 179              		.thumb
 180              		.thumb_func
 181              		.type	sai_lld_is_rx, %function
 182              	sai_lld_is_rx:
 183              	.LFB432:
 184              		.file 2 "../../../os/hal/ports/STM32/LLD/SAIv1/hal_sai_lld.c"
 185              		.loc 2 71 50
 186              		.cfi_startproc
 187              		@ args = 0, pretend = 0, frame = 16
 188              		@ frame_needed = 1, uses_anonymous_args = 0
 189              		@ link register save eliminated.
 190 0000 80B4     		push	{r7}
 191              		.cfi_def_cfa_offset 4
 192              		.cfi_offset 7, -4
 193 0002 85B0     		sub	sp, sp, #20
 194              		.cfi_def_cfa_offset 24
 195 0004 00AF     		add	r7, sp, #0
 196              		.cfi_def_cfa_register 7
 197 0006 7860     		str	r0, [r7, #4]
 198              		.loc 2 72 23
 199 0008 7B68     		ldr	r3, [r7, #4]
 200 000a 5B68     		ldr	r3, [r3, #4]
 201              		.loc 2 72 31
 202 000c 5B69     		ldr	r3, [r3, #20]
 203              		.loc 2 72 12
 204 000e 03F00303 		and	r3, r3, #3
 205 0012 FB60     		str	r3, [r7, #12]
 206              		.loc 2 74 36
 207 0014 FB68     		ldr	r3, [r7, #12]
 208 0016 012B     		cmp	r3, #1
 209 0018 02D0     		beq	.L10
 210              		.loc 2 74 36 is_stmt 0 discriminator 2
 211 001a FB68     		ldr	r3, [r7, #12]
 212 001c 032B     		cmp	r3, #3
 213 001e 01D1     		bne	.L11
 214              	.L10:
 215              		.loc 2 74 36 discriminator 3
 216 0020 0123     		movs	r3, #1
 217 0022 00E0     		b	.L12
 218              	.L11:
 219              		.loc 2 74 36 discriminator 4
 220 0024 0023     		movs	r3, #0
 221              	.L12:
 222              		.loc 2 74 36 discriminator 6
 223 0026 03F00103 		and	r3, r3, #1
 224 002a DBB2     		uxtb	r3, r3
ARM GAS  C:\Users\DEVELO~1\AppData\Local\Temp\ccsHIVqO.s 			page 5


 225              		.loc 2 75 1 is_stmt 1 discriminator 6
 226 002c 1846     		mov	r0, r3
 227 002e 1437     		adds	r7, r7, #20
 228              		.cfi_def_cfa_offset 4
 229 0030 BD46     		mov	sp, r7
 230              		.cfi_def_cfa_register 13
 231              		@ sp needed
 232 0032 80BC     		pop	{r7}
 233              		.cfi_restore 7
 234              		.cfi_def_cfa_offset 0
 235 0034 7047     		bx	lr
 236              		.cfi_endproc
 237              	.LFE432:
 238              		.size	sai_lld_is_rx, .-sai_lld_is_rx
 239              		.section	.text.sai_lld_dma_request,"ax",%progbits
 240              		.align	1
 241              		.syntax unified
 242              		.thumb
 243              		.thumb_func
 244              		.type	sai_lld_dma_request, %function
 245              	sai_lld_dma_request:
 246              	.LFB433:
 247              		.loc 2 77 60
 248              		.cfi_startproc
 249              		@ args = 0, pretend = 0, frame = 8
 250              		@ frame_needed = 1, uses_anonymous_args = 0
 251              		@ link register save eliminated.
 252 0000 80B4     		push	{r7}
 253              		.cfi_def_cfa_offset 4
 254              		.cfi_offset 7, -4
 255 0002 83B0     		sub	sp, sp, #12
 256              		.cfi_def_cfa_offset 16
 257 0004 00AF     		add	r7, sp, #0
 258              		.cfi_def_cfa_register 7
 259 0006 7860     		str	r0, [r7, #4]
 260              		.loc 2 79 11
 261 0008 7B68     		ldr	r3, [r7, #4]
 262 000a 9B68     		ldr	r3, [r3, #8]
 263              		.loc 2 79 6
 264 000c 0B4A     		ldr	r2, .L21
 265 000e 9342     		cmp	r3, r2
 266 0010 07D1     		bne	.L15
 267              		.loc 2 80 17
 268 0012 7B68     		ldr	r3, [r7, #4]
 269 0014 1B7C     		ldrb	r3, [r3, #16]	@ zero_extendqisi2
 270              		.loc 2 81 30
 271 0016 002B     		cmp	r3, #0
 272 0018 01D1     		bne	.L16
 273              		.loc 2 81 30 is_stmt 0 discriminator 1
 274 001a 5723     		movs	r3, #87
 275 001c 08E0     		b	.L18
 276              	.L16:
 277              		.loc 2 81 30 discriminator 2
 278 001e 5823     		movs	r3, #88
 279 0020 06E0     		b	.L18
 280              	.L15:
 281              		.loc 2 84 15 is_stmt 1
ARM GAS  C:\Users\DEVELO~1\AppData\Local\Temp\ccsHIVqO.s 			page 6


 282 0022 7B68     		ldr	r3, [r7, #4]
 283 0024 1B7C     		ldrb	r3, [r3, #16]	@ zero_extendqisi2
 284              		.loc 2 85 28
 285 0026 002B     		cmp	r3, #0
 286 0028 01D1     		bne	.L19
 287              		.loc 2 85 28 is_stmt 0 discriminator 1
 288 002a 5923     		movs	r3, #89
 289 002c 00E0     		b	.L18
 290              	.L19:
 291              		.loc 2 85 28 discriminator 2
 292 002e 5A23     		movs	r3, #90
 293              	.L18:
 294              		.loc 2 86 1 is_stmt 1
 295 0030 1846     		mov	r0, r3
 296 0032 0C37     		adds	r7, r7, #12
 297              		.cfi_def_cfa_offset 4
 298 0034 BD46     		mov	sp, r7
 299              		.cfi_def_cfa_register 13
 300              		@ sp needed
 301 0036 80BC     		pop	{r7}
 302              		.cfi_restore 7
 303              		.cfi_def_cfa_offset 0
 304 0038 7047     		bx	lr
 305              	.L22:
 306 003a 00BF     		.align	2
 307              	.L21:
 308 003c 00580140 		.word	1073829888
 309              		.cfi_endproc
 310              	.LFE433:
 311              		.size	sai_lld_dma_request, .-sai_lld_dma_request
 312              		.section	.text.sai_lld_serve_dma_interrupt,"ax",%progbits
 313              		.align	1
 314              		.syntax unified
 315              		.thumb
 316              		.thumb_func
 317              		.type	sai_lld_serve_dma_interrupt, %function
 318              	sai_lld_serve_dma_interrupt:
 319              	.LFB434:
 320              		.loc 2 88 74
 321              		.cfi_startproc
 322              		@ args = 0, pretend = 0, frame = 8
 323              		@ frame_needed = 1, uses_anonymous_args = 0
 324 0000 80B5     		push	{r7, lr}
 325              		.cfi_def_cfa_offset 8
 326              		.cfi_offset 7, -8
 327              		.cfi_offset 14, -4
 328 0002 82B0     		sub	sp, sp, #8
 329              		.cfi_def_cfa_offset 16
 330 0004 00AF     		add	r7, sp, #0
 331              		.cfi_def_cfa_register 7
 332 0006 7860     		str	r0, [r7, #4]
 333 0008 3960     		str	r1, [r7]
 334              		.loc 2 91 14
 335 000a 3B68     		ldr	r3, [r7]
 336 000c 03F00C03 		and	r3, r3, #12
 337              		.loc 2 91 6
 338 0010 002B     		cmp	r3, #0
ARM GAS  C:\Users\DEVELO~1\AppData\Local\Temp\ccsHIVqO.s 			page 7


 339 0012 02D0     		beq	.L24
 340              		.loc 2 92 5
 341 0014 7868     		ldr	r0, [r7, #4]
 342 0016 FFF7FEFF 		bl	sai_dma_error_hook
 343              	.L24:
 344              		.loc 2 98 14
 345 001a 3B68     		ldr	r3, [r7]
 346 001c 03F01003 		and	r3, r3, #16
 347              		.loc 2 98 6
 348 0020 002B     		cmp	r3, #0
 349 0022 0AD0     		beq	.L25
 350              		.loc 2 99 5
 351 0024 7B68     		ldr	r3, [r7, #4]
 352 0026 5B68     		ldr	r3, [r3, #4]
 353 0028 DB68     		ldr	r3, [r3, #12]
 354 002a 002B     		cmp	r3, #0
 355 002c 05D0     		beq	.L25
 356              		.loc 2 99 5 is_stmt 0 discriminator 1
 357 002e 7B68     		ldr	r3, [r7, #4]
 358 0030 5B68     		ldr	r3, [r3, #4]
 359 0032 DB68     		ldr	r3, [r3, #12]
 360 0034 0121     		movs	r1, #1
 361 0036 7868     		ldr	r0, [r7, #4]
 362 0038 9847     		blx	r3
 363              	.LVL0:
 364              	.L25:
 365              		.loc 2 101 14 is_stmt 1
 366 003a 3B68     		ldr	r3, [r7]
 367 003c 03F02003 		and	r3, r3, #32
 368              		.loc 2 101 6
 369 0040 002B     		cmp	r3, #0
 370 0042 0AD0     		beq	.L27
 371              		.loc 2 102 5
 372 0044 7B68     		ldr	r3, [r7, #4]
 373 0046 5B68     		ldr	r3, [r3, #4]
 374 0048 DB68     		ldr	r3, [r3, #12]
 375 004a 002B     		cmp	r3, #0
 376 004c 05D0     		beq	.L27
 377              		.loc 2 102 5 is_stmt 0 discriminator 1
 378 004e 7B68     		ldr	r3, [r7, #4]
 379 0050 5B68     		ldr	r3, [r3, #4]
 380 0052 DB68     		ldr	r3, [r3, #12]
 381 0054 0021     		movs	r1, #0
 382 0056 7868     		ldr	r0, [r7, #4]
 383 0058 9847     		blx	r3
 384              	.LVL1:
 385              	.L27:
 386              		.loc 2 104 1 is_stmt 1
 387 005a 00BF     		nop
 388 005c 0837     		adds	r7, r7, #8
 389              		.cfi_def_cfa_offset 8
 390 005e BD46     		mov	sp, r7
 391              		.cfi_def_cfa_register 13
 392              		@ sp needed
 393 0060 80BD     		pop	{r7, pc}
 394              		.cfi_endproc
 395              	.LFE434:
ARM GAS  C:\Users\DEVELO~1\AppData\Local\Temp\ccsHIVqO.s 			page 8


 396              		.size	sai_lld_serve_dma_interrupt, .-sai_lld_serve_dma_interrupt
 397              		.section	.text.sai_lld_stream_id,"ax",%progbits
 398              		.align	1
 399              		.syntax unified
 400              		.thumb
 401              		.thumb_func
 402              		.type	sai_lld_stream_id, %function
 403              	sai_lld_stream_id:
 404              	.LFB435:
 405              		.loc 2 106 70
 406              		.cfi_startproc
 407              		@ args = 0, pretend = 0, frame = 8
 408              		@ frame_needed = 1, uses_anonymous_args = 0
 409              		@ link register save eliminated.
 410 0000 80B4     		push	{r7}
 411              		.cfi_def_cfa_offset 4
 412              		.cfi_offset 7, -4
 413 0002 83B0     		sub	sp, sp, #12
 414              		.cfi_def_cfa_offset 16
 415 0004 00AF     		add	r7, sp, #0
 416              		.cfi_def_cfa_register 7
 417 0006 7860     		str	r0, [r7, #4]
 418 0008 0B46     		mov	r3, r1
 419 000a FB70     		strb	r3, [r7, #3]
 420              		.loc 2 108 11
 421 000c 7B68     		ldr	r3, [r7, #4]
 422 000e 9B68     		ldr	r3, [r3, #8]
 423              		.loc 2 108 6
 424 0010 0D4A     		ldr	r2, .L35
 425 0012 9342     		cmp	r3, r2
 426 0014 07D1     		bne	.L29
 427              		.loc 2 109 13
 428 0016 7B68     		ldr	r3, [r7, #4]
 429 0018 1B7C     		ldrb	r3, [r3, #16]	@ zero_extendqisi2
 430              		.loc 2 109 8
 431 001a 002B     		cmp	r3, #0
 432 001c 01D1     		bne	.L30
 433              		.loc 2 110 52
 434 001e 1023     		movs	r3, #16
 435 0020 0DE0     		b	.L31
 436              	.L30:
 437              		.loc 2 112 50
 438 0022 1023     		movs	r3, #16
 439 0024 0BE0     		b	.L31
 440              	.L29:
 441              		.loc 2 115 11
 442 0026 7B68     		ldr	r3, [r7, #4]
 443 0028 1B7C     		ldrb	r3, [r3, #16]	@ zero_extendqisi2
 444              		.loc 2 115 6
 445 002a 002B     		cmp	r3, #0
 446 002c 06D1     		bne	.L32
 447              		.loc 2 116 50
 448 002e FB78     		ldrb	r3, [r7, #3]	@ zero_extendqisi2
 449 0030 002B     		cmp	r3, #0
 450 0032 01D0     		beq	.L33
 451              		.loc 2 116 50 is_stmt 0 discriminator 1
 452 0034 0923     		movs	r3, #9
ARM GAS  C:\Users\DEVELO~1\AppData\Local\Temp\ccsHIVqO.s 			page 9


 453 0036 02E0     		b	.L31
 454              	.L33:
 455              		.loc 2 116 50 discriminator 2
 456 0038 0823     		movs	r3, #8
 457 003a 00E0     		b	.L31
 458              	.L32:
 459              		.loc 2 119 48 is_stmt 1
 460 003c 1023     		movs	r3, #16
 461              	.L31:
 462              		.loc 2 120 1
 463 003e 1846     		mov	r0, r3
 464 0040 0C37     		adds	r7, r7, #12
 465              		.cfi_def_cfa_offset 4
 466 0042 BD46     		mov	sp, r7
 467              		.cfi_def_cfa_register 13
 468              		@ sp needed
 469 0044 80BC     		pop	{r7}
 470              		.cfi_restore 7
 471              		.cfi_def_cfa_offset 0
 472 0046 7047     		bx	lr
 473              	.L36:
 474              		.align	2
 475              	.L35:
 476 0048 00580140 		.word	1073829888
 477              		.cfi_endproc
 478              	.LFE435:
 479              		.size	sai_lld_stream_id, .-sai_lld_stream_id
 480              		.section	.text.sai_lld_irq_priority,"ax",%progbits
 481              		.align	1
 482              		.syntax unified
 483              		.thumb
 484              		.thumb_func
 485              		.type	sai_lld_irq_priority, %function
 486              	sai_lld_irq_priority:
 487              	.LFB436:
 488              		.loc 2 122 61
 489              		.cfi_startproc
 490              		@ args = 0, pretend = 0, frame = 8
 491              		@ frame_needed = 1, uses_anonymous_args = 0
 492              		@ link register save eliminated.
 493 0000 80B4     		push	{r7}
 494              		.cfi_def_cfa_offset 4
 495              		.cfi_offset 7, -4
 496 0002 83B0     		sub	sp, sp, #12
 497              		.cfi_def_cfa_offset 16
 498 0004 00AF     		add	r7, sp, #0
 499              		.cfi_def_cfa_register 7
 500 0006 7860     		str	r0, [r7, #4]
 501              		.loc 2 124 11
 502 0008 7B68     		ldr	r3, [r7, #4]
 503 000a 9B68     		ldr	r3, [r3, #8]
 504              		.loc 2 124 6
 505 000c 084A     		ldr	r2, .L42
 506 000e 9342     		cmp	r3, r2
 507 0010 01D1     		bne	.L38
 508              		.loc 2 126 47
 509 0012 0A23     		movs	r3, #10
ARM GAS  C:\Users\DEVELO~1\AppData\Local\Temp\ccsHIVqO.s 			page 10


 510 0014 06E0     		b	.L39
 511              	.L38:
 512              		.loc 2 129 15
 513 0016 7B68     		ldr	r3, [r7, #4]
 514 0018 1B7C     		ldrb	r3, [r3, #16]	@ zero_extendqisi2
 515              		.loc 2 130 45
 516 001a 002B     		cmp	r3, #0
 517 001c 01D1     		bne	.L40
 518              		.loc 2 130 45 is_stmt 0 discriminator 1
 519 001e 0523     		movs	r3, #5
 520 0020 00E0     		b	.L39
 521              	.L40:
 522              		.loc 2 130 45 discriminator 2
 523 0022 0A23     		movs	r3, #10
 524              	.L39:
 525              		.loc 2 131 1 is_stmt 1
 526 0024 1846     		mov	r0, r3
 527 0026 0C37     		adds	r7, r7, #12
 528              		.cfi_def_cfa_offset 4
 529 0028 BD46     		mov	sp, r7
 530              		.cfi_def_cfa_register 13
 531              		@ sp needed
 532 002a 80BC     		pop	{r7}
 533              		.cfi_restore 7
 534              		.cfi_def_cfa_offset 0
 535 002c 7047     		bx	lr
 536              	.L43:
 537 002e 00BF     		.align	2
 538              	.L42:
 539 0030 00580140 		.word	1073829888
 540              		.cfi_endproc
 541              	.LFE436:
 542              		.size	sai_lld_irq_priority, .-sai_lld_irq_priority
 543              		.section	.text.sai_lld_dma_priority,"ax",%progbits
 544              		.align	1
 545              		.syntax unified
 546              		.thumb
 547              		.thumb_func
 548              		.type	sai_lld_dma_priority, %function
 549              	sai_lld_dma_priority:
 550              	.LFB437:
 551              		.loc 2 133 61
 552              		.cfi_startproc
 553              		@ args = 0, pretend = 0, frame = 8
 554              		@ frame_needed = 1, uses_anonymous_args = 0
 555              		@ link register save eliminated.
 556 0000 80B4     		push	{r7}
 557              		.cfi_def_cfa_offset 4
 558              		.cfi_offset 7, -4
 559 0002 83B0     		sub	sp, sp, #12
 560              		.cfi_def_cfa_offset 16
 561 0004 00AF     		add	r7, sp, #0
 562              		.cfi_def_cfa_register 7
 563 0006 7860     		str	r0, [r7, #4]
 564              		.loc 2 135 11
 565 0008 7B68     		ldr	r3, [r7, #4]
 566 000a 9B68     		ldr	r3, [r3, #8]
ARM GAS  C:\Users\DEVELO~1\AppData\Local\Temp\ccsHIVqO.s 			page 11


 567              		.loc 2 135 6
 568 000c 084A     		ldr	r2, .L49
 569 000e 9342     		cmp	r3, r2
 570 0010 01D1     		bne	.L45
 571              		.loc 2 137 47
 572 0012 0123     		movs	r3, #1
 573 0014 06E0     		b	.L46
 574              	.L45:
 575              		.loc 2 140 15
 576 0016 7B68     		ldr	r3, [r7, #4]
 577 0018 1B7C     		ldrb	r3, [r3, #16]	@ zero_extendqisi2
 578              		.loc 2 141 45
 579 001a 002B     		cmp	r3, #0
 580 001c 01D1     		bne	.L47
 581              		.loc 2 141 45 is_stmt 0 discriminator 1
 582 001e 0223     		movs	r3, #2
 583 0020 00E0     		b	.L46
 584              	.L47:
 585              		.loc 2 141 45 discriminator 2
 586 0022 0123     		movs	r3, #1
 587              	.L46:
 588              		.loc 2 142 1 is_stmt 1
 589 0024 1846     		mov	r0, r3
 590 0026 0C37     		adds	r7, r7, #12
 591              		.cfi_def_cfa_offset 4
 592 0028 BD46     		mov	sp, r7
 593              		.cfi_def_cfa_register 13
 594              		@ sp needed
 595 002a 80BC     		pop	{r7}
 596              		.cfi_restore 7
 597              		.cfi_def_cfa_offset 0
 598 002c 7047     		bx	lr
 599              	.L50:
 600 002e 00BF     		.align	2
 601              	.L49:
 602 0030 00580140 		.word	1073829888
 603              		.cfi_endproc
 604              	.LFE437:
 605              		.size	sai_lld_dma_priority, .-sai_lld_dma_priority
 606              		.section	.text.sai_lld_init,"ax",%progbits
 607              		.align	1
 608              		.global	sai_lld_init
 609              		.syntax unified
 610              		.thumb
 611              		.thumb_func
 612              		.type	sai_lld_init, %function
 613              	sai_lld_init:
 614              	.LFB438:
 615              		.loc 2 148 25
 616              		.cfi_startproc
 617              		@ args = 0, pretend = 0, frame = 0
 618              		@ frame_needed = 1, uses_anonymous_args = 0
 619 0000 80B5     		push	{r7, lr}
 620              		.cfi_def_cfa_offset 8
 621              		.cfi_offset 7, -8
 622              		.cfi_offset 14, -4
 623 0002 00AF     		add	r7, sp, #0
ARM GAS  C:\Users\DEVELO~1\AppData\Local\Temp\ccsHIVqO.s 			page 12


 624              		.cfi_def_cfa_register 7
 625              		.loc 2 167 3
 626 0004 0648     		ldr	r0, .L52
 627 0006 FFF7FEFF 		bl	saiObjectInit
 628              		.loc 2 168 14
 629 000a 054B     		ldr	r3, .L52
 630 000c 054A     		ldr	r2, .L52+4
 631 000e 9A60     		str	r2, [r3, #8]
 632              		.loc 2 170 17
 633 0010 034B     		ldr	r3, .L52
 634 0012 054A     		ldr	r2, .L52+8
 635 0014 DA60     		str	r2, [r3, #12]
 636              		.loc 2 171 16
 637 0016 024B     		ldr	r3, .L52
 638 0018 0022     		movs	r2, #0
 639 001a 1A74     		strb	r2, [r3, #16]
 640              		.loc 2 181 1
 641 001c 00BF     		nop
 642 001e 80BD     		pop	{r7, pc}
 643              	.L53:
 644              		.align	2
 645              	.L52:
 646 0020 00000000 		.word	SAID2A
 647 0024 005C0140 		.word	1073830912
 648 0028 045C0140 		.word	1073830916
 649              		.cfi_endproc
 650              	.LFE438:
 651              		.size	sai_lld_init, .-sai_lld_init
 652              		.section	.text.sai_lld_start,"ax",%progbits
 653              		.align	1
 654              		.global	sai_lld_start
 655              		.syntax unified
 656              		.thumb
 657              		.thumb_func
 658              		.type	sai_lld_start, %function
 659              	sai_lld_start:
 660              	.LFB439:
 661              		.loc 2 183 37
 662              		.cfi_startproc
 663              		@ args = 0, pretend = 0, frame = 16
 664              		@ frame_needed = 1, uses_anonymous_args = 0
 665 0000 90B5     		push	{r4, r7, lr}
 666              		.cfi_def_cfa_offset 12
 667              		.cfi_offset 4, -12
 668              		.cfi_offset 7, -8
 669              		.cfi_offset 14, -4
 670 0002 85B0     		sub	sp, sp, #20
 671              		.cfi_def_cfa_offset 32
 672 0004 00AF     		add	r7, sp, #0
 673              		.cfi_def_cfa_register 7
 674 0006 7860     		str	r0, [r7, #4]
 675              		.loc 2 187 11
 676 0008 7B68     		ldr	r3, [r7, #4]
 677 000a 1B78     		ldrb	r3, [r3]	@ zero_extendqisi2
 678              		.loc 2 187 6
 679 000c 012B     		cmp	r3, #1
 680 000e 4ED1     		bne	.L55
ARM GAS  C:\Users\DEVELO~1\AppData\Local\Temp\ccsHIVqO.s 			page 13


 681              		.loc 2 188 13
 682 0010 7B68     		ldr	r3, [r7, #4]
 683 0012 9B68     		ldr	r3, [r3, #8]
 684              		.loc 2 188 8
 685 0014 4D4A     		ldr	r2, .L60
 686 0016 9342     		cmp	r3, r2
 687 0018 0CD1     		bne	.L56
 688              		.loc 2 189 19
 689 001a 4D4B     		ldr	r3, .L60+4
 690 001c 1B68     		ldr	r3, [r3]
 691 001e 5A1C     		adds	r2, r3, #1
 692 0020 4B49     		ldr	r1, .L60+4
 693 0022 0A60     		str	r2, [r1]
 694              		.loc 2 189 10
 695 0024 002B     		cmp	r3, #0
 696 0026 11D1     		bne	.L57
 697              		.loc 2 190 9
 698 0028 0121     		movs	r1, #1
 699 002a 4FF48000 		mov	r0, #4194304
 700 002e FFF7FEFF 		bl	rccEnableAPB2
 701 0032 0BE0     		b	.L57
 702              	.L56:
 703              		.loc 2 194 19
 704 0034 474B     		ldr	r3, .L60+8
 705 0036 1B68     		ldr	r3, [r3]
 706 0038 5A1C     		adds	r2, r3, #1
 707 003a 4649     		ldr	r1, .L60+8
 708 003c 0A60     		str	r2, [r1]
 709              		.loc 2 194 10
 710 003e 002B     		cmp	r3, #0
 711 0040 04D1     		bne	.L57
 712              		.loc 2 195 9
 713 0042 0121     		movs	r1, #1
 714 0044 4FF40000 		mov	r0, #8388608
 715 0048 FFF7FEFF 		bl	rccEnableAPB2
 716              	.L57:
 717              		.loc 2 199 13
 718 004c 7868     		ldr	r0, [r7, #4]
 719 004e FFF7FEFF 		bl	sai_lld_is_rx
 720 0052 0346     		mov	r3, r0
 721 0054 FB73     		strb	r3, [r7, #15]
 722              		.loc 2 201 8
 723 0056 FB7B     		ldrb	r3, [r7, #15]	@ zero_extendqisi2
 724 0058 002B     		cmp	r3, #0
 725 005a 14D0     		beq	.L58
 726              		.loc 2 202 21
 727 005c 0121     		movs	r1, #1
 728 005e 7868     		ldr	r0, [r7, #4]
 729 0060 FFF7FEFF 		bl	sai_lld_stream_id
 730 0064 0446     		mov	r4, r0
 731 0066 7868     		ldr	r0, [r7, #4]
 732 0068 FFF7FEFF 		bl	sai_lld_irq_priority
 733 006c 0146     		mov	r1, r0
 734 006e 7B68     		ldr	r3, [r7, #4]
 735 0070 394A     		ldr	r2, .L60+12
 736 0072 2046     		mov	r0, r4
 737 0074 FFF7FEFF 		bl	dmaStreamAllocI
ARM GAS  C:\Users\DEVELO~1\AppData\Local\Temp\ccsHIVqO.s 			page 14


 738 0078 0246     		mov	r2, r0
 739              		.loc 2 202 19
 740 007a 7B68     		ldr	r3, [r7, #4]
 741 007c 5A61     		str	r2, [r3, #20]
 742              		.loc 2 207 19
 743 007e 7B68     		ldr	r3, [r7, #4]
 744 0080 0022     		movs	r2, #0
 745 0082 9A61     		str	r2, [r3, #24]
 746 0084 13E0     		b	.L55
 747              	.L58:
 748              		.loc 2 210 21
 749 0086 0021     		movs	r1, #0
 750 0088 7868     		ldr	r0, [r7, #4]
 751 008a FFF7FEFF 		bl	sai_lld_stream_id
 752 008e 0446     		mov	r4, r0
 753 0090 7868     		ldr	r0, [r7, #4]
 754 0092 FFF7FEFF 		bl	sai_lld_irq_priority
 755 0096 0146     		mov	r1, r0
 756 0098 7B68     		ldr	r3, [r7, #4]
 757 009a 2F4A     		ldr	r2, .L60+12
 758 009c 2046     		mov	r0, r4
 759 009e FFF7FEFF 		bl	dmaStreamAllocI
 760 00a2 0246     		mov	r2, r0
 761              		.loc 2 210 19
 762 00a4 7B68     		ldr	r3, [r7, #4]
 763 00a6 9A61     		str	r2, [r3, #24]
 764              		.loc 2 215 19
 765 00a8 7B68     		ldr	r3, [r7, #4]
 766 00aa 0022     		movs	r2, #0
 767 00ac 5A61     		str	r2, [r3, #20]
 768              	.L55:
 769              		.loc 2 219 13
 770 00ae 7B68     		ldr	r3, [r7, #4]
 771 00b0 5B68     		ldr	r3, [r3, #4]
 772              		.loc 2 219 21
 773 00b2 5B69     		ldr	r3, [r3, #20]
 774              		.loc 2 219 7
 775 00b4 23F44033 		bic	r3, r3, #196608
 776 00b8 BB60     		str	r3, [r7, #8]
 777              		.loc 2 220 7
 778 00ba 7B68     		ldr	r3, [r7, #4]
 779 00bc DB68     		ldr	r3, [r3, #12]
 780              		.loc 2 220 21
 781 00be 1A68     		ldr	r2, [r3]
 782              		.loc 2 220 7
 783 00c0 7B68     		ldr	r3, [r7, #4]
 784 00c2 DB68     		ldr	r3, [r3, #12]
 785              		.loc 2 220 21
 786 00c4 22F48032 		bic	r2, r2, #65536
 787 00c8 1A60     		str	r2, [r3]
 788              		.loc 2 221 9
 789 00ca 00BF     		nop
 790              	.L59:
 791              		.loc 2 221 15 discriminator 1
 792 00cc 7B68     		ldr	r3, [r7, #4]
 793 00ce DB68     		ldr	r3, [r3, #12]
 794              		.loc 2 221 23 discriminator 1
ARM GAS  C:\Users\DEVELO~1\AppData\Local\Temp\ccsHIVqO.s 			page 15


 795 00d0 1B68     		ldr	r3, [r3]
 796              		.loc 2 221 29 discriminator 1
 797 00d2 03F48033 		and	r3, r3, #65536
 798              		.loc 2 221 47 discriminator 1
 799 00d6 002B     		cmp	r3, #0
 800 00d8 F8D1     		bne	.L59
 801              		.loc 2 223 7
 802 00da 7B68     		ldr	r3, [r7, #4]
 803 00dc DB68     		ldr	r3, [r3, #12]
 804              		.loc 2 223 21
 805 00de 1A68     		ldr	r2, [r3]
 806              		.loc 2 223 7
 807 00e0 7B68     		ldr	r3, [r7, #4]
 808 00e2 DB68     		ldr	r3, [r3, #12]
 809              		.loc 2 223 21
 810 00e4 22F40032 		bic	r2, r2, #131072
 811 00e8 1A60     		str	r2, [r3]
 812              		.loc 2 224 7
 813 00ea 7B68     		ldr	r3, [r7, #4]
 814 00ec DB68     		ldr	r3, [r3, #12]
 815              		.loc 2 224 21
 816 00ee 1A68     		ldr	r2, [r3]
 817              		.loc 2 224 7
 818 00f0 7B68     		ldr	r3, [r7, #4]
 819 00f2 DB68     		ldr	r3, [r3, #12]
 820              		.loc 2 224 21
 821 00f4 22F40032 		bic	r2, r2, #131072
 822 00f8 1A60     		str	r2, [r3]
 823              		.loc 2 228 24
 824 00fa 7B68     		ldr	r3, [r7, #4]
 825 00fc 5A68     		ldr	r2, [r3, #4]
 826              		.loc 2 228 7
 827 00fe 7B68     		ldr	r3, [r7, #4]
 828 0100 9B68     		ldr	r3, [r3, #8]
 829              		.loc 2 228 32
 830 0102 1269     		ldr	r2, [r2, #16]
 831              		.loc 2 228 18
 832 0104 1A60     		str	r2, [r3]
 833              		.loc 2 229 7
 834 0106 7B68     		ldr	r3, [r7, #4]
 835 0108 DB68     		ldr	r3, [r3, #12]
 836              		.loc 2 229 21
 837 010a BA68     		ldr	r2, [r7, #8]
 838 010c 1A60     		str	r2, [r3]
 839              		.loc 2 230 27
 840 010e 7B68     		ldr	r3, [r7, #4]
 841 0110 5A68     		ldr	r2, [r3, #4]
 842              		.loc 2 230 7
 843 0112 7B68     		ldr	r3, [r7, #4]
 844 0114 DB68     		ldr	r3, [r3, #12]
 845              		.loc 2 230 35
 846 0116 9269     		ldr	r2, [r2, #24]
 847              		.loc 2 230 21
 848 0118 5A60     		str	r2, [r3, #4]
 849              		.loc 2 231 28
 850 011a 7B68     		ldr	r3, [r7, #4]
 851 011c 5A68     		ldr	r2, [r3, #4]
ARM GAS  C:\Users\DEVELO~1\AppData\Local\Temp\ccsHIVqO.s 			page 16


 852              		.loc 2 231 7
 853 011e 7B68     		ldr	r3, [r7, #4]
 854 0120 DB68     		ldr	r3, [r3, #12]
 855              		.loc 2 231 36
 856 0122 D269     		ldr	r2, [r2, #28]
 857              		.loc 2 231 22
 858 0124 9A60     		str	r2, [r3, #8]
 859              		.loc 2 232 29
 860 0126 7B68     		ldr	r3, [r7, #4]
 861 0128 5A68     		ldr	r2, [r3, #4]
 862              		.loc 2 232 7
 863 012a 7B68     		ldr	r3, [r7, #4]
 864 012c DB68     		ldr	r3, [r3, #12]
 865              		.loc 2 232 37
 866 012e 126A     		ldr	r2, [r2, #32]
 867              		.loc 2 232 23
 868 0130 DA60     		str	r2, [r3, #12]
 869              		.loc 2 233 7
 870 0132 7B68     		ldr	r3, [r7, #4]
 871 0134 DB68     		ldr	r3, [r3, #12]
 872              		.loc 2 233 21
 873 0136 0022     		movs	r2, #0
 874 0138 1A61     		str	r2, [r3, #16]
 875              		.loc 2 234 7
 876 013a 7B68     		ldr	r3, [r7, #4]
 877 013c DB68     		ldr	r3, [r3, #12]
 878              		.loc 2 234 23
 879 013e 4FF0FF32 		mov	r2, #-1
 880 0142 9A61     		str	r2, [r3, #24]
 881              		.loc 2 235 1
 882 0144 00BF     		nop
 883 0146 1437     		adds	r7, r7, #20
 884              		.cfi_def_cfa_offset 12
 885 0148 BD46     		mov	sp, r7
 886              		.cfi_def_cfa_register 13
 887              		@ sp needed
 888 014a 90BD     		pop	{r4, r7, pc}
 889              	.L61:
 890              		.align	2
 891              	.L60:
 892 014c 00580140 		.word	1073829888
 893 0150 00000000 		.word	sai1_ref
 894 0154 00000000 		.word	sai2_ref
 895 0158 00000000 		.word	sai_lld_serve_dma_interrupt
 896              		.cfi_endproc
 897              	.LFE439:
 898              		.size	sai_lld_start, .-sai_lld_start
 899              		.section	.text.sai_lld_stop,"ax",%progbits
 900              		.align	1
 901              		.global	sai_lld_stop
 902              		.syntax unified
 903              		.thumb
 904              		.thumb_func
 905              		.type	sai_lld_stop, %function
 906              	sai_lld_stop:
 907              	.LFB440:
 908              		.loc 2 237 36
ARM GAS  C:\Users\DEVELO~1\AppData\Local\Temp\ccsHIVqO.s 			page 17


 909              		.cfi_startproc
 910              		@ args = 0, pretend = 0, frame = 8
 911              		@ frame_needed = 1, uses_anonymous_args = 0
 912 0000 80B5     		push	{r7, lr}
 913              		.cfi_def_cfa_offset 8
 914              		.cfi_offset 7, -8
 915              		.cfi_offset 14, -4
 916 0002 82B0     		sub	sp, sp, #8
 917              		.cfi_def_cfa_offset 16
 918 0004 00AF     		add	r7, sp, #0
 919              		.cfi_def_cfa_register 7
 920 0006 7860     		str	r0, [r7, #4]
 921              		.loc 2 238 7
 922 0008 7B68     		ldr	r3, [r7, #4]
 923 000a DB68     		ldr	r3, [r3, #12]
 924              		.loc 2 238 21
 925 000c 1A68     		ldr	r2, [r3]
 926              		.loc 2 238 7
 927 000e 7B68     		ldr	r3, [r7, #4]
 928 0010 DB68     		ldr	r3, [r3, #12]
 929              		.loc 2 238 21
 930 0012 22F48032 		bic	r2, r2, #65536
 931 0016 1A60     		str	r2, [r3]
 932              		.loc 2 239 9
 933 0018 00BF     		nop
 934              	.L63:
 935              		.loc 2 239 15 discriminator 1
 936 001a 7B68     		ldr	r3, [r7, #4]
 937 001c DB68     		ldr	r3, [r3, #12]
 938              		.loc 2 239 23 discriminator 1
 939 001e 1B68     		ldr	r3, [r3]
 940              		.loc 2 239 29 discriminator 1
 941 0020 03F48033 		and	r3, r3, #65536
 942              		.loc 2 239 47 discriminator 1
 943 0024 002B     		cmp	r3, #0
 944 0026 F8D1     		bne	.L63
 945              		.loc 2 241 7
 946 0028 7B68     		ldr	r3, [r7, #4]
 947 002a DB68     		ldr	r3, [r3, #12]
 948              		.loc 2 241 21
 949 002c 1A68     		ldr	r2, [r3]
 950              		.loc 2 241 7
 951 002e 7B68     		ldr	r3, [r7, #4]
 952 0030 DB68     		ldr	r3, [r3, #12]
 953              		.loc 2 241 21
 954 0032 22F40032 		bic	r2, r2, #131072
 955 0036 1A60     		str	r2, [r3]
 956              		.loc 2 243 11
 957 0038 7B68     		ldr	r3, [r7, #4]
 958 003a 5B69     		ldr	r3, [r3, #20]
 959              		.loc 2 243 6
 960 003c 002B     		cmp	r3, #0
 961 003e 23D0     		beq	.L64
 962              		.loc 2 244 5
 963 0040 7B68     		ldr	r3, [r7, #4]
 964 0042 5B69     		ldr	r3, [r3, #20]
 965 0044 1B68     		ldr	r3, [r3]
ARM GAS  C:\Users\DEVELO~1\AppData\Local\Temp\ccsHIVqO.s 			page 18


 966 0046 1A68     		ldr	r2, [r3]
 967 0048 7B68     		ldr	r3, [r7, #4]
 968 004a 5B69     		ldr	r3, [r3, #20]
 969 004c 1B68     		ldr	r3, [r3]
 970 004e 22F01F02 		bic	r2, r2, #31
 971 0052 1A60     		str	r2, [r3]
 972              	.L65:
 973              		.loc 2 244 5 is_stmt 0 discriminator 2
 974 0054 7B68     		ldr	r3, [r7, #4]
 975 0056 5B69     		ldr	r3, [r3, #20]
 976 0058 1B68     		ldr	r3, [r3]
 977 005a 1B68     		ldr	r3, [r3]
 978 005c 03F00103 		and	r3, r3, #1
 979 0060 002B     		cmp	r3, #0
 980 0062 F7D1     		bne	.L65
 981              		.loc 2 244 5 discriminator 3
 982 0064 7B68     		ldr	r3, [r7, #4]
 983 0066 5B69     		ldr	r3, [r3, #20]
 984 0068 1B7B     		ldrb	r3, [r3, #12]	@ zero_extendqisi2
 985 006a 1946     		mov	r1, r3
 986 006c 7B68     		ldr	r3, [r7, #4]
 987 006e 5B69     		ldr	r3, [r3, #20]
 988 0070 5B68     		ldr	r3, [r3, #4]
 989 0072 3D22     		movs	r2, #61
 990 0074 8A40     		lsls	r2, r2, r1
 991 0076 1A60     		str	r2, [r3]
 992              		.loc 2 245 5 is_stmt 1 discriminator 3
 993 0078 7B68     		ldr	r3, [r7, #4]
 994 007a 5B69     		ldr	r3, [r3, #20]
 995 007c 1846     		mov	r0, r3
 996 007e FFF7FEFF 		bl	dmaStreamFreeI
 997              		.loc 2 246 17 discriminator 3
 998 0082 7B68     		ldr	r3, [r7, #4]
 999 0084 0022     		movs	r2, #0
 1000 0086 5A61     		str	r2, [r3, #20]
 1001              	.L64:
 1002              		.loc 2 249 11
 1003 0088 7B68     		ldr	r3, [r7, #4]
 1004 008a 9B69     		ldr	r3, [r3, #24]
 1005              		.loc 2 249 6
 1006 008c 002B     		cmp	r3, #0
 1007 008e 23D0     		beq	.L66
 1008              		.loc 2 250 5
 1009 0090 7B68     		ldr	r3, [r7, #4]
 1010 0092 9B69     		ldr	r3, [r3, #24]
 1011 0094 1B68     		ldr	r3, [r3]
 1012 0096 1A68     		ldr	r2, [r3]
 1013 0098 7B68     		ldr	r3, [r7, #4]
 1014 009a 9B69     		ldr	r3, [r3, #24]
 1015 009c 1B68     		ldr	r3, [r3]
 1016 009e 22F01F02 		bic	r2, r2, #31
 1017 00a2 1A60     		str	r2, [r3]
 1018              	.L67:
 1019              		.loc 2 250 5 is_stmt 0 discriminator 2
 1020 00a4 7B68     		ldr	r3, [r7, #4]
 1021 00a6 9B69     		ldr	r3, [r3, #24]
 1022 00a8 1B68     		ldr	r3, [r3]
ARM GAS  C:\Users\DEVELO~1\AppData\Local\Temp\ccsHIVqO.s 			page 19


 1023 00aa 1B68     		ldr	r3, [r3]
 1024 00ac 03F00103 		and	r3, r3, #1
 1025 00b0 002B     		cmp	r3, #0
 1026 00b2 F7D1     		bne	.L67
 1027              		.loc 2 250 5 discriminator 3
 1028 00b4 7B68     		ldr	r3, [r7, #4]
 1029 00b6 9B69     		ldr	r3, [r3, #24]
 1030 00b8 1B7B     		ldrb	r3, [r3, #12]	@ zero_extendqisi2
 1031 00ba 1946     		mov	r1, r3
 1032 00bc 7B68     		ldr	r3, [r7, #4]
 1033 00be 9B69     		ldr	r3, [r3, #24]
 1034 00c0 5B68     		ldr	r3, [r3, #4]
 1035 00c2 3D22     		movs	r2, #61
 1036 00c4 8A40     		lsls	r2, r2, r1
 1037 00c6 1A60     		str	r2, [r3]
 1038              		.loc 2 251 5 is_stmt 1 discriminator 3
 1039 00c8 7B68     		ldr	r3, [r7, #4]
 1040 00ca 9B69     		ldr	r3, [r3, #24]
 1041 00cc 1846     		mov	r0, r3
 1042 00ce FFF7FEFF 		bl	dmaStreamFreeI
 1043              		.loc 2 252 17 discriminator 3
 1044 00d2 7B68     		ldr	r3, [r7, #4]
 1045 00d4 0022     		movs	r2, #0
 1046 00d6 9A61     		str	r2, [r3, #24]
 1047              	.L66:
 1048              		.loc 2 255 11
 1049 00d8 7B68     		ldr	r3, [r7, #4]
 1050 00da 9B68     		ldr	r3, [r3, #8]
 1051              		.loc 2 255 6
 1052 00dc 104A     		ldr	r2, .L71
 1053 00de 9342     		cmp	r3, r2
 1054 00e0 0DD1     		bne	.L68
 1055              		.loc 2 256 9
 1056 00e2 104B     		ldr	r3, .L71+4
 1057 00e4 1B68     		ldr	r3, [r3]
 1058 00e6 013B     		subs	r3, r3, #1
 1059              		.loc 2 256 8
 1060 00e8 0E4A     		ldr	r2, .L71+4
 1061 00ea 1360     		str	r3, [r2]
 1062              		.loc 2 256 9
 1063 00ec 0D4B     		ldr	r3, .L71+4
 1064 00ee 1B68     		ldr	r3, [r3]
 1065              		.loc 2 256 8
 1066 00f0 002B     		cmp	r3, #0
 1067 00f2 11D1     		bne	.L70
 1068              		.loc 2 257 7
 1069 00f4 4FF48000 		mov	r0, #4194304
 1070 00f8 FFF7FEFF 		bl	rccDisableAPB2
 1071              		.loc 2 265 1
 1072 00fc 0CE0     		b	.L70
 1073              	.L68:
 1074              		.loc 2 261 9
 1075 00fe 0A4B     		ldr	r3, .L71+8
 1076 0100 1B68     		ldr	r3, [r3]
 1077 0102 013B     		subs	r3, r3, #1
 1078              		.loc 2 261 8
 1079 0104 084A     		ldr	r2, .L71+8
ARM GAS  C:\Users\DEVELO~1\AppData\Local\Temp\ccsHIVqO.s 			page 20


 1080 0106 1360     		str	r3, [r2]
 1081              		.loc 2 261 9
 1082 0108 074B     		ldr	r3, .L71+8
 1083 010a 1B68     		ldr	r3, [r3]
 1084              		.loc 2 261 8
 1085 010c 002B     		cmp	r3, #0
 1086 010e 03D1     		bne	.L70
 1087              		.loc 2 262 7
 1088 0110 4FF40000 		mov	r0, #8388608
 1089 0114 FFF7FEFF 		bl	rccDisableAPB2
 1090              	.L70:
 1091              		.loc 2 265 1
 1092 0118 00BF     		nop
 1093 011a 0837     		adds	r7, r7, #8
 1094              		.cfi_def_cfa_offset 8
 1095 011c BD46     		mov	sp, r7
 1096              		.cfi_def_cfa_register 13
 1097              		@ sp needed
 1098 011e 80BD     		pop	{r7, pc}
 1099              	.L72:
 1100              		.align	2
 1101              	.L71:
 1102 0120 00580140 		.word	1073829888
 1103 0124 00000000 		.word	sai1_ref
 1104 0128 00000000 		.word	sai2_ref
 1105              		.cfi_endproc
 1106              	.LFE440:
 1107              		.size	sai_lld_stop, .-sai_lld_stop
 1108              		.section	.text.sai_lld_set_buffers,"ax",%progbits
 1109              		.align	1
 1110              		.global	sai_lld_set_buffers
 1111              		.syntax unified
 1112              		.thumb
 1113              		.thumb_func
 1114              		.type	sai_lld_set_buffers, %function
 1115              	sai_lld_set_buffers:
 1116              	.LFB441:
 1117              		.loc 2 270 39
 1118              		.cfi_startproc
 1119              		@ args = 0, pretend = 0, frame = 24
 1120              		@ frame_needed = 1, uses_anonymous_args = 0
 1121 0000 90B5     		push	{r4, r7, lr}
 1122              		.cfi_def_cfa_offset 12
 1123              		.cfi_offset 4, -12
 1124              		.cfi_offset 7, -8
 1125              		.cfi_offset 14, -4
 1126 0002 87B0     		sub	sp, sp, #28
 1127              		.cfi_def_cfa_offset 40
 1128 0004 00AF     		add	r7, sp, #0
 1129              		.cfi_def_cfa_register 7
 1130 0006 F860     		str	r0, [r7, #12]
 1131 0008 B960     		str	r1, [r7, #8]
 1132 000a 7A60     		str	r2, [r7, #4]
 1133 000c 3B60     		str	r3, [r7]
 1134              		.loc 2 278 15
 1135 000e FB68     		ldr	r3, [r7, #12]
 1136 0010 BA68     		ldr	r2, [r7, #8]
ARM GAS  C:\Users\DEVELO~1\AppData\Local\Temp\ccsHIVqO.s 			page 21


 1137 0012 5A62     		str	r2, [r3, #36]
 1138              		.loc 2 279 15
 1139 0014 FB68     		ldr	r3, [r7, #12]
 1140 0016 7A68     		ldr	r2, [r7, #4]
 1141 0018 9A62     		str	r2, [r3, #40]
 1142              		.loc 2 280 17
 1143 001a FB68     		ldr	r3, [r7, #12]
 1144 001c 3A68     		ldr	r2, [r7]
 1145 001e DA62     		str	r2, [r3, #44]
 1146              		.loc 2 282 13
 1147 0020 F868     		ldr	r0, [r7, #12]
 1148 0022 FFF7FEFF 		bl	sai_lld_dma_request
 1149 0026 7861     		str	r0, [r7, #20]
 1150              		.loc 2 283 11
 1151 0028 F868     		ldr	r0, [r7, #12]
 1152 002a FFF7FEFF 		bl	sai_lld_is_rx
 1153 002e 0346     		mov	r3, r0
 1154 0030 FB74     		strb	r3, [r7, #19]
 1155              		.loc 2 285 6
 1156 0032 FB7C     		ldrb	r3, [r7, #19]	@ zero_extendqisi2
 1157 0034 002B     		cmp	r3, #0
 1158 0036 5DD0     		beq	.L74
 1159              		.loc 2 289 5
 1160 0038 FB68     		ldr	r3, [r7, #12]
 1161 003a 5B69     		ldr	r3, [r3, #20]
 1162 003c 1B68     		ldr	r3, [r3]
 1163 003e 1A68     		ldr	r2, [r3]
 1164 0040 FB68     		ldr	r3, [r7, #12]
 1165 0042 5B69     		ldr	r3, [r3, #20]
 1166 0044 1B68     		ldr	r3, [r3]
 1167 0046 22F01F02 		bic	r2, r2, #31
 1168 004a 1A60     		str	r2, [r3]
 1169              	.L75:
 1170              		.loc 2 289 5 is_stmt 0 discriminator 2
 1171 004c FB68     		ldr	r3, [r7, #12]
 1172 004e 5B69     		ldr	r3, [r3, #20]
 1173 0050 1B68     		ldr	r3, [r3]
 1174 0052 1B68     		ldr	r3, [r3]
 1175 0054 03F00103 		and	r3, r3, #1
 1176 0058 002B     		cmp	r3, #0
 1177 005a F7D1     		bne	.L75
 1178              		.loc 2 289 5 discriminator 3
 1179 005c FB68     		ldr	r3, [r7, #12]
 1180 005e 5B69     		ldr	r3, [r3, #20]
 1181 0060 1B7B     		ldrb	r3, [r3, #12]	@ zero_extendqisi2
 1182 0062 1946     		mov	r1, r3
 1183 0064 FB68     		ldr	r3, [r7, #12]
 1184 0066 5B69     		ldr	r3, [r3, #20]
 1185 0068 5B68     		ldr	r3, [r3, #4]
 1186 006a 3D22     		movs	r2, #61
 1187 006c 8A40     		lsls	r2, r2, r1
 1188 006e 1A60     		str	r2, [r3]
 1189              		.loc 2 290 5 is_stmt 1 discriminator 3
 1190 0070 FB68     		ldr	r3, [r7, #12]
 1191 0072 5B69     		ldr	r3, [r3, #20]
 1192 0074 1B7B     		ldrb	r3, [r3, #12]	@ zero_extendqisi2
 1193 0076 1946     		mov	r1, r3
ARM GAS  C:\Users\DEVELO~1\AppData\Local\Temp\ccsHIVqO.s 			page 22


 1194 0078 FB68     		ldr	r3, [r7, #12]
 1195 007a 5B69     		ldr	r3, [r3, #20]
 1196 007c 5B68     		ldr	r3, [r3, #4]
 1197 007e 3D22     		movs	r2, #61
 1198 0080 8A40     		lsls	r2, r2, r1
 1199 0082 1A60     		str	r2, [r3]
 1200              		.loc 2 293 5 discriminator 3
 1201 0084 FB68     		ldr	r3, [r7, #12]
 1202 0086 5B69     		ldr	r3, [r3, #20]
 1203 0088 7969     		ldr	r1, [r7, #20]
 1204 008a 1846     		mov	r0, r3
 1205 008c FFF7FEFF 		bl	dmaSetRequestSource
 1206              		.loc 2 295 5 discriminator 3
 1207 0090 FB68     		ldr	r3, [r7, #12]
 1208 0092 DB68     		ldr	r3, [r3, #12]
 1209 0094 03F11C02 		add	r2, r3, #28
 1210 0098 FB68     		ldr	r3, [r7, #12]
 1211 009a 5B69     		ldr	r3, [r3, #20]
 1212 009c 1B68     		ldr	r3, [r3]
 1213 009e 9A60     		str	r2, [r3, #8]
 1214              		.loc 2 296 5 discriminator 3
 1215 00a0 FB68     		ldr	r3, [r7, #12]
 1216 00a2 5B69     		ldr	r3, [r3, #20]
 1217 00a4 1B68     		ldr	r3, [r3]
 1218 00a6 7A68     		ldr	r2, [r7, #4]
 1219 00a8 DA60     		str	r2, [r3, #12]
 1220              		.loc 2 297 5 discriminator 3
 1221 00aa FB68     		ldr	r3, [r7, #12]
 1222 00ac 5B69     		ldr	r3, [r3, #20]
 1223 00ae 1B68     		ldr	r3, [r3]
 1224 00b0 3A68     		ldr	r2, [r7]
 1225 00b2 5A60     		str	r2, [r3, #4]
 1226              		.loc 2 298 27 discriminator 3
 1227 00b4 FB68     		ldr	r3, [r7, #12]
 1228 00b6 5B68     		ldr	r3, [r3, #4]
 1229              		.loc 2 298 35 discriminator 3
 1230 00b8 5C6A     		ldr	r4, [r3, #36]
 1231              		.loc 2 302 23 discriminator 3
 1232 00ba F868     		ldr	r0, [r7, #12]
 1233 00bc FFF7FEFF 		bl	sai_lld_dma_priority
 1234 00c0 0346     		mov	r3, r0
 1235 00c2 1B04     		lsls	r3, r3, #16
 1236              		.loc 2 301 62 discriminator 3
 1237 00c4 44EA0302 		orr	r2, r4, r3
 1238 00c8 40F21E53 		movw	r3, #1310
 1239 00cc 1343     		orrs	r3, r3, r2
 1240              		.loc 2 298 21 discriminator 3
 1241 00ce FA68     		ldr	r2, [r7, #12]
 1242 00d0 D361     		str	r3, [r2, #28]
 1243              		.loc 2 303 5 discriminator 3
 1244 00d2 FB68     		ldr	r3, [r7, #12]
 1245 00d4 5B69     		ldr	r3, [r3, #20]
 1246 00d6 1B68     		ldr	r3, [r3]
 1247 00d8 FA68     		ldr	r2, [r7, #12]
 1248 00da D269     		ldr	r2, [r2, #28]
 1249 00dc 1A60     		str	r2, [r3]
 1250              		.loc 2 304 5 discriminator 3
ARM GAS  C:\Users\DEVELO~1\AppData\Local\Temp\ccsHIVqO.s 			page 23


 1251 00de FB68     		ldr	r3, [r7, #12]
 1252 00e0 5B69     		ldr	r3, [r3, #20]
 1253 00e2 1B68     		ldr	r3, [r3]
 1254 00e4 1A68     		ldr	r2, [r3]
 1255 00e6 FB68     		ldr	r3, [r7, #12]
 1256 00e8 5B69     		ldr	r3, [r3, #20]
 1257 00ea 1B68     		ldr	r3, [r3]
 1258 00ec 42F00102 		orr	r2, r2, #1
 1259 00f0 1A60     		str	r2, [r3]
 1260              		.loc 2 327 1 discriminator 3
 1261 00f2 5CE0     		b	.L78
 1262              	.L74:
 1263              		.loc 2 310 5
 1264 00f4 FB68     		ldr	r3, [r7, #12]
 1265 00f6 9B69     		ldr	r3, [r3, #24]
 1266 00f8 1B68     		ldr	r3, [r3]
 1267 00fa 1A68     		ldr	r2, [r3]
 1268 00fc FB68     		ldr	r3, [r7, #12]
 1269 00fe 9B69     		ldr	r3, [r3, #24]
 1270 0100 1B68     		ldr	r3, [r3]
 1271 0102 22F01F02 		bic	r2, r2, #31
 1272 0106 1A60     		str	r2, [r3]
 1273              	.L77:
 1274              		.loc 2 310 5 is_stmt 0 discriminator 2
 1275 0108 FB68     		ldr	r3, [r7, #12]
 1276 010a 9B69     		ldr	r3, [r3, #24]
 1277 010c 1B68     		ldr	r3, [r3]
 1278 010e 1B68     		ldr	r3, [r3]
 1279 0110 03F00103 		and	r3, r3, #1
 1280 0114 002B     		cmp	r3, #0
 1281 0116 F7D1     		bne	.L77
 1282              		.loc 2 310 5 discriminator 3
 1283 0118 FB68     		ldr	r3, [r7, #12]
 1284 011a 9B69     		ldr	r3, [r3, #24]
 1285 011c 1B7B     		ldrb	r3, [r3, #12]	@ zero_extendqisi2
 1286 011e 1946     		mov	r1, r3
 1287 0120 FB68     		ldr	r3, [r7, #12]
 1288 0122 9B69     		ldr	r3, [r3, #24]
 1289 0124 5B68     		ldr	r3, [r3, #4]
 1290 0126 3D22     		movs	r2, #61
 1291 0128 8A40     		lsls	r2, r2, r1
 1292 012a 1A60     		str	r2, [r3]
 1293              		.loc 2 311 5 is_stmt 1 discriminator 3
 1294 012c FB68     		ldr	r3, [r7, #12]
 1295 012e 9B69     		ldr	r3, [r3, #24]
 1296 0130 1B7B     		ldrb	r3, [r3, #12]	@ zero_extendqisi2
 1297 0132 1946     		mov	r1, r3
 1298 0134 FB68     		ldr	r3, [r7, #12]
 1299 0136 9B69     		ldr	r3, [r3, #24]
 1300 0138 5B68     		ldr	r3, [r3, #4]
 1301 013a 3D22     		movs	r2, #61
 1302 013c 8A40     		lsls	r2, r2, r1
 1303 013e 1A60     		str	r2, [r3]
 1304              		.loc 2 314 5 discriminator 3
 1305 0140 FB68     		ldr	r3, [r7, #12]
 1306 0142 9B69     		ldr	r3, [r3, #24]
 1307 0144 7969     		ldr	r1, [r7, #20]
ARM GAS  C:\Users\DEVELO~1\AppData\Local\Temp\ccsHIVqO.s 			page 24


 1308 0146 1846     		mov	r0, r3
 1309 0148 FFF7FEFF 		bl	dmaSetRequestSource
 1310              		.loc 2 316 5 discriminator 3
 1311 014c FB68     		ldr	r3, [r7, #12]
 1312 014e DB68     		ldr	r3, [r3, #12]
 1313 0150 03F11C02 		add	r2, r3, #28
 1314 0154 FB68     		ldr	r3, [r7, #12]
 1315 0156 9B69     		ldr	r3, [r3, #24]
 1316 0158 1B68     		ldr	r3, [r3]
 1317 015a 9A60     		str	r2, [r3, #8]
 1318              		.loc 2 317 5 discriminator 3
 1319 015c FB68     		ldr	r3, [r7, #12]
 1320 015e 9B69     		ldr	r3, [r3, #24]
 1321 0160 1B68     		ldr	r3, [r3]
 1322 0162 BA68     		ldr	r2, [r7, #8]
 1323 0164 DA60     		str	r2, [r3, #12]
 1324              		.loc 2 318 5 discriminator 3
 1325 0166 FB68     		ldr	r3, [r7, #12]
 1326 0168 9B69     		ldr	r3, [r3, #24]
 1327 016a 1B68     		ldr	r3, [r3]
 1328 016c 3A68     		ldr	r2, [r7]
 1329 016e 5A60     		str	r2, [r3, #4]
 1330              		.loc 2 319 27 discriminator 3
 1331 0170 FB68     		ldr	r3, [r7, #12]
 1332 0172 5B68     		ldr	r3, [r3, #4]
 1333              		.loc 2 319 35 discriminator 3
 1334 0174 5C6A     		ldr	r4, [r3, #36]
 1335              		.loc 2 323 23 discriminator 3
 1336 0176 F868     		ldr	r0, [r7, #12]
 1337 0178 FFF7FEFF 		bl	sai_lld_dma_priority
 1338 017c 0346     		mov	r3, r0
 1339 017e 1B04     		lsls	r3, r3, #16
 1340              		.loc 2 322 62 discriminator 3
 1341 0180 44EA0302 		orr	r2, r4, r3
 1342 0184 40F25E53 		movw	r3, #1374
 1343 0188 1343     		orrs	r3, r3, r2
 1344              		.loc 2 319 21 discriminator 3
 1345 018a FA68     		ldr	r2, [r7, #12]
 1346 018c 1362     		str	r3, [r2, #32]
 1347              		.loc 2 324 5 discriminator 3
 1348 018e FB68     		ldr	r3, [r7, #12]
 1349 0190 9B69     		ldr	r3, [r3, #24]
 1350 0192 1B68     		ldr	r3, [r3]
 1351 0194 FA68     		ldr	r2, [r7, #12]
 1352 0196 126A     		ldr	r2, [r2, #32]
 1353 0198 1A60     		str	r2, [r3]
 1354              		.loc 2 325 5 discriminator 3
 1355 019a FB68     		ldr	r3, [r7, #12]
 1356 019c 9B69     		ldr	r3, [r3, #24]
 1357 019e 1B68     		ldr	r3, [r3]
 1358 01a0 1A68     		ldr	r2, [r3]
 1359 01a2 FB68     		ldr	r3, [r7, #12]
 1360 01a4 9B69     		ldr	r3, [r3, #24]
 1361 01a6 1B68     		ldr	r3, [r3]
 1362 01a8 42F00102 		orr	r2, r2, #1
 1363 01ac 1A60     		str	r2, [r3]
 1364              	.L78:
ARM GAS  C:\Users\DEVELO~1\AppData\Local\Temp\ccsHIVqO.s 			page 25


 1365              		.loc 2 327 1
 1366 01ae 00BF     		nop
 1367 01b0 1C37     		adds	r7, r7, #28
 1368              		.cfi_def_cfa_offset 12
 1369 01b2 BD46     		mov	sp, r7
 1370              		.cfi_def_cfa_register 13
 1371              		@ sp needed
 1372 01b4 90BD     		pop	{r4, r7, pc}
 1373              		.cfi_endproc
 1374              	.LFE441:
 1375              		.size	sai_lld_set_buffers, .-sai_lld_set_buffers
 1376              		.section	.text.sai_lld_start_exchange,"ax",%progbits
 1377              		.align	1
 1378              		.global	sai_lld_start_exchange
 1379              		.syntax unified
 1380              		.thumb
 1381              		.thumb_func
 1382              		.type	sai_lld_start_exchange, %function
 1383              	sai_lld_start_exchange:
 1384              	.LFB442:
 1385              		.loc 2 329 46
 1386              		.cfi_startproc
 1387              		@ args = 0, pretend = 0, frame = 8
 1388              		@ frame_needed = 1, uses_anonymous_args = 0
 1389              		@ link register save eliminated.
 1390 0000 80B4     		push	{r7}
 1391              		.cfi_def_cfa_offset 4
 1392              		.cfi_offset 7, -4
 1393 0002 83B0     		sub	sp, sp, #12
 1394              		.cfi_def_cfa_offset 16
 1395 0004 00AF     		add	r7, sp, #0
 1396              		.cfi_def_cfa_register 7
 1397 0006 7860     		str	r0, [r7, #4]
 1398              		.loc 2 332 28
 1399 0008 7B68     		ldr	r3, [r7, #4]
 1400 000a DB68     		ldr	r3, [r3, #12]
 1401              		.loc 2 332 36
 1402 000c 1B68     		ldr	r3, [r3]
 1403              		.loc 2 332 60
 1404 000e 23F44032 		bic	r2, r3, #196608
 1405              		.loc 2 332 7
 1406 0012 7B68     		ldr	r3, [r7, #4]
 1407 0014 DB68     		ldr	r3, [r3, #12]
 1408              		.loc 2 332 60
 1409 0016 42F40032 		orr	r2, r2, #131072
 1410              		.loc 2 332 21
 1411 001a 1A60     		str	r2, [r3]
 1412              		.loc 2 333 7
 1413 001c 7B68     		ldr	r3, [r7, #4]
 1414 001e DB68     		ldr	r3, [r3, #12]
 1415              		.loc 2 333 21
 1416 0020 1A68     		ldr	r2, [r3]
 1417              		.loc 2 333 7
 1418 0022 7B68     		ldr	r3, [r7, #4]
 1419 0024 DB68     		ldr	r3, [r3, #12]
 1420              		.loc 2 333 21
 1421 0026 42F48032 		orr	r2, r2, #65536
ARM GAS  C:\Users\DEVELO~1\AppData\Local\Temp\ccsHIVqO.s 			page 26


 1422 002a 1A60     		str	r2, [r3]
 1423              		.loc 2 334 1
 1424 002c 00BF     		nop
 1425 002e 0C37     		adds	r7, r7, #12
 1426              		.cfi_def_cfa_offset 4
 1427 0030 BD46     		mov	sp, r7
 1428              		.cfi_def_cfa_register 13
 1429              		@ sp needed
 1430 0032 80BC     		pop	{r7}
 1431              		.cfi_restore 7
 1432              		.cfi_def_cfa_offset 0
 1433 0034 7047     		bx	lr
 1434              		.cfi_endproc
 1435              	.LFE442:
 1436              		.size	sai_lld_start_exchange, .-sai_lld_start_exchange
 1437              		.section	.text.sai_lld_stop_exchange,"ax",%progbits
 1438              		.align	1
 1439              		.global	sai_lld_stop_exchange
 1440              		.syntax unified
 1441              		.thumb
 1442              		.thumb_func
 1443              		.type	sai_lld_stop_exchange, %function
 1444              	sai_lld_stop_exchange:
 1445              	.LFB443:
 1446              		.loc 2 336 45
 1447              		.cfi_startproc
 1448              		@ args = 0, pretend = 0, frame = 8
 1449              		@ frame_needed = 1, uses_anonymous_args = 0
 1450              		@ link register save eliminated.
 1451 0000 80B4     		push	{r7}
 1452              		.cfi_def_cfa_offset 4
 1453              		.cfi_offset 7, -4
 1454 0002 83B0     		sub	sp, sp, #12
 1455              		.cfi_def_cfa_offset 16
 1456 0004 00AF     		add	r7, sp, #0
 1457              		.cfi_def_cfa_register 7
 1458 0006 7860     		str	r0, [r7, #4]
 1459              		.loc 2 337 7
 1460 0008 7B68     		ldr	r3, [r7, #4]
 1461 000a DB68     		ldr	r3, [r3, #12]
 1462              		.loc 2 337 21
 1463 000c 1A68     		ldr	r2, [r3]
 1464              		.loc 2 337 7
 1465 000e 7B68     		ldr	r3, [r7, #4]
 1466 0010 DB68     		ldr	r3, [r3, #12]
 1467              		.loc 2 337 21
 1468 0012 22F48032 		bic	r2, r2, #65536
 1469 0016 1A60     		str	r2, [r3]
 1470              		.loc 2 338 9
 1471 0018 00BF     		nop
 1472              	.L81:
 1473              		.loc 2 338 15 discriminator 1
 1474 001a 7B68     		ldr	r3, [r7, #4]
 1475 001c DB68     		ldr	r3, [r3, #12]
 1476              		.loc 2 338 23 discriminator 1
 1477 001e 1B68     		ldr	r3, [r3]
 1478              		.loc 2 338 29 discriminator 1
ARM GAS  C:\Users\DEVELO~1\AppData\Local\Temp\ccsHIVqO.s 			page 27


 1479 0020 03F48033 		and	r3, r3, #65536
 1480              		.loc 2 338 47 discriminator 1
 1481 0024 002B     		cmp	r3, #0
 1482 0026 F8D1     		bne	.L81
 1483              		.loc 2 340 7
 1484 0028 7B68     		ldr	r3, [r7, #4]
 1485 002a DB68     		ldr	r3, [r3, #12]
 1486              		.loc 2 340 21
 1487 002c 1A68     		ldr	r2, [r3]
 1488              		.loc 2 340 7
 1489 002e 7B68     		ldr	r3, [r7, #4]
 1490 0030 DB68     		ldr	r3, [r3, #12]
 1491              		.loc 2 340 21
 1492 0032 22F40032 		bic	r2, r2, #131072
 1493 0036 1A60     		str	r2, [r3]
 1494              		.loc 2 342 11
 1495 0038 7B68     		ldr	r3, [r7, #4]
 1496 003a 5B69     		ldr	r3, [r3, #20]
 1497              		.loc 2 342 6
 1498 003c 002B     		cmp	r3, #0
 1499 003e 1BD0     		beq	.L82
 1500              		.loc 2 343 5
 1501 0040 7B68     		ldr	r3, [r7, #4]
 1502 0042 5B69     		ldr	r3, [r3, #20]
 1503 0044 1B68     		ldr	r3, [r3]
 1504 0046 1A68     		ldr	r2, [r3]
 1505 0048 7B68     		ldr	r3, [r7, #4]
 1506 004a 5B69     		ldr	r3, [r3, #20]
 1507 004c 1B68     		ldr	r3, [r3]
 1508 004e 22F01F02 		bic	r2, r2, #31
 1509 0052 1A60     		str	r2, [r3]
 1510              	.L83:
 1511              		.loc 2 343 5 is_stmt 0 discriminator 2
 1512 0054 7B68     		ldr	r3, [r7, #4]
 1513 0056 5B69     		ldr	r3, [r3, #20]
 1514 0058 1B68     		ldr	r3, [r3]
 1515 005a 1B68     		ldr	r3, [r3]
 1516 005c 03F00103 		and	r3, r3, #1
 1517 0060 002B     		cmp	r3, #0
 1518 0062 F7D1     		bne	.L83
 1519              		.loc 2 343 5 discriminator 3
 1520 0064 7B68     		ldr	r3, [r7, #4]
 1521 0066 5B69     		ldr	r3, [r3, #20]
 1522 0068 1B7B     		ldrb	r3, [r3, #12]	@ zero_extendqisi2
 1523 006a 1946     		mov	r1, r3
 1524 006c 7B68     		ldr	r3, [r7, #4]
 1525 006e 5B69     		ldr	r3, [r3, #20]
 1526 0070 5B68     		ldr	r3, [r3, #4]
 1527 0072 3D22     		movs	r2, #61
 1528 0074 8A40     		lsls	r2, r2, r1
 1529 0076 1A60     		str	r2, [r3]
 1530              	.L82:
 1531              		.loc 2 345 11 is_stmt 1
 1532 0078 7B68     		ldr	r3, [r7, #4]
 1533 007a 9B69     		ldr	r3, [r3, #24]
 1534              		.loc 2 345 6
 1535 007c 002B     		cmp	r3, #0
ARM GAS  C:\Users\DEVELO~1\AppData\Local\Temp\ccsHIVqO.s 			page 28


 1536 007e 1BD0     		beq	.L86
 1537              		.loc 2 346 5
 1538 0080 7B68     		ldr	r3, [r7, #4]
 1539 0082 9B69     		ldr	r3, [r3, #24]
 1540 0084 1B68     		ldr	r3, [r3]
 1541 0086 1A68     		ldr	r2, [r3]
 1542 0088 7B68     		ldr	r3, [r7, #4]
 1543 008a 9B69     		ldr	r3, [r3, #24]
 1544 008c 1B68     		ldr	r3, [r3]
 1545 008e 22F01F02 		bic	r2, r2, #31
 1546 0092 1A60     		str	r2, [r3]
 1547              	.L85:
 1548              		.loc 2 346 5 is_stmt 0 discriminator 2
 1549 0094 7B68     		ldr	r3, [r7, #4]
 1550 0096 9B69     		ldr	r3, [r3, #24]
 1551 0098 1B68     		ldr	r3, [r3]
 1552 009a 1B68     		ldr	r3, [r3]
 1553 009c 03F00103 		and	r3, r3, #1
 1554 00a0 002B     		cmp	r3, #0
 1555 00a2 F7D1     		bne	.L85
 1556              		.loc 2 346 5 discriminator 3
 1557 00a4 7B68     		ldr	r3, [r7, #4]
 1558 00a6 9B69     		ldr	r3, [r3, #24]
 1559 00a8 1B7B     		ldrb	r3, [r3, #12]	@ zero_extendqisi2
 1560 00aa 1946     		mov	r1, r3
 1561 00ac 7B68     		ldr	r3, [r7, #4]
 1562 00ae 9B69     		ldr	r3, [r3, #24]
 1563 00b0 5B68     		ldr	r3, [r3, #4]
 1564 00b2 3D22     		movs	r2, #61
 1565 00b4 8A40     		lsls	r2, r2, r1
 1566 00b6 1A60     		str	r2, [r3]
 1567              	.L86:
 1568              		.loc 2 348 1 is_stmt 1
 1569 00b8 00BF     		nop
 1570 00ba 0C37     		adds	r7, r7, #12
 1571              		.cfi_def_cfa_offset 4
 1572 00bc BD46     		mov	sp, r7
 1573              		.cfi_def_cfa_register 13
 1574              		@ sp needed
 1575 00be 80BC     		pop	{r7}
 1576              		.cfi_restore 7
 1577              		.cfi_def_cfa_offset 0
 1578 00c0 7047     		bx	lr
 1579              		.cfi_endproc
 1580              	.LFE443:
 1581              		.size	sai_lld_stop_exchange, .-sai_lld_stop_exchange
 1582              		.text
 1583              	.Letext0:
 1584              		.file 3 "c:\\chibistudio\\tools\\gnu tools arm embedded\\11.3 2022.08\\lib\\gcc\\arm-none-eabi\\11
 1585              		.file 4 "c:\\chibistudio\\tools\\gnu tools arm embedded\\11.3 2022.08\\arm-none-eabi\\include\\mac
 1586              		.file 5 "c:\\chibistudio\\tools\\gnu tools arm embedded\\11.3 2022.08\\arm-none-eabi\\include\\sys
 1587              		.file 6 "../../../os/common/ext/ST/STM32H7xx/stm32h743xx.h"
 1588              		.file 7 "../../../os/hal/ports/STM32/LLD/DMAv2/stm32_dma.h"
 1589              		.file 8 "../../../os/hal/include/hal_sai.h"
 1590              		.file 9 "../../../os/hal/ports/STM32/LLD/SAIv1/hal_sai_lld.h"
 1591              		.section	.debug_info,"",%progbits
 1592              	.Ldebug_info0:
ARM GAS  C:\Users\DEVELO~1\AppData\Local\Temp\ccsHIVqO.s 			page 29


 1593 0000 080C0000 		.4byte	0xc08
 1594 0004 0500     		.2byte	0x5
 1595 0006 01       		.byte	0x1
 1596 0007 04       		.byte	0x4
 1597 0008 00000000 		.4byte	.Ldebug_abbrev0
 1598 000c 1B       		.uleb128 0x1b
 1599 000d FB020000 		.4byte	.LASF152
 1600 0011 1D       		.byte	0x1d
 1601 0012 94020000 		.4byte	.LASF153
 1602 0016 9E000000 		.4byte	.LASF154
 1603 001a 0C000000 		.4byte	.LLRL0
 1604 001e 00000000 		.4byte	0
 1605 0022 00000000 		.4byte	.Ldebug_line0
 1606 0026 1C       		.uleb128 0x1c
 1607 0027 04       		.byte	0x4
 1608 0028 05       		.byte	0x5
 1609 0029 696E7400 		.ascii	"int\000"
 1610 002d 08       		.uleb128 0x8
 1611 002e 37000000 		.4byte	.LASF4
 1612 0032 03       		.byte	0x3
 1613 0033 D1       		.byte	0xd1
 1614 0034 17       		.byte	0x17
 1615 0035 39000000 		.4byte	0x39
 1616 0039 05       		.uleb128 0x5
 1617 003a 04       		.byte	0x4
 1618 003b 07       		.byte	0x7
 1619 003c 54020000 		.4byte	.LASF0
 1620 0040 05       		.uleb128 0x5
 1621 0041 08       		.byte	0x8
 1622 0042 05       		.byte	0x5
 1623 0043 1E010000 		.4byte	.LASF1
 1624 0047 05       		.uleb128 0x5
 1625 0048 08       		.byte	0x8
 1626 0049 04       		.byte	0x4
 1627 004a 1B060000 		.4byte	.LASF2
 1628 004e 05       		.uleb128 0x5
 1629 004f 01       		.byte	0x1
 1630 0050 06       		.byte	0x6
 1631 0051 2C010000 		.4byte	.LASF3
 1632 0055 08       		.uleb128 0x8
 1633 0056 52000000 		.4byte	.LASF5
 1634 005a 04       		.byte	0x4
 1635 005b 2B       		.byte	0x2b
 1636 005c 18       		.byte	0x18
 1637 005d 61000000 		.4byte	0x61
 1638 0061 05       		.uleb128 0x5
 1639 0062 01       		.byte	0x1
 1640 0063 08       		.byte	0x8
 1641 0064 58050000 		.4byte	.LASF6
 1642 0068 05       		.uleb128 0x5
 1643 0069 02       		.byte	0x2
 1644 006a 05       		.byte	0x5
 1645 006b 6D050000 		.4byte	.LASF7
 1646 006f 05       		.uleb128 0x5
 1647 0070 02       		.byte	0x2
 1648 0071 07       		.byte	0x7
 1649 0072 D6020000 		.4byte	.LASF8
ARM GAS  C:\Users\DEVELO~1\AppData\Local\Temp\ccsHIVqO.s 			page 30


 1650 0076 05       		.uleb128 0x5
 1651 0077 04       		.byte	0x4
 1652 0078 05       		.byte	0x5
 1653 0079 3A070000 		.4byte	.LASF9
 1654 007d 08       		.uleb128 0x8
 1655 007e 0F020000 		.4byte	.LASF10
 1656 0082 04       		.byte	0x4
 1657 0083 4F       		.byte	0x4f
 1658 0084 19       		.byte	0x19
 1659 0085 89000000 		.4byte	0x89
 1660 0089 05       		.uleb128 0x5
 1661 008a 04       		.byte	0x4
 1662 008b 07       		.byte	0x7
 1663 008c 76020000 		.4byte	.LASF11
 1664 0090 05       		.uleb128 0x5
 1665 0091 08       		.byte	0x8
 1666 0092 07       		.byte	0x7
 1667 0093 46010000 		.4byte	.LASF12
 1668 0097 08       		.uleb128 0x8
 1669 0098 F6060000 		.4byte	.LASF13
 1670 009c 05       		.byte	0x5
 1671 009d 18       		.byte	0x18
 1672 009e 13       		.byte	0x13
 1673 009f 55000000 		.4byte	0x55
 1674 00a3 08       		.uleb128 0x8
 1675 00a4 FB050000 		.4byte	.LASF14
 1676 00a8 05       		.byte	0x5
 1677 00a9 30       		.byte	0x30
 1678 00aa 14       		.byte	0x14
 1679 00ab 7D000000 		.4byte	0x7d
 1680 00af 1D       		.uleb128 0x1d
 1681 00b0 A3000000 		.4byte	0xa3
 1682 00b4 05       		.uleb128 0x5
 1683 00b5 01       		.byte	0x1
 1684 00b6 08       		.byte	0x8
 1685 00b7 27060000 		.4byte	.LASF15
 1686 00bb 0B       		.uleb128 0xb
 1687 00bc B4000000 		.4byte	0xb4
 1688 00c0 1E       		.uleb128 0x1e
 1689 00c1 04       		.byte	0x4
 1690 00c2 0D       		.uleb128 0xd
 1691 00c3 A3000000 		.4byte	0xa3
 1692 00c7 D2000000 		.4byte	0xd2
 1693 00cb 0E       		.uleb128 0xe
 1694 00cc 39000000 		.4byte	0x39
 1695 00d0 03       		.byte	0x3
 1696 00d1 00       		.byte	0
 1697 00d2 0F       		.uleb128 0xf
 1698 00d3 18       		.byte	0x18
 1699 00d4 06       		.byte	0x6
 1700 00d5 3002     		.2byte	0x230
 1701 00d7 2F010000 		.4byte	0x12f
 1702 00db 03       		.uleb128 0x3
 1703 00dc 435200   		.ascii	"CR\000"
 1704 00df 06       		.byte	0x6
 1705 00e0 3202     		.2byte	0x232
 1706 00e2 11       		.byte	0x11
ARM GAS  C:\Users\DEVELO~1\AppData\Local\Temp\ccsHIVqO.s 			page 31


 1707 00e3 AF000000 		.4byte	0xaf
 1708 00e7 00       		.byte	0
 1709 00e8 01       		.uleb128 0x1
 1710 00e9 4B060000 		.4byte	.LASF16
 1711 00ed 06       		.byte	0x6
 1712 00ee 3302     		.2byte	0x233
 1713 00f0 11       		.byte	0x11
 1714 00f1 AF000000 		.4byte	0xaf
 1715 00f5 04       		.byte	0x4
 1716 00f6 03       		.uleb128 0x3
 1717 00f7 50415200 		.ascii	"PAR\000"
 1718 00fb 06       		.byte	0x6
 1719 00fc 3402     		.2byte	0x234
 1720 00fe 11       		.byte	0x11
 1721 00ff AF000000 		.4byte	0xaf
 1722 0103 08       		.byte	0x8
 1723 0104 01       		.uleb128 0x1
 1724 0105 32000000 		.4byte	.LASF17
 1725 0109 06       		.byte	0x6
 1726 010a 3502     		.2byte	0x235
 1727 010c 11       		.byte	0x11
 1728 010d AF000000 		.4byte	0xaf
 1729 0111 0C       		.byte	0xc
 1730 0112 01       		.uleb128 0x1
 1731 0113 AC060000 		.4byte	.LASF18
 1732 0117 06       		.byte	0x6
 1733 0118 3602     		.2byte	0x236
 1734 011a 11       		.byte	0x11
 1735 011b AF000000 		.4byte	0xaf
 1736 011f 10       		.byte	0x10
 1737 0120 03       		.uleb128 0x3
 1738 0121 46435200 		.ascii	"FCR\000"
 1739 0125 06       		.byte	0x6
 1740 0126 3702     		.2byte	0x237
 1741 0128 11       		.byte	0x11
 1742 0129 AF000000 		.4byte	0xaf
 1743 012d 14       		.byte	0x14
 1744 012e 00       		.byte	0
 1745 012f 0C       		.uleb128 0xc
 1746 0130 50060000 		.4byte	.LASF19
 1747 0134 06       		.byte	0x6
 1748 0135 3802     		.2byte	0x238
 1749 0137 03       		.byte	0x3
 1750 0138 D2000000 		.4byte	0xd2
 1751 013c 0F       		.uleb128 0xf
 1752 013d 04       		.byte	0x4
 1753 013e 06       		.byte	0x6
 1754 013f 5102     		.2byte	0x251
 1755 0141 54010000 		.4byte	0x154
 1756 0145 03       		.uleb128 0x3
 1757 0146 43435200 		.ascii	"CCR\000"
 1758 014a 06       		.byte	0x6
 1759 014b 5302     		.2byte	0x253
 1760 014d 12       		.byte	0x12
 1761 014e AF000000 		.4byte	0xaf
 1762 0152 00       		.byte	0
 1763 0153 00       		.byte	0
ARM GAS  C:\Users\DEVELO~1\AppData\Local\Temp\ccsHIVqO.s 			page 32


 1764 0154 0C       		.uleb128 0xc
 1765 0155 C6060000 		.4byte	.LASF20
 1766 0159 06       		.byte	0x6
 1767 015a 5402     		.2byte	0x254
 1768 015c 02       		.byte	0x2
 1769 015d 3C010000 		.4byte	0x13c
 1770 0161 0D       		.uleb128 0xd
 1771 0162 A3000000 		.4byte	0xa3
 1772 0166 71010000 		.4byte	0x171
 1773 016a 0E       		.uleb128 0xe
 1774 016b 39000000 		.4byte	0x39
 1775 016f 08       		.byte	0x8
 1776 0170 00       		.byte	0
 1777 0171 1F       		.uleb128 0x1f
 1778 0172 3001     		.2byte	0x130
 1779 0174 06       		.byte	0x6
 1780 0175 CE04     		.2byte	0x4ce
 1781 0177 09       		.byte	0x9
 1782 0178 0A050000 		.4byte	0x50a
 1783 017c 03       		.uleb128 0x3
 1784 017d 435200   		.ascii	"CR\000"
 1785 0180 06       		.byte	0x6
 1786 0181 D004     		.2byte	0x4d0
 1787 0183 10       		.byte	0x10
 1788 0184 AF000000 		.4byte	0xaf
 1789 0188 00       		.byte	0
 1790 0189 01       		.uleb128 0x1
 1791 018a F3020000 		.4byte	.LASF21
 1792 018e 06       		.byte	0x6
 1793 018f D104     		.2byte	0x4d1
 1794 0191 10       		.byte	0x10
 1795 0192 AF000000 		.4byte	0xaf
 1796 0196 04       		.byte	0x4
 1797 0197 01       		.uleb128 0x1
 1798 0198 FB010000 		.4byte	.LASF22
 1799 019c 06       		.byte	0x6
 1800 019d D204     		.2byte	0x4d2
 1801 019f 10       		.byte	0x10
 1802 01a0 AF000000 		.4byte	0xaf
 1803 01a4 08       		.byte	0x8
 1804 01a5 01       		.uleb128 0x1
 1805 01a6 30040000 		.4byte	.LASF23
 1806 01aa 06       		.byte	0x6
 1807 01ab D304     		.2byte	0x4d3
 1808 01ad 10       		.byte	0x10
 1809 01ae AF000000 		.4byte	0xaf
 1810 01b2 0C       		.byte	0xc
 1811 01b3 01       		.uleb128 0x1
 1812 01b4 35070000 		.4byte	.LASF24
 1813 01b8 06       		.byte	0x6
 1814 01b9 D404     		.2byte	0x4d4
 1815 01bb 10       		.byte	0x10
 1816 01bc AF000000 		.4byte	0xaf
 1817 01c0 10       		.byte	0x10
 1818 01c1 01       		.uleb128 0x1
 1819 01c2 E7040000 		.4byte	.LASF25
 1820 01c6 06       		.byte	0x6
ARM GAS  C:\Users\DEVELO~1\AppData\Local\Temp\ccsHIVqO.s 			page 33


 1821 01c7 D504     		.2byte	0x4d5
 1822 01c9 0F       		.byte	0xf
 1823 01ca A3000000 		.4byte	0xa3
 1824 01ce 14       		.byte	0x14
 1825 01cf 01       		.uleb128 0x1
 1826 01d0 4C070000 		.4byte	.LASF26
 1827 01d4 06       		.byte	0x6
 1828 01d5 D604     		.2byte	0x4d6
 1829 01d7 10       		.byte	0x10
 1830 01d8 AF000000 		.4byte	0xaf
 1831 01dc 18       		.byte	0x18
 1832 01dd 01       		.uleb128 0x1
 1833 01de 42050000 		.4byte	.LASF27
 1834 01e2 06       		.byte	0x6
 1835 01e3 D704     		.2byte	0x4d7
 1836 01e5 10       		.byte	0x10
 1837 01e6 AF000000 		.4byte	0xaf
 1838 01ea 1C       		.byte	0x1c
 1839 01eb 01       		.uleb128 0x1
 1840 01ec D2010000 		.4byte	.LASF28
 1841 01f0 06       		.byte	0x6
 1842 01f1 D804     		.2byte	0x4d8
 1843 01f3 10       		.byte	0x10
 1844 01f4 AF000000 		.4byte	0xaf
 1845 01f8 20       		.byte	0x20
 1846 01f9 01       		.uleb128 0x1
 1847 01fa F1040000 		.4byte	.LASF29
 1848 01fe 06       		.byte	0x6
 1849 01ff D904     		.2byte	0x4d9
 1850 0201 0F       		.byte	0xf
 1851 0202 A3000000 		.4byte	0xa3
 1852 0206 24       		.byte	0x24
 1853 0207 01       		.uleb128 0x1
 1854 0208 E9020000 		.4byte	.LASF30
 1855 020c 06       		.byte	0x6
 1856 020d DA04     		.2byte	0x4da
 1857 020f 10       		.byte	0x10
 1858 0210 AF000000 		.4byte	0xaf
 1859 0214 28       		.byte	0x28
 1860 0215 01       		.uleb128 0x1
 1861 0216 98040000 		.4byte	.LASF31
 1862 021a 06       		.byte	0x6
 1863 021b DB04     		.2byte	0x4db
 1864 021d 10       		.byte	0x10
 1865 021e AF000000 		.4byte	0xaf
 1866 0222 2C       		.byte	0x2c
 1867 0223 01       		.uleb128 0x1
 1868 0224 12000000 		.4byte	.LASF32
 1869 0228 06       		.byte	0x6
 1870 0229 DC04     		.2byte	0x4dc
 1871 022b 10       		.byte	0x10
 1872 022c AF000000 		.4byte	0xaf
 1873 0230 30       		.byte	0x30
 1874 0231 01       		.uleb128 0x1
 1875 0232 8E010000 		.4byte	.LASF33
 1876 0236 06       		.byte	0x6
 1877 0237 DD04     		.2byte	0x4dd
ARM GAS  C:\Users\DEVELO~1\AppData\Local\Temp\ccsHIVqO.s 			page 34


 1878 0239 10       		.byte	0x10
 1879 023a AF000000 		.4byte	0xaf
 1880 023e 34       		.byte	0x34
 1881 023f 01       		.uleb128 0x1
 1882 0240 4F050000 		.4byte	.LASF34
 1883 0244 06       		.byte	0x6
 1884 0245 DE04     		.2byte	0x4de
 1885 0247 10       		.byte	0x10
 1886 0248 AF000000 		.4byte	0xaf
 1887 024c 38       		.byte	0x38
 1888 024d 01       		.uleb128 0x1
 1889 024e 36020000 		.4byte	.LASF35
 1890 0252 06       		.byte	0x6
 1891 0253 DF04     		.2byte	0x4df
 1892 0255 10       		.byte	0x10
 1893 0256 AF000000 		.4byte	0xaf
 1894 025a 3C       		.byte	0x3c
 1895 025b 01       		.uleb128 0x1
 1896 025c 06020000 		.4byte	.LASF36
 1897 0260 06       		.byte	0x6
 1898 0261 E004     		.2byte	0x4e0
 1899 0263 10       		.byte	0x10
 1900 0264 AF000000 		.4byte	0xaf
 1901 0268 40       		.byte	0x40
 1902 0269 01       		.uleb128 0x1
 1903 026a E1030000 		.4byte	.LASF37
 1904 026e 06       		.byte	0x6
 1905 026f E104     		.2byte	0x4e1
 1906 0271 10       		.byte	0x10
 1907 0272 AF000000 		.4byte	0xaf
 1908 0276 44       		.byte	0x44
 1909 0277 01       		.uleb128 0x1
 1910 0278 FB040000 		.4byte	.LASF38
 1911 027c 06       		.byte	0x6
 1912 027d E204     		.2byte	0x4e2
 1913 027f 10       		.byte	0x10
 1914 0280 A3000000 		.4byte	0xa3
 1915 0284 48       		.byte	0x48
 1916 0285 01       		.uleb128 0x1
 1917 0286 13060000 		.4byte	.LASF39
 1918 028a 06       		.byte	0x6
 1919 028b E304     		.2byte	0x4e3
 1920 028d 11       		.byte	0x11
 1921 028e AF000000 		.4byte	0xaf
 1922 0292 4C       		.byte	0x4c
 1923 0293 01       		.uleb128 0x1
 1924 0294 15010000 		.4byte	.LASF40
 1925 0298 06       		.byte	0x6
 1926 0299 E404     		.2byte	0x4e4
 1927 029b 11       		.byte	0x11
 1928 029c AF000000 		.4byte	0xaf
 1929 02a0 50       		.byte	0x50
 1930 02a1 01       		.uleb128 0x1
 1931 02a2 98030000 		.4byte	.LASF41
 1932 02a6 06       		.byte	0x6
 1933 02a7 E504     		.2byte	0x4e5
 1934 02a9 11       		.byte	0x11
ARM GAS  C:\Users\DEVELO~1\AppData\Local\Temp\ccsHIVqO.s 			page 35


 1935 02aa AF000000 		.4byte	0xaf
 1936 02ae 54       		.byte	0x54
 1937 02af 01       		.uleb128 0x1
 1938 02b0 29020000 		.4byte	.LASF42
 1939 02b4 06       		.byte	0x6
 1940 02b5 E604     		.2byte	0x4e6
 1941 02b7 11       		.byte	0x11
 1942 02b8 AF000000 		.4byte	0xaf
 1943 02bc 58       		.byte	0x58
 1944 02bd 01       		.uleb128 0x1
 1945 02be 9A060000 		.4byte	.LASF43
 1946 02c2 06       		.byte	0x6
 1947 02c3 E704     		.2byte	0x4e7
 1948 02c5 10       		.byte	0x10
 1949 02c6 A3000000 		.4byte	0xa3
 1950 02ca 5C       		.byte	0x5c
 1951 02cb 01       		.uleb128 0x1
 1952 02cc 07010000 		.4byte	.LASF44
 1953 02d0 06       		.byte	0x6
 1954 02d1 E804     		.2byte	0x4e8
 1955 02d3 11       		.byte	0x11
 1956 02d4 AF000000 		.4byte	0xaf
 1957 02d8 60       		.byte	0x60
 1958 02d9 01       		.uleb128 0x1
 1959 02da 01020000 		.4byte	.LASF45
 1960 02de 06       		.byte	0x6
 1961 02df E904     		.2byte	0x4e9
 1962 02e1 11       		.byte	0x11
 1963 02e2 AF000000 		.4byte	0xaf
 1964 02e6 64       		.byte	0x64
 1965 02e7 01       		.uleb128 0x1
 1966 02e8 31020000 		.4byte	.LASF46
 1967 02ec 06       		.byte	0x6
 1968 02ed EA04     		.2byte	0x4ea
 1969 02ef 11       		.byte	0x11
 1970 02f0 AF000000 		.4byte	0xaf
 1971 02f4 68       		.byte	0x68
 1972 02f5 01       		.uleb128 0x1
 1973 02f6 0A050000 		.4byte	.LASF47
 1974 02fa 06       		.byte	0x6
 1975 02fb EB04     		.2byte	0x4eb
 1976 02fd 0F       		.byte	0xf
 1977 02fe A3000000 		.4byte	0xa3
 1978 0302 6C       		.byte	0x6c
 1979 0303 01       		.uleb128 0x1
 1980 0304 6E060000 		.4byte	.LASF48
 1981 0308 06       		.byte	0x6
 1982 0309 EC04     		.2byte	0x4ec
 1983 030b 11       		.byte	0x11
 1984 030c AF000000 		.4byte	0xaf
 1985 0310 70       		.byte	0x70
 1986 0311 03       		.uleb128 0x3
 1987 0312 43535200 		.ascii	"CSR\000"
 1988 0316 06       		.byte	0x6
 1989 0317 ED04     		.2byte	0x4ed
 1990 0319 11       		.byte	0x11
 1991 031a AF000000 		.4byte	0xaf
ARM GAS  C:\Users\DEVELO~1\AppData\Local\Temp\ccsHIVqO.s 			page 36


 1992 031e 74       		.byte	0x74
 1993 031f 01       		.uleb128 0x1
 1994 0320 14050000 		.4byte	.LASF49
 1995 0324 06       		.byte	0x6
 1996 0325 EE04     		.2byte	0x4ee
 1997 0327 0F       		.byte	0xf
 1998 0328 A3000000 		.4byte	0xa3
 1999 032c 78       		.byte	0x78
 2000 032d 01       		.uleb128 0x1
 2001 032e 86030000 		.4byte	.LASF50
 2002 0332 06       		.byte	0x6
 2003 0333 EF04     		.2byte	0x4ef
 2004 0335 10       		.byte	0x10
 2005 0336 AF000000 		.4byte	0xaf
 2006 033a 7C       		.byte	0x7c
 2007 033b 01       		.uleb128 0x1
 2008 033c 38010000 		.4byte	.LASF51
 2009 0340 06       		.byte	0x6
 2010 0341 F004     		.2byte	0x4f0
 2011 0343 10       		.byte	0x10
 2012 0344 AF000000 		.4byte	0xaf
 2013 0348 80       		.byte	0x80
 2014 0349 01       		.uleb128 0x1
 2015 034a 38060000 		.4byte	.LASF52
 2016 034e 06       		.byte	0x6
 2017 034f F104     		.2byte	0x4f1
 2018 0351 10       		.byte	0x10
 2019 0352 AF000000 		.4byte	0xaf
 2020 0356 84       		.byte	0x84
 2021 0357 01       		.uleb128 0x1
 2022 0358 0C010000 		.4byte	.LASF53
 2023 035c 06       		.byte	0x6
 2024 035d F204     		.2byte	0x4f2
 2025 035f 10       		.byte	0x10
 2026 0360 AF000000 		.4byte	0xaf
 2027 0364 88       		.byte	0x88
 2028 0365 01       		.uleb128 0x1
 2029 0366 84060000 		.4byte	.LASF54
 2030 036a 06       		.byte	0x6
 2031 036b F304     		.2byte	0x4f3
 2032 036d 10       		.byte	0x10
 2033 036e AF000000 		.4byte	0xaf
 2034 0372 8C       		.byte	0x8c
 2035 0373 01       		.uleb128 0x1
 2036 0374 48000000 		.4byte	.LASF55
 2037 0378 06       		.byte	0x6
 2038 0379 F404     		.2byte	0x4f4
 2039 037b 10       		.byte	0x10
 2040 037c AF000000 		.4byte	0xaf
 2041 0380 90       		.byte	0x90
 2042 0381 01       		.uleb128 0x1
 2043 0382 EC060000 		.4byte	.LASF56
 2044 0386 06       		.byte	0x6
 2045 0387 F504     		.2byte	0x4f5
 2046 0389 10       		.byte	0x10
 2047 038a AF000000 		.4byte	0xaf
 2048 038e 94       		.byte	0x94
ARM GAS  C:\Users\DEVELO~1\AppData\Local\Temp\ccsHIVqO.s 			page 37


 2049 038f 01       		.uleb128 0x1
 2050 0390 98010000 		.4byte	.LASF57
 2051 0394 06       		.byte	0x6
 2052 0395 F604     		.2byte	0x4f6
 2053 0397 10       		.byte	0x10
 2054 0398 AF000000 		.4byte	0xaf
 2055 039c 98       		.byte	0x98
 2056 039d 01       		.uleb128 0x1
 2057 039e 19040000 		.4byte	.LASF58
 2058 03a2 06       		.byte	0x6
 2059 03a3 F704     		.2byte	0x4f7
 2060 03a5 10       		.byte	0x10
 2061 03a6 AF000000 		.4byte	0xaf
 2062 03aa 9C       		.byte	0x9c
 2063 03ab 03       		.uleb128 0x3
 2064 03ac 47435200 		.ascii	"GCR\000"
 2065 03b0 06       		.byte	0x6
 2066 03b1 F804     		.2byte	0x4f8
 2067 03b3 10       		.byte	0x10
 2068 03b4 AF000000 		.4byte	0xaf
 2069 03b8 A0       		.byte	0xa0
 2070 03b9 01       		.uleb128 0x1
 2071 03ba 31050000 		.4byte	.LASF59
 2072 03be 06       		.byte	0x6
 2073 03bf F904     		.2byte	0x4f9
 2074 03c1 0F       		.byte	0xf
 2075 03c2 A3000000 		.4byte	0xa3
 2076 03c6 A4       		.byte	0xa4
 2077 03c7 01       		.uleb128 0x1
 2078 03c8 FF030000 		.4byte	.LASF60
 2079 03cc 06       		.byte	0x6
 2080 03cd FA04     		.2byte	0x4fa
 2081 03cf 10       		.byte	0x10
 2082 03d0 AF000000 		.4byte	0xaf
 2083 03d4 A8       		.byte	0xa8
 2084 03d5 01       		.uleb128 0x1
 2085 03d6 67010000 		.4byte	.LASF61
 2086 03da 06       		.byte	0x6
 2087 03db FB04     		.2byte	0x4fb
 2088 03dd 0F       		.byte	0xf
 2089 03de 61010000 		.4byte	0x161
 2090 03e2 AC       		.byte	0xac
 2091 03e3 03       		.uleb128 0x3
 2092 03e4 52535200 		.ascii	"RSR\000"
 2093 03e8 06       		.byte	0x6
 2094 03e9 FC04     		.2byte	0x4fc
 2095 03eb 10       		.byte	0x10
 2096 03ec AF000000 		.4byte	0xaf
 2097 03f0 D0       		.byte	0xd0
 2098 03f1 01       		.uleb128 0x1
 2099 03f2 D4050000 		.4byte	.LASF62
 2100 03f6 06       		.byte	0x6
 2101 03f7 FD04     		.2byte	0x4fd
 2102 03f9 10       		.byte	0x10
 2103 03fa AF000000 		.4byte	0xaf
 2104 03fe D4       		.byte	0xd4
 2105 03ff 01       		.uleb128 0x1
ARM GAS  C:\Users\DEVELO~1\AppData\Local\Temp\ccsHIVqO.s 			page 38


 2106 0400 1E070000 		.4byte	.LASF63
 2107 0404 06       		.byte	0x6
 2108 0405 FE04     		.2byte	0x4fe
 2109 0407 10       		.byte	0x10
 2110 0408 AF000000 		.4byte	0xaf
 2111 040c D8       		.byte	0xd8
 2112 040d 01       		.uleb128 0x1
 2113 040e 7C060000 		.4byte	.LASF64
 2114 0412 06       		.byte	0x6
 2115 0413 FF04     		.2byte	0x4ff
 2116 0415 10       		.byte	0x10
 2117 0416 AF000000 		.4byte	0xaf
 2118 041a DC       		.byte	0xdc
 2119 041b 01       		.uleb128 0x1
 2120 041c BB040000 		.4byte	.LASF65
 2121 0420 06       		.byte	0x6
 2122 0421 0005     		.2byte	0x500
 2123 0423 10       		.byte	0x10
 2124 0424 AF000000 		.4byte	0xaf
 2125 0428 E0       		.byte	0xe0
 2126 0429 01       		.uleb128 0x1
 2127 042a A6040000 		.4byte	.LASF66
 2128 042e 06       		.byte	0x6
 2129 042f 0105     		.2byte	0x501
 2130 0431 10       		.byte	0x10
 2131 0432 AF000000 		.4byte	0xaf
 2132 0436 E4       		.byte	0xe4
 2133 0437 01       		.uleb128 0x1
 2134 0438 43070000 		.4byte	.LASF67
 2135 043c 06       		.byte	0x6
 2136 043d 0205     		.2byte	0x502
 2137 043f 10       		.byte	0x10
 2138 0440 AF000000 		.4byte	0xaf
 2139 0444 E8       		.byte	0xe8
 2140 0445 01       		.uleb128 0x1
 2141 0446 8F030000 		.4byte	.LASF68
 2142 044a 06       		.byte	0x6
 2143 044b 0305     		.2byte	0x503
 2144 044d 10       		.byte	0x10
 2145 044e AF000000 		.4byte	0xaf
 2146 0452 EC       		.byte	0xec
 2147 0453 01       		.uleb128 0x1
 2148 0454 C2050000 		.4byte	.LASF69
 2149 0458 06       		.byte	0x6
 2150 0459 0405     		.2byte	0x504
 2151 045b 10       		.byte	0x10
 2152 045c AF000000 		.4byte	0xaf
 2153 0460 F0       		.byte	0xf0
 2154 0461 01       		.uleb128 0x1
 2155 0462 3F040000 		.4byte	.LASF70
 2156 0466 06       		.byte	0x6
 2157 0467 0505     		.2byte	0x505
 2158 0469 10       		.byte	0x10
 2159 046a AF000000 		.4byte	0xaf
 2160 046e F4       		.byte	0xf4
 2161 046f 01       		.uleb128 0x1
 2162 0470 72010000 		.4byte	.LASF71
ARM GAS  C:\Users\DEVELO~1\AppData\Local\Temp\ccsHIVqO.s 			page 39


 2163 0474 06       		.byte	0x6
 2164 0475 0605     		.2byte	0x506
 2165 0477 10       		.byte	0x10
 2166 0478 A3000000 		.4byte	0xa3
 2167 047c F8       		.byte	0xf8
 2168 047d 01       		.uleb128 0x1
 2169 047e 77050000 		.4byte	.LASF72
 2170 0482 06       		.byte	0x6
 2171 0483 0705     		.2byte	0x507
 2172 0485 10       		.byte	0x10
 2173 0486 AF000000 		.4byte	0xaf
 2174 048a FC       		.byte	0xfc
 2175 048b 09       		.uleb128 0x9
 2176 048c F4000000 		.4byte	.LASF73
 2177 0490 0805     		.2byte	0x508
 2178 0492 10       		.byte	0x10
 2179 0493 AF000000 		.4byte	0xaf
 2180 0497 0001     		.2byte	0x100
 2181 0499 09       		.uleb128 0x9
 2182 049a 8D000000 		.4byte	.LASF74
 2183 049e 0905     		.2byte	0x509
 2184 04a0 10       		.byte	0x10
 2185 04a1 AF000000 		.4byte	0xaf
 2186 04a5 0401     		.2byte	0x104
 2187 04a7 09       		.uleb128 0x9
 2188 04a8 41060000 		.4byte	.LASF75
 2189 04ac 0A05     		.2byte	0x50a
 2190 04ae 10       		.byte	0x10
 2191 04af AF000000 		.4byte	0xaf
 2192 04b3 0801     		.2byte	0x108
 2193 04b5 09       		.uleb128 0x9
 2194 04b6 5D010000 		.4byte	.LASF76
 2195 04ba 0B05     		.2byte	0x50b
 2196 04bc 10       		.byte	0x10
 2197 04bd AF000000 		.4byte	0xaf
 2198 04c1 0C01     		.2byte	0x10c
 2199 04c3 09       		.uleb128 0x9
 2200 04c4 BB060000 		.4byte	.LASF77
 2201 04c8 0C05     		.2byte	0x50c
 2202 04ca 10       		.byte	0x10
 2203 04cb AF000000 		.4byte	0xaf
 2204 04cf 1001     		.2byte	0x110
 2205 04d1 09       		.uleb128 0x9
 2206 04d2 72000000 		.4byte	.LASF78
 2207 04d6 0D05     		.2byte	0x50d
 2208 04d8 10       		.byte	0x10
 2209 04d9 AF000000 		.4byte	0xaf
 2210 04dd 1401     		.2byte	0x114
 2211 04df 09       		.uleb128 0x9
 2212 04e0 D7030000 		.4byte	.LASF79
 2213 04e4 0E05     		.2byte	0x50e
 2214 04e6 10       		.byte	0x10
 2215 04e7 AF000000 		.4byte	0xaf
 2216 04eb 1801     		.2byte	0x118
 2217 04ed 09       		.uleb128 0x9
 2218 04ee 81050000 		.4byte	.LASF80
 2219 04f2 0F05     		.2byte	0x50f
ARM GAS  C:\Users\DEVELO~1\AppData\Local\Temp\ccsHIVqO.s 			page 40


 2220 04f4 10       		.byte	0x10
 2221 04f5 AF000000 		.4byte	0xaf
 2222 04f9 1C01     		.2byte	0x11c
 2223 04fb 09       		.uleb128 0x9
 2224 04fc 7D010000 		.4byte	.LASF81
 2225 0500 1005     		.2byte	0x510
 2226 0502 0F       		.byte	0xf
 2227 0503 C2000000 		.4byte	0xc2
 2228 0507 2001     		.2byte	0x120
 2229 0509 00       		.byte	0
 2230 050a 0C       		.uleb128 0xc
 2231 050b 88020000 		.4byte	.LASF82
 2232 050f 06       		.byte	0x6
 2233 0510 1205     		.2byte	0x512
 2234 0512 03       		.byte	0x3
 2235 0513 71010000 		.4byte	0x171
 2236 0517 0F       		.uleb128 0xf
 2237 0518 4C       		.byte	0x4c
 2238 0519 06       		.byte	0x6
 2239 051a 5405     		.2byte	0x554
 2240 051c 59050000 		.4byte	0x559
 2241 0520 03       		.uleb128 0x3
 2242 0521 47435200 		.ascii	"GCR\000"
 2243 0525 06       		.byte	0x6
 2244 0526 5605     		.2byte	0x556
 2245 0528 11       		.byte	0x11
 2246 0529 AF000000 		.4byte	0xaf
 2247 052d 00       		.byte	0
 2248 052e 01       		.uleb128 0x1
 2249 052f CA050000 		.4byte	.LASF83
 2250 0533 06       		.byte	0x6
 2251 0534 5705     		.2byte	0x557
 2252 0536 11       		.byte	0x11
 2253 0537 59050000 		.4byte	0x559
 2254 053b 04       		.byte	0x4
 2255 053c 01       		.uleb128 0x1
 2256 053d 18070000 		.4byte	.LASF84
 2257 0541 06       		.byte	0x6
 2258 0542 5805     		.2byte	0x558
 2259 0544 11       		.byte	0x11
 2260 0545 AF000000 		.4byte	0xaf
 2261 0549 44       		.byte	0x44
 2262 054a 01       		.uleb128 0x1
 2263 054b 63040000 		.4byte	.LASF85
 2264 054f 06       		.byte	0x6
 2265 0550 5905     		.2byte	0x559
 2266 0552 11       		.byte	0x11
 2267 0553 AF000000 		.4byte	0xaf
 2268 0557 48       		.byte	0x48
 2269 0558 00       		.byte	0
 2270 0559 0D       		.uleb128 0xd
 2271 055a A3000000 		.4byte	0xa3
 2272 055e 69050000 		.4byte	0x569
 2273 0562 0E       		.uleb128 0xe
 2274 0563 39000000 		.4byte	0x39
 2275 0567 0F       		.byte	0xf
 2276 0568 00       		.byte	0
ARM GAS  C:\Users\DEVELO~1\AppData\Local\Temp\ccsHIVqO.s 			page 41


 2277 0569 0C       		.uleb128 0xc
 2278 056a 00000000 		.4byte	.LASF86
 2279 056e 06       		.byte	0x6
 2280 056f 5A05     		.2byte	0x55a
 2281 0571 03       		.byte	0x3
 2282 0572 17050000 		.4byte	0x517
 2283 0576 0F       		.uleb128 0xf
 2284 0577 20       		.byte	0x20
 2285 0578 06       		.byte	0x6
 2286 0579 5C05     		.2byte	0x55c
 2287 057b EE050000 		.4byte	0x5ee
 2288 057f 03       		.uleb128 0x3
 2289 0580 43523100 		.ascii	"CR1\000"
 2290 0584 06       		.byte	0x6
 2291 0585 5E05     		.2byte	0x55e
 2292 0587 11       		.byte	0x11
 2293 0588 AF000000 		.4byte	0xaf
 2294 058c 00       		.byte	0
 2295 058d 03       		.uleb128 0x3
 2296 058e 43523200 		.ascii	"CR2\000"
 2297 0592 06       		.byte	0x6
 2298 0593 5F05     		.2byte	0x55f
 2299 0595 11       		.byte	0x11
 2300 0596 AF000000 		.4byte	0xaf
 2301 059a 04       		.byte	0x4
 2302 059b 01       		.uleb128 0x1
 2303 059c 04070000 		.4byte	.LASF87
 2304 05a0 06       		.byte	0x6
 2305 05a1 6005     		.2byte	0x560
 2306 05a3 11       		.byte	0x11
 2307 05a4 AF000000 		.4byte	0xaf
 2308 05a8 08       		.byte	0x8
 2309 05a9 01       		.uleb128 0x1
 2310 05aa 26070000 		.4byte	.LASF88
 2311 05ae 06       		.byte	0x6
 2312 05af 6105     		.2byte	0x561
 2313 05b1 11       		.byte	0x11
 2314 05b2 AF000000 		.4byte	0xaf
 2315 05b6 0C       		.byte	0xc
 2316 05b7 03       		.uleb128 0x3
 2317 05b8 494D5200 		.ascii	"IMR\000"
 2318 05bc 06       		.byte	0x6
 2319 05bd 6205     		.2byte	0x562
 2320 05bf 11       		.byte	0x11
 2321 05c0 AF000000 		.4byte	0xaf
 2322 05c4 10       		.byte	0x10
 2323 05c5 03       		.uleb128 0x3
 2324 05c6 535200   		.ascii	"SR\000"
 2325 05c9 06       		.byte	0x6
 2326 05ca 6305     		.2byte	0x563
 2327 05cc 11       		.byte	0x11
 2328 05cd AF000000 		.4byte	0xaf
 2329 05d1 14       		.byte	0x14
 2330 05d2 01       		.uleb128 0x1
 2331 05d3 F5050000 		.4byte	.LASF89
 2332 05d7 06       		.byte	0x6
 2333 05d8 6405     		.2byte	0x564
ARM GAS  C:\Users\DEVELO~1\AppData\Local\Temp\ccsHIVqO.s 			page 42


 2334 05da 11       		.byte	0x11
 2335 05db AF000000 		.4byte	0xaf
 2336 05df 18       		.byte	0x18
 2337 05e0 03       		.uleb128 0x3
 2338 05e1 445200   		.ascii	"DR\000"
 2339 05e4 06       		.byte	0x6
 2340 05e5 6505     		.2byte	0x565
 2341 05e7 11       		.byte	0x11
 2342 05e8 AF000000 		.4byte	0xaf
 2343 05ec 1C       		.byte	0x1c
 2344 05ed 00       		.byte	0
 2345 05ee 0C       		.uleb128 0xc
 2346 05ef C5030000 		.4byte	.LASF90
 2347 05f3 06       		.byte	0x6
 2348 05f4 6605     		.2byte	0x566
 2349 05f6 03       		.byte	0x3
 2350 05f7 76050000 		.4byte	0x576
 2351 05fb 05       		.uleb128 0x5
 2352 05fc 01       		.byte	0x1
 2353 05fd 02       		.byte	0x2
 2354 05fe 49050000 		.4byte	.LASF91
 2355 0602 06       		.uleb128 0x6
 2356 0603 07060000 		.4byte	0x607
 2357 0607 16       		.uleb128 0x16
 2358 0608 17060000 		.4byte	0x617
 2359 060c 04       		.uleb128 0x4
 2360 060d C0000000 		.4byte	0xc0
 2361 0611 04       		.uleb128 0x4
 2362 0612 A3000000 		.4byte	0xa3
 2363 0616 00       		.byte	0
 2364 0617 0C       		.uleb128 0xc
 2365 0618 67020000 		.4byte	.LASF92
 2366 061c 07       		.byte	0x7
 2367 061d A201     		.2byte	0x1a2
 2368 061f 10       		.byte	0x10
 2369 0620 02060000 		.4byte	0x602
 2370 0624 0F       		.uleb128 0xf
 2371 0625 10       		.byte	0x10
 2372 0626 07       		.byte	0x7
 2373 0627 A701     		.2byte	0x1a7
 2374 0629 82060000 		.4byte	0x682
 2375 062d 01       		.uleb128 0x1
 2376 062e 3B050000 		.4byte	.LASF93
 2377 0632 07       		.byte	0x7
 2378 0633 A801     		.2byte	0x1a8
 2379 0635 1A       		.byte	0x1a
 2380 0636 82060000 		.4byte	0x682
 2381 063a 00       		.byte	0
 2382 063b 01       		.uleb128 0x1
 2383 063c F0050000 		.4byte	.LASF94
 2384 0640 07       		.byte	0x7
 2385 0641 A901     		.2byte	0x1a9
 2386 0643 1A       		.byte	0x1a
 2387 0644 87060000 		.4byte	0x687
 2388 0648 04       		.byte	0x4
 2389 0649 03       		.uleb128 0x3
 2390 064a 6D757800 		.ascii	"mux\000"
ARM GAS  C:\Users\DEVELO~1\AppData\Local\Temp\ccsHIVqO.s 			page 43


 2391 064e 07       		.byte	0x7
 2392 064f AB01     		.2byte	0x1ab
 2393 0651 1B       		.byte	0x1b
 2394 0652 8C060000 		.4byte	0x68c
 2395 0656 08       		.byte	0x8
 2396 0657 01       		.uleb128 0x1
 2397 0658 D9010000 		.4byte	.LASF95
 2398 065c 07       		.byte	0x7
 2399 065d AF01     		.2byte	0x1af
 2400 065f 19       		.byte	0x19
 2401 0660 97000000 		.4byte	0x97
 2402 0664 0C       		.byte	0xc
 2403 0665 01       		.uleb128 0x1
 2404 0666 1F020000 		.4byte	.LASF96
 2405 066a 07       		.byte	0x7
 2406 066b B101     		.2byte	0x1b1
 2407 066d 19       		.byte	0x19
 2408 066e 97000000 		.4byte	0x97
 2409 0672 0D       		.byte	0xd
 2410 0673 01       		.uleb128 0x1
 2411 0674 97000000 		.4byte	.LASF97
 2412 0678 07       		.byte	0x7
 2413 0679 B201     		.2byte	0x1b2
 2414 067b 19       		.byte	0x19
 2415 067c 97000000 		.4byte	0x97
 2416 0680 0E       		.byte	0xe
 2417 0681 00       		.byte	0
 2418 0682 06       		.uleb128 0x6
 2419 0683 2F010000 		.4byte	0x12f
 2420 0687 06       		.uleb128 0x6
 2421 0688 AF000000 		.4byte	0xaf
 2422 068c 06       		.uleb128 0x6
 2423 068d 54010000 		.4byte	0x154
 2424 0691 0C       		.uleb128 0xc
 2425 0692 1E050000 		.4byte	.LASF98
 2426 0696 07       		.byte	0x7
 2427 0697 B301     		.2byte	0x1b3
 2428 0699 03       		.byte	0x3
 2429 069a 24060000 		.4byte	0x624
 2430 069e 0B       		.uleb128 0xb
 2431 069f 91060000 		.4byte	0x691
 2432 06a3 06       		.uleb128 0x6
 2433 06a4 9E060000 		.4byte	0x69e
 2434 06a8 20       		.uleb128 0x20
 2435 06a9 07       		.byte	0x7
 2436 06aa 01       		.byte	0x1
 2437 06ab 61000000 		.4byte	0x61
 2438 06af 08       		.byte	0x8
 2439 06b0 25       		.byte	0x25
 2440 06b1 0E       		.byte	0xe
 2441 06b2 CF060000 		.4byte	0x6cf
 2442 06b6 11       		.uleb128 0x11
 2443 06b7 DC040000 		.4byte	.LASF99
 2444 06bb 00       		.byte	0
 2445 06bc 11       		.uleb128 0x11
 2446 06bd FE000000 		.4byte	.LASF100
 2447 06c1 01       		.byte	0x1
ARM GAS  C:\Users\DEVELO~1\AppData\Local\Temp\ccsHIVqO.s 			page 44


 2448 06c2 11       		.uleb128 0x11
 2449 06c3 83000000 		.4byte	.LASF101
 2450 06c7 02       		.byte	0x2
 2451 06c8 11       		.uleb128 0x11
 2452 06c9 63060000 		.4byte	.LASF102
 2453 06cd 03       		.byte	0x3
 2454 06ce 00       		.byte	0
 2455 06cf 08       		.uleb128 0x8
 2456 06d0 70040000 		.4byte	.LASF103
 2457 06d4 08       		.byte	0x8
 2458 06d5 2A       		.byte	0x2a
 2459 06d6 03       		.byte	0x3
 2460 06d7 A8060000 		.4byte	0x6a8
 2461 06db 08       		.uleb128 0x8
 2462 06dc 3E000000 		.4byte	.LASF104
 2463 06e0 08       		.byte	0x8
 2464 06e1 2F       		.byte	0x2f
 2465 06e2 1F       		.byte	0x1f
 2466 06e3 EC060000 		.4byte	0x6ec
 2467 06e7 0B       		.uleb128 0xb
 2468 06e8 DB060000 		.4byte	0x6db
 2469 06ec 17       		.uleb128 0x17
 2470 06ed A1010000 		.4byte	.LASF117
 2471 06f1 30       		.byte	0x30
 2472 06f2 45       		.byte	0x45
 2473 06f3 87070000 		.4byte	0x787
 2474 06f7 02       		.uleb128 0x2
 2475 06f8 88010000 		.4byte	.LASF105
 2476 06fc 49       		.byte	0x49
 2477 06fd 1D       		.byte	0x1d
 2478 06fe CF060000 		.4byte	0x6cf
 2479 0702 00       		.byte	0
 2480 0703 02       		.uleb128 0x2
 2481 0704 31060000 		.4byte	.LASF106
 2482 0708 4D       		.byte	0x4d
 2483 0709 1E       		.byte	0x1e
 2484 070a 4B080000 		.4byte	0x84b
 2485 070e 04       		.byte	0x4
 2486 070f 12       		.uleb128 0x12
 2487 0710 73616900 		.ascii	"sai\000"
 2488 0714 4F       		.byte	0x4f
 2489 0715 50080000 		.4byte	0x850
 2490 0719 08       		.byte	0x8
 2491 071a 02       		.uleb128 0x2
 2492 071b 38040000 		.4byte	.LASF107
 2493 071f 4F       		.byte	0x4f
 2494 0720 03       		.byte	0x3
 2495 0721 55080000 		.4byte	0x855
 2496 0725 0C       		.byte	0xc
 2497 0726 02       		.uleb128 0x2
 2498 0727 4E020000 		.4byte	.LASF108
 2499 072b 4F       		.byte	0x4f
 2500 072c 03       		.byte	0x3
 2501 072d 97000000 		.4byte	0x97
 2502 0731 10       		.byte	0x10
 2503 0732 02       		.uleb128 0x2
 2504 0733 0C000000 		.4byte	.LASF109
ARM GAS  C:\Users\DEVELO~1\AppData\Local\Temp\ccsHIVqO.s 			page 45


 2505 0737 4F       		.byte	0x4f
 2506 0738 03       		.byte	0x3
 2507 0739 A3060000 		.4byte	0x6a3
 2508 073d 14       		.byte	0x14
 2509 073e 02       		.uleb128 0x2
 2510 073f D6040000 		.4byte	.LASF110
 2511 0743 4F       		.byte	0x4f
 2512 0744 03       		.byte	0x3
 2513 0745 A3060000 		.4byte	0x6a3
 2514 0749 18       		.byte	0x18
 2515 074a 02       		.uleb128 0x2
 2516 074b B0010000 		.4byte	.LASF111
 2517 074f 4F       		.byte	0x4f
 2518 0750 03       		.byte	0x3
 2519 0751 A3000000 		.4byte	0xa3
 2520 0755 1C       		.byte	0x1c
 2521 0756 02       		.uleb128 0x2
 2522 0757 7B040000 		.4byte	.LASF112
 2523 075b 4F       		.byte	0x4f
 2524 075c 03       		.byte	0x3
 2525 075d A3000000 		.4byte	0xa3
 2526 0761 20       		.byte	0x20
 2527 0762 02       		.uleb128 0x2
 2528 0763 61020000 		.4byte	.LASF113
 2529 0767 4F       		.byte	0x4f
 2530 0768 03       		.byte	0x3
 2531 0769 5A080000 		.4byte	0x85a
 2532 076d 24       		.byte	0x24
 2533 076e 02       		.uleb128 0x2
 2534 076f 7D000000 		.4byte	.LASF114
 2535 0773 4F       		.byte	0x4f
 2536 0774 03       		.byte	0x3
 2537 0775 C0000000 		.4byte	0xc0
 2538 0779 28       		.byte	0x28
 2539 077a 02       		.uleb128 0x2
 2540 077b CA010000 		.4byte	.LASF115
 2541 077f 4F       		.byte	0x4f
 2542 0780 03       		.byte	0x3
 2543 0781 2D000000 		.4byte	0x2d
 2544 0785 2C       		.byte	0x2c
 2545 0786 00       		.byte	0
 2546 0787 08       		.uleb128 0x8
 2547 0788 DD060000 		.4byte	.LASF116
 2548 078c 08       		.byte	0x8
 2549 078d 34       		.byte	0x34
 2550 078e 1F       		.byte	0x1f
 2551 078f 98070000 		.4byte	0x798
 2552 0793 0B       		.uleb128 0xb
 2553 0794 87070000 		.4byte	0x787
 2554 0798 17       		.uleb128 0x17
 2555 0799 04060000 		.4byte	.LASF118
 2556 079d 28       		.byte	0x28
 2557 079e 55       		.byte	0x55
 2558 079f 19080000 		.4byte	0x819
 2559 07a3 02       		.uleb128 0x2
 2560 07a4 B1060000 		.4byte	.LASF119
 2561 07a8 5A       		.byte	0x5a
ARM GAS  C:\Users\DEVELO~1\AppData\Local\Temp\ccsHIVqO.s 			page 46


 2562 07a9 1E       		.byte	0x1e
 2563 07aa 5A080000 		.4byte	0x85a
 2564 07ae 00       		.byte	0
 2565 07af 02       		.uleb128 0x2
 2566 07b0 8E040000 		.4byte	.LASF120
 2567 07b4 5F       		.byte	0x5f
 2568 07b5 1E       		.byte	0x1e
 2569 07b6 C0000000 		.4byte	0xc0
 2570 07ba 04       		.byte	0x4
 2571 07bb 02       		.uleb128 0x2
 2572 07bc 41010000 		.4byte	.LASF121
 2573 07c0 63       		.byte	0x63
 2574 07c1 1D       		.byte	0x1d
 2575 07c2 2D000000 		.4byte	0x2d
 2576 07c6 08       		.byte	0x8
 2577 07c7 02       		.uleb128 0x2
 2578 07c8 DF010000 		.4byte	.LASF122
 2579 07cc 67       		.byte	0x67
 2580 07cd 1D       		.byte	0x1d
 2581 07ce 19080000 		.4byte	0x819
 2582 07d2 0C       		.byte	0xc
 2583 07d3 12       		.uleb128 0x12
 2584 07d4 67637200 		.ascii	"gcr\000"
 2585 07d8 69       		.byte	0x69
 2586 07d9 A3000000 		.4byte	0xa3
 2587 07dd 10       		.byte	0x10
 2588 07de 12       		.uleb128 0x12
 2589 07df 63723100 		.ascii	"cr1\000"
 2590 07e3 69       		.byte	0x69
 2591 07e4 A3000000 		.4byte	0xa3
 2592 07e8 14       		.byte	0x14
 2593 07e9 12       		.uleb128 0x12
 2594 07ea 63723200 		.ascii	"cr2\000"
 2595 07ee 69       		.byte	0x69
 2596 07ef A3000000 		.4byte	0xa3
 2597 07f3 18       		.byte	0x18
 2598 07f4 02       		.uleb128 0x2
 2599 07f5 E7060000 		.4byte	.LASF123
 2600 07f9 69       		.byte	0x69
 2601 07fa 03       		.byte	0x3
 2602 07fb A3000000 		.4byte	0xa3
 2603 07ff 1C       		.byte	0x1c
 2604 0800 02       		.uleb128 0x2
 2605 0801 A0040000 		.4byte	.LASF124
 2606 0805 69       		.byte	0x69
 2607 0806 03       		.byte	0x3
 2608 0807 A3000000 		.4byte	0xa3
 2609 080b 20       		.byte	0x20
 2610 080c 02       		.uleb128 0x2
 2611 080d 85040000 		.4byte	.LASF125
 2612 0811 69       		.byte	0x69
 2613 0812 03       		.byte	0x3
 2614 0813 A3000000 		.4byte	0xa3
 2615 0817 24       		.byte	0x24
 2616 0818 00       		.byte	0
 2617 0819 08       		.uleb128 0x8
 2618 081a 22040000 		.4byte	.LASF126
ARM GAS  C:\Users\DEVELO~1\AppData\Local\Temp\ccsHIVqO.s 			page 47


 2619 081e 08       		.byte	0x8
 2620 081f 3C       		.byte	0x3c
 2621 0820 10       		.byte	0x10
 2622 0821 25080000 		.4byte	0x825
 2623 0825 06       		.uleb128 0x6
 2624 0826 2A080000 		.4byte	0x82a
 2625 082a 16       		.uleb128 0x16
 2626 082b 3A080000 		.4byte	0x83a
 2627 082f 04       		.uleb128 0x4
 2628 0830 3A080000 		.4byte	0x83a
 2629 0834 04       		.uleb128 0x4
 2630 0835 FB050000 		.4byte	0x5fb
 2631 0839 00       		.byte	0
 2632 083a 06       		.uleb128 0x6
 2633 083b DB060000 		.4byte	0x6db
 2634 083f 21       		.uleb128 0x21
 2635 0840 66050000 		.4byte	.LASF155
 2636 0844 09       		.byte	0x9
 2637 0845 F6       		.byte	0xf6
 2638 0846 12       		.byte	0x12
 2639 0847 DB060000 		.4byte	0x6db
 2640 084b 06       		.uleb128 0x6
 2641 084c 93070000 		.4byte	0x793
 2642 0850 06       		.uleb128 0x6
 2643 0851 69050000 		.4byte	0x569
 2644 0855 06       		.uleb128 0x6
 2645 0856 EE050000 		.4byte	0x5ee
 2646 085a 06       		.uleb128 0x6
 2647 085b 5F080000 		.4byte	0x85f
 2648 085f 22       		.uleb128 0x22
 2649 0860 23       		.uleb128 0x23
 2650 0861 3F080000 		.4byte	0x83f
 2651 0865 02       		.byte	0x2
 2652 0866 35       		.byte	0x35
 2653 0867 0B       		.byte	0xb
 2654 0868 05       		.uleb128 0x5
 2655 0869 03       		.byte	0x3
 2656 086a 00000000 		.4byte	SAID2A
 2657 086e 13       		.uleb128 0x13
 2658 086f 2C070000 		.4byte	.LASF127
 2659 0873 40       		.byte	0x40
 2660 0874 11       		.byte	0x11
 2661 0875 A3000000 		.4byte	0xa3
 2662 0879 05       		.uleb128 0x5
 2663 087a 03       		.byte	0x3
 2664 087b 00000000 		.4byte	sai1_ref
 2665 087f 13       		.uleb128 0x13
 2666 0880 73060000 		.4byte	.LASF128
 2667 0884 41       		.byte	0x41
 2668 0885 11       		.byte	0x11
 2669 0886 A3000000 		.4byte	0xa3
 2670 088a 05       		.uleb128 0x5
 2671 088b 03       		.byte	0x3
 2672 088c 00000000 		.4byte	sai2_ref
 2673 0890 14       		.uleb128 0x14
 2674 0891 DC050000 		.4byte	.LASF129
 2675 0895 07       		.byte	0x7
ARM GAS  C:\Users\DEVELO~1\AppData\Local\Temp\ccsHIVqO.s 			page 48


 2676 0896 A702     		.2byte	0x2a7
 2677 0898 A7080000 		.4byte	0x8a7
 2678 089c 04       		.uleb128 0x4
 2679 089d A3060000 		.4byte	0x6a3
 2680 08a1 04       		.uleb128 0x4
 2681 08a2 A3000000 		.4byte	0xa3
 2682 08a6 00       		.byte	0
 2683 08a7 14       		.uleb128 0x14
 2684 08a8 B6030000 		.4byte	.LASF130
 2685 08ac 07       		.byte	0x7
 2686 08ad A402     		.2byte	0x2a4
 2687 08af B9080000 		.4byte	0x8b9
 2688 08b3 04       		.uleb128 0x4
 2689 08b4 A3060000 		.4byte	0x6a3
 2690 08b8 00       		.byte	0
 2691 08b9 24       		.uleb128 0x24
 2692 08ba BA010000 		.4byte	.LASF156
 2693 08be 07       		.byte	0x7
 2694 08bf 9C02     		.2byte	0x29c
 2695 08c1 1D       		.byte	0x1d
 2696 08c2 A3060000 		.4byte	0x6a3
 2697 08c6 DF080000 		.4byte	0x8df
 2698 08ca 04       		.uleb128 0x4
 2699 08cb A3000000 		.4byte	0xa3
 2700 08cf 04       		.uleb128 0x4
 2701 08d0 A3000000 		.4byte	0xa3
 2702 08d4 04       		.uleb128 0x4
 2703 08d5 17060000 		.4byte	0x617
 2704 08d9 04       		.uleb128 0x4
 2705 08da C0000000 		.4byte	0xc0
 2706 08de 00       		.byte	0
 2707 08df 25       		.uleb128 0x25
 2708 08e0 C8020000 		.4byte	.LASF131
 2709 08e4 08       		.byte	0x8
 2710 08e5 A8       		.byte	0xa8
 2711 08e6 08       		.byte	0x8
 2712 08e7 F1080000 		.4byte	0x8f1
 2713 08eb 04       		.uleb128 0x4
 2714 08ec 3A080000 		.4byte	0x83a
 2715 08f0 00       		.byte	0
 2716 08f1 14       		.uleb128 0x14
 2717 08f2 C3040000 		.4byte	.LASF132
 2718 08f6 09       		.byte	0x9
 2719 08f7 0901     		.2byte	0x109
 2720 08f9 03090000 		.4byte	0x903
 2721 08fd 04       		.uleb128 0x4
 2722 08fe 3A080000 		.4byte	0x83a
 2723 0902 00       		.byte	0
 2724 0903 18       		.uleb128 0x18
 2725 0904 5C000000 		.4byte	.LASF133
 2726 0908 5001     		.2byte	0x150
 2727 090a 00000000 		.4byte	.LFB443
 2728 090e C2000000 		.4byte	.LFE443-.LFB443
 2729 0912 01       		.uleb128 0x1
 2730 0913 9C       		.byte	0x9c
 2731 0914 29090000 		.4byte	0x929
 2732 0918 0A       		.uleb128 0xa
ARM GAS  C:\Users\DEVELO~1\AppData\Local\Temp\ccsHIVqO.s 			page 49


 2733 0919 05050000 		.4byte	.LASF135
 2734 091d 02       		.byte	0x2
 2735 091e 5001     		.2byte	0x150
 2736 0920 27       		.byte	0x27
 2737 0921 3A080000 		.4byte	0x83a
 2738 0925 02       		.uleb128 0x2
 2739 0926 91       		.byte	0x91
 2740 0927 74       		.sleb128 -12
 2741 0928 00       		.byte	0
 2742 0929 18       		.uleb128 0x18
 2743 092a 1B000000 		.4byte	.LASF134
 2744 092e 4901     		.2byte	0x149
 2745 0930 00000000 		.4byte	.LFB442
 2746 0934 36000000 		.4byte	.LFE442-.LFB442
 2747 0938 01       		.uleb128 0x1
 2748 0939 9C       		.byte	0x9c
 2749 093a 58090000 		.4byte	0x958
 2750 093e 0A       		.uleb128 0xa
 2751 093f 05050000 		.4byte	.LASF135
 2752 0943 02       		.byte	0x2
 2753 0944 4901     		.2byte	0x149
 2754 0946 28       		.byte	0x28
 2755 0947 3A080000 		.4byte	0x83a
 2756 094b 02       		.uleb128 0x2
 2757 094c 91       		.byte	0x91
 2758 094d 74       		.sleb128 -12
 2759 094e 15       		.uleb128 0x15
 2760 094f 9D050000 		.4byte	.LASF139
 2761 0953 68090000 		.4byte	0x968
 2762 0957 00       		.byte	0
 2763 0958 0D       		.uleb128 0xd
 2764 0959 BB000000 		.4byte	0xbb
 2765 095d 68090000 		.4byte	0x968
 2766 0961 0E       		.uleb128 0xe
 2767 0962 39000000 		.4byte	0x39
 2768 0966 16       		.byte	0x16
 2769 0967 00       		.byte	0
 2770 0968 0B       		.uleb128 0xb
 2771 0969 58090000 		.4byte	0x958
 2772 096d 26       		.uleb128 0x26
 2773 096e EB030000 		.4byte	.LASF136
 2774 0972 02       		.byte	0x2
 2775 0973 0B01     		.2byte	0x10b
 2776 0975 06       		.byte	0x6
 2777 0976 00000000 		.4byte	.LFB441
 2778 097a B6010000 		.4byte	.LFE441-.LFB441
 2779 097e 01       		.uleb128 0x1
 2780 097f 9C       		.byte	0x9c
 2781 0980 EC090000 		.4byte	0x9ec
 2782 0984 0A       		.uleb128 0xa
 2783 0985 05050000 		.4byte	.LASF135
 2784 0989 02       		.byte	0x2
 2785 098a 0B01     		.2byte	0x10b
 2786 098c 25       		.byte	0x25
 2787 098d 3A080000 		.4byte	0x83a
 2788 0991 02       		.uleb128 0x2
 2789 0992 91       		.byte	0x91
ARM GAS  C:\Users\DEVELO~1\AppData\Local\Temp\ccsHIVqO.s 			page 50


 2790 0993 64       		.sleb128 -28
 2791 0994 0A       		.uleb128 0xa
 2792 0995 B1060000 		.4byte	.LASF119
 2793 0999 02       		.byte	0x2
 2794 099a 0C01     		.2byte	0x10c
 2795 099c 26       		.byte	0x26
 2796 099d 5A080000 		.4byte	0x85a
 2797 09a1 02       		.uleb128 0x2
 2798 09a2 91       		.byte	0x91
 2799 09a3 60       		.sleb128 -32
 2800 09a4 0A       		.uleb128 0xa
 2801 09a5 8E040000 		.4byte	.LASF120
 2802 09a9 02       		.byte	0x2
 2803 09aa 0D01     		.2byte	0x10d
 2804 09ac 20       		.byte	0x20
 2805 09ad C0000000 		.4byte	0xc0
 2806 09b1 02       		.uleb128 0x2
 2807 09b2 91       		.byte	0x91
 2808 09b3 5C       		.sleb128 -36
 2809 09b4 0A       		.uleb128 0xa
 2810 09b5 41010000 		.4byte	.LASF121
 2811 09b9 02       		.byte	0x2
 2812 09ba 0E01     		.2byte	0x10e
 2813 09bc 21       		.byte	0x21
 2814 09bd 2D000000 		.4byte	0x2d
 2815 09c1 02       		.uleb128 0x2
 2816 09c2 91       		.byte	0x91
 2817 09c3 58       		.sleb128 -40
 2818 09c4 19       		.uleb128 0x19
 2819 09c5 A4060000 		.4byte	.LASF137
 2820 09c9 0F01     		.2byte	0x10f
 2821 09cb 0C       		.byte	0xc
 2822 09cc A3000000 		.4byte	0xa3
 2823 09d0 02       		.uleb128 0x2
 2824 09d1 91       		.byte	0x91
 2825 09d2 6C       		.sleb128 -20
 2826 09d3 19       		.uleb128 0x19
 2827 09d4 6A040000 		.4byte	.LASF138
 2828 09d8 1001     		.2byte	0x110
 2829 09da 08       		.byte	0x8
 2830 09db FB050000 		.4byte	0x5fb
 2831 09df 02       		.uleb128 0x2
 2832 09e0 91       		.byte	0x91
 2833 09e1 6B       		.sleb128 -21
 2834 09e2 15       		.uleb128 0x15
 2835 09e3 9D050000 		.4byte	.LASF139
 2836 09e7 FC090000 		.4byte	0x9fc
 2837 09eb 00       		.byte	0
 2838 09ec 0D       		.uleb128 0xd
 2839 09ed BB000000 		.4byte	0xbb
 2840 09f1 FC090000 		.4byte	0x9fc
 2841 09f5 0E       		.uleb128 0xe
 2842 09f6 39000000 		.4byte	0x39
 2843 09fa 13       		.byte	0x13
 2844 09fb 00       		.byte	0
 2845 09fc 0B       		.uleb128 0xb
 2846 09fd EC090000 		.4byte	0x9ec
ARM GAS  C:\Users\DEVELO~1\AppData\Local\Temp\ccsHIVqO.s 			page 51


 2847 0a01 1A       		.uleb128 0x1a
 2848 0a02 8D060000 		.4byte	.LASF140
 2849 0a06 ED       		.byte	0xed
 2850 0a07 00000000 		.4byte	.LFB440
 2851 0a0b 2C010000 		.4byte	.LFE440-.LFB440
 2852 0a0f 01       		.uleb128 0x1
 2853 0a10 9C       		.byte	0x9c
 2854 0a11 240A0000 		.4byte	0xa24
 2855 0a15 07       		.uleb128 0x7
 2856 0a16 05050000 		.4byte	.LASF135
 2857 0a1a ED       		.byte	0xed
 2858 0a1b 1E       		.byte	0x1e
 2859 0a1c 3A080000 		.4byte	0x83a
 2860 0a20 02       		.uleb128 0x2
 2861 0a21 91       		.byte	0x91
 2862 0a22 74       		.sleb128 -12
 2863 0a23 00       		.byte	0
 2864 0a24 1A       		.uleb128 0x1a
 2865 0a25 40020000 		.4byte	.LASF141
 2866 0a29 B7       		.byte	0xb7
 2867 0a2a 00000000 		.4byte	.LFB439
 2868 0a2e 5C010000 		.4byte	.LFE439-.LFB439
 2869 0a32 01       		.uleb128 0x1
 2870 0a33 9C       		.byte	0x9c
 2871 0a34 6D0A0000 		.4byte	0xa6d
 2872 0a38 07       		.uleb128 0x7
 2873 0a39 05050000 		.4byte	.LASF135
 2874 0a3d B7       		.byte	0xb7
 2875 0a3e 1F       		.byte	0x1f
 2876 0a3f 3A080000 		.4byte	0x83a
 2877 0a43 02       		.uleb128 0x2
 2878 0a44 91       		.byte	0x91
 2879 0a45 64       		.sleb128 -28
 2880 0a46 27       		.uleb128 0x27
 2881 0a47 63723100 		.ascii	"cr1\000"
 2882 0a4b 02       		.byte	0x2
 2883 0a4c B8       		.byte	0xb8
 2884 0a4d 0C       		.byte	0xc
 2885 0a4e A3000000 		.4byte	0xa3
 2886 0a52 02       		.uleb128 0x2
 2887 0a53 91       		.byte	0x91
 2888 0a54 68       		.sleb128 -24
 2889 0a55 13       		.uleb128 0x13
 2890 0a56 6A040000 		.4byte	.LASF138
 2891 0a5a B9       		.byte	0xb9
 2892 0a5b 08       		.byte	0x8
 2893 0a5c FB050000 		.4byte	0x5fb
 2894 0a60 02       		.uleb128 0x2
 2895 0a61 91       		.byte	0x91
 2896 0a62 6F       		.sleb128 -17
 2897 0a63 15       		.uleb128 0x15
 2898 0a64 9D050000 		.4byte	.LASF139
 2899 0a68 7D0A0000 		.4byte	0xa7d
 2900 0a6c 00       		.byte	0
 2901 0a6d 0D       		.uleb128 0xd
 2902 0a6e BB000000 		.4byte	0xbb
 2903 0a72 7D0A0000 		.4byte	0xa7d
ARM GAS  C:\Users\DEVELO~1\AppData\Local\Temp\ccsHIVqO.s 			page 52


 2904 0a76 0E       		.uleb128 0xe
 2905 0a77 39000000 		.4byte	0x39
 2906 0a7b 0D       		.byte	0xd
 2907 0a7c 00       		.byte	0
 2908 0a7d 0B       		.uleb128 0xb
 2909 0a7e 6D0A0000 		.4byte	0xa6d
 2910 0a82 28       		.uleb128 0x28
 2911 0a83 AE040000 		.4byte	.LASF157
 2912 0a87 02       		.byte	0x2
 2913 0a88 94       		.byte	0x94
 2914 0a89 06       		.byte	0x6
 2915 0a8a 00000000 		.4byte	.LFB438
 2916 0a8e 2C000000 		.4byte	.LFE438-.LFB438
 2917 0a92 01       		.uleb128 0x1
 2918 0a93 9C       		.byte	0x9c
 2919 0a94 10       		.uleb128 0x10
 2920 0a95 A1030000 		.4byte	.LASF142
 2921 0a99 85       		.byte	0x85
 2922 0a9a 11       		.byte	0x11
 2923 0a9b A3000000 		.4byte	0xa3
 2924 0a9f 00000000 		.4byte	.LFB437
 2925 0aa3 34000000 		.4byte	.LFE437-.LFB437
 2926 0aa7 01       		.uleb128 0x1
 2927 0aa8 9C       		.byte	0x9c
 2928 0aa9 BC0A0000 		.4byte	0xabc
 2929 0aad 07       		.uleb128 0x7
 2930 0aae 05050000 		.4byte	.LASF135
 2931 0ab2 85       		.byte	0x85
 2932 0ab3 37       		.byte	0x37
 2933 0ab4 BC0A0000 		.4byte	0xabc
 2934 0ab8 02       		.uleb128 0x2
 2935 0ab9 91       		.byte	0x91
 2936 0aba 74       		.sleb128 -12
 2937 0abb 00       		.byte	0
 2938 0abc 06       		.uleb128 0x6
 2939 0abd E7060000 		.4byte	0x6e7
 2940 0ac1 10       		.uleb128 0x10
 2941 0ac2 E6010000 		.4byte	.LASF143
 2942 0ac6 7A       		.byte	0x7a
 2943 0ac7 11       		.byte	0x11
 2944 0ac8 A3000000 		.4byte	0xa3
 2945 0acc 00000000 		.4byte	.LFB436
 2946 0ad0 34000000 		.4byte	.LFE436-.LFB436
 2947 0ad4 01       		.uleb128 0x1
 2948 0ad5 9C       		.byte	0x9c
 2949 0ad6 E90A0000 		.4byte	0xae9
 2950 0ada 07       		.uleb128 0x7
 2951 0adb 05050000 		.4byte	.LASF135
 2952 0adf 7A       		.byte	0x7a
 2953 0ae0 37       		.byte	0x37
 2954 0ae1 BC0A0000 		.4byte	0xabc
 2955 0ae5 02       		.uleb128 0x2
 2956 0ae6 91       		.byte	0x91
 2957 0ae7 74       		.sleb128 -12
 2958 0ae8 00       		.byte	0
 2959 0ae9 10       		.uleb128 0x10
 2960 0aea 8B050000 		.4byte	.LASF144
ARM GAS  C:\Users\DEVELO~1\AppData\Local\Temp\ccsHIVqO.s 			page 53


 2961 0aee 6A       		.byte	0x6a
 2962 0aef 11       		.byte	0x11
 2963 0af0 A3000000 		.4byte	0xa3
 2964 0af4 00000000 		.4byte	.LFB435
 2965 0af8 4C000000 		.4byte	.LFE435-.LFB435
 2966 0afc 01       		.uleb128 0x1
 2967 0afd 9C       		.byte	0x9c
 2968 0afe 1F0B0000 		.4byte	0xb1f
 2969 0b02 07       		.uleb128 0x7
 2970 0b03 05050000 		.4byte	.LASF135
 2971 0b07 6A       		.byte	0x6a
 2972 0b08 34       		.byte	0x34
 2973 0b09 BC0A0000 		.4byte	0xabc
 2974 0b0d 02       		.uleb128 0x2
 2975 0b0e 91       		.byte	0x91
 2976 0b0f 74       		.sleb128 -12
 2977 0b10 07       		.uleb128 0x7
 2978 0b11 6A040000 		.4byte	.LASF138
 2979 0b15 6A       		.byte	0x6a
 2980 0b16 3F       		.byte	0x3f
 2981 0b17 FB050000 		.4byte	0x5fb
 2982 0b1b 02       		.uleb128 0x2
 2983 0b1c 91       		.byte	0x91
 2984 0b1d 73       		.sleb128 -13
 2985 0b1e 00       		.byte	0
 2986 0b1f 29       		.uleb128 0x29
 2987 0b20 A6050000 		.4byte	.LASF149
 2988 0b24 02       		.byte	0x2
 2989 0b25 58       		.byte	0x58
 2990 0b26 0D       		.byte	0xd
 2991 0b27 00000000 		.4byte	.LFB434
 2992 0b2b 62000000 		.4byte	.LFE434-.LFB434
 2993 0b2f 01       		.uleb128 0x1
 2994 0b30 9C       		.byte	0x9c
 2995 0b31 520B0000 		.4byte	0xb52
 2996 0b35 07       		.uleb128 0x7
 2997 0b36 05050000 		.4byte	.LASF135
 2998 0b3a 58       		.byte	0x58
 2999 0b3b 34       		.byte	0x34
 3000 0b3c 3A080000 		.4byte	0x83a
 3001 0b40 02       		.uleb128 0x2
 3002 0b41 91       		.byte	0x91
 3003 0b42 74       		.sleb128 -12
 3004 0b43 07       		.uleb128 0x7
 3005 0b44 FE060000 		.4byte	.LASF145
 3006 0b48 58       		.byte	0x58
 3007 0b49 43       		.byte	0x43
 3008 0b4a A3000000 		.4byte	0xa3
 3009 0b4e 02       		.uleb128 0x2
 3010 0b4f 91       		.byte	0x91
 3011 0b50 70       		.sleb128 -16
 3012 0b51 00       		.byte	0
 3013 0b52 10       		.uleb128 0x10
 3014 0b53 05040000 		.4byte	.LASF146
 3015 0b57 4D       		.byte	0x4d
 3016 0b58 11       		.byte	0x11
 3017 0b59 A3000000 		.4byte	0xa3
ARM GAS  C:\Users\DEVELO~1\AppData\Local\Temp\ccsHIVqO.s 			page 54


 3018 0b5d 00000000 		.4byte	.LFB433
 3019 0b61 40000000 		.4byte	.LFE433-.LFB433
 3020 0b65 01       		.uleb128 0x1
 3021 0b66 9C       		.byte	0x9c
 3022 0b67 7A0B0000 		.4byte	0xb7a
 3023 0b6b 07       		.uleb128 0x7
 3024 0b6c 05050000 		.4byte	.LASF135
 3025 0b70 4D       		.byte	0x4d
 3026 0b71 36       		.byte	0x36
 3027 0b72 BC0A0000 		.4byte	0xabc
 3028 0b76 02       		.uleb128 0x2
 3029 0b77 91       		.byte	0x91
 3030 0b78 74       		.sleb128 -12
 3031 0b79 00       		.byte	0
 3032 0b7a 10       		.uleb128 0x10
 3033 0b7b 47040000 		.4byte	.LASF147
 3034 0b7f 47       		.byte	0x47
 3035 0b80 0D       		.byte	0xd
 3036 0b81 FB050000 		.4byte	0x5fb
 3037 0b85 00000000 		.4byte	.LFB432
 3038 0b89 36000000 		.4byte	.LFE432-.LFB432
 3039 0b8d 01       		.uleb128 0x1
 3040 0b8e 9C       		.byte	0x9c
 3041 0b8f B00B0000 		.4byte	0xbb0
 3042 0b93 07       		.uleb128 0x7
 3043 0b94 05050000 		.4byte	.LASF135
 3044 0b98 47       		.byte	0x47
 3045 0b99 2C       		.byte	0x2c
 3046 0b9a BC0A0000 		.4byte	0xabc
 3047 0b9e 02       		.uleb128 0x2
 3048 0b9f 91       		.byte	0x91
 3049 0ba0 6C       		.sleb128 -20
 3050 0ba1 13       		.uleb128 0x13
 3051 0ba2 2C060000 		.4byte	.LASF148
 3052 0ba6 48       		.byte	0x48
 3053 0ba7 0C       		.byte	0xc
 3054 0ba8 A3000000 		.4byte	0xa3
 3055 0bac 02       		.uleb128 0x2
 3056 0bad 91       		.byte	0x91
 3057 0bae 74       		.sleb128 -12
 3058 0baf 00       		.byte	0
 3059 0bb0 2A       		.uleb128 0x2a
 3060 0bb1 09070000 		.4byte	.LASF150
 3061 0bb5 01       		.byte	0x1
 3062 0bb6 5F01     		.2byte	0x15f
 3063 0bb8 16       		.byte	0x16
 3064 0bb9 00000000 		.4byte	.LFB395
 3065 0bbd 40000000 		.4byte	.LFE395-.LFB395
 3066 0bc1 01       		.uleb128 0x1
 3067 0bc2 9C       		.byte	0x9c
 3068 0bc3 D80B0000 		.4byte	0xbd8
 3069 0bc7 0A       		.uleb128 0xa
 3070 0bc8 1A020000 		.4byte	.LASF151
 3071 0bcc 01       		.byte	0x1
 3072 0bcd 5F01     		.2byte	0x15f
 3073 0bcf 2E       		.byte	0x2e
 3074 0bd0 A3000000 		.4byte	0xa3
ARM GAS  C:\Users\DEVELO~1\AppData\Local\Temp\ccsHIVqO.s 			page 55


 3075 0bd4 02       		.uleb128 0x2
 3076 0bd5 91       		.byte	0x91
 3077 0bd6 74       		.sleb128 -12
 3078 0bd7 00       		.byte	0
 3079 0bd8 2B       		.uleb128 0x2b
 3080 0bd9 55040000 		.4byte	.LASF158
 3081 0bdd 01       		.byte	0x1
 3082 0bde 3F01     		.2byte	0x13f
 3083 0be0 16       		.byte	0x16
 3084 0be1 00000000 		.4byte	.LFB394
 3085 0be5 5C000000 		.4byte	.LFE394-.LFB394
 3086 0be9 01       		.uleb128 0x1
 3087 0bea 9C       		.byte	0x9c
 3088 0beb 0A       		.uleb128 0xa
 3089 0bec 1A020000 		.4byte	.LASF151
 3090 0bf0 01       		.byte	0x1
 3091 0bf1 3F01     		.2byte	0x13f
 3092 0bf3 2D       		.byte	0x2d
 3093 0bf4 A3000000 		.4byte	0xa3
 3094 0bf8 02       		.uleb128 0x2
 3095 0bf9 91       		.byte	0x91
 3096 0bfa 74       		.sleb128 -12
 3097 0bfb 2C       		.uleb128 0x2c
 3098 0bfc 6C7000   		.ascii	"lp\000"
 3099 0bff 01       		.byte	0x1
 3100 0c00 3F01     		.2byte	0x13f
 3101 0c02 38       		.byte	0x38
 3102 0c03 FB050000 		.4byte	0x5fb
 3103 0c07 02       		.uleb128 0x2
 3104 0c08 91       		.byte	0x91
 3105 0c09 73       		.sleb128 -13
 3106 0c0a 00       		.byte	0
 3107 0c0b 00       		.byte	0
 3108              		.section	.debug_abbrev,"",%progbits
 3109              	.Ldebug_abbrev0:
 3110 0000 01       		.uleb128 0x1
 3111 0001 0D       		.uleb128 0xd
 3112 0002 00       		.byte	0
 3113 0003 03       		.uleb128 0x3
 3114 0004 0E       		.uleb128 0xe
 3115 0005 3A       		.uleb128 0x3a
 3116 0006 0B       		.uleb128 0xb
 3117 0007 3B       		.uleb128 0x3b
 3118 0008 05       		.uleb128 0x5
 3119 0009 39       		.uleb128 0x39
 3120 000a 0B       		.uleb128 0xb
 3121 000b 49       		.uleb128 0x49
 3122 000c 13       		.uleb128 0x13
 3123 000d 38       		.uleb128 0x38
 3124 000e 0B       		.uleb128 0xb
 3125 000f 00       		.byte	0
 3126 0010 00       		.byte	0
 3127 0011 02       		.uleb128 0x2
 3128 0012 0D       		.uleb128 0xd
 3129 0013 00       		.byte	0
 3130 0014 03       		.uleb128 0x3
 3131 0015 0E       		.uleb128 0xe
ARM GAS  C:\Users\DEVELO~1\AppData\Local\Temp\ccsHIVqO.s 			page 56


 3132 0016 3A       		.uleb128 0x3a
 3133 0017 21       		.uleb128 0x21
 3134 0018 08       		.sleb128 8
 3135 0019 3B       		.uleb128 0x3b
 3136 001a 0B       		.uleb128 0xb
 3137 001b 39       		.uleb128 0x39
 3138 001c 0B       		.uleb128 0xb
 3139 001d 49       		.uleb128 0x49
 3140 001e 13       		.uleb128 0x13
 3141 001f 38       		.uleb128 0x38
 3142 0020 0B       		.uleb128 0xb
 3143 0021 00       		.byte	0
 3144 0022 00       		.byte	0
 3145 0023 03       		.uleb128 0x3
 3146 0024 0D       		.uleb128 0xd
 3147 0025 00       		.byte	0
 3148 0026 03       		.uleb128 0x3
 3149 0027 08       		.uleb128 0x8
 3150 0028 3A       		.uleb128 0x3a
 3151 0029 0B       		.uleb128 0xb
 3152 002a 3B       		.uleb128 0x3b
 3153 002b 05       		.uleb128 0x5
 3154 002c 39       		.uleb128 0x39
 3155 002d 0B       		.uleb128 0xb
 3156 002e 49       		.uleb128 0x49
 3157 002f 13       		.uleb128 0x13
 3158 0030 38       		.uleb128 0x38
 3159 0031 0B       		.uleb128 0xb
 3160 0032 00       		.byte	0
 3161 0033 00       		.byte	0
 3162 0034 04       		.uleb128 0x4
 3163 0035 05       		.uleb128 0x5
 3164 0036 00       		.byte	0
 3165 0037 49       		.uleb128 0x49
 3166 0038 13       		.uleb128 0x13
 3167 0039 00       		.byte	0
 3168 003a 00       		.byte	0
 3169 003b 05       		.uleb128 0x5
 3170 003c 24       		.uleb128 0x24
 3171 003d 00       		.byte	0
 3172 003e 0B       		.uleb128 0xb
 3173 003f 0B       		.uleb128 0xb
 3174 0040 3E       		.uleb128 0x3e
 3175 0041 0B       		.uleb128 0xb
 3176 0042 03       		.uleb128 0x3
 3177 0043 0E       		.uleb128 0xe
 3178 0044 00       		.byte	0
 3179 0045 00       		.byte	0
 3180 0046 06       		.uleb128 0x6
 3181 0047 0F       		.uleb128 0xf
 3182 0048 00       		.byte	0
 3183 0049 0B       		.uleb128 0xb
 3184 004a 21       		.uleb128 0x21
 3185 004b 04       		.sleb128 4
 3186 004c 49       		.uleb128 0x49
 3187 004d 13       		.uleb128 0x13
 3188 004e 00       		.byte	0
ARM GAS  C:\Users\DEVELO~1\AppData\Local\Temp\ccsHIVqO.s 			page 57


 3189 004f 00       		.byte	0
 3190 0050 07       		.uleb128 0x7
 3191 0051 05       		.uleb128 0x5
 3192 0052 00       		.byte	0
 3193 0053 03       		.uleb128 0x3
 3194 0054 0E       		.uleb128 0xe
 3195 0055 3A       		.uleb128 0x3a
 3196 0056 21       		.uleb128 0x21
 3197 0057 02       		.sleb128 2
 3198 0058 3B       		.uleb128 0x3b
 3199 0059 0B       		.uleb128 0xb
 3200 005a 39       		.uleb128 0x39
 3201 005b 0B       		.uleb128 0xb
 3202 005c 49       		.uleb128 0x49
 3203 005d 13       		.uleb128 0x13
 3204 005e 02       		.uleb128 0x2
 3205 005f 18       		.uleb128 0x18
 3206 0060 00       		.byte	0
 3207 0061 00       		.byte	0
 3208 0062 08       		.uleb128 0x8
 3209 0063 16       		.uleb128 0x16
 3210 0064 00       		.byte	0
 3211 0065 03       		.uleb128 0x3
 3212 0066 0E       		.uleb128 0xe
 3213 0067 3A       		.uleb128 0x3a
 3214 0068 0B       		.uleb128 0xb
 3215 0069 3B       		.uleb128 0x3b
 3216 006a 0B       		.uleb128 0xb
 3217 006b 39       		.uleb128 0x39
 3218 006c 0B       		.uleb128 0xb
 3219 006d 49       		.uleb128 0x49
 3220 006e 13       		.uleb128 0x13
 3221 006f 00       		.byte	0
 3222 0070 00       		.byte	0
 3223 0071 09       		.uleb128 0x9
 3224 0072 0D       		.uleb128 0xd
 3225 0073 00       		.byte	0
 3226 0074 03       		.uleb128 0x3
 3227 0075 0E       		.uleb128 0xe
 3228 0076 3A       		.uleb128 0x3a
 3229 0077 21       		.uleb128 0x21
 3230 0078 06       		.sleb128 6
 3231 0079 3B       		.uleb128 0x3b
 3232 007a 05       		.uleb128 0x5
 3233 007b 39       		.uleb128 0x39
 3234 007c 0B       		.uleb128 0xb
 3235 007d 49       		.uleb128 0x49
 3236 007e 13       		.uleb128 0x13
 3237 007f 38       		.uleb128 0x38
 3238 0080 05       		.uleb128 0x5
 3239 0081 00       		.byte	0
 3240 0082 00       		.byte	0
 3241 0083 0A       		.uleb128 0xa
 3242 0084 05       		.uleb128 0x5
 3243 0085 00       		.byte	0
 3244 0086 03       		.uleb128 0x3
 3245 0087 0E       		.uleb128 0xe
ARM GAS  C:\Users\DEVELO~1\AppData\Local\Temp\ccsHIVqO.s 			page 58


 3246 0088 3A       		.uleb128 0x3a
 3247 0089 0B       		.uleb128 0xb
 3248 008a 3B       		.uleb128 0x3b
 3249 008b 05       		.uleb128 0x5
 3250 008c 39       		.uleb128 0x39
 3251 008d 0B       		.uleb128 0xb
 3252 008e 49       		.uleb128 0x49
 3253 008f 13       		.uleb128 0x13
 3254 0090 02       		.uleb128 0x2
 3255 0091 18       		.uleb128 0x18
 3256 0092 00       		.byte	0
 3257 0093 00       		.byte	0
 3258 0094 0B       		.uleb128 0xb
 3259 0095 26       		.uleb128 0x26
 3260 0096 00       		.byte	0
 3261 0097 49       		.uleb128 0x49
 3262 0098 13       		.uleb128 0x13
 3263 0099 00       		.byte	0
 3264 009a 00       		.byte	0
 3265 009b 0C       		.uleb128 0xc
 3266 009c 16       		.uleb128 0x16
 3267 009d 00       		.byte	0
 3268 009e 03       		.uleb128 0x3
 3269 009f 0E       		.uleb128 0xe
 3270 00a0 3A       		.uleb128 0x3a
 3271 00a1 0B       		.uleb128 0xb
 3272 00a2 3B       		.uleb128 0x3b
 3273 00a3 05       		.uleb128 0x5
 3274 00a4 39       		.uleb128 0x39
 3275 00a5 0B       		.uleb128 0xb
 3276 00a6 49       		.uleb128 0x49
 3277 00a7 13       		.uleb128 0x13
 3278 00a8 00       		.byte	0
 3279 00a9 00       		.byte	0
 3280 00aa 0D       		.uleb128 0xd
 3281 00ab 01       		.uleb128 0x1
 3282 00ac 01       		.byte	0x1
 3283 00ad 49       		.uleb128 0x49
 3284 00ae 13       		.uleb128 0x13
 3285 00af 01       		.uleb128 0x1
 3286 00b0 13       		.uleb128 0x13
 3287 00b1 00       		.byte	0
 3288 00b2 00       		.byte	0
 3289 00b3 0E       		.uleb128 0xe
 3290 00b4 21       		.uleb128 0x21
 3291 00b5 00       		.byte	0
 3292 00b6 49       		.uleb128 0x49
 3293 00b7 13       		.uleb128 0x13
 3294 00b8 2F       		.uleb128 0x2f
 3295 00b9 0B       		.uleb128 0xb
 3296 00ba 00       		.byte	0
 3297 00bb 00       		.byte	0
 3298 00bc 0F       		.uleb128 0xf
 3299 00bd 13       		.uleb128 0x13
 3300 00be 01       		.byte	0x1
 3301 00bf 0B       		.uleb128 0xb
 3302 00c0 0B       		.uleb128 0xb
ARM GAS  C:\Users\DEVELO~1\AppData\Local\Temp\ccsHIVqO.s 			page 59


 3303 00c1 3A       		.uleb128 0x3a
 3304 00c2 0B       		.uleb128 0xb
 3305 00c3 3B       		.uleb128 0x3b
 3306 00c4 05       		.uleb128 0x5
 3307 00c5 39       		.uleb128 0x39
 3308 00c6 21       		.uleb128 0x21
 3309 00c7 09       		.sleb128 9
 3310 00c8 01       		.uleb128 0x1
 3311 00c9 13       		.uleb128 0x13
 3312 00ca 00       		.byte	0
 3313 00cb 00       		.byte	0
 3314 00cc 10       		.uleb128 0x10
 3315 00cd 2E       		.uleb128 0x2e
 3316 00ce 01       		.byte	0x1
 3317 00cf 03       		.uleb128 0x3
 3318 00d0 0E       		.uleb128 0xe
 3319 00d1 3A       		.uleb128 0x3a
 3320 00d2 21       		.uleb128 0x21
 3321 00d3 02       		.sleb128 2
 3322 00d4 3B       		.uleb128 0x3b
 3323 00d5 0B       		.uleb128 0xb
 3324 00d6 39       		.uleb128 0x39
 3325 00d7 0B       		.uleb128 0xb
 3326 00d8 27       		.uleb128 0x27
 3327 00d9 19       		.uleb128 0x19
 3328 00da 49       		.uleb128 0x49
 3329 00db 13       		.uleb128 0x13
 3330 00dc 11       		.uleb128 0x11
 3331 00dd 01       		.uleb128 0x1
 3332 00de 12       		.uleb128 0x12
 3333 00df 06       		.uleb128 0x6
 3334 00e0 40       		.uleb128 0x40
 3335 00e1 18       		.uleb128 0x18
 3336 00e2 7A       		.uleb128 0x7a
 3337 00e3 19       		.uleb128 0x19
 3338 00e4 01       		.uleb128 0x1
 3339 00e5 13       		.uleb128 0x13
 3340 00e6 00       		.byte	0
 3341 00e7 00       		.byte	0
 3342 00e8 11       		.uleb128 0x11
 3343 00e9 28       		.uleb128 0x28
 3344 00ea 00       		.byte	0
 3345 00eb 03       		.uleb128 0x3
 3346 00ec 0E       		.uleb128 0xe
 3347 00ed 1C       		.uleb128 0x1c
 3348 00ee 0B       		.uleb128 0xb
 3349 00ef 00       		.byte	0
 3350 00f0 00       		.byte	0
 3351 00f1 12       		.uleb128 0x12
 3352 00f2 0D       		.uleb128 0xd
 3353 00f3 00       		.byte	0
 3354 00f4 03       		.uleb128 0x3
 3355 00f5 08       		.uleb128 0x8
 3356 00f6 3A       		.uleb128 0x3a
 3357 00f7 21       		.uleb128 0x21
 3358 00f8 08       		.sleb128 8
 3359 00f9 3B       		.uleb128 0x3b
ARM GAS  C:\Users\DEVELO~1\AppData\Local\Temp\ccsHIVqO.s 			page 60


 3360 00fa 0B       		.uleb128 0xb
 3361 00fb 39       		.uleb128 0x39
 3362 00fc 21       		.uleb128 0x21
 3363 00fd 03       		.sleb128 3
 3364 00fe 49       		.uleb128 0x49
 3365 00ff 13       		.uleb128 0x13
 3366 0100 38       		.uleb128 0x38
 3367 0101 0B       		.uleb128 0xb
 3368 0102 00       		.byte	0
 3369 0103 00       		.byte	0
 3370 0104 13       		.uleb128 0x13
 3371 0105 34       		.uleb128 0x34
 3372 0106 00       		.byte	0
 3373 0107 03       		.uleb128 0x3
 3374 0108 0E       		.uleb128 0xe
 3375 0109 3A       		.uleb128 0x3a
 3376 010a 21       		.uleb128 0x21
 3377 010b 02       		.sleb128 2
 3378 010c 3B       		.uleb128 0x3b
 3379 010d 0B       		.uleb128 0xb
 3380 010e 39       		.uleb128 0x39
 3381 010f 0B       		.uleb128 0xb
 3382 0110 49       		.uleb128 0x49
 3383 0111 13       		.uleb128 0x13
 3384 0112 02       		.uleb128 0x2
 3385 0113 18       		.uleb128 0x18
 3386 0114 00       		.byte	0
 3387 0115 00       		.byte	0
 3388 0116 14       		.uleb128 0x14
 3389 0117 2E       		.uleb128 0x2e
 3390 0118 01       		.byte	0x1
 3391 0119 3F       		.uleb128 0x3f
 3392 011a 19       		.uleb128 0x19
 3393 011b 03       		.uleb128 0x3
 3394 011c 0E       		.uleb128 0xe
 3395 011d 3A       		.uleb128 0x3a
 3396 011e 0B       		.uleb128 0xb
 3397 011f 3B       		.uleb128 0x3b
 3398 0120 05       		.uleb128 0x5
 3399 0121 39       		.uleb128 0x39
 3400 0122 21       		.uleb128 0x21
 3401 0123 08       		.sleb128 8
 3402 0124 27       		.uleb128 0x27
 3403 0125 19       		.uleb128 0x19
 3404 0126 3C       		.uleb128 0x3c
 3405 0127 19       		.uleb128 0x19
 3406 0128 01       		.uleb128 0x1
 3407 0129 13       		.uleb128 0x13
 3408 012a 00       		.byte	0
 3409 012b 00       		.byte	0
 3410 012c 15       		.uleb128 0x15
 3411 012d 34       		.uleb128 0x34
 3412 012e 00       		.byte	0
 3413 012f 03       		.uleb128 0x3
 3414 0130 0E       		.uleb128 0xe
 3415 0131 49       		.uleb128 0x49
 3416 0132 13       		.uleb128 0x13
ARM GAS  C:\Users\DEVELO~1\AppData\Local\Temp\ccsHIVqO.s 			page 61


 3417 0133 34       		.uleb128 0x34
 3418 0134 19       		.uleb128 0x19
 3419 0135 00       		.byte	0
 3420 0136 00       		.byte	0
 3421 0137 16       		.uleb128 0x16
 3422 0138 15       		.uleb128 0x15
 3423 0139 01       		.byte	0x1
 3424 013a 27       		.uleb128 0x27
 3425 013b 19       		.uleb128 0x19
 3426 013c 01       		.uleb128 0x1
 3427 013d 13       		.uleb128 0x13
 3428 013e 00       		.byte	0
 3429 013f 00       		.byte	0
 3430 0140 17       		.uleb128 0x17
 3431 0141 13       		.uleb128 0x13
 3432 0142 01       		.byte	0x1
 3433 0143 03       		.uleb128 0x3
 3434 0144 0E       		.uleb128 0xe
 3435 0145 0B       		.uleb128 0xb
 3436 0146 0B       		.uleb128 0xb
 3437 0147 3A       		.uleb128 0x3a
 3438 0148 21       		.uleb128 0x21
 3439 0149 08       		.sleb128 8
 3440 014a 3B       		.uleb128 0x3b
 3441 014b 0B       		.uleb128 0xb
 3442 014c 39       		.uleb128 0x39
 3443 014d 21       		.uleb128 0x21
 3444 014e 08       		.sleb128 8
 3445 014f 01       		.uleb128 0x1
 3446 0150 13       		.uleb128 0x13
 3447 0151 00       		.byte	0
 3448 0152 00       		.byte	0
 3449 0153 18       		.uleb128 0x18
 3450 0154 2E       		.uleb128 0x2e
 3451 0155 01       		.byte	0x1
 3452 0156 3F       		.uleb128 0x3f
 3453 0157 19       		.uleb128 0x19
 3454 0158 03       		.uleb128 0x3
 3455 0159 0E       		.uleb128 0xe
 3456 015a 3A       		.uleb128 0x3a
 3457 015b 21       		.uleb128 0x21
 3458 015c 02       		.sleb128 2
 3459 015d 3B       		.uleb128 0x3b
 3460 015e 05       		.uleb128 0x5
 3461 015f 39       		.uleb128 0x39
 3462 0160 21       		.uleb128 0x21
 3463 0161 06       		.sleb128 6
 3464 0162 27       		.uleb128 0x27
 3465 0163 19       		.uleb128 0x19
 3466 0164 11       		.uleb128 0x11
 3467 0165 01       		.uleb128 0x1
 3468 0166 12       		.uleb128 0x12
 3469 0167 06       		.uleb128 0x6
 3470 0168 40       		.uleb128 0x40
 3471 0169 18       		.uleb128 0x18
 3472 016a 7A       		.uleb128 0x7a
 3473 016b 19       		.uleb128 0x19
ARM GAS  C:\Users\DEVELO~1\AppData\Local\Temp\ccsHIVqO.s 			page 62


 3474 016c 01       		.uleb128 0x1
 3475 016d 13       		.uleb128 0x13
 3476 016e 00       		.byte	0
 3477 016f 00       		.byte	0
 3478 0170 19       		.uleb128 0x19
 3479 0171 34       		.uleb128 0x34
 3480 0172 00       		.byte	0
 3481 0173 03       		.uleb128 0x3
 3482 0174 0E       		.uleb128 0xe
 3483 0175 3A       		.uleb128 0x3a
 3484 0176 21       		.uleb128 0x21
 3485 0177 02       		.sleb128 2
 3486 0178 3B       		.uleb128 0x3b
 3487 0179 05       		.uleb128 0x5
 3488 017a 39       		.uleb128 0x39
 3489 017b 0B       		.uleb128 0xb
 3490 017c 49       		.uleb128 0x49
 3491 017d 13       		.uleb128 0x13
 3492 017e 02       		.uleb128 0x2
 3493 017f 18       		.uleb128 0x18
 3494 0180 00       		.byte	0
 3495 0181 00       		.byte	0
 3496 0182 1A       		.uleb128 0x1a
 3497 0183 2E       		.uleb128 0x2e
 3498 0184 01       		.byte	0x1
 3499 0185 3F       		.uleb128 0x3f
 3500 0186 19       		.uleb128 0x19
 3501 0187 03       		.uleb128 0x3
 3502 0188 0E       		.uleb128 0xe
 3503 0189 3A       		.uleb128 0x3a
 3504 018a 21       		.uleb128 0x21
 3505 018b 02       		.sleb128 2
 3506 018c 3B       		.uleb128 0x3b
 3507 018d 0B       		.uleb128 0xb
 3508 018e 39       		.uleb128 0x39
 3509 018f 21       		.uleb128 0x21
 3510 0190 06       		.sleb128 6
 3511 0191 27       		.uleb128 0x27
 3512 0192 19       		.uleb128 0x19
 3513 0193 11       		.uleb128 0x11
 3514 0194 01       		.uleb128 0x1
 3515 0195 12       		.uleb128 0x12
 3516 0196 06       		.uleb128 0x6
 3517 0197 40       		.uleb128 0x40
 3518 0198 18       		.uleb128 0x18
 3519 0199 7C       		.uleb128 0x7c
 3520 019a 19       		.uleb128 0x19
 3521 019b 01       		.uleb128 0x1
 3522 019c 13       		.uleb128 0x13
 3523 019d 00       		.byte	0
 3524 019e 00       		.byte	0
 3525 019f 1B       		.uleb128 0x1b
 3526 01a0 11       		.uleb128 0x11
 3527 01a1 01       		.byte	0x1
 3528 01a2 25       		.uleb128 0x25
 3529 01a3 0E       		.uleb128 0xe
 3530 01a4 13       		.uleb128 0x13
ARM GAS  C:\Users\DEVELO~1\AppData\Local\Temp\ccsHIVqO.s 			page 63


 3531 01a5 0B       		.uleb128 0xb
 3532 01a6 03       		.uleb128 0x3
 3533 01a7 0E       		.uleb128 0xe
 3534 01a8 1B       		.uleb128 0x1b
 3535 01a9 0E       		.uleb128 0xe
 3536 01aa 55       		.uleb128 0x55
 3537 01ab 17       		.uleb128 0x17
 3538 01ac 11       		.uleb128 0x11
 3539 01ad 01       		.uleb128 0x1
 3540 01ae 10       		.uleb128 0x10
 3541 01af 17       		.uleb128 0x17
 3542 01b0 00       		.byte	0
 3543 01b1 00       		.byte	0
 3544 01b2 1C       		.uleb128 0x1c
 3545 01b3 24       		.uleb128 0x24
 3546 01b4 00       		.byte	0
 3547 01b5 0B       		.uleb128 0xb
 3548 01b6 0B       		.uleb128 0xb
 3549 01b7 3E       		.uleb128 0x3e
 3550 01b8 0B       		.uleb128 0xb
 3551 01b9 03       		.uleb128 0x3
 3552 01ba 08       		.uleb128 0x8
 3553 01bb 00       		.byte	0
 3554 01bc 00       		.byte	0
 3555 01bd 1D       		.uleb128 0x1d
 3556 01be 35       		.uleb128 0x35
 3557 01bf 00       		.byte	0
 3558 01c0 49       		.uleb128 0x49
 3559 01c1 13       		.uleb128 0x13
 3560 01c2 00       		.byte	0
 3561 01c3 00       		.byte	0
 3562 01c4 1E       		.uleb128 0x1e
 3563 01c5 0F       		.uleb128 0xf
 3564 01c6 00       		.byte	0
 3565 01c7 0B       		.uleb128 0xb
 3566 01c8 0B       		.uleb128 0xb
 3567 01c9 00       		.byte	0
 3568 01ca 00       		.byte	0
 3569 01cb 1F       		.uleb128 0x1f
 3570 01cc 13       		.uleb128 0x13
 3571 01cd 01       		.byte	0x1
 3572 01ce 0B       		.uleb128 0xb
 3573 01cf 05       		.uleb128 0x5
 3574 01d0 3A       		.uleb128 0x3a
 3575 01d1 0B       		.uleb128 0xb
 3576 01d2 3B       		.uleb128 0x3b
 3577 01d3 05       		.uleb128 0x5
 3578 01d4 39       		.uleb128 0x39
 3579 01d5 0B       		.uleb128 0xb
 3580 01d6 01       		.uleb128 0x1
 3581 01d7 13       		.uleb128 0x13
 3582 01d8 00       		.byte	0
 3583 01d9 00       		.byte	0
 3584 01da 20       		.uleb128 0x20
 3585 01db 04       		.uleb128 0x4
 3586 01dc 01       		.byte	0x1
 3587 01dd 3E       		.uleb128 0x3e
ARM GAS  C:\Users\DEVELO~1\AppData\Local\Temp\ccsHIVqO.s 			page 64


 3588 01de 0B       		.uleb128 0xb
 3589 01df 0B       		.uleb128 0xb
 3590 01e0 0B       		.uleb128 0xb
 3591 01e1 49       		.uleb128 0x49
 3592 01e2 13       		.uleb128 0x13
 3593 01e3 3A       		.uleb128 0x3a
 3594 01e4 0B       		.uleb128 0xb
 3595 01e5 3B       		.uleb128 0x3b
 3596 01e6 0B       		.uleb128 0xb
 3597 01e7 39       		.uleb128 0x39
 3598 01e8 0B       		.uleb128 0xb
 3599 01e9 01       		.uleb128 0x1
 3600 01ea 13       		.uleb128 0x13
 3601 01eb 00       		.byte	0
 3602 01ec 00       		.byte	0
 3603 01ed 21       		.uleb128 0x21
 3604 01ee 34       		.uleb128 0x34
 3605 01ef 00       		.byte	0
 3606 01f0 03       		.uleb128 0x3
 3607 01f1 0E       		.uleb128 0xe
 3608 01f2 3A       		.uleb128 0x3a
 3609 01f3 0B       		.uleb128 0xb
 3610 01f4 3B       		.uleb128 0x3b
 3611 01f5 0B       		.uleb128 0xb
 3612 01f6 39       		.uleb128 0x39
 3613 01f7 0B       		.uleb128 0xb
 3614 01f8 49       		.uleb128 0x49
 3615 01f9 13       		.uleb128 0x13
 3616 01fa 3F       		.uleb128 0x3f
 3617 01fb 19       		.uleb128 0x19
 3618 01fc 3C       		.uleb128 0x3c
 3619 01fd 19       		.uleb128 0x19
 3620 01fe 00       		.byte	0
 3621 01ff 00       		.byte	0
 3622 0200 22       		.uleb128 0x22
 3623 0201 26       		.uleb128 0x26
 3624 0202 00       		.byte	0
 3625 0203 00       		.byte	0
 3626 0204 00       		.byte	0
 3627 0205 23       		.uleb128 0x23
 3628 0206 34       		.uleb128 0x34
 3629 0207 00       		.byte	0
 3630 0208 47       		.uleb128 0x47
 3631 0209 13       		.uleb128 0x13
 3632 020a 3A       		.uleb128 0x3a
 3633 020b 0B       		.uleb128 0xb
 3634 020c 3B       		.uleb128 0x3b
 3635 020d 0B       		.uleb128 0xb
 3636 020e 39       		.uleb128 0x39
 3637 020f 0B       		.uleb128 0xb
 3638 0210 02       		.uleb128 0x2
 3639 0211 18       		.uleb128 0x18
 3640 0212 00       		.byte	0
 3641 0213 00       		.byte	0
 3642 0214 24       		.uleb128 0x24
 3643 0215 2E       		.uleb128 0x2e
 3644 0216 01       		.byte	0x1
ARM GAS  C:\Users\DEVELO~1\AppData\Local\Temp\ccsHIVqO.s 			page 65


 3645 0217 3F       		.uleb128 0x3f
 3646 0218 19       		.uleb128 0x19
 3647 0219 03       		.uleb128 0x3
 3648 021a 0E       		.uleb128 0xe
 3649 021b 3A       		.uleb128 0x3a
 3650 021c 0B       		.uleb128 0xb
 3651 021d 3B       		.uleb128 0x3b
 3652 021e 05       		.uleb128 0x5
 3653 021f 39       		.uleb128 0x39
 3654 0220 0B       		.uleb128 0xb
 3655 0221 27       		.uleb128 0x27
 3656 0222 19       		.uleb128 0x19
 3657 0223 49       		.uleb128 0x49
 3658 0224 13       		.uleb128 0x13
 3659 0225 3C       		.uleb128 0x3c
 3660 0226 19       		.uleb128 0x19
 3661 0227 01       		.uleb128 0x1
 3662 0228 13       		.uleb128 0x13
 3663 0229 00       		.byte	0
 3664 022a 00       		.byte	0
 3665 022b 25       		.uleb128 0x25
 3666 022c 2E       		.uleb128 0x2e
 3667 022d 01       		.byte	0x1
 3668 022e 3F       		.uleb128 0x3f
 3669 022f 19       		.uleb128 0x19
 3670 0230 03       		.uleb128 0x3
 3671 0231 0E       		.uleb128 0xe
 3672 0232 3A       		.uleb128 0x3a
 3673 0233 0B       		.uleb128 0xb
 3674 0234 3B       		.uleb128 0x3b
 3675 0235 0B       		.uleb128 0xb
 3676 0236 39       		.uleb128 0x39
 3677 0237 0B       		.uleb128 0xb
 3678 0238 27       		.uleb128 0x27
 3679 0239 19       		.uleb128 0x19
 3680 023a 3C       		.uleb128 0x3c
 3681 023b 19       		.uleb128 0x19
 3682 023c 01       		.uleb128 0x1
 3683 023d 13       		.uleb128 0x13
 3684 023e 00       		.byte	0
 3685 023f 00       		.byte	0
 3686 0240 26       		.uleb128 0x26
 3687 0241 2E       		.uleb128 0x2e
 3688 0242 01       		.byte	0x1
 3689 0243 3F       		.uleb128 0x3f
 3690 0244 19       		.uleb128 0x19
 3691 0245 03       		.uleb128 0x3
 3692 0246 0E       		.uleb128 0xe
 3693 0247 3A       		.uleb128 0x3a
 3694 0248 0B       		.uleb128 0xb
 3695 0249 3B       		.uleb128 0x3b
 3696 024a 05       		.uleb128 0x5
 3697 024b 39       		.uleb128 0x39
 3698 024c 0B       		.uleb128 0xb
 3699 024d 27       		.uleb128 0x27
 3700 024e 19       		.uleb128 0x19
 3701 024f 11       		.uleb128 0x11
ARM GAS  C:\Users\DEVELO~1\AppData\Local\Temp\ccsHIVqO.s 			page 66


 3702 0250 01       		.uleb128 0x1
 3703 0251 12       		.uleb128 0x12
 3704 0252 06       		.uleb128 0x6
 3705 0253 40       		.uleb128 0x40
 3706 0254 18       		.uleb128 0x18
 3707 0255 7C       		.uleb128 0x7c
 3708 0256 19       		.uleb128 0x19
 3709 0257 01       		.uleb128 0x1
 3710 0258 13       		.uleb128 0x13
 3711 0259 00       		.byte	0
 3712 025a 00       		.byte	0
 3713 025b 27       		.uleb128 0x27
 3714 025c 34       		.uleb128 0x34
 3715 025d 00       		.byte	0
 3716 025e 03       		.uleb128 0x3
 3717 025f 08       		.uleb128 0x8
 3718 0260 3A       		.uleb128 0x3a
 3719 0261 0B       		.uleb128 0xb
 3720 0262 3B       		.uleb128 0x3b
 3721 0263 0B       		.uleb128 0xb
 3722 0264 39       		.uleb128 0x39
 3723 0265 0B       		.uleb128 0xb
 3724 0266 49       		.uleb128 0x49
 3725 0267 13       		.uleb128 0x13
 3726 0268 02       		.uleb128 0x2
 3727 0269 18       		.uleb128 0x18
 3728 026a 00       		.byte	0
 3729 026b 00       		.byte	0
 3730 026c 28       		.uleb128 0x28
 3731 026d 2E       		.uleb128 0x2e
 3732 026e 00       		.byte	0
 3733 026f 3F       		.uleb128 0x3f
 3734 0270 19       		.uleb128 0x19
 3735 0271 03       		.uleb128 0x3
 3736 0272 0E       		.uleb128 0xe
 3737 0273 3A       		.uleb128 0x3a
 3738 0274 0B       		.uleb128 0xb
 3739 0275 3B       		.uleb128 0x3b
 3740 0276 0B       		.uleb128 0xb
 3741 0277 39       		.uleb128 0x39
 3742 0278 0B       		.uleb128 0xb
 3743 0279 27       		.uleb128 0x27
 3744 027a 19       		.uleb128 0x19
 3745 027b 11       		.uleb128 0x11
 3746 027c 01       		.uleb128 0x1
 3747 027d 12       		.uleb128 0x12
 3748 027e 06       		.uleb128 0x6
 3749 027f 40       		.uleb128 0x40
 3750 0280 18       		.uleb128 0x18
 3751 0281 7C       		.uleb128 0x7c
 3752 0282 19       		.uleb128 0x19
 3753 0283 00       		.byte	0
 3754 0284 00       		.byte	0
 3755 0285 29       		.uleb128 0x29
 3756 0286 2E       		.uleb128 0x2e
 3757 0287 01       		.byte	0x1
 3758 0288 03       		.uleb128 0x3
ARM GAS  C:\Users\DEVELO~1\AppData\Local\Temp\ccsHIVqO.s 			page 67


 3759 0289 0E       		.uleb128 0xe
 3760 028a 3A       		.uleb128 0x3a
 3761 028b 0B       		.uleb128 0xb
 3762 028c 3B       		.uleb128 0x3b
 3763 028d 0B       		.uleb128 0xb
 3764 028e 39       		.uleb128 0x39
 3765 028f 0B       		.uleb128 0xb
 3766 0290 27       		.uleb128 0x27
 3767 0291 19       		.uleb128 0x19
 3768 0292 11       		.uleb128 0x11
 3769 0293 01       		.uleb128 0x1
 3770 0294 12       		.uleb128 0x12
 3771 0295 06       		.uleb128 0x6
 3772 0296 40       		.uleb128 0x40
 3773 0297 18       		.uleb128 0x18
 3774 0298 7C       		.uleb128 0x7c
 3775 0299 19       		.uleb128 0x19
 3776 029a 01       		.uleb128 0x1
 3777 029b 13       		.uleb128 0x13
 3778 029c 00       		.byte	0
 3779 029d 00       		.byte	0
 3780 029e 2A       		.uleb128 0x2a
 3781 029f 2E       		.uleb128 0x2e
 3782 02a0 01       		.byte	0x1
 3783 02a1 03       		.uleb128 0x3
 3784 02a2 0E       		.uleb128 0xe
 3785 02a3 3A       		.uleb128 0x3a
 3786 02a4 0B       		.uleb128 0xb
 3787 02a5 3B       		.uleb128 0x3b
 3788 02a6 05       		.uleb128 0x5
 3789 02a7 39       		.uleb128 0x39
 3790 02a8 0B       		.uleb128 0xb
 3791 02a9 27       		.uleb128 0x27
 3792 02aa 19       		.uleb128 0x19
 3793 02ab 11       		.uleb128 0x11
 3794 02ac 01       		.uleb128 0x1
 3795 02ad 12       		.uleb128 0x12
 3796 02ae 06       		.uleb128 0x6
 3797 02af 40       		.uleb128 0x40
 3798 02b0 18       		.uleb128 0x18
 3799 02b1 7A       		.uleb128 0x7a
 3800 02b2 19       		.uleb128 0x19
 3801 02b3 01       		.uleb128 0x1
 3802 02b4 13       		.uleb128 0x13
 3803 02b5 00       		.byte	0
 3804 02b6 00       		.byte	0
 3805 02b7 2B       		.uleb128 0x2b
 3806 02b8 2E       		.uleb128 0x2e
 3807 02b9 01       		.byte	0x1
 3808 02ba 03       		.uleb128 0x3
 3809 02bb 0E       		.uleb128 0xe
 3810 02bc 3A       		.uleb128 0x3a
 3811 02bd 0B       		.uleb128 0xb
 3812 02be 3B       		.uleb128 0x3b
 3813 02bf 05       		.uleb128 0x5
 3814 02c0 39       		.uleb128 0x39
 3815 02c1 0B       		.uleb128 0xb
ARM GAS  C:\Users\DEVELO~1\AppData\Local\Temp\ccsHIVqO.s 			page 68


 3816 02c2 27       		.uleb128 0x27
 3817 02c3 19       		.uleb128 0x19
 3818 02c4 11       		.uleb128 0x11
 3819 02c5 01       		.uleb128 0x1
 3820 02c6 12       		.uleb128 0x12
 3821 02c7 06       		.uleb128 0x6
 3822 02c8 40       		.uleb128 0x40
 3823 02c9 18       		.uleb128 0x18
 3824 02ca 7A       		.uleb128 0x7a
 3825 02cb 19       		.uleb128 0x19
 3826 02cc 00       		.byte	0
 3827 02cd 00       		.byte	0
 3828 02ce 2C       		.uleb128 0x2c
 3829 02cf 05       		.uleb128 0x5
 3830 02d0 00       		.byte	0
 3831 02d1 03       		.uleb128 0x3
 3832 02d2 08       		.uleb128 0x8
 3833 02d3 3A       		.uleb128 0x3a
 3834 02d4 0B       		.uleb128 0xb
 3835 02d5 3B       		.uleb128 0x3b
 3836 02d6 05       		.uleb128 0x5
 3837 02d7 39       		.uleb128 0x39
 3838 02d8 0B       		.uleb128 0xb
 3839 02d9 49       		.uleb128 0x49
 3840 02da 13       		.uleb128 0x13
 3841 02db 02       		.uleb128 0x2
 3842 02dc 18       		.uleb128 0x18
 3843 02dd 00       		.byte	0
 3844 02de 00       		.byte	0
 3845 02df 00       		.byte	0
 3846              		.section	.debug_aranges,"",%progbits
 3847 0000 84000000 		.4byte	0x84
 3848 0004 0200     		.2byte	0x2
 3849 0006 00000000 		.4byte	.Ldebug_info0
 3850 000a 04       		.byte	0x4
 3851 000b 00       		.byte	0
 3852 000c 0000     		.2byte	0
 3853 000e 0000     		.2byte	0
 3854 0010 00000000 		.4byte	.LFB394
 3855 0014 5C000000 		.4byte	.LFE394-.LFB394
 3856 0018 00000000 		.4byte	.LFB395
 3857 001c 40000000 		.4byte	.LFE395-.LFB395
 3858 0020 00000000 		.4byte	.LFB432
 3859 0024 36000000 		.4byte	.LFE432-.LFB432
 3860 0028 00000000 		.4byte	.LFB433
 3861 002c 40000000 		.4byte	.LFE433-.LFB433
 3862 0030 00000000 		.4byte	.LFB434
 3863 0034 62000000 		.4byte	.LFE434-.LFB434
 3864 0038 00000000 		.4byte	.LFB435
 3865 003c 4C000000 		.4byte	.LFE435-.LFB435
 3866 0040 00000000 		.4byte	.LFB436
 3867 0044 34000000 		.4byte	.LFE436-.LFB436
 3868 0048 00000000 		.4byte	.LFB437
 3869 004c 34000000 		.4byte	.LFE437-.LFB437
 3870 0050 00000000 		.4byte	.LFB438
 3871 0054 2C000000 		.4byte	.LFE438-.LFB438
 3872 0058 00000000 		.4byte	.LFB439
ARM GAS  C:\Users\DEVELO~1\AppData\Local\Temp\ccsHIVqO.s 			page 69


 3873 005c 5C010000 		.4byte	.LFE439-.LFB439
 3874 0060 00000000 		.4byte	.LFB440
 3875 0064 2C010000 		.4byte	.LFE440-.LFB440
 3876 0068 00000000 		.4byte	.LFB441
 3877 006c B6010000 		.4byte	.LFE441-.LFB441
 3878 0070 00000000 		.4byte	.LFB442
 3879 0074 36000000 		.4byte	.LFE442-.LFB442
 3880 0078 00000000 		.4byte	.LFB443
 3881 007c C2000000 		.4byte	.LFE443-.LFB443
 3882 0080 00000000 		.4byte	0
 3883 0084 00000000 		.4byte	0
 3884              		.section	.debug_rnglists,"",%progbits
 3885              	.Ldebug_ranges0:
 3886 0000 61000000 		.4byte	.Ldebug_ranges3-.Ldebug_ranges2
 3887              	.Ldebug_ranges2:
 3888 0004 0500     		.2byte	0x5
 3889 0006 04       		.byte	0x4
 3890 0007 00       		.byte	0
 3891 0008 00000000 		.4byte	0
 3892              	.LLRL0:
 3893 000c 07       		.byte	0x7
 3894 000d 00000000 		.4byte	.LFB394
 3895 0011 5C       		.uleb128 .LFE394-.LFB394
 3896 0012 07       		.byte	0x7
 3897 0013 00000000 		.4byte	.LFB395
 3898 0017 40       		.uleb128 .LFE395-.LFB395
 3899 0018 07       		.byte	0x7
 3900 0019 00000000 		.4byte	.LFB432
 3901 001d 36       		.uleb128 .LFE432-.LFB432
 3902 001e 07       		.byte	0x7
 3903 001f 00000000 		.4byte	.LFB433
 3904 0023 40       		.uleb128 .LFE433-.LFB433
 3905 0024 07       		.byte	0x7
 3906 0025 00000000 		.4byte	.LFB434
 3907 0029 62       		.uleb128 .LFE434-.LFB434
 3908 002a 07       		.byte	0x7
 3909 002b 00000000 		.4byte	.LFB435
 3910 002f 4C       		.uleb128 .LFE435-.LFB435
 3911 0030 07       		.byte	0x7
 3912 0031 00000000 		.4byte	.LFB436
 3913 0035 34       		.uleb128 .LFE436-.LFB436
 3914 0036 07       		.byte	0x7
 3915 0037 00000000 		.4byte	.LFB437
 3916 003b 34       		.uleb128 .LFE437-.LFB437
 3917 003c 07       		.byte	0x7
 3918 003d 00000000 		.4byte	.LFB438
 3919 0041 2C       		.uleb128 .LFE438-.LFB438
 3920 0042 07       		.byte	0x7
 3921 0043 00000000 		.4byte	.LFB439
 3922 0047 DC02     		.uleb128 .LFE439-.LFB439
 3923 0049 07       		.byte	0x7
 3924 004a 00000000 		.4byte	.LFB440
 3925 004e AC02     		.uleb128 .LFE440-.LFB440
 3926 0050 07       		.byte	0x7
 3927 0051 00000000 		.4byte	.LFB441
 3928 0055 B603     		.uleb128 .LFE441-.LFB441
 3929 0057 07       		.byte	0x7
ARM GAS  C:\Users\DEVELO~1\AppData\Local\Temp\ccsHIVqO.s 			page 70


 3930 0058 00000000 		.4byte	.LFB442
 3931 005c 36       		.uleb128 .LFE442-.LFB442
 3932 005d 07       		.byte	0x7
 3933 005e 00000000 		.4byte	.LFB443
 3934 0062 C201     		.uleb128 .LFE443-.LFB443
 3935 0064 00       		.byte	0
 3936              	.Ldebug_ranges3:
 3937              		.section	.debug_line,"",%progbits
 3938              	.Ldebug_line0:
 3939 0000 5B070000 		.section	.debug_str,"MS",%progbits,1
 3939      03005402 
 3939      00000201 
 3939      FB0E0D00 
 3939      01010101 
 3940              	.LASF86:
 3941 0000 5341495F 		.ascii	"SAI_TypeDef\000"
 3941      54797065 
 3941      44656600 
 3942              	.LASF109:
 3943 000c 646D6172 		.ascii	"dmarx\000"
 3943      7800
 3944              	.LASF32:
 3945 0012 504C4C31 		.ascii	"PLL1DIVR\000"
 3945      44495652 
 3945      00
 3946              	.LASF134:
 3947 001b 7361695F 		.ascii	"sai_lld_start_exchange\000"
 3947      6C6C645F 
 3947      73746172 
 3947      745F6578 
 3947      6368616E 
 3948              	.LASF17:
 3949 0032 4D304152 		.ascii	"M0AR\000"
 3949      00
 3950              	.LASF4:
 3951 0037 73697A65 		.ascii	"size_t\000"
 3951      5F7400
 3952              	.LASF104:
 3953 003e 53414944 		.ascii	"SAIDriver\000"
 3953      72697665 
 3953      7200
 3954              	.LASF55:
 3955 0048 41504231 		.ascii	"APB1LRSTR\000"
 3955      4C525354 
 3955      5200
 3956              	.LASF5:
 3957 0052 5F5F7569 		.ascii	"__uint8_t\000"
 3957      6E74385F 
 3957      7400
 3958              	.LASF133:
 3959 005c 7361695F 		.ascii	"sai_lld_stop_exchange\000"
 3959      6C6C645F 
 3959      73746F70 
 3959      5F657863 
 3959      68616E67 
 3960              	.LASF78:
 3961 0072 41504231 		.ascii	"APB1HLPENR\000"
ARM GAS  C:\Users\DEVELO~1\AppData\Local\Temp\ccsHIVqO.s 			page 71


 3961      484C5045 
 3961      4E5200
 3962              	.LASF114:
 3963 007d 72786275 		.ascii	"rxbuf\000"
 3963      6600
 3964              	.LASF101:
 3965 0083 5341495F 		.ascii	"SAI_READY\000"
 3965      52454144 
 3965      5900
 3966              	.LASF74:
 3967 008d 41484232 		.ascii	"AHB2LPENR\000"
 3967      4C50454E 
 3967      5200
 3968              	.LASF97:
 3969 0097 76656374 		.ascii	"vector\000"
 3969      6F7200
 3970              	.LASF154:
 3971 009e 433A5C50 		.ascii	"C:\\PROJET\\ChibiOS project\\ChibiOS_21.11.4\\demos"
 3971      524F4A45 
 3971      545C4368 
 3971      6962694F 
 3971      53207072 
 3972 00cd 5C53544D 		.ascii	"\\STM32\\RT-STM32H743ZI_REV_XY-NUCLEO144\000"
 3972      33325C52 
 3972      542D5354 
 3972      4D333248 
 3972      3734335A 
 3973              	.LASF73:
 3974 00f4 41484231 		.ascii	"AHB1LPENR\000"
 3974      4C50454E 
 3974      5200
 3975              	.LASF100:
 3976 00fe 5341495F 		.ascii	"SAI_STOP\000"
 3976      53544F50 
 3976      00
 3977              	.LASF44:
 3978 0107 43494552 		.ascii	"CIER\000"
 3978      00
 3979              	.LASF53:
 3980 010c 41484234 		.ascii	"AHB4RSTR\000"
 3980      52535452 
 3980      00
 3981              	.LASF40:
 3982 0115 44324343 		.ascii	"D2CCIP1R\000"
 3982      49503152 
 3982      00
 3983              	.LASF1:
 3984 011e 6C6F6E67 		.ascii	"long long int\000"
 3984      206C6F6E 
 3984      6720696E 
 3984      7400
 3985              	.LASF3:
 3986 012c 7369676E 		.ascii	"signed char\000"
 3986      65642063 
 3986      68617200 
 3987              	.LASF51:
 3988 0138 41484231 		.ascii	"AHB1RSTR\000"
ARM GAS  C:\Users\DEVELO~1\AppData\Local\Temp\ccsHIVqO.s 			page 72


 3988      52535452 
 3988      00
 3989              	.LASF121:
 3990 0141 73697A65 		.ascii	"size\000"
 3990      00
 3991              	.LASF12:
 3992 0146 6C6F6E67 		.ascii	"long long unsigned int\000"
 3992      206C6F6E 
 3992      6720756E 
 3992      7369676E 
 3992      65642069 
 3993              	.LASF76:
 3994 015d 41504233 		.ascii	"APB3LPENR\000"
 3994      4C50454E 
 3994      5200
 3995              	.LASF61:
 3996 0167 52455345 		.ascii	"RESERVED11\000"
 3996      52564544 
 3996      313100
 3997              	.LASF71:
 3998 0172 52455345 		.ascii	"RESERVED12\000"
 3998      52564544 
 3998      313200
 3999              	.LASF81:
 4000 017d 52455345 		.ascii	"RESERVED13\000"
 4000      52564544 
 4000      313300
 4001              	.LASF105:
 4002 0188 73746174 		.ascii	"state\000"
 4002      6500
 4003              	.LASF33:
 4004 018e 504C4C31 		.ascii	"PLL1FRACR\000"
 4004      46524143 
 4004      5200
 4005              	.LASF57:
 4006 0198 41504232 		.ascii	"APB2RSTR\000"
 4006      52535452 
 4006      00
 4007              	.LASF117:
 4008 01a1 68616C5F 		.ascii	"hal_sai_driver\000"
 4008      7361695F 
 4008      64726976 
 4008      657200
 4009              	.LASF111:
 4010 01b0 7278646D 		.ascii	"rxdmamode\000"
 4010      616D6F64 
 4010      6500
 4011              	.LASF156:
 4012 01ba 646D6153 		.ascii	"dmaStreamAllocI\000"
 4012      74726561 
 4012      6D416C6C 
 4012      6F634900 
 4013              	.LASF115:
 4014 01ca 62756673 		.ascii	"bufsize\000"
 4014      697A6500 
 4015              	.LASF28:
 4016 01d2 44334346 		.ascii	"D3CFGR\000"
ARM GAS  C:\Users\DEVELO~1\AppData\Local\Temp\ccsHIVqO.s 			page 73


 4016      475200
 4017              	.LASF95:
 4018 01d9 73686966 		.ascii	"shift\000"
 4018      7400
 4019              	.LASF122:
 4020 01df 656E645F 		.ascii	"end_cb\000"
 4020      636200
 4021              	.LASF143:
 4022 01e6 7361695F 		.ascii	"sai_lld_irq_priority\000"
 4022      6C6C645F 
 4022      6972715F 
 4022      7072696F 
 4022      72697479 
 4023              	.LASF22:
 4024 01fb 43525243 		.ascii	"CRRCR\000"
 4024      5200
 4025              	.LASF45:
 4026 0201 43494652 		.ascii	"CIFR\000"
 4026      00
 4027              	.LASF36:
 4028 0206 504C4C33 		.ascii	"PLL3DIVR\000"
 4028      44495652 
 4028      00
 4029              	.LASF10:
 4030 020f 5F5F7569 		.ascii	"__uint32_t\000"
 4030      6E743332 
 4030      5F7400
 4031              	.LASF151:
 4032 021a 6D61736B 		.ascii	"mask\000"
 4032      00
 4033              	.LASF96:
 4034 021f 73656C66 		.ascii	"selfindex\000"
 4034      696E6465 
 4034      7800
 4035              	.LASF42:
 4036 0229 44334343 		.ascii	"D3CCIPR\000"
 4036      49505200 
 4037              	.LASF46:
 4038 0231 43494352 		.ascii	"CICR\000"
 4038      00
 4039              	.LASF35:
 4040 0236 504C4C32 		.ascii	"PLL2FRACR\000"
 4040      46524143 
 4040      5200
 4041              	.LASF141:
 4042 0240 7361695F 		.ascii	"sai_lld_start\000"
 4042      6C6C645F 
 4042      73746172 
 4042      7400
 4043              	.LASF108:
 4044 024e 626C6F63 		.ascii	"block\000"
 4044      6B00
 4045              	.LASF0:
 4046 0254 756E7369 		.ascii	"unsigned int\000"
 4046      676E6564 
 4046      20696E74 
 4046      00
ARM GAS  C:\Users\DEVELO~1\AppData\Local\Temp\ccsHIVqO.s 			page 74


 4047              	.LASF113:
 4048 0261 74786275 		.ascii	"txbuf\000"
 4048      6600
 4049              	.LASF92:
 4050 0267 73746D33 		.ascii	"stm32_dmaisr_t\000"
 4050      325F646D 
 4050      61697372 
 4050      5F7400
 4051              	.LASF11:
 4052 0276 6C6F6E67 		.ascii	"long unsigned int\000"
 4052      20756E73 
 4052      69676E65 
 4052      6420696E 
 4052      7400
 4053              	.LASF82:
 4054 0288 5243435F 		.ascii	"RCC_TypeDef\000"
 4054      54797065 
 4054      44656600 
 4055              	.LASF153:
 4056 0294 2E2E2F2E 		.ascii	"../../../os/hal/ports/STM32/LLD/SAIv1/hal_sai_lld.c"
 4056      2E2F2E2E 
 4056      2F6F732F 
 4056      68616C2F 
 4056      706F7274 
 4057 02c7 00       		.ascii	"\000"
 4058              	.LASF131:
 4059 02c8 7361694F 		.ascii	"saiObjectInit\000"
 4059      626A6563 
 4059      74496E69 
 4059      7400
 4060              	.LASF8:
 4061 02d6 73686F72 		.ascii	"short unsigned int\000"
 4061      7420756E 
 4061      7369676E 
 4061      65642069 
 4061      6E7400
 4062              	.LASF30:
 4063 02e9 504C4C43 		.ascii	"PLLCKSELR\000"
 4063      4B53454C 
 4063      5200
 4064              	.LASF21:
 4065 02f3 48534943 		.ascii	"HSICFGR\000"
 4065      46475200 
 4066              	.LASF152:
 4067 02fb 474E5520 		.ascii	"GNU C17 11.3.1 20220712 -mcpu=cortex-m7 -mthumb -mf"
 4067      43313720 
 4067      31312E33 
 4067      2E312032 
 4067      30323230 
 4068 032e 6C6F6174 		.ascii	"loat-abi=soft -march=armv7e-m -ggdb -O0 -ffunction-"
 4068      2D616269 
 4068      3D736F66 
 4068      74202D6D 
 4068      61726368 
 4069 0361 73656374 		.ascii	"sections -fdata-sections -fno-common\000"
 4069      696F6E73 
 4069      202D6664 
ARM GAS  C:\Users\DEVELO~1\AppData\Local\Temp\ccsHIVqO.s 			page 75


 4069      6174612D 
 4069      73656374 
 4070              	.LASF50:
 4071 0386 41484233 		.ascii	"AHB3RSTR\000"
 4071      52535452 
 4071      00
 4072              	.LASF68:
 4073 038f 41504231 		.ascii	"APB1HENR\000"
 4073      48454E52 
 4073      00
 4074              	.LASF41:
 4075 0398 44324343 		.ascii	"D2CCIP2R\000"
 4075      49503252 
 4075      00
 4076              	.LASF142:
 4077 03a1 7361695F 		.ascii	"sai_lld_dma_priority\000"
 4077      6C6C645F 
 4077      646D615F 
 4077      7072696F 
 4077      72697479 
 4078              	.LASF130:
 4079 03b6 646D6153 		.ascii	"dmaStreamFreeI\000"
 4079      74726561 
 4079      6D467265 
 4079      654900
 4080              	.LASF90:
 4081 03c5 5341495F 		.ascii	"SAI_Block_TypeDef\000"
 4081      426C6F63 
 4081      6B5F5479 
 4081      70654465 
 4081      6600
 4082              	.LASF79:
 4083 03d7 41504232 		.ascii	"APB2LPENR\000"
 4083      4C50454E 
 4083      5200
 4084              	.LASF37:
 4085 03e1 504C4C33 		.ascii	"PLL3FRACR\000"
 4085      46524143 
 4085      5200
 4086              	.LASF136:
 4087 03eb 7361695F 		.ascii	"sai_lld_set_buffers\000"
 4087      6C6C645F 
 4087      7365745F 
 4087      62756666 
 4087      65727300 
 4088              	.LASF60:
 4089 03ff 4433414D 		.ascii	"D3AMR\000"
 4089      5200
 4090              	.LASF146:
 4091 0405 7361695F 		.ascii	"sai_lld_dma_request\000"
 4091      6C6C645F 
 4091      646D615F 
 4091      72657175 
 4091      65737400 
 4092              	.LASF58:
 4093 0419 41504234 		.ascii	"APB4RSTR\000"
 4093      52535452 
ARM GAS  C:\Users\DEVELO~1\AppData\Local\Temp\ccsHIVqO.s 			page 76


 4093      00
 4094              	.LASF126:
 4095 0422 73616963 		.ascii	"saicallback_t\000"
 4095      616C6C62 
 4095      61636B5F 
 4095      7400
 4096              	.LASF23:
 4097 0430 43534943 		.ascii	"CSICFGR\000"
 4097      46475200 
 4098              	.LASF107:
 4099 0438 626C6F63 		.ascii	"blockp\000"
 4099      6B7000
 4100              	.LASF70:
 4101 043f 41504234 		.ascii	"APB4ENR\000"
 4101      454E5200 
 4102              	.LASF147:
 4103 0447 7361695F 		.ascii	"sai_lld_is_rx\000"
 4103      6C6C645F 
 4103      69735F72 
 4103      7800
 4104              	.LASF158:
 4105 0455 72636345 		.ascii	"rccEnableAPB2\000"
 4105      6E61626C 
 4105      65415042 
 4105      3200
 4106              	.LASF85:
 4107 0463 50444D44 		.ascii	"PDMDLY\000"
 4107      4C5900
 4108              	.LASF138:
 4109 046a 69735F72 		.ascii	"is_rx\000"
 4109      7800
 4110              	.LASF103:
 4111 0470 73616973 		.ascii	"saistate_t\000"
 4111      74617465 
 4111      5F7400
 4112              	.LASF112:
 4113 047b 7478646D 		.ascii	"txdmamode\000"
 4113      616D6F64 
 4113      6500
 4114              	.LASF125:
 4115 0485 646D615F 		.ascii	"dma_mode\000"
 4115      6D6F6465 
 4115      00
 4116              	.LASF120:
 4117 048e 72785F62 		.ascii	"rx_buffer\000"
 4117      75666665 
 4117      7200
 4118              	.LASF31:
 4119 0498 504C4C43 		.ascii	"PLLCFGR\000"
 4119      46475200 
 4120              	.LASF124:
 4121 04a0 736C6F74 		.ascii	"slotr\000"
 4121      7200
 4122              	.LASF66:
 4123 04a6 41504233 		.ascii	"APB3ENR\000"
 4123      454E5200 
 4124              	.LASF157:
ARM GAS  C:\Users\DEVELO~1\AppData\Local\Temp\ccsHIVqO.s 			page 77


 4125 04ae 7361695F 		.ascii	"sai_lld_init\000"
 4125      6C6C645F 
 4125      696E6974 
 4125      00
 4126              	.LASF65:
 4127 04bb 41484234 		.ascii	"AHB4ENR\000"
 4127      454E5200 
 4128              	.LASF132:
 4129 04c3 7361695F 		.ascii	"sai_dma_error_hook\000"
 4129      646D615F 
 4129      6572726F 
 4129      725F686F 
 4129      6F6B00
 4130              	.LASF110:
 4131 04d6 646D6174 		.ascii	"dmatx\000"
 4131      7800
 4132              	.LASF99:
 4133 04dc 5341495F 		.ascii	"SAI_UNINIT\000"
 4133      554E494E 
 4133      495400
 4134              	.LASF25:
 4135 04e7 52455345 		.ascii	"RESERVED1\000"
 4135      52564544 
 4135      3100
 4136              	.LASF29:
 4137 04f1 52455345 		.ascii	"RESERVED2\000"
 4137      52564544 
 4137      3200
 4138              	.LASF38:
 4139 04fb 52455345 		.ascii	"RESERVED3\000"
 4139      52564544 
 4139      3300
 4140              	.LASF135:
 4141 0505 73616970 		.ascii	"saip\000"
 4141      00
 4142              	.LASF47:
 4143 050a 52455345 		.ascii	"RESERVED5\000"
 4143      52564544 
 4143      3500
 4144              	.LASF49:
 4145 0514 52455345 		.ascii	"RESERVED6\000"
 4145      52564544 
 4145      3600
 4146              	.LASF98:
 4147 051e 73746D33 		.ascii	"stm32_dma_stream_t\000"
 4147      325F646D 
 4147      615F7374 
 4147      7265616D 
 4147      5F7400
 4148              	.LASF59:
 4149 0531 52455345 		.ascii	"RESERVED8\000"
 4149      52564544 
 4149      3800
 4150              	.LASF93:
 4151 053b 73747265 		.ascii	"stream\000"
 4151      616D00
 4152              	.LASF27:
ARM GAS  C:\Users\DEVELO~1\AppData\Local\Temp\ccsHIVqO.s 			page 78


 4153 0542 44324346 		.ascii	"D2CFGR\000"
 4153      475200
 4154              	.LASF91:
 4155 0549 5F426F6F 		.ascii	"_Bool\000"
 4155      6C00
 4156              	.LASF34:
 4157 054f 504C4C32 		.ascii	"PLL2DIVR\000"
 4157      44495652 
 4157      00
 4158              	.LASF6:
 4159 0558 756E7369 		.ascii	"unsigned char\000"
 4159      676E6564 
 4159      20636861 
 4159      7200
 4160              	.LASF155:
 4161 0566 53414944 		.ascii	"SAID2A\000"
 4161      324100
 4162              	.LASF7:
 4163 056d 73686F72 		.ascii	"short int\000"
 4163      7420696E 
 4163      7400
 4164              	.LASF72:
 4165 0577 41484233 		.ascii	"AHB3LPENR\000"
 4165      4C50454E 
 4165      5200
 4166              	.LASF80:
 4167 0581 41504234 		.ascii	"APB4LPENR\000"
 4167      4C50454E 
 4167      5200
 4168              	.LASF144:
 4169 058b 7361695F 		.ascii	"sai_lld_stream_id\000"
 4169      6C6C645F 
 4169      73747265 
 4169      616D5F69 
 4169      6400
 4170              	.LASF139:
 4171 059d 5F5F6675 		.ascii	"__func__\000"
 4171      6E635F5F 
 4171      00
 4172              	.LASF149:
 4173 05a6 7361695F 		.ascii	"sai_lld_serve_dma_interrupt\000"
 4173      6C6C645F 
 4173      73657276 
 4173      655F646D 
 4173      615F696E 
 4174              	.LASF69:
 4175 05c2 41504232 		.ascii	"APB2ENR\000"
 4175      454E5200 
 4176              	.LASF83:
 4177 05ca 52455345 		.ascii	"RESERVED0\000"
 4177      52564544 
 4177      3000
 4178              	.LASF62:
 4179 05d4 41484233 		.ascii	"AHB3ENR\000"
 4179      454E5200 
 4180              	.LASF129:
 4181 05dc 646D6153 		.ascii	"dmaSetRequestSource\000"
ARM GAS  C:\Users\DEVELO~1\AppData\Local\Temp\ccsHIVqO.s 			page 79


 4181      65745265 
 4181      71756573 
 4181      74536F75 
 4181      72636500 
 4182              	.LASF94:
 4183 05f0 69666372 		.ascii	"ifcr\000"
 4183      00
 4184              	.LASF89:
 4185 05f5 434C5246 		.ascii	"CLRFR\000"
 4185      5200
 4186              	.LASF14:
 4187 05fb 75696E74 		.ascii	"uint32_t\000"
 4187      33325F74 
 4187      00
 4188              	.LASF118:
 4189 0604 68616C5F 		.ascii	"hal_sai_config\000"
 4189      7361695F 
 4189      636F6E66 
 4189      696700
 4190              	.LASF39:
 4191 0613 44314343 		.ascii	"D1CCIPR\000"
 4191      49505200 
 4192              	.LASF2:
 4193 061b 6C6F6E67 		.ascii	"long double\000"
 4193      20646F75 
 4193      626C6500 
 4194              	.LASF15:
 4195 0627 63686172 		.ascii	"char\000"
 4195      00
 4196              	.LASF148:
 4197 062c 6D6F6465 		.ascii	"mode\000"
 4197      00
 4198              	.LASF106:
 4199 0631 636F6E66 		.ascii	"config\000"
 4199      696700
 4200              	.LASF52:
 4201 0638 41484232 		.ascii	"AHB2RSTR\000"
 4201      52535452 
 4201      00
 4202              	.LASF75:
 4203 0641 41484234 		.ascii	"AHB4LPENR\000"
 4203      4C50454E 
 4203      5200
 4204              	.LASF16:
 4205 064b 4E445452 		.ascii	"NDTR\000"
 4205      00
 4206              	.LASF19:
 4207 0650 444D415F 		.ascii	"DMA_Stream_TypeDef\000"
 4207      53747265 
 4207      616D5F54 
 4207      79706544 
 4207      656600
 4208              	.LASF102:
 4209 0663 5341495F 		.ascii	"SAI_ACTIVE\000"
 4209      41435449 
 4209      564500
 4210              	.LASF48:
ARM GAS  C:\Users\DEVELO~1\AppData\Local\Temp\ccsHIVqO.s 			page 80


 4211 066e 42444352 		.ascii	"BDCR\000"
 4211      00
 4212              	.LASF128:
 4213 0673 73616932 		.ascii	"sai2_ref\000"
 4213      5F726566 
 4213      00
 4214              	.LASF64:
 4215 067c 41484232 		.ascii	"AHB2ENR\000"
 4215      454E5200 
 4216              	.LASF54:
 4217 0684 41504233 		.ascii	"APB3RSTR\000"
 4217      52535452 
 4217      00
 4218              	.LASF140:
 4219 068d 7361695F 		.ascii	"sai_lld_stop\000"
 4219      6C6C645F 
 4219      73746F70 
 4219      00
 4220              	.LASF43:
 4221 069a 52455345 		.ascii	"RESERVED4\000"
 4221      52564544 
 4221      3400
 4222              	.LASF137:
 4223 06a4 72657175 		.ascii	"request\000"
 4223      65737400 
 4224              	.LASF18:
 4225 06ac 4D314152 		.ascii	"M1AR\000"
 4225      00
 4226              	.LASF119:
 4227 06b1 74785F62 		.ascii	"tx_buffer\000"
 4227      75666665 
 4227      7200
 4228              	.LASF77:
 4229 06bb 41504231 		.ascii	"APB1LLPENR\000"
 4229      4C4C5045 
 4229      4E5200
 4230              	.LASF20:
 4231 06c6 444D414D 		.ascii	"DMAMUX_Channel_TypeDef\000"
 4231      55585F43 
 4231      68616E6E 
 4231      656C5F54 
 4231      79706544 
 4232              	.LASF116:
 4233 06dd 53414943 		.ascii	"SAIConfig\000"
 4233      6F6E6669 
 4233      6700
 4234              	.LASF123:
 4235 06e7 66726372 		.ascii	"frcr\000"
 4235      00
 4236              	.LASF56:
 4237 06ec 41504231 		.ascii	"APB1HRSTR\000"
 4237      48525354 
 4237      5200
 4238              	.LASF13:
 4239 06f6 75696E74 		.ascii	"uint8_t\000"
 4239      385F7400 
 4240              	.LASF145:
ARM GAS  C:\Users\DEVELO~1\AppData\Local\Temp\ccsHIVqO.s 			page 81


 4241 06fe 666C6167 		.ascii	"flags\000"
 4241      7300
 4242              	.LASF87:
 4243 0704 46524352 		.ascii	"FRCR\000"
 4243      00
 4244              	.LASF150:
 4245 0709 72636344 		.ascii	"rccDisableAPB2\000"
 4245      69736162 
 4245      6C654150 
 4245      423200
 4246              	.LASF84:
 4247 0718 50444D43 		.ascii	"PDMCR\000"
 4247      5200
 4248              	.LASF63:
 4249 071e 41484231 		.ascii	"AHB1ENR\000"
 4249      454E5200 
 4250              	.LASF88:
 4251 0726 534C4F54 		.ascii	"SLOTR\000"
 4251      5200
 4252              	.LASF127:
 4253 072c 73616931 		.ascii	"sai1_ref\000"
 4253      5F726566 
 4253      00
 4254              	.LASF24:
 4255 0735 43464752 		.ascii	"CFGR\000"
 4255      00
 4256              	.LASF9:
 4257 073a 6C6F6E67 		.ascii	"long int\000"
 4257      20696E74 
 4257      00
 4258              	.LASF67:
 4259 0743 41504231 		.ascii	"APB1LENR\000"
 4259      4C454E52 
 4259      00
 4260              	.LASF26:
 4261 074c 44314346 		.ascii	"D1CFGR\000"
 4261      475200
 4262              		.ident	"GCC: (Arm GNU Toolchain 11.3.Rel1) 11.3.1 20220712"
ARM GAS  C:\Users\DEVELO~1\AppData\Local\Temp\ccsHIVqO.s 			page 82


DEFINED SYMBOLS
                            *ABS*:00000000 hal_sai_lld.c
C:\Users\DEVELO~1\AppData\Local\Temp\ccsHIVqO.s:18     .text.rccEnableAPB2:00000000 $t
C:\Users\DEVELO~1\AppData\Local\Temp\ccsHIVqO.s:23     .text.rccEnableAPB2:00000000 rccEnableAPB2
C:\Users\DEVELO~1\AppData\Local\Temp\ccsHIVqO.s:90     .text.rccEnableAPB2:00000058 $d
C:\Users\DEVELO~1\AppData\Local\Temp\ccsHIVqO.s:95     .text.rccDisableAPB2:00000000 $t
C:\Users\DEVELO~1\AppData\Local\Temp\ccsHIVqO.s:100    .text.rccDisableAPB2:00000000 rccDisableAPB2
C:\Users\DEVELO~1\AppData\Local\Temp\ccsHIVqO.s:153    .text.rccDisableAPB2:0000003c $d
C:\Users\DEVELO~1\AppData\Local\Temp\ccsHIVqO.s:162    .bss.SAID2A:00000000 SAID2A
C:\Users\DEVELO~1\AppData\Local\Temp\ccsHIVqO.s:159    .bss.SAID2A:00000000 $d
C:\Users\DEVELO~1\AppData\Local\Temp\ccsHIVqO.s:165    .bss.sai1_ref:00000000 $d
C:\Users\DEVELO~1\AppData\Local\Temp\ccsHIVqO.s:168    .bss.sai1_ref:00000000 sai1_ref
C:\Users\DEVELO~1\AppData\Local\Temp\ccsHIVqO.s:171    .bss.sai2_ref:00000000 $d
C:\Users\DEVELO~1\AppData\Local\Temp\ccsHIVqO.s:174    .bss.sai2_ref:00000000 sai2_ref
C:\Users\DEVELO~1\AppData\Local\Temp\ccsHIVqO.s:177    .text.sai_lld_is_rx:00000000 $t
C:\Users\DEVELO~1\AppData\Local\Temp\ccsHIVqO.s:182    .text.sai_lld_is_rx:00000000 sai_lld_is_rx
C:\Users\DEVELO~1\AppData\Local\Temp\ccsHIVqO.s:240    .text.sai_lld_dma_request:00000000 $t
C:\Users\DEVELO~1\AppData\Local\Temp\ccsHIVqO.s:245    .text.sai_lld_dma_request:00000000 sai_lld_dma_request
C:\Users\DEVELO~1\AppData\Local\Temp\ccsHIVqO.s:308    .text.sai_lld_dma_request:0000003c $d
C:\Users\DEVELO~1\AppData\Local\Temp\ccsHIVqO.s:313    .text.sai_lld_serve_dma_interrupt:00000000 $t
C:\Users\DEVELO~1\AppData\Local\Temp\ccsHIVqO.s:318    .text.sai_lld_serve_dma_interrupt:00000000 sai_lld_serve_dma_interrupt
C:\Users\DEVELO~1\AppData\Local\Temp\ccsHIVqO.s:398    .text.sai_lld_stream_id:00000000 $t
C:\Users\DEVELO~1\AppData\Local\Temp\ccsHIVqO.s:403    .text.sai_lld_stream_id:00000000 sai_lld_stream_id
C:\Users\DEVELO~1\AppData\Local\Temp\ccsHIVqO.s:476    .text.sai_lld_stream_id:00000048 $d
C:\Users\DEVELO~1\AppData\Local\Temp\ccsHIVqO.s:481    .text.sai_lld_irq_priority:00000000 $t
C:\Users\DEVELO~1\AppData\Local\Temp\ccsHIVqO.s:486    .text.sai_lld_irq_priority:00000000 sai_lld_irq_priority
C:\Users\DEVELO~1\AppData\Local\Temp\ccsHIVqO.s:539    .text.sai_lld_irq_priority:00000030 $d
C:\Users\DEVELO~1\AppData\Local\Temp\ccsHIVqO.s:544    .text.sai_lld_dma_priority:00000000 $t
C:\Users\DEVELO~1\AppData\Local\Temp\ccsHIVqO.s:549    .text.sai_lld_dma_priority:00000000 sai_lld_dma_priority
C:\Users\DEVELO~1\AppData\Local\Temp\ccsHIVqO.s:602    .text.sai_lld_dma_priority:00000030 $d
C:\Users\DEVELO~1\AppData\Local\Temp\ccsHIVqO.s:607    .text.sai_lld_init:00000000 $t
C:\Users\DEVELO~1\AppData\Local\Temp\ccsHIVqO.s:613    .text.sai_lld_init:00000000 sai_lld_init
C:\Users\DEVELO~1\AppData\Local\Temp\ccsHIVqO.s:646    .text.sai_lld_init:00000020 $d
C:\Users\DEVELO~1\AppData\Local\Temp\ccsHIVqO.s:653    .text.sai_lld_start:00000000 $t
C:\Users\DEVELO~1\AppData\Local\Temp\ccsHIVqO.s:659    .text.sai_lld_start:00000000 sai_lld_start
C:\Users\DEVELO~1\AppData\Local\Temp\ccsHIVqO.s:892    .text.sai_lld_start:0000014c $d
C:\Users\DEVELO~1\AppData\Local\Temp\ccsHIVqO.s:900    .text.sai_lld_stop:00000000 $t
C:\Users\DEVELO~1\AppData\Local\Temp\ccsHIVqO.s:906    .text.sai_lld_stop:00000000 sai_lld_stop
C:\Users\DEVELO~1\AppData\Local\Temp\ccsHIVqO.s:1102   .text.sai_lld_stop:00000120 $d
C:\Users\DEVELO~1\AppData\Local\Temp\ccsHIVqO.s:1109   .text.sai_lld_set_buffers:00000000 $t
C:\Users\DEVELO~1\AppData\Local\Temp\ccsHIVqO.s:1115   .text.sai_lld_set_buffers:00000000 sai_lld_set_buffers
C:\Users\DEVELO~1\AppData\Local\Temp\ccsHIVqO.s:1377   .text.sai_lld_start_exchange:00000000 $t
C:\Users\DEVELO~1\AppData\Local\Temp\ccsHIVqO.s:1383   .text.sai_lld_start_exchange:00000000 sai_lld_start_exchange
C:\Users\DEVELO~1\AppData\Local\Temp\ccsHIVqO.s:1438   .text.sai_lld_stop_exchange:00000000 $t
C:\Users\DEVELO~1\AppData\Local\Temp\ccsHIVqO.s:1444   .text.sai_lld_stop_exchange:00000000 sai_lld_stop_exchange

UNDEFINED SYMBOLS
sai_dma_error_hook
saiObjectInit
dmaStreamAllocI
dmaStreamFreeI
dmaSetRequestSource
