ARM GAS  C:\Users\DEVELO~1\AppData\Local\Temp\ccqj5UtW.s 			page 1


   1              		.cpu cortex-m7
   2              		.arch armv7e-m
   3              		.fpu softvfp
   4              		.eabi_attribute 20, 1
   5              		.eabi_attribute 21, 1
   6              		.eabi_attribute 23, 3
   7              		.eabi_attribute 24, 1
   8              		.eabi_attribute 25, 1
   9              		.eabi_attribute 26, 1
  10              		.eabi_attribute 30, 2
  11              		.eabi_attribute 34, 1
  12              		.eabi_attribute 18, 4
  13              		.file	"hal_sdram.c"
  14              		.text
  15              	.Ltext0:
  16              		.cfi_sections	.debug_frame
  17              		.section	.text.sdramInit,"ax",%progbits
  18              		.align	1
  19              		.p2align 4,,15
  20              		.global	sdramInit
  21              		.syntax unified
  22              		.thumb
  23              		.thumb_func
  24              		.type	sdramInit, %function
  25              	sdramInit:
  26              	.LFB432:
  27              		.file 1 "../../../ChibiOS-Contrib-chibios-21.11.x/os/hal/src/hal_sdram.c"
  28              		.loc 1 60 22 view -0
  29              		.cfi_startproc
  30              		@ args = 0, pretend = 0, frame = 0
  31              		@ frame_needed = 0, uses_anonymous_args = 0
  32              		.loc 1 61 3 view .LVU1
  33              		.loc 1 60 22 is_stmt 0 view .LVU2
  34 0000 08B5     		push	{r3, lr}
  35              		.cfi_def_cfa_offset 8
  36              		.cfi_offset 3, -8
  37              		.cfi_offset 14, -4
  38              		.loc 1 61 3 view .LVU3
  39 0002 FFF7FEFF 		bl	fsmcInit
  40              	.LVL0:
  41              		.loc 1 62 3 is_stmt 1 view .LVU4
  42              	.LBB52:
  43              	.LBI52:
  44              		.loc 1 72 6 view .LVU5
  45              	.LBB53:
  46              		.loc 1 74 3 view .LVU6
  47              		.loc 1 74 25 is_stmt 0 view .LVU7
  48 0006 034A     		ldr	r2, .L4
  49              		.loc 1 74 17 view .LVU8
  50 0008 034B     		ldr	r3, .L4+4
  51              		.loc 1 75 18 view .LVU9
  52 000a 0121     		movs	r1, #1
  53              		.loc 1 74 17 view .LVU10
  54 000c 5268     		ldr	r2, [r2, #4]
  55              		.loc 1 75 18 view .LVU11
  56 000e 1970     		strb	r1, [r3]
  57              		.loc 1 74 17 view .LVU12
ARM GAS  C:\Users\DEVELO~1\AppData\Local\Temp\ccqj5UtW.s 			page 2


  58 0010 5A60     		str	r2, [r3, #4]
  59              		.loc 1 75 3 is_stmt 1 view .LVU13
  60              	.LVL1:
  61              		.loc 1 75 3 is_stmt 0 view .LVU14
  62              	.LBE53:
  63              	.LBE52:
  64              		.loc 1 63 1 view .LVU15
  65 0012 08BD     		pop	{r3, pc}
  66              	.L5:
  67              		.align	2
  68              	.L4:
  69 0014 00000000 		.word	FSMCD1
  70 0018 00000000 		.word	SDRAMD1
  71              		.cfi_endproc
  72              	.LFE432:
  73              		.size	sdramInit, .-sdramInit
  74              		.section	.text.sdramObjectInit,"ax",%progbits
  75              		.align	1
  76              		.p2align 4,,15
  77              		.global	sdramObjectInit
  78              		.syntax unified
  79              		.thumb
  80              		.thumb_func
  81              		.type	sdramObjectInit, %function
  82              	sdramObjectInit:
  83              	.LVL2:
  84              	.LFB433:
  85              		.loc 1 72 43 is_stmt 1 view -0
  86              		.cfi_startproc
  87              		@ args = 0, pretend = 0, frame = 0
  88              		@ frame_needed = 0, uses_anonymous_args = 0
  89              		@ link register save eliminated.
  90              		.loc 1 74 3 view .LVU17
  91              		.loc 1 74 25 is_stmt 0 view .LVU18
  92 0000 024B     		ldr	r3, .L7
  93              		.loc 1 75 18 view .LVU19
  94 0002 0122     		movs	r2, #1
  95              		.loc 1 74 17 view .LVU20
  96 0004 5B68     		ldr	r3, [r3, #4]
  97              		.loc 1 75 18 view .LVU21
  98 0006 0270     		strb	r2, [r0]
  99              		.loc 1 74 17 view .LVU22
 100 0008 4360     		str	r3, [r0, #4]
 101              		.loc 1 75 3 is_stmt 1 view .LVU23
 102              		.loc 1 76 1 is_stmt 0 view .LVU24
 103 000a 7047     		bx	lr
 104              	.L8:
 105              		.align	2
 106              	.L7:
 107 000c 00000000 		.word	FSMCD1
 108              		.cfi_endproc
 109              	.LFE433:
 110              		.size	sdramObjectInit, .-sdramObjectInit
 111              		.section	.text.sdramStart,"ax",%progbits
 112              		.align	1
 113              		.p2align 4,,15
 114              		.global	sdramStart
ARM GAS  C:\Users\DEVELO~1\AppData\Local\Temp\ccqj5UtW.s 			page 3


 115              		.syntax unified
 116              		.thumb
 117              		.thumb_func
 118              		.type	sdramStart, %function
 119              	sdramStart:
 120              	.LVL3:
 121              	.LFB434:
 122              		.loc 1 86 65 is_stmt 1 view -0
 123              		.cfi_startproc
 124              		@ args = 0, pretend = 0, frame = 8
 125              		@ frame_needed = 0, uses_anonymous_args = 0
 126              		.loc 1 88 3 view .LVU26
 127              		.loc 1 88 3 view .LVU27
 128              		.loc 1 88 3 view .LVU28
 129              		.loc 1 90 3 view .LVU29
 130              		.loc 1 90 13 is_stmt 0 view .LVU30
 131 0000 0C4B     		ldr	r3, .L13
 132              		.loc 1 86 65 view .LVU31
 133 0002 10B5     		push	{r4, lr}
 134              		.cfi_def_cfa_offset 8
 135              		.cfi_offset 4, -8
 136              		.cfi_offset 14, -4
 137              		.loc 1 90 6 view .LVU32
 138 0004 1A78     		ldrb	r2, [r3]	@ zero_extendqisi2
 139              		.loc 1 86 65 view .LVU33
 140 0006 82B0     		sub	sp, sp, #8
 141              		.cfi_def_cfa_offset 16
 142              		.loc 1 86 65 view .LVU34
 143 0008 0446     		mov	r4, r0
 144              		.loc 1 90 6 view .LVU35
 145 000a 012A     		cmp	r2, #1
 146 000c 0CD0     		beq	.L12
 147              	.LVL4:
 148              	.L10:
 149              		.loc 1 93 3 is_stmt 1 view .LVU36
 150              	.LBB54:
 151              	.LBI54:
 152              		.file 2 "../../../os/hal/osal/rt-nil/osal.h"
 153              		.loc 2 573 20 view .LVU37
 154              		.loc 2 575 3 view .LVU38
 155              	.LBB55:
 156              	.LBI55:
 157              		.file 3 "../../../os/rt/include/chsys.h"
 158              		.loc 3 407 20 view .LVU39
 159              		.loc 3 409 3 view .LVU40
 160              	.LBB56:
 161              	.LBI56:
 162              		.file 4 "../../../os/common/ports/ARMv7-M/chcore.h"
 163              		.loc 4 823 27 view .LVU41
 164              		.loc 4 831 3 view .LVU42
 165              	.LBB57:
 166              	.LBI57:
 167              		.file 5 "../../../os/common/ext/ARM/CMSIS/Core/Include/cmsis_gcc.h"
 168              		.loc 5 491 27 view .LVU43
 169              	.LBB58:
 170              		.loc 5 493 3 view .LVU44
 171 000e 3023     		movs	r3, #48
ARM GAS  C:\Users\DEVELO~1\AppData\Local\Temp\ccqj5UtW.s 			page 4


 172              		.syntax unified
 173              	@ 493 "../../../os/common/ext/ARM/CMSIS/Core/Include/cmsis_gcc.h" 1
 174 0010 83F31188 		MSR basepri, r3
 175              	@ 0 "" 2
 176              	.LVL5:
 177              		.loc 5 493 3 is_stmt 0 view .LVU45
 178              		.thumb
 179              		.syntax unified
 180              	.LBE58:
 181              	.LBE57:
 182              	.LBE56:
 183              		.loc 3 410 35 is_stmt 1 view .LVU46
 184              		.loc 3 411 21 view .LVU47
 185              	.LBE55:
 186              	.LBE54:
 187              		.loc 1 94 3 view .LVU48
 188              		.loc 1 94 3 view .LVU49
 189              		.loc 1 94 3 view .LVU50
 190              		.loc 1 96 3 view .LVU51
 191 0014 2046     		mov	r0, r4
 192 0016 FFF7FEFF 		bl	sdram_lld_start
 193              	.LVL6:
 194              		.loc 1 97 3 view .LVU52
 195              		.loc 1 97 17 is_stmt 0 view .LVU53
 196 001a 0222     		movs	r2, #2
 197              	.LBB59:
 198              	.LBB60:
 199              	.LBB61:
 200              	.LBB62:
 201              	.LBB63:
 202              	.LBB64:
 203              		.loc 5 493 3 view .LVU54
 204 001c 0023     		movs	r3, #0
 205              	.LBE64:
 206              	.LBE63:
 207              	.LBE62:
 208              	.LBE61:
 209              	.LBE60:
 210              	.LBE59:
 211              		.loc 1 97 17 view .LVU55
 212 001e 2270     		strb	r2, [r4]
 213              		.loc 1 98 3 is_stmt 1 view .LVU56
 214              	.LBB70:
 215              	.LBI59:
 216              		.loc 2 584 20 view .LVU57
 217              		.loc 2 586 3 view .LVU58
 218              	.LBB69:
 219              	.LBI60:
 220              		.loc 3 421 20 view .LVU59
 221              	.LBB68:
 222              		.loc 3 423 23 view .LVU60
 223              		.loc 3 424 34 view .LVU61
 224              		.loc 3 430 3 view .LVU62
 225              		.loc 3 430 3 view .LVU63
 226              		.loc 3 430 3 view .LVU64
 227              		.loc 3 434 3 view .LVU65
 228              	.LBB67:
ARM GAS  C:\Users\DEVELO~1\AppData\Local\Temp\ccqj5UtW.s 			page 5


 229              	.LBI62:
 230              		.loc 4 847 27 view .LVU66
 231              		.loc 4 850 3 view .LVU67
 232              	.LVL7:
 233              	.LBB66:
 234              	.LBI63:
 235              		.loc 5 491 27 view .LVU68
 236              	.LBB65:
 237              		.loc 5 493 3 view .LVU69
 238              		.syntax unified
 239              	@ 493 "../../../os/common/ext/ARM/CMSIS/Core/Include/cmsis_gcc.h" 1
 240 0020 83F31188 		MSR basepri, r3
 241              	@ 0 "" 2
 242              	.LVL8:
 243              		.loc 5 493 3 is_stmt 0 view .LVU70
 244              		.thumb
 245              		.syntax unified
 246              	.LBE65:
 247              	.LBE66:
 248              	.LBE67:
 249              	.LBE68:
 250              	.LBE69:
 251              	.LBE70:
 252              		.loc 1 99 1 view .LVU71
 253 0024 02B0     		add	sp, sp, #8
 254              		.cfi_remember_state
 255              		.cfi_def_cfa_offset 8
 256              		@ sp needed
 257 0026 10BD     		pop	{r4, pc}
 258              	.LVL9:
 259              	.L12:
 260              		.cfi_restore_state
 261              		.loc 1 91 5 view .LVU72
 262 0028 1846     		mov	r0, r3
 263              	.LVL10:
 264              		.loc 1 91 5 view .LVU73
 265 002a 0191     		str	r1, [sp, #4]
 266              		.loc 1 91 5 is_stmt 1 view .LVU74
 267 002c FFF7FEFF 		bl	fsmcStart
 268              	.LVL11:
 269              		.loc 1 91 5 is_stmt 0 view .LVU75
 270 0030 0199     		ldr	r1, [sp, #4]
 271 0032 ECE7     		b	.L10
 272              	.L14:
 273              		.align	2
 274              	.L13:
 275 0034 00000000 		.word	FSMCD1
 276              		.cfi_endproc
 277              	.LFE434:
 278              		.size	sdramStart, .-sdramStart
 279              		.section	.text.sdramStop,"ax",%progbits
 280              		.align	1
 281              		.p2align 4,,15
 282              		.global	sdramStop
 283              		.syntax unified
 284              		.thumb
 285              		.thumb_func
ARM GAS  C:\Users\DEVELO~1\AppData\Local\Temp\ccqj5UtW.s 			page 6


 286              		.type	sdramStop, %function
 287              	sdramStop:
 288              	.LVL12:
 289              	.LFB435:
 290              		.loc 1 108 37 is_stmt 1 view -0
 291              		.cfi_startproc
 292              		@ args = 0, pretend = 0, frame = 0
 293              		@ frame_needed = 0, uses_anonymous_args = 0
 294              		.loc 1 110 3 view .LVU77
 295              		.loc 1 110 3 view .LVU78
 296              		.loc 1 110 3 view .LVU79
 297              		.loc 1 112 3 view .LVU80
 298              	.LBB71:
 299              	.LBI71:
 300              		.loc 2 573 20 view .LVU81
 301              		.loc 2 575 3 view .LVU82
 302              	.LBB72:
 303              	.LBI72:
 304              		.loc 3 407 20 view .LVU83
 305              		.loc 3 409 3 view .LVU84
 306              	.LBB73:
 307              	.LBI73:
 308              		.loc 4 823 27 view .LVU85
 309              		.loc 4 831 3 view .LVU86
 310              	.LBB74:
 311              	.LBI74:
 312              		.loc 5 491 27 view .LVU87
 313              	.LBB75:
 314              		.loc 5 493 3 view .LVU88
 315              	.LBE75:
 316              	.LBE74:
 317              	.LBE73:
 318              	.LBE72:
 319              	.LBE71:
 320              		.loc 1 108 37 is_stmt 0 view .LVU89
 321 0000 10B5     		push	{r4, lr}
 322              		.cfi_def_cfa_offset 8
 323              		.cfi_offset 4, -8
 324              		.cfi_offset 14, -4
 325              	.LBB84:
 326              	.LBB82:
 327              	.LBB80:
 328              	.LBB78:
 329              	.LBB76:
 330              		.loc 5 493 3 view .LVU90
 331 0002 3023     		movs	r3, #48
 332              	.LBE76:
 333              	.LBE78:
 334              	.LBE80:
 335              	.LBE82:
 336              	.LBE84:
 337              		.loc 1 108 37 view .LVU91
 338 0004 0446     		mov	r4, r0
 339              	.LBB85:
 340              	.LBB83:
 341              	.LBB81:
 342              	.LBB79:
ARM GAS  C:\Users\DEVELO~1\AppData\Local\Temp\ccqj5UtW.s 			page 7


 343              	.LBB77:
 344              		.loc 5 493 3 view .LVU92
 345              		.syntax unified
 346              	@ 493 "../../../os/common/ext/ARM/CMSIS/Core/Include/cmsis_gcc.h" 1
 347 0006 83F31188 		MSR basepri, r3
 348              	@ 0 "" 2
 349              	.LVL13:
 350              		.loc 5 493 3 view .LVU93
 351              		.thumb
 352              		.syntax unified
 353              	.LBE77:
 354              	.LBE79:
 355              	.LBE81:
 356              		.loc 3 410 35 is_stmt 1 view .LVU94
 357              		.loc 3 411 21 view .LVU95
 358              	.LBE83:
 359              	.LBE85:
 360              		.loc 1 113 3 view .LVU96
 361              		.loc 1 113 3 view .LVU97
 362              		.loc 1 113 3 view .LVU98
 363              		.loc 1 115 3 view .LVU99
 364 000a FFF7FEFF 		bl	sdram_lld_stop
 365              	.LVL14:
 366              		.loc 1 116 3 view .LVU100
 367              		.loc 1 116 17 is_stmt 0 view .LVU101
 368 000e 0122     		movs	r2, #1
 369              	.LBB86:
 370              	.LBB87:
 371              	.LBB88:
 372              	.LBB89:
 373              	.LBB90:
 374              	.LBB91:
 375              		.loc 5 493 3 view .LVU102
 376 0010 0023     		movs	r3, #0
 377              	.LBE91:
 378              	.LBE90:
 379              	.LBE89:
 380              	.LBE88:
 381              	.LBE87:
 382              	.LBE86:
 383              		.loc 1 116 17 view .LVU103
 384 0012 2270     		strb	r2, [r4]
 385              		.loc 1 117 3 is_stmt 1 view .LVU104
 386              	.LBB97:
 387              	.LBI86:
 388              		.loc 2 584 20 view .LVU105
 389              		.loc 2 586 3 view .LVU106
 390              	.LBB96:
 391              	.LBI87:
 392              		.loc 3 421 20 view .LVU107
 393              	.LBB95:
 394              		.loc 3 423 23 view .LVU108
 395              		.loc 3 424 34 view .LVU109
 396              		.loc 3 430 3 view .LVU110
 397              		.loc 3 430 3 view .LVU111
 398              		.loc 3 430 3 view .LVU112
 399              		.loc 3 434 3 view .LVU113
ARM GAS  C:\Users\DEVELO~1\AppData\Local\Temp\ccqj5UtW.s 			page 8


 400              	.LBB94:
 401              	.LBI89:
 402              		.loc 4 847 27 view .LVU114
 403              		.loc 4 850 3 view .LVU115
 404              	.LVL15:
 405              	.LBB93:
 406              	.LBI90:
 407              		.loc 5 491 27 view .LVU116
 408              	.LBB92:
 409              		.loc 5 493 3 view .LVU117
 410              		.syntax unified
 411              	@ 493 "../../../os/common/ext/ARM/CMSIS/Core/Include/cmsis_gcc.h" 1
 412 0014 83F31188 		MSR basepri, r3
 413              	@ 0 "" 2
 414              	.LVL16:
 415              		.loc 5 493 3 is_stmt 0 view .LVU118
 416              		.thumb
 417              		.syntax unified
 418              	.LBE92:
 419              	.LBE93:
 420              	.LBE94:
 421              	.LBE95:
 422              	.LBE96:
 423              	.LBE97:
 424              		.loc 1 118 1 view .LVU119
 425 0018 10BD     		pop	{r4, pc}
 426              		.loc 1 118 1 view .LVU120
 427              		.cfi_endproc
 428              	.LFE435:
 429              		.size	sdramStop, .-sdramStop
 430 001a 00BF     		.text
 431              	.Letext0:
 432              		.file 6 "c:\\chibistudio\\tools\\gnu tools arm embedded\\11.3 2022.08\\arm-none-eabi\\include\\mac
 433              		.file 7 "c:\\chibistudio\\tools\\gnu tools arm embedded\\11.3 2022.08\\arm-none-eabi\\include\\sys
 434              		.file 8 "../../../ChibiOS-Contrib-chibios-21.11.x/os/hal/include/hal_fsmc.h"
 435              		.file 9 "../../../ChibiOS-Contrib-chibios-21.11.x/os/hal/include/hal_sdram.h"
 436              		.file 10 "../../../ChibiOS-Contrib-chibios-21.11.x/os/hal/ports/STM32/LLD/FSMCv1/hal_sdram_lld.h"