ARM GAS  C:\Users\DEVELO~1\AppData\Local\Temp\cc7EYVan.s 			page 1


   1              		.cpu cortex-m7
   2              		.arch armv7e-m
   3              		.fpu softvfp
   4              		.eabi_attribute 20, 1
   5              		.eabi_attribute 21, 1
   6              		.eabi_attribute 23, 3
   7              		.eabi_attribute 24, 1
   8              		.eabi_attribute 25, 1
   9              		.eabi_attribute 26, 1
  10              		.eabi_attribute 30, 2
  11              		.eabi_attribute 34, 1
  12              		.eabi_attribute 18, 4
  13              		.file	"hal_lld.c"
  14              		.text
  15              	.Ltext0:
  16              		.cfi_sections	.debug_frame
  17              		.section	.text.hal_lld_init,"ax",%progbits
  18              		.align	1
  19              		.p2align 4,,15
  20              		.global	hal_lld_init
  21              		.syntax unified
  22              		.thumb
  23              		.thumb_func
  24              		.type	hal_lld_init, %function
  25              	hal_lld_init:
  26              	.LFB434:
  27              		.file 1 "../../../os/hal/ports/STM32/STM32H7xx/hal_lld.c"
  28              		.loc 1 150 25 view -0
  29              		.cfi_startproc
  30              		@ args = 0, pretend = 0, frame = 0
  31              		@ frame_needed = 0, uses_anonymous_args = 0
  32              		@ link register save eliminated.
  33              		.loc 1 160 3 view .LVU1
  34              	.LVL0:
  35              	.LBB29:
  36              	.LBI29:
  37              		.file 2 "../../../os/hal/ports/STM32/STM32H7xx/stm32_rcc.h"
  38              		.loc 2 97 22 view .LVU2
  39              	.LBB30:
  40              		.loc 2 100 3 view .LVU3
  41              		.loc 2 100 17 is_stmt 0 view .LVU4
  42 0000 344B     		ldr	r3, .L4
  43              	.LBE30:
  44              	.LBE29:
  45              	.LBB35:
  46              	.LBB36:
  47              		.loc 2 108 17 view .LVU5
  48 0002 4FF0FF31 		mov	r1, #-1
  49              		.loc 2 109 17 view .LVU6
  50 0006 0022     		movs	r2, #0
  51              	.LBE36:
  52              	.LBE35:
  53              	.LBB38:
  54              	.LBB31:
  55              		.loc 2 100 17 view .LVU7
  56 0008 D3F88000 		ldr	r0, [r3, #128]
  57 000c 60F00040 		orn	r0, r0, #-2147483648
ARM GAS  C:\Users\DEVELO~1\AppData\Local\Temp\cc7EYVan.s 			page 2


  58              	.LBE31:
  59              	.LBE38:
  60              		.loc 1 150 25 view .LVU8
  61 0010 30B4     		push	{r4, r5}
  62              		.cfi_def_cfa_offset 8
  63              		.cfi_offset 4, -8
  64              		.cfi_offset 5, -4
  65              	.LBB39:
  66              	.LBB32:
  67              		.loc 2 100 17 view .LVU9
  68 0012 C3F88000 		str	r0, [r3, #128]
  69              		.loc 2 101 3 is_stmt 1 view .LVU10
  70              		.loc 2 101 17 is_stmt 0 view .LVU11
  71 0016 D3F88000 		ldr	r0, [r3, #128]
  72              	.LBE32:
  73              	.LBE39:
  74              	.LBB40:
  75              	.LBB41:
  76              		.loc 2 116 17 view .LVU12
  77 001a 2F4C     		ldr	r4, .L4+4
  78              	.LBE41:
  79              	.LBE40:
  80              	.LBB45:
  81              	.LBB33:
  82              		.loc 2 101 17 view .LVU13
  83 001c 00F00040 		and	r0, r0, #-2147483648
  84              	.LBE33:
  85              	.LBE45:
  86              	.LBB46:
  87              	.LBB42:
  88              		.loc 2 117 17 view .LVU14
  89 0020 2E4D     		ldr	r5, .L4+8
  90              	.LBE42:
  91              	.LBE46:
  92              	.LBB47:
  93              	.LBB34:
  94              		.loc 2 101 17 view .LVU15
  95 0022 C3F88000 		str	r0, [r3, #128]
  96              		.loc 2 102 3 is_stmt 1 view .LVU16
  97 0026 D3F88000 		ldr	r0, [r3, #128]
  98              	.LVL1:
  99              		.loc 2 102 3 is_stmt 0 view .LVU17
 100              	.LBE34:
 101              	.LBE47:
 102              		.loc 1 161 3 is_stmt 1 view .LVU18
 103              	.LBB48:
 104              	.LBI35:
 105              		.loc 2 105 22 view .LVU19
 106              	.LBB37:
 107              		.loc 2 108 3 view .LVU20
 108              		.loc 2 108 17 is_stmt 0 view .LVU21
 109 002a D3F88400 		ldr	r0, [r3, #132]
 110 002e C3F88410 		str	r1, [r3, #132]
 111              		.loc 2 109 3 is_stmt 1 view .LVU22
 112              		.loc 2 109 17 is_stmt 0 view .LVU23
 113 0032 D3F88400 		ldr	r0, [r3, #132]
 114 0036 C3F88420 		str	r2, [r3, #132]
ARM GAS  C:\Users\DEVELO~1\AppData\Local\Temp\cc7EYVan.s 			page 3


 115              		.loc 2 110 3 is_stmt 1 view .LVU24
 116 003a D3F88400 		ldr	r0, [r3, #132]
 117              	.LVL2:
 118              		.loc 2 110 3 is_stmt 0 view .LVU25
 119              	.LBE37:
 120              	.LBE48:
 121              		.loc 1 162 3 is_stmt 1 view .LVU26
 122              	.LBB49:
 123              	.LBI40:
 124              		.loc 2 113 22 view .LVU27
 125              	.LBB43:
 126              		.loc 2 116 3 view .LVU28
 127              		.loc 2 116 17 is_stmt 0 view .LVU29
 128 003e D86F     		ldr	r0, [r3, #124]
 129 0040 2043     		orrs	r0, r0, r4
 130 0042 D867     		str	r0, [r3, #124]
 131              		.loc 2 117 3 is_stmt 1 view .LVU30
 132              		.loc 2 117 17 is_stmt 0 view .LVU31
 133 0044 DC6F     		ldr	r4, [r3, #124]
 134              	.LBE43:
 135              	.LBE49:
 136              	.LBB50:
 137              	.LBB51:
 138              		.loc 2 124 17 view .LVU32
 139 0046 2648     		ldr	r0, .L4+12
 140              	.LBE51:
 141              	.LBE50:
 142              	.LBB53:
 143              	.LBB44:
 144              		.loc 2 117 17 view .LVU33
 145 0048 2C40     		ands	r4, r4, r5
 146 004a DC67     		str	r4, [r3, #124]
 147              		.loc 2 118 3 is_stmt 1 view .LVU34
 148 004c DC6F     		ldr	r4, [r3, #124]
 149              	.LVL3:
 150              		.loc 2 118 3 is_stmt 0 view .LVU35
 151              	.LBE44:
 152              	.LBE53:
 153              		.loc 1 177 3 is_stmt 1 view .LVU36
 154              	.LBB54:
 155              	.LBI50:
 156              		.loc 2 121 22 view .LVU37
 157              	.LBB52:
 158              		.loc 2 124 3 view .LVU38
 159              		.loc 2 124 17 is_stmt 0 view .LVU39
 160 004e D3F88840 		ldr	r4, [r3, #136]
 161 0052 2043     		orrs	r0, r0, r4
 162 0054 C3F88800 		str	r0, [r3, #136]
 163              		.loc 2 125 3 is_stmt 1 view .LVU40
 164              		.loc 2 125 17 is_stmt 0 view .LVU41
 165 0058 D3F88800 		ldr	r0, [r3, #136]
 166 005c C0F30A00 		ubfx	r0, r0, #0, #11
 167 0060 C3F88800 		str	r0, [r3, #136]
 168              		.loc 2 126 3 is_stmt 1 view .LVU42
 169 0064 D3F88800 		ldr	r0, [r3, #136]
 170              	.LVL4:
 171              		.loc 2 126 3 is_stmt 0 view .LVU43
ARM GAS  C:\Users\DEVELO~1\AppData\Local\Temp\cc7EYVan.s 			page 4


 172              	.LBE52:
 173              	.LBE54:
 174              		.loc 1 178 3 is_stmt 1 view .LVU44
 175              	.LBB55:
 176              	.LBI55:
 177              		.loc 2 57 22 view .LVU45
 178              	.LBB56:
 179              		.loc 2 60 3 view .LVU46
 180              		.loc 2 60 18 is_stmt 0 view .LVU47
 181 0068 D3F89000 		ldr	r0, [r3, #144]
 182 006c C3F89010 		str	r1, [r3, #144]
 183              		.loc 2 61 3 is_stmt 1 view .LVU48
 184              		.loc 2 61 18 is_stmt 0 view .LVU49
 185 0070 D3F89000 		ldr	r0, [r3, #144]
 186 0074 C3F89020 		str	r2, [r3, #144]
 187              		.loc 2 62 3 is_stmt 1 view .LVU50
 188 0078 D3F89000 		ldr	r0, [r3, #144]
 189              	.LVL5:
 190              		.loc 2 62 3 is_stmt 0 view .LVU51
 191              	.LBE56:
 192              	.LBE55:
 193              		.loc 1 179 3 is_stmt 1 view .LVU52
 194              	.LBB57:
 195              	.LBI57:
 196              		.loc 2 65 22 view .LVU53
 197              	.LBB58:
 198              		.loc 2 68 3 view .LVU54
 199              		.loc 2 68 18 is_stmt 0 view .LVU55
 200 007c D3F89400 		ldr	r0, [r3, #148]
 201 0080 C3F89410 		str	r1, [r3, #148]
 202              		.loc 2 69 3 is_stmt 1 view .LVU56
 203              		.loc 2 69 18 is_stmt 0 view .LVU57
 204 0084 D3F89400 		ldr	r0, [r3, #148]
 205 0088 C3F89420 		str	r2, [r3, #148]
 206              		.loc 2 70 3 is_stmt 1 view .LVU58
 207 008c D3F89400 		ldr	r0, [r3, #148]
 208              	.LVL6:
 209              		.loc 2 70 3 is_stmt 0 view .LVU59
 210              	.LBE58:
 211              	.LBE57:
 212              		.loc 1 180 3 is_stmt 1 view .LVU60
 213              	.LBB59:
 214              	.LBI59:
 215              		.loc 2 73 22 view .LVU61
 216              	.LBB60:
 217              		.loc 2 76 3 view .LVU62
 218              		.loc 2 76 17 is_stmt 0 view .LVU63
 219 0090 D3F89800 		ldr	r0, [r3, #152]
 220 0094 C3F89810 		str	r1, [r3, #152]
 221              		.loc 2 77 3 is_stmt 1 view .LVU64
 222              		.loc 2 77 17 is_stmt 0 view .LVU65
 223 0098 D3F89800 		ldr	r0, [r3, #152]
 224 009c C3F89820 		str	r2, [r3, #152]
 225              		.loc 2 78 3 is_stmt 1 view .LVU66
 226 00a0 D3F89800 		ldr	r0, [r3, #152]
 227              	.LVL7:
 228              		.loc 2 78 3 is_stmt 0 view .LVU67
ARM GAS  C:\Users\DEVELO~1\AppData\Local\Temp\cc7EYVan.s 			page 5


 229              	.LBE60:
 230              	.LBE59:
 231              		.loc 1 181 3 is_stmt 1 view .LVU68
 232              	.LBB61:
 233              	.LBI61:
 234              		.loc 2 81 22 view .LVU69
 235              	.LBB62:
 236              		.loc 2 84 3 view .LVU70
 237              		.loc 2 84 17 is_stmt 0 view .LVU71
 238 00a4 D3F88C00 		ldr	r0, [r3, #140]
 239 00a8 C3F88C10 		str	r1, [r3, #140]
 240              		.loc 2 85 3 is_stmt 1 view .LVU72
 241              		.loc 2 85 17 is_stmt 0 view .LVU73
 242 00ac D3F88C00 		ldr	r0, [r3, #140]
 243 00b0 C3F88C20 		str	r2, [r3, #140]
 244              		.loc 2 86 3 is_stmt 1 view .LVU74
 245 00b4 D3F88C00 		ldr	r0, [r3, #140]
 246              	.LVL8:
 247              		.loc 2 86 3 is_stmt 0 view .LVU75
 248              	.LBE62:
 249              	.LBE61:
 250              		.loc 1 182 3 is_stmt 1 view .LVU76
 251              	.LBB63:
 252              	.LBI63:
 253              		.loc 2 89 22 view .LVU77
 254              	.LBB64:
 255              		.loc 2 92 3 view .LVU78
 256              		.loc 2 92 17 is_stmt 0 view .LVU79
 257 00b8 D3F89C00 		ldr	r0, [r3, #156]
 258 00bc C3F89C10 		str	r1, [r3, #156]
 259              		.loc 2 93 3 is_stmt 1 view .LVU80
 260              		.loc 2 93 17 is_stmt 0 view .LVU81
 261 00c0 D3F89C10 		ldr	r1, [r3, #156]
 262 00c4 C3F89C20 		str	r2, [r3, #156]
 263              		.loc 2 94 3 is_stmt 1 view .LVU82
 264 00c8 D3F89C30 		ldr	r3, [r3, #156]
 265              	.LVL9:
 266              		.loc 2 94 3 is_stmt 0 view .LVU83
 267              	.LBE64:
 268              	.LBE63:
 269              		.loc 1 197 3 is_stmt 1 view .LVU84
 270              		.loc 1 218 1 is_stmt 0 view .LVU85
 271 00cc 30BC     		pop	{r4, r5}
 272              		.cfi_restore 5
 273              		.cfi_restore 4
 274              		.cfi_def_cfa_offset 0
 275              		.loc 1 197 3 view .LVU86
 276 00ce FFF7FEBF 		b	irqInit
 277              	.LVL10:
 278              	.L5:
 279 00d2 00BF     		.align	2
 280              	.L4:
 281 00d4 00440258 		.word	1476543488
 282 00d8 FFEFFF7F 		.word	2147479551
 283 00dc 00100080 		.word	-2147479552
 284 00e0 00F8FFFF 		.word	-2048
 285              		.cfi_endproc
ARM GAS  C:\Users\DEVELO~1\AppData\Local\Temp\cc7EYVan.s 			page 6


 286              	.LFE434:
 287              		.size	hal_lld_init, .-hal_lld_init
 288              		.section	.text.stm32_clock_init,"ax",%progbits
 289              		.align	1
 290              		.p2align 4,,15
 291              		.global	stm32_clock_init
 292              		.syntax unified
 293              		.thumb
 294              		.thumb_func
 295              		.type	stm32_clock_init, %function
 296              	stm32_clock_init:
 297              	.LFB435:
 298              		.loc 1 227 29 is_stmt 1 view -0
 299              		.cfi_startproc
 300              		@ args = 0, pretend = 0, frame = 0
 301              		@ frame_needed = 0, uses_anonymous_args = 0
 302              		@ link register save eliminated.
 303              		.loc 1 229 3 view .LVU88
 304              		.loc 1 240 3 view .LVU89
 305              	.LBB78:
 306              	.LBB79:
 307              		.loc 2 501 19 is_stmt 0 view .LVU90
 308 0000 6F4B     		ldr	r3, .L44
 309              	.LBE79:
 310              	.LBE78:
 311              	.LBB81:
 312              	.LBB82:
 313              		.loc 1 106 14 view .LVU91
 314 0002 0220     		movs	r0, #2
 315              	.LBE82:
 316              	.LBE81:
 317              		.loc 1 240 58 view .LVU92
 318 0004 6F49     		ldr	r1, .L44+4
 319              	.LBB85:
 320              	.LBB83:
 321              		.loc 1 106 14 view .LVU93
 322 0006 704A     		ldr	r2, .L44+8
 323              	.LBE83:
 324              	.LBE85:
 325              		.loc 1 227 29 view .LVU94
 326 0008 10B4     		push	{r4}
 327              		.cfi_def_cfa_offset 4
 328              		.cfi_offset 4, -4
 329              		.loc 1 240 58 view .LVU95
 330 000a 0124     		movs	r4, #1
 331 000c C1F80841 		str	r4, [r1, #264]
 332              		.loc 1 245 3 is_stmt 1 view .LVU96
 333              	.LVL11:
 334              	.LBB86:
 335              	.LBI78:
 336              		.loc 2 497 22 view .LVU97
 337              	.LBB80:
 338              		.loc 2 501 3 view .LVU98
 339              		.loc 2 501 19 is_stmt 0 view .LVU99
 340 0010 D3F8F410 		ldr	r1, [r3, #244]
 341 0014 0143     		orrs	r1, r1, r0
 342 0016 C3F8F410 		str	r1, [r3, #244]
ARM GAS  C:\Users\DEVELO~1\AppData\Local\Temp\cc7EYVan.s 			page 7


 343              		.loc 2 502 3 is_stmt 1 view .LVU100
 344              		.loc 2 503 5 view .LVU101
 345              		.loc 2 503 23 is_stmt 0 view .LVU102
 346 001a D3F81C11 		ldr	r1, [r3, #284]
 347 001e 0143     		orrs	r1, r1, r0
 348 0020 C3F81C11 		str	r1, [r3, #284]
 349              		.loc 2 508 3 is_stmt 1 view .LVU103
 350 0024 D3F81C31 		ldr	r3, [r3, #284]
 351              	.LVL12:
 352              		.loc 2 508 3 is_stmt 0 view .LVU104
 353              	.LBE80:
 354              	.LBE86:
 355              		.loc 1 248 3 is_stmt 1 view .LVU105
 356              	.LBB87:
 357              	.LBI81:
 358              		.loc 1 98 20 view .LVU106
 359              	.LBB84:
 360              		.loc 1 106 3 view .LVU107
 361              		.loc 1 106 14 is_stmt 0 view .LVU108
 362 0028 D060     		str	r0, [r2, #12]
 363              		.loc 1 107 3 is_stmt 1 view .LVU109
 364              	.L7:
 365              		.loc 1 107 43 view .LVU110
 366              		.loc 1 107 14 is_stmt 0 view .LVU111
 367 002a 5368     		ldr	r3, [r2, #4]
 368              		.loc 1 107 43 view .LVU112
 369 002c 9C04     		lsls	r4, r3, #18
 370 002e FCD5     		bpl	.L7
 371              		.loc 1 110 3 is_stmt 1 view .LVU113
 372              		.loc 1 110 14 is_stmt 0 view .LVU114
 373 0030 6649     		ldr	r1, .L44+12
 374              		.loc 1 111 14 view .LVU115
 375 0032 0123     		movs	r3, #1
 376              		.loc 1 112 14 view .LVU116
 377 0034 664C     		ldr	r4, .L44+16
 378              		.loc 1 113 14 view .LVU117
 379 0036 0020     		movs	r0, #0
 380              		.loc 1 110 14 view .LVU118
 381 0038 1160     		str	r1, [r2]
 382              		.loc 1 111 3 is_stmt 1 view .LVU119
 383              		.loc 1 111 14 is_stmt 0 view .LVU120
 384 003a 9360     		str	r3, [r2, #8]
 385              		.loc 1 112 3 is_stmt 1 view .LVU121
 386              		.loc 1 117 14 is_stmt 0 view .LVU122
 387 003c 4FF44043 		mov	r3, #49152
 388              		.loc 1 127 14 view .LVU123
 389 0040 6149     		ldr	r1, .L44+8
 390              		.loc 1 112 14 view .LVU124
 391 0042 D460     		str	r4, [r2, #12]
 392              		.loc 1 113 3 is_stmt 1 view .LVU125
 393              		.loc 1 113 14 is_stmt 0 view .LVU126
 394 0044 1061     		str	r0, [r2, #16]
 395              		.loc 1 117 3 is_stmt 1 view .LVU127
 396              		.loc 1 117 14 is_stmt 0 view .LVU128
 397 0046 9361     		str	r3, [r2, #24]
 398              		.loc 1 127 3 is_stmt 1 view .LVU129
 399              	.L8:
ARM GAS  C:\Users\DEVELO~1\AppData\Local\Temp\cc7EYVan.s 			page 8


 400              		.loc 1 127 40 view .LVU130
 401              		.loc 1 127 14 is_stmt 0 view .LVU131
 402 0048 8B69     		ldr	r3, [r1, #24]
 403              		.loc 1 127 40 view .LVU132
 404 004a 9804     		lsls	r0, r3, #18
 405 004c FCD5     		bpl	.L8
 406              	.LBE84:
 407              	.LBE87:
 408              		.loc 1 251 3 is_stmt 1 view .LVU133
 409              	.LBB88:
 410              	.LBI88:
 411              		.loc 1 58 20 view .LVU134
 412              	.LBB89:
 413              		.loc 1 61 3 view .LVU135
 414              		.loc 1 61 12 is_stmt 0 view .LVU136
 415 004e 0B68     		ldr	r3, [r1]
 416              		.loc 1 64 11 view .LVU137
 417 0050 5B4A     		ldr	r2, .L44
 418              		.loc 1 61 12 view .LVU138
 419 0052 43F48073 		orr	r3, r3, #256
 420 0056 0B60     		str	r3, [r1]
 421              		.loc 1 64 3 is_stmt 1 view .LVU139
 422              		.loc 1 64 11 is_stmt 0 view .LVU140
 423 0058 136F     		ldr	r3, [r2, #112]
 424              		.loc 1 64 18 view .LVU141
 425 005a 03F44073 		and	r3, r3, #768
 426              		.loc 1 64 6 view .LVU142
 427 005e B3F5807F 		cmp	r3, #256
 428 0062 04D0     		beq	.L9
 429              		.loc 1 66 5 is_stmt 1 view .LVU143
 430              		.loc 1 66 15 is_stmt 0 view .LVU144
 431 0064 4FF48031 		mov	r1, #65536
 432              		.loc 1 67 15 view .LVU145
 433 0068 0023     		movs	r3, #0
 434              		.loc 1 66 15 view .LVU146
 435 006a 1167     		str	r1, [r2, #112]
 436              		.loc 1 67 5 is_stmt 1 view .LVU147
 437              		.loc 1 67 15 is_stmt 0 view .LVU148
 438 006c 1367     		str	r3, [r2, #112]
 439              	.L9:
 440              		.loc 1 76 3 is_stmt 1 view .LVU149
 441              		.loc 1 76 13 is_stmt 0 view .LVU150
 442 006e 544A     		ldr	r2, .L44
 443 0070 136F     		ldr	r3, [r2, #112]
 444 0072 43F01903 		orr	r3, r3, #25
 445 0076 1367     		str	r3, [r2, #112]
 446              		.loc 1 78 3 is_stmt 1 view .LVU151
 447              	.L10:
 448              		.loc 1 78 40 view .LVU152
 449              		.loc 1 78 14 is_stmt 0 view .LVU153
 450 0078 136F     		ldr	r3, [r2, #112]
 451              		.loc 1 78 40 view .LVU154
 452 007a 9907     		lsls	r1, r3, #30
 453 007c FCD5     		bpl	.L10
 454              	.LBE89:
 455              	.LBE88:
 456              		.loc 1 255 3 is_stmt 1 view .LVU155
ARM GAS  C:\Users\DEVELO~1\AppData\Local\Temp\cc7EYVan.s 			page 9


 457              		.loc 1 255 11 is_stmt 0 view .LVU156
 458 007e 1368     		ldr	r3, [r2]
 459              		.loc 1 256 15 view .LVU157
 460 0080 4F49     		ldr	r1, .L44
 461              		.loc 1 255 11 view .LVU158
 462 0082 43F00103 		orr	r3, r3, #1
 463 0086 1360     		str	r3, [r2]
 464              		.loc 1 256 3 is_stmt 1 view .LVU159
 465              	.L11:
 466              		.loc 1 256 10 discriminator 1 view .LVU160
 467              		.loc 1 256 15 is_stmt 0 discriminator 1 view .LVU161
 468 0088 0B68     		ldr	r3, [r1]
 469              		.loc 1 256 10 discriminator 1 view .LVU162
 470 008a 5B07     		lsls	r3, r3, #29
 471 008c FCD5     		bpl	.L11
 472              		.loc 1 262 3 is_stmt 1 view .LVU163
 473              		.loc 1 262 16 is_stmt 0 view .LVU164
 474 008e 0023     		movs	r3, #0
 475              		.loc 1 263 14 view .LVU165
 476 0090 4B4A     		ldr	r2, .L44
 477              		.loc 1 262 16 view .LVU166
 478 0092 0B61     		str	r3, [r1, #16]
 479              		.loc 1 263 3 is_stmt 1 view .LVU167
 480              	.L12:
 481              		.loc 1 263 37 discriminator 1 view .LVU168
 482              		.loc 1 263 14 is_stmt 0 discriminator 1 view .LVU169
 483 0094 1369     		ldr	r3, [r2, #16]
 484              		.loc 1 263 37 discriminator 1 view .LVU170
 485 0096 13F03803 		ands	r3, r3, #56
 486 009a FBD1     		bne	.L12
 487              		.loc 1 267 3 is_stmt 1 view .LVU171
 488              		.loc 1 268 16 is_stmt 0 view .LVU172
 489 009c 4FF08041 		mov	r1, #1073741824
 490              		.loc 1 267 16 view .LVU173
 491 00a0 0124     		movs	r4, #1
 492              		.loc 1 273 16 view .LVU174
 493 00a2 4C48     		ldr	r0, .L44+20
 494              		.loc 1 267 16 view .LVU175
 495 00a4 1460     		str	r4, [r2]
 496              		.loc 1 268 3 is_stmt 1 view .LVU176
 497              		.loc 1 268 16 is_stmt 0 view .LVU177
 498 00a6 5160     		str	r1, [r2, #4]
 499              		.loc 1 272 3 is_stmt 1 view .LVU178
 500              		.loc 1 287 13 is_stmt 0 view .LVU179
 501 00a8 4B49     		ldr	r1, .L44+24
 502              		.loc 1 272 16 view .LVU180
 503 00aa 5367     		str	r3, [r2, #116]
 504              		.loc 1 273 3 is_stmt 1 view .LVU181
 505              		.loc 1 273 16 is_stmt 0 view .LVU182
 506 00ac D062     		str	r0, [r2, #44]
 507              		.loc 1 277 3 is_stmt 1 view .LVU183
 508              	.LVL13:
 509              		.loc 1 282 3 view .LVU184
 510              		.loc 1 285 3 view .LVU185
 511              		.loc 1 287 3 view .LVU186
 512              		.loc 1 287 13 is_stmt 0 view .LVU187
 513 00ae 1161     		str	r1, [r2, #16]
ARM GAS  C:\Users\DEVELO~1\AppData\Local\Temp\cc7EYVan.s 			page 10


 514              		.loc 1 292 3 is_stmt 1 view .LVU188
 515              		.loc 1 292 11 is_stmt 0 view .LVU189
 516 00b0 1368     		ldr	r3, [r2]
 517              		.loc 1 296 14 view .LVU190
 518 00b2 4348     		ldr	r0, .L44
 519              		.loc 1 292 11 view .LVU191
 520 00b4 43F4A023 		orr	r3, r3, #327680
 521 00b8 1360     		str	r3, [r2]
 522              		.loc 1 296 3 is_stmt 1 view .LVU192
 523              	.L13:
 524              		.loc 1 296 36 discriminator 1 view .LVU193
 525              		.loc 1 296 14 is_stmt 0 discriminator 1 view .LVU194
 526 00ba 0368     		ldr	r3, [r0]
 527              		.loc 1 296 36 discriminator 1 view .LVU195
 528 00bc 9C03     		lsls	r4, r3, #14
 529 00be FCD5     		bpl	.L13
 530              		.loc 1 302 3 is_stmt 1 view .LVU196
 531              		.loc 1 302 11 is_stmt 0 view .LVU197
 532 00c0 0368     		ldr	r3, [r0]
 533              		.loc 1 303 14 view .LVU198
 534 00c2 3F49     		ldr	r1, .L44
 535              		.loc 1 302 11 view .LVU199
 536 00c4 43F48053 		orr	r3, r3, #4096
 537 00c8 0360     		str	r3, [r0]
 538              		.loc 1 303 3 is_stmt 1 view .LVU200
 539              	.L14:
 540              		.loc 1 303 38 discriminator 1 view .LVU201
 541              		.loc 1 303 14 is_stmt 0 discriminator 1 view .LVU202
 542 00ca 0B68     		ldr	r3, [r1]
 543              		.loc 1 303 38 discriminator 1 view .LVU203
 544 00cc 9804     		lsls	r0, r3, #18
 545 00ce FCD5     		bpl	.L14
 546              		.loc 1 310 3 is_stmt 1 view .LVU204
 547              		.loc 1 310 11 is_stmt 0 view .LVU205
 548 00d0 0B68     		ldr	r3, [r1]
 549              		.loc 1 311 14 view .LVU206
 550 00d2 3B4A     		ldr	r2, .L44
 551              		.loc 1 310 11 view .LVU207
 552 00d4 43F08003 		orr	r3, r3, #128
 553 00d8 0B60     		str	r3, [r1]
 554              		.loc 1 311 3 is_stmt 1 view .LVU208
 555              	.L15:
 556              		.loc 1 311 36 discriminator 1 view .LVU209
 557              		.loc 1 311 14 is_stmt 0 discriminator 1 view .LVU210
 558 00da 1368     		ldr	r3, [r2]
 559              		.loc 1 311 36 discriminator 1 view .LVU211
 560 00dc D905     		lsls	r1, r3, #23
 561 00de FCD5     		bpl	.L15
 562              		.loc 1 317 3 is_stmt 1 view .LVU212
 563              		.loc 1 317 12 is_stmt 0 view .LVU213
 564 00e0 516F     		ldr	r1, [r2, #116]
 565              		.loc 1 318 14 view .LVU214
 566 00e2 374B     		ldr	r3, .L44
 567              		.loc 1 317 12 view .LVU215
 568 00e4 41F00101 		orr	r1, r1, #1
 569 00e8 5167     		str	r1, [r2, #116]
 570              		.loc 1 318 3 is_stmt 1 view .LVU216
ARM GAS  C:\Users\DEVELO~1\AppData\Local\Temp\cc7EYVan.s 			page 11


 571              	.L16:
 572              		.loc 1 318 38 discriminator 1 view .LVU217
 573              		.loc 1 318 14 is_stmt 0 discriminator 1 view .LVU218
 574 00ea 5A6F     		ldr	r2, [r3, #116]
 575              		.loc 1 318 38 discriminator 1 view .LVU219
 576 00ec 9207     		lsls	r2, r2, #30
 577 00ee FCD5     		bpl	.L16
 578              	.LBB90:
 579              		.loc 1 328 5 is_stmt 1 view .LVU220
 580              	.LVL14:
 581              		.loc 1 329 5 view .LVU221
 582              		.loc 1 330 5 view .LVU222
 583              		.loc 1 332 5 view .LVU223
 584              		.loc 1 342 20 is_stmt 0 view .LVU224
 585 00f0 0022     		movs	r2, #0
 586              		.loc 1 332 20 view .LVU225
 587 00f2 3A48     		ldr	r0, .L44+28
 588              		.loc 1 343 20 view .LVU226
 589 00f4 3A49     		ldr	r1, .L44+32
 590              		.loc 1 332 20 view .LVU227
 591 00f6 9862     		str	r0, [r3, #40]
 592              		.loc 1 337 5 is_stmt 1 view .LVU228
 593              	.LVL15:
 594              		.loc 1 342 5 view .LVU229
 595              		.loc 1 360 20 is_stmt 0 view .LVU230
 596 00f8 3A4C     		ldr	r4, .L44+36
 597              		.loc 1 342 20 view .LVU231
 598 00fa 5A63     		str	r2, [r3, #52]
 599              		.loc 1 343 5 is_stmt 1 view .LVU232
 600              		.loc 1 377 20 is_stmt 0 view .LVU233
 601 00fc 3A48     		ldr	r0, .L44+40
 602              		.loc 1 343 20 view .LVU234
 603 00fe 1963     		str	r1, [r3, #48]
 604              		.loc 1 345 5 is_stmt 1 view .LVU235
 605              	.LVL16:
 606              		.loc 1 346 5 view .LVU236
 607              		.loc 1 348 5 view .LVU237
 608              		.loc 1 351 5 view .LVU238
 609              		.loc 1 354 5 view .LVU239
 610              		.loc 1 359 5 view .LVU240
 611              		.loc 1 393 18 is_stmt 0 view .LVU241
 612 0100 3A49     		ldr	r1, .L44+44
 613              		.loc 1 359 20 view .LVU242
 614 0102 DA63     		str	r2, [r3, #60]
 615              		.loc 1 360 5 is_stmt 1 view .LVU243
 616              		.loc 1 360 20 is_stmt 0 view .LVU244
 617 0104 9C63     		str	r4, [r3, #56]
 618              		.loc 1 362 5 is_stmt 1 view .LVU245
 619              	.LVL17:
 620              		.loc 1 363 5 view .LVU246
 621              		.loc 1 365 5 view .LVU247
 622              		.loc 1 368 5 view .LVU248
 623              		.loc 1 371 5 view .LVU249
 624              		.loc 1 376 5 view .LVU250
 625              		.loc 1 376 20 is_stmt 0 view .LVU251
 626 0106 5A64     		str	r2, [r3, #68]
 627              		.loc 1 377 5 is_stmt 1 view .LVU252
ARM GAS  C:\Users\DEVELO~1\AppData\Local\Temp\cc7EYVan.s 			page 12


 628              		.loc 1 377 20 is_stmt 0 view .LVU253
 629 0108 1864     		str	r0, [r3, #64]
 630              		.loc 1 379 5 is_stmt 1 view .LVU254
 631              	.LVL18:
 632              		.loc 1 380 5 view .LVU255
 633              		.loc 1 382 5 view .LVU256
 634              		.loc 1 385 5 view .LVU257
 635              		.loc 1 388 5 view .LVU258
 636              		.loc 1 393 5 view .LVU259
 637              		.loc 1 393 18 is_stmt 0 view .LVU260
 638 010a D962     		str	r1, [r3, #44]
 639              		.loc 1 394 5 is_stmt 1 view .LVU261
 640              		.loc 1 394 17 is_stmt 0 view .LVU262
 641 010c 1968     		ldr	r1, [r3]
 642              		.loc 1 395 16 view .LVU263
 643 010e 2C4A     		ldr	r2, .L44
 644              		.loc 1 394 17 view .LVU264
 645 0110 41F0A851 		orr	r1, r1, #352321536
 646 0114 1960     		str	r1, [r3]
 647              		.loc 1 395 5 is_stmt 1 view .LVU265
 648              	.L17:
 649              		.loc 1 395 32 discriminator 1 view .LVU266
 650              		.loc 1 395 16 is_stmt 0 discriminator 1 view .LVU267
 651 0116 1368     		ldr	r3, [r2]
 652              		.loc 1 395 21 discriminator 1 view .LVU268
 653 0118 03F02853 		and	r3, r3, #704643072
 654              		.loc 1 395 32 discriminator 1 view .LVU269
 655 011c B3F1285F 		cmp	r3, #704643072
 656 0120 F9D1     		bne	.L17
 657              	.LBE90:
 658              		.loc 1 406 3 is_stmt 1 view .LVU270
 659              		.loc 1 406 15 is_stmt 0 view .LVU271
 660 0122 4824     		movs	r4, #72
 661              		.loc 1 407 15 view .LVU272
 662 0124 4FF48861 		mov	r1, #1088
 663              		.loc 1 408 15 view .LVU273
 664 0128 4020     		movs	r0, #64
 665              		.loc 1 415 17 view .LVU274
 666 012a 0023     		movs	r3, #0
 667              		.loc 1 406 15 view .LVU275
 668 012c 9461     		str	r4, [r2, #24]
 669              		.loc 1 407 3 is_stmt 1 view .LVU276
 670              		.loc 1 418 17 is_stmt 0 view .LVU277
 671 012e 4FF48014 		mov	r4, #1048576
 672              		.loc 1 407 15 view .LVU278
 673 0132 D161     		str	r1, [r2, #28]
 674              		.loc 1 408 3 is_stmt 1 view .LVU279
 675              		.loc 1 413 17 is_stmt 0 view .LVU280
 676 0134 4FF00051 		mov	r1, #536870912
 677              		.loc 1 408 15 view .LVU281
 678 0138 1062     		str	r0, [r2, #32]
 679              		.loc 1 413 3 is_stmt 1 view .LVU282
 680              		.loc 1 452 14 is_stmt 0 view .LVU283
 681 013a 3220     		movs	r0, #50
 682              		.loc 1 413 17 view .LVU284
 683 013c D164     		str	r1, [r2, #76]
 684              		.loc 1 415 3 is_stmt 1 view .LVU285
ARM GAS  C:\Users\DEVELO~1\AppData\Local\Temp\cc7EYVan.s 			page 13


 685              		.loc 1 452 14 is_stmt 0 view .LVU286
 686 013e 2C49     		ldr	r1, .L44+48
 687              		.loc 1 415 17 view .LVU287
 688 0140 1365     		str	r3, [r2, #80]
 689              		.loc 1 418 3 is_stmt 1 view .LVU288
 690              		.loc 1 418 17 is_stmt 0 view .LVU289
 691 0142 5465     		str	r4, [r2, #84]
 692              		.loc 1 421 3 is_stmt 1 view .LVU290
 693              		.loc 1 421 17 is_stmt 0 view .LVU291
 694 0144 9365     		str	r3, [r2, #88]
 695              		.loc 1 452 3 is_stmt 1 view .LVU292
 696              		.loc 1 452 14 is_stmt 0 view .LVU293
 697 0146 0860     		str	r0, [r1]
 698              		.loc 1 454 3 is_stmt 1 view .LVU294
 699              	.L18:
 700              		.loc 1 456 3 discriminator 1 view .LVU295
 701              		.loc 1 454 43 discriminator 1 view .LVU296
 702              		.loc 1 454 16 is_stmt 0 discriminator 1 view .LVU297
 703 0148 0B68     		ldr	r3, [r1]
 704              		.loc 1 454 22 discriminator 1 view .LVU298
 705 014a 03F00F03 		and	r3, r3, #15
 706              		.loc 1 454 43 discriminator 1 view .LVU299
 707 014e 022B     		cmp	r3, #2
 708 0150 FAD1     		bne	.L18
 709              		.loc 1 461 3 is_stmt 1 view .LVU300
 710              		.loc 1 461 13 is_stmt 0 view .LVU301
 711 0152 1B4A     		ldr	r2, .L44
 712 0154 1369     		ldr	r3, [r2, #16]
 713 0156 43F00303 		orr	r3, r3, #3
 714 015a 1361     		str	r3, [r2, #16]
 715              		.loc 1 462 3 is_stmt 1 view .LVU302
 716              	.L19:
 717              		.loc 1 462 41 discriminator 1 view .LVU303
 718              		.loc 1 462 14 is_stmt 0 discriminator 1 view .LVU304
 719 015c 1369     		ldr	r3, [r2, #16]
 720              		.loc 1 462 21 discriminator 1 view .LVU305
 721 015e 03F03803 		and	r3, r3, #56
 722              		.loc 1 462 41 discriminator 1 view .LVU306
 723 0162 182B     		cmp	r3, #24
 724 0164 FAD1     		bne	.L19
 725              		.loc 1 477 3 is_stmt 1 view .LVU307
 726              	.LVL19:
 727              	.LBB91:
 728              	.LBI91:
 729              		.loc 2 675 22 view .LVU308
 730              	.LBB92:
 731              		.loc 2 679 3 view .LVU309
 732              		.loc 2 679 19 is_stmt 0 view .LVU310
 733 0166 D2F8DC30 		ldr	r3, [r2, #220]
 734              	.LBE92:
 735              	.LBE91:
 736              		.loc 1 483 1 view .LVU311
 737 016a 10BC     		pop	{r4}
 738              		.cfi_restore 4
 739              		.cfi_def_cfa_offset 0
 740              	.LBB94:
 741              	.LBB93:
ARM GAS  C:\Users\DEVELO~1\AppData\Local\Temp\cc7EYVan.s 			page 14


 742              		.loc 2 679 19 view .LVU312
 743 016c 43F00053 		orr	r3, r3, #536870912
 744 0170 C2F8DC30 		str	r3, [r2, #220]
 745              		.loc 2 680 3 is_stmt 1 view .LVU313
 746              		.loc 2 681 5 view .LVU314
 747              		.loc 2 681 23 is_stmt 0 view .LVU315
 748 0174 D2F80431 		ldr	r3, [r2, #260]
 749 0178 43F00053 		orr	r3, r3, #536870912
 750 017c C2F80431 		str	r3, [r2, #260]
 751              		.loc 2 686 3 is_stmt 1 view .LVU316
 752 0180 D2F80431 		ldr	r3, [r2, #260]
 753              	.LVL20:
 754              		.loc 2 686 3 is_stmt 0 view .LVU317
 755              	.LBE93:
 756              	.LBE94:
 757              		.loc 1 478 3 is_stmt 1 view .LVU318
 758              	.LBB95:
 759              	.LBI95:
 760              		.loc 2 675 22 view .LVU319
 761              	.LBB96:
 762              		.loc 2 679 3 view .LVU320
 763              		.loc 2 679 19 is_stmt 0 view .LVU321
 764 0184 D2F8DC30 		ldr	r3, [r2, #220]
 765 0188 43F08043 		orr	r3, r3, #1073741824
 766 018c C2F8DC30 		str	r3, [r2, #220]
 767              		.loc 2 680 3 is_stmt 1 view .LVU322
 768              		.loc 2 681 5 view .LVU323
 769              		.loc 2 681 23 is_stmt 0 view .LVU324
 770 0190 D2F80431 		ldr	r3, [r2, #260]
 771 0194 43F08043 		orr	r3, r3, #1073741824
 772 0198 C2F80431 		str	r3, [r2, #260]
 773              		.loc 2 686 3 is_stmt 1 view .LVU325
 774 019c D2F80431 		ldr	r3, [r2, #260]
 775              	.LVL21:
 776              		.loc 2 686 3 is_stmt 0 view .LVU326
 777              	.LBE96:
 778              	.LBE95:
 779              		.loc 1 480 3 is_stmt 1 view .LVU327
 780              	.LBB97:
 781              	.LBI97:
 782              		.loc 2 675 22 view .LVU328
 783              	.LBB98:
 784              		.loc 2 679 3 view .LVU329
 785              		.loc 2 679 19 is_stmt 0 view .LVU330
 786 01a0 D2F8DC30 		ldr	r3, [r2, #220]
 787 01a4 43F00043 		orr	r3, r3, #-2147483648
 788 01a8 C2F8DC30 		str	r3, [r2, #220]
 789              		.loc 2 680 3 is_stmt 1 view .LVU331
 790              		.loc 2 681 5 view .LVU332
 791              		.loc 2 681 23 is_stmt 0 view .LVU333
 792 01ac D2F80431 		ldr	r3, [r2, #260]
 793 01b0 43F00043 		orr	r3, r3, #-2147483648
 794 01b4 C2F80431 		str	r3, [r2, #260]
 795              		.loc 2 686 3 is_stmt 1 view .LVU334
 796 01b8 D2F80431 		ldr	r3, [r2, #260]
 797              	.LVL22:
 798              		.loc 2 686 3 is_stmt 0 view .LVU335
ARM GAS  C:\Users\DEVELO~1\AppData\Local\Temp\cc7EYVan.s 			page 15


 799              	.LBE98:
 800              	.LBE97:
 801              		.loc 1 483 1 view .LVU336
 802 01bc 7047     		bx	lr
 803              	.L45:
 804 01be 00BF     		.align	2
 805              	.L44:
 806 01c0 00440258 		.word	1476543488
 807 01c4 00800051 		.word	1358987264
 808 01c8 00480258 		.word	1476544512
 809 01cc 00C000F0 		.word	-268386304
 810 01d0 02000001 		.word	16777218
 811 01d4 0000FF01 		.word	33488896
 812 01d8 00881008 		.word	135301120
 813 01dc 42404000 		.word	4210754
 814 01e0 8F030F07 		.word	118424463
 815 01e4 8F4F0707 		.word	117919631
 816 01e8 8F0F0707 		.word	117903247
 817 01ec 5505FF01 		.word	33490261
 818 01f0 00200052 		.word	1375739904
 819              		.cfi_endproc
 820              	.LFE435:
 821              		.size	stm32_clock_init, .-stm32_clock_init
 822              		.global	SystemCoreClock
 823              		.section	.data.SystemCoreClock,"aw"
 824              		.align	2
 825              		.type	SystemCoreClock, %object
 826              		.size	SystemCoreClock, 4
 827              	SystemCoreClock:
 828 0000 0084D717 		.word	400000000
 829              		.text
 830              	.Letext0:
 831              		.file 3 "c:\\chibistudio\\tools\\gnu tools arm embedded\\11.3 2022.08\\arm-none-eabi\\include\\mac
 832              		.file 4 "c:\\chibistudio\\tools\\gnu tools arm embedded\\11.3 2022.08\\arm-none-eabi\\include\\sys
 833              		.file 5 "../../../os/common/ext/ST/STM32H7xx/stm32h743xx.h"
 834              		.file 6 "../../../os/common/ext/ST/STM32H7xx/system_stm32h7xx.h"
 835              		.file 7 "../../../os/hal/ports/STM32/STM32H7xx/stm32_isr.h"
 836              		.section	.debug_info,"",%progbits
 837              	.Ldebug_info0:
 838 0000 2A0B0000 		.4byte	0xb2a
 839 0004 0500     		.2byte	0x5
 840 0006 01       		.byte	0x1
 841 0007 04       		.byte	0x4
 842 0008 00000000 		.4byte	.Ldebug_abbrev0
 843 000c 16       		.uleb128 0x16
 844 000d 8B020000 		.4byte	.LASF138
 845 0011 1D       		.byte	0x1d
 846 0012 57000000 		.4byte	.LASF139
 847 0016 3E010000 		.4byte	.LASF140
 848 001a 72000000 		.4byte	.LLRL28
 849 001e 00000000 		.4byte	0
 850 0022 00000000 		.4byte	.Ldebug_line0
 851 0026 17       		.uleb128 0x17
 852 0027 04       		.byte	0x4
 853 0028 05       		.byte	0x5
 854 0029 696E7400 		.ascii	"int\000"
 855 002d 04       		.uleb128 0x4
ARM GAS  C:\Users\DEVELO~1\AppData\Local\Temp\cc7EYVan.s 			page 16


 856 002e 04       		.byte	0x4
 857 002f 07       		.byte	0x7
 858 0030 42020000 		.4byte	.LASF0
 859 0034 04       		.uleb128 0x4
 860 0035 08       		.byte	0x8
 861 0036 05       		.byte	0x5
 862 0037 C3000000 		.4byte	.LASF1
 863 003b 04       		.uleb128 0x4
 864 003c 08       		.byte	0x8
 865 003d 04       		.byte	0x4
 866 003e 92050000 		.4byte	.LASF2
 867 0042 04       		.uleb128 0x4
 868 0043 01       		.byte	0x1
 869 0044 06       		.byte	0x6
 870 0045 1D000000 		.4byte	.LASF3
 871 0049 04       		.uleb128 0x4
 872 004a 01       		.byte	0x1
 873 004b 08       		.byte	0x8
 874 004c 17050000 		.4byte	.LASF4
 875 0050 04       		.uleb128 0x4
 876 0051 02       		.byte	0x2
 877 0052 05       		.byte	0x5
 878 0053 25050000 		.4byte	.LASF5
 879 0057 04       		.uleb128 0x4
 880 0058 02       		.byte	0x2
 881 0059 07       		.byte	0x7
 882 005a 49030000 		.4byte	.LASF6
 883 005e 04       		.uleb128 0x4
 884 005f 04       		.byte	0x4
 885 0060 05       		.byte	0x5
 886 0061 34000000 		.4byte	.LASF7
 887 0065 0E       		.uleb128 0xe
 888 0066 06020000 		.4byte	.LASF10
 889 006a 03       		.byte	0x3
 890 006b 4F       		.byte	0x4f
 891 006c 19       		.byte	0x19
 892 006d 71000000 		.4byte	0x71
 893 0071 04       		.uleb128 0x4
 894 0072 04       		.byte	0x4
 895 0073 07       		.byte	0x7
 896 0074 67020000 		.4byte	.LASF8
 897 0078 04       		.uleb128 0x4
 898 0079 08       		.byte	0x8
 899 007a 07       		.byte	0x7
 900 007b F6000000 		.4byte	.LASF9
 901 007f 0E       		.uleb128 0xe
 902 0080 7C050000 		.4byte	.LASF11
 903 0084 04       		.byte	0x4
 904 0085 30       		.byte	0x30
 905 0086 14       		.byte	0x14
 906 0087 65000000 		.4byte	0x65
 907 008b 18       		.uleb128 0x18
 908 008c 7F000000 		.4byte	0x7f
 909 0090 04       		.uleb128 0x4
 910 0091 01       		.byte	0x1
 911 0092 08       		.byte	0x8
 912 0093 9E050000 		.4byte	.LASF12
ARM GAS  C:\Users\DEVELO~1\AppData\Local\Temp\cc7EYVan.s 			page 17


 913 0097 0A       		.uleb128 0xa
 914 0098 7F000000 		.4byte	0x7f
 915 009c A7000000 		.4byte	0xa7
 916 00a0 0B       		.uleb128 0xb
 917 00a1 2D000000 		.4byte	0x2d
 918 00a5 01       		.byte	0x1
 919 00a6 00       		.byte	0
 920 00a7 19       		.uleb128 0x19
 921 00a8 57020000 		.4byte	.LASF118
 922 00ac 06       		.byte	0x6
 923 00ad 39       		.byte	0x39
 924 00ae 11       		.byte	0x11
 925 00af 7F000000 		.4byte	0x7f
 926 00b3 0A       		.uleb128 0xa
 927 00b4 7F000000 		.4byte	0x7f
 928 00b8 C3000000 		.4byte	0xc3
 929 00bc 0B       		.uleb128 0xb
 930 00bd 2D000000 		.4byte	0x2d
 931 00c1 03       		.byte	0x3
 932 00c2 00       		.byte	0
 933 00c3 0A       		.uleb128 0xa
 934 00c4 7F000000 		.4byte	0x7f
 935 00c8 D3000000 		.4byte	0xd3
 936 00cc 0B       		.uleb128 0xb
 937 00cd 2D000000 		.4byte	0x2d
 938 00d1 08       		.byte	0x8
 939 00d2 00       		.byte	0
 940 00d3 0F       		.uleb128 0xf
 941 00d4 6401     		.2byte	0x164
 942 00d6 9303     		.2byte	0x393
 943 00d8 1C030000 		.4byte	0x31c
 944 00dc 05       		.uleb128 0x5
 945 00dd 41435200 		.ascii	"ACR\000"
 946 00e1 9503     		.2byte	0x395
 947 00e3 11       		.byte	0x11
 948 00e4 8B000000 		.4byte	0x8b
 949 00e8 00       		.byte	0
 950 00e9 01       		.uleb128 0x1
 951 00ea C6050000 		.4byte	.LASF13
 952 00ee 9603     		.2byte	0x396
 953 00f0 11       		.byte	0x11
 954 00f1 8B000000 		.4byte	0x8b
 955 00f5 04       		.byte	0x4
 956 00f6 01       		.uleb128 0x1
 957 00f7 BF010000 		.4byte	.LASF14
 958 00fb 9703     		.2byte	0x397
 959 00fd 11       		.byte	0x11
 960 00fe 8B000000 		.4byte	0x8b
 961 0102 08       		.byte	0x8
 962 0103 05       		.uleb128 0x5
 963 0104 43523100 		.ascii	"CR1\000"
 964 0108 9803     		.2byte	0x398
 965 010a 11       		.byte	0x11
 966 010b 8B000000 		.4byte	0x8b
 967 010f 0C       		.byte	0xc
 968 0110 05       		.uleb128 0x5
 969 0111 53523100 		.ascii	"SR1\000"
ARM GAS  C:\Users\DEVELO~1\AppData\Local\Temp\cc7EYVan.s 			page 18


 970 0115 9903     		.2byte	0x399
 971 0117 11       		.byte	0x11
 972 0118 8B000000 		.4byte	0x8b
 973 011c 10       		.byte	0x10
 974 011d 01       		.uleb128 0x1
 975 011e 12060000 		.4byte	.LASF15
 976 0122 9A03     		.2byte	0x39a
 977 0124 11       		.byte	0x11
 978 0125 8B000000 		.4byte	0x8b
 979 0129 14       		.byte	0x14
 980 012a 01       		.uleb128 0x1
 981 012b 3D000000 		.4byte	.LASF16
 982 012f 9B03     		.2byte	0x39b
 983 0131 11       		.byte	0x11
 984 0132 8B000000 		.4byte	0x8b
 985 0136 18       		.byte	0x18
 986 0137 01       		.uleb128 0x1
 987 0138 41040000 		.4byte	.LASF17
 988 013c 9C03     		.2byte	0x39c
 989 013e 11       		.byte	0x11
 990 013f 8B000000 		.4byte	0x8b
 991 0143 1C       		.byte	0x1c
 992 0144 01       		.uleb128 0x1
 993 0145 A3050000 		.4byte	.LASF18
 994 0149 9D03     		.2byte	0x39d
 995 014b 11       		.byte	0x11
 996 014c 8B000000 		.4byte	0x8b
 997 0150 20       		.byte	0x20
 998 0151 01       		.uleb128 0x1
 999 0152 0D010000 		.4byte	.LASF19
 1000 0156 9E03     		.2byte	0x39e
 1001 0158 11       		.byte	0x11
 1002 0159 8B000000 		.4byte	0x8b
 1003 015d 24       		.byte	0x24
 1004 015e 01       		.uleb128 0x1
 1005 015f 89030000 		.4byte	.LASF20
 1006 0163 9F03     		.2byte	0x39f
 1007 0165 11       		.byte	0x11
 1008 0166 8B000000 		.4byte	0x8b
 1009 016a 28       		.byte	0x28
 1010 016b 01       		.uleb128 0x1
 1011 016c 43000000 		.4byte	.LASF21
 1012 0170 A003     		.2byte	0x3a0
 1013 0172 11       		.byte	0x11
 1014 0173 8B000000 		.4byte	0x8b
 1015 0177 2C       		.byte	0x2c
 1016 0178 01       		.uleb128 0x1
 1017 0179 C7010000 		.4byte	.LASF22
 1018 017d A103     		.2byte	0x3a1
 1019 017f 11       		.byte	0x11
 1020 0180 8B000000 		.4byte	0x8b
 1021 0184 30       		.byte	0x30
 1022 0185 01       		.uleb128 0x1
 1023 0186 D0030000 		.4byte	.LASF23
 1024 018a A203     		.2byte	0x3a2
 1025 018c 11       		.byte	0x11
 1026 018d 8B000000 		.4byte	0x8b
ARM GAS  C:\Users\DEVELO~1\AppData\Local\Temp\cc7EYVan.s 			page 19


 1027 0191 34       		.byte	0x34
 1028 0192 01       		.uleb128 0x1
 1029 0193 F3050000 		.4byte	.LASF24
 1030 0197 A303     		.2byte	0x3a3
 1031 0199 11       		.byte	0x11
 1032 019a 8B000000 		.4byte	0x8b
 1033 019e 38       		.byte	0x38
 1034 019f 01       		.uleb128 0x1
 1035 01a0 FA030000 		.4byte	.LASF25
 1036 01a4 A403     		.2byte	0x3a4
 1037 01a6 11       		.byte	0x11
 1038 01a7 8B000000 		.4byte	0x8b
 1039 01ab 3C       		.byte	0x3c
 1040 01ac 01       		.uleb128 0x1
 1041 01ad D1000000 		.4byte	.LASF26
 1042 01b1 A503     		.2byte	0x3a5
 1043 01b3 11       		.byte	0x11
 1044 01b4 8B000000 		.4byte	0x8b
 1045 01b8 40       		.byte	0x40
 1046 01b9 01       		.uleb128 0x1
 1047 01ba 40030000 		.4byte	.LASF27
 1048 01be A603     		.2byte	0x3a6
 1049 01c0 11       		.byte	0x11
 1050 01c1 8B000000 		.4byte	0x8b
 1051 01c5 44       		.byte	0x44
 1052 01c6 01       		.uleb128 0x1
 1053 01c7 BB040000 		.4byte	.LASF28
 1054 01cb A703     		.2byte	0x3a7
 1055 01cd 11       		.byte	0x11
 1056 01ce 97000000 		.4byte	0x97
 1057 01d2 48       		.byte	0x48
 1058 01d3 01       		.uleb128 0x1
 1059 01d4 33040000 		.4byte	.LASF29
 1060 01d8 A803     		.2byte	0x3a8
 1061 01da 11       		.byte	0x11
 1062 01db 8B000000 		.4byte	0x8b
 1063 01df 50       		.byte	0x50
 1064 01e0 01       		.uleb128 0x1
 1065 01e1 41060000 		.4byte	.LASF30
 1066 01e5 A903     		.2byte	0x3a9
 1067 01e7 11       		.byte	0x11
 1068 01e8 8B000000 		.4byte	0x8b
 1069 01ec 54       		.byte	0x54
 1070 01ed 01       		.uleb128 0x1
 1071 01ee 0E040000 		.4byte	.LASF31
 1072 01f2 AA03     		.2byte	0x3aa
 1073 01f4 11       		.byte	0x11
 1074 01f5 8B000000 		.4byte	0x8b
 1075 01f9 58       		.byte	0x58
 1076 01fa 01       		.uleb128 0x1
 1077 01fb B7010000 		.4byte	.LASF32
 1078 01ff AB03     		.2byte	0x3ab
 1079 0201 11       		.byte	0x11
 1080 0202 8B000000 		.4byte	0x8b
 1081 0206 5C       		.byte	0x5c
 1082 0207 01       		.uleb128 0x1
 1083 0208 43050000 		.4byte	.LASF33
ARM GAS  C:\Users\DEVELO~1\AppData\Local\Temp\cc7EYVan.s 			page 20


 1084 020c AC03     		.2byte	0x3ac
 1085 020e 11       		.byte	0x11
 1086 020f 8B000000 		.4byte	0x8b
 1087 0213 60       		.byte	0x60
 1088 0214 01       		.uleb128 0x1
 1089 0215 C5040000 		.4byte	.LASF34
 1090 0219 AD03     		.2byte	0x3ad
 1091 021b 11       		.byte	0x11
 1092 021c 1C030000 		.4byte	0x31c
 1093 0220 64       		.byte	0x64
 1094 0221 02       		.uleb128 0x2
 1095 0222 B6050000 		.4byte	.LASF35
 1096 0226 AE03     		.2byte	0x3ae
 1097 0228 11       		.byte	0x11
 1098 0229 8B000000 		.4byte	0x8b
 1099 022d 0401     		.2byte	0x104
 1100 022f 02       		.uleb128 0x2
 1101 0230 CF040000 		.4byte	.LASF36
 1102 0234 AF03     		.2byte	0x3af
 1103 0236 11       		.byte	0x11
 1104 0237 7F000000 		.4byte	0x7f
 1105 023b 0801     		.2byte	0x108
 1106 023d 10       		.uleb128 0x10
 1107 023e 43523200 		.ascii	"CR2\000"
 1108 0242 B003     		.2byte	0x3b0
 1109 0244 8B000000 		.4byte	0x8b
 1110 0248 0C01     		.2byte	0x10c
 1111 024a 10       		.uleb128 0x10
 1112 024b 53523200 		.ascii	"SR2\000"
 1113 024f B103     		.2byte	0x3b1
 1114 0251 8B000000 		.4byte	0x8b
 1115 0255 1001     		.2byte	0x110
 1116 0257 02       		.uleb128 0x2
 1117 0258 17060000 		.4byte	.LASF37
 1118 025c B203     		.2byte	0x3b2
 1119 025e 11       		.byte	0x11
 1120 025f 8B000000 		.4byte	0x8b
 1121 0263 1401     		.2byte	0x114
 1122 0265 02       		.uleb128 0x2
 1123 0266 D9040000 		.4byte	.LASF38
 1124 026a B303     		.2byte	0x3b3
 1125 026c 11       		.byte	0x11
 1126 026d B3000000 		.4byte	0xb3
 1127 0271 1801     		.2byte	0x118
 1128 0273 02       		.uleb128 0x2
 1129 0274 93030000 		.4byte	.LASF39
 1130 0278 B403     		.2byte	0x3b4
 1131 027a 11       		.byte	0x11
 1132 027b 8B000000 		.4byte	0x8b
 1133 027f 2801     		.2byte	0x128
 1134 0281 02       		.uleb128 0x2
 1135 0282 4D000000 		.4byte	.LASF40
 1136 0286 B503     		.2byte	0x3b5
 1137 0288 11       		.byte	0x11
 1138 0289 8B000000 		.4byte	0x8b
 1139 028d 2C01     		.2byte	0x12c
 1140 028f 02       		.uleb128 0x2
ARM GAS  C:\Users\DEVELO~1\AppData\Local\Temp\cc7EYVan.s 			page 21


 1141 0290 D9010000 		.4byte	.LASF41
 1142 0294 B603     		.2byte	0x3b6
 1143 0296 11       		.byte	0x11
 1144 0297 8B000000 		.4byte	0x8b
 1145 029b 3001     		.2byte	0x130
 1146 029d 02       		.uleb128 0x2
 1147 029e DA030000 		.4byte	.LASF42
 1148 02a2 B703     		.2byte	0x3b7
 1149 02a4 11       		.byte	0x11
 1150 02a5 8B000000 		.4byte	0x8b
 1151 02a9 3401     		.2byte	0x134
 1152 02ab 02       		.uleb128 0x2
 1153 02ac FD050000 		.4byte	.LASF43
 1154 02b0 B803     		.2byte	0x3b8
 1155 02b2 11       		.byte	0x11
 1156 02b3 8B000000 		.4byte	0x8b
 1157 02b7 3801     		.2byte	0x138
 1158 02b9 02       		.uleb128 0x2
 1159 02ba 04040000 		.4byte	.LASF44
 1160 02be B903     		.2byte	0x3b9
 1161 02c0 11       		.byte	0x11
 1162 02c1 8B000000 		.4byte	0x8b
 1163 02c5 3C01     		.2byte	0x13c
 1164 02c7 02       		.uleb128 0x2
 1165 02c8 72050000 		.4byte	.LASF45
 1166 02cc BA03     		.2byte	0x3ba
 1167 02ce 11       		.byte	0x11
 1168 02cf B3000000 		.4byte	0xb3
 1169 02d3 4001     		.2byte	0x140
 1170 02d5 02       		.uleb128 0x2
 1171 02d6 3A040000 		.4byte	.LASF46
 1172 02da BB03     		.2byte	0x3bb
 1173 02dc 11       		.byte	0x11
 1174 02dd 8B000000 		.4byte	0x8b
 1175 02e1 5001     		.2byte	0x150
 1176 02e3 02       		.uleb128 0x2
 1177 02e4 4A060000 		.4byte	.LASF47
 1178 02e8 BC03     		.2byte	0x3bc
 1179 02ea 11       		.byte	0x11
 1180 02eb 8B000000 		.4byte	0x8b
 1181 02ef 5401     		.2byte	0x154
 1182 02f1 02       		.uleb128 0x2
 1183 02f2 17040000 		.4byte	.LASF48
 1184 02f6 BD03     		.2byte	0x3bd
 1185 02f8 11       		.byte	0x11
 1186 02f9 8B000000 		.4byte	0x8b
 1187 02fd 5801     		.2byte	0x158
 1188 02ff 02       		.uleb128 0x2
 1189 0300 35010000 		.4byte	.LASF49
 1190 0304 BE03     		.2byte	0x3be
 1191 0306 11       		.byte	0x11
 1192 0307 8B000000 		.4byte	0x8b
 1193 030b 5C01     		.2byte	0x15c
 1194 030d 02       		.uleb128 0x2
 1195 030e 4B050000 		.4byte	.LASF50
 1196 0312 BF03     		.2byte	0x3bf
 1197 0314 11       		.byte	0x11
ARM GAS  C:\Users\DEVELO~1\AppData\Local\Temp\cc7EYVan.s 			page 22


 1198 0315 8B000000 		.4byte	0x8b
 1199 0319 6001     		.2byte	0x160
 1200 031b 00       		.byte	0
 1201 031c 0A       		.uleb128 0xa
 1202 031d 7F000000 		.4byte	0x7f
 1203 0321 2C030000 		.4byte	0x32c
 1204 0325 0B       		.uleb128 0xb
 1205 0326 2D000000 		.4byte	0x2d
 1206 032a 27       		.byte	0x27
 1207 032b 00       		.byte	0
 1208 032c 0C       		.uleb128 0xc
 1209 032d E8000000 		.4byte	.LASF51
 1210 0331 C003     		.2byte	0x3c0
 1211 0333 D3000000 		.4byte	0xd3
 1212 0337 1A       		.uleb128 0x1a
 1213 0338 2C       		.byte	0x2c
 1214 0339 05       		.byte	0x5
 1215 033a BB04     		.2byte	0x4bb
 1216 033c 09       		.byte	0x9
 1217 033d D1030000 		.4byte	0x3d1
 1218 0341 05       		.uleb128 0x5
 1219 0342 43523100 		.ascii	"CR1\000"
 1220 0346 BD04     		.2byte	0x4bd
 1221 0348 11       		.byte	0x11
 1222 0349 8B000000 		.4byte	0x8b
 1223 034d 00       		.byte	0
 1224 034e 01       		.uleb128 0x1
 1225 034f 6E060000 		.4byte	.LASF52
 1226 0353 BE04     		.2byte	0x4be
 1227 0355 11       		.byte	0x11
 1228 0356 8B000000 		.4byte	0x8b
 1229 035a 04       		.byte	0x4
 1230 035b 05       		.uleb128 0x5
 1231 035c 43523200 		.ascii	"CR2\000"
 1232 0360 BF04     		.2byte	0x4bf
 1233 0362 11       		.byte	0x11
 1234 0363 8B000000 		.4byte	0x8b
 1235 0367 08       		.byte	0x8
 1236 0368 05       		.uleb128 0x5
 1237 0369 43523300 		.ascii	"CR3\000"
 1238 036d C004     		.2byte	0x4c0
 1239 036f 11       		.byte	0x11
 1240 0370 8B000000 		.4byte	0x8b
 1241 0374 0C       		.byte	0xc
 1242 0375 01       		.uleb128 0x1
 1243 0376 79020000 		.4byte	.LASF53
 1244 037a C104     		.2byte	0x4c1
 1245 037c 11       		.byte	0x11
 1246 037d 8B000000 		.4byte	0x8b
 1247 0381 10       		.byte	0x10
 1248 0382 01       		.uleb128 0x1
 1249 0383 BB040000 		.4byte	.LASF28
 1250 0387 C204     		.2byte	0x4c2
 1251 0389 11       		.byte	0x11
 1252 038a 7F000000 		.4byte	0x7f
 1253 038e 14       		.byte	0x14
 1254 038f 01       		.uleb128 0x1
ARM GAS  C:\Users\DEVELO~1\AppData\Local\Temp\cc7EYVan.s 			page 23


 1255 0390 85050000 		.4byte	.LASF54
 1256 0394 C304     		.2byte	0x4c3
 1257 0396 11       		.byte	0x11
 1258 0397 8B000000 		.4byte	0x8b
 1259 039b 18       		.byte	0x18
 1260 039c 01       		.uleb128 0x1
 1261 039d C5040000 		.4byte	.LASF34
 1262 03a1 C404     		.2byte	0x4c4
 1263 03a3 11       		.byte	0x11
 1264 03a4 7F000000 		.4byte	0x7f
 1265 03a8 1C       		.byte	0x1c
 1266 03a9 01       		.uleb128 0x1
 1267 03aa DA000000 		.4byte	.LASF55
 1268 03ae C504     		.2byte	0x4c5
 1269 03b0 11       		.byte	0x11
 1270 03b1 8B000000 		.4byte	0x8b
 1271 03b5 20       		.byte	0x20
 1272 03b6 01       		.uleb128 0x1
 1273 03b7 16000000 		.4byte	.LASF56
 1274 03bb C604     		.2byte	0x4c6
 1275 03bd 11       		.byte	0x11
 1276 03be 8B000000 		.4byte	0x8b
 1277 03c2 24       		.byte	0x24
 1278 03c3 01       		.uleb128 0x1
 1279 03c4 4F020000 		.4byte	.LASF57
 1280 03c8 C704     		.2byte	0x4c7
 1281 03ca 11       		.byte	0x11
 1282 03cb 8B000000 		.4byte	0x8b
 1283 03cf 28       		.byte	0x28
 1284 03d0 00       		.byte	0
 1285 03d1 0C       		.uleb128 0xc
 1286 03d2 C4030000 		.4byte	.LASF58
 1287 03d6 C804     		.2byte	0x4c8
 1288 03d8 37030000 		.4byte	0x337
 1289 03dc 0F       		.uleb128 0xf
 1290 03dd 3001     		.2byte	0x130
 1291 03df CE04     		.2byte	0x4ce
 1292 03e1 3B070000 		.4byte	0x73b
 1293 03e5 05       		.uleb128 0x5
 1294 03e6 435200   		.ascii	"CR\000"
 1295 03e9 D004     		.2byte	0x4d0
 1296 03eb 10       		.byte	0x10
 1297 03ec 8B000000 		.4byte	0x8b
 1298 03f0 00       		.byte	0
 1299 03f1 01       		.uleb128 0x1
 1300 03f2 66030000 		.4byte	.LASF59
 1301 03f6 D104     		.2byte	0x4d1
 1302 03f8 10       		.byte	0x10
 1303 03f9 8B000000 		.4byte	0x8b
 1304 03fd 04       		.byte	0x4
 1305 03fe 01       		.uleb128 0x1
 1306 03ff F2010000 		.4byte	.LASF60
 1307 0403 D204     		.2byte	0x4d2
 1308 0405 10       		.byte	0x10
 1309 0406 8B000000 		.4byte	0x8b
 1310 040a 08       		.byte	0x8
 1311 040b 01       		.uleb128 0x1
ARM GAS  C:\Users\DEVELO~1\AppData\Local\Temp\cc7EYVan.s 			page 24


 1312 040c E2050000 		.4byte	.LASF61
 1313 0410 D304     		.2byte	0x4d3
 1314 0412 10       		.byte	0x10
 1315 0413 8B000000 		.4byte	0x8b
 1316 0417 0C       		.byte	0xc
 1317 0418 01       		.uleb128 0x1
 1318 0419 60060000 		.4byte	.LASF62
 1319 041d D404     		.2byte	0x4d4
 1320 041f 10       		.byte	0x10
 1321 0420 8B000000 		.4byte	0x8b
 1322 0424 10       		.byte	0x10
 1323 0425 01       		.uleb128 0x1
 1324 0426 C5040000 		.4byte	.LASF34
 1325 042a D504     		.2byte	0x4d5
 1326 042c 0F       		.byte	0xf
 1327 042d 7F000000 		.4byte	0x7f
 1328 0431 14       		.byte	0x14
 1329 0432 01       		.uleb128 0x1
 1330 0433 81060000 		.4byte	.LASF63
 1331 0437 D604     		.2byte	0x4d6
 1332 0439 10       		.byte	0x10
 1333 043a 8B000000 		.4byte	0x8b
 1334 043e 18       		.byte	0x18
 1335 043f 01       		.uleb128 0x1
 1336 0440 E3040000 		.4byte	.LASF64
 1337 0444 D704     		.2byte	0x4d7
 1338 0446 10       		.byte	0x10
 1339 0447 8B000000 		.4byte	0x8b
 1340 044b 1C       		.byte	0x1c
 1341 044c 01       		.uleb128 0x1
 1342 044d E3010000 		.4byte	.LASF65
 1343 0451 D804     		.2byte	0x4d8
 1344 0453 10       		.byte	0x10
 1345 0454 8B000000 		.4byte	0x8b
 1346 0458 20       		.byte	0x20
 1347 0459 01       		.uleb128 0x1
 1348 045a CF040000 		.4byte	.LASF36
 1349 045e D904     		.2byte	0x4d9
 1350 0460 0F       		.byte	0xf
 1351 0461 7F000000 		.4byte	0x7f
 1352 0465 24       		.byte	0x24
 1353 0466 01       		.uleb128 0x1
 1354 0467 5C030000 		.4byte	.LASF66
 1355 046b DA04     		.2byte	0x4da
 1356 046d 10       		.byte	0x10
 1357 046e 8B000000 		.4byte	0x8b
 1358 0472 28       		.byte	0x28
 1359 0473 01       		.uleb128 0x1
 1360 0474 EA010000 		.4byte	.LASF67
 1361 0478 DB04     		.2byte	0x4db
 1362 047a 10       		.byte	0x10
 1363 047b 8B000000 		.4byte	0x8b
 1364 047f 2C       		.byte	0x2c
 1365 0480 01       		.uleb128 0x1
 1366 0481 0D000000 		.4byte	.LASF68
 1367 0485 DC04     		.2byte	0x4dc
 1368 0487 10       		.byte	0x10
ARM GAS  C:\Users\DEVELO~1\AppData\Local\Temp\cc7EYVan.s 			page 25


 1369 0488 8B000000 		.4byte	0x8b
 1370 048c 30       		.byte	0x30
 1371 048d 01       		.uleb128 0x1
 1372 048e 94010000 		.4byte	.LASF69
 1373 0492 DD04     		.2byte	0x4dd
 1374 0494 10       		.byte	0x10
 1375 0495 8B000000 		.4byte	0x8b
 1376 0499 34       		.byte	0x34
 1377 049a 01       		.uleb128 0x1
 1378 049b 0E050000 		.4byte	.LASF70
 1379 049f DE04     		.2byte	0x4de
 1380 04a1 10       		.byte	0x10
 1381 04a2 8B000000 		.4byte	0x8b
 1382 04a6 38       		.byte	0x38
 1383 04a7 01       		.uleb128 0x1
 1384 04a8 38020000 		.4byte	.LASF71
 1385 04ac DF04     		.2byte	0x4df
 1386 04ae 10       		.byte	0x10
 1387 04af 8B000000 		.4byte	0x8b
 1388 04b3 3C       		.byte	0x3c
 1389 04b4 01       		.uleb128 0x1
 1390 04b5 FD010000 		.4byte	.LASF72
 1391 04b9 E004     		.2byte	0x4e0
 1392 04bb 10       		.byte	0x10
 1393 04bc 8B000000 		.4byte	0x8b
 1394 04c0 40       		.byte	0x40
 1395 04c1 01       		.uleb128 0x1
 1396 04c2 B1030000 		.4byte	.LASF73
 1397 04c6 E104     		.2byte	0x4e1
 1398 04c8 10       		.byte	0x10
 1399 04c9 8B000000 		.4byte	0x8b
 1400 04cd 44       		.byte	0x44
 1401 04ce 01       		.uleb128 0x1
 1402 04cf D9040000 		.4byte	.LASF38
 1403 04d3 E204     		.2byte	0x4e2
 1404 04d5 10       		.byte	0x10
 1405 04d6 7F000000 		.4byte	0x7f
 1406 04da 48       		.byte	0x48
 1407 04db 01       		.uleb128 0x1
 1408 04dc 8A050000 		.4byte	.LASF74
 1409 04e0 E304     		.2byte	0x4e3
 1410 04e2 11       		.byte	0x11
 1411 04e3 8B000000 		.4byte	0x8b
 1412 04e7 4C       		.byte	0x4c
 1413 04e8 01       		.uleb128 0x1
 1414 04e9 16020000 		.4byte	.LASF75
 1415 04ed E404     		.2byte	0x4e4
 1416 04ef 11       		.byte	0x11
 1417 04f0 8B000000 		.4byte	0x8b
 1418 04f4 50       		.byte	0x50
 1419 04f5 01       		.uleb128 0x1
 1420 04f6 80030000 		.4byte	.LASF76
 1421 04fa E504     		.2byte	0x4e5
 1422 04fc 11       		.byte	0x11
 1423 04fd 8B000000 		.4byte	0x8b
 1424 0501 54       		.byte	0x54
 1425 0502 01       		.uleb128 0x1
ARM GAS  C:\Users\DEVELO~1\AppData\Local\Temp\cc7EYVan.s 			page 26


 1426 0503 1F020000 		.4byte	.LASF77
 1427 0507 E604     		.2byte	0x4e6
 1428 0509 11       		.byte	0x11
 1429 050a 8B000000 		.4byte	0x8b
 1430 050e 58       		.byte	0x58
 1431 050f 01       		.uleb128 0x1
 1432 0510 72050000 		.4byte	.LASF45
 1433 0514 E704     		.2byte	0x4e7
 1434 0516 10       		.byte	0x10
 1435 0517 7F000000 		.4byte	0x7f
 1436 051b 5C       		.byte	0x5c
 1437 051c 01       		.uleb128 0x1
 1438 051d B5000000 		.4byte	.LASF78
 1439 0521 E804     		.2byte	0x4e8
 1440 0523 11       		.byte	0x11
 1441 0524 8B000000 		.4byte	0x8b
 1442 0528 60       		.byte	0x60
 1443 0529 01       		.uleb128 0x1
 1444 052a F8010000 		.4byte	.LASF79
 1445 052e E904     		.2byte	0x4e9
 1446 0530 11       		.byte	0x11
 1447 0531 8B000000 		.4byte	0x8b
 1448 0535 64       		.byte	0x64
 1449 0536 01       		.uleb128 0x1
 1450 0537 1C060000 		.4byte	.LASF80
 1451 053b EA04     		.2byte	0x4ea
 1452 053d 11       		.byte	0x11
 1453 053e 8B000000 		.4byte	0x8b
 1454 0542 68       		.byte	0x68
 1455 0543 01       		.uleb128 0x1
 1456 0544 EA040000 		.4byte	.LASF81
 1457 0548 EB04     		.2byte	0x4eb
 1458 054a 0F       		.byte	0xf
 1459 054b 7F000000 		.4byte	0x7f
 1460 054f 6C       		.byte	0x6c
 1461 0550 01       		.uleb128 0x1
 1462 0551 CC050000 		.4byte	.LASF82
 1463 0555 EC04     		.2byte	0x4ec
 1464 0557 11       		.byte	0x11
 1465 0558 8B000000 		.4byte	0x8b
 1466 055c 70       		.byte	0x70
 1467 055d 05       		.uleb128 0x5
 1468 055e 43535200 		.ascii	"CSR\000"
 1469 0562 ED04     		.2byte	0x4ed
 1470 0564 11       		.byte	0x11
 1471 0565 8B000000 		.4byte	0x8b
 1472 0569 74       		.byte	0x74
 1473 056a 01       		.uleb128 0x1
 1474 056b F4040000 		.4byte	.LASF83
 1475 056f EE04     		.2byte	0x4ee
 1476 0571 0F       		.byte	0xf
 1477 0572 7F000000 		.4byte	0x7f
 1478 0576 78       		.byte	0x78
 1479 0577 01       		.uleb128 0x1
 1480 0578 6E030000 		.4byte	.LASF84
 1481 057c EF04     		.2byte	0x4ef
 1482 057e 10       		.byte	0x10
ARM GAS  C:\Users\DEVELO~1\AppData\Local\Temp\cc7EYVan.s 			page 27


 1483 057f 8B000000 		.4byte	0x8b
 1484 0583 7C       		.byte	0x7c
 1485 0584 01       		.uleb128 0x1
 1486 0585 EA050000 		.4byte	.LASF85
 1487 0589 F004     		.2byte	0x4f0
 1488 058b 10       		.byte	0x10
 1489 058c 8B000000 		.4byte	0x8b
 1490 0590 80       		.byte	0x80
 1491 0591 01       		.uleb128 0x1
 1492 0592 AD050000 		.4byte	.LASF86
 1493 0596 F104     		.2byte	0x4f1
 1494 0598 10       		.byte	0x10
 1495 0599 8B000000 		.4byte	0x8b
 1496 059d 84       		.byte	0x84
 1497 059e 01       		.uleb128 0x1
 1498 059f BA000000 		.4byte	.LASF87
 1499 05a3 F204     		.2byte	0x4f2
 1500 05a5 10       		.byte	0x10
 1501 05a6 8B000000 		.4byte	0x8b
 1502 05aa 88       		.byte	0x88
 1503 05ab 01       		.uleb128 0x1
 1504 05ac D9050000 		.4byte	.LASF88
 1505 05b0 F304     		.2byte	0x4f3
 1506 05b2 10       		.byte	0x10
 1507 05b3 8B000000 		.4byte	0x8b
 1508 05b7 8C       		.byte	0x8c
 1509 05b8 01       		.uleb128 0x1
 1510 05b9 9D030000 		.4byte	.LASF89
 1511 05bd F404     		.2byte	0x4f4
 1512 05bf 10       		.byte	0x10
 1513 05c0 8B000000 		.4byte	0x8b
 1514 05c4 90       		.byte	0x90
 1515 05c5 01       		.uleb128 0x1
 1516 05c6 29040000 		.4byte	.LASF90
 1517 05ca F504     		.2byte	0x4f5
 1518 05cc 10       		.byte	0x10
 1519 05cd 8B000000 		.4byte	0x8b
 1520 05d1 94       		.byte	0x94
 1521 05d2 01       		.uleb128 0x1
 1522 05d3 9E010000 		.4byte	.LASF91
 1523 05d7 F604     		.2byte	0x4f6
 1524 05d9 10       		.byte	0x10
 1525 05da 8B000000 		.4byte	0x8b
 1526 05de 98       		.byte	0x98
 1527 05df 01       		.uleb128 0x1
 1528 05e0 BB030000 		.4byte	.LASF92
 1529 05e4 F704     		.2byte	0x4f7
 1530 05e6 10       		.byte	0x10
 1531 05e7 8B000000 		.4byte	0x8b
 1532 05eb 9C       		.byte	0x9c
 1533 05ec 05       		.uleb128 0x5
 1534 05ed 47435200 		.ascii	"GCR\000"
 1535 05f1 F804     		.2byte	0x4f8
 1536 05f3 10       		.byte	0x10
 1537 05f4 8B000000 		.4byte	0x8b
 1538 05f8 A0       		.byte	0xa0
 1539 05f9 01       		.uleb128 0x1
ARM GAS  C:\Users\DEVELO~1\AppData\Local\Temp\cc7EYVan.s 			page 28


 1540 05fa FE040000 		.4byte	.LASF93
 1541 05fe F904     		.2byte	0x4f9
 1542 0600 0F       		.byte	0xf
 1543 0601 7F000000 		.4byte	0x7f
 1544 0605 A4       		.byte	0xa4
 1545 0606 01       		.uleb128 0x1
 1546 0607 96000000 		.4byte	.LASF94
 1547 060b FA04     		.2byte	0x4fa
 1548 060d 10       		.byte	0x10
 1549 060e 8B000000 		.4byte	0x8b
 1550 0612 A8       		.byte	0xa8
 1551 0613 01       		.uleb128 0x1
 1552 0614 14010000 		.4byte	.LASF95
 1553 0618 FB04     		.2byte	0x4fb
 1554 061a 0F       		.byte	0xf
 1555 061b C3000000 		.4byte	0xc3
 1556 061f AC       		.byte	0xac
 1557 0620 05       		.uleb128 0x5
 1558 0621 52535200 		.ascii	"RSR\000"
 1559 0625 FC04     		.2byte	0x4fc
 1560 0627 10       		.byte	0x10
 1561 0628 8B000000 		.4byte	0x8b
 1562 062c D0       		.byte	0xd0
 1563 062d 01       		.uleb128 0x1
 1564 062e 5B050000 		.4byte	.LASF96
 1565 0632 FD04     		.2byte	0x4fd
 1566 0634 10       		.byte	0x10
 1567 0635 8B000000 		.4byte	0x8b
 1568 0639 D4       		.byte	0xd4
 1569 063a 01       		.uleb128 0x1
 1570 063b 58060000 		.4byte	.LASF97
 1571 063f FE04     		.2byte	0x4fe
 1572 0641 10       		.byte	0x10
 1573 0642 8B000000 		.4byte	0x8b
 1574 0646 D8       		.byte	0xd8
 1575 0647 01       		.uleb128 0x1
 1576 0648 D1050000 		.4byte	.LASF98
 1577 064c FF04     		.2byte	0x4ff
 1578 064e 10       		.byte	0x10
 1579 064f 8B000000 		.4byte	0x8b
 1580 0653 DC       		.byte	0xdc
 1581 0654 01       		.uleb128 0x1
 1582 0655 B3040000 		.4byte	.LASF99
 1583 0659 0005     		.2byte	0x500
 1584 065b 10       		.byte	0x10
 1585 065c 8B000000 		.4byte	0x8b
 1586 0660 E0       		.byte	0xe0
 1587 0661 01       		.uleb128 0x1
 1588 0662 A3040000 		.4byte	.LASF100
 1589 0666 0105     		.2byte	0x501
 1590 0668 10       		.byte	0x10
 1591 0669 8B000000 		.4byte	0x8b
 1592 066d E4       		.byte	0xe4
 1593 066e 01       		.uleb128 0x1
 1594 066f 65060000 		.4byte	.LASF101
 1595 0673 0205     		.2byte	0x502
 1596 0675 10       		.byte	0x10
ARM GAS  C:\Users\DEVELO~1\AppData\Local\Temp\cc7EYVan.s 			page 29


 1597 0676 8B000000 		.4byte	0x8b
 1598 067a E8       		.byte	0xe8
 1599 067b 01       		.uleb128 0x1
 1600 067c 77030000 		.4byte	.LASF102
 1601 0680 0305     		.2byte	0x503
 1602 0682 10       		.byte	0x10
 1603 0683 8B000000 		.4byte	0x8b
 1604 0687 EC       		.byte	0xec
 1605 0688 01       		.uleb128 0x1
 1606 0689 53050000 		.4byte	.LASF103
 1607 068d 0405     		.2byte	0x504
 1608 068f 10       		.byte	0x10
 1609 0690 8B000000 		.4byte	0x8b
 1610 0694 F0       		.byte	0xf0
 1611 0695 01       		.uleb128 0x1
 1612 0696 E4030000 		.4byte	.LASF104
 1613 069a 0505     		.2byte	0x505
 1614 069c 10       		.byte	0x10
 1615 069d 8B000000 		.4byte	0x8b
 1616 06a1 F4       		.byte	0xf4
 1617 06a2 01       		.uleb128 0x1
 1618 06a3 1F010000 		.4byte	.LASF105
 1619 06a7 0605     		.2byte	0x506
 1620 06a9 10       		.byte	0x10
 1621 06aa 7F000000 		.4byte	0x7f
 1622 06ae F8       		.byte	0xf8
 1623 06af 01       		.uleb128 0x1
 1624 06b0 2F050000 		.4byte	.LASF106
 1625 06b4 0705     		.2byte	0x507
 1626 06b6 10       		.byte	0x10
 1627 06b7 8B000000 		.4byte	0x8b
 1628 06bb FC       		.byte	0xfc
 1629 06bc 02       		.uleb128 0x2
 1630 06bd AB000000 		.4byte	.LASF107
 1631 06c1 0805     		.2byte	0x508
 1632 06c3 10       		.byte	0x10
 1633 06c4 8B000000 		.4byte	0x8b
 1634 06c8 0001     		.2byte	0x100
 1635 06ca 02       		.uleb128 0x2
 1636 06cb 87040000 		.4byte	.LASF108
 1637 06cf 0905     		.2byte	0x509
 1638 06d1 10       		.byte	0x10
 1639 06d2 8B000000 		.4byte	0x8b
 1640 06d6 0401     		.2byte	0x104
 1641 06d8 02       		.uleb128 0x2
 1642 06d9 BC050000 		.4byte	.LASF109
 1643 06dd 0A05     		.2byte	0x50a
 1644 06df 10       		.byte	0x10
 1645 06e0 8B000000 		.4byte	0x8b
 1646 06e4 0801     		.2byte	0x108
 1647 06e6 02       		.uleb128 0x2
 1648 06e7 91040000 		.4byte	.LASF110
 1649 06eb 0B05     		.2byte	0x50b
 1650 06ed 10       		.byte	0x10
 1651 06ee 8B000000 		.4byte	0x8b
 1652 06f2 0C01     		.2byte	0x10c
 1653 06f4 02       		.uleb128 0x2
ARM GAS  C:\Users\DEVELO~1\AppData\Local\Temp\cc7EYVan.s 			page 30


 1654 06f5 07060000 		.4byte	.LASF111
 1655 06f9 0C05     		.2byte	0x50c
 1656 06fb 10       		.byte	0x10
 1657 06fc 8B000000 		.4byte	0x8b
 1658 0700 1001     		.2byte	0x110
 1659 0702 02       		.uleb128 0x2
 1660 0703 29000000 		.4byte	.LASF112
 1661 0707 0D05     		.2byte	0x50d
 1662 0709 10       		.byte	0x10
 1663 070a 8B000000 		.4byte	0x8b
 1664 070e 1401     		.2byte	0x114
 1665 0710 02       		.uleb128 0x2
 1666 0711 A7030000 		.4byte	.LASF113
 1667 0715 0E05     		.2byte	0x50e
 1668 0717 10       		.byte	0x10
 1669 0718 8B000000 		.4byte	0x8b
 1670 071c 1801     		.2byte	0x118
 1671 071e 02       		.uleb128 0x2
 1672 071f 39050000 		.4byte	.LASF114
 1673 0723 0F05     		.2byte	0x50f
 1674 0725 10       		.byte	0x10
 1675 0726 8B000000 		.4byte	0x8b
 1676 072a 1C01     		.2byte	0x11c
 1677 072c 02       		.uleb128 0x2
 1678 072d 2A010000 		.4byte	.LASF115
 1679 0731 1005     		.2byte	0x510
 1680 0733 0F       		.byte	0xf
 1681 0734 B3000000 		.4byte	0xb3
 1682 0738 2001     		.2byte	0x120
 1683 073a 00       		.byte	0
 1684 073b 0C       		.uleb128 0xc
 1685 073c 7F020000 		.4byte	.LASF116
 1686 0740 1205     		.2byte	0x512
 1687 0742 DC030000 		.4byte	0x3dc
 1688 0746 04       		.uleb128 0x4
 1689 0747 01       		.byte	0x1
 1690 0748 02       		.byte	0x2
 1691 0749 08050000 		.4byte	.LASF117
 1692 074d 1B       		.uleb128 0x1b
 1693 074e A7000000 		.4byte	0xa7
 1694 0752 01       		.byte	0x1
 1695 0753 2B       		.byte	0x2b
 1696 0754 0A       		.byte	0xa
 1697 0755 05       		.uleb128 0x5
 1698 0756 03       		.byte	0x3
 1699 0757 00000000 		.4byte	SystemCoreClock
 1700 075b 1C       		.uleb128 0x1c
 1701 075c AB040000 		.4byte	.LASF141
 1702 0760 07       		.byte	0x7
 1703 0761 8F01     		.2byte	0x18f
 1704 0763 08       		.byte	0x8
 1705 0764 11       		.uleb128 0x11
 1706 0765 27020000 		.4byte	.LASF123
 1707 0769 E3       		.byte	0xe3
 1708 076a 00000000 		.4byte	.LFB435
 1709 076e F4010000 		.4byte	.LFE435-.LFB435
 1710 0772 01       		.uleb128 0x1
ARM GAS  C:\Users\DEVELO~1\AppData\Local\Temp\cc7EYVan.s 			page 31


 1711 0773 9C       		.byte	0x9c
 1712 0774 BF080000 		.4byte	0x8bf
 1713 0778 1D       		.uleb128 0x1d
 1714 0779 53060000 		.4byte	.LASF119
 1715 077d 01       		.byte	0x1
 1716 077e E5       		.byte	0xe5
 1717 077f 0C       		.byte	0xc
 1718 0780 7F000000 		.4byte	0x7f
 1719 0784 10000000 		.4byte	.LLST13
 1720 0788 0C000000 		.4byte	.LVUS13
 1721 078c 1E       		.uleb128 0x1e
 1722 078d F0000000 		.4byte	.LBB90
 1723 0791 32000000 		.4byte	.LBE90-.LBB90
 1724 0795 D3070000 		.4byte	0x7d3
 1725 0799 0D       		.uleb128 0xd
 1726 079a E1000000 		.4byte	.LASF120
 1727 079e 4801     		.2byte	0x148
 1728 07a0 7F000000 		.4byte	0x7f
 1729 07a4 33000000 		.4byte	.LLST18
 1730 07a8 2B000000 		.4byte	.LVUS18
 1731 07ac 0D       		.uleb128 0xd
 1732 07ad 9B040000 		.4byte	.LASF121
 1733 07b1 4901     		.2byte	0x149
 1734 07b3 7F000000 		.4byte	0x7f
 1735 07b7 60000000 		.4byte	.LLST19
 1736 07bb 58000000 		.4byte	.LVUS19
 1737 07bf 0D       		.uleb128 0xd
 1738 07c0 D1010000 		.4byte	.LASF122
 1739 07c4 4A01     		.2byte	0x14a
 1740 07c6 7F000000 		.4byte	0x7f
 1741 07ca 9B000000 		.4byte	.LLST20
 1742 07ce 85000000 		.4byte	.LVUS20
 1743 07d2 00       		.byte	0
 1744 07d3 08       		.uleb128 0x8
 1745 07d4 470A0000 		.4byte	0xa47
 1746 07d8 10000000 		.4byte	.LBI78
 1747 07dc 01       		.byte	.LVU97
 1748 07dd 4B000000 		.4byte	.LLRL14
 1749 07e1 F5       		.byte	0xf5
 1750 07e2 01080000 		.4byte	0x801
 1751 07e6 03       		.uleb128 0x3
 1752 07e7 5D0A0000 		.4byte	0xa5d
 1753 07eb 0C010000 		.4byte	.LLST15
 1754 07ef 0A010000 		.4byte	.LVUS15
 1755 07f3 03       		.uleb128 0x3
 1756 07f4 520A0000 		.4byte	0xa52
 1757 07f8 18010000 		.4byte	.LLST16
 1758 07fc 16010000 		.4byte	.LVUS16
 1759 0800 00       		.byte	0
 1760 0801 1F       		.uleb128 0x1f
 1761 0802 1A0A0000 		.4byte	0xa1a
 1762 0806 28000000 		.4byte	.LBI81
 1763 080a 02       		.byte	.LVU106
 1764 080b 57000000 		.4byte	.LLRL17
 1765 080f 01       		.byte	0x1
 1766 0810 F8       		.byte	0xf8
 1767 0811 03       		.byte	0x3
ARM GAS  C:\Users\DEVELO~1\AppData\Local\Temp\cc7EYVan.s 			page 32


 1768 0812 20       		.uleb128 0x20
 1769 0813 200A0000 		.4byte	0xa20
 1770 0817 4E000000 		.4byte	.LBI88
 1771 081b 01       		.byte	.LVU134
 1772 081c 4E000000 		.4byte	.LBB88
 1773 0820 30000000 		.4byte	.LBE88-.LBB88
 1774 0824 01       		.byte	0x1
 1775 0825 FB       		.byte	0xfb
 1776 0826 03       		.byte	0x3
 1777 0827 21       		.uleb128 0x21
 1778 0828 260A0000 		.4byte	0xa26
 1779 082c 66010000 		.4byte	.LBI91
 1780 0830 01       		.byte	.LVU308
 1781 0831 66000000 		.4byte	.LLRL21
 1782 0835 01       		.byte	0x1
 1783 0836 DD01     		.2byte	0x1dd
 1784 0838 03       		.byte	0x3
 1785 0839 58080000 		.4byte	0x858
 1786 083d 03       		.uleb128 0x3
 1787 083e 3C0A0000 		.4byte	0xa3c
 1788 0842 24010000 		.4byte	.LLST22
 1789 0846 22010000 		.4byte	.LVUS22
 1790 084a 03       		.uleb128 0x3
 1791 084b 310A0000 		.4byte	0xa31
 1792 084f 30010000 		.4byte	.LLST23
 1793 0853 2E010000 		.4byte	.LVUS23
 1794 0857 00       		.byte	0
 1795 0858 22       		.uleb128 0x22
 1796 0859 260A0000 		.4byte	0xa26
 1797 085d 84010000 		.4byte	.LBI95
 1798 0861 02       		.byte	.LVU319
 1799 0862 84010000 		.4byte	.LBB95
 1800 0866 1C000000 		.4byte	.LBE95-.LBB95
 1801 086a 01       		.byte	0x1
 1802 086b DE01     		.2byte	0x1de
 1803 086d 03       		.byte	0x3
 1804 086e 8D080000 		.4byte	0x88d
 1805 0872 03       		.uleb128 0x3
 1806 0873 3C0A0000 		.4byte	0xa3c
 1807 0877 3E010000 		.4byte	.LLST24
 1808 087b 3C010000 		.4byte	.LVUS24
 1809 087f 03       		.uleb128 0x3
 1810 0880 310A0000 		.4byte	0xa31
 1811 0884 4A010000 		.4byte	.LLST25
 1812 0888 48010000 		.4byte	.LVUS25
 1813 088c 00       		.byte	0
 1814 088d 23       		.uleb128 0x23
 1815 088e 260A0000 		.4byte	0xa26
 1816 0892 A0010000 		.4byte	.LBI97
 1817 0896 02       		.byte	.LVU328
 1818 0897 A0010000 		.4byte	.LBB97
 1819 089b 1C000000 		.4byte	.LBE97-.LBB97
 1820 089f 01       		.byte	0x1
 1821 08a0 E001     		.2byte	0x1e0
 1822 08a2 03       		.byte	0x3
 1823 08a3 03       		.uleb128 0x3
 1824 08a4 3C0A0000 		.4byte	0xa3c
ARM GAS  C:\Users\DEVELO~1\AppData\Local\Temp\cc7EYVan.s 			page 33


 1825 08a8 58010000 		.4byte	.LLST26
 1826 08ac 56010000 		.4byte	.LVUS26
 1827 08b0 03       		.uleb128 0x3
 1828 08b1 310A0000 		.4byte	0xa31
 1829 08b5 64010000 		.4byte	.LLST27
 1830 08b9 62010000 		.4byte	.LVUS27
 1831 08bd 00       		.byte	0
 1832 08be 00       		.byte	0
 1833 08bf 11       		.uleb128 0x11
 1834 08c0 00000000 		.4byte	.LASF124
 1835 08c4 96       		.byte	0x96
 1836 08c5 00000000 		.4byte	.LFB434
 1837 08c9 E4000000 		.4byte	.LFE434-.LFB434
 1838 08cd 01       		.uleb128 0x1
 1839 08ce 9C       		.byte	0x9c
 1840 08cf 1A0A0000 		.4byte	0xa1a
 1841 08d3 08       		.uleb128 0x8
 1842 08d4 AA0A0000 		.4byte	0xaaa
 1843 08d8 00000000 		.4byte	.LBI29
 1844 08dc 02       		.byte	.LVU2
 1845 08dd 0C000000 		.4byte	.LLRL0
 1846 08e1 A0       		.byte	0xa0
 1847 08e2 F4080000 		.4byte	0x8f4
 1848 08e6 03       		.uleb128 0x3
 1849 08e7 B40A0000 		.4byte	0xab4
 1850 08eb 73010000 		.4byte	.LLST1
 1851 08ef 71010000 		.4byte	.LVUS1
 1852 08f3 00       		.byte	0
 1853 08f4 08       		.uleb128 0x8
 1854 08f5 940A0000 		.4byte	0xa94
 1855 08f9 2A000000 		.4byte	.LBI35
 1856 08fd 02       		.byte	.LVU19
 1857 08fe 21000000 		.4byte	.LLRL2
 1858 0902 A1       		.byte	0xa1
 1859 0903 15090000 		.4byte	0x915
 1860 0907 03       		.uleb128 0x3
 1861 0908 9E0A0000 		.4byte	0xa9e
 1862 090c 83010000 		.4byte	.LLST3
 1863 0910 81010000 		.4byte	.LVUS3
 1864 0914 00       		.byte	0
 1865 0915 08       		.uleb128 0x8
 1866 0916 7E0A0000 		.4byte	0xa7e
 1867 091a 3E000000 		.4byte	.LBI40
 1868 091e 02       		.byte	.LVU27
 1869 091f 2D000000 		.4byte	.LLRL4
 1870 0923 A2       		.byte	0xa2
 1871 0924 36090000 		.4byte	0x936
 1872 0928 03       		.uleb128 0x3
 1873 0929 880A0000 		.4byte	0xa88
 1874 092d 90010000 		.4byte	.LLST5
 1875 0931 8E010000 		.4byte	.LVUS5
 1876 0935 00       		.byte	0
 1877 0936 08       		.uleb128 0x8
 1878 0937 680A0000 		.4byte	0xa68
 1879 093b 4E000000 		.4byte	.LBI50
 1880 093f 02       		.byte	.LVU37
 1881 0940 3F000000 		.4byte	.LLRL6
ARM GAS  C:\Users\DEVELO~1\AppData\Local\Temp\cc7EYVan.s 			page 34


 1882 0944 B1       		.byte	0xb1
 1883 0945 57090000 		.4byte	0x957
 1884 0949 03       		.uleb128 0x3
 1885 094a 720A0000 		.4byte	0xa72
 1886 094e A0010000 		.4byte	.LLST7
 1887 0952 9E010000 		.4byte	.LVUS7
 1888 0956 00       		.byte	0
 1889 0957 09       		.uleb128 0x9
 1890 0958 180B0000 		.4byte	0xb18
 1891 095c 68000000 		.4byte	.LBI55
 1892 0960 02       		.byte	.LVU45
 1893 0961 68000000 		.4byte	.LBB55
 1894 0965 14000000 		.4byte	.LBE55-.LBB55
 1895 0969 B2       		.byte	0xb2
 1896 096a 7C090000 		.4byte	0x97c
 1897 096e 03       		.uleb128 0x3
 1898 096f 210B0000 		.4byte	0xb21
 1899 0973 AE010000 		.4byte	.LLST8
 1900 0977 AC010000 		.4byte	.LVUS8
 1901 097b 00       		.byte	0
 1902 097c 09       		.uleb128 0x9
 1903 097d 020B0000 		.4byte	0xb02
 1904 0981 7C000000 		.4byte	.LBI57
 1905 0985 02       		.byte	.LVU53
 1906 0986 7C000000 		.4byte	.LBB57
 1907 098a 14000000 		.4byte	.LBE57-.LBB57
 1908 098e B3       		.byte	0xb3
 1909 098f A1090000 		.4byte	0x9a1
 1910 0993 03       		.uleb128 0x3
 1911 0994 0C0B0000 		.4byte	0xb0c
 1912 0998 BB010000 		.4byte	.LLST9
 1913 099c B9010000 		.4byte	.LVUS9
 1914 09a0 00       		.byte	0
 1915 09a1 09       		.uleb128 0x9
 1916 09a2 EC0A0000 		.4byte	0xaec
 1917 09a6 90000000 		.4byte	.LBI59
 1918 09aa 02       		.byte	.LVU61
 1919 09ab 90000000 		.4byte	.LBB59
 1920 09af 14000000 		.4byte	.LBE59-.LBB59
 1921 09b3 B4       		.byte	0xb4
 1922 09b4 C6090000 		.4byte	0x9c6
 1923 09b8 03       		.uleb128 0x3
 1924 09b9 F60A0000 		.4byte	0xaf6
 1925 09bd C8010000 		.4byte	.LLST10
 1926 09c1 C6010000 		.4byte	.LVUS10
 1927 09c5 00       		.byte	0
 1928 09c6 09       		.uleb128 0x9
 1929 09c7 D60A0000 		.4byte	0xad6
 1930 09cb A4000000 		.4byte	.LBI61
 1931 09cf 02       		.byte	.LVU69
 1932 09d0 A4000000 		.4byte	.LBB61
 1933 09d4 14000000 		.4byte	.LBE61-.LBB61
 1934 09d8 B5       		.byte	0xb5
 1935 09d9 EB090000 		.4byte	0x9eb
 1936 09dd 03       		.uleb128 0x3
 1937 09de E00A0000 		.4byte	0xae0
 1938 09e2 D5010000 		.4byte	.LLST11
ARM GAS  C:\Users\DEVELO~1\AppData\Local\Temp\cc7EYVan.s 			page 35


 1939 09e6 D3010000 		.4byte	.LVUS11
 1940 09ea 00       		.byte	0
 1941 09eb 09       		.uleb128 0x9
 1942 09ec C00A0000 		.4byte	0xac0
 1943 09f0 B8000000 		.4byte	.LBI63
 1944 09f4 02       		.byte	.LVU77
 1945 09f5 B8000000 		.4byte	.LBB63
 1946 09f9 14000000 		.4byte	.LBE63-.LBB63
 1947 09fd B6       		.byte	0xb6
 1948 09fe 100A0000 		.4byte	0xa10
 1949 0a02 03       		.uleb128 0x3
 1950 0a03 CA0A0000 		.4byte	0xaca
 1951 0a07 E2010000 		.4byte	.LLST12
 1952 0a0b E0010000 		.4byte	.LVUS12
 1953 0a0f 00       		.byte	0
 1954 0a10 24       		.uleb128 0x24
 1955 0a11 D2000000 		.4byte	.LVL10
 1956 0a15 5B070000 		.4byte	0x75b
 1957 0a19 00       		.byte	0
 1958 0a1a 12       		.uleb128 0x12
 1959 0a1b 20040000 		.4byte	.LASF125
 1960 0a1f 62       		.byte	0x62
 1961 0a20 12       		.uleb128 0x12
 1962 0a21 A7010000 		.4byte	.LASF126
 1963 0a25 3A       		.byte	0x3a
 1964 0a26 13       		.uleb128 0x13
 1965 0a27 73060000 		.4byte	.LASF128
 1966 0a2b A302     		.2byte	0x2a3
 1967 0a2d 470A0000 		.4byte	0xa47
 1968 0a31 14       		.uleb128 0x14
 1969 0a32 11020000 		.4byte	.LASF127
 1970 0a36 A302     		.2byte	0x2a3
 1971 0a38 7F000000 		.4byte	0x7f
 1972 0a3c 15       		.uleb128 0x15
 1973 0a3d 6C7000   		.ascii	"lp\000"
 1974 0a40 A302     		.2byte	0x2a3
 1975 0a42 46070000 		.4byte	0x746
 1976 0a46 00       		.byte	0
 1977 0a47 13       		.uleb128 0x13
 1978 0a48 EC030000 		.4byte	.LASF129
 1979 0a4c F101     		.2byte	0x1f1
 1980 0a4e 680A0000 		.4byte	0xa68
 1981 0a52 14       		.uleb128 0x14
 1982 0a53 11020000 		.4byte	.LASF127
 1983 0a57 F101     		.2byte	0x1f1
 1984 0a59 7F000000 		.4byte	0x7f
 1985 0a5d 15       		.uleb128 0x15
 1986 0a5e 6C7000   		.ascii	"lp\000"
 1987 0a61 F101     		.2byte	0x1f1
 1988 0a63 46070000 		.4byte	0x746
 1989 0a67 00       		.byte	0
 1990 0a68 07       		.uleb128 0x7
 1991 0a69 78040000 		.4byte	.LASF130
 1992 0a6d 79       		.byte	0x79
 1993 0a6e 7E0A0000 		.4byte	0xa7e
 1994 0a72 06       		.uleb128 0x6
 1995 0a73 11020000 		.4byte	.LASF127
ARM GAS  C:\Users\DEVELO~1\AppData\Local\Temp\cc7EYVan.s 			page 36


 1996 0a77 79       		.byte	0x79
 1997 0a78 2E       		.byte	0x2e
 1998 0a79 7F000000 		.4byte	0x7f
 1999 0a7d 00       		.byte	0
 2000 0a7e 07       		.uleb128 0x7
 2001 0a7f 69040000 		.4byte	.LASF131
 2002 0a83 71       		.byte	0x71
 2003 0a84 940A0000 		.4byte	0xa94
 2004 0a88 06       		.uleb128 0x6
 2005 0a89 11020000 		.4byte	.LASF127
 2006 0a8d 71       		.byte	0x71
 2007 0a8e 2E       		.byte	0x2e
 2008 0a8f 7F000000 		.4byte	0x7f
 2009 0a93 00       		.byte	0
 2010 0a94 07       		.uleb128 0x7
 2011 0a95 5A040000 		.4byte	.LASF132
 2012 0a99 69       		.byte	0x69
 2013 0a9a AA0A0000 		.4byte	0xaaa
 2014 0a9e 06       		.uleb128 0x6
 2015 0a9f 11020000 		.4byte	.LASF127
 2016 0aa3 69       		.byte	0x69
 2017 0aa4 2E       		.byte	0x2e
 2018 0aa5 7F000000 		.4byte	0x7f
 2019 0aa9 00       		.byte	0
 2020 0aaa 07       		.uleb128 0x7
 2021 0aab 4B040000 		.4byte	.LASF133
 2022 0aaf 61       		.byte	0x61
 2023 0ab0 C00A0000 		.4byte	0xac0
 2024 0ab4 06       		.uleb128 0x6
 2025 0ab5 11020000 		.4byte	.LASF127
 2026 0ab9 61       		.byte	0x61
 2027 0aba 2E       		.byte	0x2e
 2028 0abb 7F000000 		.4byte	0x7f
 2029 0abf 00       		.byte	0
 2030 0ac0 07       		.uleb128 0x7
 2031 0ac1 9C000000 		.4byte	.LASF134
 2032 0ac5 59       		.byte	0x59
 2033 0ac6 D60A0000 		.4byte	0xad6
 2034 0aca 06       		.uleb128 0x6
 2035 0acb 11020000 		.4byte	.LASF127
 2036 0acf 59       		.byte	0x59
 2037 0ad0 2E       		.byte	0x2e
 2038 0ad1 7F000000 		.4byte	0x7f
 2039 0ad5 00       		.byte	0
 2040 0ad6 07       		.uleb128 0x7
 2041 0ad7 63050000 		.4byte	.LASF135
 2042 0adb 51       		.byte	0x51
 2043 0adc EC0A0000 		.4byte	0xaec
 2044 0ae0 06       		.uleb128 0x6
 2045 0ae1 11020000 		.4byte	.LASF127
 2046 0ae5 51       		.byte	0x51
 2047 0ae6 2E       		.byte	0x2e
 2048 0ae7 7F000000 		.4byte	0x7f
 2049 0aeb 00       		.byte	0
 2050 0aec 07       		.uleb128 0x7
 2051 0aed 87000000 		.4byte	.LASF136
 2052 0af1 49       		.byte	0x49
ARM GAS  C:\Users\DEVELO~1\AppData\Local\Temp\cc7EYVan.s 			page 37


 2053 0af2 020B0000 		.4byte	0xb02
 2054 0af6 06       		.uleb128 0x6
 2055 0af7 11020000 		.4byte	.LASF127
 2056 0afb 49       		.byte	0x49
 2057 0afc 2E       		.byte	0x2e
 2058 0afd 7F000000 		.4byte	0x7f
 2059 0b01 00       		.byte	0
 2060 0b02 07       		.uleb128 0x7
 2061 0b03 21060000 		.4byte	.LASF137
 2062 0b07 41       		.byte	0x41
 2063 0b08 180B0000 		.4byte	0xb18
 2064 0b0c 06       		.uleb128 0x6
 2065 0b0d 11020000 		.4byte	.LASF127
 2066 0b11 41       		.byte	0x41
 2067 0b12 2F       		.byte	0x2f
 2068 0b13 7F000000 		.4byte	0x7f
 2069 0b17 00       		.byte	0
 2070 0b18 25       		.uleb128 0x25
 2071 0b19 31060000 		.4byte	.LASF142
 2072 0b1d 02       		.byte	0x2
 2073 0b1e 39       		.byte	0x39
 2074 0b1f 16       		.byte	0x16
 2075 0b20 03       		.byte	0x3
 2076 0b21 06       		.uleb128 0x6
 2077 0b22 11020000 		.4byte	.LASF127
 2078 0b26 39       		.byte	0x39
 2079 0b27 2F       		.byte	0x2f
 2080 0b28 7F000000 		.4byte	0x7f
 2081 0b2c 00       		.byte	0
 2082 0b2d 00       		.byte	0
 2083              		.section	.debug_abbrev,"",%progbits
 2084              	.Ldebug_abbrev0:
 2085 0000 01       		.uleb128 0x1
 2086 0001 0D       		.uleb128 0xd
 2087 0002 00       		.byte	0
 2088 0003 03       		.uleb128 0x3
 2089 0004 0E       		.uleb128 0xe
 2090 0005 3A       		.uleb128 0x3a
 2091 0006 21       		.uleb128 0x21
 2092 0007 05       		.sleb128 5
 2093 0008 3B       		.uleb128 0x3b
 2094 0009 05       		.uleb128 0x5
 2095 000a 39       		.uleb128 0x39
 2096 000b 0B       		.uleb128 0xb
 2097 000c 49       		.uleb128 0x49
 2098 000d 13       		.uleb128 0x13
 2099 000e 38       		.uleb128 0x38
 2100 000f 0B       		.uleb128 0xb
 2101 0010 00       		.byte	0
 2102 0011 00       		.byte	0
 2103 0012 02       		.uleb128 0x2
 2104 0013 0D       		.uleb128 0xd
 2105 0014 00       		.byte	0
 2106 0015 03       		.uleb128 0x3
 2107 0016 0E       		.uleb128 0xe
 2108 0017 3A       		.uleb128 0x3a
 2109 0018 21       		.uleb128 0x21
ARM GAS  C:\Users\DEVELO~1\AppData\Local\Temp\cc7EYVan.s 			page 38


 2110 0019 05       		.sleb128 5
 2111 001a 3B       		.uleb128 0x3b
 2112 001b 05       		.uleb128 0x5
 2113 001c 39       		.uleb128 0x39
 2114 001d 0B       		.uleb128 0xb
 2115 001e 49       		.uleb128 0x49
 2116 001f 13       		.uleb128 0x13
 2117 0020 38       		.uleb128 0x38
 2118 0021 05       		.uleb128 0x5
 2119 0022 00       		.byte	0
 2120 0023 00       		.byte	0
 2121 0024 03       		.uleb128 0x3
 2122 0025 05       		.uleb128 0x5
 2123 0026 00       		.byte	0
 2124 0027 31       		.uleb128 0x31
 2125 0028 13       		.uleb128 0x13
 2126 0029 02       		.uleb128 0x2
 2127 002a 17       		.uleb128 0x17
 2128 002b B742     		.uleb128 0x2137
 2129 002d 17       		.uleb128 0x17
 2130 002e 00       		.byte	0
 2131 002f 00       		.byte	0
 2132 0030 04       		.uleb128 0x4
 2133 0031 24       		.uleb128 0x24
 2134 0032 00       		.byte	0
 2135 0033 0B       		.uleb128 0xb
 2136 0034 0B       		.uleb128 0xb
 2137 0035 3E       		.uleb128 0x3e
 2138 0036 0B       		.uleb128 0xb
 2139 0037 03       		.uleb128 0x3
 2140 0038 0E       		.uleb128 0xe
 2141 0039 00       		.byte	0
 2142 003a 00       		.byte	0
 2143 003b 05       		.uleb128 0x5
 2144 003c 0D       		.uleb128 0xd
 2145 003d 00       		.byte	0
 2146 003e 03       		.uleb128 0x3
 2147 003f 08       		.uleb128 0x8
 2148 0040 3A       		.uleb128 0x3a
 2149 0041 21       		.uleb128 0x21
 2150 0042 05       		.sleb128 5
 2151 0043 3B       		.uleb128 0x3b
 2152 0044 05       		.uleb128 0x5
 2153 0045 39       		.uleb128 0x39
 2154 0046 0B       		.uleb128 0xb
 2155 0047 49       		.uleb128 0x49
 2156 0048 13       		.uleb128 0x13
 2157 0049 38       		.uleb128 0x38
 2158 004a 0B       		.uleb128 0xb
 2159 004b 00       		.byte	0
 2160 004c 00       		.byte	0
 2161 004d 06       		.uleb128 0x6
 2162 004e 05       		.uleb128 0x5
 2163 004f 00       		.byte	0
 2164 0050 03       		.uleb128 0x3
 2165 0051 0E       		.uleb128 0xe
 2166 0052 3A       		.uleb128 0x3a
ARM GAS  C:\Users\DEVELO~1\AppData\Local\Temp\cc7EYVan.s 			page 39


 2167 0053 21       		.uleb128 0x21
 2168 0054 02       		.sleb128 2
 2169 0055 3B       		.uleb128 0x3b
 2170 0056 0B       		.uleb128 0xb
 2171 0057 39       		.uleb128 0x39
 2172 0058 0B       		.uleb128 0xb
 2173 0059 49       		.uleb128 0x49
 2174 005a 13       		.uleb128 0x13
 2175 005b 00       		.byte	0
 2176 005c 00       		.byte	0
 2177 005d 07       		.uleb128 0x7
 2178 005e 2E       		.uleb128 0x2e
 2179 005f 01       		.byte	0x1
 2180 0060 03       		.uleb128 0x3
 2181 0061 0E       		.uleb128 0xe
 2182 0062 3A       		.uleb128 0x3a
 2183 0063 21       		.uleb128 0x21
 2184 0064 02       		.sleb128 2
 2185 0065 3B       		.uleb128 0x3b
 2186 0066 0B       		.uleb128 0xb
 2187 0067 39       		.uleb128 0x39
 2188 0068 21       		.uleb128 0x21
 2189 0069 16       		.sleb128 22
 2190 006a 27       		.uleb128 0x27
 2191 006b 19       		.uleb128 0x19
 2192 006c 20       		.uleb128 0x20
 2193 006d 21       		.uleb128 0x21
 2194 006e 03       		.sleb128 3
 2195 006f 01       		.uleb128 0x1
 2196 0070 13       		.uleb128 0x13
 2197 0071 00       		.byte	0
 2198 0072 00       		.byte	0
 2199 0073 08       		.uleb128 0x8
 2200 0074 1D       		.uleb128 0x1d
 2201 0075 01       		.byte	0x1
 2202 0076 31       		.uleb128 0x31
 2203 0077 13       		.uleb128 0x13
 2204 0078 52       		.uleb128 0x52
 2205 0079 01       		.uleb128 0x1
 2206 007a B842     		.uleb128 0x2138
 2207 007c 0B       		.uleb128 0xb
 2208 007d 55       		.uleb128 0x55
 2209 007e 17       		.uleb128 0x17
 2210 007f 58       		.uleb128 0x58
 2211 0080 21       		.uleb128 0x21
 2212 0081 01       		.sleb128 1
 2213 0082 59       		.uleb128 0x59
 2214 0083 0B       		.uleb128 0xb
 2215 0084 57       		.uleb128 0x57
 2216 0085 21       		.uleb128 0x21
 2217 0086 03       		.sleb128 3
 2218 0087 01       		.uleb128 0x1
 2219 0088 13       		.uleb128 0x13
 2220 0089 00       		.byte	0
 2221 008a 00       		.byte	0
 2222 008b 09       		.uleb128 0x9
 2223 008c 1D       		.uleb128 0x1d
ARM GAS  C:\Users\DEVELO~1\AppData\Local\Temp\cc7EYVan.s 			page 40


 2224 008d 01       		.byte	0x1
 2225 008e 31       		.uleb128 0x31
 2226 008f 13       		.uleb128 0x13
 2227 0090 52       		.uleb128 0x52
 2228 0091 01       		.uleb128 0x1
 2229 0092 B842     		.uleb128 0x2138
 2230 0094 0B       		.uleb128 0xb
 2231 0095 11       		.uleb128 0x11
 2232 0096 01       		.uleb128 0x1
 2233 0097 12       		.uleb128 0x12
 2234 0098 06       		.uleb128 0x6
 2235 0099 58       		.uleb128 0x58
 2236 009a 21       		.uleb128 0x21
 2237 009b 01       		.sleb128 1
 2238 009c 59       		.uleb128 0x59
 2239 009d 0B       		.uleb128 0xb
 2240 009e 57       		.uleb128 0x57
 2241 009f 21       		.uleb128 0x21
 2242 00a0 03       		.sleb128 3
 2243 00a1 01       		.uleb128 0x1
 2244 00a2 13       		.uleb128 0x13
 2245 00a3 00       		.byte	0
 2246 00a4 00       		.byte	0
 2247 00a5 0A       		.uleb128 0xa
 2248 00a6 01       		.uleb128 0x1
 2249 00a7 01       		.byte	0x1
 2250 00a8 49       		.uleb128 0x49
 2251 00a9 13       		.uleb128 0x13
 2252 00aa 01       		.uleb128 0x1
 2253 00ab 13       		.uleb128 0x13
 2254 00ac 00       		.byte	0
 2255 00ad 00       		.byte	0
 2256 00ae 0B       		.uleb128 0xb
 2257 00af 21       		.uleb128 0x21
 2258 00b0 00       		.byte	0
 2259 00b1 49       		.uleb128 0x49
 2260 00b2 13       		.uleb128 0x13
 2261 00b3 2F       		.uleb128 0x2f
 2262 00b4 0B       		.uleb128 0xb
 2263 00b5 00       		.byte	0
 2264 00b6 00       		.byte	0
 2265 00b7 0C       		.uleb128 0xc
 2266 00b8 16       		.uleb128 0x16
 2267 00b9 00       		.byte	0
 2268 00ba 03       		.uleb128 0x3
 2269 00bb 0E       		.uleb128 0xe
 2270 00bc 3A       		.uleb128 0x3a
 2271 00bd 21       		.uleb128 0x21
 2272 00be 05       		.sleb128 5
 2273 00bf 3B       		.uleb128 0x3b
 2274 00c0 05       		.uleb128 0x5
 2275 00c1 39       		.uleb128 0x39
 2276 00c2 21       		.uleb128 0x21
 2277 00c3 03       		.sleb128 3
 2278 00c4 49       		.uleb128 0x49
 2279 00c5 13       		.uleb128 0x13
 2280 00c6 00       		.byte	0
ARM GAS  C:\Users\DEVELO~1\AppData\Local\Temp\cc7EYVan.s 			page 41


 2281 00c7 00       		.byte	0
 2282 00c8 0D       		.uleb128 0xd
 2283 00c9 34       		.uleb128 0x34
 2284 00ca 00       		.byte	0
 2285 00cb 03       		.uleb128 0x3
 2286 00cc 0E       		.uleb128 0xe
 2287 00cd 3A       		.uleb128 0x3a
 2288 00ce 21       		.uleb128 0x21
 2289 00cf 01       		.sleb128 1
 2290 00d0 3B       		.uleb128 0x3b
 2291 00d1 05       		.uleb128 0x5
 2292 00d2 39       		.uleb128 0x39
 2293 00d3 21       		.uleb128 0x21
 2294 00d4 0E       		.sleb128 14
 2295 00d5 49       		.uleb128 0x49
 2296 00d6 13       		.uleb128 0x13
 2297 00d7 02       		.uleb128 0x2
 2298 00d8 17       		.uleb128 0x17
 2299 00d9 B742     		.uleb128 0x2137
 2300 00db 17       		.uleb128 0x17
 2301 00dc 00       		.byte	0
 2302 00dd 00       		.byte	0
 2303 00de 0E       		.uleb128 0xe
 2304 00df 16       		.uleb128 0x16
 2305 00e0 00       		.byte	0
 2306 00e1 03       		.uleb128 0x3
 2307 00e2 0E       		.uleb128 0xe
 2308 00e3 3A       		.uleb128 0x3a
 2309 00e4 0B       		.uleb128 0xb
 2310 00e5 3B       		.uleb128 0x3b
 2311 00e6 0B       		.uleb128 0xb
 2312 00e7 39       		.uleb128 0x39
 2313 00e8 0B       		.uleb128 0xb
 2314 00e9 49       		.uleb128 0x49
 2315 00ea 13       		.uleb128 0x13
 2316 00eb 00       		.byte	0
 2317 00ec 00       		.byte	0
 2318 00ed 0F       		.uleb128 0xf
 2319 00ee 13       		.uleb128 0x13
 2320 00ef 01       		.byte	0x1
 2321 00f0 0B       		.uleb128 0xb
 2322 00f1 05       		.uleb128 0x5
 2323 00f2 3A       		.uleb128 0x3a
 2324 00f3 21       		.uleb128 0x21
 2325 00f4 05       		.sleb128 5
 2326 00f5 3B       		.uleb128 0x3b
 2327 00f6 05       		.uleb128 0x5
 2328 00f7 39       		.uleb128 0x39
 2329 00f8 21       		.uleb128 0x21
 2330 00f9 09       		.sleb128 9
 2331 00fa 01       		.uleb128 0x1
 2332 00fb 13       		.uleb128 0x13
 2333 00fc 00       		.byte	0
 2334 00fd 00       		.byte	0
 2335 00fe 10       		.uleb128 0x10
 2336 00ff 0D       		.uleb128 0xd
 2337 0100 00       		.byte	0
ARM GAS  C:\Users\DEVELO~1\AppData\Local\Temp\cc7EYVan.s 			page 42


 2338 0101 03       		.uleb128 0x3
 2339 0102 08       		.uleb128 0x8
 2340 0103 3A       		.uleb128 0x3a
 2341 0104 21       		.uleb128 0x21
 2342 0105 05       		.sleb128 5
 2343 0106 3B       		.uleb128 0x3b
 2344 0107 05       		.uleb128 0x5
 2345 0108 39       		.uleb128 0x39
 2346 0109 21       		.uleb128 0x21
 2347 010a 11       		.sleb128 17
 2348 010b 49       		.uleb128 0x49
 2349 010c 13       		.uleb128 0x13
 2350 010d 38       		.uleb128 0x38
 2351 010e 05       		.uleb128 0x5
 2352 010f 00       		.byte	0
 2353 0110 00       		.byte	0
 2354 0111 11       		.uleb128 0x11
 2355 0112 2E       		.uleb128 0x2e
 2356 0113 01       		.byte	0x1
 2357 0114 3F       		.uleb128 0x3f
 2358 0115 19       		.uleb128 0x19
 2359 0116 03       		.uleb128 0x3
 2360 0117 0E       		.uleb128 0xe
 2361 0118 3A       		.uleb128 0x3a
 2362 0119 21       		.uleb128 0x21
 2363 011a 01       		.sleb128 1
 2364 011b 3B       		.uleb128 0x3b
 2365 011c 0B       		.uleb128 0xb
 2366 011d 39       		.uleb128 0x39
 2367 011e 21       		.uleb128 0x21
 2368 011f 06       		.sleb128 6
 2369 0120 27       		.uleb128 0x27
 2370 0121 19       		.uleb128 0x19
 2371 0122 11       		.uleb128 0x11
 2372 0123 01       		.uleb128 0x1
 2373 0124 12       		.uleb128 0x12
 2374 0125 06       		.uleb128 0x6
 2375 0126 40       		.uleb128 0x40
 2376 0127 18       		.uleb128 0x18
 2377 0128 7A       		.uleb128 0x7a
 2378 0129 19       		.uleb128 0x19
 2379 012a 01       		.uleb128 0x1
 2380 012b 13       		.uleb128 0x13
 2381 012c 00       		.byte	0
 2382 012d 00       		.byte	0
 2383 012e 12       		.uleb128 0x12
 2384 012f 2E       		.uleb128 0x2e
 2385 0130 00       		.byte	0
 2386 0131 03       		.uleb128 0x3
 2387 0132 0E       		.uleb128 0xe
 2388 0133 3A       		.uleb128 0x3a
 2389 0134 21       		.uleb128 0x21
 2390 0135 01       		.sleb128 1
 2391 0136 3B       		.uleb128 0x3b
 2392 0137 0B       		.uleb128 0xb
 2393 0138 39       		.uleb128 0x39
 2394 0139 21       		.uleb128 0x21
ARM GAS  C:\Users\DEVELO~1\AppData\Local\Temp\cc7EYVan.s 			page 43


 2395 013a 14       		.sleb128 20
 2396 013b 27       		.uleb128 0x27
 2397 013c 19       		.uleb128 0x19
 2398 013d 20       		.uleb128 0x20
 2399 013e 21       		.uleb128 0x21
 2400 013f 03       		.sleb128 3
 2401 0140 00       		.byte	0
 2402 0141 00       		.byte	0
 2403 0142 13       		.uleb128 0x13
 2404 0143 2E       		.uleb128 0x2e
 2405 0144 01       		.byte	0x1
 2406 0145 03       		.uleb128 0x3
 2407 0146 0E       		.uleb128 0xe
 2408 0147 3A       		.uleb128 0x3a
 2409 0148 21       		.uleb128 0x21
 2410 0149 02       		.sleb128 2
 2411 014a 3B       		.uleb128 0x3b
 2412 014b 05       		.uleb128 0x5
 2413 014c 39       		.uleb128 0x39
 2414 014d 21       		.uleb128 0x21
 2415 014e 16       		.sleb128 22
 2416 014f 27       		.uleb128 0x27
 2417 0150 19       		.uleb128 0x19
 2418 0151 20       		.uleb128 0x20
 2419 0152 21       		.uleb128 0x21
 2420 0153 03       		.sleb128 3
 2421 0154 01       		.uleb128 0x1
 2422 0155 13       		.uleb128 0x13
 2423 0156 00       		.byte	0
 2424 0157 00       		.byte	0
 2425 0158 14       		.uleb128 0x14
 2426 0159 05       		.uleb128 0x5
 2427 015a 00       		.byte	0
 2428 015b 03       		.uleb128 0x3
 2429 015c 0E       		.uleb128 0xe
 2430 015d 3A       		.uleb128 0x3a
 2431 015e 21       		.uleb128 0x21
 2432 015f 02       		.sleb128 2
 2433 0160 3B       		.uleb128 0x3b
 2434 0161 05       		.uleb128 0x5
 2435 0162 39       		.uleb128 0x39
 2436 0163 21       		.uleb128 0x21
 2437 0164 2D       		.sleb128 45
 2438 0165 49       		.uleb128 0x49
 2439 0166 13       		.uleb128 0x13
 2440 0167 00       		.byte	0
 2441 0168 00       		.byte	0
 2442 0169 15       		.uleb128 0x15
 2443 016a 05       		.uleb128 0x5
 2444 016b 00       		.byte	0
 2445 016c 03       		.uleb128 0x3
 2446 016d 08       		.uleb128 0x8
 2447 016e 3A       		.uleb128 0x3a
 2448 016f 21       		.uleb128 0x21
 2449 0170 02       		.sleb128 2
 2450 0171 3B       		.uleb128 0x3b
 2451 0172 05       		.uleb128 0x5
ARM GAS  C:\Users\DEVELO~1\AppData\Local\Temp\cc7EYVan.s 			page 44


 2452 0173 39       		.uleb128 0x39
 2453 0174 21       		.uleb128 0x21
 2454 0175 38       		.sleb128 56
 2455 0176 49       		.uleb128 0x49
 2456 0177 13       		.uleb128 0x13
 2457 0178 00       		.byte	0
 2458 0179 00       		.byte	0
 2459 017a 16       		.uleb128 0x16
 2460 017b 11       		.uleb128 0x11
 2461 017c 01       		.byte	0x1
 2462 017d 25       		.uleb128 0x25
 2463 017e 0E       		.uleb128 0xe
 2464 017f 13       		.uleb128 0x13
 2465 0180 0B       		.uleb128 0xb
 2466 0181 03       		.uleb128 0x3
 2467 0182 0E       		.uleb128 0xe
 2468 0183 1B       		.uleb128 0x1b
 2469 0184 0E       		.uleb128 0xe
 2470 0185 55       		.uleb128 0x55
 2471 0186 17       		.uleb128 0x17
 2472 0187 11       		.uleb128 0x11
 2473 0188 01       		.uleb128 0x1
 2474 0189 10       		.uleb128 0x10
 2475 018a 17       		.uleb128 0x17
 2476 018b 00       		.byte	0
 2477 018c 00       		.byte	0
 2478 018d 17       		.uleb128 0x17
 2479 018e 24       		.uleb128 0x24
 2480 018f 00       		.byte	0
 2481 0190 0B       		.uleb128 0xb
 2482 0191 0B       		.uleb128 0xb
 2483 0192 3E       		.uleb128 0x3e
 2484 0193 0B       		.uleb128 0xb
 2485 0194 03       		.uleb128 0x3
 2486 0195 08       		.uleb128 0x8
 2487 0196 00       		.byte	0
 2488 0197 00       		.byte	0
 2489 0198 18       		.uleb128 0x18
 2490 0199 35       		.uleb128 0x35
 2491 019a 00       		.byte	0
 2492 019b 49       		.uleb128 0x49
 2493 019c 13       		.uleb128 0x13
 2494 019d 00       		.byte	0
 2495 019e 00       		.byte	0
 2496 019f 19       		.uleb128 0x19
 2497 01a0 34       		.uleb128 0x34
 2498 01a1 00       		.byte	0
 2499 01a2 03       		.uleb128 0x3
 2500 01a3 0E       		.uleb128 0xe
 2501 01a4 3A       		.uleb128 0x3a
 2502 01a5 0B       		.uleb128 0xb
 2503 01a6 3B       		.uleb128 0x3b
 2504 01a7 0B       		.uleb128 0xb
 2505 01a8 39       		.uleb128 0x39
 2506 01a9 0B       		.uleb128 0xb
 2507 01aa 49       		.uleb128 0x49
 2508 01ab 13       		.uleb128 0x13
ARM GAS  C:\Users\DEVELO~1\AppData\Local\Temp\cc7EYVan.s 			page 45


 2509 01ac 3F       		.uleb128 0x3f
 2510 01ad 19       		.uleb128 0x19
 2511 01ae 3C       		.uleb128 0x3c
 2512 01af 19       		.uleb128 0x19
 2513 01b0 00       		.byte	0
 2514 01b1 00       		.byte	0
 2515 01b2 1A       		.uleb128 0x1a
 2516 01b3 13       		.uleb128 0x13
 2517 01b4 01       		.byte	0x1
 2518 01b5 0B       		.uleb128 0xb
 2519 01b6 0B       		.uleb128 0xb
 2520 01b7 3A       		.uleb128 0x3a
 2521 01b8 0B       		.uleb128 0xb
 2522 01b9 3B       		.uleb128 0x3b
 2523 01ba 05       		.uleb128 0x5
 2524 01bb 39       		.uleb128 0x39
 2525 01bc 0B       		.uleb128 0xb
 2526 01bd 01       		.uleb128 0x1
 2527 01be 13       		.uleb128 0x13
 2528 01bf 00       		.byte	0
 2529 01c0 00       		.byte	0
 2530 01c1 1B       		.uleb128 0x1b
 2531 01c2 34       		.uleb128 0x34
 2532 01c3 00       		.byte	0
 2533 01c4 47       		.uleb128 0x47
 2534 01c5 13       		.uleb128 0x13
 2535 01c6 3A       		.uleb128 0x3a
 2536 01c7 0B       		.uleb128 0xb
 2537 01c8 3B       		.uleb128 0x3b
 2538 01c9 0B       		.uleb128 0xb
 2539 01ca 39       		.uleb128 0x39
 2540 01cb 0B       		.uleb128 0xb
 2541 01cc 02       		.uleb128 0x2
 2542 01cd 18       		.uleb128 0x18
 2543 01ce 00       		.byte	0
 2544 01cf 00       		.byte	0
 2545 01d0 1C       		.uleb128 0x1c
 2546 01d1 2E       		.uleb128 0x2e
 2547 01d2 00       		.byte	0
 2548 01d3 3F       		.uleb128 0x3f
 2549 01d4 19       		.uleb128 0x19
 2550 01d5 03       		.uleb128 0x3
 2551 01d6 0E       		.uleb128 0xe
 2552 01d7 3A       		.uleb128 0x3a
 2553 01d8 0B       		.uleb128 0xb
 2554 01d9 3B       		.uleb128 0x3b
 2555 01da 05       		.uleb128 0x5
 2556 01db 39       		.uleb128 0x39
 2557 01dc 0B       		.uleb128 0xb
 2558 01dd 27       		.uleb128 0x27
 2559 01de 19       		.uleb128 0x19
 2560 01df 3C       		.uleb128 0x3c
 2561 01e0 19       		.uleb128 0x19
 2562 01e1 00       		.byte	0
 2563 01e2 00       		.byte	0
 2564 01e3 1D       		.uleb128 0x1d
 2565 01e4 34       		.uleb128 0x34
ARM GAS  C:\Users\DEVELO~1\AppData\Local\Temp\cc7EYVan.s 			page 46


 2566 01e5 00       		.byte	0
 2567 01e6 03       		.uleb128 0x3
 2568 01e7 0E       		.uleb128 0xe
 2569 01e8 3A       		.uleb128 0x3a
 2570 01e9 0B       		.uleb128 0xb
 2571 01ea 3B       		.uleb128 0x3b
 2572 01eb 0B       		.uleb128 0xb
 2573 01ec 39       		.uleb128 0x39
 2574 01ed 0B       		.uleb128 0xb
 2575 01ee 49       		.uleb128 0x49
 2576 01ef 13       		.uleb128 0x13
 2577 01f0 02       		.uleb128 0x2
 2578 01f1 17       		.uleb128 0x17
 2579 01f2 B742     		.uleb128 0x2137
 2580 01f4 17       		.uleb128 0x17
 2581 01f5 00       		.byte	0
 2582 01f6 00       		.byte	0
 2583 01f7 1E       		.uleb128 0x1e
 2584 01f8 0B       		.uleb128 0xb
 2585 01f9 01       		.byte	0x1
 2586 01fa 11       		.uleb128 0x11
 2587 01fb 01       		.uleb128 0x1
 2588 01fc 12       		.uleb128 0x12
 2589 01fd 06       		.uleb128 0x6
 2590 01fe 01       		.uleb128 0x1
 2591 01ff 13       		.uleb128 0x13
 2592 0200 00       		.byte	0
 2593 0201 00       		.byte	0
 2594 0202 1F       		.uleb128 0x1f
 2595 0203 1D       		.uleb128 0x1d
 2596 0204 00       		.byte	0
 2597 0205 31       		.uleb128 0x31
 2598 0206 13       		.uleb128 0x13
 2599 0207 52       		.uleb128 0x52
 2600 0208 01       		.uleb128 0x1
 2601 0209 B842     		.uleb128 0x2138
 2602 020b 0B       		.uleb128 0xb
 2603 020c 55       		.uleb128 0x55
 2604 020d 17       		.uleb128 0x17
 2605 020e 58       		.uleb128 0x58
 2606 020f 0B       		.uleb128 0xb
 2607 0210 59       		.uleb128 0x59
 2608 0211 0B       		.uleb128 0xb
 2609 0212 57       		.uleb128 0x57
 2610 0213 0B       		.uleb128 0xb
 2611 0214 00       		.byte	0
 2612 0215 00       		.byte	0
 2613 0216 20       		.uleb128 0x20
 2614 0217 1D       		.uleb128 0x1d
 2615 0218 00       		.byte	0
 2616 0219 31       		.uleb128 0x31
 2617 021a 13       		.uleb128 0x13
 2618 021b 52       		.uleb128 0x52
 2619 021c 01       		.uleb128 0x1
 2620 021d B842     		.uleb128 0x2138
 2621 021f 0B       		.uleb128 0xb
 2622 0220 11       		.uleb128 0x11
ARM GAS  C:\Users\DEVELO~1\AppData\Local\Temp\cc7EYVan.s 			page 47


 2623 0221 01       		.uleb128 0x1
 2624 0222 12       		.uleb128 0x12
 2625 0223 06       		.uleb128 0x6
 2626 0224 58       		.uleb128 0x58
 2627 0225 0B       		.uleb128 0xb
 2628 0226 59       		.uleb128 0x59
 2629 0227 0B       		.uleb128 0xb
 2630 0228 57       		.uleb128 0x57
 2631 0229 0B       		.uleb128 0xb
 2632 022a 00       		.byte	0
 2633 022b 00       		.byte	0
 2634 022c 21       		.uleb128 0x21
 2635 022d 1D       		.uleb128 0x1d
 2636 022e 01       		.byte	0x1
 2637 022f 31       		.uleb128 0x31
 2638 0230 13       		.uleb128 0x13
 2639 0231 52       		.uleb128 0x52
 2640 0232 01       		.uleb128 0x1
 2641 0233 B842     		.uleb128 0x2138
 2642 0235 0B       		.uleb128 0xb
 2643 0236 55       		.uleb128 0x55
 2644 0237 17       		.uleb128 0x17
 2645 0238 58       		.uleb128 0x58
 2646 0239 0B       		.uleb128 0xb
 2647 023a 59       		.uleb128 0x59
 2648 023b 05       		.uleb128 0x5
 2649 023c 57       		.uleb128 0x57
 2650 023d 0B       		.uleb128 0xb
 2651 023e 01       		.uleb128 0x1
 2652 023f 13       		.uleb128 0x13
 2653 0240 00       		.byte	0
 2654 0241 00       		.byte	0
 2655 0242 22       		.uleb128 0x22
 2656 0243 1D       		.uleb128 0x1d
 2657 0244 01       		.byte	0x1
 2658 0245 31       		.uleb128 0x31
 2659 0246 13       		.uleb128 0x13
 2660 0247 52       		.uleb128 0x52
 2661 0248 01       		.uleb128 0x1
 2662 0249 B842     		.uleb128 0x2138
 2663 024b 0B       		.uleb128 0xb
 2664 024c 11       		.uleb128 0x11
 2665 024d 01       		.uleb128 0x1
 2666 024e 12       		.uleb128 0x12
 2667 024f 06       		.uleb128 0x6
 2668 0250 58       		.uleb128 0x58
 2669 0251 0B       		.uleb128 0xb
 2670 0252 59       		.uleb128 0x59
 2671 0253 05       		.uleb128 0x5
 2672 0254 57       		.uleb128 0x57
 2673 0255 0B       		.uleb128 0xb
 2674 0256 01       		.uleb128 0x1
 2675 0257 13       		.uleb128 0x13
 2676 0258 00       		.byte	0
 2677 0259 00       		.byte	0
 2678 025a 23       		.uleb128 0x23
 2679 025b 1D       		.uleb128 0x1d
ARM GAS  C:\Users\DEVELO~1\AppData\Local\Temp\cc7EYVan.s 			page 48


 2680 025c 01       		.byte	0x1
 2681 025d 31       		.uleb128 0x31
 2682 025e 13       		.uleb128 0x13
 2683 025f 52       		.uleb128 0x52
 2684 0260 01       		.uleb128 0x1
 2685 0261 B842     		.uleb128 0x2138
 2686 0263 0B       		.uleb128 0xb
 2687 0264 11       		.uleb128 0x11
 2688 0265 01       		.uleb128 0x1
 2689 0266 12       		.uleb128 0x12
 2690 0267 06       		.uleb128 0x6
 2691 0268 58       		.uleb128 0x58
 2692 0269 0B       		.uleb128 0xb
 2693 026a 59       		.uleb128 0x59
 2694 026b 05       		.uleb128 0x5
 2695 026c 57       		.uleb128 0x57
 2696 026d 0B       		.uleb128 0xb
 2697 026e 00       		.byte	0
 2698 026f 00       		.byte	0
 2699 0270 24       		.uleb128 0x24
 2700 0271 48       		.uleb128 0x48
 2701 0272 00       		.byte	0
 2702 0273 7D       		.uleb128 0x7d
 2703 0274 01       		.uleb128 0x1
 2704 0275 8201     		.uleb128 0x82
 2705 0277 19       		.uleb128 0x19
 2706 0278 7F       		.uleb128 0x7f
 2707 0279 13       		.uleb128 0x13
 2708 027a 00       		.byte	0
 2709 027b 00       		.byte	0
 2710 027c 25       		.uleb128 0x25
 2711 027d 2E       		.uleb128 0x2e
 2712 027e 01       		.byte	0x1
 2713 027f 03       		.uleb128 0x3
 2714 0280 0E       		.uleb128 0xe
 2715 0281 3A       		.uleb128 0x3a
 2716 0282 0B       		.uleb128 0xb
 2717 0283 3B       		.uleb128 0x3b
 2718 0284 0B       		.uleb128 0xb
 2719 0285 39       		.uleb128 0x39
 2720 0286 0B       		.uleb128 0xb
 2721 0287 27       		.uleb128 0x27
 2722 0288 19       		.uleb128 0x19
 2723 0289 20       		.uleb128 0x20
 2724 028a 0B       		.uleb128 0xb
 2725 028b 00       		.byte	0
 2726 028c 00       		.byte	0
 2727 028d 00       		.byte	0
 2728              		.section	.debug_loclists,"",%progbits
 2729 0000 E9010000 		.4byte	.Ldebug_loc3-.Ldebug_loc2
 2730              	.Ldebug_loc2:
 2731 0004 0500     		.2byte	0x5
 2732 0006 04       		.byte	0x4
 2733 0007 00       		.byte	0
 2734 0008 00000000 		.4byte	0
 2735              	.Ldebug_loc0:
 2736              	.LVUS13:
ARM GAS  C:\Users\DEVELO~1\AppData\Local\Temp\cc7EYVan.s 			page 49


 2737 000c 01       		.uleb128 .LVU184
 2738 000d 03       		.uleb128 .LVU186
 2739 000e 03       		.uleb128 .LVU186
 2740 000f 00       		.uleb128 0
 2741              	.LLST13:
 2742 0010 06       		.byte	0x6
 2743 0011 AE000000 		.4byte	.LVL13
 2744 0015 04       		.byte	0x4
 2745 0016 00       		.uleb128 .LVL13-.LVL13
 2746 0017 00       		.uleb128 .LVL13-.LVL13
 2747 0018 06       		.uleb128 0x6
 2748 0019 0C       		.byte	0xc
 2749 001a 00081008 		.4byte	0x8100800
 2750 001e 9F       		.byte	0x9f
 2751 001f 04       		.byte	0x4
 2752 0020 00       		.uleb128 .LVL13-.LVL13
 2753 0021 C602     		.uleb128 .LFE435-.LVL13
 2754 0023 06       		.uleb128 0x6
 2755 0024 0C       		.byte	0xc
 2756 0025 00881008 		.4byte	0x8108800
 2757 0029 9F       		.byte	0x9f
 2758 002a 00       		.byte	0
 2759              	.LVUS18:
 2760 002b 01       		.uleb128 .LVU221
 2761 002c 01       		.uleb128 .LVU236
 2762 002d 01       		.uleb128 .LVU236
 2763 002e 01       		.uleb128 .LVU246
 2764 002f 01       		.uleb128 .LVU246
 2765 0030 01       		.uleb128 .LVU255
 2766 0031 01       		.uleb128 .LVU255
 2767 0032 00       		.uleb128 0
 2768              	.LLST18:
 2769 0033 06       		.byte	0x6
 2770 0034 F0000000 		.4byte	.LVL14
 2771 0038 04       		.byte	0x4
 2772 0039 00       		.uleb128 .LVL14-.LVL14
 2773 003a 10       		.uleb128 .LVL16-.LVL14
 2774 003b 02       		.uleb128 0x2
 2775 003c 30       		.byte	0x30
 2776 003d 9F       		.byte	0x9f
 2777 003e 04       		.byte	0x4
 2778 003f 10       		.uleb128 .LVL16-.LVL14
 2779 0040 16       		.uleb128 .LVL17-.LVL14
 2780 0041 04       		.uleb128 0x4
 2781 0042 40       		.byte	0x40
 2782 0043 44       		.byte	0x44
 2783 0044 24       		.byte	0x24
 2784 0045 9F       		.byte	0x9f
 2785 0046 04       		.byte	0x4
 2786 0047 16       		.uleb128 .LVL17-.LVL14
 2787 0048 1A       		.uleb128 .LVL18-.LVL14
 2788 0049 04       		.uleb128 0x4
 2789 004a 44       		.byte	0x44
 2790 004b 46       		.byte	0x46
 2791 004c 24       		.byte	0x24
 2792 004d 9F       		.byte	0x9f
 2793 004e 04       		.byte	0x4
ARM GAS  C:\Users\DEVELO~1\AppData\Local\Temp\cc7EYVan.s 			page 50


 2794 004f 1A       		.uleb128 .LVL18-.LVL14
 2795 0050 8402     		.uleb128 .LFE435-.LVL14
 2796 0052 04       		.uleb128 0x4
 2797 0053 45       		.byte	0x45
 2798 0054 48       		.byte	0x48
 2799 0055 24       		.byte	0x24
 2800 0056 9F       		.byte	0x9f
 2801 0057 00       		.byte	0
 2802              	.LVUS19:
 2803 0058 02       		.uleb128 .LVU222
 2804 0059 02       		.uleb128 .LVU237
 2805 005a 02       		.uleb128 .LVU237
 2806 005b 02       		.uleb128 .LVU247
 2807 005c 02       		.uleb128 .LVU247
 2808 005d 02       		.uleb128 .LVU256
 2809 005e 02       		.uleb128 .LVU256
 2810 005f 00       		.uleb128 0
 2811              	.LLST19:
 2812 0060 06       		.byte	0x6
 2813 0061 F0000000 		.4byte	.LVL14
 2814 0065 04       		.byte	0x4
 2815 0066 00       		.uleb128 .LVL14-.LVL14
 2816 0067 10       		.uleb128 .LVL16-.LVL14
 2817 0068 02       		.uleb128 0x2
 2818 0069 30       		.byte	0x30
 2819 006a 9F       		.byte	0x9f
 2820 006b 04       		.byte	0x4
 2821 006c 10       		.uleb128 .LVL16-.LVL14
 2822 006d 16       		.uleb128 .LVL17-.LVL14
 2823 006e 04       		.uleb128 0x4
 2824 006f 40       		.byte	0x40
 2825 0070 45       		.byte	0x45
 2826 0071 24       		.byte	0x24
 2827 0072 9F       		.byte	0x9f
 2828 0073 04       		.byte	0x4
 2829 0074 16       		.uleb128 .LVL17-.LVL14
 2830 0075 1A       		.uleb128 .LVL18-.LVL14
 2831 0076 04       		.uleb128 0x4
 2832 0077 44       		.byte	0x44
 2833 0078 47       		.byte	0x47
 2834 0079 24       		.byte	0x24
 2835 007a 9F       		.byte	0x9f
 2836 007b 04       		.byte	0x4
 2837 007c 1A       		.uleb128 .LVL18-.LVL14
 2838 007d 8402     		.uleb128 .LFE435-.LVL14
 2839 007f 04       		.uleb128 0x4
 2840 0080 45       		.byte	0x45
 2841 0081 49       		.byte	0x49
 2842 0082 24       		.byte	0x24
 2843 0083 9F       		.byte	0x9f
 2844 0084 00       		.byte	0
 2845              	.LVUS20:
 2846 0085 03       		.uleb128 .LVU223
 2847 0086 01       		.uleb128 .LVU229
 2848 0087 01       		.uleb128 .LVU229
 2849 0088 03       		.uleb128 .LVU238
 2850 0089 03       		.uleb128 .LVU238
ARM GAS  C:\Users\DEVELO~1\AppData\Local\Temp\cc7EYVan.s 			page 51


 2851 008a 04       		.uleb128 .LVU239
 2852 008b 04       		.uleb128 .LVU239
 2853 008c 05       		.uleb128 .LVU240
 2854 008d 05       		.uleb128 .LVU240
 2855 008e 03       		.uleb128 .LVU248
 2856 008f 03       		.uleb128 .LVU248
 2857 0090 04       		.uleb128 .LVU249
 2858 0091 04       		.uleb128 .LVU249
 2859 0092 05       		.uleb128 .LVU250
 2860 0093 05       		.uleb128 .LVU250
 2861 0094 03       		.uleb128 .LVU257
 2862 0095 03       		.uleb128 .LVU257
 2863 0096 04       		.uleb128 .LVU258
 2864 0097 04       		.uleb128 .LVU258
 2865 0098 05       		.uleb128 .LVU259
 2866 0099 05       		.uleb128 .LVU259
 2867 009a 00       		.uleb128 0
 2868              	.LLST20:
 2869 009b 06       		.byte	0x6
 2870 009c F0000000 		.4byte	.LVL14
 2871 00a0 04       		.byte	0x4
 2872 00a1 00       		.uleb128 .LVL14-.LVL14
 2873 00a2 08       		.uleb128 .LVL15-.LVL14
 2874 00a3 02       		.uleb128 0x2
 2875 00a4 30       		.byte	0x30
 2876 00a5 9F       		.byte	0x9f
 2877 00a6 04       		.byte	0x4
 2878 00a7 08       		.uleb128 .LVL15-.LVL14
 2879 00a8 10       		.uleb128 .LVL16-.LVL14
 2880 00a9 04       		.uleb128 0x4
 2881 00aa 0A       		.byte	0xa
 2882 00ab 5505     		.2byte	0x555
 2883 00ad 9F       		.byte	0x9f
 2884 00ae 04       		.byte	0x4
 2885 00af 10       		.uleb128 .LVL16-.LVL14
 2886 00b0 10       		.uleb128 .LVL16-.LVL14
 2887 00b1 06       		.uleb128 0x6
 2888 00b2 0C       		.byte	0xc
 2889 00b3 55050100 		.4byte	0x10555
 2890 00b7 9F       		.byte	0x9f
 2891 00b8 04       		.byte	0x4
 2892 00b9 10       		.uleb128 .LVL16-.LVL14
 2893 00ba 10       		.uleb128 .LVL16-.LVL14
 2894 00bb 06       		.uleb128 0x6
 2895 00bc 0C       		.byte	0xc
 2896 00bd 55050300 		.4byte	0x30555
 2897 00c1 9F       		.byte	0x9f
 2898 00c2 04       		.byte	0x4
 2899 00c3 10       		.uleb128 .LVL16-.LVL14
 2900 00c4 16       		.uleb128 .LVL17-.LVL14
 2901 00c5 06       		.uleb128 0x6
 2902 00c6 0C       		.byte	0xc
 2903 00c7 55050700 		.4byte	0x70555
 2904 00cb 9F       		.byte	0x9f
 2905 00cc 04       		.byte	0x4
 2906 00cd 16       		.uleb128 .LVL17-.LVL14
 2907 00ce 16       		.uleb128 .LVL17-.LVL14
ARM GAS  C:\Users\DEVELO~1\AppData\Local\Temp\cc7EYVan.s 			page 52


 2908 00cf 06       		.uleb128 0x6
 2909 00d0 0C       		.byte	0xc
 2910 00d1 55050F00 		.4byte	0xf0555
 2911 00d5 9F       		.byte	0x9f
 2912 00d6 04       		.byte	0x4
 2913 00d7 16       		.uleb128 .LVL17-.LVL14
 2914 00d8 16       		.uleb128 .LVL17-.LVL14
 2915 00d9 06       		.uleb128 0x6
 2916 00da 0C       		.byte	0xc
 2917 00db 55051F00 		.4byte	0x1f0555
 2918 00df 9F       		.byte	0x9f
 2919 00e0 04       		.byte	0x4
 2920 00e1 16       		.uleb128 .LVL17-.LVL14
 2921 00e2 1A       		.uleb128 .LVL18-.LVL14
 2922 00e3 06       		.uleb128 0x6
 2923 00e4 0C       		.byte	0xc
 2924 00e5 55053F00 		.4byte	0x3f0555
 2925 00e9 9F       		.byte	0x9f
 2926 00ea 04       		.byte	0x4
 2927 00eb 1A       		.uleb128 .LVL18-.LVL14
 2928 00ec 1A       		.uleb128 .LVL18-.LVL14
 2929 00ed 06       		.uleb128 0x6
 2930 00ee 0C       		.byte	0xc
 2931 00ef 55057F00 		.4byte	0x7f0555
 2932 00f3 9F       		.byte	0x9f
 2933 00f4 04       		.byte	0x4
 2934 00f5 1A       		.uleb128 .LVL18-.LVL14
 2935 00f6 1A       		.uleb128 .LVL18-.LVL14
 2936 00f7 06       		.uleb128 0x6
 2937 00f8 0C       		.byte	0xc
 2938 00f9 5505FF00 		.4byte	0xff0555
 2939 00fd 9F       		.byte	0x9f
 2940 00fe 04       		.byte	0x4
 2941 00ff 1A       		.uleb128 .LVL18-.LVL14
 2942 0100 8402     		.uleb128 .LFE435-.LVL14
 2943 0102 06       		.uleb128 0x6
 2944 0103 0C       		.byte	0xc
 2945 0104 5505FF01 		.4byte	0x1ff0555
 2946 0108 9F       		.byte	0x9f
 2947 0109 00       		.byte	0
 2948              	.LVUS15:
 2949 010a 01       		.uleb128 .LVU97
 2950 010b 00       		.uleb128 .LVU104
 2951              	.LLST15:
 2952 010c 08       		.byte	0x8
 2953 010d 10000000 		.4byte	.LVL11
 2954 0111 18       		.uleb128 .LVL12-.LVL11
 2955 0112 02       		.uleb128 0x2
 2956 0113 31       		.byte	0x31
 2957 0114 9F       		.byte	0x9f
 2958 0115 00       		.byte	0
 2959              	.LVUS16:
 2960 0116 01       		.uleb128 .LVU97
 2961 0117 00       		.uleb128 .LVU104
 2962              	.LLST16:
 2963 0118 08       		.byte	0x8
 2964 0119 10000000 		.4byte	.LVL11
ARM GAS  C:\Users\DEVELO~1\AppData\Local\Temp\cc7EYVan.s 			page 53


 2965 011d 18       		.uleb128 .LVL12-.LVL11
 2966 011e 02       		.uleb128 0x2
 2967 011f 32       		.byte	0x32
 2968 0120 9F       		.byte	0x9f
 2969 0121 00       		.byte	0
 2970              	.LVUS22:
 2971 0122 01       		.uleb128 .LVU308
 2972 0123 00       		.uleb128 .LVU317
 2973              	.LLST22:
 2974 0124 08       		.byte	0x8
 2975 0125 66010000 		.4byte	.LVL19
 2976 0129 1E       		.uleb128 .LVL20-.LVL19
 2977 012a 02       		.uleb128 0x2
 2978 012b 31       		.byte	0x31
 2979 012c 9F       		.byte	0x9f
 2980 012d 00       		.byte	0
 2981              	.LVUS23:
 2982 012e 01       		.uleb128 .LVU308
 2983 012f 00       		.uleb128 .LVU317
 2984              	.LLST23:
 2985 0130 08       		.byte	0x8
 2986 0131 66010000 		.4byte	.LVL19
 2987 0135 1E       		.uleb128 .LVL20-.LVL19
 2988 0136 04       		.uleb128 0x4
 2989 0137 40       		.byte	0x40
 2990 0138 49       		.byte	0x49
 2991 0139 24       		.byte	0x24
 2992 013a 9F       		.byte	0x9f
 2993 013b 00       		.byte	0
 2994              	.LVUS24:
 2995 013c 02       		.uleb128 .LVU319
 2996 013d 00       		.uleb128 .LVU326
 2997              	.LLST24:
 2998 013e 08       		.byte	0x8
 2999 013f 84010000 		.4byte	.LVL20
 3000 0143 1C       		.uleb128 .LVL21-.LVL20
 3001 0144 02       		.uleb128 0x2
 3002 0145 31       		.byte	0x31
 3003 0146 9F       		.byte	0x9f
 3004 0147 00       		.byte	0
 3005              	.LVUS25:
 3006 0148 02       		.uleb128 .LVU319
 3007 0149 00       		.uleb128 .LVU326
 3008              	.LLST25:
 3009 014a 08       		.byte	0x8
 3010 014b 84010000 		.4byte	.LVL20
 3011 014f 1C       		.uleb128 .LVL21-.LVL20
 3012 0150 04       		.uleb128 0x4
 3013 0151 40       		.byte	0x40
 3014 0152 4A       		.byte	0x4a
 3015 0153 24       		.byte	0x24
 3016 0154 9F       		.byte	0x9f
 3017 0155 00       		.byte	0
 3018              	.LVUS26:
 3019 0156 02       		.uleb128 .LVU328
 3020 0157 00       		.uleb128 .LVU335
 3021              	.LLST26:
ARM GAS  C:\Users\DEVELO~1\AppData\Local\Temp\cc7EYVan.s 			page 54


 3022 0158 08       		.byte	0x8
 3023 0159 A0010000 		.4byte	.LVL21
 3024 015d 1C       		.uleb128 .LVL22-.LVL21
 3025 015e 02       		.uleb128 0x2
 3026 015f 31       		.byte	0x31
 3027 0160 9F       		.byte	0x9f
 3028 0161 00       		.byte	0
 3029              	.LVUS27:
 3030 0162 02       		.uleb128 .LVU328
 3031 0163 00       		.uleb128 .LVU335
 3032              	.LLST27:
 3033 0164 08       		.byte	0x8
 3034 0165 A0010000 		.4byte	.LVL21
 3035 0169 1C       		.uleb128 .LVL22-.LVL21
 3036 016a 05       		.uleb128 0x5
 3037 016b 40       		.byte	0x40
 3038 016c 4B       		.byte	0x4b
 3039 016d 24       		.byte	0x24
 3040 016e 1F       		.byte	0x1f
 3041 016f 9F       		.byte	0x9f
 3042 0170 00       		.byte	0
 3043              	.LVUS1:
 3044 0171 02       		.uleb128 .LVU2
 3045 0172 00       		.uleb128 .LVU17
 3046              	.LLST1:
 3047 0173 08       		.byte	0x8
 3048 0174 00000000 		.4byte	.LVL0
 3049 0178 2A       		.uleb128 .LVL1-.LVL0
 3050 0179 06       		.uleb128 0x6
 3051 017a 0C       		.byte	0xc
 3052 017b FFFFFF7F 		.4byte	0x7fffffff
 3053 017f 9F       		.byte	0x9f
 3054 0180 00       		.byte	0
 3055              	.LVUS3:
 3056 0181 02       		.uleb128 .LVU19
 3057 0182 00       		.uleb128 .LVU25
 3058              	.LLST3:
 3059 0183 08       		.byte	0x8
 3060 0184 2A000000 		.4byte	.LVL1
 3061 0188 14       		.uleb128 .LVL2-.LVL1
 3062 0189 03       		.uleb128 0x3
 3063 018a 09       		.byte	0x9
 3064 018b FF       		.byte	0xff
 3065 018c 9F       		.byte	0x9f
 3066 018d 00       		.byte	0
 3067              	.LVUS5:
 3068 018e 02       		.uleb128 .LVU27
 3069 018f 00       		.uleb128 .LVU35
 3070              	.LLST5:
 3071 0190 08       		.byte	0x8
 3072 0191 3E000000 		.4byte	.LVL2
 3073 0195 10       		.uleb128 .LVL3-.LVL2
 3074 0196 06       		.uleb128 0x6
 3075 0197 0C       		.byte	0xc
 3076 0198 FFEFFF7F 		.4byte	0x7fffefff
 3077 019c 9F       		.byte	0x9f
 3078 019d 00       		.byte	0
ARM GAS  C:\Users\DEVELO~1\AppData\Local\Temp\cc7EYVan.s 			page 55


 3079              	.LVUS7:
 3080 019e 02       		.uleb128 .LVU37
 3081 019f 00       		.uleb128 .LVU43
 3082              	.LLST7:
 3083 01a0 08       		.byte	0x8
 3084 01a1 4E000000 		.4byte	.LVL3
 3085 01a5 1A       		.uleb128 .LVL4-.LVL3
 3086 01a6 04       		.uleb128 0x4
 3087 01a7 0B       		.byte	0xb
 3088 01a8 00F8     		.2byte	0xf800
 3089 01aa 9F       		.byte	0x9f
 3090 01ab 00       		.byte	0
 3091              	.LVUS8:
 3092 01ac 02       		.uleb128 .LVU45
 3093 01ad 00       		.uleb128 .LVU51
 3094              	.LLST8:
 3095 01ae 08       		.byte	0x8
 3096 01af 68000000 		.4byte	.LVL4
 3097 01b3 14       		.uleb128 .LVL5-.LVL4
 3098 01b4 03       		.uleb128 0x3
 3099 01b5 09       		.byte	0x9
 3100 01b6 FF       		.byte	0xff
 3101 01b7 9F       		.byte	0x9f
 3102 01b8 00       		.byte	0
 3103              	.LVUS9:
 3104 01b9 02       		.uleb128 .LVU53
 3105 01ba 00       		.uleb128 .LVU59
 3106              	.LLST9:
 3107 01bb 08       		.byte	0x8
 3108 01bc 7C000000 		.4byte	.LVL5
 3109 01c0 14       		.uleb128 .LVL6-.LVL5
 3110 01c1 03       		.uleb128 0x3
 3111 01c2 09       		.byte	0x9
 3112 01c3 FF       		.byte	0xff
 3113 01c4 9F       		.byte	0x9f
 3114 01c5 00       		.byte	0
 3115              	.LVUS10:
 3116 01c6 02       		.uleb128 .LVU61
 3117 01c7 00       		.uleb128 .LVU67
 3118              	.LLST10:
 3119 01c8 08       		.byte	0x8
 3120 01c9 90000000 		.4byte	.LVL6
 3121 01cd 14       		.uleb128 .LVL7-.LVL6
 3122 01ce 03       		.uleb128 0x3
 3123 01cf 09       		.byte	0x9
 3124 01d0 FF       		.byte	0xff
 3125 01d1 9F       		.byte	0x9f
 3126 01d2 00       		.byte	0
 3127              	.LVUS11:
 3128 01d3 02       		.uleb128 .LVU69
 3129 01d4 00       		.uleb128 .LVU75
 3130              	.LLST11:
 3131 01d5 08       		.byte	0x8
 3132 01d6 A4000000 		.4byte	.LVL7
 3133 01da 14       		.uleb128 .LVL8-.LVL7
 3134 01db 03       		.uleb128 0x3
 3135 01dc 09       		.byte	0x9
ARM GAS  C:\Users\DEVELO~1\AppData\Local\Temp\cc7EYVan.s 			page 56


 3136 01dd FF       		.byte	0xff
 3137 01de 9F       		.byte	0x9f
 3138 01df 00       		.byte	0
 3139              	.LVUS12:
 3140 01e0 02       		.uleb128 .LVU77
 3141 01e1 00       		.uleb128 .LVU83
 3142              	.LLST12:
 3143 01e2 08       		.byte	0x8
 3144 01e3 B8000000 		.4byte	.LVL8
 3145 01e7 14       		.uleb128 .LVL9-.LVL8
 3146 01e8 03       		.uleb128 0x3
 3147 01e9 09       		.byte	0x9
 3148 01ea FF       		.byte	0xff
 3149 01eb 9F       		.byte	0x9f
 3150 01ec 00       		.byte	0
 3151              	.Ldebug_loc3:
 3152              		.section	.debug_aranges,"",%progbits
 3153 0000 24000000 		.4byte	0x24
 3154 0004 0200     		.2byte	0x2
 3155 0006 00000000 		.4byte	.Ldebug_info0
 3156 000a 04       		.byte	0x4
 3157 000b 00       		.byte	0
 3158 000c 0000     		.2byte	0
 3159 000e 0000     		.2byte	0
 3160 0010 00000000 		.4byte	.LFB434
 3161 0014 E4000000 		.4byte	.LFE434-.LFB434
 3162 0018 00000000 		.4byte	.LFB435
 3163 001c F4010000 		.4byte	.LFE435-.LFB435
 3164 0020 00000000 		.4byte	0
 3165 0024 00000000 		.4byte	0
 3166              		.section	.debug_rnglists,"",%progbits
 3167              	.Ldebug_ranges0:
 3168 0000 7D000000 		.4byte	.Ldebug_ranges3-.Ldebug_ranges2
 3169              	.Ldebug_ranges2:
 3170 0004 0500     		.2byte	0x5
 3171 0006 04       		.byte	0x4
 3172 0007 00       		.byte	0
 3173 0008 00000000 		.4byte	0
 3174              	.LLRL0:
 3175 000c 05       		.byte	0x5
 3176 000d 00000000 		.4byte	.LBB29
 3177 0011 04       		.byte	0x4
 3178 0012 00       		.uleb128 .LBB29-.LBB29
 3179 0013 02       		.uleb128 .LBE29-.LBB29
 3180 0014 04       		.byte	0x4
 3181 0015 08       		.uleb128 .LBB38-.LBB29
 3182 0016 10       		.uleb128 .LBE38-.LBB29
 3183 0017 04       		.byte	0x4
 3184 0018 12       		.uleb128 .LBB39-.LBB29
 3185 0019 1A       		.uleb128 .LBE39-.LBB29
 3186 001a 04       		.byte	0x4
 3187 001b 1C       		.uleb128 .LBB45-.LBB29
 3188 001c 20       		.uleb128 .LBE45-.LBB29
 3189 001d 04       		.byte	0x4
 3190 001e 22       		.uleb128 .LBB47-.LBB29
 3191 001f 2A       		.uleb128 .LBE47-.LBB29
 3192 0020 00       		.byte	0
ARM GAS  C:\Users\DEVELO~1\AppData\Local\Temp\cc7EYVan.s 			page 57


 3193              	.LLRL2:
 3194 0021 05       		.byte	0x5
 3195 0022 02000000 		.4byte	.LBB35
 3196 0026 04       		.byte	0x4
 3197 0027 00       		.uleb128 .LBB35-.LBB35
 3198 0028 06       		.uleb128 .LBE35-.LBB35
 3199 0029 04       		.byte	0x4
 3200 002a 28       		.uleb128 .LBB48-.LBB35
 3201 002b 3C       		.uleb128 .LBE48-.LBB35
 3202 002c 00       		.byte	0
 3203              	.LLRL4:
 3204 002d 05       		.byte	0x5
 3205 002e 1A000000 		.4byte	.LBB40
 3206 0032 04       		.byte	0x4
 3207 0033 00       		.uleb128 .LBB40-.LBB40
 3208 0034 02       		.uleb128 .LBE40-.LBB40
 3209 0035 04       		.byte	0x4
 3210 0036 06       		.uleb128 .LBB46-.LBB40
 3211 0037 08       		.uleb128 .LBE46-.LBB40
 3212 0038 04       		.byte	0x4
 3213 0039 24       		.uleb128 .LBB49-.LBB40
 3214 003a 2C       		.uleb128 .LBE49-.LBB40
 3215 003b 04       		.byte	0x4
 3216 003c 2E       		.uleb128 .LBB53-.LBB40
 3217 003d 34       		.uleb128 .LBE53-.LBB40
 3218 003e 00       		.byte	0
 3219              	.LLRL6:
 3220 003f 05       		.byte	0x5
 3221 0040 46000000 		.4byte	.LBB50
 3222 0044 04       		.byte	0x4
 3223 0045 00       		.uleb128 .LBB50-.LBB50
 3224 0046 02       		.uleb128 .LBE50-.LBB50
 3225 0047 04       		.byte	0x4
 3226 0048 08       		.uleb128 .LBB54-.LBB50
 3227 0049 22       		.uleb128 .LBE54-.LBB50
 3228 004a 00       		.byte	0
 3229              	.LLRL14:
 3230 004b 05       		.byte	0x5
 3231 004c 00000000 		.4byte	.LBB78
 3232 0050 04       		.byte	0x4
 3233 0051 00       		.uleb128 .LBB78-.LBB78
 3234 0052 02       		.uleb128 .LBE78-.LBB78
 3235 0053 04       		.byte	0x4
 3236 0054 10       		.uleb128 .LBB86-.LBB78
 3237 0055 28       		.uleb128 .LBE86-.LBB78
 3238 0056 00       		.byte	0
 3239              	.LLRL17:
 3240 0057 05       		.byte	0x5
 3241 0058 02000000 		.4byte	.LBB81
 3242 005c 04       		.byte	0x4
 3243 005d 00       		.uleb128 .LBB81-.LBB81
 3244 005e 02       		.uleb128 .LBE81-.LBB81
 3245 005f 04       		.byte	0x4
 3246 0060 04       		.uleb128 .LBB85-.LBB81
 3247 0061 06       		.uleb128 .LBE85-.LBB81
 3248 0062 04       		.byte	0x4
 3249 0063 26       		.uleb128 .LBB87-.LBB81
ARM GAS  C:\Users\DEVELO~1\AppData\Local\Temp\cc7EYVan.s 			page 58


 3250 0064 4C       		.uleb128 .LBE87-.LBB81
 3251 0065 00       		.byte	0
 3252              	.LLRL21:
 3253 0066 05       		.byte	0x5
 3254 0067 66010000 		.4byte	.LBB91
 3255 006b 04       		.byte	0x4
 3256 006c 00       		.uleb128 .LBB91-.LBB91
 3257 006d 04       		.uleb128 .LBE91-.LBB91
 3258 006e 04       		.byte	0x4
 3259 006f 06       		.uleb128 .LBB94-.LBB91
 3260 0070 1E       		.uleb128 .LBE94-.LBB91
 3261 0071 00       		.byte	0
 3262              	.LLRL28:
 3263 0072 07       		.byte	0x7
 3264 0073 00000000 		.4byte	.LFB434
 3265 0077 E401     		.uleb128 .LFE434-.LFB434
 3266 0079 07       		.byte	0x7
 3267 007a 00000000 		.4byte	.LFB435
 3268 007e F403     		.uleb128 .LFE435-.LFB435
 3269 0080 00       		.byte	0
 3270              	.Ldebug_ranges3:
 3271              		.section	.debug_line,"",%progbits
 3272              	.Ldebug_line0:
 3273 0000 26070000 		.section	.debug_str,"MS",%progbits,1
 3273      03007A01 
 3273      00000201 
 3273      FB0E0D00 
 3273      01010101 
 3274              	.LASF124:
 3275 0000 68616C5F 		.ascii	"hal_lld_init\000"
 3275      6C6C645F 
 3275      696E6974 
 3275      00
 3276              	.LASF68:
 3277 000d 504C4C31 		.ascii	"PLL1DIVR\000"
 3277      44495652 
 3277      00
 3278              	.LASF56:
 3279 0016 574B5550 		.ascii	"WKUPFR\000"
 3279      465200
 3280              	.LASF3:
 3281 001d 7369676E 		.ascii	"signed char\000"
 3281      65642063 
 3281      68617200 
 3282              	.LASF112:
 3283 0029 41504231 		.ascii	"APB1HLPENR\000"
 3283      484C5045 
 3283      4E5200
 3284              	.LASF7:
 3285 0034 6C6F6E67 		.ascii	"long int\000"
 3285      20696E74 
 3285      00
 3286              	.LASF16:
 3287 003d 4F505443 		.ascii	"OPTCR\000"
 3287      5200
 3288              	.LASF21:
 3289 0043 50524152 		.ascii	"PRAR_PRG1\000"
ARM GAS  C:\Users\DEVELO~1\AppData\Local\Temp\cc7EYVan.s 			page 59


 3289      5F505247 
 3289      3100
 3290              	.LASF40:
 3291 004d 50524152 		.ascii	"PRAR_PRG2\000"
 3291      5F505247 
 3291      3200
 3292              	.LASF139:
 3293 0057 2E2E2F2E 		.ascii	"../../../os/hal/ports/STM32/STM32H7xx/hal_lld.c\000"
 3293      2E2F2E2E 
 3293      2F6F732F 
 3293      68616C2F 
 3293      706F7274 
 3294              	.LASF136:
 3295 0087 5F5F7263 		.ascii	"__rccResetAPB2\000"
 3295      63526573 
 3295      65744150 
 3295      423200
 3296              	.LASF94:
 3297 0096 4433414D 		.ascii	"D3AMR\000"
 3297      5200
 3298              	.LASF134:
 3299 009c 5F5F7263 		.ascii	"__rccResetAPB4\000"
 3299      63526573 
 3299      65744150 
 3299      423400
 3300              	.LASF107:
 3301 00ab 41484231 		.ascii	"AHB1LPENR\000"
 3301      4C50454E 
 3301      5200
 3302              	.LASF78:
 3303 00b5 43494552 		.ascii	"CIER\000"
 3303      00
 3304              	.LASF87:
 3305 00ba 41484234 		.ascii	"AHB4RSTR\000"
 3305      52535452 
 3305      00
 3306              	.LASF1:
 3307 00c3 6C6F6E67 		.ascii	"long long int\000"
 3307      206C6F6E 
 3307      6720696E 
 3307      7400
 3308              	.LASF26:
 3309 00d1 424F4F54 		.ascii	"BOOT_CUR\000"
 3309      5F435552 
 3309      00
 3310              	.LASF55:
 3311 00da 574B5550 		.ascii	"WKUPCR\000"
 3311      435200
 3312              	.LASF120:
 3313 00e1 6F6E6D61 		.ascii	"onmask\000"
 3313      736B00
 3314              	.LASF51:
 3315 00e8 464C4153 		.ascii	"FLASH_TypeDef\000"
 3315      485F5479 
 3315      70654465 
 3315      6600
 3316              	.LASF9:
ARM GAS  C:\Users\DEVELO~1\AppData\Local\Temp\cc7EYVan.s 			page 60


 3317 00f6 6C6F6E67 		.ascii	"long long unsigned int\000"
 3317      206C6F6E 
 3317      6720756E 
 3317      7369676E 
 3317      65642069 
 3318              	.LASF19:
 3319 010d 4F505443 		.ascii	"OPTCCR\000"
 3319      435200
 3320              	.LASF95:
 3321 0114 52455345 		.ascii	"RESERVED11\000"
 3321      52564544 
 3321      313100
 3322              	.LASF105:
 3323 011f 52455345 		.ascii	"RESERVED12\000"
 3323      52564544 
 3323      313200
 3324              	.LASF115:
 3325 012a 52455345 		.ascii	"RESERVED13\000"
 3325      52564544 
 3325      313300
 3326              	.LASF49:
 3327 0135 43524344 		.ascii	"CRCDATA2\000"
 3327      41544132 
 3327      00
 3328              	.LASF140:
 3329 013e 433A5C50 		.ascii	"C:\\PROJET\\ChibiOS project\\ChibiOS_21.11.4\\demos"
 3329      524F4A45 
 3329      545C4368 
 3329      6962694F 
 3329      53207072 
 3330 016d 5C53544D 		.ascii	"\\STM32\\RT-STM32H743ZI_REV_XY-NUCLEO144\000"
 3330      33325C52 
 3330      542D5354 
 3330      4D333248 
 3330      3734335A 
 3331              	.LASF69:
 3332 0194 504C4C31 		.ascii	"PLL1FRACR\000"
 3332      46524143 
 3332      5200
 3333              	.LASF91:
 3334 019e 41504232 		.ascii	"APB2RSTR\000"
 3334      52535452 
 3334      00
 3335              	.LASF126:
 3336 01a7 696E6974 		.ascii	"init_bkp_domain\000"
 3336      5F626B70 
 3336      5F646F6D 
 3336      61696E00 
 3337              	.LASF32:
 3338 01b7 43524344 		.ascii	"CRCDATA\000"
 3338      41544100 
 3339              	.LASF14:
 3340 01bf 4F50544B 		.ascii	"OPTKEYR\000"
 3340      45595200 
 3341              	.LASF22:
 3342 01c7 53434152 		.ascii	"SCAR_CUR1\000"
 3342      5F435552 
ARM GAS  C:\Users\DEVELO~1\AppData\Local\Temp\cc7EYVan.s 			page 61


 3342      3100
 3343              	.LASF122:
 3344 01d1 6366676D 		.ascii	"cfgmask\000"
 3344      61736B00 
 3345              	.LASF41:
 3346 01d9 53434152 		.ascii	"SCAR_CUR2\000"
 3346      5F435552 
 3346      3200
 3347              	.LASF65:
 3348 01e3 44334346 		.ascii	"D3CFGR\000"
 3348      475200
 3349              	.LASF67:
 3350 01ea 504C4C43 		.ascii	"PLLCFGR\000"
 3350      46475200 
 3351              	.LASF60:
 3352 01f2 43525243 		.ascii	"CRRCR\000"
 3352      5200
 3353              	.LASF79:
 3354 01f8 43494652 		.ascii	"CIFR\000"
 3354      00
 3355              	.LASF72:
 3356 01fd 504C4C33 		.ascii	"PLL3DIVR\000"
 3356      44495652 
 3356      00
 3357              	.LASF10:
 3358 0206 5F5F7569 		.ascii	"__uint32_t\000"
 3358      6E743332 
 3358      5F7400
 3359              	.LASF127:
 3360 0211 6D61736B 		.ascii	"mask\000"
 3360      00
 3361              	.LASF75:
 3362 0216 44324343 		.ascii	"D2CCIP1R\000"
 3362      49503152 
 3362      00
 3363              	.LASF77:
 3364 021f 44334343 		.ascii	"D3CCIPR\000"
 3364      49505200 
 3365              	.LASF123:
 3366 0227 73746D33 		.ascii	"stm32_clock_init\000"
 3366      325F636C 
 3366      6F636B5F 
 3366      696E6974 
 3366      00
 3367              	.LASF71:
 3368 0238 504C4C32 		.ascii	"PLL2FRACR\000"
 3368      46524143 
 3368      5200
 3369              	.LASF0:
 3370 0242 756E7369 		.ascii	"unsigned int\000"
 3370      676E6564 
 3370      20696E74 
 3370      00
 3371              	.LASF57:
 3372 024f 574B5550 		.ascii	"WKUPEPR\000"
 3372      45505200 
 3373              	.LASF118:
ARM GAS  C:\Users\DEVELO~1\AppData\Local\Temp\cc7EYVan.s 			page 62


 3374 0257 53797374 		.ascii	"SystemCoreClock\000"
 3374      656D436F 
 3374      7265436C 
 3374      6F636B00 
 3375              	.LASF8:
 3376 0267 6C6F6E67 		.ascii	"long unsigned int\000"
 3376      20756E73 
 3376      69676E65 
 3376      6420696E 
 3376      7400
 3377              	.LASF53:
 3378 0279 43505543 		.ascii	"CPUCR\000"
 3378      5200
 3379              	.LASF116:
 3380 027f 5243435F 		.ascii	"RCC_TypeDef\000"
 3380      54797065 
 3380      44656600 
 3381              	.LASF138:
 3382 028b 474E5520 		.ascii	"GNU C17 11.3.1 20220712 -mcpu=cortex-m7 -mthumb -mf"
 3382      43313720 
 3382      31312E33 
 3382      2E312032 
 3382      30323230 
 3383 02be 6C6F6174 		.ascii	"loat-abi=soft -march=armv7e-m -ggdb -O2 -fomit-fram"
 3383      2D616269 
 3383      3D736F66 
 3383      74202D6D 
 3383      61726368 
 3384 02f1 652D706F 		.ascii	"e-pointer -falign-functions=16 -ffunction-sections "
 3384      696E7465 
 3384      72202D66 
 3384      616C6967 
 3384      6E2D6675 
 3385 0324 2D666461 		.ascii	"-fdata-sections -fno-common\000"
 3385      74612D73 
 3385      65637469 
 3385      6F6E7320 
 3385      2D666E6F 
 3386              	.LASF27:
 3387 0340 424F4F54 		.ascii	"BOOT_PRG\000"
 3387      5F505247 
 3387      00
 3388              	.LASF6:
 3389 0349 73686F72 		.ascii	"short unsigned int\000"
 3389      7420756E 
 3389      7369676E 
 3389      65642069 
 3389      6E7400
 3390              	.LASF66:
 3391 035c 504C4C43 		.ascii	"PLLCKSELR\000"
 3391      4B53454C 
 3391      5200
 3392              	.LASF59:
 3393 0366 48534943 		.ascii	"HSICFGR\000"
 3393      46475200 
 3394              	.LASF84:
 3395 036e 41484233 		.ascii	"AHB3RSTR\000"
ARM GAS  C:\Users\DEVELO~1\AppData\Local\Temp\cc7EYVan.s 			page 63


 3395      52535452 
 3395      00
 3396              	.LASF102:
 3397 0377 41504231 		.ascii	"APB1HENR\000"
 3397      48454E52 
 3397      00
 3398              	.LASF76:
 3399 0380 44324343 		.ascii	"D2CCIP2R\000"
 3399      49503252 
 3399      00
 3400              	.LASF20:
 3401 0389 50524152 		.ascii	"PRAR_CUR1\000"
 3401      5F435552 
 3401      3100
 3402              	.LASF39:
 3403 0393 50524152 		.ascii	"PRAR_CUR2\000"
 3403      5F435552 
 3403      3200
 3404              	.LASF89:
 3405 039d 41504231 		.ascii	"APB1LRSTR\000"
 3405      4C525354 
 3405      5200
 3406              	.LASF113:
 3407 03a7 41504232 		.ascii	"APB2LPENR\000"
 3407      4C50454E 
 3407      5200
 3408              	.LASF73:
 3409 03b1 504C4C33 		.ascii	"PLL3FRACR\000"
 3409      46524143 
 3409      5200
 3410              	.LASF92:
 3411 03bb 41504234 		.ascii	"APB4RSTR\000"
 3411      52535452 
 3411      00
 3412              	.LASF58:
 3413 03c4 5057525F 		.ascii	"PWR_TypeDef\000"
 3413      54797065 
 3413      44656600 
 3414              	.LASF23:
 3415 03d0 53434152 		.ascii	"SCAR_PRG1\000"
 3415      5F505247 
 3415      3100
 3416              	.LASF42:
 3417 03da 53434152 		.ascii	"SCAR_PRG2\000"
 3417      5F505247 
 3417      3200
 3418              	.LASF104:
 3419 03e4 41504234 		.ascii	"APB4ENR\000"
 3419      454E5200 
 3420              	.LASF129:
 3421 03ec 72636345 		.ascii	"rccEnableAPB4\000"
 3421      6E61626C 
 3421      65415042 
 3421      3400
 3422              	.LASF25:
 3423 03fa 5750534E 		.ascii	"WPSN_PRG1\000"
 3423      5F505247 
ARM GAS  C:\Users\DEVELO~1\AppData\Local\Temp\cc7EYVan.s 			page 64


 3423      3100
 3424              	.LASF44:
 3425 0404 5750534E 		.ascii	"WPSN_PRG2\000"
 3425      5F505247 
 3425      3200
 3426              	.LASF31:
 3427 040e 43524345 		.ascii	"CRCEADD1\000"
 3427      41444431 
 3427      00
 3428              	.LASF48:
 3429 0417 43524345 		.ascii	"CRCEADD2\000"
 3429      41444432 
 3429      00
 3430              	.LASF125:
 3431 0420 696E6974 		.ascii	"init_pwr\000"
 3431      5F707772 
 3431      00
 3432              	.LASF90:
 3433 0429 41504231 		.ascii	"APB1HRSTR\000"
 3433      48525354 
 3433      5200
 3434              	.LASF29:
 3435 0433 43524343 		.ascii	"CRCCR1\000"
 3435      523100
 3436              	.LASF46:
 3437 043a 43524343 		.ascii	"CRCCR2\000"
 3437      523200
 3438              	.LASF17:
 3439 0441 4F505453 		.ascii	"OPTSR_CUR\000"
 3439      525F4355 
 3439      5200
 3440              	.LASF133:
 3441 044b 5F5F7263 		.ascii	"__rccResetAHB1\000"
 3441      63526573 
 3441      65744148 
 3441      423100
 3442              	.LASF132:
 3443 045a 5F5F7263 		.ascii	"__rccResetAHB2\000"
 3443      63526573 
 3443      65744148 
 3443      423200
 3444              	.LASF131:
 3445 0469 5F5F7263 		.ascii	"__rccResetAHB3\000"
 3445      63526573 
 3445      65744148 
 3445      423300
 3446              	.LASF130:
 3447 0478 5F5F7263 		.ascii	"__rccResetAHB4\000"
 3447      63526573 
 3447      65744148 
 3447      423400
 3448              	.LASF108:
 3449 0487 41484232 		.ascii	"AHB2LPENR\000"
 3449      4C50454E 
 3449      5200
 3450              	.LASF110:
 3451 0491 41504233 		.ascii	"APB3LPENR\000"
ARM GAS  C:\Users\DEVELO~1\AppData\Local\Temp\cc7EYVan.s 			page 65


 3451      4C50454E 
 3451      5200
 3452              	.LASF121:
 3453 049b 7264796D 		.ascii	"rdymask\000"
 3453      61736B00 
 3454              	.LASF100:
 3455 04a3 41504233 		.ascii	"APB3ENR\000"
 3455      454E5200 
 3456              	.LASF141:
 3457 04ab 69727149 		.ascii	"irqInit\000"
 3457      6E697400 
 3458              	.LASF99:
 3459 04b3 41484234 		.ascii	"AHB4ENR\000"
 3459      454E5200 
 3460              	.LASF28:
 3461 04bb 52455345 		.ascii	"RESERVED0\000"
 3461      52564544 
 3461      3000
 3462              	.LASF34:
 3463 04c5 52455345 		.ascii	"RESERVED1\000"
 3463      52564544 
 3463      3100
 3464              	.LASF36:
 3465 04cf 52455345 		.ascii	"RESERVED2\000"
 3465      52564544 
 3465      3200
 3466              	.LASF38:
 3467 04d9 52455345 		.ascii	"RESERVED3\000"
 3467      52564544 
 3467      3300
 3468              	.LASF64:
 3469 04e3 44324346 		.ascii	"D2CFGR\000"
 3469      475200
 3470              	.LASF81:
 3471 04ea 52455345 		.ascii	"RESERVED5\000"
 3471      52564544 
 3471      3500
 3472              	.LASF83:
 3473 04f4 52455345 		.ascii	"RESERVED6\000"
 3473      52564544 
 3473      3600
 3474              	.LASF93:
 3475 04fe 52455345 		.ascii	"RESERVED8\000"
 3475      52564544 
 3475      3800
 3476              	.LASF117:
 3477 0508 5F426F6F 		.ascii	"_Bool\000"
 3477      6C00
 3478              	.LASF70:
 3479 050e 504C4C32 		.ascii	"PLL2DIVR\000"
 3479      44495652 
 3479      00
 3480              	.LASF4:
 3481 0517 756E7369 		.ascii	"unsigned char\000"
 3481      676E6564 
 3481      20636861 
 3481      7200
ARM GAS  C:\Users\DEVELO~1\AppData\Local\Temp\cc7EYVan.s 			page 66


 3482              	.LASF5:
 3483 0525 73686F72 		.ascii	"short int\000"
 3483      7420696E 
 3483      7400
 3484              	.LASF106:
 3485 052f 41484233 		.ascii	"AHB3LPENR\000"
 3485      4C50454E 
 3485      5200
 3486              	.LASF114:
 3487 0539 41504234 		.ascii	"APB4LPENR\000"
 3487      4C50454E 
 3487      5200
 3488              	.LASF33:
 3489 0543 4543435F 		.ascii	"ECC_FA1\000"
 3489      46413100 
 3490              	.LASF50:
 3491 054b 4543435F 		.ascii	"ECC_FA2\000"
 3491      46413200 
 3492              	.LASF103:
 3493 0553 41504232 		.ascii	"APB2ENR\000"
 3493      454E5200 
 3494              	.LASF96:
 3495 055b 41484233 		.ascii	"AHB3ENR\000"
 3495      454E5200 
 3496              	.LASF135:
 3497 0563 5F5F7263 		.ascii	"__rccResetAPB3\000"
 3497      63526573 
 3497      65744150 
 3497      423300
 3498              	.LASF45:
 3499 0572 52455345 		.ascii	"RESERVED4\000"
 3499      52564544 
 3499      3400
 3500              	.LASF11:
 3501 057c 75696E74 		.ascii	"uint32_t\000"
 3501      33325F74 
 3501      00
 3502              	.LASF54:
 3503 0585 44334352 		.ascii	"D3CR\000"
 3503      00
 3504              	.LASF74:
 3505 058a 44314343 		.ascii	"D1CCIPR\000"
 3505      49505200 
 3506              	.LASF2:
 3507 0592 6C6F6E67 		.ascii	"long double\000"
 3507      20646F75 
 3507      626C6500 
 3508              	.LASF12:
 3509 059e 63686172 		.ascii	"char\000"
 3509      00
 3510              	.LASF18:
 3511 05a3 4F505453 		.ascii	"OPTSR_PRG\000"
 3511      525F5052 
 3511      4700
 3512              	.LASF86:
 3513 05ad 41484232 		.ascii	"AHB2RSTR\000"
 3513      52535452 
ARM GAS  C:\Users\DEVELO~1\AppData\Local\Temp\cc7EYVan.s 			page 67


 3513      00
 3514              	.LASF35:
 3515 05b6 4B455952 		.ascii	"KEYR2\000"
 3515      3200
 3516              	.LASF109:
 3517 05bc 41484234 		.ascii	"AHB4LPENR\000"
 3517      4C50454E 
 3517      5200
 3518              	.LASF13:
 3519 05c6 4B455952 		.ascii	"KEYR1\000"
 3519      3100
 3520              	.LASF82:
 3521 05cc 42444352 		.ascii	"BDCR\000"
 3521      00
 3522              	.LASF98:
 3523 05d1 41484232 		.ascii	"AHB2ENR\000"
 3523      454E5200 
 3524              	.LASF88:
 3525 05d9 41504233 		.ascii	"APB3RSTR\000"
 3525      52535452 
 3525      00
 3526              	.LASF61:
 3527 05e2 43534943 		.ascii	"CSICFGR\000"
 3527      46475200 
 3528              	.LASF85:
 3529 05ea 41484231 		.ascii	"AHB1RSTR\000"
 3529      52535452 
 3529      00
 3530              	.LASF24:
 3531 05f3 5750534E 		.ascii	"WPSN_CUR1\000"
 3531      5F435552 
 3531      3100
 3532              	.LASF43:
 3533 05fd 5750534E 		.ascii	"WPSN_CUR2\000"
 3533      5F435552 
 3533      3200
 3534              	.LASF111:
 3535 0607 41504231 		.ascii	"APB1LLPENR\000"
 3535      4C4C5045 
 3535      4E5200
 3536              	.LASF15:
 3537 0612 43435231 		.ascii	"CCR1\000"
 3537      00
 3538              	.LASF37:
 3539 0617 43435232 		.ascii	"CCR2\000"
 3539      00
 3540              	.LASF80:
 3541 061c 43494352 		.ascii	"CICR\000"
 3541      00
 3542              	.LASF137:
 3543 0621 5F5F7263 		.ascii	"__rccResetAPB1H\000"
 3543      63526573 
 3543      65744150 
 3543      42314800 
 3544              	.LASF142:
 3545 0631 5F5F7263 		.ascii	"__rccResetAPB1L\000"
 3545      63526573 
ARM GAS  C:\Users\DEVELO~1\AppData\Local\Temp\cc7EYVan.s 			page 68


 3545      65744150 
 3545      42314C00 
 3546              	.LASF30:
 3547 0641 43524353 		.ascii	"CRCSADD1\000"
 3547      41444431 
 3547      00
 3548              	.LASF47:
 3549 064a 43524353 		.ascii	"CRCSADD2\000"
 3549      41444432 
 3549      00
 3550              	.LASF119:
 3551 0653 63666772 		.ascii	"cfgr\000"
 3551      00
 3552              	.LASF97:
 3553 0658 41484231 		.ascii	"AHB1ENR\000"
 3553      454E5200 
 3554              	.LASF62:
 3555 0660 43464752 		.ascii	"CFGR\000"
 3555      00
 3556              	.LASF101:
 3557 0665 41504231 		.ascii	"APB1LENR\000"
 3557      4C454E52 
 3557      00
 3558              	.LASF52:
 3559 066e 43535231 		.ascii	"CSR1\000"
 3559      00
 3560              	.LASF128:
 3561 0673 72636345 		.ascii	"rccEnableAHB2\000"
 3561      6E61626C 
 3561      65414842 
 3561      3200
 3562              	.LASF63:
 3563 0681 44314346 		.ascii	"D1CFGR\000"
 3563      475200
 3564              		.ident	"GCC: (Arm GNU Toolchain 11.3.Rel1) 11.3.1 20220712"
ARM GAS  C:\Users\DEVELO~1\AppData\Local\Temp\cc7EYVan.s 			page 69


DEFINED SYMBOLS
                            *ABS*:00000000 hal_lld.c
C:\Users\DEVELO~1\AppData\Local\Temp\cc7EYVan.s:18     .text.hal_lld_init:00000000 $t
C:\Users\DEVELO~1\AppData\Local\Temp\cc7EYVan.s:25     .text.hal_lld_init:00000000 hal_lld_init
C:\Users\DEVELO~1\AppData\Local\Temp\cc7EYVan.s:281    .text.hal_lld_init:000000d4 $d
C:\Users\DEVELO~1\AppData\Local\Temp\cc7EYVan.s:289    .text.stm32_clock_init:00000000 $t
C:\Users\DEVELO~1\AppData\Local\Temp\cc7EYVan.s:296    .text.stm32_clock_init:00000000 stm32_clock_init
C:\Users\DEVELO~1\AppData\Local\Temp\cc7EYVan.s:806    .text.stm32_clock_init:000001c0 $d
C:\Users\DEVELO~1\AppData\Local\Temp\cc7EYVan.s:827    .data.SystemCoreClock:00000000 SystemCoreClock
C:\Users\DEVELO~1\AppData\Local\Temp\cc7EYVan.s:824    .data.SystemCoreClock:00000000 $d

UNDEFINED SYMBOLS
irqInit
