ARM GAS  C:\Users\DEVELO~1\AppData\Local\Temp\ccrzvc7A.s 			page 1


   1              		.cpu cortex-m7
   2              		.arch armv7e-m
   3              		.fpu softvfp
   4              		.eabi_attribute 20, 1
   5              		.eabi_attribute 21, 1
   6              		.eabi_attribute 23, 3
   7              		.eabi_attribute 24, 1
   8              		.eabi_attribute 25, 1
   9              		.eabi_attribute 26, 1
  10              		.eabi_attribute 30, 2
  11              		.eabi_attribute 34, 1
  12              		.eabi_attribute 18, 4
  13              		.file	"main.c"
  14              		.text
  15              	.Ltext0:
  16              		.cfi_sections	.debug_frame
  17              		.section	.rodata.main.str1.4,"aMS",%progbits,1
  18              		.align	2
  19              	.LC0:
  20 0000 0D0A3D3D 		.ascii	"\015\012=== SDRAM TEST START ===\015\012\000"
  20      3D205344 
  20      52414D20 
  20      54455354 
  20      20535441 
  21 001d 000000   		.align	2
  22              	.LC1:
  23 0020 73647261 		.ascii	"sdramInit OK\015\012\000"
  23      6D496E69 
  23      74204F4B 
  23      0D0A00
  24 002f 00       		.align	2
  25              	.LC2:
  26 0030 73647261 		.ascii	"sdramStart OK\015\012\000"
  26      6D537461 
  26      7274204F 
  26      4B0D0A00 
  27              		.align	2
  28              	.LC3:
  29 0040 52303D30 		.ascii	"R0=0x%04X R1=0x%04X\015\012\000"
  29      78253034 
  29      58205231 
  29      3D307825 
  29      3034580D 
  30 0056 0000     		.align	2
  31              	.LC4:
  32 0058 53445241 		.ascii	"SDRAM BASIC OK\015\012\000"
  32      4D204241 
  32      53494320 
  32      4F4B0D0A 
  32      00
  33 0069 000000   		.align	2
  34              	.LC5:
  35 006c 53445241 		.ascii	"SDRAM BASIC FAIL\015\012\000"
  35      4D204241 
  35      53494320 
  35      4641494C 
  35      0D0A00
ARM GAS  C:\Users\DEVELO~1\AppData\Local\Temp\ccrzvc7A.s 			page 2


  36              		.section	.text.startup.main,"ax",%progbits
  37              		.align	1
  38              		.p2align 4,,15
  39              		.global	main
  40              		.syntax unified
  41              		.thumb
  42              		.thumb_func
  43              		.type	main, %function
  44              	main:
  45              	.LFB432:
  46              		.file 1 "main.c"
  47              		.loc 1 41 16 view -0
  48              		.cfi_startproc
  49              		@ args = 0, pretend = 0, frame = 0
  50              		@ frame_needed = 0, uses_anonymous_args = 0
  51              		.loc 1 42 3 view .LVU1
  52              		.loc 1 41 16 is_stmt 0 view .LVU2
  53 0000 F8B5     		push	{r3, r4, r5, r6, r7, lr}
  54              		.cfi_def_cfa_offset 24
  55              		.cfi_offset 3, -24
  56              		.cfi_offset 4, -20
  57              		.cfi_offset 5, -16
  58              		.cfi_offset 6, -12
  59              		.cfi_offset 7, -8
  60              		.cfi_offset 14, -4
  61              		.loc 1 42 3 view .LVU3
  62 0002 FFF7FEFF 		bl	halInit
  63              	.LVL0:
  64              		.loc 1 43 3 is_stmt 1 view .LVU4
  65              		.loc 1 59 12 is_stmt 0 view .LVU5
  66 0006 41F23426 		movw	r6, #4660
  67              		.loc 1 43 3 view .LVU6
  68 000a FFF7FEFF 		bl	chSysInit
  69              	.LVL1:
  70              		.loc 1 45 3 is_stmt 1 view .LVU7
  71 000e 1C49     		ldr	r1, .L13
  72 0010 1C48     		ldr	r0, .L13+4
  73              		.loc 1 60 12 is_stmt 0 view .LVU8
  74 0012 4AF6CD37 		movw	r7, #43981
  75              		.loc 1 45 3 view .LVU9
  76 0016 FFF7FEFF 		bl	sdStart
  77              	.LVL2:
  78              		.loc 1 46 3 is_stmt 1 view .LVU10
  79 001a 1B49     		ldr	r1, .L13+8
  80 001c 1948     		ldr	r0, .L13+4
  81 001e FFF7FEFF 		bl	chprintf
  82              	.LVL3:
  83              		.loc 1 50 3 view .LVU11
  84 0022 FFF7FEFF 		bl	sdramInit
  85              	.LVL4:
  86              		.loc 1 51 3 view .LVU12
  87 0026 1949     		ldr	r1, .L13+12
  88 0028 1648     		ldr	r0, .L13+4
  89 002a FFF7FEFF 		bl	chprintf
  90              	.LVL5:
  91              		.loc 1 54 3 view .LVU13
  92 002e 1849     		ldr	r1, .L13+16
ARM GAS  C:\Users\DEVELO~1\AppData\Local\Temp\ccrzvc7A.s 			page 3


  93 0030 1848     		ldr	r0, .L13+20
  94 0032 FFF7FEFF 		bl	sdramStart
  95              	.LVL6:
  96              		.loc 1 55 3 view .LVU14
  97 0036 1849     		ldr	r1, .L13+24
  98 0038 1248     		ldr	r0, .L13+4
  99 003a FFF7FEFF 		bl	chprintf
 100              	.LVL7:
 101              		.loc 1 57 3 view .LVU15
 102              		.loc 1 59 3 view .LVU16
 103              		.loc 1 59 12 is_stmt 0 view .LVU17
 104 003e 4FF04043 		mov	r3, #-1073741824
 105              		.loc 1 65 3 view .LVU18
 106 0042 1649     		ldr	r1, .L13+28
 107              		.loc 1 59 12 view .LVU19
 108 0044 1E80     		strh	r6, [r3]	@ movhi
 109              		.loc 1 60 3 is_stmt 1 view .LVU20
 110              		.loc 1 60 12 is_stmt 0 view .LVU21
 111 0046 5F80     		strh	r7, [r3, #2]	@ movhi
 112              		.loc 1 62 3 is_stmt 1 view .LVU22
 113              		.loc 1 62 12 is_stmt 0 view .LVU23
 114 0048 1C88     		ldrh	r4, [r3]
 115              		.loc 1 63 12 view .LVU24
 116 004a 5D88     		ldrh	r5, [r3, #2]
 117              		.loc 1 62 12 view .LVU25
 118 004c A4B2     		uxth	r4, r4
 119              	.LVL8:
 120              		.loc 1 63 3 is_stmt 1 view .LVU26
 121              		.loc 1 65 3 is_stmt 0 view .LVU27
 122 004e 0D48     		ldr	r0, .L13+4
 123              		.loc 1 63 12 view .LVU28
 124 0050 ADB2     		uxth	r5, r5
 125              	.LVL9:
 126              		.loc 1 65 3 is_stmt 1 view .LVU29
 127 0052 2246     		mov	r2, r4
 128 0054 2B46     		mov	r3, r5
 129 0056 FFF7FEFF 		bl	chprintf
 130              	.LVL10:
 131              		.loc 1 68 3 view .LVU30
 132              		.loc 1 68 6 is_stmt 0 view .LVU31
 133 005a B442     		cmp	r4, r6
 134 005c 0AD1     		bne	.L2
 135 005e BD42     		cmp	r5, r7
 136 0060 08D1     		bne	.L2
 137              		.loc 1 69 5 is_stmt 1 view .LVU32
 138 0062 0F49     		ldr	r1, .L13+32
 139 0064 0748     		ldr	r0, .L13+4
 140 0066 FFF7FEFF 		bl	chprintf
 141              	.LVL11:
 142              	.L3:
 143              		.loc 1 74 3 discriminator 1 view .LVU33
 144              		.loc 1 75 5 discriminator 1 view .LVU34
 145 006a 42F21070 		movw	r0, #10000
 146 006e FFF7FEFF 		bl	chThdSleep
 147              	.LVL12:
 148              		.loc 1 74 9 discriminator 1 view .LVU35
 149 0072 FAE7     		b	.L3
ARM GAS  C:\Users\DEVELO~1\AppData\Local\Temp\ccrzvc7A.s 			page 4


 150              	.L2:
 151              		.loc 1 71 5 view .LVU36
 152 0074 0B49     		ldr	r1, .L13+36
 153 0076 0348     		ldr	r0, .L13+4
 154 0078 FFF7FEFF 		bl	chprintf
 155              	.LVL13:
 156 007c F5E7     		b	.L3
 157              	.L14:
 158 007e 00BF     		.align	2
 159              	.L13:
 160 0080 00000000 		.word	.LANCHOR0
 161 0084 00000000 		.word	SD1
 162 0088 00000000 		.word	.LC0
 163 008c 20000000 		.word	.LC1
 164 0090 00000000 		.word	.LANCHOR1
 165 0094 00000000 		.word	SDRAMD1
 166 0098 30000000 		.word	.LC2
 167 009c 40000000 		.word	.LC3
 168 00a0 58000000 		.word	.LC4
 169 00a4 6C000000 		.word	.LC5
 170              		.cfi_endproc
 171              	.LFE432:
 172              		.size	main, .-main
 173              		.section	.rodata.sdram_cfg,"a"
 174              		.align	2
 175              		.set	.LANCHOR1,. + 0
 176              		.type	sdram_cfg, %object
 177              		.size	sdram_cfg, 16
 178              	sdram_cfg:
 179 0000 58090000 		.word	2392
 180 0004 61641101 		.word	17917025
 181 0008 00000000 		.word	0
 182 000c F2050000 		.word	1522
 183              		.section	.rodata.uart_cfg,"a"
 184              		.align	2
 185              		.set	.LANCHOR0,. + 0
 186              		.type	uart_cfg, %object
 187              		.size	uart_cfg, 16
 188              	uart_cfg:
 189 0000 00C20100 		.word	115200
 190 0004 00000000 		.word	0
 191 0008 00000000 		.word	0
 192 000c 00000000 		.word	0
 193              		.text
 194              	.Letext0:
 195              		.file 2 "c:\\chibistudio\\tools\\gnu tools arm embedded\\11.3 2022.08\\lib\\gcc\\arm-none-eabi\\11
 196              		.file 3 "c:\\chibistudio\\tools\\gnu tools arm embedded\\11.3 2022.08\\arm-none-eabi\\include\\mac
 197              		.file 4 "c:\\chibistudio\\tools\\gnu tools arm embedded\\11.3 2022.08\\arm-none-eabi\\include\\sys
 198              		.file 5 "../../../os/common/ports/ARM-common/chtypes.h"
 199              		.file 6 "../../../os/rt/include/chearly.h"
 200              		.file 7 "../../../os/rt/include/chobjects.h"
 201              		.file 8 "../../../os/rt/include/chrfcu.h"
 202              		.file 9 "../../../os/rt/include/chdebug.h"
 203              		.file 10 "../../../os/rt/include/chtime.h"
 204              		.file 11 "../../../os/rt/include/chlists.h"
 205              		.file 12 "../../../os/rt/include/chtrace.h"
 206              		.file 13 "../../../os/common/ext/ST/STM32H7xx/stm32h743xx.h"
ARM GAS  C:\Users\DEVELO~1\AppData\Local\Temp\ccrzvc7A.s 			page 5


 207              		.file 14 "../../../os/common/ports/ARMv7-M/chcore.h"
 208              		.file 15 "../../../os/rt/include/chsem.h"
 209              		.file 16 "../../../os/rt/include/chmtx.h"
 210              		.file 17 "../../../os/rt/include/chevents.h"
 211              		.file 18 "../../../os/hal/include/hal_streams.h"
 212              		.file 19 "../../../os/hal/include/hal_queues.h"
 213              		.file 20 "../../../os/hal/include/hal_serial.h"
 214              		.file 21 "../../../os/hal/ports/STM32/LLD/USARTv3/hal_serial_lld.h"
 215              		.file 22 "../../../ChibiOS-Contrib-chibios-21.11.x/os/hal/include/hal_fsmc.h"
 216              		.file 23 "../../../ChibiOS-Contrib-chibios-21.11.x/os/hal/include/hal_sdram.h"
 217              		.file 24 "../../../os/rt/include/chthreads.h"
 218              		.file 25 "../../../os/hal/lib/streams/chprintf.h"
 219              		.file 26 "../../../os/rt/include/chsys.h"
 220              		.file 27 "../../../os/hal/include/hal.h"
 221              		.section	.debug_info,"",%progbits
 222              	.Ldebug_info0:
 223 0000 97110000 		.4byte	0x1197
 224 0004 0500     		.2byte	0x5
 225 0006 01       		.byte	0x1
 226 0007 04       		.byte	0x4
 227 0008 00000000 		.4byte	.Ldebug_abbrev0
 228 000c 1D       		.uleb128 0x1d
 229 000d E6010000 		.4byte	.LASF205
 230 0011 1D       		.byte	0x1d
 231 0012 3C080000 		.4byte	.LASF206
 232 0016 35000000 		.4byte	.LASF207
 233 001a 0C000000 		.4byte	.LLRL2
 234 001e 00000000 		.4byte	0
 235 0022 00000000 		.4byte	.Ldebug_line0
 236 0026 1E       		.uleb128 0x1e
 237 0027 04       		.byte	0x4
 238 0028 05       		.byte	0x5
 239 0029 696E7400 		.ascii	"int\000"
 240 002d 02       		.uleb128 0x2
 241 002e 12000000 		.4byte	.LASF4
 242 0032 02       		.byte	0x2
 243 0033 D1       		.byte	0xd1
 244 0034 17       		.byte	0x17
 245 0035 3E000000 		.4byte	0x3e
 246 0039 12       		.uleb128 0x12
 247 003a 2D000000 		.4byte	0x2d
 248 003e 09       		.uleb128 0x9
 249 003f 04       		.byte	0x4
 250 0040 07       		.byte	0x7
 251 0041 6C030000 		.4byte	.LASF0
 252 0045 09       		.uleb128 0x9
 253 0046 08       		.byte	0x8
 254 0047 05       		.byte	0x5
 255 0048 23010000 		.4byte	.LASF1
 256 004c 09       		.uleb128 0x9
 257 004d 08       		.byte	0x8
 258 004e 04       		.byte	0x4
 259 004f 3C070000 		.4byte	.LASF2
 260 0053 09       		.uleb128 0x9
 261 0054 01       		.byte	0x1
 262 0055 06       		.byte	0x6
 263 0056 31010000 		.4byte	.LASF3
ARM GAS  C:\Users\DEVELO~1\AppData\Local\Temp\ccrzvc7A.s 			page 6


 264 005a 02       		.uleb128 0x2
 265 005b 2B000000 		.4byte	.LASF5
 266 005f 03       		.byte	0x3
 267 0060 2B       		.byte	0x2b
 268 0061 18       		.byte	0x18
 269 0062 66000000 		.4byte	0x66
 270 0066 09       		.uleb128 0x9
 271 0067 01       		.byte	0x1
 272 0068 08       		.byte	0x8
 273 0069 48060000 		.4byte	.LASF6
 274 006d 09       		.uleb128 0x9
 275 006e 02       		.byte	0x2
 276 006f 05       		.byte	0x5
 277 0070 7D040000 		.4byte	.LASF7
 278 0074 02       		.uleb128 0x2
 279 0075 7A070000 		.4byte	.LASF8
 280 0079 03       		.byte	0x3
 281 007a 39       		.byte	0x39
 282 007b 19       		.byte	0x19
 283 007c 80000000 		.4byte	0x80
 284 0080 09       		.uleb128 0x9
 285 0081 02       		.byte	0x2
 286 0082 07       		.byte	0x7
 287 0083 F8030000 		.4byte	.LASF9
 288 0087 02       		.uleb128 0x2
 289 0088 54070000 		.4byte	.LASF10
 290 008c 03       		.byte	0x3
 291 008d 4D       		.byte	0x4d
 292 008e 18       		.byte	0x18
 293 008f 93000000 		.4byte	0x93
 294 0093 09       		.uleb128 0x9
 295 0094 04       		.byte	0x4
 296 0095 05       		.byte	0x5
 297 0096 B0010000 		.4byte	.LASF11
 298 009a 02       		.uleb128 0x2
 299 009b DD020000 		.4byte	.LASF12
 300 009f 03       		.byte	0x3
 301 00a0 4F       		.byte	0x4f
 302 00a1 19       		.byte	0x19
 303 00a2 A6000000 		.4byte	0xa6
 304 00a6 09       		.uleb128 0x9
 305 00a7 04       		.byte	0x4
 306 00a8 07       		.byte	0x7
 307 00a9 5E010000 		.4byte	.LASF13
 308 00ad 02       		.uleb128 0x2
 309 00ae D3050000 		.4byte	.LASF14
 310 00b2 03       		.byte	0x3
 311 00b3 69       		.byte	0x69
 312 00b4 19       		.byte	0x19
 313 00b5 B9000000 		.4byte	0xb9
 314 00b9 09       		.uleb128 0x9
 315 00ba 08       		.byte	0x8
 316 00bb 07       		.byte	0x7
 317 00bc 7E010000 		.4byte	.LASF15
 318 00c0 02       		.uleb128 0x2
 319 00c1 97080000 		.4byte	.LASF16
 320 00c5 04       		.byte	0x4
ARM GAS  C:\Users\DEVELO~1\AppData\Local\Temp\ccrzvc7A.s 			page 7


 321 00c6 18       		.byte	0x18
 322 00c7 13       		.byte	0x13
 323 00c8 5A000000 		.4byte	0x5a
 324 00cc 0E       		.uleb128 0xe
 325 00cd C0000000 		.4byte	0xc0
 326 00d1 02       		.uleb128 0x2
 327 00d2 B6020000 		.4byte	.LASF17
 328 00d6 04       		.byte	0x4
 329 00d7 24       		.byte	0x24
 330 00d8 14       		.byte	0x14
 331 00d9 74000000 		.4byte	0x74
 332 00dd 12       		.uleb128 0x12
 333 00de D1000000 		.4byte	0xd1
 334 00e2 02       		.uleb128 0x2
 335 00e3 40060000 		.4byte	.LASF18
 336 00e7 04       		.byte	0x4
 337 00e8 2C       		.byte	0x2c
 338 00e9 13       		.byte	0x13
 339 00ea 87000000 		.4byte	0x87
 340 00ee 02       		.uleb128 0x2
 341 00ef 00070000 		.4byte	.LASF19
 342 00f3 04       		.byte	0x4
 343 00f4 30       		.byte	0x30
 344 00f5 14       		.byte	0x14
 345 00f6 9A000000 		.4byte	0x9a
 346 00fa 12       		.uleb128 0x12
 347 00fb EE000000 		.4byte	0xee
 348 00ff 02       		.uleb128 0x2
 349 0100 55050000 		.4byte	.LASF20
 350 0104 04       		.byte	0x4
 351 0105 3C       		.byte	0x3c
 352 0106 14       		.byte	0x14
 353 0107 AD000000 		.4byte	0xad
 354 010b 12       		.uleb128 0x12
 355 010c FF000000 		.4byte	0xff
 356 0110 02       		.uleb128 0x2
 357 0111 10070000 		.4byte	.LASF21
 358 0115 05       		.byte	0x5
 359 0116 48       		.byte	0x48
 360 0117 1D       		.byte	0x1d
 361 0118 FF000000 		.4byte	0xff
 362 011c 02       		.uleb128 0x2
 363 011d A3040000 		.4byte	.LASF22
 364 0121 06       		.byte	0x6
 365 0122 50       		.byte	0x50
 366 0123 19       		.byte	0x19
 367 0124 10010000 		.4byte	0x110
 368 0128 02       		.uleb128 0x2
 369 0129 53040000 		.4byte	.LASF23
 370 012d 06       		.byte	0x6
 371 012e 53       		.byte	0x53
 372 012f 19       		.byte	0x19
 373 0130 C0000000 		.4byte	0xc0
 374 0134 02       		.uleb128 0x2
 375 0135 CB010000 		.4byte	.LASF24
 376 0139 06       		.byte	0x6
 377 013a 54       		.byte	0x54
ARM GAS  C:\Users\DEVELO~1\AppData\Local\Temp\ccrzvc7A.s 			page 8


 378 013b 19       		.byte	0x19
 379 013c C0000000 		.4byte	0xc0
 380 0140 02       		.uleb128 0x2
 381 0141 E8050000 		.4byte	.LASF25
 382 0145 06       		.byte	0x6
 383 0146 55       		.byte	0x55
 384 0147 19       		.byte	0x19
 385 0148 C0000000 		.4byte	0xc0
 386 014c 02       		.uleb128 0x2
 387 014d 1A060000 		.4byte	.LASF26
 388 0151 06       		.byte	0x6
 389 0152 57       		.byte	0x57
 390 0153 19       		.byte	0x19
 391 0154 EE000000 		.4byte	0xee
 392 0158 02       		.uleb128 0x2
 393 0159 2F040000 		.4byte	.LASF27
 394 015d 06       		.byte	0x6
 395 015e 58       		.byte	0x58
 396 015f 19       		.byte	0x19
 397 0160 E2000000 		.4byte	0xe2
 398 0164 02       		.uleb128 0x2
 399 0165 71040000 		.4byte	.LASF28
 400 0169 06       		.byte	0x6
 401 016a 5A       		.byte	0x5a
 402 016b 19       		.byte	0x19
 403 016c EE000000 		.4byte	0xee
 404 0170 02       		.uleb128 0x2
 405 0171 22040000 		.4byte	.LASF29
 406 0175 06       		.byte	0x6
 407 0176 5B       		.byte	0x5b
 408 0177 19       		.byte	0x19
 409 0178 EE000000 		.4byte	0xee
 410 017c 02       		.uleb128 0x2
 411 017d 57030000 		.4byte	.LASF30
 412 0181 06       		.byte	0x6
 413 0182 5C       		.byte	0x5c
 414 0183 19       		.byte	0x19
 415 0184 E2000000 		.4byte	0xe2
 416 0188 02       		.uleb128 0x2
 417 0189 DE050000 		.4byte	.LASF31
 418 018d 06       		.byte	0x6
 419 018e 80       		.byte	0x80
 420 018f 12       		.byte	0x12
 421 0190 3E000000 		.4byte	0x3e
 422 0194 02       		.uleb128 0x2
 423 0195 85070000 		.4byte	.LASF32
 424 0199 06       		.byte	0x6
 425 019a 85       		.byte	0x85
 426 019b 1A       		.byte	0x1a
 427 019c A0010000 		.4byte	0x1a0
 428 01a0 07       		.uleb128 0x7
 429 01a1 0B040000 		.4byte	.LASF47
 430 01a5 48       		.byte	0x48
 431 01a6 07       		.byte	0x7
 432 01a7 9C       		.byte	0x9c
 433 01a8 08       		.byte	0x8
 434 01a9 83020000 		.4byte	0x283
ARM GAS  C:\Users\DEVELO~1\AppData\Local\Temp\ccrzvc7A.s 			page 9


 435 01ad 08       		.uleb128 0x8
 436 01ae 68647200 		.ascii	"hdr\000"
 437 01b2 07       		.byte	0x7
 438 01b3 AD       		.byte	0xad
 439 01b4 05       		.byte	0x5
 440 01b5 33080000 		.4byte	0x833
 441 01b9 00       		.byte	0
 442 01ba 08       		.uleb128 0x8
 443 01bb 63747800 		.ascii	"ctx\000"
 444 01bf 07       		.byte	0x7
 445 01c0 B1       		.byte	0xb1
 446 01c1 21       		.byte	0x21
 447 01c2 77070000 		.4byte	0x777
 448 01c6 0C       		.byte	0xc
 449 01c7 01       		.uleb128 0x1
 450 01c8 BC030000 		.4byte	.LASF33
 451 01cc 07       		.byte	0x7
 452 01cd B6       		.byte	0xb6
 453 01ce 21       		.byte	0x21
 454 01cf DD030000 		.4byte	0x3dd
 455 01d3 10       		.byte	0x10
 456 01d4 01       		.uleb128 0x1
 457 01d5 20070000 		.4byte	.LASF34
 458 01d9 07       		.byte	0x7
 459 01da BB       		.byte	0xbb
 460 01db 22       		.byte	0x22
 461 01dc 35090000 		.4byte	0x935
 462 01e0 18       		.byte	0x18
 463 01e1 01       		.uleb128 0x1
 464 01e2 DC030000 		.4byte	.LASF35
 465 01e6 07       		.byte	0x7
 466 01e7 C0       		.byte	0xc0
 467 01e8 22       		.byte	0x22
 468 01e9 6B030000 		.4byte	0x36b
 469 01ed 1C       		.byte	0x1c
 470 01ee 01       		.uleb128 0x1
 471 01ef 48070000 		.4byte	.LASF36
 472 01f3 07       		.byte	0x7
 473 01f4 C9       		.byte	0xc9
 474 01f5 22       		.byte	0x22
 475 01f6 3A090000 		.4byte	0x93a
 476 01fa 20       		.byte	0x20
 477 01fb 01       		.uleb128 0x1
 478 01fc AA010000 		.4byte	.LASF37
 479 0200 07       		.byte	0x7
 480 0201 CE       		.byte	0xce
 481 0202 21       		.byte	0x21
 482 0203 34010000 		.4byte	0x134
 483 0207 24       		.byte	0x24
 484 0208 01       		.uleb128 0x1
 485 0209 A5080000 		.4byte	.LASF38
 486 020d 07       		.byte	0x7
 487 020e D2       		.byte	0xd2
 488 020f 21       		.byte	0x21
 489 0210 28010000 		.4byte	0x128
 490 0214 25       		.byte	0x25
 491 0215 01       		.uleb128 0x1
ARM GAS  C:\Users\DEVELO~1\AppData\Local\Temp\ccrzvc7A.s 			page 10


 492 0216 14010000 		.4byte	.LASF39
 493 021a 07       		.byte	0x7
 494 021b D7       		.byte	0xd7
 495 021c 21       		.byte	0x21
 496 021d 40010000 		.4byte	0x140
 497 0221 26       		.byte	0x26
 498 0222 06       		.uleb128 0x6
 499 0223 7500     		.ascii	"u\000"
 500 0225 07       		.byte	0x7
 501 0226 2801     		.2byte	0x128
 502 0228 21       		.byte	0x21
 503 0229 60080000 		.4byte	0x860
 504 022d 28       		.byte	0x28
 505 022e 05       		.uleb128 0x5
 506 022f 08030000 		.4byte	.LASF40
 507 0233 07       		.byte	0x7
 508 0234 2D01     		.2byte	0x12d
 509 0236 21       		.byte	0x21
 510 0237 B1030000 		.4byte	0x3b1
 511 023b 2C       		.byte	0x2c
 512 023c 05       		.uleb128 0x5
 513 023d 5D030000 		.4byte	.LASF41
 514 0241 07       		.byte	0x7
 515 0242 3301     		.2byte	0x133
 516 0244 21       		.byte	0x21
 517 0245 DD030000 		.4byte	0x3dd
 518 0249 30       		.byte	0x30
 519 024a 05       		.uleb128 0x5
 520 024b 35040000 		.4byte	.LASF42
 521 024f 07       		.byte	0x7
 522 0250 3901     		.2byte	0x139
 523 0252 21       		.byte	0x21
 524 0253 64010000 		.4byte	0x164
 525 0257 38       		.byte	0x38
 526 0258 05       		.uleb128 0x5
 527 0259 FF080000 		.4byte	.LASF43
 528 025d 07       		.byte	0x7
 529 025e 4001     		.2byte	0x140
 530 0260 22       		.byte	0x22
 531 0261 30090000 		.4byte	0x930
 532 0265 3C       		.byte	0x3c
 533 0266 05       		.uleb128 0x5
 534 0267 33070000 		.4byte	.LASF44
 535 026b 07       		.byte	0x7
 536 026c 4401     		.2byte	0x144
 537 026e 21       		.byte	0x21
 538 026f 4C010000 		.4byte	0x14c
 539 0273 40       		.byte	0x40
 540 0274 05       		.uleb128 0x5
 541 0275 E7030000 		.4byte	.LASF45
 542 0279 07       		.byte	0x7
 543 027a 4B01     		.2byte	0x14b
 544 027c 22       		.byte	0x22
 545 027d CB040000 		.4byte	0x4cb
 546 0281 44       		.byte	0x44
 547 0282 00       		.byte	0
 548 0283 02       		.uleb128 0x2
ARM GAS  C:\Users\DEVELO~1\AppData\Local\Temp\ccrzvc7A.s 			page 11


 549 0284 D0070000 		.4byte	.LASF46
 550 0288 06       		.byte	0x6
 551 0289 8A       		.byte	0x8a
 552 028a 1F       		.byte	0x1f
 553 028b 8F020000 		.4byte	0x28f
 554 028f 1F       		.uleb128 0x1f
 555 0290 A2050000 		.4byte	.LASF48
 556 0294 9008     		.2byte	0x890
 557 0296 07       		.byte	0x7
 558 0297 8A01     		.2byte	0x18a
 559 0299 08       		.byte	0x8
 560 029a 1D030000 		.4byte	0x31d
 561 029e 05       		.uleb128 0x5
 562 029f 85080000 		.4byte	.LASF49
 563 02a3 07       		.byte	0x7
 564 02a4 8E01     		.2byte	0x18e
 565 02a6 21       		.byte	0x21
 566 02a7 6A090000 		.4byte	0x96a
 567 02ab 00       		.byte	0
 568 02ac 05       		.uleb128 0x5
 569 02ad A1000000 		.4byte	.LASF50
 570 02b1 07       		.byte	0x7
 571 02b2 9201     		.2byte	0x192
 572 02b4 21       		.byte	0x21
 573 02b5 CD070000 		.4byte	0x7cd
 574 02b9 10       		.byte	0x10
 575 02ba 05       		.uleb128 0x5
 576 02bb DE070000 		.4byte	.LASF51
 577 02bf 07       		.byte	0x7
 578 02c0 9901     		.2byte	0x199
 579 02c2 21       		.byte	0x21
 580 02c3 F4070000 		.4byte	0x7f4
 581 02c7 28       		.byte	0x28
 582 02c8 05       		.uleb128 0x5
 583 02c9 AE060000 		.4byte	.LASF52
 584 02cd 07       		.byte	0x7
 585 02ce 9E01     		.2byte	0x19e
 586 02d0 21       		.byte	0x21
 587 02d1 88010000 		.4byte	0x188
 588 02d5 30       		.byte	0x30
 589 02d6 05       		.uleb128 0x5
 590 02d7 20000000 		.4byte	.LASF53
 591 02db 07       		.byte	0x7
 592 02dc A401     		.2byte	0x1a4
 593 02de 21       		.byte	0x21
 594 02df 44030000 		.4byte	0x344
 595 02e3 34       		.byte	0x34
 596 02e4 05       		.uleb128 0x5
 597 02e5 5E070000 		.4byte	.LASF54
 598 02e9 07       		.byte	0x7
 599 02ea A901     		.2byte	0x1a9
 600 02ec 22       		.byte	0x22
 601 02ed DC090000 		.4byte	0x9dc
 602 02f1 38       		.byte	0x38
 603 02f2 05       		.uleb128 0x5
 604 02f3 DA000000 		.4byte	.LASF55
 605 02f7 07       		.byte	0x7
ARM GAS  C:\Users\DEVELO~1\AppData\Local\Temp\ccrzvc7A.s 			page 12


 606 02f8 AD01     		.2byte	0x1ad
 607 02fa 21       		.byte	0x21
 608 02fb 94010000 		.4byte	0x194
 609 02ff 3C       		.byte	0x3c
 610 0300 06       		.uleb128 0x6
 611 0301 64626700 		.ascii	"dbg\000"
 612 0305 07       		.byte	0x7
 613 0306 B101     		.2byte	0x1b1
 614 0308 21       		.byte	0x21
 615 0309 81030000 		.4byte	0x381
 616 030d 84       		.byte	0x84
 617 030e 05       		.uleb128 0x5
 618 030f C0080000 		.4byte	.LASF56
 619 0313 07       		.byte	0x7
 620 0314 B601     		.2byte	0x1b6
 621 0316 21       		.byte	0x21
 622 0317 26060000 		.4byte	0x626
 623 031b 88       		.byte	0x88
 624 031c 00       		.byte	0
 625 031d 02       		.uleb128 0x2
 626 031e F0040000 		.4byte	.LASF57
 627 0322 08       		.byte	0x8
 628 0323 3F       		.byte	0x3f
 629 0324 12       		.byte	0x12
 630 0325 EE000000 		.4byte	0xee
 631 0329 07       		.uleb128 0x7
 632 032a DE010000 		.4byte	.LASF58
 633 032e 04       		.byte	0x4
 634 032f 08       		.byte	0x8
 635 0330 44       		.byte	0x44
 636 0331 10       		.byte	0x10
 637 0332 44030000 		.4byte	0x344
 638 0336 01       		.uleb128 0x1
 639 0337 E8020000 		.4byte	.LASF59
 640 033b 08       		.byte	0x8
 641 033c 48       		.byte	0x48
 642 033d 21       		.byte	0x21
 643 033e 1D030000 		.4byte	0x31d
 644 0342 00       		.byte	0
 645 0343 00       		.byte	0
 646 0344 02       		.uleb128 0x2
 647 0345 56060000 		.4byte	.LASF60
 648 0349 08       		.byte	0x8
 649 034a 49       		.byte	0x49
 650 034b 03       		.byte	0x3
 651 034c 29030000 		.4byte	0x329
 652 0350 07       		.uleb128 0x7
 653 0351 2A060000 		.4byte	.LASF61
 654 0355 04       		.byte	0x4
 655 0356 09       		.byte	0x9
 656 0357 3E       		.byte	0x3e
 657 0358 10       		.byte	0x10
 658 0359 6B030000 		.4byte	0x36b
 659 035d 01       		.uleb128 0x1
 660 035e AB080000 		.4byte	.LASF62
 661 0362 09       		.byte	0x9
 662 0363 46       		.byte	0x46
ARM GAS  C:\Users\DEVELO~1\AppData\Local\Temp\ccrzvc7A.s 			page 13


 663 0364 24       		.byte	0x24
 664 0365 70030000 		.4byte	0x370
 665 0369 00       		.byte	0
 666 036a 00       		.byte	0
 667 036b 03       		.uleb128 0x3
 668 036c 7C030000 		.4byte	0x37c
 669 0370 12       		.uleb128 0x12
 670 0371 6B030000 		.4byte	0x36b
 671 0375 09       		.uleb128 0x9
 672 0376 01       		.byte	0x1
 673 0377 08       		.byte	0x8
 674 0378 4F070000 		.4byte	.LASF63
 675 037c 0E       		.uleb128 0xe
 676 037d 75030000 		.4byte	0x375
 677 0381 02       		.uleb128 0x2
 678 0382 A0030000 		.4byte	.LASF64
 679 0386 09       		.byte	0x9
 680 0387 51       		.byte	0x51
 681 0388 03       		.byte	0x3
 682 0389 50030000 		.4byte	0x350
 683 038d 02       		.uleb128 0x2
 684 038e 94070000 		.4byte	.LASF65
 685 0392 0A       		.byte	0xa
 686 0393 6D       		.byte	0x6d
 687 0394 12       		.byte	0x12
 688 0395 EE000000 		.4byte	0xee
 689 0399 02       		.uleb128 0x2
 690 039a 49030000 		.4byte	.LASF66
 691 039e 0A       		.byte	0xa
 692 039f 79       		.byte	0x79
 693 03a0 12       		.byte	0x12
 694 03a1 EE000000 		.4byte	0xee
 695 03a5 02       		.uleb128 0x2
 696 03a6 CB030000 		.4byte	.LASF67
 697 03aa 0A       		.byte	0xa
 698 03ab 9B       		.byte	0x9b
 699 03ac 12       		.byte	0x12
 700 03ad FF000000 		.4byte	0xff
 701 03b1 02       		.uleb128 0x2
 702 03b2 46050000 		.4byte	.LASF68
 703 03b6 0B       		.byte	0xb
 704 03b7 32       		.byte	0x32
 705 03b8 18       		.byte	0x18
 706 03b9 BD030000 		.4byte	0x3bd
 707 03bd 07       		.uleb128 0x7
 708 03be 5B040000 		.4byte	.LASF69
 709 03c2 04       		.byte	0x4
 710 03c3 0B       		.byte	0xb
 711 03c4 38       		.byte	0x38
 712 03c5 08       		.byte	0x8
 713 03c6 D8030000 		.4byte	0x3d8
 714 03ca 01       		.uleb128 0x1
 715 03cb F8000000 		.4byte	.LASF70
 716 03cf 0B       		.byte	0xb
 717 03d0 39       		.byte	0x39
 718 03d1 1A       		.byte	0x1a
 719 03d2 D8030000 		.4byte	0x3d8
ARM GAS  C:\Users\DEVELO~1\AppData\Local\Temp\ccrzvc7A.s 			page 14


 720 03d6 00       		.byte	0
 721 03d7 00       		.byte	0
 722 03d8 03       		.uleb128 0x3
 723 03d9 B1030000 		.4byte	0x3b1
 724 03dd 02       		.uleb128 0x2
 725 03de ED020000 		.4byte	.LASF71
 726 03e2 0B       		.byte	0xb
 727 03e3 3F       		.byte	0x3f
 728 03e4 19       		.byte	0x19
 729 03e5 E9030000 		.4byte	0x3e9
 730 03e9 07       		.uleb128 0x7
 731 03ea A4020000 		.4byte	.LASF72
 732 03ee 08       		.byte	0x8
 733 03ef 0B       		.byte	0xb
 734 03f0 45       		.byte	0x45
 735 03f1 08       		.byte	0x8
 736 03f2 11040000 		.4byte	0x411
 737 03f6 01       		.uleb128 0x1
 738 03f7 F8000000 		.4byte	.LASF70
 739 03fb 0B       		.byte	0xb
 740 03fc 46       		.byte	0x46
 741 03fd 1A       		.byte	0x1a
 742 03fe 11040000 		.4byte	0x411
 743 0402 00       		.byte	0
 744 0403 01       		.uleb128 0x1
 745 0404 00000000 		.4byte	.LASF73
 746 0408 0B       		.byte	0xb
 747 0409 47       		.byte	0x47
 748 040a 1A       		.byte	0x1a
 749 040b 11040000 		.4byte	0x411
 750 040f 04       		.byte	0x4
 751 0410 00       		.byte	0
 752 0411 03       		.uleb128 0x3
 753 0412 DD030000 		.4byte	0x3dd
 754 0416 02       		.uleb128 0x2
 755 0417 A5070000 		.4byte	.LASF74
 756 041b 0B       		.byte	0xb
 757 041c 4E       		.byte	0x4e
 758 041d 22       		.byte	0x22
 759 041e 22040000 		.4byte	0x422
 760 0422 07       		.uleb128 0x7
 761 0423 F2070000 		.4byte	.LASF75
 762 0427 0C       		.byte	0xc
 763 0428 0B       		.byte	0xb
 764 0429 55       		.byte	0x55
 765 042a 08       		.byte	0x8
 766 042b 57040000 		.4byte	0x457
 767 042f 01       		.uleb128 0x1
 768 0430 F8000000 		.4byte	.LASF70
 769 0434 0B       		.byte	0xb
 770 0435 56       		.byte	0x56
 771 0436 1A       		.byte	0x1a
 772 0437 57040000 		.4byte	0x457
 773 043b 00       		.byte	0
 774 043c 01       		.uleb128 0x1
 775 043d 00000000 		.4byte	.LASF73
 776 0441 0B       		.byte	0xb
ARM GAS  C:\Users\DEVELO~1\AppData\Local\Temp\ccrzvc7A.s 			page 15


 777 0442 57       		.byte	0x57
 778 0443 1A       		.byte	0x1a
 779 0444 57040000 		.4byte	0x457
 780 0448 04       		.byte	0x4
 781 0449 01       		.uleb128 0x1
 782 044a B6050000 		.4byte	.LASF76
 783 044e 0B       		.byte	0xb
 784 044f 58       		.byte	0x58
 785 0450 19       		.byte	0x19
 786 0451 4C010000 		.4byte	0x14c
 787 0455 08       		.byte	0x8
 788 0456 00       		.byte	0
 789 0457 03       		.uleb128 0x3
 790 0458 16040000 		.4byte	0x416
 791 045c 02       		.uleb128 0x2
 792 045d 0C080000 		.4byte	.LASF77
 793 0461 0B       		.byte	0xb
 794 0462 5F       		.byte	0x5f
 795 0463 1E       		.byte	0x1e
 796 0464 68040000 		.4byte	0x468
 797 0468 07       		.uleb128 0x7
 798 0469 70010000 		.4byte	.LASF78
 799 046d 0C       		.byte	0xc
 800 046e 0B       		.byte	0xb
 801 046f 64       		.byte	0x64
 802 0470 08       		.byte	0x8
 803 0471 9D040000 		.4byte	0x49d
 804 0475 01       		.uleb128 0x1
 805 0476 F8000000 		.4byte	.LASF70
 806 047a 0B       		.byte	0xb
 807 047b 65       		.byte	0x65
 808 047c 1A       		.byte	0x1a
 809 047d 9D040000 		.4byte	0x49d
 810 0481 00       		.byte	0
 811 0482 01       		.uleb128 0x1
 812 0483 00000000 		.4byte	.LASF73
 813 0487 0B       		.byte	0xb
 814 0488 66       		.byte	0x66
 815 0489 1A       		.byte	0x1a
 816 048a 9D040000 		.4byte	0x49d
 817 048e 04       		.byte	0x4
 818 048f 01       		.uleb128 0x1
 819 0490 ED000000 		.4byte	.LASF79
 820 0494 0B       		.byte	0xb
 821 0495 67       		.byte	0x67
 822 0496 19       		.byte	0x19
 823 0497 99030000 		.4byte	0x399
 824 049b 08       		.byte	0x8
 825 049c 00       		.byte	0
 826 049d 03       		.uleb128 0x3
 827 049e 5C040000 		.4byte	0x45c
 828 04a2 0B       		.uleb128 0xb
 829 04a3 08       		.byte	0x8
 830 04a4 0C       		.byte	0xc
 831 04a5 83       		.byte	0x83
 832 04a6 05       		.byte	0x5
 833 04a7 C6040000 		.4byte	0x4c6
ARM GAS  C:\Users\DEVELO~1\AppData\Local\Temp\ccrzvc7A.s 			page 16


 834 04ab 08       		.uleb128 0x8
 835 04ac 6E747000 		.ascii	"ntp\000"
 836 04b0 0C       		.byte	0xc
 837 04b1 87       		.byte	0x87
 838 04b2 1E       		.byte	0x1e
 839 04b3 C6040000 		.4byte	0x4c6
 840 04b7 00       		.byte	0
 841 04b8 01       		.uleb128 0x1
 842 04b9 81060000 		.4byte	.LASF80
 843 04bd 0C       		.byte	0xc
 844 04be 8B       		.byte	0x8b
 845 04bf 1E       		.byte	0x1e
 846 04c0 CB040000 		.4byte	0x4cb
 847 04c4 04       		.byte	0x4
 848 04c5 00       		.byte	0
 849 04c6 03       		.uleb128 0x3
 850 04c7 94010000 		.4byte	0x194
 851 04cb 20       		.uleb128 0x20
 852 04cc 04       		.byte	0x4
 853 04cd 0B       		.uleb128 0xb
 854 04ce 08       		.byte	0x8
 855 04cf 0C       		.byte	0xc
 856 04d0 90       		.byte	0x90
 857 04d1 05       		.byte	0x5
 858 04d2 F0040000 		.4byte	0x4f0
 859 04d6 08       		.uleb128 0x8
 860 04d7 747000   		.ascii	"tp\000"
 861 04da 0C       		.byte	0xc
 862 04db 94       		.byte	0x94
 863 04dc 1E       		.byte	0x1e
 864 04dd C6040000 		.4byte	0x4c6
 865 04e1 00       		.byte	0
 866 04e2 08       		.uleb128 0x8
 867 04e3 6D736700 		.ascii	"msg\000"
 868 04e7 0C       		.byte	0xc
 869 04e8 98       		.byte	0x98
 870 04e9 1D       		.byte	0x1d
 871 04ea 58010000 		.4byte	0x158
 872 04ee 04       		.byte	0x4
 873 04ef 00       		.byte	0
 874 04f0 0B       		.uleb128 0xb
 875 04f1 04       		.byte	0x4
 876 04f2 0C       		.byte	0xc
 877 04f3 9D       		.byte	0x9d
 878 04f4 05       		.byte	0x5
 879 04f5 07050000 		.4byte	0x507
 880 04f9 01       		.uleb128 0x1
 881 04fa DC030000 		.4byte	.LASF35
 882 04fe 0C       		.byte	0xc
 883 04ff A1       		.byte	0xa1
 884 0500 1E       		.byte	0x1e
 885 0501 6B030000 		.4byte	0x36b
 886 0505 00       		.byte	0
 887 0506 00       		.byte	0
 888 0507 0B       		.uleb128 0xb
 889 0508 04       		.byte	0x4
 890 0509 0C       		.byte	0xc
ARM GAS  C:\Users\DEVELO~1\AppData\Local\Temp\ccrzvc7A.s 			page 17


 891 050a A6       		.byte	0xa6
 892 050b 05       		.byte	0x5
 893 050c 1E050000 		.4byte	0x51e
 894 0510 01       		.uleb128 0x1
 895 0511 C3060000 		.4byte	.LASF81
 896 0515 0C       		.byte	0xc
 897 0516 AA       		.byte	0xaa
 898 0517 1E       		.byte	0x1e
 899 0518 6B030000 		.4byte	0x36b
 900 051c 00       		.byte	0
 901 051d 00       		.byte	0
 902 051e 0B       		.uleb128 0xb
 903 051f 08       		.byte	0x8
 904 0520 0C       		.byte	0xc
 905 0521 AF       		.byte	0xaf
 906 0522 05       		.byte	0x5
 907 0523 42050000 		.4byte	0x542
 908 0527 08       		.uleb128 0x8
 909 0528 75703100 		.ascii	"up1\000"
 910 052c 0C       		.byte	0xc
 911 052d B3       		.byte	0xb3
 912 052e 1E       		.byte	0x1e
 913 052f CB040000 		.4byte	0x4cb
 914 0533 00       		.byte	0
 915 0534 08       		.uleb128 0x8
 916 0535 75703200 		.ascii	"up2\000"
 917 0539 0C       		.byte	0xc
 918 053a B7       		.byte	0xb7
 919 053b 1E       		.byte	0x1e
 920 053c CB040000 		.4byte	0x4cb
 921 0540 04       		.byte	0x4
 922 0541 00       		.byte	0
 923 0542 15       		.uleb128 0x15
 924 0543 08       		.byte	0x8
 925 0544 0C       		.byte	0xc
 926 0545 7F       		.byte	0x7f
 927 0546 80050000 		.4byte	0x580
 928 054a 16       		.uleb128 0x16
 929 054b 737700   		.ascii	"sw\000"
 930 054e 8C       		.byte	0x8c
 931 054f A2040000 		.4byte	0x4a2
 932 0553 16       		.uleb128 0x16
 933 0554 72647900 		.ascii	"rdy\000"
 934 0558 99       		.byte	0x99
 935 0559 CD040000 		.4byte	0x4cd
 936 055d 16       		.uleb128 0x16
 937 055e 69737200 		.ascii	"isr\000"
 938 0562 A2       		.byte	0xa2
 939 0563 F0040000 		.4byte	0x4f0
 940 0567 0F       		.uleb128 0xf
 941 0568 CC000000 		.4byte	.LASF82
 942 056c 0C       		.byte	0xc
 943 056d AB       		.byte	0xab
 944 056e 07       		.byte	0x7
 945 056f 07050000 		.4byte	0x507
 946 0573 0F       		.uleb128 0xf
 947 0574 02060000 		.4byte	.LASF83
ARM GAS  C:\Users\DEVELO~1\AppData\Local\Temp\ccrzvc7A.s 			page 18


 948 0578 0C       		.byte	0xc
 949 0579 B8       		.byte	0xb8
 950 057a 07       		.byte	0x7
 951 057b 1E050000 		.4byte	0x51e
 952 057f 00       		.byte	0
 953 0580 0B       		.uleb128 0xb
 954 0581 10       		.byte	0x10
 955 0582 0C       		.byte	0xc
 956 0583 6C       		.byte	0x6c
 957 0584 09       		.byte	0x9
 958 0585 C6050000 		.4byte	0x5c6
 959 0589 17       		.uleb128 0x17
 960 058a AF000000 		.4byte	.LASF84
 961 058e 70       		.byte	0x70
 962 058f EE000000 		.4byte	0xee
 963 0593 03       		.byte	0x3
 964 0594 00       		.byte	0
 965 0595 17       		.uleb128 0x17
 966 0596 AA010000 		.4byte	.LASF37
 967 059a 74       		.byte	0x74
 968 059b EE000000 		.4byte	0xee
 969 059f 05       		.byte	0x5
 970 05a0 03       		.byte	0x3
 971 05a1 17       		.uleb128 0x17
 972 05a2 AE040000 		.4byte	.LASF85
 973 05a6 7A       		.byte	0x7a
 974 05a7 EE000000 		.4byte	0xee
 975 05ab 18       		.byte	0x18
 976 05ac 08       		.byte	0x8
 977 05ad 01       		.uleb128 0x1
 978 05ae B1050000 		.4byte	.LASF86
 979 05b2 0C       		.byte	0xc
 980 05b3 7E       		.byte	0x7e
 981 05b4 19       		.byte	0x19
 982 05b5 8D030000 		.4byte	0x38d
 983 05b9 04       		.byte	0x4
 984 05ba 08       		.uleb128 0x8
 985 05bb 7500     		.ascii	"u\000"
 986 05bd 0C       		.byte	0xc
 987 05be B9       		.byte	0xb9
 988 05bf 05       		.byte	0x5
 989 05c0 42050000 		.4byte	0x542
 990 05c4 08       		.byte	0x8
 991 05c5 00       		.byte	0
 992 05c6 02       		.uleb128 0x2
 993 05c7 B4000000 		.4byte	.LASF87
 994 05cb 0C       		.byte	0xc
 995 05cc BA       		.byte	0xba
 996 05cd 03       		.byte	0x3
 997 05ce 80050000 		.4byte	0x580
 998 05d2 21       		.uleb128 0x21
 999 05d3 0808     		.2byte	0x808
 1000 05d5 0C       		.byte	0xc
 1001 05d6 C0       		.byte	0xc0
 1002 05d7 09       		.byte	0x9
 1003 05d8 11060000 		.4byte	0x611
 1004 05dc 01       		.uleb128 0x1
ARM GAS  C:\Users\DEVELO~1\AppData\Local\Temp\ccrzvc7A.s 			page 19


 1005 05dd C2000000 		.4byte	.LASF88
 1006 05e1 0C       		.byte	0xc
 1007 05e2 C4       		.byte	0xc4
 1008 05e3 19       		.byte	0x19
 1009 05e4 D1000000 		.4byte	0xd1
 1010 05e8 00       		.byte	0
 1011 05e9 01       		.uleb128 0x1
 1012 05ea F3030000 		.4byte	.LASF89
 1013 05ee 0C       		.byte	0xc
 1014 05ef C8       		.byte	0xc8
 1015 05f0 19       		.byte	0x19
 1016 05f1 D1000000 		.4byte	0xd1
 1017 05f5 02       		.byte	0x2
 1018 05f6 08       		.uleb128 0x8
 1019 05f7 70747200 		.ascii	"ptr\000"
 1020 05fb 0C       		.byte	0xc
 1021 05fc CC       		.byte	0xcc
 1022 05fd 1A       		.byte	0x1a
 1023 05fe 11060000 		.4byte	0x611
 1024 0602 04       		.byte	0x4
 1025 0603 01       		.uleb128 0x1
 1026 0604 9E070000 		.4byte	.LASF90
 1027 0608 0C       		.byte	0xc
 1028 0609 D0       		.byte	0xd0
 1029 060a 19       		.byte	0x19
 1030 060b 16060000 		.4byte	0x616
 1031 060f 08       		.byte	0x8
 1032 0610 00       		.byte	0
 1033 0611 03       		.uleb128 0x3
 1034 0612 C6050000 		.4byte	0x5c6
 1035 0616 22       		.uleb128 0x22
 1036 0617 C6050000 		.4byte	0x5c6
 1037 061b 26060000 		.4byte	0x626
 1038 061f 23       		.uleb128 0x23
 1039 0620 3E000000 		.4byte	0x3e
 1040 0624 7F       		.byte	0x7f
 1041 0625 00       		.byte	0
 1042 0626 02       		.uleb128 0x2
 1043 0627 72060000 		.4byte	.LASF91
 1044 062b 0C       		.byte	0xc
 1045 062c D1       		.byte	0xd1
 1046 062d 03       		.byte	0x3
 1047 062e D2050000 		.4byte	0x5d2
 1048 0632 24       		.uleb128 0x24
 1049 0633 30       		.byte	0x30
 1050 0634 0D       		.byte	0xd
 1051 0635 3906     		.2byte	0x639
 1052 0637 09       		.byte	0x9
 1053 0638 E5060000 		.4byte	0x6e5
 1054 063c 06       		.uleb128 0x6
 1055 063d 43523100 		.ascii	"CR1\000"
 1056 0641 0D       		.byte	0xd
 1057 0642 3B06     		.2byte	0x63b
 1058 0644 11       		.byte	0x11
 1059 0645 FA000000 		.4byte	0xfa
 1060 0649 00       		.byte	0
 1061 064a 06       		.uleb128 0x6
ARM GAS  C:\Users\DEVELO~1\AppData\Local\Temp\ccrzvc7A.s 			page 20


 1062 064b 43523200 		.ascii	"CR2\000"
 1063 064f 0D       		.byte	0xd
 1064 0650 3C06     		.2byte	0x63c
 1065 0652 11       		.byte	0x11
 1066 0653 FA000000 		.4byte	0xfa
 1067 0657 04       		.byte	0x4
 1068 0658 06       		.uleb128 0x6
 1069 0659 43523300 		.ascii	"CR3\000"
 1070 065d 0D       		.byte	0xd
 1071 065e 3D06     		.2byte	0x63d
 1072 0660 11       		.byte	0x11
 1073 0661 FA000000 		.4byte	0xfa
 1074 0665 08       		.byte	0x8
 1075 0666 06       		.uleb128 0x6
 1076 0667 42525200 		.ascii	"BRR\000"
 1077 066b 0D       		.byte	0xd
 1078 066c 3E06     		.2byte	0x63e
 1079 066e 11       		.byte	0x11
 1080 066f FA000000 		.4byte	0xfa
 1081 0673 0C       		.byte	0xc
 1082 0674 05       		.uleb128 0x5
 1083 0675 59010000 		.4byte	.LASF92
 1084 0679 0D       		.byte	0xd
 1085 067a 3F06     		.2byte	0x63f
 1086 067c 11       		.byte	0x11
 1087 067d FA000000 		.4byte	0xfa
 1088 0681 10       		.byte	0x10
 1089 0682 05       		.uleb128 0x5
 1090 0683 CB070000 		.4byte	.LASF93
 1091 0687 0D       		.byte	0xd
 1092 0688 4006     		.2byte	0x640
 1093 068a 11       		.byte	0x11
 1094 068b FA000000 		.4byte	0xfa
 1095 068f 14       		.byte	0x14
 1096 0690 06       		.uleb128 0x6
 1097 0691 52515200 		.ascii	"RQR\000"
 1098 0695 0D       		.byte	0xd
 1099 0696 4106     		.2byte	0x641
 1100 0698 11       		.byte	0x11
 1101 0699 FA000000 		.4byte	0xfa
 1102 069d 18       		.byte	0x18
 1103 069e 06       		.uleb128 0x6
 1104 069f 49535200 		.ascii	"ISR\000"
 1105 06a3 0D       		.byte	0xd
 1106 06a4 4206     		.2byte	0x642
 1107 06a6 11       		.byte	0x11
 1108 06a7 FA000000 		.4byte	0xfa
 1109 06ab 1C       		.byte	0x1c
 1110 06ac 06       		.uleb128 0x6
 1111 06ad 49435200 		.ascii	"ICR\000"
 1112 06b1 0D       		.byte	0xd
 1113 06b2 4306     		.2byte	0x643
 1114 06b4 11       		.byte	0x11
 1115 06b5 FA000000 		.4byte	0xfa
 1116 06b9 20       		.byte	0x20
 1117 06ba 06       		.uleb128 0x6
 1118 06bb 52445200 		.ascii	"RDR\000"
ARM GAS  C:\Users\DEVELO~1\AppData\Local\Temp\ccrzvc7A.s 			page 21


 1119 06bf 0D       		.byte	0xd
 1120 06c0 4406     		.2byte	0x644
 1121 06c2 11       		.byte	0x11
 1122 06c3 FA000000 		.4byte	0xfa
 1123 06c7 24       		.byte	0x24
 1124 06c8 06       		.uleb128 0x6
 1125 06c9 54445200 		.ascii	"TDR\000"
 1126 06cd 0D       		.byte	0xd
 1127 06ce 4506     		.2byte	0x645
 1128 06d0 11       		.byte	0x11
 1129 06d1 FA000000 		.4byte	0xfa
 1130 06d5 28       		.byte	0x28
 1131 06d6 05       		.uleb128 0x5
 1132 06d7 D7020000 		.4byte	.LASF94
 1133 06db 0D       		.byte	0xd
 1134 06dc 4606     		.2byte	0x646
 1135 06de 11       		.byte	0x11
 1136 06df FA000000 		.4byte	0xfa
 1137 06e3 2C       		.byte	0x2c
 1138 06e4 00       		.byte	0
 1139 06e5 14       		.uleb128 0x14
 1140 06e6 3E040000 		.4byte	.LASF95
 1141 06ea 0D       		.byte	0xd
 1142 06eb 4706     		.2byte	0x647
 1143 06ed 32060000 		.4byte	0x632
 1144 06f1 13       		.uleb128 0x13
 1145 06f2 8B000000 		.4byte	.LASF96
 1146 06f6 24       		.byte	0x24
 1147 06f7 0E       		.byte	0xe
 1148 06f8 E001     		.2byte	0x1e0
 1149 06fa 08       		.byte	0x8
 1150 06fb 77070000 		.4byte	0x777
 1151 06ff 06       		.uleb128 0x6
 1152 0700 723400   		.ascii	"r4\000"
 1153 0703 0E       		.byte	0xe
 1154 0704 F901     		.2byte	0x1f9
 1155 0706 11       		.byte	0x11
 1156 0707 EE000000 		.4byte	0xee
 1157 070b 00       		.byte	0
 1158 070c 06       		.uleb128 0x6
 1159 070d 723500   		.ascii	"r5\000"
 1160 0710 0E       		.byte	0xe
 1161 0711 FA01     		.2byte	0x1fa
 1162 0713 11       		.byte	0x11
 1163 0714 EE000000 		.4byte	0xee
 1164 0718 04       		.byte	0x4
 1165 0719 06       		.uleb128 0x6
 1166 071a 723600   		.ascii	"r6\000"
 1167 071d 0E       		.byte	0xe
 1168 071e FB01     		.2byte	0x1fb
 1169 0720 11       		.byte	0x11
 1170 0721 EE000000 		.4byte	0xee
 1171 0725 08       		.byte	0x8
 1172 0726 06       		.uleb128 0x6
 1173 0727 723700   		.ascii	"r7\000"
 1174 072a 0E       		.byte	0xe
 1175 072b FC01     		.2byte	0x1fc
ARM GAS  C:\Users\DEVELO~1\AppData\Local\Temp\ccrzvc7A.s 			page 22


 1176 072d 11       		.byte	0x11
 1177 072e EE000000 		.4byte	0xee
 1178 0732 0C       		.byte	0xc
 1179 0733 06       		.uleb128 0x6
 1180 0734 723800   		.ascii	"r8\000"
 1181 0737 0E       		.byte	0xe
 1182 0738 FD01     		.2byte	0x1fd
 1183 073a 11       		.byte	0x11
 1184 073b EE000000 		.4byte	0xee
 1185 073f 10       		.byte	0x10
 1186 0740 06       		.uleb128 0x6
 1187 0741 723900   		.ascii	"r9\000"
 1188 0744 0E       		.byte	0xe
 1189 0745 FE01     		.2byte	0x1fe
 1190 0747 11       		.byte	0x11
 1191 0748 EE000000 		.4byte	0xee
 1192 074c 14       		.byte	0x14
 1193 074d 06       		.uleb128 0x6
 1194 074e 72313000 		.ascii	"r10\000"
 1195 0752 0E       		.byte	0xe
 1196 0753 FF01     		.2byte	0x1ff
 1197 0755 11       		.byte	0x11
 1198 0756 EE000000 		.4byte	0xee
 1199 075a 18       		.byte	0x18
 1200 075b 06       		.uleb128 0x6
 1201 075c 72313100 		.ascii	"r11\000"
 1202 0760 0E       		.byte	0xe
 1203 0761 0002     		.2byte	0x200
 1204 0763 11       		.byte	0x11
 1205 0764 EE000000 		.4byte	0xee
 1206 0768 1C       		.byte	0x1c
 1207 0769 06       		.uleb128 0x6
 1208 076a 6C7200   		.ascii	"lr\000"
 1209 076d 0E       		.byte	0xe
 1210 076e 0102     		.2byte	0x201
 1211 0770 11       		.byte	0x11
 1212 0771 EE000000 		.4byte	0xee
 1213 0775 20       		.byte	0x20
 1214 0776 00       		.byte	0
 1215 0777 13       		.uleb128 0x13
 1216 0778 89050000 		.4byte	.LASF97
 1217 077c 04       		.byte	0x4
 1218 077d 0E       		.byte	0xe
 1219 077e 0A02     		.2byte	0x20a
 1220 0780 08       		.byte	0x8
 1221 0781 93070000 		.4byte	0x793
 1222 0785 06       		.uleb128 0x6
 1223 0786 737000   		.ascii	"sp\000"
 1224 0789 0E       		.byte	0xe
 1225 078a 0B02     		.2byte	0x20b
 1226 078c 1A       		.byte	0x1a
 1227 078d 93070000 		.4byte	0x793
 1228 0791 00       		.byte	0
 1229 0792 00       		.byte	0
 1230 0793 03       		.uleb128 0x3
 1231 0794 F1060000 		.4byte	0x6f1
 1232 0798 07       		.uleb128 0x7
ARM GAS  C:\Users\DEVELO~1\AppData\Local\Temp\ccrzvc7A.s 			page 23


 1233 0799 1F050000 		.4byte	.LASF98
 1234 079d 18       		.byte	0x18
 1235 079e 07       		.byte	0x7
 1236 079f 64       		.byte	0x64
 1237 07a0 10       		.byte	0x10
 1238 07a1 CD070000 		.4byte	0x7cd
 1239 07a5 01       		.uleb128 0x1
 1240 07a6 8E070000 		.4byte	.LASF99
 1241 07aa 07       		.byte	0x7
 1242 07ab 68       		.byte	0x68
 1243 07ac 21       		.byte	0x21
 1244 07ad 5C040000 		.4byte	0x45c
 1245 07b1 00       		.byte	0
 1246 07b2 01       		.uleb128 0x1
 1247 07b3 69060000 		.4byte	.LASF100
 1248 07b7 07       		.byte	0x7
 1249 07b8 73       		.byte	0x73
 1250 07b9 21       		.byte	0x21
 1251 07ba 8D030000 		.4byte	0x38d
 1252 07be 0C       		.byte	0xc
 1253 07bf 01       		.uleb128 0x1
 1254 07c0 B6040000 		.4byte	.LASF101
 1255 07c4 07       		.byte	0x7
 1256 07c5 79       		.byte	0x79
 1257 07c6 21       		.byte	0x21
 1258 07c7 0B010000 		.4byte	0x10b
 1259 07cb 10       		.byte	0x10
 1260 07cc 00       		.byte	0
 1261 07cd 02       		.uleb128 0x2
 1262 07ce 8D040000 		.4byte	.LASF102
 1263 07d2 07       		.byte	0x7
 1264 07d3 7B       		.byte	0x7b
 1265 07d4 03       		.byte	0x3
 1266 07d5 98070000 		.4byte	0x798
 1267 07d9 07       		.uleb128 0x7
 1268 07da BF020000 		.4byte	.LASF103
 1269 07de 08       		.byte	0x8
 1270 07df 07       		.byte	0x7
 1271 07e0 80       		.byte	0x80
 1272 07e1 10       		.byte	0x10
 1273 07e2 F4070000 		.4byte	0x7f4
 1274 07e6 01       		.uleb128 0x1
 1275 07e7 E1030000 		.4byte	.LASF104
 1276 07eb 07       		.byte	0x7
 1277 07ec 84       		.byte	0x84
 1278 07ed 21       		.byte	0x21
 1279 07ee DD030000 		.4byte	0x3dd
 1280 07f2 00       		.byte	0
 1281 07f3 00       		.byte	0
 1282 07f4 02       		.uleb128 0x2
 1283 07f5 1C080000 		.4byte	.LASF105
 1284 07f9 07       		.byte	0x7
 1285 07fa 85       		.byte	0x85
 1286 07fb 03       		.byte	0x3
 1287 07fc D9070000 		.4byte	0x7d9
 1288 0800 02       		.uleb128 0x2
 1289 0801 03050000 		.4byte	.LASF106
ARM GAS  C:\Users\DEVELO~1\AppData\Local\Temp\ccrzvc7A.s 			page 24


 1290 0805 07       		.byte	0x7
 1291 0806 8A       		.byte	0x8a
 1292 0807 14       		.byte	0x14
 1293 0808 C6040000 		.4byte	0x4c6
 1294 080c 07       		.uleb128 0x7
 1295 080d FD000000 		.4byte	.LASF107
 1296 0811 08       		.byte	0x8
 1297 0812 07       		.byte	0x7
 1298 0813 8F       		.byte	0x8f
 1299 0814 10       		.byte	0x10
 1300 0815 27080000 		.4byte	0x827
 1301 0819 01       		.uleb128 0x1
 1302 081a E1030000 		.4byte	.LASF104
 1303 081e 07       		.byte	0x7
 1304 081f 93       		.byte	0x93
 1305 0820 21       		.byte	0x21
 1306 0821 DD030000 		.4byte	0x3dd
 1307 0825 00       		.byte	0
 1308 0826 00       		.byte	0
 1309 0827 02       		.uleb128 0x2
 1310 0828 CA060000 		.4byte	.LASF108
 1311 082c 07       		.byte	0x7
 1312 082d 94       		.byte	0x94
 1313 082e 03       		.byte	0x3
 1314 082f 0C080000 		.4byte	0x80c
 1315 0833 15       		.uleb128 0x15
 1316 0834 0C       		.byte	0xc
 1317 0835 07       		.byte	0x7
 1318 0836 A0       		.byte	0xa0
 1319 0837 60080000 		.4byte	0x860
 1320 083b 0F       		.uleb128 0xf
 1321 083c E3080000 		.4byte	.LASF109
 1322 0840 07       		.byte	0x7
 1323 0841 A4       		.byte	0xa4
 1324 0842 21       		.byte	0x21
 1325 0843 B1030000 		.4byte	0x3b1
 1326 0847 0F       		.uleb128 0xf
 1327 0848 E1030000 		.4byte	.LASF104
 1328 084c 07       		.byte	0x7
 1329 084d A8       		.byte	0xa8
 1330 084e 21       		.byte	0x21
 1331 084f DD030000 		.4byte	0x3dd
 1332 0853 0F       		.uleb128 0xf
 1333 0854 C4070000 		.4byte	.LASF110
 1334 0858 07       		.byte	0x7
 1335 0859 AC       		.byte	0xac
 1336 085a 21       		.byte	0x21
 1337 085b 16040000 		.4byte	0x416
 1338 085f 00       		.byte	0
 1339 0860 15       		.uleb128 0x15
 1340 0861 04       		.byte	0x4
 1341 0862 07       		.byte	0x7
 1342 0863 EB       		.byte	0xeb
 1343 0864 C9080000 		.4byte	0x8c9
 1344 0868 0F       		.uleb128 0xf
 1345 0869 19000000 		.4byte	.LASF111
 1346 086d 07       		.byte	0x7
ARM GAS  C:\Users\DEVELO~1\AppData\Local\Temp\ccrzvc7A.s 			page 25


 1347 086e F2       		.byte	0xf2
 1348 086f 21       		.byte	0x21
 1349 0870 58010000 		.4byte	0x158
 1350 0874 0F       		.uleb128 0xf
 1351 0875 D1000000 		.4byte	.LASF112
 1352 0879 07       		.byte	0x7
 1353 087a F9       		.byte	0xf9
 1354 087b 21       		.byte	0x21
 1355 087c 58010000 		.4byte	0x158
 1356 0880 10       		.uleb128 0x10
 1357 0881 81060000 		.4byte	.LASF80
 1358 0885 0001     		.2byte	0x100
 1359 0887 22       		.byte	0x22
 1360 0888 CB040000 		.4byte	0x4cb
 1361 088c 10       		.uleb128 0x10
 1362 088d B6030000 		.4byte	.LASF113
 1363 0891 0701     		.2byte	0x107
 1364 0893 22       		.byte	0x22
 1365 0894 C9080000 		.4byte	0x8c9
 1366 0898 10       		.uleb128 0x10
 1367 0899 E5000000 		.4byte	.LASF114
 1368 089d 0C01     		.2byte	0x10c
 1369 089f 21       		.byte	0x21
 1370 08a0 58010000 		.4byte	0x158
 1371 08a4 10       		.uleb128 0x10
 1372 08a5 99030000 		.4byte	.LASF115
 1373 08a9 1501     		.2byte	0x115
 1374 08ab 22       		.byte	0x22
 1375 08ac F6080000 		.4byte	0x8f6
 1376 08b0 10       		.uleb128 0x10
 1377 08b1 09070000 		.4byte	.LASF116
 1378 08b5 1E01     		.2byte	0x11e
 1379 08b7 22       		.byte	0x22
 1380 08b8 30090000 		.4byte	0x930
 1381 08bc 10       		.uleb128 0x10
 1382 08bd 88060000 		.4byte	.LASF117
 1383 08c1 2601     		.2byte	0x126
 1384 08c3 21       		.byte	0x21
 1385 08c4 64010000 		.4byte	0x164
 1386 08c8 00       		.byte	0
 1387 08c9 03       		.uleb128 0x3
 1388 08ca 00080000 		.4byte	0x800
 1389 08ce 07       		.uleb128 0x7
 1390 08cf DA060000 		.4byte	.LASF118
 1391 08d3 0C       		.byte	0xc
 1392 08d4 0F       		.byte	0xf
 1393 08d5 34       		.byte	0x34
 1394 08d6 10       		.byte	0x10
 1395 08d7 F6080000 		.4byte	0x8f6
 1396 08db 01       		.uleb128 0x1
 1397 08dc E1030000 		.4byte	.LASF104
 1398 08e0 0F       		.byte	0xf
 1399 08e1 35       		.byte	0x35
 1400 08e2 19       		.byte	0x19
 1401 08e3 DD030000 		.4byte	0x3dd
 1402 08e7 00       		.byte	0
 1403 08e8 08       		.uleb128 0x8
ARM GAS  C:\Users\DEVELO~1\AppData\Local\Temp\ccrzvc7A.s 			page 26


 1404 08e9 636E7400 		.ascii	"cnt\000"
 1405 08ed 0F       		.byte	0xf
 1406 08ee 37       		.byte	0x37
 1407 08ef 19       		.byte	0x19
 1408 08f0 7C010000 		.4byte	0x17c
 1409 08f4 08       		.byte	0x8
 1410 08f5 00       		.byte	0
 1411 08f6 03       		.uleb128 0x3
 1412 08f7 CE080000 		.4byte	0x8ce
 1413 08fb 07       		.uleb128 0x7
 1414 08fc 68080000 		.4byte	.LASF119
 1415 0900 10       		.byte	0x10
 1416 0901 10       		.byte	0x10
 1417 0902 39       		.byte	0x39
 1418 0903 08       		.byte	0x8
 1419 0904 30090000 		.4byte	0x930
 1420 0908 01       		.uleb128 0x1
 1421 0909 E1030000 		.4byte	.LASF104
 1422 090d 10       		.byte	0x10
 1423 090e 3A       		.byte	0x3a
 1424 090f 19       		.byte	0x19
 1425 0910 DD030000 		.4byte	0x3dd
 1426 0914 00       		.byte	0
 1427 0915 01       		.uleb128 0x1
 1428 0916 20070000 		.4byte	.LASF34
 1429 091a 10       		.byte	0x10
 1430 091b 3C       		.byte	0x3c
 1431 091c 1A       		.byte	0x1a
 1432 091d C6040000 		.4byte	0x4c6
 1433 0921 08       		.byte	0x8
 1434 0922 01       		.uleb128 0x1
 1435 0923 F8000000 		.4byte	.LASF70
 1436 0927 10       		.byte	0x10
 1437 0928 3E       		.byte	0x3e
 1438 0929 1A       		.byte	0x1a
 1439 092a ED090000 		.4byte	0x9ed
 1440 092e 0C       		.byte	0xc
 1441 092f 00       		.byte	0
 1442 0930 03       		.uleb128 0x3
 1443 0931 FB080000 		.4byte	0x8fb
 1444 0935 03       		.uleb128 0x3
 1445 0936 83020000 		.4byte	0x283
 1446 093a 03       		.uleb128 0x3
 1447 093b 1C010000 		.4byte	0x11c
 1448 093f 13       		.uleb128 0x13
 1449 0940 63040000 		.4byte	.LASF120
 1450 0944 10       		.byte	0x10
 1451 0945 07       		.byte	0x7
 1452 0946 5C01     		.2byte	0x15c
 1453 0948 10       		.byte	0x10
 1454 0949 6A090000 		.4byte	0x96a
 1455 094d 05       		.uleb128 0x5
 1456 094e C4070000 		.4byte	.LASF110
 1457 0952 07       		.byte	0x7
 1458 0953 6101     		.2byte	0x161
 1459 0955 21       		.byte	0x21
 1460 0956 16040000 		.4byte	0x416
ARM GAS  C:\Users\DEVELO~1\AppData\Local\Temp\ccrzvc7A.s 			page 27


 1461 095a 00       		.byte	0
 1462 095b 05       		.uleb128 0x5
 1463 095c E7060000 		.4byte	.LASF121
 1464 0960 07       		.byte	0x7
 1465 0961 6501     		.2byte	0x165
 1466 0963 22       		.byte	0x22
 1467 0964 C6040000 		.4byte	0x4c6
 1468 0968 0C       		.byte	0xc
 1469 0969 00       		.byte	0
 1470 096a 14       		.uleb128 0x14
 1471 096b 05000000 		.4byte	.LASF122
 1472 096f 07       		.byte	0x7
 1473 0970 6601     		.2byte	0x166
 1474 0972 3F090000 		.4byte	0x93f
 1475 0976 13       		.uleb128 0x13
 1476 0977 73050000 		.4byte	.LASF123
 1477 097b 14       		.byte	0x14
 1478 097c 07       		.byte	0x7
 1479 097d 6B01     		.2byte	0x16b
 1480 097f 10       		.byte	0x10
 1481 0980 CB090000 		.4byte	0x9cb
 1482 0984 05       		.uleb128 0x5
 1483 0985 DC030000 		.4byte	.LASF35
 1484 0989 07       		.byte	0x7
 1485 098a 6F01     		.2byte	0x16f
 1486 098c 22       		.byte	0x22
 1487 098d 6B030000 		.4byte	0x36b
 1488 0991 00       		.byte	0
 1489 0992 05       		.uleb128 0x5
 1490 0993 19030000 		.4byte	.LASF124
 1491 0997 07       		.byte	0x7
 1492 0998 7501     		.2byte	0x175
 1493 099a 22       		.byte	0x22
 1494 099b 3A090000 		.4byte	0x93a
 1495 099f 04       		.byte	0x4
 1496 09a0 05       		.uleb128 0x5
 1497 09a1 27080000 		.4byte	.LASF125
 1498 09a5 07       		.byte	0x7
 1499 09a6 7901     		.2byte	0x179
 1500 09a8 22       		.byte	0x22
 1501 09a9 3A090000 		.4byte	0x93a
 1502 09ad 08       		.byte	0x8
 1503 09ae 05       		.uleb128 0x5
 1504 09af 79030000 		.4byte	.LASF126
 1505 09b3 07       		.byte	0x7
 1506 09b4 7F01     		.2byte	0x17f
 1507 09b6 22       		.byte	0x22
 1508 09b7 3A090000 		.4byte	0x93a
 1509 09bb 0C       		.byte	0xc
 1510 09bc 05       		.uleb128 0x5
 1511 09bd F0080000 		.4byte	.LASF127
 1512 09c1 07       		.byte	0x7
 1513 09c2 8301     		.2byte	0x183
 1514 09c4 22       		.byte	0x22
 1515 09c5 3A090000 		.4byte	0x93a
 1516 09c9 10       		.byte	0x10
 1517 09ca 00       		.byte	0
ARM GAS  C:\Users\DEVELO~1\AppData\Local\Temp\ccrzvc7A.s 			page 28


 1518 09cb 14       		.uleb128 0x14
 1519 09cc 4D080000 		.4byte	.LASF128
 1520 09d0 07       		.byte	0x7
 1521 09d1 8501     		.2byte	0x185
 1522 09d3 76090000 		.4byte	0x976
 1523 09d7 0E       		.uleb128 0xe
 1524 09d8 CB090000 		.4byte	0x9cb
 1525 09dc 03       		.uleb128 0x3
 1526 09dd D7090000 		.4byte	0x9d7
 1527 09e1 02       		.uleb128 0x2
 1528 09e2 29030000 		.4byte	.LASF129
 1529 09e6 10       		.byte	0x10
 1530 09e7 34       		.byte	0x34
 1531 09e8 19       		.byte	0x19
 1532 09e9 FB080000 		.4byte	0x8fb
 1533 09ed 03       		.uleb128 0x3
 1534 09ee E1090000 		.4byte	0x9e1
 1535 09f2 02       		.uleb128 0x2
 1536 09f3 C0040000 		.4byte	.LASF130
 1537 09f7 11       		.byte	0x11
 1538 09f8 34       		.byte	0x34
 1539 09f9 1F       		.byte	0x1f
 1540 09fa FE090000 		.4byte	0x9fe
 1541 09fe 07       		.uleb128 0x7
 1542 09ff 07090000 		.4byte	.LASF131
 1543 0a03 14       		.byte	0x14
 1544 0a04 11       		.byte	0x11
 1545 0a05 39       		.byte	0x39
 1546 0a06 08       		.byte	0x8
 1547 0a07 4D0A0000 		.4byte	0xa4d
 1548 0a0b 01       		.uleb128 0x1
 1549 0a0c F8000000 		.4byte	.LASF70
 1550 0a10 11       		.byte	0x11
 1551 0a11 3A       		.byte	0x3a
 1552 0a12 1A       		.byte	0x1a
 1553 0a13 4D0A0000 		.4byte	0xa4d
 1554 0a17 00       		.byte	0
 1555 0a18 01       		.uleb128 0x1
 1556 0a19 16050000 		.4byte	.LASF132
 1557 0a1d 11       		.byte	0x11
 1558 0a1e 3D       		.byte	0x3d
 1559 0a1f 1A       		.byte	0x1a
 1560 0a20 C6040000 		.4byte	0x4c6
 1561 0a24 04       		.byte	0x4
 1562 0a25 01       		.uleb128 0x1
 1563 0a26 F9060000 		.4byte	.LASF133
 1564 0a2a 11       		.byte	0x11
 1565 0a2b 3F       		.byte	0x3f
 1566 0a2c 19       		.byte	0x19
 1567 0a2d 64010000 		.4byte	0x164
 1568 0a31 08       		.byte	0x8
 1569 0a32 01       		.uleb128 0x1
 1570 0a33 A5080000 		.4byte	.LASF38
 1571 0a37 11       		.byte	0x11
 1572 0a38 41       		.byte	0x41
 1573 0a39 19       		.byte	0x19
 1574 0a3a 70010000 		.4byte	0x170
ARM GAS  C:\Users\DEVELO~1\AppData\Local\Temp\ccrzvc7A.s 			page 29


 1575 0a3e 0C       		.byte	0xc
 1576 0a3f 01       		.uleb128 0x1
 1577 0a40 CB020000 		.4byte	.LASF134
 1578 0a44 11       		.byte	0x11
 1579 0a45 43       		.byte	0x43
 1580 0a46 19       		.byte	0x19
 1581 0a47 70010000 		.4byte	0x170
 1582 0a4b 10       		.byte	0x10
 1583 0a4c 00       		.byte	0
 1584 0a4d 03       		.uleb128 0x3
 1585 0a4e F2090000 		.4byte	0x9f2
 1586 0a52 07       		.uleb128 0x7
 1587 0a53 66050000 		.4byte	.LASF135
 1588 0a57 04       		.byte	0x4
 1589 0a58 11       		.byte	0x11
 1590 0a59 4A       		.byte	0x4a
 1591 0a5a 10       		.byte	0x10
 1592 0a5b 6D0A0000 		.4byte	0xa6d
 1593 0a5f 01       		.uleb128 0x1
 1594 0a60 F8000000 		.4byte	.LASF70
 1595 0a64 11       		.byte	0x11
 1596 0a65 4B       		.byte	0x4b
 1597 0a66 1A       		.byte	0x1a
 1598 0a67 4D0A0000 		.4byte	0xa4d
 1599 0a6b 00       		.byte	0
 1600 0a6c 00       		.byte	0
 1601 0a6d 02       		.uleb128 0x2
 1602 0a6e 3A030000 		.4byte	.LASF136
 1603 0a72 11       		.byte	0x11
 1604 0a73 4E       		.byte	0x4e
 1605 0a74 03       		.byte	0x3
 1606 0a75 520A0000 		.4byte	0xa52
 1607 0a79 09       		.uleb128 0x9
 1608 0a7a 01       		.byte	0x1
 1609 0a7b 02       		.byte	0x2
 1610 0a7c 3A060000 		.4byte	.LASF137
 1611 0a80 03       		.uleb128 0x3
 1612 0a81 C0000000 		.4byte	0xc0
 1613 0a85 07       		.uleb128 0x7
 1614 0a86 96060000 		.4byte	.LASF138
 1615 0a8a 14       		.byte	0x14
 1616 0a8b 12       		.byte	0x12
 1617 0a8c 4F       		.byte	0x4f
 1618 0a8d 08       		.byte	0x8
 1619 0a8e D40A0000 		.4byte	0xad4
 1620 0a92 01       		.uleb128 0x1
 1621 0a93 D3080000 		.4byte	.LASF139
 1622 0a97 12       		.byte	0x12
 1623 0a98 50       		.byte	0x50
 1624 0a99 03       		.byte	0x3
 1625 0a9a 2D000000 		.4byte	0x2d
 1626 0a9e 00       		.byte	0
 1627 0a9f 01       		.uleb128 0x1
 1628 0aa0 25000000 		.4byte	.LASF140
 1629 0aa4 12       		.byte	0x12
 1630 0aa5 50       		.byte	0x50
 1631 0aa6 03       		.byte	0x3
ARM GAS  C:\Users\DEVELO~1\AppData\Local\Temp\ccrzvc7A.s 			page 30


 1632 0aa7 F70A0000 		.4byte	0xaf7
 1633 0aab 04       		.byte	0x4
 1634 0aac 01       		.uleb128 0x1
 1635 0aad B5080000 		.4byte	.LASF141
 1636 0ab1 12       		.byte	0x12
 1637 0ab2 50       		.byte	0x50
 1638 0ab3 03       		.byte	0x3
 1639 0ab4 150B0000 		.4byte	0xb15
 1640 0ab8 08       		.byte	0x8
 1641 0ab9 08       		.uleb128 0x8
 1642 0aba 70757400 		.ascii	"put\000"
 1643 0abe 12       		.byte	0x12
 1644 0abf 50       		.byte	0x50
 1645 0ac0 03       		.byte	0x3
 1646 0ac1 2E0B0000 		.4byte	0xb2e
 1647 0ac5 0C       		.byte	0xc
 1648 0ac6 08       		.uleb128 0x8
 1649 0ac7 67657400 		.ascii	"get\000"
 1650 0acb 12       		.byte	0x12
 1651 0acc 50       		.byte	0x50
 1652 0acd 03       		.byte	0x3
 1653 0ace 420B0000 		.4byte	0xb42
 1654 0ad2 10       		.byte	0x10
 1655 0ad3 00       		.byte	0
 1656 0ad4 0E       		.uleb128 0xe
 1657 0ad5 850A0000 		.4byte	0xa85
 1658 0ad9 0C       		.uleb128 0xc
 1659 0ada 2D000000 		.4byte	0x2d
 1660 0ade F20A0000 		.4byte	0xaf2
 1661 0ae2 04       		.uleb128 0x4
 1662 0ae3 CB040000 		.4byte	0x4cb
 1663 0ae7 04       		.uleb128 0x4
 1664 0ae8 F20A0000 		.4byte	0xaf2
 1665 0aec 04       		.uleb128 0x4
 1666 0aed 2D000000 		.4byte	0x2d
 1667 0af1 00       		.byte	0
 1668 0af2 03       		.uleb128 0x3
 1669 0af3 CC000000 		.4byte	0xcc
 1670 0af7 03       		.uleb128 0x3
 1671 0af8 D90A0000 		.4byte	0xad9
 1672 0afc 0C       		.uleb128 0xc
 1673 0afd 2D000000 		.4byte	0x2d
 1674 0b01 150B0000 		.4byte	0xb15
 1675 0b05 04       		.uleb128 0x4
 1676 0b06 CB040000 		.4byte	0x4cb
 1677 0b0a 04       		.uleb128 0x4
 1678 0b0b 800A0000 		.4byte	0xa80
 1679 0b0f 04       		.uleb128 0x4
 1680 0b10 2D000000 		.4byte	0x2d
 1681 0b14 00       		.byte	0
 1682 0b15 03       		.uleb128 0x3
 1683 0b16 FC0A0000 		.4byte	0xafc
 1684 0b1a 0C       		.uleb128 0xc
 1685 0b1b 58010000 		.4byte	0x158
 1686 0b1f 2E0B0000 		.4byte	0xb2e
 1687 0b23 04       		.uleb128 0x4
 1688 0b24 CB040000 		.4byte	0x4cb
ARM GAS  C:\Users\DEVELO~1\AppData\Local\Temp\ccrzvc7A.s 			page 31


 1689 0b28 04       		.uleb128 0x4
 1690 0b29 C0000000 		.4byte	0xc0
 1691 0b2d 00       		.byte	0
 1692 0b2e 03       		.uleb128 0x3
 1693 0b2f 1A0B0000 		.4byte	0xb1a
 1694 0b33 0C       		.uleb128 0xc
 1695 0b34 58010000 		.4byte	0x158
 1696 0b38 420B0000 		.4byte	0xb42
 1697 0b3c 04       		.uleb128 0x4
 1698 0b3d CB040000 		.4byte	0x4cb
 1699 0b41 00       		.byte	0
 1700 0b42 03       		.uleb128 0x3
 1701 0b43 330B0000 		.4byte	0xb33
 1702 0b47 0B       		.uleb128 0xb
 1703 0b48 04       		.byte	0x4
 1704 0b49 12       		.byte	0x12
 1705 0b4a 5A       		.byte	0x5a
 1706 0b4b 09       		.byte	0x9
 1707 0b4c 5E0B0000 		.4byte	0xb5e
 1708 0b50 08       		.uleb128 0x8
 1709 0b51 766D7400 		.ascii	"vmt\000"
 1710 0b55 12       		.byte	0x12
 1711 0b56 5C       		.byte	0x5c
 1712 0b57 29       		.byte	0x29
 1713 0b58 5E0B0000 		.4byte	0xb5e
 1714 0b5c 00       		.byte	0
 1715 0b5d 00       		.byte	0
 1716 0b5e 03       		.uleb128 0x3
 1717 0b5f D40A0000 		.4byte	0xad4
 1718 0b63 02       		.uleb128 0x2
 1719 0b64 65070000 		.4byte	.LASF142
 1720 0b68 12       		.byte	0x12
 1721 0b69 5E       		.byte	0x5e
 1722 0b6a 03       		.byte	0x3
 1723 0b6b 470B0000 		.4byte	0xb47
 1724 0b6f 0C       		.uleb128 0xc
 1725 0b70 58010000 		.4byte	0x158
 1726 0b74 880B0000 		.4byte	0xb88
 1727 0b78 04       		.uleb128 0x4
 1728 0b79 CB040000 		.4byte	0x4cb
 1729 0b7d 04       		.uleb128 0x4
 1730 0b7e C0000000 		.4byte	0xc0
 1731 0b82 04       		.uleb128 0x4
 1732 0b83 99030000 		.4byte	0x399
 1733 0b87 00       		.byte	0
 1734 0b88 03       		.uleb128 0x3
 1735 0b89 6F0B0000 		.4byte	0xb6f
 1736 0b8d 0C       		.uleb128 0xc
 1737 0b8e 58010000 		.4byte	0x158
 1738 0b92 A10B0000 		.4byte	0xba1
 1739 0b96 04       		.uleb128 0x4
 1740 0b97 CB040000 		.4byte	0x4cb
 1741 0b9b 04       		.uleb128 0x4
 1742 0b9c 99030000 		.4byte	0x399
 1743 0ba0 00       		.byte	0
 1744 0ba1 03       		.uleb128 0x3
 1745 0ba2 8D0B0000 		.4byte	0xb8d
ARM GAS  C:\Users\DEVELO~1\AppData\Local\Temp\ccrzvc7A.s 			page 32


 1746 0ba6 0C       		.uleb128 0xc
 1747 0ba7 2D000000 		.4byte	0x2d
 1748 0bab C40B0000 		.4byte	0xbc4
 1749 0baf 04       		.uleb128 0x4
 1750 0bb0 CB040000 		.4byte	0x4cb
 1751 0bb4 04       		.uleb128 0x4
 1752 0bb5 F20A0000 		.4byte	0xaf2
 1753 0bb9 04       		.uleb128 0x4
 1754 0bba 2D000000 		.4byte	0x2d
 1755 0bbe 04       		.uleb128 0x4
 1756 0bbf 99030000 		.4byte	0x399
 1757 0bc3 00       		.byte	0
 1758 0bc4 03       		.uleb128 0x3
 1759 0bc5 A60B0000 		.4byte	0xba6
 1760 0bc9 0C       		.uleb128 0xc
 1761 0bca 2D000000 		.4byte	0x2d
 1762 0bce E70B0000 		.4byte	0xbe7
 1763 0bd2 04       		.uleb128 0x4
 1764 0bd3 CB040000 		.4byte	0x4cb
 1765 0bd7 04       		.uleb128 0x4
 1766 0bd8 800A0000 		.4byte	0xa80
 1767 0bdc 04       		.uleb128 0x4
 1768 0bdd 2D000000 		.4byte	0x2d
 1769 0be1 04       		.uleb128 0x4
 1770 0be2 99030000 		.4byte	0x399
 1771 0be6 00       		.byte	0
 1772 0be7 03       		.uleb128 0x3
 1773 0be8 C90B0000 		.4byte	0xbc9
 1774 0bec 0C       		.uleb128 0xc
 1775 0bed 58010000 		.4byte	0x158
 1776 0bf1 050C0000 		.4byte	0xc05
 1777 0bf5 04       		.uleb128 0x4
 1778 0bf6 CB040000 		.4byte	0x4cb
 1779 0bfa 04       		.uleb128 0x4
 1780 0bfb 3E000000 		.4byte	0x3e
 1781 0bff 04       		.uleb128 0x4
 1782 0c00 CB040000 		.4byte	0x4cb
 1783 0c04 00       		.byte	0
 1784 0c05 03       		.uleb128 0x3
 1785 0c06 EC0B0000 		.4byte	0xbec
 1786 0c0a 02       		.uleb128 0x2
 1787 0c0b B9070000 		.4byte	.LASF143
 1788 0c0f 13       		.byte	0x13
 1789 0c10 3A       		.byte	0x3a
 1790 0c11 19       		.byte	0x19
 1791 0c12 160C0000 		.4byte	0xc16
 1792 0c16 07       		.uleb128 0x7
 1793 0c17 31030000 		.4byte	.LASF144
 1794 0c1b 24       		.byte	0x24
 1795 0c1c 13       		.byte	0x13
 1796 0c1d 4B       		.byte	0x4b
 1797 0c1e 08       		.byte	0x8
 1798 0c1f 8C0C0000 		.4byte	0xc8c
 1799 0c23 01       		.uleb128 0x1
 1800 0c24 19010000 		.4byte	.LASF145
 1801 0c28 13       		.byte	0x13
 1802 0c29 4C       		.byte	0x4c
ARM GAS  C:\Users\DEVELO~1\AppData\Local\Temp\ccrzvc7A.s 			page 33


 1803 0c2a 19       		.byte	0x19
 1804 0c2b 27080000 		.4byte	0x827
 1805 0c2f 00       		.byte	0
 1806 0c30 01       		.uleb128 0x1
 1807 0c31 36050000 		.4byte	.LASF146
 1808 0c35 13       		.byte	0x13
 1809 0c36 4D       		.byte	0x4d
 1810 0c37 19       		.byte	0x19
 1811 0c38 39000000 		.4byte	0x39
 1812 0c3c 08       		.byte	0x8
 1813 0c3d 01       		.uleb128 0x1
 1814 0c3e AD020000 		.4byte	.LASF147
 1815 0c42 13       		.byte	0x13
 1816 0c43 4E       		.byte	0x4e
 1817 0c44 1A       		.byte	0x1a
 1818 0c45 800A0000 		.4byte	0xa80
 1819 0c49 0C       		.byte	0xc
 1820 0c4a 01       		.uleb128 0x1
 1821 0c4b 62080000 		.4byte	.LASF148
 1822 0c4f 13       		.byte	0x13
 1823 0c50 4F       		.byte	0x4f
 1824 0c51 1A       		.byte	0x1a
 1825 0c52 800A0000 		.4byte	0xa80
 1826 0c56 10       		.byte	0x10
 1827 0c57 01       		.uleb128 0x1
 1828 0c58 5E050000 		.4byte	.LASF149
 1829 0c5c 13       		.byte	0x13
 1830 0c5d 51       		.byte	0x51
 1831 0c5e 1A       		.byte	0x1a
 1832 0c5f 800A0000 		.4byte	0xa80
 1833 0c63 14       		.byte	0x14
 1834 0c64 01       		.uleb128 0x1
 1835 0c65 22060000 		.4byte	.LASF150
 1836 0c69 13       		.byte	0x13
 1837 0c6a 52       		.byte	0x52
 1838 0c6b 1A       		.byte	0x1a
 1839 0c6c 800A0000 		.4byte	0xa80
 1840 0c70 18       		.byte	0x18
 1841 0c71 01       		.uleb128 0x1
 1842 0c72 7C080000 		.4byte	.LASF151
 1843 0c76 13       		.byte	0x13
 1844 0c77 53       		.byte	0x53
 1845 0c78 19       		.byte	0x19
 1846 0c79 8C0C0000 		.4byte	0xc8c
 1847 0c7d 1C       		.byte	0x1c
 1848 0c7e 01       		.uleb128 0x1
 1849 0c7f FC040000 		.4byte	.LASF152
 1850 0c83 13       		.byte	0x13
 1851 0c84 54       		.byte	0x54
 1852 0c85 1A       		.byte	0x1a
 1853 0c86 CB040000 		.4byte	0x4cb
 1854 0c8a 20       		.byte	0x20
 1855 0c8b 00       		.byte	0
 1856 0c8c 02       		.uleb128 0x2
 1857 0c8d F0050000 		.4byte	.LASF153
 1858 0c91 13       		.byte	0x13
 1859 0c92 41       		.byte	0x41
ARM GAS  C:\Users\DEVELO~1\AppData\Local\Temp\ccrzvc7A.s 			page 34


 1860 0c93 10       		.byte	0x10
 1861 0c94 980C0000 		.4byte	0xc98
 1862 0c98 03       		.uleb128 0x3
 1863 0c99 9D0C0000 		.4byte	0xc9d
 1864 0c9d 25       		.uleb128 0x25
 1865 0c9e A80C0000 		.4byte	0xca8
 1866 0ca2 04       		.uleb128 0x4
 1867 0ca3 A80C0000 		.4byte	0xca8
 1868 0ca7 00       		.byte	0
 1869 0ca8 03       		.uleb128 0x3
 1870 0ca9 0A0C0000 		.4byte	0xc0a
 1871 0cad 02       		.uleb128 0x2
 1872 0cae D1040000 		.4byte	.LASF154
 1873 0cb2 13       		.byte	0x13
 1874 0cb3 61       		.byte	0x61
 1875 0cb4 14       		.byte	0x14
 1876 0cb5 0A0C0000 		.4byte	0xc0a
 1877 0cb9 02       		.uleb128 0x2
 1878 0cba 95010000 		.4byte	.LASF155
 1879 0cbe 13       		.byte	0x13
 1880 0cbf 6D       		.byte	0x6d
 1881 0cc0 14       		.byte	0x14
 1882 0cc1 0A0C0000 		.4byte	0xc0a
 1883 0cc5 19       		.uleb128 0x19
 1884 0cc6 66000000 		.4byte	0x66
 1885 0cca 14       		.byte	0x14
 1886 0ccb 58       		.byte	0x58
 1887 0ccc E30C0000 		.4byte	0xce3
 1888 0cd0 11       		.uleb128 0x11
 1889 0cd1 EF060000 		.4byte	.LASF156
 1890 0cd5 00       		.byte	0
 1891 0cd6 11       		.uleb128 0x11
 1892 0cd7 FA050000 		.4byte	.LASF157
 1893 0cdb 01       		.byte	0x1
 1894 0cdc 11       		.uleb128 0x11
 1895 0cdd 9B020000 		.4byte	.LASF158
 1896 0ce1 02       		.byte	0x2
 1897 0ce2 00       		.byte	0
 1898 0ce3 02       		.uleb128 0x2
 1899 0ce4 43080000 		.4byte	.LASF159
 1900 0ce8 14       		.byte	0x14
 1901 0ce9 5C       		.byte	0x5c
 1902 0cea 03       		.byte	0x3
 1903 0ceb C50C0000 		.4byte	0xcc5
 1904 0cef 02       		.uleb128 0x2
 1905 0cf0 26070000 		.4byte	.LASF160
 1906 0cf4 14       		.byte	0x14
 1907 0cf5 61       		.byte	0x61
 1908 0cf6 22       		.byte	0x22
 1909 0cf7 FB0C0000 		.4byte	0xcfb
 1910 0cfb 07       		.uleb128 0x7
 1911 0cfc B9010000 		.4byte	.LASF161
 1912 0d00 60       		.byte	0x60
 1913 0d01 14       		.byte	0x14
 1914 0d02 7B       		.byte	0x7b
 1915 0d03 08       		.byte	0x8
 1916 0d04 710D0000 		.4byte	0xd71
ARM GAS  C:\Users\DEVELO~1\AppData\Local\Temp\ccrzvc7A.s 			page 35


 1917 0d08 08       		.uleb128 0x8
 1918 0d09 766D7400 		.ascii	"vmt\000"
 1919 0d0d 14       		.byte	0x14
 1920 0d0e 7D       		.byte	0x7d
 1921 0d0f 21       		.byte	0x21
 1922 0d10 6B0E0000 		.4byte	0xe6b
 1923 0d14 00       		.byte	0
 1924 0d15 01       		.uleb128 0x1
 1925 0d16 ED030000 		.4byte	.LASF162
 1926 0d1a 14       		.byte	0x14
 1927 0d1b 7E       		.byte	0x7e
 1928 0d1c 03       		.byte	0x3
 1929 0d1d 6D0A0000 		.4byte	0xa6d
 1930 0d21 04       		.byte	0x4
 1931 0d22 01       		.uleb128 0x1
 1932 0d23 AA010000 		.4byte	.LASF37
 1933 0d27 14       		.byte	0x14
 1934 0d28 7E       		.byte	0x7e
 1935 0d29 03       		.byte	0x3
 1936 0d2a E30C0000 		.4byte	0xce3
 1937 0d2e 08       		.byte	0x8
 1938 0d2f 01       		.uleb128 0x1
 1939 0d30 AF030000 		.4byte	.LASF163
 1940 0d34 14       		.byte	0x14
 1941 0d35 7E       		.byte	0x7e
 1942 0d36 03       		.byte	0x3
 1943 0d37 AD0C0000 		.4byte	0xcad
 1944 0d3b 0C       		.byte	0xc
 1945 0d3c 01       		.uleb128 0x1
 1946 0d3d 8F060000 		.4byte	.LASF164
 1947 0d41 14       		.byte	0x14
 1948 0d42 7E       		.byte	0x7e
 1949 0d43 03       		.byte	0x3
 1950 0d44 B90C0000 		.4byte	0xcb9
 1951 0d48 30       		.byte	0x30
 1952 0d49 01       		.uleb128 0x1
 1953 0d4a 66030000 		.4byte	.LASF165
 1954 0d4e 14       		.byte	0x14
 1955 0d4f 7E       		.byte	0x7e
 1956 0d50 03       		.byte	0x3
 1957 0d51 700E0000 		.4byte	0xe70
 1958 0d55 54       		.byte	0x54
 1959 0d56 01       		.uleb128 0x1
 1960 0d57 CD080000 		.4byte	.LASF166
 1961 0d5b 14       		.byte	0x14
 1962 0d5c 7E       		.byte	0x7e
 1963 0d5d 03       		.byte	0x3
 1964 0d5e EE000000 		.4byte	0xee
 1965 0d62 58       		.byte	0x58
 1966 0d63 01       		.uleb128 0x1
 1967 0d64 A8000000 		.4byte	.LASF167
 1968 0d68 14       		.byte	0x14
 1969 0d69 7E       		.byte	0x7e
 1970 0d6a 03       		.byte	0x3
 1971 0d6b C0000000 		.4byte	0xc0
 1972 0d6f 5C       		.byte	0x5c
 1973 0d70 00       		.byte	0
ARM GAS  C:\Users\DEVELO~1\AppData\Local\Temp\ccrzvc7A.s 			page 36


 1974 0d71 13       		.uleb128 0x13
 1975 0d72 3D010000 		.4byte	.LASF168
 1976 0d76 10       		.byte	0x10
 1977 0d77 15       		.byte	0x15
 1978 0d78 6002     		.2byte	0x260
 1979 0d7a 10       		.byte	0x10
 1980 0d7b B80D0000 		.4byte	0xdb8
 1981 0d7f 05       		.uleb128 0x5
 1982 0d80 87040000 		.4byte	.LASF169
 1983 0d84 15       		.byte	0x15
 1984 0d85 6402     		.2byte	0x264
 1985 0d87 1D       		.byte	0x1d
 1986 0d88 EE000000 		.4byte	0xee
 1987 0d8c 00       		.byte	0
 1988 0d8d 06       		.uleb128 0x6
 1989 0d8e 63723100 		.ascii	"cr1\000"
 1990 0d92 15       		.byte	0x15
 1991 0d93 6902     		.2byte	0x269
 1992 0d95 1D       		.byte	0x1d
 1993 0d96 EE000000 		.4byte	0xee
 1994 0d9a 04       		.byte	0x4
 1995 0d9b 06       		.uleb128 0x6
 1996 0d9c 63723200 		.ascii	"cr2\000"
 1997 0da0 15       		.byte	0x15
 1998 0da1 6D02     		.2byte	0x26d
 1999 0da3 1D       		.byte	0x1d
 2000 0da4 EE000000 		.4byte	0xee
 2001 0da8 08       		.byte	0x8
 2002 0da9 06       		.uleb128 0x6
 2003 0daa 63723300 		.ascii	"cr3\000"
 2004 0dae 15       		.byte	0x15
 2005 0daf 7102     		.2byte	0x271
 2006 0db1 1D       		.byte	0x1d
 2007 0db2 EE000000 		.4byte	0xee
 2008 0db6 0C       		.byte	0xc
 2009 0db7 00       		.byte	0
 2010 0db8 14       		.uleb128 0x14
 2011 0db9 C6050000 		.4byte	.LASF170
 2012 0dbd 15       		.byte	0x15
 2013 0dbe 7202     		.2byte	0x272
 2014 0dc0 710D0000 		.4byte	0xd71
 2015 0dc4 0E       		.uleb128 0xe
 2016 0dc5 B80D0000 		.4byte	0xdb8
 2017 0dc9 26       		.uleb128 0x26
 2018 0dca 53443100 		.ascii	"SD1\000"
 2019 0dce 15       		.byte	0x15
 2020 0dcf 9002     		.2byte	0x290
 2021 0dd1 15       		.byte	0x15
 2022 0dd2 EF0C0000 		.4byte	0xcef
 2023 0dd6 07       		.uleb128 0x7
 2024 0dd7 89030000 		.4byte	.LASF171
 2025 0ddb 28       		.byte	0x28
 2026 0ddc 14       		.byte	0x14
 2027 0ddd 70       		.byte	0x70
 2028 0dde 08       		.byte	0x8
 2029 0ddf 660E0000 		.4byte	0xe66
 2030 0de3 01       		.uleb128 0x1
ARM GAS  C:\Users\DEVELO~1\AppData\Local\Temp\ccrzvc7A.s 			page 37


 2031 0de4 D3080000 		.4byte	.LASF139
 2032 0de8 14       		.byte	0x14
 2033 0de9 71       		.byte	0x71
 2034 0dea 03       		.byte	0x3
 2035 0deb 2D000000 		.4byte	0x2d
 2036 0def 00       		.byte	0
 2037 0df0 01       		.uleb128 0x1
 2038 0df1 25000000 		.4byte	.LASF140
 2039 0df5 14       		.byte	0x14
 2040 0df6 71       		.byte	0x71
 2041 0df7 03       		.byte	0x3
 2042 0df8 F70A0000 		.4byte	0xaf7
 2043 0dfc 04       		.byte	0x4
 2044 0dfd 01       		.uleb128 0x1
 2045 0dfe B5080000 		.4byte	.LASF141
 2046 0e02 14       		.byte	0x14
 2047 0e03 71       		.byte	0x71
 2048 0e04 03       		.byte	0x3
 2049 0e05 150B0000 		.4byte	0xb15
 2050 0e09 08       		.byte	0x8
 2051 0e0a 08       		.uleb128 0x8
 2052 0e0b 70757400 		.ascii	"put\000"
 2053 0e0f 14       		.byte	0x14
 2054 0e10 71       		.byte	0x71
 2055 0e11 03       		.byte	0x3
 2056 0e12 2E0B0000 		.4byte	0xb2e
 2057 0e16 0C       		.byte	0xc
 2058 0e17 08       		.uleb128 0x8
 2059 0e18 67657400 		.ascii	"get\000"
 2060 0e1c 14       		.byte	0x14
 2061 0e1d 71       		.byte	0x71
 2062 0e1e 03       		.byte	0x3
 2063 0e1f 420B0000 		.4byte	0xb42
 2064 0e23 10       		.byte	0x10
 2065 0e24 01       		.uleb128 0x1
 2066 0e25 DF040000 		.4byte	.LASF172
 2067 0e29 14       		.byte	0x14
 2068 0e2a 71       		.byte	0x71
 2069 0e2b 03       		.byte	0x3
 2070 0e2c 880B0000 		.4byte	0xb88
 2071 0e30 14       		.byte	0x14
 2072 0e31 01       		.uleb128 0x1
 2073 0e32 D7030000 		.4byte	.LASF173
 2074 0e36 14       		.byte	0x14
 2075 0e37 71       		.byte	0x71
 2076 0e38 03       		.byte	0x3
 2077 0e39 A10B0000 		.4byte	0xba1
 2078 0e3d 18       		.byte	0x18
 2079 0e3e 01       		.uleb128 0x1
 2080 0e3f 4C040000 		.4byte	.LASF174
 2081 0e43 14       		.byte	0x14
 2082 0e44 71       		.byte	0x71
 2083 0e45 03       		.byte	0x3
 2084 0e46 C40B0000 		.4byte	0xbc4
 2085 0e4a 1C       		.byte	0x1c
 2086 0e4b 01       		.uleb128 0x1
 2087 0e4c 0E010000 		.4byte	.LASF175
ARM GAS  C:\Users\DEVELO~1\AppData\Local\Temp\ccrzvc7A.s 			page 38


 2088 0e50 14       		.byte	0x14
 2089 0e51 71       		.byte	0x71
 2090 0e52 03       		.byte	0x3
 2091 0e53 E70B0000 		.4byte	0xbe7
 2092 0e57 20       		.byte	0x20
 2093 0e58 08       		.uleb128 0x8
 2094 0e59 63746C00 		.ascii	"ctl\000"
 2095 0e5d 14       		.byte	0x14
 2096 0e5e 71       		.byte	0x71
 2097 0e5f 03       		.byte	0x3
 2098 0e60 050C0000 		.4byte	0xc05
 2099 0e64 24       		.byte	0x24
 2100 0e65 00       		.byte	0
 2101 0e66 0E       		.uleb128 0xe
 2102 0e67 D60D0000 		.4byte	0xdd6
 2103 0e6b 03       		.uleb128 0x3
 2104 0e6c 660E0000 		.4byte	0xe66
 2105 0e70 03       		.uleb128 0x3
 2106 0e71 E5060000 		.4byte	0x6e5
 2107 0e75 0B       		.uleb128 0xb
 2108 0e76 1C       		.byte	0x1c
 2109 0e77 16       		.byte	0x16
 2110 0e78 AC       		.byte	0xac
 2111 0e79 09       		.byte	0x9
 2112 0e7a DA0E0000 		.4byte	0xeda
 2113 0e7e 01       		.uleb128 0x1
 2114 0e7f 8B080000 		.4byte	.LASF176
 2115 0e83 16       		.byte	0x16
 2116 0e84 AD       		.byte	0xad
 2117 0e85 11       		.byte	0x11
 2118 0e86 FA000000 		.4byte	0xfa
 2119 0e8a 00       		.byte	0
 2120 0e8b 01       		.uleb128 0x1
 2121 0e8c 91080000 		.4byte	.LASF177
 2122 0e90 16       		.byte	0x16
 2123 0e91 AE       		.byte	0xae
 2124 0e92 11       		.byte	0x11
 2125 0e93 FA000000 		.4byte	0xfa
 2126 0e97 04       		.byte	0x4
 2127 0e98 01       		.uleb128 0x1
 2128 0e99 E6070000 		.4byte	.LASF178
 2129 0e9d 16       		.byte	0x16
 2130 0e9e AF       		.byte	0xaf
 2131 0e9f 11       		.byte	0x11
 2132 0ea0 FA000000 		.4byte	0xfa
 2133 0ea4 08       		.byte	0x8
 2134 0ea5 01       		.uleb128 0x1
 2135 0ea6 EC070000 		.4byte	.LASF179
 2136 0eaa 16       		.byte	0x16
 2137 0eab B0       		.byte	0xb0
 2138 0eac 11       		.byte	0x11
 2139 0ead FA000000 		.4byte	0xfa
 2140 0eb1 0C       		.byte	0xc
 2141 0eb2 01       		.uleb128 0x1
 2142 0eb3 BA080000 		.4byte	.LASF180
 2143 0eb7 16       		.byte	0x16
 2144 0eb8 B1       		.byte	0xb1
ARM GAS  C:\Users\DEVELO~1\AppData\Local\Temp\ccrzvc7A.s 			page 39


 2145 0eb9 11       		.byte	0x11
 2146 0eba FA000000 		.4byte	0xfa
 2147 0ebe 10       		.byte	0x10
 2148 0ebf 01       		.uleb128 0x1
 2149 0ec0 40050000 		.4byte	.LASF181
 2150 0ec4 16       		.byte	0x16
 2151 0ec5 B2       		.byte	0xb2
 2152 0ec6 11       		.byte	0x11
 2153 0ec7 FA000000 		.4byte	0xfa
 2154 0ecb 14       		.byte	0x14
 2155 0ecc 01       		.uleb128 0x1
 2156 0ecd F3000000 		.4byte	.LASF182
 2157 0ed1 16       		.byte	0x16
 2158 0ed2 B3       		.byte	0xb3
 2159 0ed3 11       		.byte	0x11
 2160 0ed4 FA000000 		.4byte	0xfa
 2161 0ed8 18       		.byte	0x18
 2162 0ed9 00       		.byte	0
 2163 0eda 02       		.uleb128 0x2
 2164 0edb 07060000 		.4byte	.LASF183
 2165 0edf 16       		.byte	0x16
 2166 0ee0 B4       		.byte	0xb4
 2167 0ee1 03       		.byte	0x3
 2168 0ee2 750E0000 		.4byte	0xe75
 2169 0ee6 03       		.uleb128 0x3
 2170 0ee7 DA0E0000 		.4byte	0xeda
 2171 0eeb 19       		.uleb128 0x19
 2172 0eec 66000000 		.4byte	0x66
 2173 0ef0 17       		.byte	0x17
 2174 0ef1 A4       		.byte	0xa4
 2175 0ef2 090F0000 		.4byte	0xf09
 2176 0ef6 11       		.uleb128 0x11
 2177 0ef7 15040000 		.4byte	.LASF184
 2178 0efb 00       		.byte	0
 2179 0efc 11       		.uleb128 0x11
 2180 0efd FD020000 		.4byte	.LASF185
 2181 0f01 01       		.byte	0x1
 2182 0f02 11       		.uleb128 0x11
 2183 0f03 96050000 		.4byte	.LASF186
 2184 0f07 02       		.byte	0x2
 2185 0f08 00       		.byte	0
 2186 0f09 02       		.uleb128 0x2
 2187 0f0a B6060000 		.4byte	.LASF187
 2188 0f0e 17       		.byte	0x17
 2189 0f0f A8       		.byte	0xa8
 2190 0f10 03       		.byte	0x3
 2191 0f11 EB0E0000 		.4byte	0xeeb
 2192 0f15 02       		.uleb128 0x2
 2193 0f16 E4040000 		.4byte	.LASF188
 2194 0f1a 17       		.byte	0x17
 2195 0f1b AD       		.byte	0xad
 2196 0f1c 1C       		.byte	0x1c
 2197 0f1d 210F0000 		.4byte	0xf21
 2198 0f21 07       		.uleb128 0x7
 2199 0f22 E4040000 		.4byte	.LASF188
 2200 0f26 08       		.byte	0x8
 2201 0f27 17       		.byte	0x17
ARM GAS  C:\Users\DEVELO~1\AppData\Local\Temp\ccrzvc7A.s 			page 40


 2202 0f28 D0       		.byte	0xd0
 2203 0f29 08       		.byte	0x8
 2204 0f2a 490F0000 		.4byte	0xf49
 2205 0f2e 01       		.uleb128 0x1
 2206 0f2f AA010000 		.4byte	.LASF37
 2207 0f33 17       		.byte	0x17
 2208 0f34 D4       		.byte	0xd4
 2209 0f35 1D       		.byte	0x1d
 2210 0f36 090F0000 		.4byte	0xf09
 2211 0f3a 00       		.byte	0
 2212 0f3b 01       		.uleb128 0x1
 2213 0f3c 36080000 		.4byte	.LASF189
 2214 0f40 17       		.byte	0x17
 2215 0f41 D8       		.byte	0xd8
 2216 0f42 1E       		.byte	0x1e
 2217 0f43 E60E0000 		.4byte	0xee6
 2218 0f47 04       		.byte	0x4
 2219 0f48 00       		.byte	0
 2220 0f49 0B       		.uleb128 0xb
 2221 0f4a 10       		.byte	0x10
 2222 0f4b 17       		.byte	0x17
 2223 0f4c B3       		.byte	0xb3
 2224 0f4d 09       		.byte	0x9
 2225 0f4e 870F0000 		.4byte	0xf87
 2226 0f52 01       		.uleb128 0x1
 2227 0f53 F8020000 		.4byte	.LASF190
 2228 0f57 17       		.byte	0x17
 2229 0f58 B8       		.byte	0xb8
 2230 0f59 11       		.byte	0x11
 2231 0f5a EE000000 		.4byte	0xee
 2232 0f5e 00       		.byte	0
 2233 0f5f 01       		.uleb128 0x1
 2234 0f60 50050000 		.4byte	.LASF191
 2235 0f64 17       		.byte	0x17
 2236 0f65 BE       		.byte	0xbe
 2237 0f66 11       		.byte	0x11
 2238 0f67 EE000000 		.4byte	0xee
 2239 0f6b 04       		.byte	0x4
 2240 0f6c 01       		.uleb128 0x1
 2241 0f6d A4010000 		.4byte	.LASF192
 2242 0f71 17       		.byte	0x17
 2243 0f72 C4       		.byte	0xc4
 2244 0f73 11       		.byte	0x11
 2245 0f74 EE000000 		.4byte	0xee
 2246 0f78 08       		.byte	0x8
 2247 0f79 01       		.uleb128 0x1
 2248 0f7a 9F080000 		.4byte	.LASF193
 2249 0f7e 17       		.byte	0x17
 2250 0f7f CA       		.byte	0xca
 2251 0f80 11       		.byte	0x11
 2252 0f81 EE000000 		.4byte	0xee
 2253 0f85 0C       		.byte	0xc
 2254 0f86 00       		.byte	0
 2255 0f87 02       		.uleb128 0x2
 2256 0f88 5D060000 		.4byte	.LASF194
 2257 0f8c 17       		.byte	0x17
 2258 0f8d CB       		.byte	0xcb
ARM GAS  C:\Users\DEVELO~1\AppData\Local\Temp\ccrzvc7A.s 			page 41


 2259 0f8e 03       		.byte	0x3
 2260 0f8f 490F0000 		.4byte	0xf49
 2261 0f93 0E       		.uleb128 0xe
 2262 0f94 870F0000 		.4byte	0xf87
 2263 0f98 27       		.uleb128 0x27
 2264 0f99 04080000 		.4byte	.LASF195
 2265 0f9d 17       		.byte	0x17
 2266 0f9e E3       		.byte	0xe3
 2267 0f9f 14       		.byte	0x14
 2268 0fa0 150F0000 		.4byte	0xf15
 2269 0fa4 1A       		.uleb128 0x1a
 2270 0fa5 10030000 		.4byte	.LASF196
 2271 0fa9 06       		.byte	0x6
 2272 0faa 1B       		.byte	0x1b
 2273 0fab C40D0000 		.4byte	0xdc4
 2274 0faf 05       		.uleb128 0x5
 2275 0fb0 03       		.byte	0x3
 2276 0fb1 00000000 		.4byte	uart_cfg
 2277 0fb5 1A       		.uleb128 0x1a
 2278 0fb6 D4010000 		.4byte	.LASF197
 2279 0fba 11       		.byte	0x11
 2280 0fbb 1A       		.byte	0x1a
 2281 0fbc 930F0000 		.4byte	0xf93
 2282 0fc0 05       		.uleb128 0x5
 2283 0fc1 03       		.byte	0x3
 2284 0fc2 00000000 		.4byte	sdram_cfg
 2285 0fc6 28       		.uleb128 0x28
 2286 0fc7 BB050000 		.4byte	.LASF198
 2287 0fcb 18       		.byte	0x18
 2288 0fcc 4201     		.2byte	0x142
 2289 0fce 08       		.byte	0x8
 2290 0fcf D90F0000 		.4byte	0xfd9
 2291 0fd3 04       		.uleb128 0x4
 2292 0fd4 99030000 		.4byte	0x399
 2293 0fd8 00       		.byte	0
 2294 0fd9 29       		.uleb128 0x29
 2295 0fda 71080000 		.4byte	.LASF199
 2296 0fde 17       		.byte	0x17
 2297 0fdf EA       		.byte	0xea
 2298 0fe0 08       		.byte	0x8
 2299 0fe1 F00F0000 		.4byte	0xff0
 2300 0fe5 04       		.uleb128 0x4
 2301 0fe6 F00F0000 		.4byte	0xff0
 2302 0fea 04       		.uleb128 0x4
 2303 0feb F50F0000 		.4byte	0xff5
 2304 0fef 00       		.byte	0
 2305 0ff0 03       		.uleb128 0x3
 2306 0ff1 150F0000 		.4byte	0xf15
 2307 0ff5 03       		.uleb128 0x3
 2308 0ff6 930F0000 		.4byte	0xf93
 2309 0ffa 2A       		.uleb128 0x2a
 2310 0ffb 97000000 		.4byte	.LASF202
 2311 0fff 17       		.byte	0x17
 2312 1000 E8       		.byte	0xe8
 2313 1001 08       		.byte	0x8
 2314 1002 2B       		.uleb128 0x2b
 2315 1003 16090000 		.4byte	.LASF200
ARM GAS  C:\Users\DEVELO~1\AppData\Local\Temp\ccrzvc7A.s 			page 42


 2316 1007 19       		.byte	0x19
 2317 1008 2B       		.byte	0x2b
 2318 1009 07       		.byte	0x7
 2319 100a 26000000 		.4byte	0x26
 2320 100e 1E100000 		.4byte	0x101e
 2321 1012 04       		.uleb128 0x4
 2322 1013 1E100000 		.4byte	0x101e
 2323 1017 04       		.uleb128 0x4
 2324 1018 6B030000 		.4byte	0x36b
 2325 101c 2C       		.uleb128 0x2c
 2326 101d 00       		.byte	0
 2327 101e 03       		.uleb128 0x3
 2328 101f 630B0000 		.4byte	0xb63
 2329 1023 2D       		.uleb128 0x2d
 2330 1024 E8080000 		.4byte	.LASF201
 2331 1028 14       		.byte	0x14
 2332 1029 8601     		.2byte	0x186
 2333 102b 09       		.byte	0x9
 2334 102c 58010000 		.4byte	0x158
 2335 1030 3F100000 		.4byte	0x103f
 2336 1034 04       		.uleb128 0x4
 2337 1035 3F100000 		.4byte	0x103f
 2338 1039 04       		.uleb128 0x4
 2339 103a 44100000 		.4byte	0x1044
 2340 103e 00       		.byte	0
 2341 103f 03       		.uleb128 0x3
 2342 1040 EF0C0000 		.4byte	0xcef
 2343 1044 03       		.uleb128 0x3
 2344 1045 C40D0000 		.4byte	0xdc4
 2345 1049 1B       		.uleb128 0x1b
 2346 104a 4F010000 		.4byte	.LASF203
 2347 104e 1A       		.byte	0x1a
 2348 104f 4E01     		.2byte	0x14e
 2349 1051 1B       		.uleb128 0x1b
 2350 1052 C3030000 		.4byte	.LASF204
 2351 1056 1B       		.byte	0x1b
 2352 1057 0101     		.2byte	0x101
 2353 1059 2E       		.uleb128 0x2e
 2354 105a D2020000 		.4byte	.LASF208
 2355 105e 01       		.byte	0x1
 2356 105f 29       		.byte	0x29
 2357 1060 05       		.byte	0x5
 2358 1061 26000000 		.4byte	0x26
 2359 1065 00000000 		.4byte	.LFB432
 2360 1069 A8000000 		.4byte	.LFE432-.LFB432
 2361 106d 01       		.uleb128 0x1
 2362 106e 9C       		.byte	0x9c
 2363 106f 95110000 		.4byte	0x1195
 2364 1073 2F       		.uleb128 0x2f
 2365 1074 36080000 		.4byte	.LASF189
 2366 1078 01       		.byte	0x1
 2367 1079 39       		.byte	0x39
 2368 107a 16       		.byte	0x16
 2369 107b 95110000 		.4byte	0x1195
 2370 107f 80808080 		.sleb128 -1073741824
 2370      7C
 2371 1084 1C       		.uleb128 0x1c
ARM GAS  C:\Users\DEVELO~1\AppData\Local\Temp\ccrzvc7A.s 			page 43


 2372 1085 6100     		.ascii	"a\000"
 2373 1087 3E       		.byte	0x3e
 2374 1088 D1000000 		.4byte	0xd1
 2375 108c 0E000000 		.4byte	.LLST0
 2376 1090 0C000000 		.4byte	.LVUS0
 2377 1094 1C       		.uleb128 0x1c
 2378 1095 6200     		.ascii	"b\000"
 2379 1097 3F       		.byte	0x3f
 2380 1098 D1000000 		.4byte	0xd1
 2381 109c 19000000 		.4byte	.LLST1
 2382 10a0 17000000 		.4byte	.LVUS1
 2383 10a4 18       		.uleb128 0x18
 2384 10a5 06000000 		.4byte	.LVL0
 2385 10a9 51100000 		.4byte	0x1051
 2386 10ad 18       		.uleb128 0x18
 2387 10ae 0E000000 		.4byte	.LVL1
 2388 10b2 49100000 		.4byte	0x1049
 2389 10b6 0D       		.uleb128 0xd
 2390 10b7 1A000000 		.4byte	.LVL2
 2391 10bb 23100000 		.4byte	0x1023
 2392 10bf CD100000 		.4byte	0x10cd
 2393 10c3 0A       		.uleb128 0xa
 2394 10c4 01       		.uleb128 0x1
 2395 10c5 51       		.byte	0x51
 2396 10c6 05       		.uleb128 0x5
 2397 10c7 03       		.byte	0x3
 2398 10c8 00000000 		.4byte	.LANCHOR0
 2399 10cc 00       		.byte	0
 2400 10cd 0D       		.uleb128 0xd
 2401 10ce 22000000 		.4byte	.LVL3
 2402 10d2 02100000 		.4byte	0x1002
 2403 10d6 E4100000 		.4byte	0x10e4
 2404 10da 0A       		.uleb128 0xa
 2405 10db 01       		.uleb128 0x1
 2406 10dc 51       		.byte	0x51
 2407 10dd 05       		.uleb128 0x5
 2408 10de 03       		.byte	0x3
 2409 10df 00000000 		.4byte	.LC0
 2410 10e3 00       		.byte	0
 2411 10e4 18       		.uleb128 0x18
 2412 10e5 26000000 		.4byte	.LVL4
 2413 10e9 FA0F0000 		.4byte	0xffa
 2414 10ed 0D       		.uleb128 0xd
 2415 10ee 2E000000 		.4byte	.LVL5
 2416 10f2 02100000 		.4byte	0x1002
 2417 10f6 04110000 		.4byte	0x1104
 2418 10fa 0A       		.uleb128 0xa
 2419 10fb 01       		.uleb128 0x1
 2420 10fc 51       		.byte	0x51
 2421 10fd 05       		.uleb128 0x5
 2422 10fe 03       		.byte	0x3
 2423 10ff 20000000 		.4byte	.LC1
 2424 1103 00       		.byte	0
 2425 1104 0D       		.uleb128 0xd
 2426 1105 36000000 		.4byte	.LVL6
 2427 1109 D90F0000 		.4byte	0xfd9
 2428 110d 1B110000 		.4byte	0x111b
ARM GAS  C:\Users\DEVELO~1\AppData\Local\Temp\ccrzvc7A.s 			page 44


 2429 1111 0A       		.uleb128 0xa
 2430 1112 01       		.uleb128 0x1
 2431 1113 51       		.byte	0x51
 2432 1114 05       		.uleb128 0x5
 2433 1115 03       		.byte	0x3
 2434 1116 00000000 		.4byte	.LANCHOR1
 2435 111a 00       		.byte	0
 2436 111b 0D       		.uleb128 0xd
 2437 111c 3E000000 		.4byte	.LVL7
 2438 1120 02100000 		.4byte	0x1002
 2439 1124 32110000 		.4byte	0x1132
 2440 1128 0A       		.uleb128 0xa
 2441 1129 01       		.uleb128 0x1
 2442 112a 51       		.byte	0x51
 2443 112b 05       		.uleb128 0x5
 2444 112c 03       		.byte	0x3
 2445 112d 30000000 		.4byte	.LC2
 2446 1131 00       		.byte	0
 2447 1132 0D       		.uleb128 0xd
 2448 1133 5A000000 		.4byte	.LVL10
 2449 1137 02100000 		.4byte	0x1002
 2450 113b 55110000 		.4byte	0x1155
 2451 113f 0A       		.uleb128 0xa
 2452 1140 01       		.uleb128 0x1
 2453 1141 51       		.byte	0x51
 2454 1142 05       		.uleb128 0x5
 2455 1143 03       		.byte	0x3
 2456 1144 40000000 		.4byte	.LC3
 2457 1148 0A       		.uleb128 0xa
 2458 1149 01       		.uleb128 0x1
 2459 114a 52       		.byte	0x52
 2460 114b 02       		.uleb128 0x2
 2461 114c 74       		.byte	0x74
 2462 114d 00       		.sleb128 0
 2463 114e 0A       		.uleb128 0xa
 2464 114f 01       		.uleb128 0x1
 2465 1150 53       		.byte	0x53
 2466 1151 02       		.uleb128 0x2
 2467 1152 75       		.byte	0x75
 2468 1153 00       		.sleb128 0
 2469 1154 00       		.byte	0
 2470 1155 0D       		.uleb128 0xd
 2471 1156 6A000000 		.4byte	.LVL11
 2472 115a 02100000 		.4byte	0x1002
 2473 115e 6C110000 		.4byte	0x116c
 2474 1162 0A       		.uleb128 0xa
 2475 1163 01       		.uleb128 0x1
 2476 1164 51       		.byte	0x51
 2477 1165 05       		.uleb128 0x5
 2478 1166 03       		.byte	0x3
 2479 1167 58000000 		.4byte	.LC4
 2480 116b 00       		.byte	0
 2481 116c 0D       		.uleb128 0xd
 2482 116d 72000000 		.4byte	.LVL12
 2483 1171 C60F0000 		.4byte	0xfc6
 2484 1175 81110000 		.4byte	0x1181
 2485 1179 0A       		.uleb128 0xa
ARM GAS  C:\Users\DEVELO~1\AppData\Local\Temp\ccrzvc7A.s 			page 45


 2486 117a 01       		.uleb128 0x1
 2487 117b 50       		.byte	0x50
 2488 117c 03       		.uleb128 0x3
 2489 117d 0A       		.byte	0xa
 2490 117e 1027     		.2byte	0x2710
 2491 1180 00       		.byte	0
 2492 1181 30       		.uleb128 0x30
 2493 1182 7C000000 		.4byte	.LVL13
 2494 1186 02100000 		.4byte	0x1002
 2495 118a 0A       		.uleb128 0xa
 2496 118b 01       		.uleb128 0x1
 2497 118c 51       		.byte	0x51
 2498 118d 05       		.uleb128 0x5
 2499 118e 03       		.byte	0x3
 2500 118f 6C000000 		.4byte	.LC5
 2501 1193 00       		.byte	0
 2502 1194 00       		.byte	0
 2503 1195 03       		.uleb128 0x3
 2504 1196 DD000000 		.4byte	0xdd
 2505 119a 00       		.byte	0
 2506              		.section	.debug_abbrev,"",%progbits
 2507              	.Ldebug_abbrev0:
 2508 0000 01       		.uleb128 0x1
 2509 0001 0D       		.uleb128 0xd
 2510 0002 00       		.byte	0
 2511 0003 03       		.uleb128 0x3
 2512 0004 0E       		.uleb128 0xe
 2513 0005 3A       		.uleb128 0x3a
 2514 0006 0B       		.uleb128 0xb
 2515 0007 3B       		.uleb128 0x3b
 2516 0008 0B       		.uleb128 0xb
 2517 0009 39       		.uleb128 0x39
 2518 000a 0B       		.uleb128 0xb
 2519 000b 49       		.uleb128 0x49
 2520 000c 13       		.uleb128 0x13
 2521 000d 38       		.uleb128 0x38
 2522 000e 0B       		.uleb128 0xb
 2523 000f 00       		.byte	0
 2524 0010 00       		.byte	0
 2525 0011 02       		.uleb128 0x2
 2526 0012 16       		.uleb128 0x16
 2527 0013 00       		.byte	0
 2528 0014 03       		.uleb128 0x3
 2529 0015 0E       		.uleb128 0xe
 2530 0016 3A       		.uleb128 0x3a
 2531 0017 0B       		.uleb128 0xb
 2532 0018 3B       		.uleb128 0x3b
 2533 0019 0B       		.uleb128 0xb
 2534 001a 39       		.uleb128 0x39
 2535 001b 0B       		.uleb128 0xb
 2536 001c 49       		.uleb128 0x49
 2537 001d 13       		.uleb128 0x13
 2538 001e 00       		.byte	0
 2539 001f 00       		.byte	0
 2540 0020 03       		.uleb128 0x3
 2541 0021 0F       		.uleb128 0xf
 2542 0022 00       		.byte	0
ARM GAS  C:\Users\DEVELO~1\AppData\Local\Temp\ccrzvc7A.s 			page 46


 2543 0023 0B       		.uleb128 0xb
 2544 0024 21       		.uleb128 0x21
 2545 0025 04       		.sleb128 4
 2546 0026 49       		.uleb128 0x49
 2547 0027 13       		.uleb128 0x13
 2548 0028 00       		.byte	0
 2549 0029 00       		.byte	0
 2550 002a 04       		.uleb128 0x4
 2551 002b 05       		.uleb128 0x5
 2552 002c 00       		.byte	0
 2553 002d 49       		.uleb128 0x49
 2554 002e 13       		.uleb128 0x13
 2555 002f 00       		.byte	0
 2556 0030 00       		.byte	0
 2557 0031 05       		.uleb128 0x5
 2558 0032 0D       		.uleb128 0xd
 2559 0033 00       		.byte	0
 2560 0034 03       		.uleb128 0x3
 2561 0035 0E       		.uleb128 0xe
 2562 0036 3A       		.uleb128 0x3a
 2563 0037 0B       		.uleb128 0xb
 2564 0038 3B       		.uleb128 0x3b
 2565 0039 05       		.uleb128 0x5
 2566 003a 39       		.uleb128 0x39
 2567 003b 0B       		.uleb128 0xb
 2568 003c 49       		.uleb128 0x49
 2569 003d 13       		.uleb128 0x13
 2570 003e 38       		.uleb128 0x38
 2571 003f 0B       		.uleb128 0xb
 2572 0040 00       		.byte	0
 2573 0041 00       		.byte	0
 2574 0042 06       		.uleb128 0x6
 2575 0043 0D       		.uleb128 0xd
 2576 0044 00       		.byte	0
 2577 0045 03       		.uleb128 0x3
 2578 0046 08       		.uleb128 0x8
 2579 0047 3A       		.uleb128 0x3a
 2580 0048 0B       		.uleb128 0xb
 2581 0049 3B       		.uleb128 0x3b
 2582 004a 05       		.uleb128 0x5
 2583 004b 39       		.uleb128 0x39
 2584 004c 0B       		.uleb128 0xb
 2585 004d 49       		.uleb128 0x49
 2586 004e 13       		.uleb128 0x13
 2587 004f 38       		.uleb128 0x38
 2588 0050 0B       		.uleb128 0xb
 2589 0051 00       		.byte	0
 2590 0052 00       		.byte	0
 2591 0053 07       		.uleb128 0x7
 2592 0054 13       		.uleb128 0x13
 2593 0055 01       		.byte	0x1
 2594 0056 03       		.uleb128 0x3
 2595 0057 0E       		.uleb128 0xe
 2596 0058 0B       		.uleb128 0xb
 2597 0059 0B       		.uleb128 0xb
 2598 005a 3A       		.uleb128 0x3a
 2599 005b 0B       		.uleb128 0xb
ARM GAS  C:\Users\DEVELO~1\AppData\Local\Temp\ccrzvc7A.s 			page 47


 2600 005c 3B       		.uleb128 0x3b
 2601 005d 0B       		.uleb128 0xb
 2602 005e 39       		.uleb128 0x39
 2603 005f 0B       		.uleb128 0xb
 2604 0060 01       		.uleb128 0x1
 2605 0061 13       		.uleb128 0x13
 2606 0062 00       		.byte	0
 2607 0063 00       		.byte	0
 2608 0064 08       		.uleb128 0x8
 2609 0065 0D       		.uleb128 0xd
 2610 0066 00       		.byte	0
 2611 0067 03       		.uleb128 0x3
 2612 0068 08       		.uleb128 0x8
 2613 0069 3A       		.uleb128 0x3a
 2614 006a 0B       		.uleb128 0xb
 2615 006b 3B       		.uleb128 0x3b
 2616 006c 0B       		.uleb128 0xb
 2617 006d 39       		.uleb128 0x39
 2618 006e 0B       		.uleb128 0xb
 2619 006f 49       		.uleb128 0x49
 2620 0070 13       		.uleb128 0x13
 2621 0071 38       		.uleb128 0x38
 2622 0072 0B       		.uleb128 0xb
 2623 0073 00       		.byte	0
 2624 0074 00       		.byte	0
 2625 0075 09       		.uleb128 0x9
 2626 0076 24       		.uleb128 0x24
 2627 0077 00       		.byte	0
 2628 0078 0B       		.uleb128 0xb
 2629 0079 0B       		.uleb128 0xb
 2630 007a 3E       		.uleb128 0x3e
 2631 007b 0B       		.uleb128 0xb
 2632 007c 03       		.uleb128 0x3
 2633 007d 0E       		.uleb128 0xe
 2634 007e 00       		.byte	0
 2635 007f 00       		.byte	0
 2636 0080 0A       		.uleb128 0xa
 2637 0081 49       		.uleb128 0x49
 2638 0082 00       		.byte	0
 2639 0083 02       		.uleb128 0x2
 2640 0084 18       		.uleb128 0x18
 2641 0085 7E       		.uleb128 0x7e
 2642 0086 18       		.uleb128 0x18
 2643 0087 00       		.byte	0
 2644 0088 00       		.byte	0
 2645 0089 0B       		.uleb128 0xb
 2646 008a 13       		.uleb128 0x13
 2647 008b 01       		.byte	0x1
 2648 008c 0B       		.uleb128 0xb
 2649 008d 0B       		.uleb128 0xb
 2650 008e 3A       		.uleb128 0x3a
 2651 008f 0B       		.uleb128 0xb
 2652 0090 3B       		.uleb128 0x3b
 2653 0091 0B       		.uleb128 0xb
 2654 0092 39       		.uleb128 0x39
 2655 0093 0B       		.uleb128 0xb
 2656 0094 01       		.uleb128 0x1
ARM GAS  C:\Users\DEVELO~1\AppData\Local\Temp\ccrzvc7A.s 			page 48


 2657 0095 13       		.uleb128 0x13
 2658 0096 00       		.byte	0
 2659 0097 00       		.byte	0
 2660 0098 0C       		.uleb128 0xc
 2661 0099 15       		.uleb128 0x15
 2662 009a 01       		.byte	0x1
 2663 009b 27       		.uleb128 0x27
 2664 009c 19       		.uleb128 0x19
 2665 009d 49       		.uleb128 0x49
 2666 009e 13       		.uleb128 0x13
 2667 009f 01       		.uleb128 0x1
 2668 00a0 13       		.uleb128 0x13
 2669 00a1 00       		.byte	0
 2670 00a2 00       		.byte	0
 2671 00a3 0D       		.uleb128 0xd
 2672 00a4 48       		.uleb128 0x48
 2673 00a5 01       		.byte	0x1
 2674 00a6 7D       		.uleb128 0x7d
 2675 00a7 01       		.uleb128 0x1
 2676 00a8 7F       		.uleb128 0x7f
 2677 00a9 13       		.uleb128 0x13
 2678 00aa 01       		.uleb128 0x1
 2679 00ab 13       		.uleb128 0x13
 2680 00ac 00       		.byte	0
 2681 00ad 00       		.byte	0
 2682 00ae 0E       		.uleb128 0xe
 2683 00af 26       		.uleb128 0x26
 2684 00b0 00       		.byte	0
 2685 00b1 49       		.uleb128 0x49
 2686 00b2 13       		.uleb128 0x13
 2687 00b3 00       		.byte	0
 2688 00b4 00       		.byte	0
 2689 00b5 0F       		.uleb128 0xf
 2690 00b6 0D       		.uleb128 0xd
 2691 00b7 00       		.byte	0
 2692 00b8 03       		.uleb128 0x3
 2693 00b9 0E       		.uleb128 0xe
 2694 00ba 3A       		.uleb128 0x3a
 2695 00bb 0B       		.uleb128 0xb
 2696 00bc 3B       		.uleb128 0x3b
 2697 00bd 0B       		.uleb128 0xb
 2698 00be 39       		.uleb128 0x39
 2699 00bf 0B       		.uleb128 0xb
 2700 00c0 49       		.uleb128 0x49
 2701 00c1 13       		.uleb128 0x13
 2702 00c2 00       		.byte	0
 2703 00c3 00       		.byte	0
 2704 00c4 10       		.uleb128 0x10
 2705 00c5 0D       		.uleb128 0xd
 2706 00c6 00       		.byte	0
 2707 00c7 03       		.uleb128 0x3
 2708 00c8 0E       		.uleb128 0xe
 2709 00c9 3A       		.uleb128 0x3a
 2710 00ca 21       		.uleb128 0x21
 2711 00cb 07       		.sleb128 7
 2712 00cc 3B       		.uleb128 0x3b
 2713 00cd 05       		.uleb128 0x5
ARM GAS  C:\Users\DEVELO~1\AppData\Local\Temp\ccrzvc7A.s 			page 49


 2714 00ce 39       		.uleb128 0x39
 2715 00cf 0B       		.uleb128 0xb
 2716 00d0 49       		.uleb128 0x49
 2717 00d1 13       		.uleb128 0x13
 2718 00d2 00       		.byte	0
 2719 00d3 00       		.byte	0
 2720 00d4 11       		.uleb128 0x11
 2721 00d5 28       		.uleb128 0x28
 2722 00d6 00       		.byte	0
 2723 00d7 03       		.uleb128 0x3
 2724 00d8 0E       		.uleb128 0xe
 2725 00d9 1C       		.uleb128 0x1c
 2726 00da 0B       		.uleb128 0xb
 2727 00db 00       		.byte	0
 2728 00dc 00       		.byte	0
 2729 00dd 12       		.uleb128 0x12
 2730 00de 35       		.uleb128 0x35
 2731 00df 00       		.byte	0
 2732 00e0 49       		.uleb128 0x49
 2733 00e1 13       		.uleb128 0x13
 2734 00e2 00       		.byte	0
 2735 00e3 00       		.byte	0
 2736 00e4 13       		.uleb128 0x13
 2737 00e5 13       		.uleb128 0x13
 2738 00e6 01       		.byte	0x1
 2739 00e7 03       		.uleb128 0x3
 2740 00e8 0E       		.uleb128 0xe
 2741 00e9 0B       		.uleb128 0xb
 2742 00ea 0B       		.uleb128 0xb
 2743 00eb 3A       		.uleb128 0x3a
 2744 00ec 0B       		.uleb128 0xb
 2745 00ed 3B       		.uleb128 0x3b
 2746 00ee 05       		.uleb128 0x5
 2747 00ef 39       		.uleb128 0x39
 2748 00f0 0B       		.uleb128 0xb
 2749 00f1 01       		.uleb128 0x1
 2750 00f2 13       		.uleb128 0x13
 2751 00f3 00       		.byte	0
 2752 00f4 00       		.byte	0
 2753 00f5 14       		.uleb128 0x14
 2754 00f6 16       		.uleb128 0x16
 2755 00f7 00       		.byte	0
 2756 00f8 03       		.uleb128 0x3
 2757 00f9 0E       		.uleb128 0xe
 2758 00fa 3A       		.uleb128 0x3a
 2759 00fb 0B       		.uleb128 0xb
 2760 00fc 3B       		.uleb128 0x3b
 2761 00fd 05       		.uleb128 0x5
 2762 00fe 39       		.uleb128 0x39
 2763 00ff 21       		.uleb128 0x21
 2764 0100 03       		.sleb128 3
 2765 0101 49       		.uleb128 0x49
 2766 0102 13       		.uleb128 0x13
 2767 0103 00       		.byte	0
 2768 0104 00       		.byte	0
 2769 0105 15       		.uleb128 0x15
 2770 0106 17       		.uleb128 0x17
ARM GAS  C:\Users\DEVELO~1\AppData\Local\Temp\ccrzvc7A.s 			page 50


 2771 0107 01       		.byte	0x1
 2772 0108 0B       		.uleb128 0xb
 2773 0109 0B       		.uleb128 0xb
 2774 010a 3A       		.uleb128 0x3a
 2775 010b 0B       		.uleb128 0xb
 2776 010c 3B       		.uleb128 0x3b
 2777 010d 0B       		.uleb128 0xb
 2778 010e 39       		.uleb128 0x39
 2779 010f 21       		.uleb128 0x21
 2780 0110 03       		.sleb128 3
 2781 0111 01       		.uleb128 0x1
 2782 0112 13       		.uleb128 0x13
 2783 0113 00       		.byte	0
 2784 0114 00       		.byte	0
 2785 0115 16       		.uleb128 0x16
 2786 0116 0D       		.uleb128 0xd
 2787 0117 00       		.byte	0
 2788 0118 03       		.uleb128 0x3
 2789 0119 08       		.uleb128 0x8
 2790 011a 3A       		.uleb128 0x3a
 2791 011b 21       		.uleb128 0x21
 2792 011c 0C       		.sleb128 12
 2793 011d 3B       		.uleb128 0x3b
 2794 011e 0B       		.uleb128 0xb
 2795 011f 39       		.uleb128 0x39
 2796 0120 21       		.uleb128 0x21
 2797 0121 07       		.sleb128 7
 2798 0122 49       		.uleb128 0x49
 2799 0123 13       		.uleb128 0x13
 2800 0124 00       		.byte	0
 2801 0125 00       		.byte	0
 2802 0126 17       		.uleb128 0x17
 2803 0127 0D       		.uleb128 0xd
 2804 0128 00       		.byte	0
 2805 0129 03       		.uleb128 0x3
 2806 012a 0E       		.uleb128 0xe
 2807 012b 3A       		.uleb128 0x3a
 2808 012c 21       		.uleb128 0x21
 2809 012d 0C       		.sleb128 12
 2810 012e 3B       		.uleb128 0x3b
 2811 012f 0B       		.uleb128 0xb
 2812 0130 39       		.uleb128 0x39
 2813 0131 21       		.uleb128 0x21
 2814 0132 19       		.sleb128 25
 2815 0133 49       		.uleb128 0x49
 2816 0134 13       		.uleb128 0x13
 2817 0135 0D       		.uleb128 0xd
 2818 0136 0B       		.uleb128 0xb
 2819 0137 6B       		.uleb128 0x6b
 2820 0138 0B       		.uleb128 0xb
 2821 0139 00       		.byte	0
 2822 013a 00       		.byte	0
 2823 013b 18       		.uleb128 0x18
 2824 013c 48       		.uleb128 0x48
 2825 013d 00       		.byte	0
 2826 013e 7D       		.uleb128 0x7d
 2827 013f 01       		.uleb128 0x1
ARM GAS  C:\Users\DEVELO~1\AppData\Local\Temp\ccrzvc7A.s 			page 51


 2828 0140 7F       		.uleb128 0x7f
 2829 0141 13       		.uleb128 0x13
 2830 0142 00       		.byte	0
 2831 0143 00       		.byte	0
 2832 0144 19       		.uleb128 0x19
 2833 0145 04       		.uleb128 0x4
 2834 0146 01       		.byte	0x1
 2835 0147 3E       		.uleb128 0x3e
 2836 0148 21       		.uleb128 0x21
 2837 0149 07       		.sleb128 7
 2838 014a 0B       		.uleb128 0xb
 2839 014b 21       		.uleb128 0x21
 2840 014c 01       		.sleb128 1
 2841 014d 49       		.uleb128 0x49
 2842 014e 13       		.uleb128 0x13
 2843 014f 3A       		.uleb128 0x3a
 2844 0150 0B       		.uleb128 0xb
 2845 0151 3B       		.uleb128 0x3b
 2846 0152 0B       		.uleb128 0xb
 2847 0153 39       		.uleb128 0x39
 2848 0154 21       		.uleb128 0x21
 2849 0155 0E       		.sleb128 14
 2850 0156 01       		.uleb128 0x1
 2851 0157 13       		.uleb128 0x13
 2852 0158 00       		.byte	0
 2853 0159 00       		.byte	0
 2854 015a 1A       		.uleb128 0x1a
 2855 015b 34       		.uleb128 0x34
 2856 015c 00       		.byte	0
 2857 015d 03       		.uleb128 0x3
 2858 015e 0E       		.uleb128 0xe
 2859 015f 3A       		.uleb128 0x3a
 2860 0160 21       		.uleb128 0x21
 2861 0161 01       		.sleb128 1
 2862 0162 3B       		.uleb128 0x3b
 2863 0163 0B       		.uleb128 0xb
 2864 0164 39       		.uleb128 0x39
 2865 0165 0B       		.uleb128 0xb
 2866 0166 49       		.uleb128 0x49
 2867 0167 13       		.uleb128 0x13
 2868 0168 02       		.uleb128 0x2
 2869 0169 18       		.uleb128 0x18
 2870 016a 00       		.byte	0
 2871 016b 00       		.byte	0
 2872 016c 1B       		.uleb128 0x1b
 2873 016d 2E       		.uleb128 0x2e
 2874 016e 00       		.byte	0
 2875 016f 3F       		.uleb128 0x3f
 2876 0170 19       		.uleb128 0x19
 2877 0171 03       		.uleb128 0x3
 2878 0172 0E       		.uleb128 0xe
 2879 0173 3A       		.uleb128 0x3a
 2880 0174 0B       		.uleb128 0xb
 2881 0175 3B       		.uleb128 0x3b
 2882 0176 05       		.uleb128 0x5
 2883 0177 39       		.uleb128 0x39
 2884 0178 21       		.uleb128 0x21
ARM GAS  C:\Users\DEVELO~1\AppData\Local\Temp\ccrzvc7A.s 			page 52


 2885 0179 08       		.sleb128 8
 2886 017a 27       		.uleb128 0x27
 2887 017b 19       		.uleb128 0x19
 2888 017c 3C       		.uleb128 0x3c
 2889 017d 19       		.uleb128 0x19
 2890 017e 00       		.byte	0
 2891 017f 00       		.byte	0
 2892 0180 1C       		.uleb128 0x1c
 2893 0181 34       		.uleb128 0x34
 2894 0182 00       		.byte	0
 2895 0183 03       		.uleb128 0x3
 2896 0184 08       		.uleb128 0x8
 2897 0185 3A       		.uleb128 0x3a
 2898 0186 21       		.uleb128 0x21
 2899 0187 01       		.sleb128 1
 2900 0188 3B       		.uleb128 0x3b
 2901 0189 0B       		.uleb128 0xb
 2902 018a 39       		.uleb128 0x39
 2903 018b 21       		.uleb128 0x21
 2904 018c 0C       		.sleb128 12
 2905 018d 49       		.uleb128 0x49
 2906 018e 13       		.uleb128 0x13
 2907 018f 02       		.uleb128 0x2
 2908 0190 17       		.uleb128 0x17
 2909 0191 B742     		.uleb128 0x2137
 2910 0193 17       		.uleb128 0x17
 2911 0194 00       		.byte	0
 2912 0195 00       		.byte	0
 2913 0196 1D       		.uleb128 0x1d
 2914 0197 11       		.uleb128 0x11
 2915 0198 01       		.byte	0x1
 2916 0199 25       		.uleb128 0x25
 2917 019a 0E       		.uleb128 0xe
 2918 019b 13       		.uleb128 0x13
 2919 019c 0B       		.uleb128 0xb
 2920 019d 03       		.uleb128 0x3
 2921 019e 0E       		.uleb128 0xe
 2922 019f 1B       		.uleb128 0x1b
 2923 01a0 0E       		.uleb128 0xe
 2924 01a1 55       		.uleb128 0x55
 2925 01a2 17       		.uleb128 0x17
 2926 01a3 11       		.uleb128 0x11
 2927 01a4 01       		.uleb128 0x1
 2928 01a5 10       		.uleb128 0x10
 2929 01a6 17       		.uleb128 0x17
 2930 01a7 00       		.byte	0
 2931 01a8 00       		.byte	0
 2932 01a9 1E       		.uleb128 0x1e
 2933 01aa 24       		.uleb128 0x24
 2934 01ab 00       		.byte	0
 2935 01ac 0B       		.uleb128 0xb
 2936 01ad 0B       		.uleb128 0xb
 2937 01ae 3E       		.uleb128 0x3e
 2938 01af 0B       		.uleb128 0xb
 2939 01b0 03       		.uleb128 0x3
 2940 01b1 08       		.uleb128 0x8
 2941 01b2 00       		.byte	0
ARM GAS  C:\Users\DEVELO~1\AppData\Local\Temp\ccrzvc7A.s 			page 53


 2942 01b3 00       		.byte	0
 2943 01b4 1F       		.uleb128 0x1f
 2944 01b5 13       		.uleb128 0x13
 2945 01b6 01       		.byte	0x1
 2946 01b7 03       		.uleb128 0x3
 2947 01b8 0E       		.uleb128 0xe
 2948 01b9 0B       		.uleb128 0xb
 2949 01ba 05       		.uleb128 0x5
 2950 01bb 3A       		.uleb128 0x3a
 2951 01bc 0B       		.uleb128 0xb
 2952 01bd 3B       		.uleb128 0x3b
 2953 01be 05       		.uleb128 0x5
 2954 01bf 39       		.uleb128 0x39
 2955 01c0 0B       		.uleb128 0xb
 2956 01c1 01       		.uleb128 0x1
 2957 01c2 13       		.uleb128 0x13
 2958 01c3 00       		.byte	0
 2959 01c4 00       		.byte	0
 2960 01c5 20       		.uleb128 0x20
 2961 01c6 0F       		.uleb128 0xf
 2962 01c7 00       		.byte	0
 2963 01c8 0B       		.uleb128 0xb
 2964 01c9 0B       		.uleb128 0xb
 2965 01ca 00       		.byte	0
 2966 01cb 00       		.byte	0
 2967 01cc 21       		.uleb128 0x21
 2968 01cd 13       		.uleb128 0x13
 2969 01ce 01       		.byte	0x1
 2970 01cf 0B       		.uleb128 0xb
 2971 01d0 05       		.uleb128 0x5
 2972 01d1 3A       		.uleb128 0x3a
 2973 01d2 0B       		.uleb128 0xb
 2974 01d3 3B       		.uleb128 0x3b
 2975 01d4 0B       		.uleb128 0xb
 2976 01d5 39       		.uleb128 0x39
 2977 01d6 0B       		.uleb128 0xb
 2978 01d7 01       		.uleb128 0x1
 2979 01d8 13       		.uleb128 0x13
 2980 01d9 00       		.byte	0
 2981 01da 00       		.byte	0
 2982 01db 22       		.uleb128 0x22
 2983 01dc 01       		.uleb128 0x1
 2984 01dd 01       		.byte	0x1
 2985 01de 49       		.uleb128 0x49
 2986 01df 13       		.uleb128 0x13
 2987 01e0 01       		.uleb128 0x1
 2988 01e1 13       		.uleb128 0x13
 2989 01e2 00       		.byte	0
 2990 01e3 00       		.byte	0
 2991 01e4 23       		.uleb128 0x23
 2992 01e5 21       		.uleb128 0x21
 2993 01e6 00       		.byte	0
 2994 01e7 49       		.uleb128 0x49
 2995 01e8 13       		.uleb128 0x13
 2996 01e9 2F       		.uleb128 0x2f
 2997 01ea 0B       		.uleb128 0xb
 2998 01eb 00       		.byte	0
ARM GAS  C:\Users\DEVELO~1\AppData\Local\Temp\ccrzvc7A.s 			page 54


 2999 01ec 00       		.byte	0
 3000 01ed 24       		.uleb128 0x24
 3001 01ee 13       		.uleb128 0x13
 3002 01ef 01       		.byte	0x1
 3003 01f0 0B       		.uleb128 0xb
 3004 01f1 0B       		.uleb128 0xb
 3005 01f2 3A       		.uleb128 0x3a
 3006 01f3 0B       		.uleb128 0xb
 3007 01f4 3B       		.uleb128 0x3b
 3008 01f5 05       		.uleb128 0x5
 3009 01f6 39       		.uleb128 0x39
 3010 01f7 0B       		.uleb128 0xb
 3011 01f8 01       		.uleb128 0x1
 3012 01f9 13       		.uleb128 0x13
 3013 01fa 00       		.byte	0
 3014 01fb 00       		.byte	0
 3015 01fc 25       		.uleb128 0x25
 3016 01fd 15       		.uleb128 0x15
 3017 01fe 01       		.byte	0x1
 3018 01ff 27       		.uleb128 0x27
 3019 0200 19       		.uleb128 0x19
 3020 0201 01       		.uleb128 0x1
 3021 0202 13       		.uleb128 0x13
 3022 0203 00       		.byte	0
 3023 0204 00       		.byte	0
 3024 0205 26       		.uleb128 0x26
 3025 0206 34       		.uleb128 0x34
 3026 0207 00       		.byte	0
 3027 0208 03       		.uleb128 0x3
 3028 0209 08       		.uleb128 0x8
 3029 020a 3A       		.uleb128 0x3a
 3030 020b 0B       		.uleb128 0xb
 3031 020c 3B       		.uleb128 0x3b
 3032 020d 05       		.uleb128 0x5
 3033 020e 39       		.uleb128 0x39
 3034 020f 0B       		.uleb128 0xb
 3035 0210 49       		.uleb128 0x49
 3036 0211 13       		.uleb128 0x13
 3037 0212 3F       		.uleb128 0x3f
 3038 0213 19       		.uleb128 0x19
 3039 0214 3C       		.uleb128 0x3c
 3040 0215 19       		.uleb128 0x19
 3041 0216 00       		.byte	0
 3042 0217 00       		.byte	0
 3043 0218 27       		.uleb128 0x27
 3044 0219 34       		.uleb128 0x34
 3045 021a 00       		.byte	0
 3046 021b 03       		.uleb128 0x3
 3047 021c 0E       		.uleb128 0xe
 3048 021d 3A       		.uleb128 0x3a
 3049 021e 0B       		.uleb128 0xb
 3050 021f 3B       		.uleb128 0x3b
 3051 0220 0B       		.uleb128 0xb
 3052 0221 39       		.uleb128 0x39
 3053 0222 0B       		.uleb128 0xb
 3054 0223 49       		.uleb128 0x49
 3055 0224 13       		.uleb128 0x13
ARM GAS  C:\Users\DEVELO~1\AppData\Local\Temp\ccrzvc7A.s 			page 55


 3056 0225 3F       		.uleb128 0x3f
 3057 0226 19       		.uleb128 0x19
 3058 0227 3C       		.uleb128 0x3c
 3059 0228 19       		.uleb128 0x19
 3060 0229 00       		.byte	0
 3061 022a 00       		.byte	0
 3062 022b 28       		.uleb128 0x28
 3063 022c 2E       		.uleb128 0x2e
 3064 022d 01       		.byte	0x1
 3065 022e 3F       		.uleb128 0x3f
 3066 022f 19       		.uleb128 0x19
 3067 0230 03       		.uleb128 0x3
 3068 0231 0E       		.uleb128 0xe
 3069 0232 3A       		.uleb128 0x3a
 3070 0233 0B       		.uleb128 0xb
 3071 0234 3B       		.uleb128 0x3b
 3072 0235 05       		.uleb128 0x5
 3073 0236 39       		.uleb128 0x39
 3074 0237 0B       		.uleb128 0xb
 3075 0238 27       		.uleb128 0x27
 3076 0239 19       		.uleb128 0x19
 3077 023a 3C       		.uleb128 0x3c
 3078 023b 19       		.uleb128 0x19
 3079 023c 01       		.uleb128 0x1
 3080 023d 13       		.uleb128 0x13
 3081 023e 00       		.byte	0
 3082 023f 00       		.byte	0
 3083 0240 29       		.uleb128 0x29
 3084 0241 2E       		.uleb128 0x2e
 3085 0242 01       		.byte	0x1
 3086 0243 3F       		.uleb128 0x3f
 3087 0244 19       		.uleb128 0x19
 3088 0245 03       		.uleb128 0x3
 3089 0246 0E       		.uleb128 0xe
 3090 0247 3A       		.uleb128 0x3a
 3091 0248 0B       		.uleb128 0xb
 3092 0249 3B       		.uleb128 0x3b
 3093 024a 0B       		.uleb128 0xb
 3094 024b 39       		.uleb128 0x39
 3095 024c 0B       		.uleb128 0xb
 3096 024d 27       		.uleb128 0x27
 3097 024e 19       		.uleb128 0x19
 3098 024f 3C       		.uleb128 0x3c
 3099 0250 19       		.uleb128 0x19
 3100 0251 01       		.uleb128 0x1
 3101 0252 13       		.uleb128 0x13
 3102 0253 00       		.byte	0
 3103 0254 00       		.byte	0
 3104 0255 2A       		.uleb128 0x2a
 3105 0256 2E       		.uleb128 0x2e
 3106 0257 00       		.byte	0
 3107 0258 3F       		.uleb128 0x3f
 3108 0259 19       		.uleb128 0x19
 3109 025a 03       		.uleb128 0x3
 3110 025b 0E       		.uleb128 0xe
 3111 025c 3A       		.uleb128 0x3a
 3112 025d 0B       		.uleb128 0xb
ARM GAS  C:\Users\DEVELO~1\AppData\Local\Temp\ccrzvc7A.s 			page 56


 3113 025e 3B       		.uleb128 0x3b
 3114 025f 0B       		.uleb128 0xb
 3115 0260 39       		.uleb128 0x39
 3116 0261 0B       		.uleb128 0xb
 3117 0262 27       		.uleb128 0x27
 3118 0263 19       		.uleb128 0x19
 3119 0264 3C       		.uleb128 0x3c
 3120 0265 19       		.uleb128 0x19
 3121 0266 00       		.byte	0
 3122 0267 00       		.byte	0
 3123 0268 2B       		.uleb128 0x2b
 3124 0269 2E       		.uleb128 0x2e
 3125 026a 01       		.byte	0x1
 3126 026b 3F       		.uleb128 0x3f
 3127 026c 19       		.uleb128 0x19
 3128 026d 03       		.uleb128 0x3
 3129 026e 0E       		.uleb128 0xe
 3130 026f 3A       		.uleb128 0x3a
 3131 0270 0B       		.uleb128 0xb
 3132 0271 3B       		.uleb128 0x3b
 3133 0272 0B       		.uleb128 0xb
 3134 0273 39       		.uleb128 0x39
 3135 0274 0B       		.uleb128 0xb
 3136 0275 27       		.uleb128 0x27
 3137 0276 19       		.uleb128 0x19
 3138 0277 49       		.uleb128 0x49
 3139 0278 13       		.uleb128 0x13
 3140 0279 3C       		.uleb128 0x3c
 3141 027a 19       		.uleb128 0x19
 3142 027b 01       		.uleb128 0x1
 3143 027c 13       		.uleb128 0x13
 3144 027d 00       		.byte	0
 3145 027e 00       		.byte	0
 3146 027f 2C       		.uleb128 0x2c
 3147 0280 18       		.uleb128 0x18
 3148 0281 00       		.byte	0
 3149 0282 00       		.byte	0
 3150 0283 00       		.byte	0
 3151 0284 2D       		.uleb128 0x2d
 3152 0285 2E       		.uleb128 0x2e
 3153 0286 01       		.byte	0x1
 3154 0287 3F       		.uleb128 0x3f
 3155 0288 19       		.uleb128 0x19
 3156 0289 03       		.uleb128 0x3
 3157 028a 0E       		.uleb128 0xe
 3158 028b 3A       		.uleb128 0x3a
 3159 028c 0B       		.uleb128 0xb
 3160 028d 3B       		.uleb128 0x3b
 3161 028e 05       		.uleb128 0x5
 3162 028f 39       		.uleb128 0x39
 3163 0290 0B       		.uleb128 0xb
 3164 0291 27       		.uleb128 0x27
 3165 0292 19       		.uleb128 0x19
 3166 0293 49       		.uleb128 0x49
 3167 0294 13       		.uleb128 0x13
 3168 0295 3C       		.uleb128 0x3c
 3169 0296 19       		.uleb128 0x19
ARM GAS  C:\Users\DEVELO~1\AppData\Local\Temp\ccrzvc7A.s 			page 57


 3170 0297 01       		.uleb128 0x1
 3171 0298 13       		.uleb128 0x13
 3172 0299 00       		.byte	0
 3173 029a 00       		.byte	0
 3174 029b 2E       		.uleb128 0x2e
 3175 029c 2E       		.uleb128 0x2e
 3176 029d 01       		.byte	0x1
 3177 029e 3F       		.uleb128 0x3f
 3178 029f 19       		.uleb128 0x19
 3179 02a0 03       		.uleb128 0x3
 3180 02a1 0E       		.uleb128 0xe
 3181 02a2 3A       		.uleb128 0x3a
 3182 02a3 0B       		.uleb128 0xb
 3183 02a4 3B       		.uleb128 0x3b
 3184 02a5 0B       		.uleb128 0xb
 3185 02a6 39       		.uleb128 0x39
 3186 02a7 0B       		.uleb128 0xb
 3187 02a8 27       		.uleb128 0x27
 3188 02a9 19       		.uleb128 0x19
 3189 02aa 49       		.uleb128 0x49
 3190 02ab 13       		.uleb128 0x13
 3191 02ac 11       		.uleb128 0x11
 3192 02ad 01       		.uleb128 0x1
 3193 02ae 12       		.uleb128 0x12
 3194 02af 06       		.uleb128 0x6
 3195 02b0 40       		.uleb128 0x40
 3196 02b1 18       		.uleb128 0x18
 3197 02b2 7A       		.uleb128 0x7a
 3198 02b3 19       		.uleb128 0x19
 3199 02b4 01       		.uleb128 0x1
 3200 02b5 13       		.uleb128 0x13
 3201 02b6 00       		.byte	0
 3202 02b7 00       		.byte	0
 3203 02b8 2F       		.uleb128 0x2f
 3204 02b9 34       		.uleb128 0x34
 3205 02ba 00       		.byte	0
 3206 02bb 03       		.uleb128 0x3
 3207 02bc 0E       		.uleb128 0xe
 3208 02bd 3A       		.uleb128 0x3a
 3209 02be 0B       		.uleb128 0xb
 3210 02bf 3B       		.uleb128 0x3b
 3211 02c0 0B       		.uleb128 0xb
 3212 02c1 39       		.uleb128 0x39
 3213 02c2 0B       		.uleb128 0xb
 3214 02c3 49       		.uleb128 0x49
 3215 02c4 13       		.uleb128 0x13
 3216 02c5 1C       		.uleb128 0x1c
 3217 02c6 0D       		.uleb128 0xd
 3218 02c7 00       		.byte	0
 3219 02c8 00       		.byte	0
 3220 02c9 30       		.uleb128 0x30
 3221 02ca 48       		.uleb128 0x48
 3222 02cb 01       		.byte	0x1
 3223 02cc 7D       		.uleb128 0x7d
 3224 02cd 01       		.uleb128 0x1
 3225 02ce 7F       		.uleb128 0x7f
 3226 02cf 13       		.uleb128 0x13
ARM GAS  C:\Users\DEVELO~1\AppData\Local\Temp\ccrzvc7A.s 			page 58


 3227 02d0 00       		.byte	0
 3228 02d1 00       		.byte	0
 3229 02d2 00       		.byte	0
 3230              		.section	.debug_loclists,"",%progbits
 3231 0000 1E000000 		.4byte	.Ldebug_loc3-.Ldebug_loc2
 3232              	.Ldebug_loc2:
 3233 0004 0500     		.2byte	0x5
 3234 0006 04       		.byte	0x4
 3235 0007 00       		.byte	0
 3236 0008 00000000 		.4byte	0
 3237              	.Ldebug_loc0:
 3238              	.LVUS0:
 3239 000c 00       		.uleb128 .LVU26
 3240 000d 00       		.uleb128 0
 3241              	.LLST0:
 3242 000e 08       		.byte	0x8
 3243 000f 4E000000 		.4byte	.LVL8
 3244 0013 5A       		.uleb128 .LFE432-.LVL8
 3245 0014 01       		.uleb128 0x1
 3246 0015 54       		.byte	0x54
 3247 0016 00       		.byte	0
 3248              	.LVUS1:
 3249 0017 00       		.uleb128 .LVU29
 3250 0018 00       		.uleb128 0
 3251              	.LLST1:
 3252 0019 08       		.byte	0x8
 3253 001a 52000000 		.4byte	.LVL9
 3254 001e 56       		.uleb128 .LFE432-.LVL9
 3255 001f 01       		.uleb128 0x1
 3256 0020 55       		.byte	0x55
 3257 0021 00       		.byte	0
 3258              	.Ldebug_loc3:
 3259              		.section	.debug_aranges,"",%progbits
 3260 0000 1C000000 		.4byte	0x1c
 3261 0004 0200     		.2byte	0x2
 3262 0006 00000000 		.4byte	.Ldebug_info0
 3263 000a 04       		.byte	0x4
 3264 000b 00       		.byte	0
 3265 000c 0000     		.2byte	0
 3266 000e 0000     		.2byte	0
 3267 0010 00000000 		.4byte	.LFB432
 3268 0014 A8000000 		.4byte	.LFE432-.LFB432
 3269 0018 00000000 		.4byte	0
 3270 001c 00000000 		.4byte	0
 3271              		.section	.debug_rnglists,"",%progbits
 3272              	.Ldebug_ranges0:
 3273 0000 10000000 		.4byte	.Ldebug_ranges3-.Ldebug_ranges2
 3274              	.Ldebug_ranges2:
 3275 0004 0500     		.2byte	0x5
 3276 0006 04       		.byte	0x4
 3277 0007 00       		.byte	0
 3278 0008 00000000 		.4byte	0
 3279              	.LLRL2:
 3280 000c 07       		.byte	0x7
 3281 000d 00000000 		.4byte	.LFB432
 3282 0011 A801     		.uleb128 .LFE432-.LFB432
 3283 0013 00       		.byte	0
ARM GAS  C:\Users\DEVELO~1\AppData\Local\Temp\ccrzvc7A.s 			page 59


 3284              	.Ldebug_ranges3:
 3285              		.section	.debug_line,"",%progbits
 3286              	.Ldebug_line0:
 3287 0000 31040000 		.section	.debug_str,"MS",%progbits,1
 3287      0300A203 
 3287      00000201 
 3287      FB0E0D00 
 3287      01010101 
 3288              	.LASF73:
 3289 0000 70726576 		.ascii	"prev\000"
 3289      00
 3290              	.LASF122:
 3291 0005 72656164 		.ascii	"ready_list_t\000"
 3291      795F6C69 
 3291      73745F74 
 3291      00
 3292              	.LASF4:
 3293 0012 73697A65 		.ascii	"size_t\000"
 3293      5F7400
 3294              	.LASF111:
 3295 0019 7264796D 		.ascii	"rdymsg\000"
 3295      736700
 3296              	.LASF53:
 3297 0020 72666375 		.ascii	"rfcu\000"
 3297      00
 3298              	.LASF140:
 3299 0025 77726974 		.ascii	"write\000"
 3299      6500
 3300              	.LASF5:
 3301 002b 5F5F7569 		.ascii	"__uint8_t\000"
 3301      6E74385F 
 3301      7400
 3302              	.LASF207:
 3303 0035 433A5C50 		.ascii	"C:\\PROJET\\ChibiOS project\\ChibiOS_21.11.4\\demos"
 3303      524F4A45 
 3303      545C4368 
 3303      6962694F 
 3303      53207072 
 3304 0064 5C53544D 		.ascii	"\\STM32\\RT-STM32H743ZI_REV_XY-NUCLEO144\000"
 3304      33325C52 
 3304      542D5354 
 3304      4D333248 
 3304      3734335A 
 3305              	.LASF96:
 3306 008b 706F7274 		.ascii	"port_intctx\000"
 3306      5F696E74 
 3306      63747800 
 3307              	.LASF202:
 3308 0097 73647261 		.ascii	"sdramInit\000"
 3308      6D496E69 
 3308      7400
 3309              	.LASF50:
 3310 00a1 76746C69 		.ascii	"vtlist\000"
 3310      737400
 3311              	.LASF167:
 3312 00a8 72786D61 		.ascii	"rxmask\000"
 3312      736B00
ARM GAS  C:\Users\DEVELO~1\AppData\Local\Temp\ccrzvc7A.s 			page 60


 3313              	.LASF84:
 3314 00af 74797065 		.ascii	"type\000"
 3314      00
 3315              	.LASF87:
 3316 00b4 74726163 		.ascii	"trace_event_t\000"
 3316      655F6576 
 3316      656E745F 
 3316      7400
 3317              	.LASF88:
 3318 00c2 73757370 		.ascii	"suspended\000"
 3318      656E6465 
 3318      6400
 3319              	.LASF82:
 3320 00cc 68616C74 		.ascii	"halt\000"
 3320      00
 3321              	.LASF112:
 3322 00d1 65786974 		.ascii	"exitcode\000"
 3322      636F6465 
 3322      00
 3323              	.LASF55:
 3324 00da 6D61696E 		.ascii	"mainthread\000"
 3324      74687265 
 3324      616400
 3325              	.LASF114:
 3326 00e5 73656E74 		.ascii	"sentmsg\000"
 3326      6D736700 
 3327              	.LASF79:
 3328 00ed 64656C74 		.ascii	"delta\000"
 3328      6100
 3329              	.LASF182:
 3330 00f3 53445352 		.ascii	"SDSR\000"
 3330      00
 3331              	.LASF70:
 3332 00f8 6E657874 		.ascii	"next\000"
 3332      00
 3333              	.LASF107:
 3334 00fd 63685F74 		.ascii	"ch_threads_queue\000"
 3334      68726561 
 3334      64735F71 
 3334      75657565 
 3334      00
 3335              	.LASF175:
 3336 010e 72656164 		.ascii	"readt\000"
 3336      7400
 3337              	.LASF39:
 3338 0114 72656673 		.ascii	"refs\000"
 3338      00
 3339              	.LASF145:
 3340 0119 715F7761 		.ascii	"q_waiting\000"
 3340      6974696E 
 3340      6700
 3341              	.LASF1:
 3342 0123 6C6F6E67 		.ascii	"long long int\000"
 3342      206C6F6E 
 3342      6720696E 
 3342      7400
 3343              	.LASF3:
ARM GAS  C:\Users\DEVELO~1\AppData\Local\Temp\ccrzvc7A.s 			page 61


 3344 0131 7369676E 		.ascii	"signed char\000"
 3344      65642063 
 3344      68617200 
 3345              	.LASF168:
 3346 013d 68616C5F 		.ascii	"hal_serial_config\000"
 3346      73657269 
 3346      616C5F63 
 3346      6F6E6669 
 3346      6700
 3347              	.LASF203:
 3348 014f 63685379 		.ascii	"chSysInit\000"
 3348      73496E69 
 3348      7400
 3349              	.LASF92:
 3350 0159 47545052 		.ascii	"GTPR\000"
 3350      00
 3351              	.LASF13:
 3352 015e 6C6F6E67 		.ascii	"long unsigned int\000"
 3352      20756E73 
 3352      69676E65 
 3352      6420696E 
 3352      7400
 3353              	.LASF78:
 3354 0170 63685F64 		.ascii	"ch_delta_list\000"
 3354      656C7461 
 3354      5F6C6973 
 3354      7400
 3355              	.LASF15:
 3356 017e 6C6F6E67 		.ascii	"long long unsigned int\000"
 3356      206C6F6E 
 3356      6720756E 
 3356      7369676E 
 3356      65642069 
 3357              	.LASF155:
 3358 0195 6F757470 		.ascii	"output_queue_t\000"
 3358      75745F71 
 3358      75657565 
 3358      5F7400
 3359              	.LASF192:
 3360 01a4 7364636D 		.ascii	"sdcmr\000"
 3360      7200
 3361              	.LASF37:
 3362 01aa 73746174 		.ascii	"state\000"
 3362      6500
 3363              	.LASF11:
 3364 01b0 6C6F6E67 		.ascii	"long int\000"
 3364      20696E74 
 3364      00
 3365              	.LASF161:
 3366 01b9 68616C5F 		.ascii	"hal_serial_driver\000"
 3366      73657269 
 3366      616C5F64 
 3366      72697665 
 3366      7200
 3367              	.LASF24:
 3368 01cb 74737461 		.ascii	"tstate_t\000"
 3368      74655F74 
ARM GAS  C:\Users\DEVELO~1\AppData\Local\Temp\ccrzvc7A.s 			page 62


 3368      00
 3369              	.LASF197:
 3370 01d4 73647261 		.ascii	"sdram_cfg\000"
 3370      6D5F6366 
 3370      6700
 3371              	.LASF58:
 3372 01de 63685F72 		.ascii	"ch_rfcu\000"
 3372      66637500 
 3373              	.LASF205:
 3374 01e6 474E5520 		.ascii	"GNU C17 11.3.1 20220712 -mcpu=cortex-m7 -mthumb -mf"
 3374      43313720 
 3374      31312E33 
 3374      2E312032 
 3374      30323230 
 3375 0219 6C6F6174 		.ascii	"loat-abi=soft -march=armv7e-m -ggdb -O2 -fomit-fram"
 3375      2D616269 
 3375      3D736F66 
 3375      74202D6D 
 3375      61726368 
 3376 024c 652D706F 		.ascii	"e-pointer -falign-functions=16 -ffunction-sections "
 3376      696E7465 
 3376      72202D66 
 3376      616C6967 
 3376      6E2D6675 
 3377 027f 2D666461 		.ascii	"-fdata-sections -fno-common\000"
 3377      74612D73 
 3377      65637469 
 3377      6F6E7320 
 3377      2D666E6F 
 3378              	.LASF158:
 3379 029b 53445F52 		.ascii	"SD_READY\000"
 3379      45414459 
 3379      00
 3380              	.LASF72:
 3381 02a4 63685F71 		.ascii	"ch_queue\000"
 3381      75657565 
 3381      00
 3382              	.LASF147:
 3383 02ad 715F6275 		.ascii	"q_buffer\000"
 3383      66666572 
 3383      00
 3384              	.LASF17:
 3385 02b6 75696E74 		.ascii	"uint16_t\000"
 3385      31365F74 
 3385      00
 3386              	.LASF103:
 3387 02bf 63685F72 		.ascii	"ch_registry\000"
 3387      65676973 
 3387      74727900 
 3388              	.LASF134:
 3389 02cb 77666C61 		.ascii	"wflags\000"
 3389      677300
 3390              	.LASF208:
 3391 02d2 6D61696E 		.ascii	"main\000"
 3391      00
 3392              	.LASF94:
 3393 02d7 50524553 		.ascii	"PRESC\000"
ARM GAS  C:\Users\DEVELO~1\AppData\Local\Temp\ccrzvc7A.s 			page 63


 3393      4300
 3394              	.LASF12:
 3395 02dd 5F5F7569 		.ascii	"__uint32_t\000"
 3395      6E743332 
 3395      5F7400
 3396              	.LASF59:
 3397 02e8 6D61736B 		.ascii	"mask\000"
 3397      00
 3398              	.LASF71:
 3399 02ed 63685F71 		.ascii	"ch_queue_t\000"
 3399      75657565 
 3399      5F7400
 3400              	.LASF190:
 3401 02f8 73646372 		.ascii	"sdcr\000"
 3401      00
 3402              	.LASF185:
 3403 02fd 53445241 		.ascii	"SDRAM_STOP\000"
 3403      4D5F5354 
 3403      4F5000
 3404              	.LASF40:
 3405 0308 77616974 		.ascii	"waiting\000"
 3405      696E6700 
 3406              	.LASF196:
 3407 0310 75617274 		.ascii	"uart_cfg\000"
 3407      5F636667 
 3407      00
 3408              	.LASF124:
 3409 0319 6D61696E 		.ascii	"mainthread_base\000"
 3409      74687265 
 3409      61645F62 
 3409      61736500 
 3410              	.LASF129:
 3411 0329 6D757465 		.ascii	"mutex_t\000"
 3411      785F7400 
 3412              	.LASF144:
 3413 0331 696F5F71 		.ascii	"io_queue\000"
 3413      75657565 
 3413      00
 3414              	.LASF136:
 3415 033a 6576656E 		.ascii	"event_source_t\000"
 3415      745F736F 
 3415      75726365 
 3415      5F7400
 3416              	.LASF66:
 3417 0349 73797369 		.ascii	"sysinterval_t\000"
 3417      6E746572 
 3417      76616C5F 
 3417      7400
 3418              	.LASF30:
 3419 0357 636E745F 		.ascii	"cnt_t\000"
 3419      7400
 3420              	.LASF41:
 3421 035d 6D736771 		.ascii	"msgqueue\000"
 3421      75657565 
 3421      00
 3422              	.LASF165:
 3423 0366 75736172 		.ascii	"usart\000"
ARM GAS  C:\Users\DEVELO~1\AppData\Local\Temp\ccrzvc7A.s 			page 64


 3423      7400
 3424              	.LASF0:
 3425 036c 756E7369 		.ascii	"unsigned int\000"
 3425      676E6564 
 3425      20696E74 
 3425      00
 3426              	.LASF126:
 3427 0379 69646C65 		.ascii	"idlethread_base\000"
 3427      74687265 
 3427      61645F62 
 3427      61736500 
 3428              	.LASF171:
 3429 0389 53657269 		.ascii	"SerialDriverVMT\000"
 3429      616C4472 
 3429      69766572 
 3429      564D5400 
 3430              	.LASF115:
 3431 0399 77747365 		.ascii	"wtsemp\000"
 3431      6D7000
 3432              	.LASF64:
 3433 03a0 73797374 		.ascii	"system_debug_t\000"
 3433      656D5F64 
 3433      65627567 
 3433      5F7400
 3434              	.LASF163:
 3435 03af 69717565 		.ascii	"iqueue\000"
 3435      756500
 3436              	.LASF113:
 3437 03b6 77747472 		.ascii	"wttrp\000"
 3437      7000
 3438              	.LASF33:
 3439 03bc 72717565 		.ascii	"rqueue\000"
 3439      756500
 3440              	.LASF204:
 3441 03c3 68616C49 		.ascii	"halInit\000"
 3441      6E697400 
 3442              	.LASF67:
 3443 03cb 74696D65 		.ascii	"time_conv_t\000"
 3443      5F636F6E 
 3443      765F7400 
 3444              	.LASF173:
 3445 03d7 67657474 		.ascii	"gett\000"
 3445      00
 3446              	.LASF35:
 3447 03dc 6E616D65 		.ascii	"name\000"
 3447      00
 3448              	.LASF104:
 3449 03e1 71756575 		.ascii	"queue\000"
 3449      6500
 3450              	.LASF45:
 3451 03e7 6D706F6F 		.ascii	"mpool\000"
 3451      6C00
 3452              	.LASF162:
 3453 03ed 6576656E 		.ascii	"event\000"
 3453      7400
 3454              	.LASF89:
 3455 03f3 73697A65 		.ascii	"size\000"
ARM GAS  C:\Users\DEVELO~1\AppData\Local\Temp\ccrzvc7A.s 			page 65


 3455      00
 3456              	.LASF9:
 3457 03f8 73686F72 		.ascii	"short unsigned int\000"
 3457      7420756E 
 3457      7369676E 
 3457      65642069 
 3457      6E7400
 3458              	.LASF47:
 3459 040b 63685F74 		.ascii	"ch_thread\000"
 3459      68726561 
 3459      6400
 3460              	.LASF184:
 3461 0415 53445241 		.ascii	"SDRAM_UNINIT\000"
 3461      4D5F554E 
 3461      494E4954 
 3461      00
 3462              	.LASF29:
 3463 0422 6576656E 		.ascii	"eventflags_t\000"
 3463      74666C61 
 3463      67735F74 
 3463      00
 3464              	.LASF27:
 3465 042f 6D73675F 		.ascii	"msg_t\000"
 3465      7400
 3466              	.LASF42:
 3467 0435 6570656E 		.ascii	"epending\000"
 3467      64696E67 
 3467      00
 3468              	.LASF95:
 3469 043e 55534152 		.ascii	"USART_TypeDef\000"
 3469      545F5479 
 3469      70654465 
 3469      6600
 3470              	.LASF174:
 3471 044c 77726974 		.ascii	"writet\000"
 3471      657400
 3472              	.LASF23:
 3473 0453 746D6F64 		.ascii	"tmode_t\000"
 3473      655F7400 
 3474              	.LASF69:
 3475 045b 63685F6C 		.ascii	"ch_list\000"
 3475      69737400 
 3476              	.LASF120:
 3477 0463 63685F72 		.ascii	"ch_ready_list\000"
 3477      65616479 
 3477      5F6C6973 
 3477      7400
 3478              	.LASF28:
 3479 0471 6576656E 		.ascii	"eventmask_t\000"
 3479      746D6173 
 3479      6B5F7400 
 3480              	.LASF7:
 3481 047d 73686F72 		.ascii	"short int\000"
 3481      7420696E 
 3481      7400
 3482              	.LASF169:
 3483 0487 73706565 		.ascii	"speed\000"
ARM GAS  C:\Users\DEVELO~1\AppData\Local\Temp\ccrzvc7A.s 			page 66


 3483      6400
 3484              	.LASF102:
 3485 048d 76697274 		.ascii	"virtual_timers_list_t\000"
 3485      75616C5F 
 3485      74696D65 
 3485      72735F6C 
 3485      6973745F 
 3486              	.LASF22:
 3487 04a3 73746B61 		.ascii	"stkalign_t\000"
 3487      6C69676E 
 3487      5F7400
 3488              	.LASF85:
 3489 04ae 72747374 		.ascii	"rtstamp\000"
 3489      616D7000 
 3490              	.LASF101:
 3491 04b6 6C617374 		.ascii	"laststamp\000"
 3491      7374616D 
 3491      7000
 3492              	.LASF130:
 3493 04c0 6576656E 		.ascii	"event_listener_t\000"
 3493      745F6C69 
 3493      7374656E 
 3493      65725F74 
 3493      00
 3494              	.LASF154:
 3495 04d1 696E7075 		.ascii	"input_queue_t\000"
 3495      745F7175 
 3495      6575655F 
 3495      7400
 3496              	.LASF172:
 3497 04df 70757474 		.ascii	"putt\000"
 3497      00
 3498              	.LASF188:
 3499 04e4 53445241 		.ascii	"SDRAMDriver\000"
 3499      4D447269 
 3499      76657200 
 3500              	.LASF57:
 3501 04f0 72666375 		.ascii	"rfcu_mask_t\000"
 3501      5F6D6173 
 3501      6B5F7400 
 3502              	.LASF152:
 3503 04fc 715F6C69 		.ascii	"q_link\000"
 3503      6E6B00
 3504              	.LASF106:
 3505 0503 74687265 		.ascii	"thread_reference_t\000"
 3505      61645F72 
 3505      65666572 
 3505      656E6365 
 3505      5F7400
 3506              	.LASF132:
 3507 0516 6C697374 		.ascii	"listener\000"
 3507      656E6572 
 3507      00
 3508              	.LASF98:
 3509 051f 63685F76 		.ascii	"ch_virtual_timers_list\000"
 3509      69727475 
 3509      616C5F74 
ARM GAS  C:\Users\DEVELO~1\AppData\Local\Temp\ccrzvc7A.s 			page 67


 3509      696D6572 
 3509      735F6C69 
 3510              	.LASF146:
 3511 0536 715F636F 		.ascii	"q_counter\000"
 3511      756E7465 
 3511      7200
 3512              	.LASF181:
 3513 0540 53445254 		.ascii	"SDRTR\000"
 3513      5200
 3514              	.LASF68:
 3515 0546 63685F6C 		.ascii	"ch_list_t\000"
 3515      6973745F 
 3515      7400
 3516              	.LASF191:
 3517 0550 73647472 		.ascii	"sdtr\000"
 3517      00
 3518              	.LASF20:
 3519 0555 75696E74 		.ascii	"uint64_t\000"
 3519      36345F74 
 3519      00
 3520              	.LASF149:
 3521 055e 715F7772 		.ascii	"q_wrptr\000"
 3521      70747200 
 3522              	.LASF135:
 3523 0566 6576656E 		.ascii	"event_source\000"
 3523      745F736F 
 3523      75726365 
 3523      00
 3524              	.LASF123:
 3525 0573 63685F6F 		.ascii	"ch_os_instance_config\000"
 3525      735F696E 
 3525      7374616E 
 3525      63655F63 
 3525      6F6E6669 
 3526              	.LASF97:
 3527 0589 706F7274 		.ascii	"port_context\000"
 3527      5F636F6E 
 3527      74657874 
 3527      00
 3528              	.LASF186:
 3529 0596 53445241 		.ascii	"SDRAM_READY\000"
 3529      4D5F5245 
 3529      41445900 
 3530              	.LASF48:
 3531 05a2 63685F6F 		.ascii	"ch_os_instance\000"
 3531      735F696E 
 3531      7374616E 
 3531      636500
 3532              	.LASF86:
 3533 05b1 74696D65 		.ascii	"time\000"
 3533      00
 3534              	.LASF76:
 3535 05b6 7072696F 		.ascii	"prio\000"
 3535      00
 3536              	.LASF198:
 3537 05bb 63685468 		.ascii	"chThdSleep\000"
 3537      64536C65 
ARM GAS  C:\Users\DEVELO~1\AppData\Local\Temp\ccrzvc7A.s 			page 68


 3537      657000
 3538              	.LASF170:
 3539 05c6 53657269 		.ascii	"SerialConfig\000"
 3539      616C436F 
 3539      6E666967 
 3539      00
 3540              	.LASF14:
 3541 05d3 5F5F7569 		.ascii	"__uint64_t\000"
 3541      6E743634 
 3541      5F7400
 3542              	.LASF31:
 3543 05de 636F7265 		.ascii	"core_id_t\000"
 3543      5F69645F 
 3543      7400
 3544              	.LASF25:
 3545 05e8 74726566 		.ascii	"trefs_t\000"
 3545      735F7400 
 3546              	.LASF153:
 3547 05f0 716E6F74 		.ascii	"qnotify_t\000"
 3547      6966795F 
 3547      7400
 3548              	.LASF157:
 3549 05fa 53445F53 		.ascii	"SD_STOP\000"
 3549      544F5000 
 3550              	.LASF83:
 3551 0602 75736572 		.ascii	"user\000"
 3551      00
 3552              	.LASF183:
 3553 0607 46534D43 		.ascii	"FSMC_SDRAM_TypeDef\000"
 3553      5F534452 
 3553      414D5F54 
 3553      79706544 
 3553      656600
 3554              	.LASF26:
 3555 061a 74707269 		.ascii	"tprio_t\000"
 3555      6F5F7400 
 3556              	.LASF150:
 3557 0622 715F7264 		.ascii	"q_rdptr\000"
 3557      70747200 
 3558              	.LASF61:
 3559 062a 63685F73 		.ascii	"ch_system_debug\000"
 3559      79737465 
 3559      6D5F6465 
 3559      62756700 
 3560              	.LASF137:
 3561 063a 5F426F6F 		.ascii	"_Bool\000"
 3561      6C00
 3562              	.LASF18:
 3563 0640 696E7433 		.ascii	"int32_t\000"
 3563      325F7400 
 3564              	.LASF6:
 3565 0648 756E7369 		.ascii	"unsigned char\000"
 3565      676E6564 
 3565      20636861 
 3565      7200
 3566              	.LASF60:
 3567 0656 72666375 		.ascii	"rfcu_t\000"
ARM GAS  C:\Users\DEVELO~1\AppData\Local\Temp\ccrzvc7A.s 			page 69


 3567      5F7400
 3568              	.LASF194:
 3569 065d 53445241 		.ascii	"SDRAMConfig\000"
 3569      4D436F6E 
 3569      66696700 
 3570              	.LASF100:
 3571 0669 6C617374 		.ascii	"lasttime\000"
 3571      74696D65 
 3571      00
 3572              	.LASF91:
 3573 0672 74726163 		.ascii	"trace_buffer_t\000"
 3573      655F6275 
 3573      66666572 
 3573      5F7400
 3574              	.LASF80:
 3575 0681 77746F62 		.ascii	"wtobjp\000"
 3575      6A7000
 3576              	.LASF117:
 3577 0688 65776D61 		.ascii	"ewmask\000"
 3577      736B00
 3578              	.LASF164:
 3579 068f 6F717565 		.ascii	"oqueue\000"
 3579      756500
 3580              	.LASF138:
 3581 0696 42617365 		.ascii	"BaseSequentialStreamVMT\000"
 3581      53657175 
 3581      656E7469 
 3581      616C5374 
 3581      7265616D 
 3582              	.LASF52:
 3583 06ae 636F7265 		.ascii	"core_id\000"
 3583      5F696400 
 3584              	.LASF187:
 3585 06b6 73647261 		.ascii	"sdramstate_t\000"
 3585      6D737461 
 3585      74655F74 
 3585      00
 3586              	.LASF81:
 3587 06c3 72656173 		.ascii	"reason\000"
 3587      6F6E00
 3588              	.LASF108:
 3589 06ca 74687265 		.ascii	"threads_queue_t\000"
 3589      6164735F 
 3589      71756575 
 3589      655F7400 
 3590              	.LASF118:
 3591 06da 63685F73 		.ascii	"ch_semaphore\000"
 3591      656D6170 
 3591      686F7265 
 3591      00
 3592              	.LASF121:
 3593 06e7 63757272 		.ascii	"current\000"
 3593      656E7400 
 3594              	.LASF156:
 3595 06ef 53445F55 		.ascii	"SD_UNINIT\000"
 3595      4E494E49 
 3595      5400
ARM GAS  C:\Users\DEVELO~1\AppData\Local\Temp\ccrzvc7A.s 			page 70


 3596              	.LASF133:
 3597 06f9 6576656E 		.ascii	"events\000"
 3597      747300
 3598              	.LASF19:
 3599 0700 75696E74 		.ascii	"uint32_t\000"
 3599      33325F74 
 3599      00
 3600              	.LASF116:
 3601 0709 77746D74 		.ascii	"wtmtxp\000"
 3601      787000
 3602              	.LASF21:
 3603 0710 706F7274 		.ascii	"port_stkalign_t\000"
 3603      5F73746B 
 3603      616C6967 
 3603      6E5F7400 
 3604              	.LASF34:
 3605 0720 6F776E65 		.ascii	"owner\000"
 3605      7200
 3606              	.LASF160:
 3607 0726 53657269 		.ascii	"SerialDriver\000"
 3607      616C4472 
 3607      69766572 
 3607      00
 3608              	.LASF44:
 3609 0733 7265616C 		.ascii	"realprio\000"
 3609      7072696F 
 3609      00
 3610              	.LASF2:
 3611 073c 6C6F6E67 		.ascii	"long double\000"
 3611      20646F75 
 3611      626C6500 
 3612              	.LASF36:
 3613 0748 77616261 		.ascii	"wabase\000"
 3613      736500
 3614              	.LASF63:
 3615 074f 63686172 		.ascii	"char\000"
 3615      00
 3616              	.LASF10:
 3617 0754 5F5F696E 		.ascii	"__int32_t\000"
 3617      7433325F 
 3617      7400
 3618              	.LASF54:
 3619 075e 636F6E66 		.ascii	"config\000"
 3619      696700
 3620              	.LASF142:
 3621 0765 42617365 		.ascii	"BaseSequentialStream\000"
 3621      53657175 
 3621      656E7469 
 3621      616C5374 
 3621      7265616D 
 3622              	.LASF8:
 3623 077a 5F5F7569 		.ascii	"__uint16_t\000"
 3623      6E743136 
 3623      5F7400
 3624              	.LASF32:
 3625 0785 74687265 		.ascii	"thread_t\000"
 3625      61645F74 
ARM GAS  C:\Users\DEVELO~1\AppData\Local\Temp\ccrzvc7A.s 			page 71


 3625      00
 3626              	.LASF99:
 3627 078e 646C6973 		.ascii	"dlist\000"
 3627      7400
 3628              	.LASF65:
 3629 0794 73797374 		.ascii	"systime_t\000"
 3629      696D655F 
 3629      7400
 3630              	.LASF90:
 3631 079e 62756666 		.ascii	"buffer\000"
 3631      657200
 3632              	.LASF74:
 3633 07a5 63685F70 		.ascii	"ch_priority_queue_t\000"
 3633      72696F72 
 3633      6974795F 
 3633      71756575 
 3633      655F7400 
 3634              	.LASF143:
 3635 07b9 696F5F71 		.ascii	"io_queue_t\000"
 3635      75657565 
 3635      5F7400
 3636              	.LASF110:
 3637 07c4 70717565 		.ascii	"pqueue\000"
 3637      756500
 3638              	.LASF93:
 3639 07cb 52544F52 		.ascii	"RTOR\000"
 3639      00
 3640              	.LASF46:
 3641 07d0 6F735F69 		.ascii	"os_instance_t\000"
 3641      6E737461 
 3641      6E63655F 
 3641      7400
 3642              	.LASF51:
 3643 07de 7265676C 		.ascii	"reglist\000"
 3643      69737400 
 3644              	.LASF178:
 3645 07e6 53445452 		.ascii	"SDTR1\000"
 3645      3100
 3646              	.LASF179:
 3647 07ec 53445452 		.ascii	"SDTR2\000"
 3647      3200
 3648              	.LASF75:
 3649 07f2 63685F70 		.ascii	"ch_priority_queue\000"
 3649      72696F72 
 3649      6974795F 
 3649      71756575 
 3649      6500
 3650              	.LASF195:
 3651 0804 53445241 		.ascii	"SDRAMD1\000"
 3651      4D443100 
 3652              	.LASF77:
 3653 080c 63685F64 		.ascii	"ch_delta_list_t\000"
 3653      656C7461 
 3653      5F6C6973 
 3653      745F7400 
 3654              	.LASF105:
 3655 081c 72656769 		.ascii	"registry_t\000"
ARM GAS  C:\Users\DEVELO~1\AppData\Local\Temp\ccrzvc7A.s 			page 72


 3655      73747279 
 3655      5F7400
 3656              	.LASF125:
 3657 0827 6D61696E 		.ascii	"mainthread_end\000"
 3657      74687265 
 3657      61645F65 
 3657      6E6400
 3658              	.LASF189:
 3659 0836 73647261 		.ascii	"sdram\000"
 3659      6D00
 3660              	.LASF206:
 3661 083c 6D61696E 		.ascii	"main.c\000"
 3661      2E6300
 3662              	.LASF159:
 3663 0843 73647374 		.ascii	"sdstate_t\000"
 3663      6174655F 
 3663      7400
 3664              	.LASF128:
 3665 084d 6F735F69 		.ascii	"os_instance_config_t\000"
 3665      6E737461 
 3665      6E63655F 
 3665      636F6E66 
 3665      69675F74 
 3666              	.LASF148:
 3667 0862 715F746F 		.ascii	"q_top\000"
 3667      7000
 3668              	.LASF119:
 3669 0868 63685F6D 		.ascii	"ch_mutex\000"
 3669      75746578 
 3669      00
 3670              	.LASF199:
 3671 0871 73647261 		.ascii	"sdramStart\000"
 3671      6D537461 
 3671      727400
 3672              	.LASF151:
 3673 087c 715F6E6F 		.ascii	"q_notify\000"
 3673      74696679 
 3673      00
 3674              	.LASF49:
 3675 0885 726C6973 		.ascii	"rlist\000"
 3675      7400
 3676              	.LASF176:
 3677 088b 53444352 		.ascii	"SDCR1\000"
 3677      3100
 3678              	.LASF177:
 3679 0891 53444352 		.ascii	"SDCR2\000"
 3679      3200
 3680              	.LASF16:
 3681 0897 75696E74 		.ascii	"uint8_t\000"
 3681      385F7400 
 3682              	.LASF193:
 3683 089f 73647274 		.ascii	"sdrtr\000"
 3683      7200
 3684              	.LASF38:
 3685 08a5 666C6167 		.ascii	"flags\000"
 3685      7300
 3686              	.LASF62:
ARM GAS  C:\Users\DEVELO~1\AppData\Local\Temp\ccrzvc7A.s 			page 73


 3687 08ab 70616E69 		.ascii	"panic_msg\000"
 3687      635F6D73 
 3687      6700
 3688              	.LASF141:
 3689 08b5 72656164 		.ascii	"read\000"
 3689      00
 3690              	.LASF180:
 3691 08ba 5344434D 		.ascii	"SDCMR\000"
 3691      5200
 3692              	.LASF56:
 3693 08c0 74726163 		.ascii	"trace_buffer\000"
 3693      655F6275 
 3693      66666572 
 3693      00
 3694              	.LASF166:
 3695 08cd 636C6F63 		.ascii	"clock\000"
 3695      6B00
 3696              	.LASF139:
 3697 08d3 696E7374 		.ascii	"instance_offset\000"
 3697      616E6365 
 3697      5F6F6666 
 3697      73657400 
 3698              	.LASF109:
 3699 08e3 6C697374 		.ascii	"list\000"
 3699      00
 3700              	.LASF201:
 3701 08e8 73645374 		.ascii	"sdStart\000"
 3701      61727400 
 3702              	.LASF127:
 3703 08f0 69646C65 		.ascii	"idlethread_end\000"
 3703      74687265 
 3703      61645F65 
 3703      6E6400
 3704              	.LASF43:
 3705 08ff 6D74786C 		.ascii	"mtxlist\000"
 3705      69737400 
 3706              	.LASF131:
 3707 0907 6576656E 		.ascii	"event_listener\000"
 3707      745F6C69 
 3707      7374656E 
 3707      657200
 3708              	.LASF200:
 3709 0916 63687072 		.ascii	"chprintf\000"
 3709      696E7466 
 3709      00
 3710              		.ident	"GCC: (Arm GNU Toolchain 11.3.Rel1) 11.3.1 20220712"
ARM GAS  C:\Users\DEVELO~1\AppData\Local\Temp\ccrzvc7A.s 			page 74


DEFINED SYMBOLS
                            *ABS*:00000000 main.c
C:\Users\DEVELO~1\AppData\Local\Temp\ccrzvc7A.s:18     .rodata.main.str1.4:00000000 $d
C:\Users\DEVELO~1\AppData\Local\Temp\ccrzvc7A.s:37     .text.startup.main:00000000 $t
C:\Users\DEVELO~1\AppData\Local\Temp\ccrzvc7A.s:44     .text.startup.main:00000000 main
C:\Users\DEVELO~1\AppData\Local\Temp\ccrzvc7A.s:160    .text.startup.main:00000080 $d
C:\Users\DEVELO~1\AppData\Local\Temp\ccrzvc7A.s:174    .rodata.sdram_cfg:00000000 $d
C:\Users\DEVELO~1\AppData\Local\Temp\ccrzvc7A.s:178    .rodata.sdram_cfg:00000000 sdram_cfg
C:\Users\DEVELO~1\AppData\Local\Temp\ccrzvc7A.s:184    .rodata.uart_cfg:00000000 $d
C:\Users\DEVELO~1\AppData\Local\Temp\ccrzvc7A.s:188    .rodata.uart_cfg:00000000 uart_cfg

UNDEFINED SYMBOLS
halInit
chSysInit
sdStart
chprintf
sdramInit
sdramStart
chThdSleep
SD1
SDRAMD1
