ARM GAS  C:\Users\DEVELO~1\AppData\Local\Temp\ccY3QrD9.s 			page 1


   1              		.cpu cortex-m7
   2              		.arch armv7e-m
   3              		.fpu softvfp
   4              		.eabi_attribute 20, 1
   5              		.eabi_attribute 21, 1
   6              		.eabi_attribute 23, 3
   7              		.eabi_attribute 24, 1
   8              		.eabi_attribute 25, 1
   9              		.eabi_attribute 26, 1
  10              		.eabi_attribute 30, 2
  11              		.eabi_attribute 34, 1
  12              		.eabi_attribute 18, 4
  13              		.file	"main.c"
  14              		.text
  15              	.Ltext0:
  16              		.cfi_sections	.debug_frame
  17              		.section	.rodata.logThread.str1.4,"aMS",%progbits,1
  18              		.align	2
  19              	.LC0:
  20 0000 554E4B4E 		.ascii	"UNKNOWN\000"
  20      4F574E00 
  21              		.align	2
  22              	.LC1:
  23 0008 61756469 		.ascii	"audioLog\000"
  23      6F4C6F67 
  23      00
  24 0011 000000   		.align	2
  25              	.LC2:
  26 0014 61756469 		.ascii	"audio irq/s half=%lu full=%lu state=%s\015\012\000"
  26      6F206972 
  26      712F7320 
  26      68616C66 
  26      3D256C75 
  27              		.section	.text.logThread,"ax",%progbits
  28              		.align	1
  29              		.p2align 4,,15
  30              		.syntax unified
  31              		.thumb
  32              		.thumb_func
  33              		.type	logThread, %function
  34              	logThread:
  35              	.LVL0:
  36              	.LFB435:
  37              		.file 1 "main.c"
  38              		.loc 1 42 37 view -0
  39              		.cfi_startproc
  40              		@ args = 0, pretend = 0, frame = 0
  41              		@ frame_needed = 0, uses_anonymous_args = 0
  42              		.loc 1 43 3 view .LVU1
  43              		.loc 1 42 37 is_stmt 0 view .LVU2
  44 0000 2DE9F04F 		push	{r4, r5, r6, r7, r8, r9, r10, fp, lr}
  45              		.cfi_def_cfa_offset 36
  46              		.cfi_offset 4, -36
  47              		.cfi_offset 5, -32
  48              		.cfi_offset 6, -28
  49              		.cfi_offset 7, -24
  50              		.cfi_offset 8, -20
ARM GAS  C:\Users\DEVELO~1\AppData\Local\Temp\ccY3QrD9.s 			page 2


  51              		.cfi_offset 9, -16
  52              		.cfi_offset 10, -12
  53              		.cfi_offset 11, -8
  54              		.cfi_offset 14, -4
  55              	.LBB7:
  56              	.LBB8:
  57              		.file 2 "../../../os/rt/include/chregistry.h"
  58              		.loc 2 168 3 view .LVU3
  59 0004 144B     		ldr	r3, .L7
  60              	.LBE8:
  61              	.LBE7:
  62              		.loc 1 45 12 view .LVU4
  63 0006 0024     		movs	r4, #0
  64              	.LBB13:
  65              	.LBB9:
  66              		.loc 2 168 32 view .LVU5
  67 0008 144A     		ldr	r2, .L7+4
  68              	.LBE9:
  69              	.LBE13:
  70              		.loc 1 42 37 view .LVU6
  71 000a 83B0     		sub	sp, sp, #12
  72              		.cfi_def_cfa_offset 48
  73              	.LBB14:
  74              	.LBB10:
  75              		.loc 2 168 32 view .LVU7
  76 000c DB68     		ldr	r3, [r3, #12]
  77              	.LBE10:
  78              	.LBE14:
  79              		.loc 1 42 37 view .LVU8
  80 000e 8046     		mov	r8, r0
  81              	.LVL1:
  82              		.loc 1 44 3 is_stmt 1 view .LVU9
  83              		.loc 1 45 3 view .LVU10
  84              		.loc 1 47 3 view .LVU11
  85              	.LBB15:
  86              	.LBI7:
  87              		.loc 2 165 20 view .LVU12
  88              	.LBB11:
  89              		.loc 2 168 3 view .LVU13
  90              	.LBE11:
  91              	.LBE15:
  92              		.loc 1 44 12 is_stmt 0 view .LVU14
  93 0010 2546     		mov	r5, r4
  94 0012 DFF84CB0 		ldr	fp, .L7+8
  95 0016 DFF84CA0 		ldr	r10, .L7+12
  96              	.LBB16:
  97              		.loc 1 59 5 view .LVU15
  98 001a DFF84C90 		ldr	r9, .L7+16
  99              	.LBE16:
 100              	.LBB18:
 101              	.LBB12:
 102              		.loc 2 168 32 view .LVU16
 103 001e DA61     		str	r2, [r3, #28]
 104              	.LVL2:
 105              	.L3:
 106              		.loc 2 168 32 view .LVU17
 107              	.LBE12:
ARM GAS  C:\Users\DEVELO~1\AppData\Local\Temp\ccY3QrD9.s 			page 3


 108              	.LBE18:
 109              		.loc 1 49 3 is_stmt 1 discriminator 1 view .LVU18
 110              	.LBB19:
 111              		.loc 1 50 5 discriminator 1 view .LVU19
 112 0020 42F21070 		movw	r0, #10000
 113 0024 FFF7FEFF 		bl	chThdSleep
 114              	.LVL3:
 115              		.loc 1 52 5 discriminator 1 view .LVU20
 116              		.loc 1 52 14 is_stmt 0 discriminator 1 view .LVU21
 117 0028 DBF80060 		ldr	r6, [fp]
 118              	.LVL4:
 119              		.loc 1 53 5 is_stmt 1 discriminator 1 view .LVU22
 120              		.loc 1 53 14 is_stmt 0 discriminator 1 view .LVU23
 121 002c DAF80070 		ldr	r7, [r10]
 122              	.LVL5:
 123              		.loc 1 54 5 is_stmt 1 discriminator 1 view .LVU24
 124              		.loc 1 59 5 is_stmt 0 discriminator 1 view .LVU25
 125 0030 FFF7FEFF 		bl	drv_audio_get_state
 126              	.LVL6:
 127 0034 0328     		cmp	r0, #3
 128              		.loc 1 54 14 discriminator 1 view .LVU26
 129 0036 A6EB0502 		sub	r2, r6, r5
 130              	.LVL7:
 131              		.loc 1 55 5 is_stmt 1 discriminator 1 view .LVU27
 132              		.loc 1 55 14 is_stmt 0 discriminator 1 view .LVU28
 133 003a A7EB0403 		sub	r3, r7, r4
 134              	.LVL8:
 135              		.loc 1 56 5 is_stmt 1 discriminator 1 view .LVU29
 136              		.loc 1 57 5 discriminator 1 view .LVU30
 137              		.loc 1 59 5 discriminator 1 view .LVU31
 138 003e 0B4C     		ldr	r4, .L7+20
 139              	.LVL9:
 140              	.LBB17:
 141              	.LBI17:
 142              		.loc 1 26 20 discriminator 1 view .LVU32
 143              		.loc 1 27 3 discriminator 1 view .LVU33
 144 0040 02D8     		bhi	.L2
 145 0042 0B49     		ldr	r1, .L7+24
 146 0044 51F82040 		ldr	r4, [r1, r0, lsl #2]
 147              	.L2:
 148              	.LVL10:
 149              		.loc 1 27 3 is_stmt 0 discriminator 1 view .LVU34
 150              	.LBE17:
 151              		.loc 1 59 5 view .LVU35
 152 0048 0094     		str	r4, [sp]
 153 004a 4946     		mov	r1, r9
 154 004c 4046     		mov	r0, r8
 155              		.loc 1 57 15 view .LVU36
 156 004e 3C46     		mov	r4, r7
 157              		.loc 1 56 15 view .LVU37
 158 0050 3546     		mov	r5, r6
 159              		.loc 1 59 5 view .LVU38
 160 0052 FFF7FEFF 		bl	chprintf
 161              	.LVL11:
 162              		.loc 1 59 5 view .LVU39
 163              	.LBE19:
 164              		.loc 1 49 9 is_stmt 1 view .LVU40
ARM GAS  C:\Users\DEVELO~1\AppData\Local\Temp\ccY3QrD9.s 			page 4


 165              		.loc 1 49 16 is_stmt 0 view .LVU41
 166 0056 E3E7     		b	.L3
 167              	.L8:
 168              		.align	2
 169              	.L7:
 170 0058 00000000 		.word	ch0
 171 005c 08000000 		.word	.LC1
 172 0060 00000000 		.word	.LANCHOR0
 173 0064 00000000 		.word	.LANCHOR1
 174 0068 14000000 		.word	.LC2
 175 006c 00000000 		.word	.LC0
 176 0070 00000000 		.word	.LANCHOR2
 177              		.cfi_endproc
 178              	.LFE435:
 179              		.size	logThread, .-logThread
 180              		.section	.text.drv_audio_dma_half_cb,"ax",%progbits
 181              		.align	1
 182              		.p2align 4,,15
 183              		.weak	drv_audio_dma_half_cb
 184              		.syntax unified
 185              		.thumb
 186              		.thumb_func
 187              		.type	drv_audio_dma_half_cb, %function
 188              	drv_audio_dma_half_cb:
 189              	.LVL12:
 190              	.LFB432:
 191              		.loc 1 9 42 is_stmt 1 view -0
 192              		.cfi_startproc
 193              		@ args = 0, pretend = 0, frame = 0
 194              		@ frame_needed = 0, uses_anonymous_args = 0
 195              		@ link register save eliminated.
 196              		.loc 1 10 3 view .LVU43
 197              		.loc 1 11 3 view .LVU44
 198              		.loc 1 11 23 is_stmt 0 view .LVU45
 199 0000 024A     		ldr	r2, .L10
 200 0002 1368     		ldr	r3, [r2]
 201 0004 0133     		adds	r3, r3, #1
 202 0006 1360     		str	r3, [r2]
 203              		.loc 1 12 1 view .LVU46
 204 0008 7047     		bx	lr
 205              	.L11:
 206 000a 00BF     		.align	2
 207              	.L10:
 208 000c 00000000 		.word	.LANCHOR0
 209              		.cfi_endproc
 210              	.LFE432:
 211              		.size	drv_audio_dma_half_cb, .-drv_audio_dma_half_cb
 212              		.section	.text.drv_audio_dma_full_cb,"ax",%progbits
 213              		.align	1
 214              		.p2align 4,,15
 215              		.weak	drv_audio_dma_full_cb
 216              		.syntax unified
 217              		.thumb
 218              		.thumb_func
 219              		.type	drv_audio_dma_full_cb, %function
 220              	drv_audio_dma_full_cb:
 221              	.LVL13:
ARM GAS  C:\Users\DEVELO~1\AppData\Local\Temp\ccY3QrD9.s 			page 5


 222              	.LFB433:
 223              		.loc 1 14 42 is_stmt 1 view -0
 224              		.cfi_startproc
 225              		@ args = 0, pretend = 0, frame = 0
 226              		@ frame_needed = 0, uses_anonymous_args = 0
 227              		@ link register save eliminated.
 228              		.loc 1 15 3 view .LVU48
 229              		.loc 1 16 3 view .LVU49
 230              		.loc 1 16 23 is_stmt 0 view .LVU50
 231 0000 024A     		ldr	r2, .L13
 232 0002 1368     		ldr	r3, [r2]
 233 0004 0133     		adds	r3, r3, #1
 234 0006 1360     		str	r3, [r2]
 235              		.loc 1 17 1 view .LVU51
 236 0008 7047     		bx	lr
 237              	.L14:
 238 000a 00BF     		.align	2
 239              	.L13:
 240 000c 00000000 		.word	.LANCHOR1
 241              		.cfi_endproc
 242              	.LFE433:
 243              		.size	drv_audio_dma_full_cb, .-drv_audio_dma_full_cb
 244              		.section	.rodata.main.str1.4,"aMS",%progbits,1
 245              		.align	2
 246              	.LC3:
 247 0000 0D0A4175 		.ascii	"\015\012Audio bring-up test (no codec)\015\012\000"
 247      64696F20 
 247      6272696E 
 247      672D7570 
 247      20746573 
 248              		.section	.text.startup.main,"ax",%progbits
 249              		.align	1
 250              		.p2align 4,,15
 251              		.global	main
 252              		.syntax unified
 253              		.thumb
 254              		.thumb_func
 255              		.type	main, %function
 256              	main:
 257              	.LFB436:
 258              		.loc 1 67 16 is_stmt 1 view -0
 259              		.cfi_startproc
 260              		@ Volatile: function does not return.
 261              		@ args = 0, pretend = 0, frame = 0
 262              		@ frame_needed = 0, uses_anonymous_args = 0
 263              		.loc 1 68 3 view .LVU53
 264              		.loc 1 71 3 is_stmt 0 view .LVU54
 265 0000 0F4C     		ldr	r4, .L18
 266              		.loc 1 67 16 view .LVU55
 267 0002 00B5     		push	{lr}
 268              		.cfi_def_cfa_offset 4
 269              		.cfi_offset 14, -4
 270 0004 83B0     		sub	sp, sp, #12
 271              		.cfi_def_cfa_offset 16
 272              		.loc 1 68 3 view .LVU56
 273 0006 FFF7FEFF 		bl	halInit
 274              	.LVL14:
ARM GAS  C:\Users\DEVELO~1\AppData\Local\Temp\ccY3QrD9.s 			page 6


 275              		.loc 1 69 3 is_stmt 1 view .LVU57
 276 000a FFF7FEFF 		bl	chSysInit
 277              	.LVL15:
 278              		.loc 1 71 3 view .LVU58
 279 000e 0D49     		ldr	r1, .L18+4
 280 0010 2046     		mov	r0, r4
 281 0012 FFF7FEFF 		bl	sdStart
 282              	.LVL16:
 283              		.loc 1 72 3 view .LVU59
 284 0016 0C49     		ldr	r1, .L18+8
 285 0018 2046     		mov	r0, r4
 286 001a FFF7FEFF 		bl	chprintf
 287              	.LVL17:
 288              		.loc 1 74 3 view .LVU60
 289 001e FFF7FEFF 		bl	drv_audio_init
 290              	.LVL18:
 291              		.loc 1 75 3 view .LVU61
 292 0022 FFF7FEFF 		bl	drv_audio_start
 293              	.LVL19:
 294              		.loc 1 77 3 view .LVU62
 295 0026 094B     		ldr	r3, .L18+12
 296 0028 0222     		movs	r2, #2
 297 002a 4FF43C71 		mov	r1, #752
 298 002e 0848     		ldr	r0, .L18+16
 299 0030 0094     		str	r4, [sp]
 300 0032 FFF7FEFF 		bl	chThdCreateStatic
 301              	.LVL20:
 302              	.L16:
 303              		.loc 1 83 3 discriminator 1 view .LVU63
 304              		.loc 1 84 5 discriminator 1 view .LVU64
 305 0036 4CF25030 		movw	r0, #50000
 306 003a FFF7FEFF 		bl	chThdSleep
 307              	.LVL21:
 308              		.loc 1 83 9 discriminator 1 view .LVU65
 309 003e FAE7     		b	.L16
 310              	.L19:
 311              		.align	2
 312              	.L18:
 313 0040 00000000 		.word	SD1
 314 0044 00000000 		.word	.LANCHOR3
 315 0048 00000000 		.word	.LC3
 316 004c 00000000 		.word	logThread
 317 0050 00000000 		.word	.LANCHOR4
 318              		.cfi_endproc
 319              	.LFE436:
 320              		.size	main, .-main
 321              		.section	.rodata.str1.4,"aMS",%progbits,1
 322              		.align	2
 323              	.LC4:
 324 0000 53544F50 		.ascii	"STOPPED\000"
 324      50454400 
 325              		.align	2
 326              	.LC5:
 327 0008 52454144 		.ascii	"READY\000"
 327      5900
 328 000e 0000     		.align	2
 329              	.LC6:
ARM GAS  C:\Users\DEVELO~1\AppData\Local\Temp\ccY3QrD9.s 			page 7


 330 0010 52554E4E 		.ascii	"RUNNING\000"
 330      494E4700 
 331              		.align	2
 332              	.LC7:
 333 0018 4641554C 		.ascii	"FAULT\000"
 333      5400
 334              		.section	.bss.audio_dma_full_count,"aw",%nobits
 335              		.align	2
 336              		.set	.LANCHOR1,. + 0
 337              		.type	audio_dma_full_count, %object
 338              		.size	audio_dma_full_count, 4
 339              	audio_dma_full_count:
 340 0000 00000000 		.space	4
 341              		.section	.bss.audio_dma_half_count,"aw",%nobits
 342              		.align	2
 343              		.set	.LANCHOR0,. + 0
 344              		.type	audio_dma_half_count, %object
 345              		.size	audio_dma_half_count, 4
 346              	audio_dma_half_count:
 347 0000 00000000 		.space	4
 348              		.section	.bss.logThreadWA,"aw",%nobits
 349              		.align	3
 350              		.set	.LANCHOR4,. + 0
 351              		.type	logThreadWA, %object
 352              		.size	logThreadWA, 752
 353              	logThreadWA:
 354 0000 00000000 		.space	752
 354      00000000 
 354      00000000 
 354      00000000 
 354      00000000 
 355              		.section	.rodata.CSWTCH.4,"a"
 356              		.align	2
 357              		.set	.LANCHOR2,. + 0
 358              		.type	CSWTCH.4, %object
 359              		.size	CSWTCH.4, 16
 360              	CSWTCH.4:
 361 0000 00000000 		.word	.LC4
 362 0004 08000000 		.word	.LC5
 363 0008 10000000 		.word	.LC6
 364 000c 18000000 		.word	.LC7
 365              		.section	.rodata.uart_cfg,"a"
 366              		.align	2
 367              		.set	.LANCHOR3,. + 0
 368              		.type	uart_cfg, %object
 369              		.size	uart_cfg, 16
 370              	uart_cfg:
 371 0000 00C20100 		.word	115200
 372 0004 00000000 		.word	0
 373 0008 00000000 		.word	0
 374 000c 00000000 		.word	0
 375              		.text
 376              	.Letext0:
 377              		.file 3 "c:\\chibistudio\\tools\\gnu tools arm embedded\\11.3 2022.08\\lib\\gcc\\arm-none-eabi\\11
 378              		.file 4 "c:\\chibistudio\\tools\\gnu tools arm embedded\\11.3 2022.08\\arm-none-eabi\\include\\mac
 379              		.file 5 "c:\\chibistudio\\tools\\gnu tools arm embedded\\11.3 2022.08\\arm-none-eabi\\include\\sys
 380              		.file 6 "../../../os/common/ports/ARM-common/chtypes.h"
ARM GAS  C:\Users\DEVELO~1\AppData\Local\Temp\ccY3QrD9.s 			page 8


 381              		.file 7 "../../../os/rt/include/chearly.h"
 382              		.file 8 "../../../os/rt/include/chobjects.h"
 383              		.file 9 "../../../os/rt/include/chrfcu.h"
 384              		.file 10 "../../../os/rt/include/chdebug.h"
 385              		.file 11 "../../../os/rt/include/chtime.h"
 386              		.file 12 "../../../os/rt/include/chlists.h"
 387              		.file 13 "../../../os/rt/include/chtrace.h"
 388              		.file 14 "../../../os/common/ext/ST/STM32H7xx/stm32h743xx.h"
 389              		.file 15 "../../../os/common/ports/ARMv7-M/chcore.h"
 390              		.file 16 "../../../os/rt/include/chsem.h"
 391              		.file 17 "../../../os/rt/include/chmtx.h"
 392              		.file 18 "../../../os/rt/include/chthreads.h"
 393              		.file 19 "../../../os/rt/include/chevents.h"
 394              		.file 20 "../../../os/hal/include/hal_streams.h"
 395              		.file 21 "../../../os/hal/include/hal_queues.h"
 396              		.file 22 "../../../os/hal/include/hal_serial.h"
 397              		.file 23 "../../../os/hal/ports/STM32/LLD/USARTv3/hal_serial_lld.h"
 398              		.file 24 "../../../os/rt/include/chsys.h"
 399              		.file 25 "audio/drv_audio.h"
 400              		.file 26 "../../../os/hal/lib/streams/chprintf.h"
 401              		.file 27 "../../../os/hal/include/hal.h"
 402              		.section	.debug_info,"",%progbits
 403              	.Ldebug_info0:
 404 0000 2F120000 		.4byte	0x122f
 405 0004 0500     		.2byte	0x5
 406 0006 01       		.byte	0x1
 407 0007 04       		.byte	0x4
 408 0008 00000000 		.4byte	.Ldebug_abbrev0
 409 000c 28       		.uleb128 0x28
 410 000d 7F060000 		.4byte	.LASF201
 411 0011 1D       		.byte	0x1d
 412 0012 29050000 		.4byte	.LASF202
 413 0016 9A010000 		.4byte	.LASF203
 414 001a 2D000000 		.4byte	.LLRL12
 415 001e 00000000 		.4byte	0
 416 0022 00000000 		.4byte	.Ldebug_line0
 417 0026 29       		.uleb128 0x29
 418 0027 04       		.byte	0x4
 419 0028 05       		.byte	0x5
 420 0029 696E7400 		.ascii	"int\000"
 421 002d 02       		.uleb128 0x2
 422 002e 86030000 		.4byte	.LASF4
 423 0032 03       		.byte	0x3
 424 0033 D1       		.byte	0xd1
 425 0034 17       		.byte	0x17
 426 0035 3E000000 		.4byte	0x3e
 427 0039 14       		.uleb128 0x14
 428 003a 2D000000 		.4byte	0x2d
 429 003e 0A       		.uleb128 0xa
 430 003f 04       		.byte	0x4
 431 0040 07       		.byte	0x7
 432 0041 AD000000 		.4byte	.LASF0
 433 0045 0A       		.uleb128 0xa
 434 0046 08       		.byte	0x8
 435 0047 05       		.byte	0x5
 436 0048 BF040000 		.4byte	.LASF1
 437 004c 0A       		.uleb128 0xa
ARM GAS  C:\Users\DEVELO~1\AppData\Local\Temp\ccY3QrD9.s 			page 9


 438 004d 08       		.byte	0x8
 439 004e 04       		.byte	0x4
 440 004f 27060000 		.4byte	.LASF2
 441 0053 0A       		.uleb128 0xa
 442 0054 01       		.byte	0x1
 443 0055 06       		.byte	0x6
 444 0056 52090000 		.4byte	.LASF3
 445 005a 02       		.uleb128 0x2
 446 005b D5070000 		.4byte	.LASF5
 447 005f 04       		.byte	0x4
 448 0060 2B       		.byte	0x2b
 449 0061 18       		.byte	0x18
 450 0062 66000000 		.4byte	0x66
 451 0066 0A       		.uleb128 0xa
 452 0067 01       		.byte	0x1
 453 0068 08       		.byte	0x8
 454 0069 A7080000 		.4byte	.LASF6
 455 006d 0A       		.uleb128 0xa
 456 006e 02       		.byte	0x2
 457 006f 05       		.byte	0x5
 458 0070 3B070000 		.4byte	.LASF7
 459 0074 02       		.uleb128 0x2
 460 0075 F9020000 		.4byte	.LASF8
 461 0079 04       		.byte	0x4
 462 007a 39       		.byte	0x39
 463 007b 19       		.byte	0x19
 464 007c 80000000 		.4byte	0x80
 465 0080 0A       		.uleb128 0xa
 466 0081 02       		.byte	0x2
 467 0082 07       		.byte	0x7
 468 0083 14060000 		.4byte	.LASF9
 469 0087 02       		.uleb128 0x2
 470 0088 F0000000 		.4byte	.LASF10
 471 008c 04       		.byte	0x4
 472 008d 4D       		.byte	0x4d
 473 008e 18       		.byte	0x18
 474 008f 93000000 		.4byte	0x93
 475 0093 0A       		.uleb128 0xa
 476 0094 04       		.byte	0x4
 477 0095 05       		.byte	0x5
 478 0096 00000000 		.4byte	.LASF11
 479 009a 02       		.uleb128 0x2
 480 009b B5080000 		.4byte	.LASF12
 481 009f 04       		.byte	0x4
 482 00a0 4F       		.byte	0x4f
 483 00a1 19       		.byte	0x19
 484 00a2 A6000000 		.4byte	0xa6
 485 00a6 0A       		.uleb128 0xa
 486 00a7 04       		.byte	0x4
 487 00a8 07       		.byte	0x7
 488 00a9 88050000 		.4byte	.LASF13
 489 00ad 02       		.uleb128 0x2
 490 00ae CD040000 		.4byte	.LASF14
 491 00b2 04       		.byte	0x4
 492 00b3 69       		.byte	0x69
 493 00b4 19       		.byte	0x19
 494 00b5 B9000000 		.4byte	0xb9
ARM GAS  C:\Users\DEVELO~1\AppData\Local\Temp\ccY3QrD9.s 			page 10


 495 00b9 0A       		.uleb128 0xa
 496 00ba 08       		.byte	0x8
 497 00bb 07       		.byte	0x7
 498 00bc BF020000 		.4byte	.LASF15
 499 00c0 02       		.uleb128 0x2
 500 00c1 D8040000 		.4byte	.LASF16
 501 00c5 05       		.byte	0x5
 502 00c6 18       		.byte	0x18
 503 00c7 13       		.byte	0x13
 504 00c8 5A000000 		.4byte	0x5a
 505 00cc 0F       		.uleb128 0xf
 506 00cd C0000000 		.4byte	0xc0
 507 00d1 02       		.uleb128 0x2
 508 00d2 3A060000 		.4byte	.LASF17
 509 00d6 05       		.byte	0x5
 510 00d7 24       		.byte	0x24
 511 00d8 14       		.byte	0x14
 512 00d9 74000000 		.4byte	0x74
 513 00dd 02       		.uleb128 0x2
 514 00de 5C080000 		.4byte	.LASF18
 515 00e2 05       		.byte	0x5
 516 00e3 2C       		.byte	0x2c
 517 00e4 13       		.byte	0x13
 518 00e5 87000000 		.4byte	0x87
 519 00e9 02       		.uleb128 0x2
 520 00ea BF000000 		.4byte	.LASF19
 521 00ee 05       		.byte	0x5
 522 00ef 30       		.byte	0x30
 523 00f0 14       		.byte	0x14
 524 00f1 9A000000 		.4byte	0x9a
 525 00f5 14       		.uleb128 0x14
 526 00f6 E9000000 		.4byte	0xe9
 527 00fa 02       		.uleb128 0x2
 528 00fb B2070000 		.4byte	.LASF20
 529 00ff 05       		.byte	0x5
 530 0100 3C       		.byte	0x3c
 531 0101 14       		.byte	0x14
 532 0102 AD000000 		.4byte	0xad
 533 0106 14       		.uleb128 0x14
 534 0107 FA000000 		.4byte	0xfa
 535 010b 02       		.uleb128 0x2
 536 010c 58070000 		.4byte	.LASF21
 537 0110 06       		.byte	0x6
 538 0111 48       		.byte	0x48
 539 0112 1D       		.byte	0x1d
 540 0113 FA000000 		.4byte	0xfa
 541 0117 02       		.uleb128 0x2
 542 0118 7D090000 		.4byte	.LASF22
 543 011c 07       		.byte	0x7
 544 011d 50       		.byte	0x50
 545 011e 19       		.byte	0x19
 546 011f 0B010000 		.4byte	0x10b
 547 0123 02       		.uleb128 0x2
 548 0124 EB050000 		.4byte	.LASF23
 549 0128 07       		.byte	0x7
 550 0129 53       		.byte	0x53
 551 012a 19       		.byte	0x19
ARM GAS  C:\Users\DEVELO~1\AppData\Local\Temp\ccY3QrD9.s 			page 11


 552 012b C0000000 		.4byte	0xc0
 553 012f 02       		.uleb128 0x2
 554 0130 9F040000 		.4byte	.LASF24
 555 0134 07       		.byte	0x7
 556 0135 54       		.byte	0x54
 557 0136 19       		.byte	0x19
 558 0137 C0000000 		.4byte	0xc0
 559 013b 02       		.uleb128 0x2
 560 013c 03080000 		.4byte	.LASF25
 561 0140 07       		.byte	0x7
 562 0141 55       		.byte	0x55
 563 0142 19       		.byte	0x19
 564 0143 C0000000 		.4byte	0xc0
 565 0147 02       		.uleb128 0x2
 566 0148 72020000 		.4byte	.LASF26
 567 014c 07       		.byte	0x7
 568 014d 57       		.byte	0x57
 569 014e 19       		.byte	0x19
 570 014f E9000000 		.4byte	0xe9
 571 0153 02       		.uleb128 0x2
 572 0154 48050000 		.4byte	.LASF27
 573 0158 07       		.byte	0x7
 574 0159 58       		.byte	0x58
 575 015a 19       		.byte	0x19
 576 015b DD000000 		.4byte	0xdd
 577 015f 02       		.uleb128 0x2
 578 0160 2E020000 		.4byte	.LASF28
 579 0164 07       		.byte	0x7
 580 0165 5A       		.byte	0x5a
 581 0166 19       		.byte	0x19
 582 0167 E9000000 		.4byte	0xe9
 583 016b 02       		.uleb128 0x2
 584 016c B3050000 		.4byte	.LASF29
 585 0170 07       		.byte	0x7
 586 0171 5B       		.byte	0x5b
 587 0172 19       		.byte	0x19
 588 0173 E9000000 		.4byte	0xe9
 589 0177 02       		.uleb128 0x2
 590 0178 04030000 		.4byte	.LASF30
 591 017c 07       		.byte	0x7
 592 017d 5C       		.byte	0x5c
 593 017e 19       		.byte	0x19
 594 017f DD000000 		.4byte	0xdd
 595 0183 02       		.uleb128 0x2
 596 0184 A5090000 		.4byte	.LASF31
 597 0188 07       		.byte	0x7
 598 0189 80       		.byte	0x80
 599 018a 12       		.byte	0x12
 600 018b 3E000000 		.4byte	0x3e
 601 018f 02       		.uleb128 0x2
 602 0190 73030000 		.4byte	.LASF32
 603 0194 07       		.byte	0x7
 604 0195 85       		.byte	0x85
 605 0196 1A       		.byte	0x1a
 606 0197 9B010000 		.4byte	0x19b
 607 019b 07       		.uleb128 0x7
 608 019c F3040000 		.4byte	.LASF47
ARM GAS  C:\Users\DEVELO~1\AppData\Local\Temp\ccY3QrD9.s 			page 12


 609 01a0 48       		.byte	0x48
 610 01a1 08       		.byte	0x8
 611 01a2 9C       		.byte	0x9c
 612 01a3 08       		.byte	0x8
 613 01a4 7E020000 		.4byte	0x27e
 614 01a8 08       		.uleb128 0x8
 615 01a9 68647200 		.ascii	"hdr\000"
 616 01ad 08       		.byte	0x8
 617 01ae AD       		.byte	0xad
 618 01af 05       		.byte	0x5
 619 01b0 2E080000 		.4byte	0x82e
 620 01b4 00       		.byte	0
 621 01b5 08       		.uleb128 0x8
 622 01b6 63747800 		.ascii	"ctx\000"
 623 01ba 08       		.byte	0x8
 624 01bb B1       		.byte	0xb1
 625 01bc 21       		.byte	0x21
 626 01bd 72070000 		.4byte	0x772
 627 01c1 0C       		.byte	0xc
 628 01c2 01       		.uleb128 0x1
 629 01c3 A8040000 		.4byte	.LASF33
 630 01c7 08       		.byte	0x8
 631 01c8 B6       		.byte	0xb6
 632 01c9 21       		.byte	0x21
 633 01ca D8030000 		.4byte	0x3d8
 634 01ce 10       		.byte	0x10
 635 01cf 01       		.uleb128 0x1
 636 01d0 0F030000 		.4byte	.LASF34
 637 01d4 08       		.byte	0x8
 638 01d5 BB       		.byte	0xbb
 639 01d6 22       		.byte	0x22
 640 01d7 30090000 		.4byte	0x930
 641 01db 18       		.byte	0x18
 642 01dc 01       		.uleb128 0x1
 643 01dd 23000000 		.4byte	.LASF35
 644 01e1 08       		.byte	0x8
 645 01e2 C0       		.byte	0xc0
 646 01e3 22       		.byte	0x22
 647 01e4 66030000 		.4byte	0x366
 648 01e8 1C       		.byte	0x1c
 649 01e9 01       		.uleb128 0x1
 650 01ea 90040000 		.4byte	.LASF36
 651 01ee 08       		.byte	0x8
 652 01ef C9       		.byte	0xc9
 653 01f0 22       		.byte	0x22
 654 01f1 35090000 		.4byte	0x935
 655 01f5 20       		.byte	0x20
 656 01f6 01       		.uleb128 0x1
 657 01f7 F0080000 		.4byte	.LASF37
 658 01fb 08       		.byte	0x8
 659 01fc CE       		.byte	0xce
 660 01fd 21       		.byte	0x21
 661 01fe 2F010000 		.4byte	0x12f
 662 0202 24       		.byte	0x24
 663 0203 01       		.uleb128 0x1
 664 0204 5D000000 		.4byte	.LASF38
 665 0208 08       		.byte	0x8
ARM GAS  C:\Users\DEVELO~1\AppData\Local\Temp\ccY3QrD9.s 			page 13


 666 0209 D2       		.byte	0xd2
 667 020a 21       		.byte	0x21
 668 020b 23010000 		.4byte	0x123
 669 020f 25       		.byte	0x25
 670 0210 01       		.uleb128 0x1
 671 0211 FA000000 		.4byte	.LASF39
 672 0215 08       		.byte	0x8
 673 0216 D7       		.byte	0xd7
 674 0217 21       		.byte	0x21
 675 0218 3B010000 		.4byte	0x13b
 676 021c 26       		.byte	0x26
 677 021d 06       		.uleb128 0x6
 678 021e 7500     		.ascii	"u\000"
 679 0220 08       		.byte	0x8
 680 0221 2801     		.2byte	0x128
 681 0223 21       		.byte	0x21
 682 0224 5B080000 		.4byte	0x85b
 683 0228 28       		.byte	0x28
 684 0229 05       		.uleb128 0x5
 685 022a C0080000 		.4byte	.LASF40
 686 022e 08       		.byte	0x8
 687 022f 2D01     		.2byte	0x12d
 688 0231 21       		.byte	0x21
 689 0232 AC030000 		.4byte	0x3ac
 690 0236 2C       		.byte	0x2c
 691 0237 05       		.uleb128 0x5
 692 0238 7A020000 		.4byte	.LASF41
 693 023c 08       		.byte	0x8
 694 023d 3301     		.2byte	0x133
 695 023f 21       		.byte	0x21
 696 0240 D8030000 		.4byte	0x3d8
 697 0244 30       		.byte	0x30
 698 0245 05       		.uleb128 0x5
 699 0246 A4000000 		.4byte	.LASF42
 700 024a 08       		.byte	0x8
 701 024b 3901     		.2byte	0x139
 702 024d 21       		.byte	0x21
 703 024e 5F010000 		.4byte	0x15f
 704 0252 38       		.byte	0x38
 705 0253 05       		.uleb128 0x5
 706 0254 46030000 		.4byte	.LASF43
 707 0258 08       		.byte	0x8
 708 0259 4001     		.2byte	0x140
 709 025b 22       		.byte	0x22
 710 025c 2B090000 		.4byte	0x92b
 711 0260 3C       		.byte	0x3c
 712 0261 05       		.uleb128 0x5
 713 0262 6D000000 		.4byte	.LASF44
 714 0266 08       		.byte	0x8
 715 0267 4401     		.2byte	0x144
 716 0269 21       		.byte	0x21
 717 026a 47010000 		.4byte	0x147
 718 026e 40       		.byte	0x40
 719 026f 05       		.uleb128 0x5
 720 0270 B8090000 		.4byte	.LASF45
 721 0274 08       		.byte	0x8
 722 0275 4B01     		.2byte	0x14b
ARM GAS  C:\Users\DEVELO~1\AppData\Local\Temp\ccY3QrD9.s 			page 14


 723 0277 22       		.byte	0x22
 724 0278 C6040000 		.4byte	0x4c6
 725 027c 44       		.byte	0x44
 726 027d 00       		.byte	0
 727 027e 02       		.uleb128 0x2
 728 027f F6080000 		.4byte	.LASF46
 729 0283 07       		.byte	0x7
 730 0284 8A       		.byte	0x8a
 731 0285 1F       		.byte	0x1f
 732 0286 8A020000 		.4byte	0x28a
 733 028a 2A       		.uleb128 0x2a
 734 028b 02040000 		.4byte	.LASF48
 735 028f 9008     		.2byte	0x890
 736 0291 08       		.byte	0x8
 737 0292 8A01     		.2byte	0x18a
 738 0294 08       		.byte	0x8
 739 0295 18030000 		.4byte	0x318
 740 0299 05       		.uleb128 0x5
 741 029a C3070000 		.4byte	.LASF49
 742 029e 08       		.byte	0x8
 743 029f 8E01     		.2byte	0x18e
 744 02a1 21       		.byte	0x21
 745 02a2 65090000 		.4byte	0x965
 746 02a6 00       		.byte	0
 747 02a7 05       		.uleb128 0x5
 748 02a8 22010000 		.4byte	.LASF50
 749 02ac 08       		.byte	0x8
 750 02ad 9201     		.2byte	0x192
 751 02af 21       		.byte	0x21
 752 02b0 C8070000 		.4byte	0x7c8
 753 02b4 10       		.byte	0x10
 754 02b5 05       		.uleb128 0x5
 755 02b6 1F090000 		.4byte	.LASF51
 756 02ba 08       		.byte	0x8
 757 02bb 9901     		.2byte	0x199
 758 02bd 21       		.byte	0x21
 759 02be EF070000 		.4byte	0x7ef
 760 02c2 28       		.byte	0x28
 761 02c3 05       		.uleb128 0x5
 762 02c4 C8000000 		.4byte	.LASF52
 763 02c8 08       		.byte	0x8
 764 02c9 9E01     		.2byte	0x19e
 765 02cb 21       		.byte	0x21
 766 02cc 83010000 		.4byte	0x183
 767 02d0 30       		.byte	0x30
 768 02d1 05       		.uleb128 0x5
 769 02d2 65030000 		.4byte	.LASF53
 770 02d6 08       		.byte	0x8
 771 02d7 A401     		.2byte	0x1a4
 772 02d9 21       		.byte	0x21
 773 02da 3F030000 		.4byte	0x33f
 774 02de 34       		.byte	0x34
 775 02df 05       		.uleb128 0x5
 776 02e0 78060000 		.4byte	.LASF54
 777 02e4 08       		.byte	0x8
 778 02e5 A901     		.2byte	0x1a9
 779 02e7 22       		.byte	0x22
ARM GAS  C:\Users\DEVELO~1\AppData\Local\Temp\ccY3QrD9.s 			page 15


 780 02e8 D7090000 		.4byte	0x9d7
 781 02ec 38       		.byte	0x38
 782 02ed 05       		.uleb128 0x5
 783 02ee F3050000 		.4byte	.LASF55
 784 02f2 08       		.byte	0x8
 785 02f3 AD01     		.2byte	0x1ad
 786 02f5 21       		.byte	0x21
 787 02f6 8F010000 		.4byte	0x18f
 788 02fa 3C       		.byte	0x3c
 789 02fb 06       		.uleb128 0x6
 790 02fc 64626700 		.ascii	"dbg\000"
 791 0300 08       		.byte	0x8
 792 0301 B101     		.2byte	0x1b1
 793 0303 21       		.byte	0x21
 794 0304 7C030000 		.4byte	0x37c
 795 0308 84       		.byte	0x84
 796 0309 05       		.uleb128 0x5
 797 030a 6B080000 		.4byte	.LASF56
 798 030e 08       		.byte	0x8
 799 030f B601     		.2byte	0x1b6
 800 0311 21       		.byte	0x21
 801 0312 21060000 		.4byte	0x621
 802 0316 88       		.byte	0x88
 803 0317 00       		.byte	0
 804 0318 02       		.uleb128 0x2
 805 0319 78040000 		.4byte	.LASF57
 806 031d 09       		.byte	0x9
 807 031e 3F       		.byte	0x3f
 808 031f 12       		.byte	0x12
 809 0320 E9000000 		.4byte	0xe9
 810 0324 07       		.uleb128 0x7
 811 0325 C1030000 		.4byte	.LASF58
 812 0329 04       		.byte	0x4
 813 032a 09       		.byte	0x9
 814 032b 44       		.byte	0x44
 815 032c 10       		.byte	0x10
 816 032d 3F030000 		.4byte	0x33f
 817 0331 01       		.uleb128 0x1
 818 0332 83050000 		.4byte	.LASF59
 819 0336 09       		.byte	0x9
 820 0337 48       		.byte	0x48
 821 0338 21       		.byte	0x21
 822 0339 18030000 		.4byte	0x318
 823 033d 00       		.byte	0
 824 033e 00       		.byte	0
 825 033f 02       		.uleb128 0x2
 826 0340 64080000 		.4byte	.LASF60
 827 0344 09       		.byte	0x9
 828 0345 49       		.byte	0x49
 829 0346 03       		.byte	0x3
 830 0347 24030000 		.4byte	0x324
 831 034b 07       		.uleb128 0x7
 832 034c 85010000 		.4byte	.LASF61
 833 0350 04       		.byte	0x4
 834 0351 0A       		.byte	0xa
 835 0352 3E       		.byte	0x3e
 836 0353 10       		.byte	0x10
ARM GAS  C:\Users\DEVELO~1\AppData\Local\Temp\ccY3QrD9.s 			page 16


 837 0354 66030000 		.4byte	0x366
 838 0358 01       		.uleb128 0x1
 839 0359 C0050000 		.4byte	.LASF62
 840 035d 0A       		.byte	0xa
 841 035e 46       		.byte	0x46
 842 035f 24       		.byte	0x24
 843 0360 6B030000 		.4byte	0x36b
 844 0364 00       		.byte	0
 845 0365 00       		.byte	0
 846 0366 04       		.uleb128 0x4
 847 0367 77030000 		.4byte	0x377
 848 036b 14       		.uleb128 0x14
 849 036c 66030000 		.4byte	0x366
 850 0370 0A       		.uleb128 0xa
 851 0371 01       		.byte	0x1
 852 0372 08       		.byte	0x8
 853 0373 59040000 		.4byte	.LASF63
 854 0377 0F       		.uleb128 0xf
 855 0378 70030000 		.4byte	0x370
 856 037c 02       		.uleb128 0x2
 857 037d 03050000 		.4byte	.LASF64
 858 0381 0A       		.byte	0xa
 859 0382 51       		.byte	0x51
 860 0383 03       		.byte	0x3
 861 0384 4B030000 		.4byte	0x34b
 862 0388 02       		.uleb128 0x2
 863 0389 63000000 		.4byte	.LASF65
 864 038d 0B       		.byte	0xb
 865 038e 6D       		.byte	0x6d
 866 038f 12       		.byte	0x12
 867 0390 E9000000 		.4byte	0xe9
 868 0394 02       		.uleb128 0x2
 869 0395 9A050000 		.4byte	.LASF66
 870 0399 0B       		.byte	0xb
 871 039a 79       		.byte	0x79
 872 039b 12       		.byte	0x12
 873 039c E9000000 		.4byte	0xe9
 874 03a0 02       		.uleb128 0x2
 875 03a1 84040000 		.4byte	.LASF67
 876 03a5 0B       		.byte	0xb
 877 03a6 9B       		.byte	0x9b
 878 03a7 12       		.byte	0x12
 879 03a8 FA000000 		.4byte	0xfa
 880 03ac 02       		.uleb128 0x2
 881 03ad 43060000 		.4byte	.LASF68
 882 03b1 0C       		.byte	0xc
 883 03b2 32       		.byte	0x32
 884 03b3 18       		.byte	0x18
 885 03b4 B8030000 		.4byte	0x3b8
 886 03b8 07       		.uleb128 0x7
 887 03b9 70010000 		.4byte	.LASF69
 888 03bd 04       		.byte	0x4
 889 03be 0C       		.byte	0xc
 890 03bf 38       		.byte	0x38
 891 03c0 08       		.byte	0x8
 892 03c1 D3030000 		.4byte	0x3d3
 893 03c5 01       		.uleb128 0x1
ARM GAS  C:\Users\DEVELO~1\AppData\Local\Temp\ccY3QrD9.s 			page 17


 894 03c6 BA000000 		.4byte	.LASF70
 895 03ca 0C       		.byte	0xc
 896 03cb 39       		.byte	0x39
 897 03cc 1A       		.byte	0x1a
 898 03cd D3030000 		.4byte	0x3d3
 899 03d1 00       		.byte	0
 900 03d2 00       		.byte	0
 901 03d3 04       		.uleb128 0x4
 902 03d4 AC030000 		.4byte	0x3ac
 903 03d8 02       		.uleb128 0x2
 904 03d9 A8050000 		.4byte	.LASF71
 905 03dd 0C       		.byte	0xc
 906 03de 3F       		.byte	0x3f
 907 03df 19       		.byte	0x19
 908 03e0 E4030000 		.4byte	0x3e4
 909 03e4 07       		.uleb128 0x7
 910 03e5 91080000 		.4byte	.LASF72
 911 03e9 08       		.byte	0x8
 912 03ea 0C       		.byte	0xc
 913 03eb 45       		.byte	0x45
 914 03ec 08       		.byte	0x8
 915 03ed 0C040000 		.4byte	0x40c
 916 03f1 01       		.uleb128 0x1
 917 03f2 BA000000 		.4byte	.LASF70
 918 03f6 0C       		.byte	0xc
 919 03f7 46       		.byte	0x46
 920 03f8 1A       		.byte	0x1a
 921 03f9 0C040000 		.4byte	0x40c
 922 03fd 00       		.byte	0
 923 03fe 01       		.uleb128 0x1
 924 03ff 55010000 		.4byte	.LASF73
 925 0403 0C       		.byte	0xc
 926 0404 47       		.byte	0x47
 927 0405 1A       		.byte	0x1a
 928 0406 0C040000 		.4byte	0x40c
 929 040a 04       		.byte	0x4
 930 040b 00       		.byte	0
 931 040c 04       		.uleb128 0x4
 932 040d D8030000 		.4byte	0x3d8
 933 0411 02       		.uleb128 0x2
 934 0412 94030000 		.4byte	.LASF74
 935 0416 0C       		.byte	0xc
 936 0417 4E       		.byte	0x4e
 937 0418 22       		.byte	0x22
 938 0419 1D040000 		.4byte	0x41d
 939 041d 07       		.uleb128 0x7
 940 041e 7F080000 		.4byte	.LASF75
 941 0422 0C       		.byte	0xc
 942 0423 0C       		.byte	0xc
 943 0424 55       		.byte	0x55
 944 0425 08       		.byte	0x8
 945 0426 52040000 		.4byte	0x452
 946 042a 01       		.uleb128 0x1
 947 042b BA000000 		.4byte	.LASF70
 948 042f 0C       		.byte	0xc
 949 0430 56       		.byte	0x56
 950 0431 1A       		.byte	0x1a
ARM GAS  C:\Users\DEVELO~1\AppData\Local\Temp\ccY3QrD9.s 			page 18


 951 0432 52040000 		.4byte	0x452
 952 0436 00       		.byte	0
 953 0437 01       		.uleb128 0x1
 954 0438 55010000 		.4byte	.LASF73
 955 043c 0C       		.byte	0xc
 956 043d 57       		.byte	0x57
 957 043e 1A       		.byte	0x1a
 958 043f 52040000 		.4byte	0x452
 959 0443 04       		.byte	0x4
 960 0444 01       		.uleb128 0x1
 961 0445 54040000 		.4byte	.LASF76
 962 0449 0C       		.byte	0xc
 963 044a 58       		.byte	0x58
 964 044b 19       		.byte	0x19
 965 044c 47010000 		.4byte	0x147
 966 0450 08       		.byte	0x8
 967 0451 00       		.byte	0
 968 0452 04       		.uleb128 0x4
 969 0453 11040000 		.4byte	0x411
 970 0457 02       		.uleb128 0x2
 971 0458 68040000 		.4byte	.LASF77
 972 045c 0C       		.byte	0xc
 973 045d 5F       		.byte	0x5f
 974 045e 1E       		.byte	0x1e
 975 045f 63040000 		.4byte	0x463
 976 0463 07       		.uleb128 0x7
 977 0464 FC010000 		.4byte	.LASF78
 978 0468 0C       		.byte	0xc
 979 0469 0C       		.byte	0xc
 980 046a 64       		.byte	0x64
 981 046b 08       		.byte	0x8
 982 046c 98040000 		.4byte	0x498
 983 0470 01       		.uleb128 0x1
 984 0471 BA000000 		.4byte	.LASF70
 985 0475 0C       		.byte	0xc
 986 0476 65       		.byte	0x65
 987 0477 1A       		.byte	0x1a
 988 0478 98040000 		.4byte	0x498
 989 047c 00       		.byte	0
 990 047d 01       		.uleb128 0x1
 991 047e 55010000 		.4byte	.LASF73
 992 0482 0C       		.byte	0xc
 993 0483 66       		.byte	0x66
 994 0484 1A       		.byte	0x1a
 995 0485 98040000 		.4byte	0x498
 996 0489 04       		.byte	0x4
 997 048a 01       		.uleb128 0x1
 998 048b 5E090000 		.4byte	.LASF79
 999 048f 0C       		.byte	0xc
 1000 0490 67       		.byte	0x67
 1001 0491 19       		.byte	0x19
 1002 0492 94030000 		.4byte	0x394
 1003 0496 08       		.byte	0x8
 1004 0497 00       		.byte	0
 1005 0498 04       		.uleb128 0x4
 1006 0499 57040000 		.4byte	0x457
 1007 049d 0C       		.uleb128 0xc
ARM GAS  C:\Users\DEVELO~1\AppData\Local\Temp\ccY3QrD9.s 			page 19


 1008 049e 08       		.byte	0x8
 1009 049f 0D       		.byte	0xd
 1010 04a0 83       		.byte	0x83
 1011 04a1 05       		.byte	0x5
 1012 04a2 C1040000 		.4byte	0x4c1
 1013 04a6 08       		.uleb128 0x8
 1014 04a7 6E747000 		.ascii	"ntp\000"
 1015 04ab 0D       		.byte	0xd
 1016 04ac 87       		.byte	0x87
 1017 04ad 1E       		.byte	0x1e
 1018 04ae C1040000 		.4byte	0x4c1
 1019 04b2 00       		.byte	0
 1020 04b3 01       		.uleb128 0x1
 1021 04b4 1B010000 		.4byte	.LASF80
 1022 04b8 0D       		.byte	0xd
 1023 04b9 8B       		.byte	0x8b
 1024 04ba 1E       		.byte	0x1e
 1025 04bb C6040000 		.4byte	0x4c6
 1026 04bf 04       		.byte	0x4
 1027 04c0 00       		.byte	0
 1028 04c1 04       		.uleb128 0x4
 1029 04c2 8F010000 		.4byte	0x18f
 1030 04c6 2B       		.uleb128 0x2b
 1031 04c7 04       		.byte	0x4
 1032 04c8 0C       		.uleb128 0xc
 1033 04c9 08       		.byte	0x8
 1034 04ca 0D       		.byte	0xd
 1035 04cb 90       		.byte	0x90
 1036 04cc 05       		.byte	0x5
 1037 04cd EB040000 		.4byte	0x4eb
 1038 04d1 08       		.uleb128 0x8
 1039 04d2 747000   		.ascii	"tp\000"
 1040 04d5 0D       		.byte	0xd
 1041 04d6 94       		.byte	0x94
 1042 04d7 1E       		.byte	0x1e
 1043 04d8 C1040000 		.4byte	0x4c1
 1044 04dc 00       		.byte	0
 1045 04dd 08       		.uleb128 0x8
 1046 04de 6D736700 		.ascii	"msg\000"
 1047 04e2 0D       		.byte	0xd
 1048 04e3 98       		.byte	0x98
 1049 04e4 1D       		.byte	0x1d
 1050 04e5 53010000 		.4byte	0x153
 1051 04e9 04       		.byte	0x4
 1052 04ea 00       		.byte	0
 1053 04eb 0C       		.uleb128 0xc
 1054 04ec 04       		.byte	0x4
 1055 04ed 0D       		.byte	0xd
 1056 04ee 9D       		.byte	0x9d
 1057 04ef 05       		.byte	0x5
 1058 04f0 02050000 		.4byte	0x502
 1059 04f4 01       		.uleb128 0x1
 1060 04f5 23000000 		.4byte	.LASF35
 1061 04f9 0D       		.byte	0xd
 1062 04fa A1       		.byte	0xa1
 1063 04fb 1E       		.byte	0x1e
 1064 04fc 66030000 		.4byte	0x366
ARM GAS  C:\Users\DEVELO~1\AppData\Local\Temp\ccY3QrD9.s 			page 20


 1065 0500 00       		.byte	0
 1066 0501 00       		.byte	0
 1067 0502 0C       		.uleb128 0xc
 1068 0503 04       		.byte	0x4
 1069 0504 0D       		.byte	0xd
 1070 0505 A6       		.byte	0xa6
 1071 0506 05       		.byte	0x5
 1072 0507 19050000 		.4byte	0x519
 1073 050b 01       		.uleb128 0x1
 1074 050c D6020000 		.4byte	.LASF81
 1075 0510 0D       		.byte	0xd
 1076 0511 AA       		.byte	0xaa
 1077 0512 1E       		.byte	0x1e
 1078 0513 66030000 		.4byte	0x366
 1079 0517 00       		.byte	0
 1080 0518 00       		.byte	0
 1081 0519 0C       		.uleb128 0xc
 1082 051a 08       		.byte	0x8
 1083 051b 0D       		.byte	0xd
 1084 051c AF       		.byte	0xaf
 1085 051d 05       		.byte	0x5
 1086 051e 3D050000 		.4byte	0x53d
 1087 0522 08       		.uleb128 0x8
 1088 0523 75703100 		.ascii	"up1\000"
 1089 0527 0D       		.byte	0xd
 1090 0528 B3       		.byte	0xb3
 1091 0529 1E       		.byte	0x1e
 1092 052a C6040000 		.4byte	0x4c6
 1093 052e 00       		.byte	0
 1094 052f 08       		.uleb128 0x8
 1095 0530 75703200 		.ascii	"up2\000"
 1096 0534 0D       		.byte	0xd
 1097 0535 B7       		.byte	0xb7
 1098 0536 1E       		.byte	0x1e
 1099 0537 C6040000 		.4byte	0x4c6
 1100 053b 04       		.byte	0x4
 1101 053c 00       		.byte	0
 1102 053d 18       		.uleb128 0x18
 1103 053e 08       		.byte	0x8
 1104 053f 0D       		.byte	0xd
 1105 0540 7F       		.byte	0x7f
 1106 0541 7B050000 		.4byte	0x57b
 1107 0545 19       		.uleb128 0x19
 1108 0546 737700   		.ascii	"sw\000"
 1109 0549 8C       		.byte	0x8c
 1110 054a 9D040000 		.4byte	0x49d
 1111 054e 19       		.uleb128 0x19
 1112 054f 72647900 		.ascii	"rdy\000"
 1113 0553 99       		.byte	0x99
 1114 0554 C8040000 		.4byte	0x4c8
 1115 0558 19       		.uleb128 0x19
 1116 0559 69737200 		.ascii	"isr\000"
 1117 055d A2       		.byte	0xa2
 1118 055e EB040000 		.4byte	0x4eb
 1119 0562 0D       		.uleb128 0xd
 1120 0563 BA020000 		.4byte	.LASF82
 1121 0567 0D       		.byte	0xd
ARM GAS  C:\Users\DEVELO~1\AppData\Local\Temp\ccY3QrD9.s 			page 21


 1122 0568 AB       		.byte	0xab
 1123 0569 07       		.byte	0x7
 1124 056a 02050000 		.4byte	0x502
 1125 056e 0D       		.uleb128 0xd
 1126 056f 7C030000 		.4byte	.LASF83
 1127 0573 0D       		.byte	0xd
 1128 0574 B8       		.byte	0xb8
 1129 0575 07       		.byte	0x7
 1130 0576 19050000 		.4byte	0x519
 1131 057a 00       		.byte	0
 1132 057b 0C       		.uleb128 0xc
 1133 057c 10       		.byte	0x10
 1134 057d 0D       		.byte	0xd
 1135 057e 6C       		.byte	0x6c
 1136 057f 09       		.byte	0x9
 1137 0580 C1050000 		.4byte	0x5c1
 1138 0584 1A       		.uleb128 0x1a
 1139 0585 A2080000 		.4byte	.LASF84
 1140 0589 70       		.byte	0x70
 1141 058a E9000000 		.4byte	0xe9
 1142 058e 03       		.byte	0x3
 1143 058f 00       		.byte	0
 1144 0590 1A       		.uleb128 0x1a
 1145 0591 F0080000 		.4byte	.LASF37
 1146 0595 74       		.byte	0x74
 1147 0596 E9000000 		.4byte	0xe9
 1148 059a 05       		.byte	0x5
 1149 059b 03       		.byte	0x3
 1150 059c 1A       		.uleb128 0x1a
 1151 059d 39080000 		.4byte	.LASF85
 1152 05a1 7A       		.byte	0x7a
 1153 05a2 E9000000 		.4byte	0xe9
 1154 05a6 18       		.byte	0x18
 1155 05a7 08       		.byte	0x8
 1156 05a8 01       		.uleb128 0x1
 1157 05a9 0A030000 		.4byte	.LASF86
 1158 05ad 0D       		.byte	0xd
 1159 05ae 7E       		.byte	0x7e
 1160 05af 19       		.byte	0x19
 1161 05b0 88030000 		.4byte	0x388
 1162 05b4 04       		.byte	0x4
 1163 05b5 08       		.uleb128 0x8
 1164 05b6 7500     		.ascii	"u\000"
 1165 05b8 0D       		.byte	0xd
 1166 05b9 B9       		.byte	0xb9
 1167 05ba 05       		.byte	0x5
 1168 05bb 3D050000 		.4byte	0x53d
 1169 05bf 08       		.byte	0x8
 1170 05c0 00       		.byte	0
 1171 05c1 02       		.uleb128 0x2
 1172 05c2 47020000 		.4byte	.LASF87
 1173 05c6 0D       		.byte	0xd
 1174 05c7 BA       		.byte	0xba
 1175 05c8 03       		.byte	0x3
 1176 05c9 7B050000 		.4byte	0x57b
 1177 05cd 2C       		.uleb128 0x2c
 1178 05ce 0808     		.2byte	0x808
ARM GAS  C:\Users\DEVELO~1\AppData\Local\Temp\ccY3QrD9.s 			page 22


 1179 05d0 0D       		.byte	0xd
 1180 05d1 C0       		.byte	0xc0
 1181 05d2 09       		.byte	0x9
 1182 05d3 0C060000 		.4byte	0x60c
 1183 05d7 01       		.uleb128 0x1
 1184 05d8 7D000000 		.4byte	.LASF88
 1185 05dc 0D       		.byte	0xd
 1186 05dd C4       		.byte	0xc4
 1187 05de 19       		.byte	0x19
 1188 05df D1000000 		.4byte	0xd1
 1189 05e3 00       		.byte	0
 1190 05e4 01       		.uleb128 0x1
 1191 05e5 7E050000 		.4byte	.LASF89
 1192 05e9 0D       		.byte	0xd
 1193 05ea C8       		.byte	0xc8
 1194 05eb 19       		.byte	0x19
 1195 05ec D1000000 		.4byte	0xd1
 1196 05f0 02       		.byte	0x2
 1197 05f1 08       		.uleb128 0x8
 1198 05f2 70747200 		.ascii	"ptr\000"
 1199 05f6 0D       		.byte	0xd
 1200 05f7 CC       		.byte	0xcc
 1201 05f8 1A       		.byte	0x1a
 1202 05f9 0C060000 		.4byte	0x60c
 1203 05fd 04       		.byte	0x4
 1204 05fe 01       		.uleb128 0x1
 1205 05ff 76000000 		.4byte	.LASF90
 1206 0603 0D       		.byte	0xd
 1207 0604 D0       		.byte	0xd0
 1208 0605 19       		.byte	0x19
 1209 0606 11060000 		.4byte	0x611
 1210 060a 08       		.byte	0x8
 1211 060b 00       		.byte	0
 1212 060c 04       		.uleb128 0x4
 1213 060d C1050000 		.4byte	0x5c1
 1214 0611 1B       		.uleb128 0x1b
 1215 0612 C1050000 		.4byte	0x5c1
 1216 0616 21060000 		.4byte	0x621
 1217 061a 1C       		.uleb128 0x1c
 1218 061b 3E000000 		.4byte	0x3e
 1219 061f 7F       		.byte	0x7f
 1220 0620 00       		.byte	0
 1221 0621 02       		.uleb128 0x2
 1222 0622 DC050000 		.4byte	.LASF91
 1223 0626 0D       		.byte	0xd
 1224 0627 D1       		.byte	0xd1
 1225 0628 03       		.byte	0x3
 1226 0629 CD050000 		.4byte	0x5cd
 1227 062d 2D       		.uleb128 0x2d
 1228 062e 30       		.byte	0x30
 1229 062f 0E       		.byte	0xe
 1230 0630 3906     		.2byte	0x639
 1231 0632 09       		.byte	0x9
 1232 0633 E0060000 		.4byte	0x6e0
 1233 0637 06       		.uleb128 0x6
 1234 0638 43523100 		.ascii	"CR1\000"
 1235 063c 0E       		.byte	0xe
ARM GAS  C:\Users\DEVELO~1\AppData\Local\Temp\ccY3QrD9.s 			page 23


 1236 063d 3B06     		.2byte	0x63b
 1237 063f 11       		.byte	0x11
 1238 0640 F5000000 		.4byte	0xf5
 1239 0644 00       		.byte	0
 1240 0645 06       		.uleb128 0x6
 1241 0646 43523200 		.ascii	"CR2\000"
 1242 064a 0E       		.byte	0xe
 1243 064b 3C06     		.2byte	0x63c
 1244 064d 11       		.byte	0x11
 1245 064e F5000000 		.4byte	0xf5
 1246 0652 04       		.byte	0x4
 1247 0653 06       		.uleb128 0x6
 1248 0654 43523300 		.ascii	"CR3\000"
 1249 0658 0E       		.byte	0xe
 1250 0659 3D06     		.2byte	0x63d
 1251 065b 11       		.byte	0x11
 1252 065c F5000000 		.4byte	0xf5
 1253 0660 08       		.byte	0x8
 1254 0661 06       		.uleb128 0x6
 1255 0662 42525200 		.ascii	"BRR\000"
 1256 0666 0E       		.byte	0xe
 1257 0667 3E06     		.2byte	0x63e
 1258 0669 11       		.byte	0x11
 1259 066a F5000000 		.4byte	0xf5
 1260 066e 0C       		.byte	0xc
 1261 066f 05       		.uleb128 0x5
 1262 0670 95010000 		.4byte	.LASF92
 1263 0674 0E       		.byte	0xe
 1264 0675 3F06     		.2byte	0x63f
 1265 0677 11       		.byte	0x11
 1266 0678 F5000000 		.4byte	0xf5
 1267 067c 10       		.byte	0x10
 1268 067d 05       		.uleb128 0x5
 1269 067e E0040000 		.4byte	.LASF93
 1270 0682 0E       		.byte	0xe
 1271 0683 4006     		.2byte	0x640
 1272 0685 11       		.byte	0x11
 1273 0686 F5000000 		.4byte	0xf5
 1274 068a 14       		.byte	0x14
 1275 068b 06       		.uleb128 0x6
 1276 068c 52515200 		.ascii	"RQR\000"
 1277 0690 0E       		.byte	0xe
 1278 0691 4106     		.2byte	0x641
 1279 0693 11       		.byte	0x11
 1280 0694 F5000000 		.4byte	0xf5
 1281 0698 18       		.byte	0x18
 1282 0699 06       		.uleb128 0x6
 1283 069a 49535200 		.ascii	"ISR\000"
 1284 069e 0E       		.byte	0xe
 1285 069f 4206     		.2byte	0x642
 1286 06a1 11       		.byte	0x11
 1287 06a2 F5000000 		.4byte	0xf5
 1288 06a6 1C       		.byte	0x1c
 1289 06a7 06       		.uleb128 0x6
 1290 06a8 49435200 		.ascii	"ICR\000"
 1291 06ac 0E       		.byte	0xe
 1292 06ad 4306     		.2byte	0x643
ARM GAS  C:\Users\DEVELO~1\AppData\Local\Temp\ccY3QrD9.s 			page 24


 1293 06af 11       		.byte	0x11
 1294 06b0 F5000000 		.4byte	0xf5
 1295 06b4 20       		.byte	0x20
 1296 06b5 06       		.uleb128 0x6
 1297 06b6 52445200 		.ascii	"RDR\000"
 1298 06ba 0E       		.byte	0xe
 1299 06bb 4406     		.2byte	0x644
 1300 06bd 11       		.byte	0x11
 1301 06be F5000000 		.4byte	0xf5
 1302 06c2 24       		.byte	0x24
 1303 06c3 06       		.uleb128 0x6
 1304 06c4 54445200 		.ascii	"TDR\000"
 1305 06c8 0E       		.byte	0xe
 1306 06c9 4506     		.2byte	0x645
 1307 06cb 11       		.byte	0x11
 1308 06cc F5000000 		.4byte	0xf5
 1309 06d0 28       		.byte	0x28
 1310 06d1 05       		.uleb128 0x5
 1311 06d2 DD020000 		.4byte	.LASF94
 1312 06d6 0E       		.byte	0xe
 1313 06d7 4606     		.2byte	0x646
 1314 06d9 11       		.byte	0x11
 1315 06da F5000000 		.4byte	0xf5
 1316 06de 2C       		.byte	0x2c
 1317 06df 00       		.byte	0
 1318 06e0 15       		.uleb128 0x15
 1319 06e1 E4030000 		.4byte	.LASF95
 1320 06e5 0E       		.byte	0xe
 1321 06e6 4706     		.2byte	0x647
 1322 06e8 2D060000 		.4byte	0x62d
 1323 06ec 12       		.uleb128 0x12
 1324 06ed 4C070000 		.4byte	.LASF96
 1325 06f1 24       		.byte	0x24
 1326 06f2 0F       		.byte	0xf
 1327 06f3 E001     		.2byte	0x1e0
 1328 06f5 08       		.byte	0x8
 1329 06f6 72070000 		.4byte	0x772
 1330 06fa 06       		.uleb128 0x6
 1331 06fb 723400   		.ascii	"r4\000"
 1332 06fe 0F       		.byte	0xf
 1333 06ff F901     		.2byte	0x1f9
 1334 0701 11       		.byte	0x11
 1335 0702 E9000000 		.4byte	0xe9
 1336 0706 00       		.byte	0
 1337 0707 06       		.uleb128 0x6
 1338 0708 723500   		.ascii	"r5\000"
 1339 070b 0F       		.byte	0xf
 1340 070c FA01     		.2byte	0x1fa
 1341 070e 11       		.byte	0x11
 1342 070f E9000000 		.4byte	0xe9
 1343 0713 04       		.byte	0x4
 1344 0714 06       		.uleb128 0x6
 1345 0715 723600   		.ascii	"r6\000"
 1346 0718 0F       		.byte	0xf
 1347 0719 FB01     		.2byte	0x1fb
 1348 071b 11       		.byte	0x11
 1349 071c E9000000 		.4byte	0xe9
ARM GAS  C:\Users\DEVELO~1\AppData\Local\Temp\ccY3QrD9.s 			page 25


 1350 0720 08       		.byte	0x8
 1351 0721 06       		.uleb128 0x6
 1352 0722 723700   		.ascii	"r7\000"
 1353 0725 0F       		.byte	0xf
 1354 0726 FC01     		.2byte	0x1fc
 1355 0728 11       		.byte	0x11
 1356 0729 E9000000 		.4byte	0xe9
 1357 072d 0C       		.byte	0xc
 1358 072e 06       		.uleb128 0x6
 1359 072f 723800   		.ascii	"r8\000"
 1360 0732 0F       		.byte	0xf
 1361 0733 FD01     		.2byte	0x1fd
 1362 0735 11       		.byte	0x11
 1363 0736 E9000000 		.4byte	0xe9
 1364 073a 10       		.byte	0x10
 1365 073b 06       		.uleb128 0x6
 1366 073c 723900   		.ascii	"r9\000"
 1367 073f 0F       		.byte	0xf
 1368 0740 FE01     		.2byte	0x1fe
 1369 0742 11       		.byte	0x11
 1370 0743 E9000000 		.4byte	0xe9
 1371 0747 14       		.byte	0x14
 1372 0748 06       		.uleb128 0x6
 1373 0749 72313000 		.ascii	"r10\000"
 1374 074d 0F       		.byte	0xf
 1375 074e FF01     		.2byte	0x1ff
 1376 0750 11       		.byte	0x11
 1377 0751 E9000000 		.4byte	0xe9
 1378 0755 18       		.byte	0x18
 1379 0756 06       		.uleb128 0x6
 1380 0757 72313100 		.ascii	"r11\000"
 1381 075b 0F       		.byte	0xf
 1382 075c 0002     		.2byte	0x200
 1383 075e 11       		.byte	0x11
 1384 075f E9000000 		.4byte	0xe9
 1385 0763 1C       		.byte	0x1c
 1386 0764 06       		.uleb128 0x6
 1387 0765 6C7200   		.ascii	"lr\000"
 1388 0768 0F       		.byte	0xf
 1389 0769 0102     		.2byte	0x201
 1390 076b 11       		.byte	0x11
 1391 076c E9000000 		.4byte	0xe9
 1392 0770 20       		.byte	0x20
 1393 0771 00       		.byte	0
 1394 0772 12       		.uleb128 0x12
 1395 0773 29010000 		.4byte	.LASF97
 1396 0777 04       		.byte	0x4
 1397 0778 0F       		.byte	0xf
 1398 0779 0A02     		.2byte	0x20a
 1399 077b 08       		.byte	0x8
 1400 077c 8E070000 		.4byte	0x78e
 1401 0780 06       		.uleb128 0x6
 1402 0781 737000   		.ascii	"sp\000"
 1403 0784 0F       		.byte	0xf
 1404 0785 0B02     		.2byte	0x20b
 1405 0787 1A       		.byte	0x1a
 1406 0788 8E070000 		.4byte	0x78e
ARM GAS  C:\Users\DEVELO~1\AppData\Local\Temp\ccY3QrD9.s 			page 26


 1407 078c 00       		.byte	0
 1408 078d 00       		.byte	0
 1409 078e 04       		.uleb128 0x4
 1410 078f EC060000 		.4byte	0x6ec
 1411 0793 07       		.uleb128 0x7
 1412 0794 4E030000 		.4byte	.LASF98
 1413 0798 18       		.byte	0x18
 1414 0799 08       		.byte	0x8
 1415 079a 64       		.byte	0x64
 1416 079b 10       		.byte	0x10
 1417 079c C8070000 		.4byte	0x7c8
 1418 07a0 01       		.uleb128 0x1
 1419 07a1 98070000 		.4byte	.LASF99
 1420 07a5 08       		.byte	0x8
 1421 07a6 68       		.byte	0x68
 1422 07a7 21       		.byte	0x21
 1423 07a8 57040000 		.4byte	0x457
 1424 07ac 00       		.byte	0
 1425 07ad 01       		.uleb128 0x1
 1426 07ae 6A030000 		.4byte	.LASF100
 1427 07b2 08       		.byte	0x8
 1428 07b3 73       		.byte	0x73
 1429 07b4 21       		.byte	0x21
 1430 07b5 88030000 		.4byte	0x388
 1431 07b9 0C       		.byte	0xc
 1432 07ba 01       		.uleb128 0x1
 1433 07bb 44010000 		.4byte	.LASF101
 1434 07bf 08       		.byte	0x8
 1435 07c0 79       		.byte	0x79
 1436 07c1 21       		.byte	0x21
 1437 07c2 06010000 		.4byte	0x106
 1438 07c6 10       		.byte	0x10
 1439 07c7 00       		.byte	0
 1440 07c8 02       		.uleb128 0x2
 1441 07c9 C8080000 		.4byte	.LASF102
 1442 07cd 08       		.byte	0x8
 1443 07ce 7B       		.byte	0x7b
 1444 07cf 03       		.byte	0x3
 1445 07d0 93070000 		.4byte	0x793
 1446 07d4 07       		.uleb128 0x7
 1447 07d5 3B000000 		.4byte	.LASF103
 1448 07d9 08       		.byte	0x8
 1449 07da 08       		.byte	0x8
 1450 07db 80       		.byte	0x80
 1451 07dc 10       		.byte	0x10
 1452 07dd EF070000 		.4byte	0x7ef
 1453 07e1 01       		.uleb128 0x1
 1454 07e2 41080000 		.4byte	.LASF104
 1455 07e6 08       		.byte	0x8
 1456 07e7 84       		.byte	0x84
 1457 07e8 21       		.byte	0x21
 1458 07e9 D8030000 		.4byte	0x3d8
 1459 07ed 00       		.byte	0
 1460 07ee 00       		.byte	0
 1461 07ef 02       		.uleb128 0x2
 1462 07f0 54050000 		.4byte	.LASF105
 1463 07f4 08       		.byte	0x8
ARM GAS  C:\Users\DEVELO~1\AppData\Local\Temp\ccY3QrD9.s 			page 27


 1464 07f5 85       		.byte	0x85
 1465 07f6 03       		.byte	0x3
 1466 07f7 D4070000 		.4byte	0x7d4
 1467 07fb 02       		.uleb128 0x2
 1468 07fc 28000000 		.4byte	.LASF106
 1469 0800 08       		.byte	0x8
 1470 0801 8A       		.byte	0x8a
 1471 0802 14       		.byte	0x14
 1472 0803 C1040000 		.4byte	0x4c1
 1473 0807 07       		.uleb128 0x7
 1474 0808 12050000 		.4byte	.LASF107
 1475 080c 08       		.byte	0x8
 1476 080d 08       		.byte	0x8
 1477 080e 8F       		.byte	0x8f
 1478 080f 10       		.byte	0x10
 1479 0810 22080000 		.4byte	0x822
 1480 0814 01       		.uleb128 0x1
 1481 0815 41080000 		.4byte	.LASF104
 1482 0819 08       		.byte	0x8
 1483 081a 93       		.byte	0x93
 1484 081b 21       		.byte	0x21
 1485 081c D8030000 		.4byte	0x3d8
 1486 0820 00       		.byte	0
 1487 0821 00       		.byte	0
 1488 0822 02       		.uleb128 0x2
 1489 0823 36030000 		.4byte	.LASF108
 1490 0827 08       		.byte	0x8
 1491 0828 94       		.byte	0x94
 1492 0829 03       		.byte	0x3
 1493 082a 07080000 		.4byte	0x807
 1494 082e 18       		.uleb128 0x18
 1495 082f 0C       		.byte	0xc
 1496 0830 08       		.byte	0x8
 1497 0831 A0       		.byte	0xa0
 1498 0832 5B080000 		.4byte	0x85b
 1499 0836 0D       		.uleb128 0xd
 1500 0837 F0010000 		.4byte	.LASF109
 1501 083b 08       		.byte	0x8
 1502 083c A4       		.byte	0xa4
 1503 083d 21       		.byte	0x21
 1504 083e AC030000 		.4byte	0x3ac
 1505 0842 0D       		.uleb128 0xd
 1506 0843 41080000 		.4byte	.LASF104
 1507 0847 08       		.byte	0x8
 1508 0848 A8       		.byte	0xa8
 1509 0849 21       		.byte	0x21
 1510 084a D8030000 		.4byte	0x3d8
 1511 084e 0D       		.uleb128 0xd
 1512 084f F2020000 		.4byte	.LASF110
 1513 0853 08       		.byte	0x8
 1514 0854 AC       		.byte	0xac
 1515 0855 21       		.byte	0x21
 1516 0856 11040000 		.4byte	0x411
 1517 085a 00       		.byte	0
 1518 085b 18       		.uleb128 0x18
 1519 085c 04       		.byte	0x4
 1520 085d 08       		.byte	0x8
ARM GAS  C:\Users\DEVELO~1\AppData\Local\Temp\ccY3QrD9.s 			page 28


 1521 085e EB       		.byte	0xeb
 1522 085f C4080000 		.4byte	0x8c4
 1523 0863 0D       		.uleb128 0xd
 1524 0864 8D030000 		.4byte	.LASF111
 1525 0868 08       		.byte	0x8
 1526 0869 F2       		.byte	0xf2
 1527 086a 21       		.byte	0x21
 1528 086b 53010000 		.4byte	0x153
 1529 086f 0D       		.uleb128 0xd
 1530 0870 9C090000 		.4byte	.LASF112
 1531 0874 08       		.byte	0x8
 1532 0875 F9       		.byte	0xf9
 1533 0876 21       		.byte	0x21
 1534 0877 53010000 		.4byte	0x153
 1535 087b 10       		.uleb128 0x10
 1536 087c 1B010000 		.4byte	.LASF80
 1537 0880 0001     		.2byte	0x100
 1538 0882 22       		.byte	0x22
 1539 0883 C6040000 		.4byte	0x4c6
 1540 0887 10       		.uleb128 0x10
 1541 0888 27090000 		.4byte	.LASF113
 1542 088c 0701     		.2byte	0x107
 1543 088e 22       		.byte	0x22
 1544 088f C4080000 		.4byte	0x8c4
 1545 0893 10       		.uleb128 0x10
 1546 0894 14020000 		.4byte	.LASF114
 1547 0898 0C01     		.2byte	0x10c
 1548 089a 21       		.byte	0x21
 1549 089b 53010000 		.4byte	0x153
 1550 089f 10       		.uleb128 0x10
 1551 08a0 78080000 		.4byte	.LASF115
 1552 08a4 1501     		.2byte	0x115
 1553 08a6 22       		.byte	0x22
 1554 08a7 F1080000 		.4byte	0x8f1
 1555 08ab 10       		.uleb128 0x10
 1556 08ac 95090000 		.4byte	.LASF116
 1557 08b0 1E01     		.2byte	0x11e
 1558 08b2 22       		.byte	0x22
 1559 08b3 2B090000 		.4byte	0x92b
 1560 08b7 10       		.uleb128 0x10
 1561 08b8 4E010000 		.4byte	.LASF117
 1562 08bc 2601     		.2byte	0x126
 1563 08be 21       		.byte	0x21
 1564 08bf 5F010000 		.4byte	0x15f
 1565 08c3 00       		.byte	0
 1566 08c4 04       		.uleb128 0x4
 1567 08c5 FB070000 		.4byte	0x7fb
 1568 08c9 07       		.uleb128 0x7
 1569 08ca 65020000 		.4byte	.LASF118
 1570 08ce 0C       		.byte	0xc
 1571 08cf 10       		.byte	0x10
 1572 08d0 34       		.byte	0x34
 1573 08d1 10       		.byte	0x10
 1574 08d2 F1080000 		.4byte	0x8f1
 1575 08d6 01       		.uleb128 0x1
 1576 08d7 41080000 		.4byte	.LASF104
 1577 08db 10       		.byte	0x10
ARM GAS  C:\Users\DEVELO~1\AppData\Local\Temp\ccY3QrD9.s 			page 29


 1578 08dc 35       		.byte	0x35
 1579 08dd 19       		.byte	0x19
 1580 08de D8030000 		.4byte	0x3d8
 1581 08e2 00       		.byte	0
 1582 08e3 08       		.uleb128 0x8
 1583 08e4 636E7400 		.ascii	"cnt\000"
 1584 08e8 10       		.byte	0x10
 1585 08e9 37       		.byte	0x37
 1586 08ea 19       		.byte	0x19
 1587 08eb 77010000 		.4byte	0x177
 1588 08ef 08       		.byte	0x8
 1589 08f0 00       		.byte	0
 1590 08f1 04       		.uleb128 0x4
 1591 08f2 C9080000 		.4byte	0x8c9
 1592 08f6 07       		.uleb128 0x7
 1593 08f7 C9030000 		.4byte	.LASF119
 1594 08fb 10       		.byte	0x10
 1595 08fc 11       		.byte	0x11
 1596 08fd 39       		.byte	0x39
 1597 08fe 08       		.byte	0x8
 1598 08ff 2B090000 		.4byte	0x92b
 1599 0903 01       		.uleb128 0x1
 1600 0904 41080000 		.4byte	.LASF104
 1601 0908 11       		.byte	0x11
 1602 0909 3A       		.byte	0x3a
 1603 090a 19       		.byte	0x19
 1604 090b D8030000 		.4byte	0x3d8
 1605 090f 00       		.byte	0
 1606 0910 01       		.uleb128 0x1
 1607 0911 0F030000 		.4byte	.LASF34
 1608 0915 11       		.byte	0x11
 1609 0916 3C       		.byte	0x3c
 1610 0917 1A       		.byte	0x1a
 1611 0918 C1040000 		.4byte	0x4c1
 1612 091c 08       		.byte	0x8
 1613 091d 01       		.uleb128 0x1
 1614 091e BA000000 		.4byte	.LASF70
 1615 0922 11       		.byte	0x11
 1616 0923 3E       		.byte	0x3e
 1617 0924 1A       		.byte	0x1a
 1618 0925 110A0000 		.4byte	0xa11
 1619 0929 0C       		.byte	0xc
 1620 092a 00       		.byte	0
 1621 092b 04       		.uleb128 0x4
 1622 092c F6080000 		.4byte	0x8f6
 1623 0930 04       		.uleb128 0x4
 1624 0931 7E020000 		.4byte	0x27e
 1625 0935 04       		.uleb128 0x4
 1626 0936 17010000 		.4byte	0x117
 1627 093a 12       		.uleb128 0x12
 1628 093b 36010000 		.4byte	.LASF120
 1629 093f 10       		.byte	0x10
 1630 0940 08       		.byte	0x8
 1631 0941 5C01     		.2byte	0x15c
 1632 0943 10       		.byte	0x10
 1633 0944 65090000 		.4byte	0x965
 1634 0948 05       		.uleb128 0x5
ARM GAS  C:\Users\DEVELO~1\AppData\Local\Temp\ccY3QrD9.s 			page 30


 1635 0949 F2020000 		.4byte	.LASF110
 1636 094d 08       		.byte	0x8
 1637 094e 6101     		.2byte	0x161
 1638 0950 21       		.byte	0x21
 1639 0951 11040000 		.4byte	0x411
 1640 0955 00       		.byte	0
 1641 0956 05       		.uleb128 0x5
 1642 0957 8D090000 		.4byte	.LASF121
 1643 095b 08       		.byte	0x8
 1644 095c 6501     		.2byte	0x165
 1645 095e 22       		.byte	0x22
 1646 095f C1040000 		.4byte	0x4c1
 1647 0963 0C       		.byte	0xc
 1648 0964 00       		.byte	0
 1649 0965 15       		.uleb128 0x15
 1650 0966 1C080000 		.4byte	.LASF122
 1651 096a 08       		.byte	0x8
 1652 096b 6601     		.2byte	0x166
 1653 096d 3A090000 		.4byte	0x93a
 1654 0971 12       		.uleb128 0x12
 1655 0972 82070000 		.4byte	.LASF123
 1656 0976 14       		.byte	0x14
 1657 0977 08       		.byte	0x8
 1658 0978 6B01     		.2byte	0x16b
 1659 097a 10       		.byte	0x10
 1660 097b C6090000 		.4byte	0x9c6
 1661 097f 05       		.uleb128 0x5
 1662 0980 23000000 		.4byte	.LASF35
 1663 0984 08       		.byte	0x8
 1664 0985 6F01     		.2byte	0x16f
 1665 0987 22       		.byte	0x22
 1666 0988 66030000 		.4byte	0x366
 1667 098c 00       		.byte	0
 1668 098d 05       		.uleb128 0x5
 1669 098e AF040000 		.4byte	.LASF124
 1670 0992 08       		.byte	0x8
 1671 0993 7501     		.2byte	0x175
 1672 0995 22       		.byte	0x22
 1673 0996 35090000 		.4byte	0x935
 1674 099a 04       		.byte	0x4
 1675 099b 05       		.uleb128 0x5
 1676 099c 27030000 		.4byte	.LASF125
 1677 09a0 08       		.byte	0x8
 1678 09a1 7901     		.2byte	0x179
 1679 09a3 22       		.byte	0x22
 1680 09a4 35090000 		.4byte	0x935
 1681 09a8 08       		.byte	0x8
 1682 09a9 05       		.uleb128 0x5
 1683 09aa 42090000 		.4byte	.LASF126
 1684 09ae 08       		.byte	0x8
 1685 09af 7F01     		.2byte	0x17f
 1686 09b1 22       		.byte	0x22
 1687 09b2 35090000 		.4byte	0x935
 1688 09b6 0C       		.byte	0xc
 1689 09b7 05       		.uleb128 0x5
 1690 09b8 29040000 		.4byte	.LASF127
 1691 09bc 08       		.byte	0x8
ARM GAS  C:\Users\DEVELO~1\AppData\Local\Temp\ccY3QrD9.s 			page 31


 1692 09bd 8301     		.2byte	0x183
 1693 09bf 22       		.byte	0x22
 1694 09c0 35090000 		.4byte	0x935
 1695 09c4 10       		.byte	0x10
 1696 09c5 00       		.byte	0
 1697 09c6 15       		.uleb128 0x15
 1698 09c7 88020000 		.4byte	.LASF128
 1699 09cb 08       		.byte	0x8
 1700 09cc 8501     		.2byte	0x185
 1701 09ce 71090000 		.4byte	0x971
 1702 09d2 0F       		.uleb128 0xf
 1703 09d3 C6090000 		.4byte	0x9c6
 1704 09d7 04       		.uleb128 0x4
 1705 09d8 D2090000 		.4byte	0x9d2
 1706 09dc 1D       		.uleb128 0x1d
 1707 09dd 63683000 		.ascii	"ch0\000"
 1708 09e1 18       		.byte	0x18
 1709 09e2 4101     		.2byte	0x141
 1710 09e4 16       		.byte	0x16
 1711 09e5 7E020000 		.4byte	0x27e
 1712 09e9 02       		.uleb128 0x2
 1713 09ea 9D020000 		.4byte	.LASF129
 1714 09ee 12       		.byte	0x12
 1715 09ef 34       		.byte	0x34
 1716 09f0 10       		.byte	0x10
 1717 09f1 F5090000 		.4byte	0x9f5
 1718 09f5 04       		.uleb128 0x4
 1719 09f6 FA090000 		.4byte	0x9fa
 1720 09fa 1E       		.uleb128 0x1e
 1721 09fb 050A0000 		.4byte	0xa05
 1722 09ff 03       		.uleb128 0x3
 1723 0a00 C6040000 		.4byte	0x4c6
 1724 0a04 00       		.byte	0
 1725 0a05 02       		.uleb128 0x2
 1726 0a06 9A080000 		.4byte	.LASF130
 1727 0a0a 11       		.byte	0x11
 1728 0a0b 34       		.byte	0x34
 1729 0a0c 19       		.byte	0x19
 1730 0a0d F6080000 		.4byte	0x8f6
 1731 0a11 04       		.uleb128 0x4
 1732 0a12 050A0000 		.4byte	0xa05
 1733 0a16 02       		.uleb128 0x2
 1734 0a17 0B080000 		.4byte	.LASF131
 1735 0a1b 13       		.byte	0x13
 1736 0a1c 34       		.byte	0x34
 1737 0a1d 1F       		.byte	0x1f
 1738 0a1e 220A0000 		.4byte	0xa22
 1739 0a22 07       		.uleb128 0x7
 1740 0a23 30050000 		.4byte	.LASF132
 1741 0a27 14       		.byte	0x14
 1742 0a28 13       		.byte	0x13
 1743 0a29 39       		.byte	0x39
 1744 0a2a 08       		.byte	0x8
 1745 0a2b 710A0000 		.4byte	0xa71
 1746 0a2f 01       		.uleb128 0x1
 1747 0a30 BA000000 		.4byte	.LASF70
 1748 0a34 13       		.byte	0x13
ARM GAS  C:\Users\DEVELO~1\AppData\Local\Temp\ccY3QrD9.s 			page 32


 1749 0a35 3A       		.byte	0x3a
 1750 0a36 1A       		.byte	0x1a
 1751 0a37 710A0000 		.4byte	0xa71
 1752 0a3b 00       		.byte	0
 1753 0a3c 01       		.uleb128 0x1
 1754 0a3d 47000000 		.4byte	.LASF133
 1755 0a41 13       		.byte	0x13
 1756 0a42 3D       		.byte	0x3d
 1757 0a43 1A       		.byte	0x1a
 1758 0a44 C1040000 		.4byte	0x4c1
 1759 0a48 04       		.byte	0x4
 1760 0a49 01       		.uleb128 0x1
 1761 0a4a DE080000 		.4byte	.LASF134
 1762 0a4e 13       		.byte	0x13
 1763 0a4f 3F       		.byte	0x3f
 1764 0a50 19       		.byte	0x19
 1765 0a51 5F010000 		.4byte	0x15f
 1766 0a55 08       		.byte	0x8
 1767 0a56 01       		.uleb128 0x1
 1768 0a57 5D000000 		.4byte	.LASF38
 1769 0a5b 13       		.byte	0x13
 1770 0a5c 41       		.byte	0x41
 1771 0a5d 19       		.byte	0x19
 1772 0a5e 6B010000 		.4byte	0x16b
 1773 0a62 0C       		.byte	0xc
 1774 0a63 01       		.uleb128 0x1
 1775 0a64 45070000 		.4byte	.LASF135
 1776 0a68 13       		.byte	0x13
 1777 0a69 43       		.byte	0x43
 1778 0a6a 19       		.byte	0x19
 1779 0a6b 6B010000 		.4byte	0x16b
 1780 0a6f 10       		.byte	0x10
 1781 0a70 00       		.byte	0
 1782 0a71 04       		.uleb128 0x4
 1783 0a72 160A0000 		.4byte	0xa16
 1784 0a76 07       		.uleb128 0x7
 1785 0a77 50000000 		.4byte	.LASF136
 1786 0a7b 04       		.byte	0x4
 1787 0a7c 13       		.byte	0x13
 1788 0a7d 4A       		.byte	0x4a
 1789 0a7e 10       		.byte	0x10
 1790 0a7f 910A0000 		.4byte	0xa91
 1791 0a83 01       		.uleb128 0x1
 1792 0a84 BA000000 		.4byte	.LASF70
 1793 0a88 13       		.byte	0x13
 1794 0a89 4B       		.byte	0x4b
 1795 0a8a 1A       		.byte	0x1a
 1796 0a8b 710A0000 		.4byte	0xa71
 1797 0a8f 00       		.byte	0
 1798 0a90 00       		.byte	0
 1799 0a91 02       		.uleb128 0x2
 1800 0a92 E3020000 		.4byte	.LASF137
 1801 0a96 13       		.byte	0x13
 1802 0a97 4E       		.byte	0x4e
 1803 0a98 03       		.byte	0x3
 1804 0a99 760A0000 		.4byte	0xa76
 1805 0a9d 0A       		.uleb128 0xa
ARM GAS  C:\Users\DEVELO~1\AppData\Local\Temp\ccY3QrD9.s 			page 33


 1806 0a9e 01       		.byte	0x1
 1807 0a9f 02       		.byte	0x2
 1808 0aa0 B3030000 		.4byte	.LASF138
 1809 0aa4 04       		.uleb128 0x4
 1810 0aa5 C0000000 		.4byte	0xc0
 1811 0aa9 07       		.uleb128 0x7
 1812 0aaa D0000000 		.4byte	.LASF139
 1813 0aae 14       		.byte	0x14
 1814 0aaf 14       		.byte	0x14
 1815 0ab0 4F       		.byte	0x4f
 1816 0ab1 08       		.byte	0x8
 1817 0ab2 F80A0000 		.4byte	0xaf8
 1818 0ab6 01       		.uleb128 0x1
 1819 0ab7 5F050000 		.4byte	.LASF140
 1820 0abb 14       		.byte	0x14
 1821 0abc 50       		.byte	0x50
 1822 0abd 03       		.byte	0x3
 1823 0abe 2D000000 		.4byte	0x2d
 1824 0ac2 00       		.byte	0
 1825 0ac3 01       		.uleb128 0x1
 1826 0ac4 23050000 		.4byte	.LASF141
 1827 0ac8 14       		.byte	0x14
 1828 0ac9 50       		.byte	0x50
 1829 0aca 03       		.byte	0x3
 1830 0acb 1B0B0000 		.4byte	0xb1b
 1831 0acf 04       		.byte	0x4
 1832 0ad0 01       		.uleb128 0x1
 1833 0ad1 DF070000 		.4byte	.LASF142
 1834 0ad5 14       		.byte	0x14
 1835 0ad6 50       		.byte	0x50
 1836 0ad7 03       		.byte	0x3
 1837 0ad8 390B0000 		.4byte	0xb39
 1838 0adc 08       		.byte	0x8
 1839 0add 08       		.uleb128 0x8
 1840 0ade 70757400 		.ascii	"put\000"
 1841 0ae2 14       		.byte	0x14
 1842 0ae3 50       		.byte	0x50
 1843 0ae4 03       		.byte	0x3
 1844 0ae5 520B0000 		.4byte	0xb52
 1845 0ae9 0C       		.byte	0xc
 1846 0aea 08       		.uleb128 0x8
 1847 0aeb 67657400 		.ascii	"get\000"
 1848 0aef 14       		.byte	0x14
 1849 0af0 50       		.byte	0x50
 1850 0af1 03       		.byte	0x3
 1851 0af2 660B0000 		.4byte	0xb66
 1852 0af6 10       		.byte	0x10
 1853 0af7 00       		.byte	0
 1854 0af8 0F       		.uleb128 0xf
 1855 0af9 A90A0000 		.4byte	0xaa9
 1856 0afd 0B       		.uleb128 0xb
 1857 0afe 2D000000 		.4byte	0x2d
 1858 0b02 160B0000 		.4byte	0xb16
 1859 0b06 03       		.uleb128 0x3
 1860 0b07 C6040000 		.4byte	0x4c6
 1861 0b0b 03       		.uleb128 0x3
 1862 0b0c 160B0000 		.4byte	0xb16
ARM GAS  C:\Users\DEVELO~1\AppData\Local\Temp\ccY3QrD9.s 			page 34


 1863 0b10 03       		.uleb128 0x3
 1864 0b11 2D000000 		.4byte	0x2d
 1865 0b15 00       		.byte	0
 1866 0b16 04       		.uleb128 0x4
 1867 0b17 CC000000 		.4byte	0xcc
 1868 0b1b 04       		.uleb128 0x4
 1869 0b1c FD0A0000 		.4byte	0xafd
 1870 0b20 0B       		.uleb128 0xb
 1871 0b21 2D000000 		.4byte	0x2d
 1872 0b25 390B0000 		.4byte	0xb39
 1873 0b29 03       		.uleb128 0x3
 1874 0b2a C6040000 		.4byte	0x4c6
 1875 0b2e 03       		.uleb128 0x3
 1876 0b2f A40A0000 		.4byte	0xaa4
 1877 0b33 03       		.uleb128 0x3
 1878 0b34 2D000000 		.4byte	0x2d
 1879 0b38 00       		.byte	0
 1880 0b39 04       		.uleb128 0x4
 1881 0b3a 200B0000 		.4byte	0xb20
 1882 0b3e 0B       		.uleb128 0xb
 1883 0b3f 53010000 		.4byte	0x153
 1884 0b43 520B0000 		.4byte	0xb52
 1885 0b47 03       		.uleb128 0x3
 1886 0b48 C6040000 		.4byte	0x4c6
 1887 0b4c 03       		.uleb128 0x3
 1888 0b4d C0000000 		.4byte	0xc0
 1889 0b51 00       		.byte	0
 1890 0b52 04       		.uleb128 0x4
 1891 0b53 3E0B0000 		.4byte	0xb3e
 1892 0b57 0B       		.uleb128 0xb
 1893 0b58 53010000 		.4byte	0x153
 1894 0b5c 660B0000 		.4byte	0xb66
 1895 0b60 03       		.uleb128 0x3
 1896 0b61 C6040000 		.4byte	0x4c6
 1897 0b65 00       		.byte	0
 1898 0b66 04       		.uleb128 0x4
 1899 0b67 570B0000 		.4byte	0xb57
 1900 0b6b 0C       		.uleb128 0xc
 1901 0b6c 04       		.byte	0x4
 1902 0b6d 14       		.byte	0x14
 1903 0b6e 5A       		.byte	0x5a
 1904 0b6f 09       		.byte	0x9
 1905 0b70 820B0000 		.4byte	0xb82
 1906 0b74 08       		.uleb128 0x8
 1907 0b75 766D7400 		.ascii	"vmt\000"
 1908 0b79 14       		.byte	0x14
 1909 0b7a 5C       		.byte	0x5c
 1910 0b7b 29       		.byte	0x29
 1911 0b7c 820B0000 		.4byte	0xb82
 1912 0b80 00       		.byte	0
 1913 0b81 00       		.byte	0
 1914 0b82 04       		.uleb128 0x4
 1915 0b83 F80A0000 		.4byte	0xaf8
 1916 0b87 02       		.uleb128 0x2
 1917 0b88 38040000 		.4byte	.LASF143
 1918 0b8c 14       		.byte	0x14
 1919 0b8d 5E       		.byte	0x5e
ARM GAS  C:\Users\DEVELO~1\AppData\Local\Temp\ccY3QrD9.s 			page 35


 1920 0b8e 03       		.byte	0x3
 1921 0b8f 6B0B0000 		.4byte	0xb6b
 1922 0b93 0B       		.uleb128 0xb
 1923 0b94 53010000 		.4byte	0x153
 1924 0b98 AC0B0000 		.4byte	0xbac
 1925 0b9c 03       		.uleb128 0x3
 1926 0b9d C6040000 		.4byte	0x4c6
 1927 0ba1 03       		.uleb128 0x3
 1928 0ba2 C0000000 		.4byte	0xc0
 1929 0ba6 03       		.uleb128 0x3
 1930 0ba7 94030000 		.4byte	0x394
 1931 0bab 00       		.byte	0
 1932 0bac 04       		.uleb128 0x4
 1933 0bad 930B0000 		.4byte	0xb93
 1934 0bb1 0B       		.uleb128 0xb
 1935 0bb2 53010000 		.4byte	0x153
 1936 0bb6 C50B0000 		.4byte	0xbc5
 1937 0bba 03       		.uleb128 0x3
 1938 0bbb C6040000 		.4byte	0x4c6
 1939 0bbf 03       		.uleb128 0x3
 1940 0bc0 94030000 		.4byte	0x394
 1941 0bc4 00       		.byte	0
 1942 0bc5 04       		.uleb128 0x4
 1943 0bc6 B10B0000 		.4byte	0xbb1
 1944 0bca 0B       		.uleb128 0xb
 1945 0bcb 2D000000 		.4byte	0x2d
 1946 0bcf E80B0000 		.4byte	0xbe8
 1947 0bd3 03       		.uleb128 0x3
 1948 0bd4 C6040000 		.4byte	0x4c6
 1949 0bd8 03       		.uleb128 0x3
 1950 0bd9 160B0000 		.4byte	0xb16
 1951 0bdd 03       		.uleb128 0x3
 1952 0bde 2D000000 		.4byte	0x2d
 1953 0be2 03       		.uleb128 0x3
 1954 0be3 94030000 		.4byte	0x394
 1955 0be7 00       		.byte	0
 1956 0be8 04       		.uleb128 0x4
 1957 0be9 CA0B0000 		.4byte	0xbca
 1958 0bed 0B       		.uleb128 0xb
 1959 0bee 2D000000 		.4byte	0x2d
 1960 0bf2 0B0C0000 		.4byte	0xc0b
 1961 0bf6 03       		.uleb128 0x3
 1962 0bf7 C6040000 		.4byte	0x4c6
 1963 0bfb 03       		.uleb128 0x3
 1964 0bfc A40A0000 		.4byte	0xaa4
 1965 0c00 03       		.uleb128 0x3
 1966 0c01 2D000000 		.4byte	0x2d
 1967 0c05 03       		.uleb128 0x3
 1968 0c06 94030000 		.4byte	0x394
 1969 0c0a 00       		.byte	0
 1970 0c0b 04       		.uleb128 0x4
 1971 0c0c ED0B0000 		.4byte	0xbed
 1972 0c10 0B       		.uleb128 0xb
 1973 0c11 53010000 		.4byte	0x153
 1974 0c15 290C0000 		.4byte	0xc29
 1975 0c19 03       		.uleb128 0x3
 1976 0c1a C6040000 		.4byte	0x4c6
ARM GAS  C:\Users\DEVELO~1\AppData\Local\Temp\ccY3QrD9.s 			page 36


 1977 0c1e 03       		.uleb128 0x3
 1978 0c1f 3E000000 		.4byte	0x3e
 1979 0c23 03       		.uleb128 0x3
 1980 0c24 C6040000 		.4byte	0x4c6
 1981 0c28 00       		.byte	0
 1982 0c29 04       		.uleb128 0x4
 1983 0c2a 100C0000 		.4byte	0xc10
 1984 0c2e 02       		.uleb128 0x2
 1985 0c2f 99000000 		.4byte	.LASF144
 1986 0c33 15       		.byte	0x15
 1987 0c34 3A       		.byte	0x3a
 1988 0c35 19       		.byte	0x19
 1989 0c36 3A0C0000 		.4byte	0xc3a
 1990 0c3a 07       		.uleb128 0x7
 1991 0c3b 64090000 		.4byte	.LASF145
 1992 0c3f 24       		.byte	0x24
 1993 0c40 15       		.byte	0x15
 1994 0c41 4B       		.byte	0x4b
 1995 0c42 08       		.byte	0x8
 1996 0c43 B00C0000 		.4byte	0xcb0
 1997 0c47 01       		.uleb128 0x1
 1998 0c48 0A020000 		.4byte	.LASF146
 1999 0c4c 15       		.byte	0x15
 2000 0c4d 4C       		.byte	0x4c
 2001 0c4e 19       		.byte	0x19
 2002 0c4f 22080000 		.4byte	0x822
 2003 0c53 00       		.byte	0
 2004 0c54 01       		.uleb128 0x1
 2005 0c55 EE070000 		.4byte	.LASF147
 2006 0c59 15       		.byte	0x15
 2007 0c5a 4D       		.byte	0x4d
 2008 0c5b 19       		.byte	0x19
 2009 0c5c 39000000 		.4byte	0x39
 2010 0c60 08       		.byte	0x8
 2011 0c61 01       		.uleb128 0x1
 2012 0c62 AF090000 		.4byte	.LASF148
 2013 0c66 15       		.byte	0x15
 2014 0c67 4E       		.byte	0x4e
 2015 0c68 1A       		.byte	0x1a
 2016 0c69 A40A0000 		.4byte	0xaa4
 2017 0c6d 0C       		.byte	0xc
 2018 0c6e 01       		.uleb128 0x1
 2019 0c6f FD070000 		.4byte	.LASF149
 2020 0c73 15       		.byte	0x15
 2021 0c74 4F       		.byte	0x4f
 2022 0c75 1A       		.byte	0x1a
 2023 0c76 A40A0000 		.4byte	0xaa4
 2024 0c7a 10       		.byte	0x10
 2025 0c7b 01       		.uleb128 0x1
 2026 0c7c 97040000 		.4byte	.LASF150
 2027 0c80 15       		.byte	0x15
 2028 0c81 51       		.byte	0x51
 2029 0c82 1A       		.byte	0x1a
 2030 0c83 A40A0000 		.4byte	0xaa4
 2031 0c87 14       		.byte	0x14
 2032 0c88 01       		.uleb128 0x1
 2033 0c89 E8000000 		.4byte	.LASF151
ARM GAS  C:\Users\DEVELO~1\AppData\Local\Temp\ccY3QrD9.s 			page 37


 2034 0c8d 15       		.byte	0x15
 2035 0c8e 52       		.byte	0x52
 2036 0c8f 1A       		.byte	0x1a
 2037 0c90 A40A0000 		.4byte	0xaa4
 2038 0c94 18       		.byte	0x18
 2039 0c95 01       		.uleb128 0x1
 2040 0c96 11040000 		.4byte	.LASF152
 2041 0c9a 15       		.byte	0x15
 2042 0c9b 53       		.byte	0x53
 2043 0c9c 19       		.byte	0x19
 2044 0c9d B00C0000 		.4byte	0xcb0
 2045 0ca1 1C       		.byte	0x1c
 2046 0ca2 01       		.uleb128 0x1
 2047 0ca3 4D040000 		.4byte	.LASF153
 2048 0ca7 15       		.byte	0x15
 2049 0ca8 54       		.byte	0x54
 2050 0ca9 1A       		.byte	0x1a
 2051 0caa C6040000 		.4byte	0x4c6
 2052 0cae 20       		.byte	0x20
 2053 0caf 00       		.byte	0
 2054 0cb0 02       		.uleb128 0x2
 2055 0cb1 FF000000 		.4byte	.LASF154
 2056 0cb5 15       		.byte	0x15
 2057 0cb6 41       		.byte	0x41
 2058 0cb7 10       		.byte	0x10
 2059 0cb8 BC0C0000 		.4byte	0xcbc
 2060 0cbc 04       		.uleb128 0x4
 2061 0cbd C10C0000 		.4byte	0xcc1
 2062 0cc1 1E       		.uleb128 0x1e
 2063 0cc2 CC0C0000 		.4byte	0xccc
 2064 0cc6 03       		.uleb128 0x3
 2065 0cc7 CC0C0000 		.4byte	0xccc
 2066 0ccb 00       		.byte	0
 2067 0ccc 04       		.uleb128 0x4
 2068 0ccd 2E0C0000 		.4byte	0xc2e
 2069 0cd1 02       		.uleb128 0x2
 2070 0cd2 E5040000 		.4byte	.LASF155
 2071 0cd6 15       		.byte	0x15
 2072 0cd7 61       		.byte	0x61
 2073 0cd8 14       		.byte	0x14
 2074 0cd9 2E0C0000 		.4byte	0xc2e
 2075 0cdd 02       		.uleb128 0x2
 2076 0cde 6F050000 		.4byte	.LASF156
 2077 0ce2 15       		.byte	0x15
 2078 0ce3 6D       		.byte	0x6d
 2079 0ce4 14       		.byte	0x14
 2080 0ce5 2E0C0000 		.4byte	0xc2e
 2081 0ce9 1F       		.uleb128 0x1f
 2082 0cea 66000000 		.4byte	0x66
 2083 0cee 16       		.byte	0x16
 2084 0cef 58       		.byte	0x58
 2085 0cf0 070D0000 		.4byte	0xd07
 2086 0cf4 0E       		.uleb128 0xe
 2087 0cf5 E4070000 		.4byte	.LASF157
 2088 0cf9 00       		.byte	0
 2089 0cfa 0E       		.uleb128 0xe
 2090 0cfb B9030000 		.4byte	.LASF158
ARM GAS  C:\Users\DEVELO~1\AppData\Local\Temp\ccY3QrD9.s 			page 38


 2091 0cff 01       		.byte	0x1
 2092 0d00 0E       		.uleb128 0xe
 2093 0d01 60060000 		.4byte	.LASF159
 2094 0d05 02       		.byte	0x2
 2095 0d06 00       		.byte	0
 2096 0d07 02       		.uleb128 0x2
 2097 0d08 55020000 		.4byte	.LASF160
 2098 0d0c 16       		.byte	0x16
 2099 0d0d 5C       		.byte	0x5c
 2100 0d0e 03       		.byte	0x3
 2101 0d0f E90C0000 		.4byte	0xce9
 2102 0d13 02       		.uleb128 0x2
 2103 0d14 09000000 		.4byte	.LASF161
 2104 0d18 16       		.byte	0x16
 2105 0d19 61       		.byte	0x61
 2106 0d1a 22       		.byte	0x22
 2107 0d1b 1F0D0000 		.4byte	0xd1f
 2108 0d1f 07       		.uleb128 0x7
 2109 0d20 87000000 		.4byte	.LASF162
 2110 0d24 60       		.byte	0x60
 2111 0d25 16       		.byte	0x16
 2112 0d26 7B       		.byte	0x7b
 2113 0d27 08       		.byte	0x8
 2114 0d28 950D0000 		.4byte	0xd95
 2115 0d2c 08       		.uleb128 0x8
 2116 0d2d 766D7400 		.ascii	"vmt\000"
 2117 0d31 16       		.byte	0x16
 2118 0d32 7D       		.byte	0x7d
 2119 0d33 21       		.byte	0x21
 2120 0d34 8F0E0000 		.4byte	0xe8f
 2121 0d38 00       		.byte	0
 2122 0d39 01       		.uleb128 0x1
 2123 0d3a 5F020000 		.4byte	.LASF163
 2124 0d3e 16       		.byte	0x16
 2125 0d3f 7E       		.byte	0x7e
 2126 0d40 03       		.byte	0x3
 2127 0d41 910A0000 		.4byte	0xa91
 2128 0d45 04       		.byte	0x4
 2129 0d46 01       		.uleb128 0x1
 2130 0d47 F0080000 		.4byte	.LASF37
 2131 0d4b 16       		.byte	0x16
 2132 0d4c 7E       		.byte	0x7e
 2133 0d4d 03       		.byte	0x3
 2134 0d4e 070D0000 		.4byte	0xd07
 2135 0d52 08       		.byte	0x8
 2136 0d53 01       		.uleb128 0x1
 2137 0d54 F5010000 		.4byte	.LASF164
 2138 0d58 16       		.byte	0x16
 2139 0d59 7E       		.byte	0x7e
 2140 0d5a 03       		.byte	0x3
 2141 0d5b D10C0000 		.4byte	0xcd1
 2142 0d5f 0C       		.byte	0xc
 2143 0d60 01       		.uleb128 0x1
 2144 0d61 33060000 		.4byte	.LASF165
 2145 0d65 16       		.byte	0x16
 2146 0d66 7E       		.byte	0x7e
 2147 0d67 03       		.byte	0x3
ARM GAS  C:\Users\DEVELO~1\AppData\Local\Temp\ccY3QrD9.s 			page 39


 2148 0d68 DD0C0000 		.4byte	0xcdd
 2149 0d6c 30       		.byte	0x30
 2150 0d6d 01       		.uleb128 0x1
 2151 0d6e FD040000 		.4byte	.LASF166
 2152 0d72 16       		.byte	0x16
 2153 0d73 7E       		.byte	0x7e
 2154 0d74 03       		.byte	0x3
 2155 0d75 940E0000 		.4byte	0xe94
 2156 0d79 54       		.byte	0x54
 2157 0d7a 01       		.uleb128 0x1
 2158 0d7b 23040000 		.4byte	.LASF167
 2159 0d7f 16       		.byte	0x16
 2160 0d80 7E       		.byte	0x7e
 2161 0d81 03       		.byte	0x3
 2162 0d82 E9000000 		.4byte	0xe9
 2163 0d86 58       		.byte	0x58
 2164 0d87 01       		.uleb128 0x1
 2165 0d88 34070000 		.4byte	.LASF168
 2166 0d8c 16       		.byte	0x16
 2167 0d8d 7E       		.byte	0x7e
 2168 0d8e 03       		.byte	0x3
 2169 0d8f C0000000 		.4byte	0xc0
 2170 0d93 5C       		.byte	0x5c
 2171 0d94 00       		.byte	0
 2172 0d95 12       		.uleb128 0x12
 2173 0d96 D2030000 		.4byte	.LASF169
 2174 0d9a 10       		.byte	0x10
 2175 0d9b 17       		.byte	0x17
 2176 0d9c 6002     		.2byte	0x260
 2177 0d9e 10       		.byte	0x10
 2178 0d9f DC0D0000 		.4byte	0xddc
 2179 0da3 05       		.uleb128 0x5
 2180 0da4 78010000 		.4byte	.LASF170
 2181 0da8 17       		.byte	0x17
 2182 0da9 6402     		.2byte	0x264
 2183 0dab 1D       		.byte	0x1d
 2184 0dac E9000000 		.4byte	0xe9
 2185 0db0 00       		.byte	0
 2186 0db1 06       		.uleb128 0x6
 2187 0db2 63723100 		.ascii	"cr1\000"
 2188 0db6 17       		.byte	0x17
 2189 0db7 6902     		.2byte	0x269
 2190 0db9 1D       		.byte	0x1d
 2191 0dba E9000000 		.4byte	0xe9
 2192 0dbe 04       		.byte	0x4
 2193 0dbf 06       		.uleb128 0x6
 2194 0dc0 63723200 		.ascii	"cr2\000"
 2195 0dc4 17       		.byte	0x17
 2196 0dc5 6D02     		.2byte	0x26d
 2197 0dc7 1D       		.byte	0x1d
 2198 0dc8 E9000000 		.4byte	0xe9
 2199 0dcc 08       		.byte	0x8
 2200 0dcd 06       		.uleb128 0x6
 2201 0dce 63723300 		.ascii	"cr3\000"
 2202 0dd2 17       		.byte	0x17
 2203 0dd3 7102     		.2byte	0x271
 2204 0dd5 1D       		.byte	0x1d
ARM GAS  C:\Users\DEVELO~1\AppData\Local\Temp\ccY3QrD9.s 			page 40


 2205 0dd6 E9000000 		.4byte	0xe9
 2206 0dda 0C       		.byte	0xc
 2207 0ddb 00       		.byte	0
 2208 0ddc 15       		.uleb128 0x15
 2209 0ddd 3A020000 		.4byte	.LASF171
 2210 0de1 17       		.byte	0x17
 2211 0de2 7202     		.2byte	0x272
 2212 0de4 950D0000 		.4byte	0xd95
 2213 0de8 0F       		.uleb128 0xf
 2214 0de9 DC0D0000 		.4byte	0xddc
 2215 0ded 1D       		.uleb128 0x1d
 2216 0dee 53443100 		.ascii	"SD1\000"
 2217 0df2 17       		.byte	0x17
 2218 0df3 9002     		.2byte	0x290
 2219 0df5 15       		.byte	0x15
 2220 0df6 130D0000 		.4byte	0xd13
 2221 0dfa 07       		.uleb128 0x7
 2222 0dfb 6D090000 		.4byte	.LASF172
 2223 0dff 28       		.byte	0x28
 2224 0e00 16       		.byte	0x16
 2225 0e01 70       		.byte	0x70
 2226 0e02 08       		.byte	0x8
 2227 0e03 8A0E0000 		.4byte	0xe8a
 2228 0e07 01       		.uleb128 0x1
 2229 0e08 5F050000 		.4byte	.LASF140
 2230 0e0c 16       		.byte	0x16
 2231 0e0d 71       		.byte	0x71
 2232 0e0e 03       		.byte	0x3
 2233 0e0f 2D000000 		.4byte	0x2d
 2234 0e13 00       		.byte	0
 2235 0e14 01       		.uleb128 0x1
 2236 0e15 23050000 		.4byte	.LASF141
 2237 0e19 16       		.byte	0x16
 2238 0e1a 71       		.byte	0x71
 2239 0e1b 03       		.byte	0x3
 2240 0e1c 1B0B0000 		.4byte	0xb1b
 2241 0e20 04       		.byte	0x4
 2242 0e21 01       		.uleb128 0x1
 2243 0e22 DF070000 		.4byte	.LASF142
 2244 0e26 16       		.byte	0x16
 2245 0e27 71       		.byte	0x71
 2246 0e28 03       		.byte	0x3
 2247 0e29 390B0000 		.4byte	0xb39
 2248 0e2d 08       		.byte	0x8
 2249 0e2e 08       		.uleb128 0x8
 2250 0e2f 70757400 		.ascii	"put\000"
 2251 0e33 16       		.byte	0x16
 2252 0e34 71       		.byte	0x71
 2253 0e35 03       		.byte	0x3
 2254 0e36 520B0000 		.4byte	0xb52
 2255 0e3a 0C       		.byte	0xc
 2256 0e3b 08       		.uleb128 0x8
 2257 0e3c 67657400 		.ascii	"get\000"
 2258 0e40 16       		.byte	0x16
 2259 0e41 71       		.byte	0x71
 2260 0e42 03       		.byte	0x3
 2261 0e43 660B0000 		.4byte	0xb66
ARM GAS  C:\Users\DEVELO~1\AppData\Local\Temp\ccY3QrD9.s 			page 41


 2262 0e47 10       		.byte	0x10
 2263 0e48 01       		.uleb128 0x1
 2264 0e49 81030000 		.4byte	.LASF173
 2265 0e4d 16       		.byte	0x16
 2266 0e4e 71       		.byte	0x71
 2267 0e4f 03       		.byte	0x3
 2268 0e50 AC0B0000 		.4byte	0xbac
 2269 0e54 14       		.byte	0x14
 2270 0e55 01       		.uleb128 0x1
 2271 0e56 F8070000 		.4byte	.LASF174
 2272 0e5a 16       		.byte	0x16
 2273 0e5b 71       		.byte	0x71
 2274 0e5c 03       		.byte	0x3
 2275 0e5d C50B0000 		.4byte	0xbc5
 2276 0e61 18       		.byte	0x18
 2277 0e62 01       		.uleb128 0x1
 2278 0e63 7E010000 		.4byte	.LASF175
 2279 0e67 16       		.byte	0x16
 2280 0e68 71       		.byte	0x71
 2281 0e69 03       		.byte	0x3
 2282 0e6a E80B0000 		.4byte	0xbe8
 2283 0e6e 1C       		.byte	0x1c
 2284 0e6f 01       		.uleb128 0x1
 2285 0e70 4E050000 		.4byte	.LASF176
 2286 0e74 16       		.byte	0x16
 2287 0e75 71       		.byte	0x71
 2288 0e76 03       		.byte	0x3
 2289 0e77 0B0C0000 		.4byte	0xc0b
 2290 0e7b 20       		.byte	0x20
 2291 0e7c 08       		.uleb128 0x8
 2292 0e7d 63746C00 		.ascii	"ctl\000"
 2293 0e81 16       		.byte	0x16
 2294 0e82 71       		.byte	0x71
 2295 0e83 03       		.byte	0x3
 2296 0e84 290C0000 		.4byte	0xc29
 2297 0e88 24       		.byte	0x24
 2298 0e89 00       		.byte	0
 2299 0e8a 0F       		.uleb128 0xf
 2300 0e8b FA0D0000 		.4byte	0xdfa
 2301 0e8f 04       		.uleb128 0x4
 2302 0e90 8A0E0000 		.4byte	0xe8a
 2303 0e94 04       		.uleb128 0x4
 2304 0e95 E0060000 		.4byte	0x6e0
 2305 0e99 1F       		.uleb128 0x1f
 2306 0e9a 66000000 		.4byte	0x66
 2307 0e9e 19       		.byte	0x19
 2308 0e9f 11       		.byte	0x11
 2309 0ea0 BD0E0000 		.4byte	0xebd
 2310 0ea4 0E       		.uleb128 0xe
 2311 0ea5 1C020000 		.4byte	.LASF177
 2312 0ea9 00       		.byte	0
 2313 0eaa 0E       		.uleb128 0xe
 2314 0eab F2030000 		.4byte	.LASF178
 2315 0eaf 01       		.byte	0x1
 2316 0eb0 0E       		.uleb128 0xe
 2317 0eb1 15030000 		.4byte	.LASF179
 2318 0eb5 02       		.byte	0x2
ARM GAS  C:\Users\DEVELO~1\AppData\Local\Temp\ccY3QrD9.s 			page 42


 2319 0eb6 0E       		.uleb128 0xe
 2320 0eb7 68070000 		.4byte	.LASF180
 2321 0ebb 03       		.byte	0x3
 2322 0ebc 00       		.byte	0
 2323 0ebd 02       		.uleb128 0x2
 2324 0ebe 09010000 		.4byte	.LASF181
 2325 0ec2 19       		.byte	0x19
 2326 0ec3 16       		.byte	0x16
 2327 0ec4 03       		.byte	0x3
 2328 0ec5 990E0000 		.4byte	0xe99
 2329 0ec9 16       		.uleb128 0x16
 2330 0eca A5020000 		.4byte	.LASF182
 2331 0ece 06       		.byte	0x6
 2332 0ecf 1A       		.byte	0x1a
 2333 0ed0 F5000000 		.4byte	0xf5
 2334 0ed4 05       		.uleb128 0x5
 2335 0ed5 03       		.byte	0x3
 2336 0ed6 00000000 		.4byte	audio_dma_half_count
 2337 0eda 16       		.uleb128 0x16
 2338 0edb 47080000 		.4byte	.LASF183
 2339 0edf 07       		.byte	0x7
 2340 0ee0 1A       		.byte	0x1a
 2341 0ee1 F5000000 		.4byte	0xf5
 2342 0ee5 05       		.uleb128 0x5
 2343 0ee6 03       		.byte	0x3
 2344 0ee7 00000000 		.4byte	audio_dma_full_count
 2345 0eeb 16       		.uleb128 0x16
 2346 0eec 3F050000 		.4byte	.LASF184
 2347 0ef0 13       		.byte	0x13
 2348 0ef1 1B       		.byte	0x1b
 2349 0ef2 E80D0000 		.4byte	0xde8
 2350 0ef6 05       		.uleb128 0x5
 2351 0ef7 03       		.byte	0x3
 2352 0ef8 00000000 		.4byte	uart_cfg
 2353 0efc 1B       		.uleb128 0x1b
 2354 0efd 17010000 		.4byte	0x117
 2355 0f01 0C0F0000 		.4byte	0xf0c
 2356 0f05 1C       		.uleb128 0x1c
 2357 0f06 3E000000 		.4byte	0x3e
 2358 0f0a 5D       		.byte	0x5d
 2359 0f0b 00       		.byte	0
 2360 0f0c 16       		.uleb128 0x16
 2361 0f0d C9070000 		.4byte	.LASF185
 2362 0f11 29       		.byte	0x29
 2363 0f12 08       		.byte	0x8
 2364 0f13 FC0E0000 		.4byte	0xefc
 2365 0f17 05       		.uleb128 0x5
 2366 0f18 03       		.byte	0x3
 2367 0f19 00000000 		.4byte	logThreadWA
 2368 0f1d 2E       		.uleb128 0x2e
 2369 0f1e 9E070000 		.4byte	.LASF204
 2370 0f22 19       		.byte	0x19
 2371 0f23 1B       		.byte	0x1b
 2372 0f24 13       		.byte	0x13
 2373 0f25 BD0E0000 		.4byte	0xebd
 2374 0f29 2F       		.uleb128 0x2f
 2375 0f2a E5080000 		.4byte	.LASF205
ARM GAS  C:\Users\DEVELO~1\AppData\Local\Temp\ccY3QrD9.s 			page 43


 2376 0f2e 12       		.byte	0x12
 2377 0f2f 4201     		.2byte	0x142
 2378 0f31 08       		.byte	0x8
 2379 0f32 3C0F0000 		.4byte	0xf3c
 2380 0f36 03       		.uleb128 0x3
 2381 0f37 94030000 		.4byte	0x394
 2382 0f3b 00       		.byte	0
 2383 0f3c 20       		.uleb128 0x20
 2384 0f3d CA050000 		.4byte	.LASF188
 2385 0f41 12       		.byte	0x12
 2386 0f42 2C01     		.2byte	0x12c
 2387 0f44 0D       		.byte	0xd
 2388 0f45 C1040000 		.4byte	0x4c1
 2389 0f49 670F0000 		.4byte	0xf67
 2390 0f4d 03       		.uleb128 0x3
 2391 0f4e C6040000 		.4byte	0x4c6
 2392 0f52 03       		.uleb128 0x3
 2393 0f53 2D000000 		.4byte	0x2d
 2394 0f57 03       		.uleb128 0x3
 2395 0f58 47010000 		.4byte	0x147
 2396 0f5c 03       		.uleb128 0x3
 2397 0f5d E9090000 		.4byte	0x9e9
 2398 0f61 03       		.uleb128 0x3
 2399 0f62 C6040000 		.4byte	0x4c6
 2400 0f66 00       		.byte	0
 2401 0f67 21       		.uleb128 0x21
 2402 0f68 29080000 		.4byte	.LASF186
 2403 0f6c 19       		.byte	0x19
 2404 0f6d 21       		.uleb128 0x21
 2405 0f6e 69060000 		.4byte	.LASF187
 2406 0f72 18       		.byte	0x18
 2407 0f73 30       		.uleb128 0x30
 2408 0f74 1A040000 		.4byte	.LASF189
 2409 0f78 1A       		.byte	0x1a
 2410 0f79 2B       		.byte	0x2b
 2411 0f7a 07       		.byte	0x7
 2412 0f7b 26000000 		.4byte	0x26
 2413 0f7f 8F0F0000 		.4byte	0xf8f
 2414 0f83 03       		.uleb128 0x3
 2415 0f84 8F0F0000 		.4byte	0xf8f
 2416 0f88 03       		.uleb128 0x3
 2417 0f89 66030000 		.4byte	0x366
 2418 0f8d 31       		.uleb128 0x31
 2419 0f8e 00       		.byte	0
 2420 0f8f 04       		.uleb128 0x4
 2421 0f90 870B0000 		.4byte	0xb87
 2422 0f94 20       		.uleb128 0x20
 2423 0f95 1B000000 		.4byte	.LASF190
 2424 0f99 16       		.byte	0x16
 2425 0f9a 8601     		.2byte	0x186
 2426 0f9c 09       		.byte	0x9
 2427 0f9d 53010000 		.4byte	0x153
 2428 0fa1 B00F0000 		.4byte	0xfb0
 2429 0fa5 03       		.uleb128 0x3
 2430 0fa6 B00F0000 		.4byte	0xfb0
 2431 0faa 03       		.uleb128 0x3
 2432 0fab B50F0000 		.4byte	0xfb5
ARM GAS  C:\Users\DEVELO~1\AppData\Local\Temp\ccY3QrD9.s 			page 44


 2433 0faf 00       		.byte	0
 2434 0fb0 04       		.uleb128 0x4
 2435 0fb1 130D0000 		.4byte	0xd13
 2436 0fb5 04       		.uleb128 0x4
 2437 0fb6 E80D0000 		.4byte	0xde8
 2438 0fba 22       		.uleb128 0x22
 2439 0fbb 5E040000 		.4byte	.LASF191
 2440 0fbf 18       		.byte	0x18
 2441 0fc0 4E01     		.2byte	0x14e
 2442 0fc2 22       		.uleb128 0x22
 2443 0fc3 BB070000 		.4byte	.LASF192
 2444 0fc7 1B       		.byte	0x1b
 2445 0fc8 0101     		.2byte	0x101
 2446 0fca 32       		.uleb128 0x32
 2447 0fcb 88090000 		.4byte	.LASF206
 2448 0fcf 01       		.byte	0x1
 2449 0fd0 43       		.byte	0x43
 2450 0fd1 05       		.byte	0x5
 2451 0fd2 26000000 		.4byte	0x26
 2452 0fd6 00000000 		.4byte	.LFB436
 2453 0fda 54000000 		.4byte	.LFE436-.LFB436
 2454 0fde 01       		.uleb128 0x1
 2455 0fdf 9C       		.byte	0x9c
 2456 0fe0 87100000 		.4byte	0x1087
 2457 0fe4 13       		.uleb128 0x13
 2458 0fe5 0A000000 		.4byte	.LVL14
 2459 0fe9 C20F0000 		.4byte	0xfc2
 2460 0fed 13       		.uleb128 0x13
 2461 0fee 0E000000 		.4byte	.LVL15
 2462 0ff2 BA0F0000 		.4byte	0xfba
 2463 0ff6 17       		.uleb128 0x17
 2464 0ff7 16000000 		.4byte	.LVL16
 2465 0ffb 940F0000 		.4byte	0xf94
 2466 0fff 13100000 		.4byte	0x1013
 2467 1003 09       		.uleb128 0x9
 2468 1004 01       		.uleb128 0x1
 2469 1005 50       		.byte	0x50
 2470 1006 02       		.uleb128 0x2
 2471 1007 74       		.byte	0x74
 2472 1008 00       		.sleb128 0
 2473 1009 09       		.uleb128 0x9
 2474 100a 01       		.uleb128 0x1
 2475 100b 51       		.byte	0x51
 2476 100c 05       		.uleb128 0x5
 2477 100d 03       		.byte	0x3
 2478 100e 00000000 		.4byte	.LANCHOR3
 2479 1012 00       		.byte	0
 2480 1013 17       		.uleb128 0x17
 2481 1014 1E000000 		.4byte	.LVL17
 2482 1018 730F0000 		.4byte	0xf73
 2483 101c 30100000 		.4byte	0x1030
 2484 1020 09       		.uleb128 0x9
 2485 1021 01       		.uleb128 0x1
 2486 1022 50       		.byte	0x50
 2487 1023 02       		.uleb128 0x2
 2488 1024 74       		.byte	0x74
 2489 1025 00       		.sleb128 0
ARM GAS  C:\Users\DEVELO~1\AppData\Local\Temp\ccY3QrD9.s 			page 45


 2490 1026 09       		.uleb128 0x9
 2491 1027 01       		.uleb128 0x1
 2492 1028 51       		.byte	0x51
 2493 1029 05       		.uleb128 0x5
 2494 102a 03       		.byte	0x3
 2495 102b 00000000 		.4byte	.LC3
 2496 102f 00       		.byte	0
 2497 1030 13       		.uleb128 0x13
 2498 1031 22000000 		.4byte	.LVL18
 2499 1035 6D0F0000 		.4byte	0xf6d
 2500 1039 13       		.uleb128 0x13
 2501 103a 26000000 		.4byte	.LVL19
 2502 103e 670F0000 		.4byte	0xf67
 2503 1042 17       		.uleb128 0x17
 2504 1043 36000000 		.4byte	.LVL20
 2505 1047 3C0F0000 		.4byte	0xf3c
 2506 104b 75100000 		.4byte	0x1075
 2507 104f 09       		.uleb128 0x9
 2508 1050 01       		.uleb128 0x1
 2509 1051 50       		.byte	0x50
 2510 1052 05       		.uleb128 0x5
 2511 1053 03       		.byte	0x3
 2512 1054 00000000 		.4byte	.LANCHOR4
 2513 1058 09       		.uleb128 0x9
 2514 1059 01       		.uleb128 0x1
 2515 105a 51       		.byte	0x51
 2516 105b 03       		.uleb128 0x3
 2517 105c 0A       		.byte	0xa
 2518 105d F002     		.2byte	0x2f0
 2519 105f 09       		.uleb128 0x9
 2520 1060 01       		.uleb128 0x1
 2521 1061 52       		.byte	0x52
 2522 1062 01       		.uleb128 0x1
 2523 1063 32       		.byte	0x32
 2524 1064 09       		.uleb128 0x9
 2525 1065 01       		.uleb128 0x1
 2526 1066 53       		.byte	0x53
 2527 1067 05       		.uleb128 0x5
 2528 1068 03       		.byte	0x3
 2529 1069 00000000 		.4byte	logThread
 2530 106d 09       		.uleb128 0x9
 2531 106e 02       		.uleb128 0x2
 2532 106f 7D       		.byte	0x7d
 2533 1070 00       		.sleb128 0
 2534 1071 02       		.uleb128 0x2
 2535 1072 74       		.byte	0x74
 2536 1073 00       		.sleb128 0
 2537 1074 00       		.byte	0
 2538 1075 23       		.uleb128 0x23
 2539 1076 3E000000 		.4byte	.LVL21
 2540 107a 290F0000 		.4byte	0xf29
 2541 107e 09       		.uleb128 0x9
 2542 107f 01       		.uleb128 0x1
 2543 1080 50       		.byte	0x50
 2544 1081 03       		.uleb128 0x3
 2545 1082 0A       		.byte	0xa
 2546 1083 50C3     		.2byte	0xc350
ARM GAS  C:\Users\DEVELO~1\AppData\Local\Temp\ccY3QrD9.s 			page 46


 2547 1085 00       		.byte	0
 2548 1086 00       		.byte	0
 2549 1087 33       		.uleb128 0x33
 2550 1088 78070000 		.4byte	.LASF207
 2551 108c 01       		.byte	0x1
 2552 108d 2A       		.byte	0x2a
 2553 108e 08       		.byte	0x8
 2554 108f 00000000 		.4byte	.LFB435
 2555 1093 74000000 		.4byte	.LFE435-.LFB435
 2556 1097 01       		.uleb128 0x1
 2557 1098 9C       		.byte	0x9c
 2558 1099 BC110000 		.4byte	0x11bc
 2559 109d 34       		.uleb128 0x34
 2560 109e 61726700 		.ascii	"arg\000"
 2561 10a2 01       		.byte	0x1
 2562 10a3 2A       		.byte	0x2a
 2563 10a4 08       		.byte	0x8
 2564 10a5 C6040000 		.4byte	0x4c6
 2565 10a9 10000000 		.4byte	.LLST0
 2566 10ad 0C000000 		.4byte	.LVUS0
 2567 10b1 35       		.uleb128 0x35
 2568 10b2 63687000 		.ascii	"chp\000"
 2569 10b6 01       		.byte	0x1
 2570 10b7 2B       		.byte	0x2b
 2571 10b8 19       		.byte	0x19
 2572 10b9 8F0F0000 		.4byte	0xf8f
 2573 10bd 24000000 		.4byte	.LLST1
 2574 10c1 20000000 		.4byte	.LVUS1
 2575 10c5 11       		.uleb128 0x11
 2576 10c6 04090000 		.4byte	.LASF193
 2577 10ca 2C       		.byte	0x2c
 2578 10cb 0C       		.byte	0xc
 2579 10cc E9000000 		.4byte	0xe9
 2580 10d0 3A000000 		.4byte	.LLST2
 2581 10d4 34000000 		.4byte	.LVUS2
 2582 10d8 11       		.uleb128 0x11
 2583 10d9 2D090000 		.4byte	.LASF194
 2584 10dd 2D       		.byte	0x2d
 2585 10de 0C       		.byte	0xc
 2586 10df E9000000 		.4byte	0xe9
 2587 10e3 56000000 		.4byte	.LLST3
 2588 10e7 50000000 		.4byte	.LVUS3
 2589 10eb 36       		.uleb128 0x36
 2590 10ec 21000000 		.4byte	.LLRL6
 2591 10f0 9C110000 		.4byte	0x119c
 2592 10f4 11       		.uleb128 0x11
 2593 10f5 83020000 		.4byte	.LASF195
 2594 10f9 34       		.byte	0x34
 2595 10fa 0E       		.byte	0xe
 2596 10fb E9000000 		.4byte	0xe9
 2597 10ff 6E000000 		.4byte	.LLST7
 2598 1103 6C000000 		.4byte	.LVUS7
 2599 1107 11       		.uleb128 0x11
 2600 1108 16000000 		.4byte	.LASF196
 2601 110c 35       		.byte	0x35
 2602 110d 0E       		.byte	0xe
 2603 110e E9000000 		.4byte	0xe9
ARM GAS  C:\Users\DEVELO~1\AppData\Local\Temp\ccY3QrD9.s 			page 47


 2604 1112 79000000 		.4byte	.LLST8
 2605 1116 77000000 		.4byte	.LVUS8
 2606 111a 11       		.uleb128 0x11
 2607 111b A8030000 		.4byte	.LASF197
 2608 111f 36       		.byte	0x36
 2609 1120 0E       		.byte	0xe
 2610 1121 E9000000 		.4byte	0xe9
 2611 1125 84000000 		.4byte	.LLST9
 2612 1129 82000000 		.4byte	.LVUS9
 2613 112d 11       		.uleb128 0x11
 2614 112e 37090000 		.4byte	.LASF198
 2615 1132 37       		.byte	0x37
 2616 1133 0E       		.byte	0xe
 2617 1134 E9000000 		.4byte	0xe9
 2618 1138 8F000000 		.4byte	.LLST10
 2619 113c 8D000000 		.4byte	.LVUS10
 2620 1140 37       		.uleb128 0x37
 2621 1141 BC110000 		.4byte	0x11bc
 2622 1145 40000000 		.4byte	.LBI17
 2623 1149 00       		.byte	.LVU32
 2624 114a 40000000 		.4byte	.LBB17
 2625 114e 08000000 		.4byte	.LBE17-.LBB17
 2626 1152 01       		.byte	0x1
 2627 1153 3B       		.byte	0x3b
 2628 1154 05       		.byte	0x5
 2629 1155 67110000 		.4byte	0x1167
 2630 1159 24       		.uleb128 0x24
 2631 115a CD110000 		.4byte	0x11cd
 2632 115e 9A000000 		.4byte	.LLST11
 2633 1162 98000000 		.4byte	.LVUS11
 2634 1166 00       		.byte	0
 2635 1167 17       		.uleb128 0x17
 2636 1168 28000000 		.4byte	.LVL3
 2637 116c 290F0000 		.4byte	0xf29
 2638 1170 7C110000 		.4byte	0x117c
 2639 1174 09       		.uleb128 0x9
 2640 1175 01       		.uleb128 0x1
 2641 1176 50       		.byte	0x50
 2642 1177 03       		.uleb128 0x3
 2643 1178 0A       		.byte	0xa
 2644 1179 1027     		.2byte	0x2710
 2645 117b 00       		.byte	0
 2646 117c 13       		.uleb128 0x13
 2647 117d 34000000 		.4byte	.LVL6
 2648 1181 1D0F0000 		.4byte	0xf1d
 2649 1185 23       		.uleb128 0x23
 2650 1186 56000000 		.4byte	.LVL11
 2651 118a 730F0000 		.4byte	0xf73
 2652 118e 09       		.uleb128 0x9
 2653 118f 01       		.uleb128 0x1
 2654 1190 50       		.byte	0x50
 2655 1191 02       		.uleb128 0x2
 2656 1192 78       		.byte	0x78
 2657 1193 00       		.sleb128 0
 2658 1194 09       		.uleb128 0x9
 2659 1195 01       		.uleb128 0x1
 2660 1196 51       		.byte	0x51
ARM GAS  C:\Users\DEVELO~1\AppData\Local\Temp\ccY3QrD9.s 			page 48


 2661 1197 02       		.uleb128 0x2
 2662 1198 79       		.byte	0x79
 2663 1199 00       		.sleb128 0
 2664 119a 00       		.byte	0
 2665 119b 00       		.byte	0
 2666 119c 38       		.uleb128 0x38
 2667 119d 1C120000 		.4byte	0x121c
 2668 11a1 10000000 		.4byte	.LBI7
 2669 11a5 03       		.byte	.LVU12
 2670 11a6 0C000000 		.4byte	.LLRL4
 2671 11aa 01       		.byte	0x1
 2672 11ab 2F       		.byte	0x2f
 2673 11ac 03       		.byte	0x3
 2674 11ad 24       		.uleb128 0x24
 2675 11ae 25120000 		.4byte	0x1225
 2676 11b2 A5000000 		.4byte	.LLST5
 2677 11b6 A3000000 		.4byte	.LVUS5
 2678 11ba 00       		.byte	0
 2679 11bb 00       		.byte	0
 2680 11bc 39       		.uleb128 0x39
 2681 11bd 0E090000 		.4byte	.LASF208
 2682 11c1 01       		.byte	0x1
 2683 11c2 1A       		.byte	0x1a
 2684 11c3 14       		.byte	0x14
 2685 11c4 66030000 		.4byte	0x366
 2686 11c8 01       		.byte	0x1
 2687 11c9 DA110000 		.4byte	0x11da
 2688 11cd 25       		.uleb128 0x25
 2689 11ce F0080000 		.4byte	.LASF37
 2690 11d2 01       		.byte	0x1
 2691 11d3 1A       		.byte	0x1a
 2692 11d4 37       		.byte	0x37
 2693 11d5 BD0E0000 		.4byte	0xebd
 2694 11d9 00       		.byte	0
 2695 11da 26       		.uleb128 0x26
 2696 11db FE050000 		.4byte	.LASF199
 2697 11df 0E       		.byte	0xe
 2698 11e0 00000000 		.4byte	.LFB433
 2699 11e4 10000000 		.4byte	.LFE433-.LFB433
 2700 11e8 01       		.uleb128 0x1
 2701 11e9 9C       		.byte	0x9c
 2702 11ea FB110000 		.4byte	0x11fb
 2703 11ee 27       		.uleb128 0x27
 2704 11ef 83020000 		.4byte	.LASF195
 2705 11f3 0E       		.byte	0xe
 2706 11f4 C0000000 		.4byte	0xc0
 2707 11f8 01       		.uleb128 0x1
 2708 11f9 50       		.byte	0x50
 2709 11fa 00       		.byte	0
 2710 11fb 26       		.uleb128 0x26
 2711 11fc 5A010000 		.4byte	.LASF200
 2712 1200 09       		.byte	0x9
 2713 1201 00000000 		.4byte	.LFB432
 2714 1205 10000000 		.4byte	.LFE432-.LFB432
 2715 1209 01       		.uleb128 0x1
 2716 120a 9C       		.byte	0x9c
 2717 120b 1C120000 		.4byte	0x121c
ARM GAS  C:\Users\DEVELO~1\AppData\Local\Temp\ccY3QrD9.s 			page 49


 2718 120f 27       		.uleb128 0x27
 2719 1210 83020000 		.4byte	.LASF195
 2720 1214 09       		.byte	0x9
 2721 1215 C0000000 		.4byte	0xc0
 2722 1219 01       		.uleb128 0x1
 2723 121a 50       		.byte	0x50
 2724 121b 00       		.byte	0
 2725 121c 3A       		.uleb128 0x3a
 2726 121d 4D060000 		.4byte	.LASF209
 2727 1221 02       		.byte	0x2
 2728 1222 A5       		.byte	0xa5
 2729 1223 14       		.byte	0x14
 2730 1224 03       		.byte	0x3
 2731 1225 25       		.uleb128 0x25
 2732 1226 23000000 		.4byte	.LASF35
 2733 122a 02       		.byte	0x2
 2734 122b A5       		.byte	0xa5
 2735 122c 33       		.byte	0x33
 2736 122d 66030000 		.4byte	0x366
 2737 1231 00       		.byte	0
 2738 1232 00       		.byte	0
 2739              		.section	.debug_abbrev,"",%progbits
 2740              	.Ldebug_abbrev0:
 2741 0000 01       		.uleb128 0x1
 2742 0001 0D       		.uleb128 0xd
 2743 0002 00       		.byte	0
 2744 0003 03       		.uleb128 0x3
 2745 0004 0E       		.uleb128 0xe
 2746 0005 3A       		.uleb128 0x3a
 2747 0006 0B       		.uleb128 0xb
 2748 0007 3B       		.uleb128 0x3b
 2749 0008 0B       		.uleb128 0xb
 2750 0009 39       		.uleb128 0x39
 2751 000a 0B       		.uleb128 0xb
 2752 000b 49       		.uleb128 0x49
 2753 000c 13       		.uleb128 0x13
 2754 000d 38       		.uleb128 0x38
 2755 000e 0B       		.uleb128 0xb
 2756 000f 00       		.byte	0
 2757 0010 00       		.byte	0
 2758 0011 02       		.uleb128 0x2
 2759 0012 16       		.uleb128 0x16
 2760 0013 00       		.byte	0
 2761 0014 03       		.uleb128 0x3
 2762 0015 0E       		.uleb128 0xe
 2763 0016 3A       		.uleb128 0x3a
 2764 0017 0B       		.uleb128 0xb
 2765 0018 3B       		.uleb128 0x3b
 2766 0019 0B       		.uleb128 0xb
 2767 001a 39       		.uleb128 0x39
 2768 001b 0B       		.uleb128 0xb
 2769 001c 49       		.uleb128 0x49
 2770 001d 13       		.uleb128 0x13
 2771 001e 00       		.byte	0
 2772 001f 00       		.byte	0
 2773 0020 03       		.uleb128 0x3
 2774 0021 05       		.uleb128 0x5
ARM GAS  C:\Users\DEVELO~1\AppData\Local\Temp\ccY3QrD9.s 			page 50


 2775 0022 00       		.byte	0
 2776 0023 49       		.uleb128 0x49
 2777 0024 13       		.uleb128 0x13
 2778 0025 00       		.byte	0
 2779 0026 00       		.byte	0
 2780 0027 04       		.uleb128 0x4
 2781 0028 0F       		.uleb128 0xf
 2782 0029 00       		.byte	0
 2783 002a 0B       		.uleb128 0xb
 2784 002b 21       		.uleb128 0x21
 2785 002c 04       		.sleb128 4
 2786 002d 49       		.uleb128 0x49
 2787 002e 13       		.uleb128 0x13
 2788 002f 00       		.byte	0
 2789 0030 00       		.byte	0
 2790 0031 05       		.uleb128 0x5
 2791 0032 0D       		.uleb128 0xd
 2792 0033 00       		.byte	0
 2793 0034 03       		.uleb128 0x3
 2794 0035 0E       		.uleb128 0xe
 2795 0036 3A       		.uleb128 0x3a
 2796 0037 0B       		.uleb128 0xb
 2797 0038 3B       		.uleb128 0x3b
 2798 0039 05       		.uleb128 0x5
 2799 003a 39       		.uleb128 0x39
 2800 003b 0B       		.uleb128 0xb
 2801 003c 49       		.uleb128 0x49
 2802 003d 13       		.uleb128 0x13
 2803 003e 38       		.uleb128 0x38
 2804 003f 0B       		.uleb128 0xb
 2805 0040 00       		.byte	0
 2806 0041 00       		.byte	0
 2807 0042 06       		.uleb128 0x6
 2808 0043 0D       		.uleb128 0xd
 2809 0044 00       		.byte	0
 2810 0045 03       		.uleb128 0x3
 2811 0046 08       		.uleb128 0x8
 2812 0047 3A       		.uleb128 0x3a
 2813 0048 0B       		.uleb128 0xb
 2814 0049 3B       		.uleb128 0x3b
 2815 004a 05       		.uleb128 0x5
 2816 004b 39       		.uleb128 0x39
 2817 004c 0B       		.uleb128 0xb
 2818 004d 49       		.uleb128 0x49
 2819 004e 13       		.uleb128 0x13
 2820 004f 38       		.uleb128 0x38
 2821 0050 0B       		.uleb128 0xb
 2822 0051 00       		.byte	0
 2823 0052 00       		.byte	0
 2824 0053 07       		.uleb128 0x7
 2825 0054 13       		.uleb128 0x13
 2826 0055 01       		.byte	0x1
 2827 0056 03       		.uleb128 0x3
 2828 0057 0E       		.uleb128 0xe
 2829 0058 0B       		.uleb128 0xb
 2830 0059 0B       		.uleb128 0xb
 2831 005a 3A       		.uleb128 0x3a
ARM GAS  C:\Users\DEVELO~1\AppData\Local\Temp\ccY3QrD9.s 			page 51


 2832 005b 0B       		.uleb128 0xb
 2833 005c 3B       		.uleb128 0x3b
 2834 005d 0B       		.uleb128 0xb
 2835 005e 39       		.uleb128 0x39
 2836 005f 0B       		.uleb128 0xb
 2837 0060 01       		.uleb128 0x1
 2838 0061 13       		.uleb128 0x13
 2839 0062 00       		.byte	0
 2840 0063 00       		.byte	0
 2841 0064 08       		.uleb128 0x8
 2842 0065 0D       		.uleb128 0xd
 2843 0066 00       		.byte	0
 2844 0067 03       		.uleb128 0x3
 2845 0068 08       		.uleb128 0x8
 2846 0069 3A       		.uleb128 0x3a
 2847 006a 0B       		.uleb128 0xb
 2848 006b 3B       		.uleb128 0x3b
 2849 006c 0B       		.uleb128 0xb
 2850 006d 39       		.uleb128 0x39
 2851 006e 0B       		.uleb128 0xb
 2852 006f 49       		.uleb128 0x49
 2853 0070 13       		.uleb128 0x13
 2854 0071 38       		.uleb128 0x38
 2855 0072 0B       		.uleb128 0xb
 2856 0073 00       		.byte	0
 2857 0074 00       		.byte	0
 2858 0075 09       		.uleb128 0x9
 2859 0076 49       		.uleb128 0x49
 2860 0077 00       		.byte	0
 2861 0078 02       		.uleb128 0x2
 2862 0079 18       		.uleb128 0x18
 2863 007a 7E       		.uleb128 0x7e
 2864 007b 18       		.uleb128 0x18
 2865 007c 00       		.byte	0
 2866 007d 00       		.byte	0
 2867 007e 0A       		.uleb128 0xa
 2868 007f 24       		.uleb128 0x24
 2869 0080 00       		.byte	0
 2870 0081 0B       		.uleb128 0xb
 2871 0082 0B       		.uleb128 0xb
 2872 0083 3E       		.uleb128 0x3e
 2873 0084 0B       		.uleb128 0xb
 2874 0085 03       		.uleb128 0x3
 2875 0086 0E       		.uleb128 0xe
 2876 0087 00       		.byte	0
 2877 0088 00       		.byte	0
 2878 0089 0B       		.uleb128 0xb
 2879 008a 15       		.uleb128 0x15
 2880 008b 01       		.byte	0x1
 2881 008c 27       		.uleb128 0x27
 2882 008d 19       		.uleb128 0x19
 2883 008e 49       		.uleb128 0x49
 2884 008f 13       		.uleb128 0x13
 2885 0090 01       		.uleb128 0x1
 2886 0091 13       		.uleb128 0x13
 2887 0092 00       		.byte	0
 2888 0093 00       		.byte	0
ARM GAS  C:\Users\DEVELO~1\AppData\Local\Temp\ccY3QrD9.s 			page 52


 2889 0094 0C       		.uleb128 0xc
 2890 0095 13       		.uleb128 0x13
 2891 0096 01       		.byte	0x1
 2892 0097 0B       		.uleb128 0xb
 2893 0098 0B       		.uleb128 0xb
 2894 0099 3A       		.uleb128 0x3a
 2895 009a 0B       		.uleb128 0xb
 2896 009b 3B       		.uleb128 0x3b
 2897 009c 0B       		.uleb128 0xb
 2898 009d 39       		.uleb128 0x39
 2899 009e 0B       		.uleb128 0xb
 2900 009f 01       		.uleb128 0x1
 2901 00a0 13       		.uleb128 0x13
 2902 00a1 00       		.byte	0
 2903 00a2 00       		.byte	0
 2904 00a3 0D       		.uleb128 0xd
 2905 00a4 0D       		.uleb128 0xd
 2906 00a5 00       		.byte	0
 2907 00a6 03       		.uleb128 0x3
 2908 00a7 0E       		.uleb128 0xe
 2909 00a8 3A       		.uleb128 0x3a
 2910 00a9 0B       		.uleb128 0xb
 2911 00aa 3B       		.uleb128 0x3b
 2912 00ab 0B       		.uleb128 0xb
 2913 00ac 39       		.uleb128 0x39
 2914 00ad 0B       		.uleb128 0xb
 2915 00ae 49       		.uleb128 0x49
 2916 00af 13       		.uleb128 0x13
 2917 00b0 00       		.byte	0
 2918 00b1 00       		.byte	0
 2919 00b2 0E       		.uleb128 0xe
 2920 00b3 28       		.uleb128 0x28
 2921 00b4 00       		.byte	0
 2922 00b5 03       		.uleb128 0x3
 2923 00b6 0E       		.uleb128 0xe
 2924 00b7 1C       		.uleb128 0x1c
 2925 00b8 0B       		.uleb128 0xb
 2926 00b9 00       		.byte	0
 2927 00ba 00       		.byte	0
 2928 00bb 0F       		.uleb128 0xf
 2929 00bc 26       		.uleb128 0x26
 2930 00bd 00       		.byte	0
 2931 00be 49       		.uleb128 0x49
 2932 00bf 13       		.uleb128 0x13
 2933 00c0 00       		.byte	0
 2934 00c1 00       		.byte	0
 2935 00c2 10       		.uleb128 0x10
 2936 00c3 0D       		.uleb128 0xd
 2937 00c4 00       		.byte	0
 2938 00c5 03       		.uleb128 0x3
 2939 00c6 0E       		.uleb128 0xe
 2940 00c7 3A       		.uleb128 0x3a
 2941 00c8 21       		.uleb128 0x21
 2942 00c9 08       		.sleb128 8
 2943 00ca 3B       		.uleb128 0x3b
 2944 00cb 05       		.uleb128 0x5
 2945 00cc 39       		.uleb128 0x39
ARM GAS  C:\Users\DEVELO~1\AppData\Local\Temp\ccY3QrD9.s 			page 53


 2946 00cd 0B       		.uleb128 0xb
 2947 00ce 49       		.uleb128 0x49
 2948 00cf 13       		.uleb128 0x13
 2949 00d0 00       		.byte	0
 2950 00d1 00       		.byte	0
 2951 00d2 11       		.uleb128 0x11
 2952 00d3 34       		.uleb128 0x34
 2953 00d4 00       		.byte	0
 2954 00d5 03       		.uleb128 0x3
 2955 00d6 0E       		.uleb128 0xe
 2956 00d7 3A       		.uleb128 0x3a
 2957 00d8 21       		.uleb128 0x21
 2958 00d9 01       		.sleb128 1
 2959 00da 3B       		.uleb128 0x3b
 2960 00db 0B       		.uleb128 0xb
 2961 00dc 39       		.uleb128 0x39
 2962 00dd 0B       		.uleb128 0xb
 2963 00de 49       		.uleb128 0x49
 2964 00df 13       		.uleb128 0x13
 2965 00e0 02       		.uleb128 0x2
 2966 00e1 17       		.uleb128 0x17
 2967 00e2 B742     		.uleb128 0x2137
 2968 00e4 17       		.uleb128 0x17
 2969 00e5 00       		.byte	0
 2970 00e6 00       		.byte	0
 2971 00e7 12       		.uleb128 0x12
 2972 00e8 13       		.uleb128 0x13
 2973 00e9 01       		.byte	0x1
 2974 00ea 03       		.uleb128 0x3
 2975 00eb 0E       		.uleb128 0xe
 2976 00ec 0B       		.uleb128 0xb
 2977 00ed 0B       		.uleb128 0xb
 2978 00ee 3A       		.uleb128 0x3a
 2979 00ef 0B       		.uleb128 0xb
 2980 00f0 3B       		.uleb128 0x3b
 2981 00f1 05       		.uleb128 0x5
 2982 00f2 39       		.uleb128 0x39
 2983 00f3 0B       		.uleb128 0xb
 2984 00f4 01       		.uleb128 0x1
 2985 00f5 13       		.uleb128 0x13
 2986 00f6 00       		.byte	0
 2987 00f7 00       		.byte	0
 2988 00f8 13       		.uleb128 0x13
 2989 00f9 48       		.uleb128 0x48
 2990 00fa 00       		.byte	0
 2991 00fb 7D       		.uleb128 0x7d
 2992 00fc 01       		.uleb128 0x1
 2993 00fd 7F       		.uleb128 0x7f
 2994 00fe 13       		.uleb128 0x13
 2995 00ff 00       		.byte	0
 2996 0100 00       		.byte	0
 2997 0101 14       		.uleb128 0x14
 2998 0102 35       		.uleb128 0x35
 2999 0103 00       		.byte	0
 3000 0104 49       		.uleb128 0x49
 3001 0105 13       		.uleb128 0x13
 3002 0106 00       		.byte	0
ARM GAS  C:\Users\DEVELO~1\AppData\Local\Temp\ccY3QrD9.s 			page 54


 3003 0107 00       		.byte	0
 3004 0108 15       		.uleb128 0x15
 3005 0109 16       		.uleb128 0x16
 3006 010a 00       		.byte	0
 3007 010b 03       		.uleb128 0x3
 3008 010c 0E       		.uleb128 0xe
 3009 010d 3A       		.uleb128 0x3a
 3010 010e 0B       		.uleb128 0xb
 3011 010f 3B       		.uleb128 0x3b
 3012 0110 05       		.uleb128 0x5
 3013 0111 39       		.uleb128 0x39
 3014 0112 21       		.uleb128 0x21
 3015 0113 03       		.sleb128 3
 3016 0114 49       		.uleb128 0x49
 3017 0115 13       		.uleb128 0x13
 3018 0116 00       		.byte	0
 3019 0117 00       		.byte	0
 3020 0118 16       		.uleb128 0x16
 3021 0119 34       		.uleb128 0x34
 3022 011a 00       		.byte	0
 3023 011b 03       		.uleb128 0x3
 3024 011c 0E       		.uleb128 0xe
 3025 011d 3A       		.uleb128 0x3a
 3026 011e 21       		.uleb128 0x21
 3027 011f 01       		.sleb128 1
 3028 0120 3B       		.uleb128 0x3b
 3029 0121 0B       		.uleb128 0xb
 3030 0122 39       		.uleb128 0x39
 3031 0123 0B       		.uleb128 0xb
 3032 0124 49       		.uleb128 0x49
 3033 0125 13       		.uleb128 0x13
 3034 0126 02       		.uleb128 0x2
 3035 0127 18       		.uleb128 0x18
 3036 0128 00       		.byte	0
 3037 0129 00       		.byte	0
 3038 012a 17       		.uleb128 0x17
 3039 012b 48       		.uleb128 0x48
 3040 012c 01       		.byte	0x1
 3041 012d 7D       		.uleb128 0x7d
 3042 012e 01       		.uleb128 0x1
 3043 012f 7F       		.uleb128 0x7f
 3044 0130 13       		.uleb128 0x13
 3045 0131 01       		.uleb128 0x1
 3046 0132 13       		.uleb128 0x13
 3047 0133 00       		.byte	0
 3048 0134 00       		.byte	0
 3049 0135 18       		.uleb128 0x18
 3050 0136 17       		.uleb128 0x17
 3051 0137 01       		.byte	0x1
 3052 0138 0B       		.uleb128 0xb
 3053 0139 0B       		.uleb128 0xb
 3054 013a 3A       		.uleb128 0x3a
 3055 013b 0B       		.uleb128 0xb
 3056 013c 3B       		.uleb128 0x3b
 3057 013d 0B       		.uleb128 0xb
 3058 013e 39       		.uleb128 0x39
 3059 013f 21       		.uleb128 0x21
ARM GAS  C:\Users\DEVELO~1\AppData\Local\Temp\ccY3QrD9.s 			page 55


 3060 0140 03       		.sleb128 3
 3061 0141 01       		.uleb128 0x1
 3062 0142 13       		.uleb128 0x13
 3063 0143 00       		.byte	0
 3064 0144 00       		.byte	0
 3065 0145 19       		.uleb128 0x19
 3066 0146 0D       		.uleb128 0xd
 3067 0147 00       		.byte	0
 3068 0148 03       		.uleb128 0x3
 3069 0149 08       		.uleb128 0x8
 3070 014a 3A       		.uleb128 0x3a
 3071 014b 21       		.uleb128 0x21
 3072 014c 0D       		.sleb128 13
 3073 014d 3B       		.uleb128 0x3b
 3074 014e 0B       		.uleb128 0xb
 3075 014f 39       		.uleb128 0x39
 3076 0150 21       		.uleb128 0x21
 3077 0151 07       		.sleb128 7
 3078 0152 49       		.uleb128 0x49
 3079 0153 13       		.uleb128 0x13
 3080 0154 00       		.byte	0
 3081 0155 00       		.byte	0
 3082 0156 1A       		.uleb128 0x1a
 3083 0157 0D       		.uleb128 0xd
 3084 0158 00       		.byte	0
 3085 0159 03       		.uleb128 0x3
 3086 015a 0E       		.uleb128 0xe
 3087 015b 3A       		.uleb128 0x3a
 3088 015c 21       		.uleb128 0x21
 3089 015d 0D       		.sleb128 13
 3090 015e 3B       		.uleb128 0x3b
 3091 015f 0B       		.uleb128 0xb
 3092 0160 39       		.uleb128 0x39
 3093 0161 21       		.uleb128 0x21
 3094 0162 19       		.sleb128 25
 3095 0163 49       		.uleb128 0x49
 3096 0164 13       		.uleb128 0x13
 3097 0165 0D       		.uleb128 0xd
 3098 0166 0B       		.uleb128 0xb
 3099 0167 6B       		.uleb128 0x6b
 3100 0168 0B       		.uleb128 0xb
 3101 0169 00       		.byte	0
 3102 016a 00       		.byte	0
 3103 016b 1B       		.uleb128 0x1b
 3104 016c 01       		.uleb128 0x1
 3105 016d 01       		.byte	0x1
 3106 016e 49       		.uleb128 0x49
 3107 016f 13       		.uleb128 0x13
 3108 0170 01       		.uleb128 0x1
 3109 0171 13       		.uleb128 0x13
 3110 0172 00       		.byte	0
 3111 0173 00       		.byte	0
 3112 0174 1C       		.uleb128 0x1c
 3113 0175 21       		.uleb128 0x21
 3114 0176 00       		.byte	0
 3115 0177 49       		.uleb128 0x49
 3116 0178 13       		.uleb128 0x13
ARM GAS  C:\Users\DEVELO~1\AppData\Local\Temp\ccY3QrD9.s 			page 56


 3117 0179 2F       		.uleb128 0x2f
 3118 017a 0B       		.uleb128 0xb
 3119 017b 00       		.byte	0
 3120 017c 00       		.byte	0
 3121 017d 1D       		.uleb128 0x1d
 3122 017e 34       		.uleb128 0x34
 3123 017f 00       		.byte	0
 3124 0180 03       		.uleb128 0x3
 3125 0181 08       		.uleb128 0x8
 3126 0182 3A       		.uleb128 0x3a
 3127 0183 0B       		.uleb128 0xb
 3128 0184 3B       		.uleb128 0x3b
 3129 0185 05       		.uleb128 0x5
 3130 0186 39       		.uleb128 0x39
 3131 0187 0B       		.uleb128 0xb
 3132 0188 49       		.uleb128 0x49
 3133 0189 13       		.uleb128 0x13
 3134 018a 3F       		.uleb128 0x3f
 3135 018b 19       		.uleb128 0x19
 3136 018c 3C       		.uleb128 0x3c
 3137 018d 19       		.uleb128 0x19
 3138 018e 00       		.byte	0
 3139 018f 00       		.byte	0
 3140 0190 1E       		.uleb128 0x1e
 3141 0191 15       		.uleb128 0x15
 3142 0192 01       		.byte	0x1
 3143 0193 27       		.uleb128 0x27
 3144 0194 19       		.uleb128 0x19
 3145 0195 01       		.uleb128 0x1
 3146 0196 13       		.uleb128 0x13
 3147 0197 00       		.byte	0
 3148 0198 00       		.byte	0
 3149 0199 1F       		.uleb128 0x1f
 3150 019a 04       		.uleb128 0x4
 3151 019b 01       		.byte	0x1
 3152 019c 3E       		.uleb128 0x3e
 3153 019d 21       		.uleb128 0x21
 3154 019e 07       		.sleb128 7
 3155 019f 0B       		.uleb128 0xb
 3156 01a0 21       		.uleb128 0x21
 3157 01a1 01       		.sleb128 1
 3158 01a2 49       		.uleb128 0x49
 3159 01a3 13       		.uleb128 0x13
 3160 01a4 3A       		.uleb128 0x3a
 3161 01a5 0B       		.uleb128 0xb
 3162 01a6 3B       		.uleb128 0x3b
 3163 01a7 0B       		.uleb128 0xb
 3164 01a8 39       		.uleb128 0x39
 3165 01a9 21       		.uleb128 0x21
 3166 01aa 0E       		.sleb128 14
 3167 01ab 01       		.uleb128 0x1
 3168 01ac 13       		.uleb128 0x13
 3169 01ad 00       		.byte	0
 3170 01ae 00       		.byte	0
 3171 01af 20       		.uleb128 0x20
 3172 01b0 2E       		.uleb128 0x2e
 3173 01b1 01       		.byte	0x1
ARM GAS  C:\Users\DEVELO~1\AppData\Local\Temp\ccY3QrD9.s 			page 57


 3174 01b2 3F       		.uleb128 0x3f
 3175 01b3 19       		.uleb128 0x19
 3176 01b4 03       		.uleb128 0x3
 3177 01b5 0E       		.uleb128 0xe
 3178 01b6 3A       		.uleb128 0x3a
 3179 01b7 0B       		.uleb128 0xb
 3180 01b8 3B       		.uleb128 0x3b
 3181 01b9 05       		.uleb128 0x5
 3182 01ba 39       		.uleb128 0x39
 3183 01bb 0B       		.uleb128 0xb
 3184 01bc 27       		.uleb128 0x27
 3185 01bd 19       		.uleb128 0x19
 3186 01be 49       		.uleb128 0x49
 3187 01bf 13       		.uleb128 0x13
 3188 01c0 3C       		.uleb128 0x3c
 3189 01c1 19       		.uleb128 0x19
 3190 01c2 01       		.uleb128 0x1
 3191 01c3 13       		.uleb128 0x13
 3192 01c4 00       		.byte	0
 3193 01c5 00       		.byte	0
 3194 01c6 21       		.uleb128 0x21
 3195 01c7 2E       		.uleb128 0x2e
 3196 01c8 00       		.byte	0
 3197 01c9 3F       		.uleb128 0x3f
 3198 01ca 19       		.uleb128 0x19
 3199 01cb 03       		.uleb128 0x3
 3200 01cc 0E       		.uleb128 0xe
 3201 01cd 3A       		.uleb128 0x3a
 3202 01ce 21       		.uleb128 0x21
 3203 01cf 19       		.sleb128 25
 3204 01d0 3B       		.uleb128 0x3b
 3205 01d1 0B       		.uleb128 0xb
 3206 01d2 39       		.uleb128 0x39
 3207 01d3 21       		.uleb128 0x21
 3208 01d4 06       		.sleb128 6
 3209 01d5 27       		.uleb128 0x27
 3210 01d6 19       		.uleb128 0x19
 3211 01d7 3C       		.uleb128 0x3c
 3212 01d8 19       		.uleb128 0x19
 3213 01d9 00       		.byte	0
 3214 01da 00       		.byte	0
 3215 01db 22       		.uleb128 0x22
 3216 01dc 2E       		.uleb128 0x2e
 3217 01dd 00       		.byte	0
 3218 01de 3F       		.uleb128 0x3f
 3219 01df 19       		.uleb128 0x19
 3220 01e0 03       		.uleb128 0x3
 3221 01e1 0E       		.uleb128 0xe
 3222 01e2 3A       		.uleb128 0x3a
 3223 01e3 0B       		.uleb128 0xb
 3224 01e4 3B       		.uleb128 0x3b
 3225 01e5 05       		.uleb128 0x5
 3226 01e6 39       		.uleb128 0x39
 3227 01e7 21       		.uleb128 0x21
 3228 01e8 08       		.sleb128 8
 3229 01e9 27       		.uleb128 0x27
 3230 01ea 19       		.uleb128 0x19
ARM GAS  C:\Users\DEVELO~1\AppData\Local\Temp\ccY3QrD9.s 			page 58


 3231 01eb 3C       		.uleb128 0x3c
 3232 01ec 19       		.uleb128 0x19
 3233 01ed 00       		.byte	0
 3234 01ee 00       		.byte	0
 3235 01ef 23       		.uleb128 0x23
 3236 01f0 48       		.uleb128 0x48
 3237 01f1 01       		.byte	0x1
 3238 01f2 7D       		.uleb128 0x7d
 3239 01f3 01       		.uleb128 0x1
 3240 01f4 7F       		.uleb128 0x7f
 3241 01f5 13       		.uleb128 0x13
 3242 01f6 00       		.byte	0
 3243 01f7 00       		.byte	0
 3244 01f8 24       		.uleb128 0x24
 3245 01f9 05       		.uleb128 0x5
 3246 01fa 00       		.byte	0
 3247 01fb 31       		.uleb128 0x31
 3248 01fc 13       		.uleb128 0x13
 3249 01fd 02       		.uleb128 0x2
 3250 01fe 17       		.uleb128 0x17
 3251 01ff B742     		.uleb128 0x2137
 3252 0201 17       		.uleb128 0x17
 3253 0202 00       		.byte	0
 3254 0203 00       		.byte	0
 3255 0204 25       		.uleb128 0x25
 3256 0205 05       		.uleb128 0x5
 3257 0206 00       		.byte	0
 3258 0207 03       		.uleb128 0x3
 3259 0208 0E       		.uleb128 0xe
 3260 0209 3A       		.uleb128 0x3a
 3261 020a 0B       		.uleb128 0xb
 3262 020b 3B       		.uleb128 0x3b
 3263 020c 0B       		.uleb128 0xb
 3264 020d 39       		.uleb128 0x39
 3265 020e 0B       		.uleb128 0xb
 3266 020f 49       		.uleb128 0x49
 3267 0210 13       		.uleb128 0x13
 3268 0211 00       		.byte	0
 3269 0212 00       		.byte	0
 3270 0213 26       		.uleb128 0x26
 3271 0214 2E       		.uleb128 0x2e
 3272 0215 01       		.byte	0x1
 3273 0216 3F       		.uleb128 0x3f
 3274 0217 19       		.uleb128 0x19
 3275 0218 03       		.uleb128 0x3
 3276 0219 0E       		.uleb128 0xe
 3277 021a 3A       		.uleb128 0x3a
 3278 021b 21       		.uleb128 0x21
 3279 021c 01       		.sleb128 1
 3280 021d 3B       		.uleb128 0x3b
 3281 021e 0B       		.uleb128 0xb
 3282 021f 39       		.uleb128 0x39
 3283 0220 21       		.uleb128 0x21
 3284 0221 06       		.sleb128 6
 3285 0222 27       		.uleb128 0x27
 3286 0223 19       		.uleb128 0x19
 3287 0224 11       		.uleb128 0x11
ARM GAS  C:\Users\DEVELO~1\AppData\Local\Temp\ccY3QrD9.s 			page 59


 3288 0225 01       		.uleb128 0x1
 3289 0226 12       		.uleb128 0x12
 3290 0227 06       		.uleb128 0x6
 3291 0228 40       		.uleb128 0x40
 3292 0229 18       		.uleb128 0x18
 3293 022a 7A       		.uleb128 0x7a
 3294 022b 19       		.uleb128 0x19
 3295 022c 01       		.uleb128 0x1
 3296 022d 13       		.uleb128 0x13
 3297 022e 00       		.byte	0
 3298 022f 00       		.byte	0
 3299 0230 27       		.uleb128 0x27
 3300 0231 05       		.uleb128 0x5
 3301 0232 00       		.byte	0
 3302 0233 03       		.uleb128 0x3
 3303 0234 0E       		.uleb128 0xe
 3304 0235 3A       		.uleb128 0x3a
 3305 0236 21       		.uleb128 0x21
 3306 0237 01       		.sleb128 1
 3307 0238 3B       		.uleb128 0x3b
 3308 0239 0B       		.uleb128 0xb
 3309 023a 39       		.uleb128 0x39
 3310 023b 21       		.uleb128 0x21
 3311 023c 24       		.sleb128 36
 3312 023d 49       		.uleb128 0x49
 3313 023e 13       		.uleb128 0x13
 3314 023f 02       		.uleb128 0x2
 3315 0240 18       		.uleb128 0x18
 3316 0241 00       		.byte	0
 3317 0242 00       		.byte	0
 3318 0243 28       		.uleb128 0x28
 3319 0244 11       		.uleb128 0x11
 3320 0245 01       		.byte	0x1
 3321 0246 25       		.uleb128 0x25
 3322 0247 0E       		.uleb128 0xe
 3323 0248 13       		.uleb128 0x13
 3324 0249 0B       		.uleb128 0xb
 3325 024a 03       		.uleb128 0x3
 3326 024b 0E       		.uleb128 0xe
 3327 024c 1B       		.uleb128 0x1b
 3328 024d 0E       		.uleb128 0xe
 3329 024e 55       		.uleb128 0x55
 3330 024f 17       		.uleb128 0x17
 3331 0250 11       		.uleb128 0x11
 3332 0251 01       		.uleb128 0x1
 3333 0252 10       		.uleb128 0x10
 3334 0253 17       		.uleb128 0x17
 3335 0254 00       		.byte	0
 3336 0255 00       		.byte	0
 3337 0256 29       		.uleb128 0x29
 3338 0257 24       		.uleb128 0x24
 3339 0258 00       		.byte	0
 3340 0259 0B       		.uleb128 0xb
 3341 025a 0B       		.uleb128 0xb
 3342 025b 3E       		.uleb128 0x3e
 3343 025c 0B       		.uleb128 0xb
 3344 025d 03       		.uleb128 0x3
ARM GAS  C:\Users\DEVELO~1\AppData\Local\Temp\ccY3QrD9.s 			page 60


 3345 025e 08       		.uleb128 0x8
 3346 025f 00       		.byte	0
 3347 0260 00       		.byte	0
 3348 0261 2A       		.uleb128 0x2a
 3349 0262 13       		.uleb128 0x13
 3350 0263 01       		.byte	0x1
 3351 0264 03       		.uleb128 0x3
 3352 0265 0E       		.uleb128 0xe
 3353 0266 0B       		.uleb128 0xb
 3354 0267 05       		.uleb128 0x5
 3355 0268 3A       		.uleb128 0x3a
 3356 0269 0B       		.uleb128 0xb
 3357 026a 3B       		.uleb128 0x3b
 3358 026b 05       		.uleb128 0x5
 3359 026c 39       		.uleb128 0x39
 3360 026d 0B       		.uleb128 0xb
 3361 026e 01       		.uleb128 0x1
 3362 026f 13       		.uleb128 0x13
 3363 0270 00       		.byte	0
 3364 0271 00       		.byte	0
 3365 0272 2B       		.uleb128 0x2b
 3366 0273 0F       		.uleb128 0xf
 3367 0274 00       		.byte	0
 3368 0275 0B       		.uleb128 0xb
 3369 0276 0B       		.uleb128 0xb
 3370 0277 00       		.byte	0
 3371 0278 00       		.byte	0
 3372 0279 2C       		.uleb128 0x2c
 3373 027a 13       		.uleb128 0x13
 3374 027b 01       		.byte	0x1
 3375 027c 0B       		.uleb128 0xb
 3376 027d 05       		.uleb128 0x5
 3377 027e 3A       		.uleb128 0x3a
 3378 027f 0B       		.uleb128 0xb
 3379 0280 3B       		.uleb128 0x3b
 3380 0281 0B       		.uleb128 0xb
 3381 0282 39       		.uleb128 0x39
 3382 0283 0B       		.uleb128 0xb
 3383 0284 01       		.uleb128 0x1
 3384 0285 13       		.uleb128 0x13
 3385 0286 00       		.byte	0
 3386 0287 00       		.byte	0
 3387 0288 2D       		.uleb128 0x2d
 3388 0289 13       		.uleb128 0x13
 3389 028a 01       		.byte	0x1
 3390 028b 0B       		.uleb128 0xb
 3391 028c 0B       		.uleb128 0xb
 3392 028d 3A       		.uleb128 0x3a
 3393 028e 0B       		.uleb128 0xb
 3394 028f 3B       		.uleb128 0x3b
 3395 0290 05       		.uleb128 0x5
 3396 0291 39       		.uleb128 0x39
 3397 0292 0B       		.uleb128 0xb
 3398 0293 01       		.uleb128 0x1
 3399 0294 13       		.uleb128 0x13
 3400 0295 00       		.byte	0
 3401 0296 00       		.byte	0
ARM GAS  C:\Users\DEVELO~1\AppData\Local\Temp\ccY3QrD9.s 			page 61


 3402 0297 2E       		.uleb128 0x2e
 3403 0298 2E       		.uleb128 0x2e
 3404 0299 00       		.byte	0
 3405 029a 3F       		.uleb128 0x3f
 3406 029b 19       		.uleb128 0x19
 3407 029c 03       		.uleb128 0x3
 3408 029d 0E       		.uleb128 0xe
 3409 029e 3A       		.uleb128 0x3a
 3410 029f 0B       		.uleb128 0xb
 3411 02a0 3B       		.uleb128 0x3b
 3412 02a1 0B       		.uleb128 0xb
 3413 02a2 39       		.uleb128 0x39
 3414 02a3 0B       		.uleb128 0xb
 3415 02a4 27       		.uleb128 0x27
 3416 02a5 19       		.uleb128 0x19
 3417 02a6 49       		.uleb128 0x49
 3418 02a7 13       		.uleb128 0x13
 3419 02a8 3C       		.uleb128 0x3c
 3420 02a9 19       		.uleb128 0x19
 3421 02aa 00       		.byte	0
 3422 02ab 00       		.byte	0
 3423 02ac 2F       		.uleb128 0x2f
 3424 02ad 2E       		.uleb128 0x2e
 3425 02ae 01       		.byte	0x1
 3426 02af 3F       		.uleb128 0x3f
 3427 02b0 19       		.uleb128 0x19
 3428 02b1 03       		.uleb128 0x3
 3429 02b2 0E       		.uleb128 0xe
 3430 02b3 3A       		.uleb128 0x3a
 3431 02b4 0B       		.uleb128 0xb
 3432 02b5 3B       		.uleb128 0x3b
 3433 02b6 05       		.uleb128 0x5
 3434 02b7 39       		.uleb128 0x39
 3435 02b8 0B       		.uleb128 0xb
 3436 02b9 27       		.uleb128 0x27
 3437 02ba 19       		.uleb128 0x19
 3438 02bb 3C       		.uleb128 0x3c
 3439 02bc 19       		.uleb128 0x19
 3440 02bd 01       		.uleb128 0x1
 3441 02be 13       		.uleb128 0x13
 3442 02bf 00       		.byte	0
 3443 02c0 00       		.byte	0
 3444 02c1 30       		.uleb128 0x30
 3445 02c2 2E       		.uleb128 0x2e
 3446 02c3 01       		.byte	0x1
 3447 02c4 3F       		.uleb128 0x3f
 3448 02c5 19       		.uleb128 0x19
 3449 02c6 03       		.uleb128 0x3
 3450 02c7 0E       		.uleb128 0xe
 3451 02c8 3A       		.uleb128 0x3a
 3452 02c9 0B       		.uleb128 0xb
 3453 02ca 3B       		.uleb128 0x3b
 3454 02cb 0B       		.uleb128 0xb
 3455 02cc 39       		.uleb128 0x39
 3456 02cd 0B       		.uleb128 0xb
 3457 02ce 27       		.uleb128 0x27
 3458 02cf 19       		.uleb128 0x19
ARM GAS  C:\Users\DEVELO~1\AppData\Local\Temp\ccY3QrD9.s 			page 62


 3459 02d0 49       		.uleb128 0x49
 3460 02d1 13       		.uleb128 0x13
 3461 02d2 3C       		.uleb128 0x3c
 3462 02d3 19       		.uleb128 0x19
 3463 02d4 01       		.uleb128 0x1
 3464 02d5 13       		.uleb128 0x13
 3465 02d6 00       		.byte	0
 3466 02d7 00       		.byte	0
 3467 02d8 31       		.uleb128 0x31
 3468 02d9 18       		.uleb128 0x18
 3469 02da 00       		.byte	0
 3470 02db 00       		.byte	0
 3471 02dc 00       		.byte	0
 3472 02dd 32       		.uleb128 0x32
 3473 02de 2E       		.uleb128 0x2e
 3474 02df 01       		.byte	0x1
 3475 02e0 3F       		.uleb128 0x3f
 3476 02e1 19       		.uleb128 0x19
 3477 02e2 03       		.uleb128 0x3
 3478 02e3 0E       		.uleb128 0xe
 3479 02e4 3A       		.uleb128 0x3a
 3480 02e5 0B       		.uleb128 0xb
 3481 02e6 3B       		.uleb128 0x3b
 3482 02e7 0B       		.uleb128 0xb
 3483 02e8 39       		.uleb128 0x39
 3484 02e9 0B       		.uleb128 0xb
 3485 02ea 27       		.uleb128 0x27
 3486 02eb 19       		.uleb128 0x19
 3487 02ec 49       		.uleb128 0x49
 3488 02ed 13       		.uleb128 0x13
 3489 02ee 11       		.uleb128 0x11
 3490 02ef 01       		.uleb128 0x1
 3491 02f0 12       		.uleb128 0x12
 3492 02f1 06       		.uleb128 0x6
 3493 02f2 40       		.uleb128 0x40
 3494 02f3 18       		.uleb128 0x18
 3495 02f4 7A       		.uleb128 0x7a
 3496 02f5 19       		.uleb128 0x19
 3497 02f6 01       		.uleb128 0x1
 3498 02f7 13       		.uleb128 0x13
 3499 02f8 00       		.byte	0
 3500 02f9 00       		.byte	0
 3501 02fa 33       		.uleb128 0x33
 3502 02fb 2E       		.uleb128 0x2e
 3503 02fc 01       		.byte	0x1
 3504 02fd 03       		.uleb128 0x3
 3505 02fe 0E       		.uleb128 0xe
 3506 02ff 3A       		.uleb128 0x3a
 3507 0300 0B       		.uleb128 0xb
 3508 0301 3B       		.uleb128 0x3b
 3509 0302 0B       		.uleb128 0xb
 3510 0303 39       		.uleb128 0x39
 3511 0304 0B       		.uleb128 0xb
 3512 0305 27       		.uleb128 0x27
 3513 0306 19       		.uleb128 0x19
 3514 0307 11       		.uleb128 0x11
 3515 0308 01       		.uleb128 0x1
ARM GAS  C:\Users\DEVELO~1\AppData\Local\Temp\ccY3QrD9.s 			page 63


 3516 0309 12       		.uleb128 0x12
 3517 030a 06       		.uleb128 0x6
 3518 030b 40       		.uleb128 0x40
 3519 030c 18       		.uleb128 0x18
 3520 030d 7A       		.uleb128 0x7a
 3521 030e 19       		.uleb128 0x19
 3522 030f 01       		.uleb128 0x1
 3523 0310 13       		.uleb128 0x13
 3524 0311 00       		.byte	0
 3525 0312 00       		.byte	0
 3526 0313 34       		.uleb128 0x34
 3527 0314 05       		.uleb128 0x5
 3528 0315 00       		.byte	0
 3529 0316 03       		.uleb128 0x3
 3530 0317 08       		.uleb128 0x8
 3531 0318 3A       		.uleb128 0x3a
 3532 0319 0B       		.uleb128 0xb
 3533 031a 3B       		.uleb128 0x3b
 3534 031b 0B       		.uleb128 0xb
 3535 031c 39       		.uleb128 0x39
 3536 031d 0B       		.uleb128 0xb
 3537 031e 49       		.uleb128 0x49
 3538 031f 13       		.uleb128 0x13
 3539 0320 02       		.uleb128 0x2
 3540 0321 17       		.uleb128 0x17
 3541 0322 B742     		.uleb128 0x2137
 3542 0324 17       		.uleb128 0x17
 3543 0325 00       		.byte	0
 3544 0326 00       		.byte	0
 3545 0327 35       		.uleb128 0x35
 3546 0328 34       		.uleb128 0x34
 3547 0329 00       		.byte	0
 3548 032a 03       		.uleb128 0x3
 3549 032b 08       		.uleb128 0x8
 3550 032c 3A       		.uleb128 0x3a
 3551 032d 0B       		.uleb128 0xb
 3552 032e 3B       		.uleb128 0x3b
 3553 032f 0B       		.uleb128 0xb
 3554 0330 39       		.uleb128 0x39
 3555 0331 0B       		.uleb128 0xb
 3556 0332 49       		.uleb128 0x49
 3557 0333 13       		.uleb128 0x13
 3558 0334 02       		.uleb128 0x2
 3559 0335 17       		.uleb128 0x17
 3560 0336 B742     		.uleb128 0x2137
 3561 0338 17       		.uleb128 0x17
 3562 0339 00       		.byte	0
 3563 033a 00       		.byte	0
 3564 033b 36       		.uleb128 0x36
 3565 033c 0B       		.uleb128 0xb
 3566 033d 01       		.byte	0x1
 3567 033e 55       		.uleb128 0x55
 3568 033f 17       		.uleb128 0x17
 3569 0340 01       		.uleb128 0x1
 3570 0341 13       		.uleb128 0x13
 3571 0342 00       		.byte	0
 3572 0343 00       		.byte	0
ARM GAS  C:\Users\DEVELO~1\AppData\Local\Temp\ccY3QrD9.s 			page 64


 3573 0344 37       		.uleb128 0x37
 3574 0345 1D       		.uleb128 0x1d
 3575 0346 01       		.byte	0x1
 3576 0347 31       		.uleb128 0x31
 3577 0348 13       		.uleb128 0x13
 3578 0349 52       		.uleb128 0x52
 3579 034a 01       		.uleb128 0x1
 3580 034b B842     		.uleb128 0x2138
 3581 034d 0B       		.uleb128 0xb
 3582 034e 11       		.uleb128 0x11
 3583 034f 01       		.uleb128 0x1
 3584 0350 12       		.uleb128 0x12
 3585 0351 06       		.uleb128 0x6
 3586 0352 58       		.uleb128 0x58
 3587 0353 0B       		.uleb128 0xb
 3588 0354 59       		.uleb128 0x59
 3589 0355 0B       		.uleb128 0xb
 3590 0356 57       		.uleb128 0x57
 3591 0357 0B       		.uleb128 0xb
 3592 0358 01       		.uleb128 0x1
 3593 0359 13       		.uleb128 0x13
 3594 035a 00       		.byte	0
 3595 035b 00       		.byte	0
 3596 035c 38       		.uleb128 0x38
 3597 035d 1D       		.uleb128 0x1d
 3598 035e 01       		.byte	0x1
 3599 035f 31       		.uleb128 0x31
 3600 0360 13       		.uleb128 0x13
 3601 0361 52       		.uleb128 0x52
 3602 0362 01       		.uleb128 0x1
 3603 0363 B842     		.uleb128 0x2138
 3604 0365 0B       		.uleb128 0xb
 3605 0366 55       		.uleb128 0x55
 3606 0367 17       		.uleb128 0x17
 3607 0368 58       		.uleb128 0x58
 3608 0369 0B       		.uleb128 0xb
 3609 036a 59       		.uleb128 0x59
 3610 036b 0B       		.uleb128 0xb
 3611 036c 57       		.uleb128 0x57
 3612 036d 0B       		.uleb128 0xb
 3613 036e 00       		.byte	0
 3614 036f 00       		.byte	0
 3615 0370 39       		.uleb128 0x39
 3616 0371 2E       		.uleb128 0x2e
 3617 0372 01       		.byte	0x1
 3618 0373 03       		.uleb128 0x3
 3619 0374 0E       		.uleb128 0xe
 3620 0375 3A       		.uleb128 0x3a
 3621 0376 0B       		.uleb128 0xb
 3622 0377 3B       		.uleb128 0x3b
 3623 0378 0B       		.uleb128 0xb
 3624 0379 39       		.uleb128 0x39
 3625 037a 0B       		.uleb128 0xb
 3626 037b 27       		.uleb128 0x27
 3627 037c 19       		.uleb128 0x19
 3628 037d 49       		.uleb128 0x49
 3629 037e 13       		.uleb128 0x13
ARM GAS  C:\Users\DEVELO~1\AppData\Local\Temp\ccY3QrD9.s 			page 65


 3630 037f 20       		.uleb128 0x20
 3631 0380 0B       		.uleb128 0xb
 3632 0381 01       		.uleb128 0x1
 3633 0382 13       		.uleb128 0x13
 3634 0383 00       		.byte	0
 3635 0384 00       		.byte	0
 3636 0385 3A       		.uleb128 0x3a
 3637 0386 2E       		.uleb128 0x2e
 3638 0387 01       		.byte	0x1
 3639 0388 03       		.uleb128 0x3
 3640 0389 0E       		.uleb128 0xe
 3641 038a 3A       		.uleb128 0x3a
 3642 038b 0B       		.uleb128 0xb
 3643 038c 3B       		.uleb128 0x3b
 3644 038d 0B       		.uleb128 0xb
 3645 038e 39       		.uleb128 0x39
 3646 038f 0B       		.uleb128 0xb
 3647 0390 27       		.uleb128 0x27
 3648 0391 19       		.uleb128 0x19
 3649 0392 20       		.uleb128 0x20
 3650 0393 0B       		.uleb128 0xb
 3651 0394 00       		.byte	0
 3652 0395 00       		.byte	0
 3653 0396 00       		.byte	0
 3654              		.section	.debug_loclists,"",%progbits
 3655 0000 AF000000 		.4byte	.Ldebug_loc3-.Ldebug_loc2
 3656              	.Ldebug_loc2:
 3657 0004 0500     		.2byte	0x5
 3658 0006 04       		.byte	0x4
 3659 0007 00       		.byte	0
 3660 0008 00000000 		.4byte	0
 3661              	.Ldebug_loc0:
 3662              	.LVUS0:
 3663 000c 00       		.uleb128 0
 3664 000d 00       		.uleb128 .LVU17
 3665 000e 00       		.uleb128 .LVU17
 3666 000f 00       		.uleb128 0
 3667              	.LLST0:
 3668 0010 06       		.byte	0x6
 3669 0011 00000000 		.4byte	.LVL0
 3670 0015 04       		.byte	0x4
 3671 0016 00       		.uleb128 .LVL0-.LVL0
 3672 0017 20       		.uleb128 .LVL2-.LVL0
 3673 0018 01       		.uleb128 0x1
 3674 0019 50       		.byte	0x50
 3675 001a 04       		.byte	0x4
 3676 001b 20       		.uleb128 .LVL2-.LVL0
 3677 001c 74       		.uleb128 .LFE435-.LVL0
 3678 001d 01       		.uleb128 0x1
 3679 001e 58       		.byte	0x58
 3680 001f 00       		.byte	0
 3681              	.LVUS1:
 3682 0020 00       		.uleb128 .LVU9
 3683 0021 00       		.uleb128 .LVU17
 3684 0022 00       		.uleb128 .LVU17
 3685 0023 00       		.uleb128 0
 3686              	.LLST1:
ARM GAS  C:\Users\DEVELO~1\AppData\Local\Temp\ccY3QrD9.s 			page 66


 3687 0024 06       		.byte	0x6
 3688 0025 10000000 		.4byte	.LVL1
 3689 0029 04       		.byte	0x4
 3690 002a 00       		.uleb128 .LVL1-.LVL1
 3691 002b 10       		.uleb128 .LVL2-.LVL1
 3692 002c 01       		.uleb128 0x1
 3693 002d 50       		.byte	0x50
 3694 002e 04       		.byte	0x4
 3695 002f 10       		.uleb128 .LVL2-.LVL1
 3696 0030 64       		.uleb128 .LFE435-.LVL1
 3697 0031 01       		.uleb128 0x1
 3698 0032 58       		.byte	0x58
 3699 0033 00       		.byte	0
 3700              	.LVUS2:
 3701 0034 01       		.uleb128 .LVU10
 3702 0035 00       		.uleb128 .LVU17
 3703 0036 00       		.uleb128 .LVU17
 3704 0037 01       		.uleb128 .LVU30
 3705 0038 01       		.uleb128 .LVU30
 3706 0039 00       		.uleb128 0
 3707              	.LLST2:
 3708 003a 06       		.byte	0x6
 3709 003b 10000000 		.4byte	.LVL1
 3710 003f 04       		.byte	0x4
 3711 0040 00       		.uleb128 .LVL1-.LVL1
 3712 0041 10       		.uleb128 .LVL2-.LVL1
 3713 0042 02       		.uleb128 0x2
 3714 0043 30       		.byte	0x30
 3715 0044 9F       		.byte	0x9f
 3716 0045 04       		.byte	0x4
 3717 0046 10       		.uleb128 .LVL2-.LVL1
 3718 0047 2E       		.uleb128 .LVL8-.LVL1
 3719 0048 01       		.uleb128 0x1
 3720 0049 55       		.byte	0x55
 3721 004a 04       		.byte	0x4
 3722 004b 2E       		.uleb128 .LVL8-.LVL1
 3723 004c 64       		.uleb128 .LFE435-.LVL1
 3724 004d 01       		.uleb128 0x1
 3725 004e 56       		.byte	0x56
 3726 004f 00       		.byte	0
 3727              	.LVUS3:
 3728 0050 02       		.uleb128 .LVU11
 3729 0051 00       		.uleb128 .LVU17
 3730 0052 00       		.uleb128 .LVU17
 3731 0053 02       		.uleb128 .LVU31
 3732 0054 02       		.uleb128 .LVU31
 3733 0055 00       		.uleb128 0
 3734              	.LLST3:
 3735 0056 06       		.byte	0x6
 3736 0057 10000000 		.4byte	.LVL1
 3737 005b 04       		.byte	0x4
 3738 005c 00       		.uleb128 .LVL1-.LVL1
 3739 005d 10       		.uleb128 .LVL2-.LVL1
 3740 005e 02       		.uleb128 0x2
 3741 005f 30       		.byte	0x30
 3742 0060 9F       		.byte	0x9f
 3743 0061 04       		.byte	0x4
ARM GAS  C:\Users\DEVELO~1\AppData\Local\Temp\ccY3QrD9.s 			page 67


 3744 0062 10       		.uleb128 .LVL2-.LVL1
 3745 0063 2E       		.uleb128 .LVL8-.LVL1
 3746 0064 01       		.uleb128 0x1
 3747 0065 54       		.byte	0x54
 3748 0066 04       		.byte	0x4
 3749 0067 2E       		.uleb128 .LVL8-.LVL1
 3750 0068 64       		.uleb128 .LFE435-.LVL1
 3751 0069 01       		.uleb128 0x1
 3752 006a 57       		.byte	0x57
 3753 006b 00       		.byte	0
 3754              	.LVUS7:
 3755 006c 00       		.uleb128 .LVU22
 3756 006d 00       		.uleb128 0
 3757              	.LLST7:
 3758 006e 08       		.byte	0x8
 3759 006f 2C000000 		.4byte	.LVL4
 3760 0073 48       		.uleb128 .LFE435-.LVL4
 3761 0074 01       		.uleb128 0x1
 3762 0075 56       		.byte	0x56
 3763 0076 00       		.byte	0
 3764              	.LVUS8:
 3765 0077 00       		.uleb128 .LVU24
 3766 0078 00       		.uleb128 0
 3767              	.LLST8:
 3768 0079 08       		.byte	0x8
 3769 007a 30000000 		.4byte	.LVL5
 3770 007e 44       		.uleb128 .LFE435-.LVL5
 3771 007f 01       		.uleb128 0x1
 3772 0080 57       		.byte	0x57
 3773 0081 00       		.byte	0
 3774              	.LVUS9:
 3775 0082 00       		.uleb128 .LVU27
 3776 0083 00       		.uleb128 .LVU39
 3777              	.LLST9:
 3778 0084 08       		.byte	0x8
 3779 0085 3A000000 		.4byte	.LVL7
 3780 0089 1B       		.uleb128 .LVL11-1-.LVL7
 3781 008a 01       		.uleb128 0x1
 3782 008b 52       		.byte	0x52
 3783 008c 00       		.byte	0
 3784              	.LVUS10:
 3785 008d 00       		.uleb128 .LVU29
 3786 008e 00       		.uleb128 .LVU39
 3787              	.LLST10:
 3788 008f 08       		.byte	0x8
 3789 0090 3E000000 		.4byte	.LVL8
 3790 0094 17       		.uleb128 .LVL11-1-.LVL8
 3791 0095 01       		.uleb128 0x1
 3792 0096 53       		.byte	0x53
 3793 0097 00       		.byte	0
 3794              	.LVUS11:
 3795 0098 00       		.uleb128 .LVU32
 3796 0099 00       		.uleb128 .LVU34
 3797              	.LLST11:
 3798 009a 08       		.byte	0x8
 3799 009b 40000000 		.4byte	.LVL9
 3800 009f 08       		.uleb128 .LVL10-.LVL9
ARM GAS  C:\Users\DEVELO~1\AppData\Local\Temp\ccY3QrD9.s 			page 68


 3801 00a0 01       		.uleb128 0x1
 3802 00a1 50       		.byte	0x50
 3803 00a2 00       		.byte	0
 3804              	.LVUS5:
 3805 00a3 03       		.uleb128 .LVU12
 3806 00a4 00       		.uleb128 .LVU17
 3807              	.LLST5:
 3808 00a5 08       		.byte	0x8
 3809 00a6 10000000 		.4byte	.LVL1
 3810 00aa 10       		.uleb128 .LVL2-.LVL1
 3811 00ab 06       		.uleb128 0x6
 3812 00ac 03       		.byte	0x3
 3813 00ad 08000000 		.4byte	.LC1
 3814 00b1 9F       		.byte	0x9f
 3815 00b2 00       		.byte	0
 3816              	.Ldebug_loc3:
 3817              		.section	.debug_aranges,"",%progbits
 3818 0000 34000000 		.4byte	0x34
 3819 0004 0200     		.2byte	0x2
 3820 0006 00000000 		.4byte	.Ldebug_info0
 3821 000a 04       		.byte	0x4
 3822 000b 00       		.byte	0
 3823 000c 0000     		.2byte	0
 3824 000e 0000     		.2byte	0
 3825 0010 00000000 		.4byte	.LFB435
 3826 0014 74000000 		.4byte	.LFE435-.LFB435
 3827 0018 00000000 		.4byte	.LFB432
 3828 001c 10000000 		.4byte	.LFE432-.LFB432
 3829 0020 00000000 		.4byte	.LFB433
 3830 0024 10000000 		.4byte	.LFE433-.LFB433
 3831 0028 00000000 		.4byte	.LFB436
 3832 002c 54000000 		.4byte	.LFE436-.LFB436
 3833 0030 00000000 		.4byte	0
 3834 0034 00000000 		.4byte	0
 3835              		.section	.debug_rnglists,"",%progbits
 3836              	.Ldebug_ranges0:
 3837 0000 42000000 		.4byte	.Ldebug_ranges3-.Ldebug_ranges2
 3838              	.Ldebug_ranges2:
 3839 0004 0500     		.2byte	0x5
 3840 0006 04       		.byte	0x4
 3841 0007 00       		.byte	0
 3842 0008 00000000 		.4byte	0
 3843              	.LLRL4:
 3844 000c 05       		.byte	0x5
 3845 000d 04000000 		.4byte	.LBB7
 3846 0011 04       		.byte	0x4
 3847 0012 00       		.uleb128 .LBB7-.LBB7
 3848 0013 02       		.uleb128 .LBE7-.LBB7
 3849 0014 04       		.byte	0x4
 3850 0015 04       		.uleb128 .LBB13-.LBB7
 3851 0016 06       		.uleb128 .LBE13-.LBB7
 3852 0017 04       		.byte	0x4
 3853 0018 08       		.uleb128 .LBB14-.LBB7
 3854 0019 0A       		.uleb128 .LBE14-.LBB7
 3855 001a 04       		.byte	0x4
 3856 001b 0C       		.uleb128 .LBB15-.LBB7
 3857 001c 0C       		.uleb128 .LBE15-.LBB7
ARM GAS  C:\Users\DEVELO~1\AppData\Local\Temp\ccY3QrD9.s 			page 69


 3858 001d 04       		.byte	0x4
 3859 001e 1A       		.uleb128 .LBB18-.LBB7
 3860 001f 1C       		.uleb128 .LBE18-.LBB7
 3861 0020 00       		.byte	0
 3862              	.LLRL6:
 3863 0021 05       		.byte	0x5
 3864 0022 1A000000 		.4byte	.LBB16
 3865 0026 04       		.byte	0x4
 3866 0027 00       		.uleb128 .LBB16-.LBB16
 3867 0028 04       		.uleb128 .LBE16-.LBB16
 3868 0029 04       		.byte	0x4
 3869 002a 06       		.uleb128 .LBB19-.LBB16
 3870 002b 3C       		.uleb128 .LBE19-.LBB16
 3871 002c 00       		.byte	0
 3872              	.LLRL12:
 3873 002d 07       		.byte	0x7
 3874 002e 00000000 		.4byte	.LFB435
 3875 0032 74       		.uleb128 .LFE435-.LFB435
 3876 0033 07       		.byte	0x7
 3877 0034 00000000 		.4byte	.LFB432
 3878 0038 10       		.uleb128 .LFE432-.LFB432
 3879 0039 07       		.byte	0x7
 3880 003a 00000000 		.4byte	.LFB433
 3881 003e 10       		.uleb128 .LFE433-.LFB433
 3882 003f 07       		.byte	0x7
 3883 0040 00000000 		.4byte	.LFB436
 3884 0044 54       		.uleb128 .LFE436-.LFB436
 3885 0045 00       		.byte	0
 3886              	.Ldebug_ranges3:
 3887              		.section	.debug_line,"",%progbits
 3888              	.Ldebug_line0:
 3889 0000 EA040000 		.section	.debug_str,"MS",%progbits,1
 3889      03007203 
 3889      00000201 
 3889      FB0E0D00 
 3889      01010101 
 3890              	.LASF11:
 3891 0000 6C6F6E67 		.ascii	"long int\000"
 3891      20696E74 
 3891      00
 3892              	.LASF161:
 3893 0009 53657269 		.ascii	"SerialDriver\000"
 3893      616C4472 
 3893      69766572 
 3893      00
 3894              	.LASF196:
 3895 0016 66756C6C 		.ascii	"full\000"
 3895      00
 3896              	.LASF190:
 3897 001b 73645374 		.ascii	"sdStart\000"
 3897      61727400 
 3898              	.LASF35:
 3899 0023 6E616D65 		.ascii	"name\000"
 3899      00
 3900              	.LASF106:
 3901 0028 74687265 		.ascii	"thread_reference_t\000"
 3901      61645F72 
ARM GAS  C:\Users\DEVELO~1\AppData\Local\Temp\ccY3QrD9.s 			page 70


 3901      65666572 
 3901      656E6365 
 3901      5F7400
 3902              	.LASF103:
 3903 003b 63685F72 		.ascii	"ch_registry\000"
 3903      65676973 
 3903      74727900 
 3904              	.LASF133:
 3905 0047 6C697374 		.ascii	"listener\000"
 3905      656E6572 
 3905      00
 3906              	.LASF136:
 3907 0050 6576656E 		.ascii	"event_source\000"
 3907      745F736F 
 3907      75726365 
 3907      00
 3908              	.LASF38:
 3909 005d 666C6167 		.ascii	"flags\000"
 3909      7300
 3910              	.LASF65:
 3911 0063 73797374 		.ascii	"systime_t\000"
 3911      696D655F 
 3911      7400
 3912              	.LASF44:
 3913 006d 7265616C 		.ascii	"realprio\000"
 3913      7072696F 
 3913      00
 3914              	.LASF90:
 3915 0076 62756666 		.ascii	"buffer\000"
 3915      657200
 3916              	.LASF88:
 3917 007d 73757370 		.ascii	"suspended\000"
 3917      656E6465 
 3917      6400
 3918              	.LASF162:
 3919 0087 68616C5F 		.ascii	"hal_serial_driver\000"
 3919      73657269 
 3919      616C5F64 
 3919      72697665 
 3919      7200
 3920              	.LASF144:
 3921 0099 696F5F71 		.ascii	"io_queue_t\000"
 3921      75657565 
 3921      5F7400
 3922              	.LASF42:
 3923 00a4 6570656E 		.ascii	"epending\000"
 3923      64696E67 
 3923      00
 3924              	.LASF0:
 3925 00ad 756E7369 		.ascii	"unsigned int\000"
 3925      676E6564 
 3925      20696E74 
 3925      00
 3926              	.LASF70:
 3927 00ba 6E657874 		.ascii	"next\000"
 3927      00
 3928              	.LASF19:
ARM GAS  C:\Users\DEVELO~1\AppData\Local\Temp\ccY3QrD9.s 			page 71


 3929 00bf 75696E74 		.ascii	"uint32_t\000"
 3929      33325F74 
 3929      00
 3930              	.LASF52:
 3931 00c8 636F7265 		.ascii	"core_id\000"
 3931      5F696400 
 3932              	.LASF139:
 3933 00d0 42617365 		.ascii	"BaseSequentialStreamVMT\000"
 3933      53657175 
 3933      656E7469 
 3933      616C5374 
 3933      7265616D 
 3934              	.LASF151:
 3935 00e8 715F7264 		.ascii	"q_rdptr\000"
 3935      70747200 
 3936              	.LASF10:
 3937 00f0 5F5F696E 		.ascii	"__int32_t\000"
 3937      7433325F 
 3937      7400
 3938              	.LASF39:
 3939 00fa 72656673 		.ascii	"refs\000"
 3939      00
 3940              	.LASF154:
 3941 00ff 716E6F74 		.ascii	"qnotify_t\000"
 3941      6966795F 
 3941      7400
 3942              	.LASF181:
 3943 0109 6472765F 		.ascii	"drv_audio_state_t\000"
 3943      61756469 
 3943      6F5F7374 
 3943      6174655F 
 3943      7400
 3944              	.LASF80:
 3945 011b 77746F62 		.ascii	"wtobjp\000"
 3945      6A7000
 3946              	.LASF50:
 3947 0122 76746C69 		.ascii	"vtlist\000"
 3947      737400
 3948              	.LASF97:
 3949 0129 706F7274 		.ascii	"port_context\000"
 3949      5F636F6E 
 3949      74657874 
 3949      00
 3950              	.LASF120:
 3951 0136 63685F72 		.ascii	"ch_ready_list\000"
 3951      65616479 
 3951      5F6C6973 
 3951      7400
 3952              	.LASF101:
 3953 0144 6C617374 		.ascii	"laststamp\000"
 3953      7374616D 
 3953      7000
 3954              	.LASF117:
 3955 014e 65776D61 		.ascii	"ewmask\000"
 3955      736B00
 3956              	.LASF73:
 3957 0155 70726576 		.ascii	"prev\000"
ARM GAS  C:\Users\DEVELO~1\AppData\Local\Temp\ccY3QrD9.s 			page 72


 3957      00
 3958              	.LASF200:
 3959 015a 6472765F 		.ascii	"drv_audio_dma_half_cb\000"
 3959      61756469 
 3959      6F5F646D 
 3959      615F6861 
 3959      6C665F63 
 3960              	.LASF69:
 3961 0170 63685F6C 		.ascii	"ch_list\000"
 3961      69737400 
 3962              	.LASF170:
 3963 0178 73706565 		.ascii	"speed\000"
 3963      6400
 3964              	.LASF175:
 3965 017e 77726974 		.ascii	"writet\000"
 3965      657400
 3966              	.LASF61:
 3967 0185 63685F73 		.ascii	"ch_system_debug\000"
 3967      79737465 
 3967      6D5F6465 
 3967      62756700 
 3968              	.LASF92:
 3969 0195 47545052 		.ascii	"GTPR\000"
 3969      00
 3970              	.LASF203:
 3971 019a 433A5C50 		.ascii	"C:\\PROJET\\ChibiOS project\\ChibiOS_21.11.4\\demos"
 3971      524F4A45 
 3971      545C4368 
 3971      6962694F 
 3971      53207072 
 3972 01c9 5C53544D 		.ascii	"\\STM32\\RT-STM32H743ZI_REV_XY-NUCLEO144\000"
 3972      33325C52 
 3972      542D5354 
 3972      4D333248 
 3972      3734335A 
 3973              	.LASF109:
 3974 01f0 6C697374 		.ascii	"list\000"
 3974      00
 3975              	.LASF164:
 3976 01f5 69717565 		.ascii	"iqueue\000"
 3976      756500
 3977              	.LASF78:
 3978 01fc 63685F64 		.ascii	"ch_delta_list\000"
 3978      656C7461 
 3978      5F6C6973 
 3978      7400
 3979              	.LASF146:
 3980 020a 715F7761 		.ascii	"q_waiting\000"
 3980      6974696E 
 3980      6700
 3981              	.LASF114:
 3982 0214 73656E74 		.ascii	"sentmsg\000"
 3982      6D736700 
 3983              	.LASF177:
 3984 021c 4452565F 		.ascii	"DRV_AUDIO_STOPPED\000"
 3984      41554449 
 3984      4F5F5354 
ARM GAS  C:\Users\DEVELO~1\AppData\Local\Temp\ccY3QrD9.s 			page 73


 3984      4F505045 
 3984      4400
 3985              	.LASF28:
 3986 022e 6576656E 		.ascii	"eventmask_t\000"
 3986      746D6173 
 3986      6B5F7400 
 3987              	.LASF171:
 3988 023a 53657269 		.ascii	"SerialConfig\000"
 3988      616C436F 
 3988      6E666967 
 3988      00
 3989              	.LASF87:
 3990 0247 74726163 		.ascii	"trace_event_t\000"
 3990      655F6576 
 3990      656E745F 
 3990      7400
 3991              	.LASF160:
 3992 0255 73647374 		.ascii	"sdstate_t\000"
 3992      6174655F 
 3992      7400
 3993              	.LASF163:
 3994 025f 6576656E 		.ascii	"event\000"
 3994      7400
 3995              	.LASF118:
 3996 0265 63685F73 		.ascii	"ch_semaphore\000"
 3996      656D6170 
 3996      686F7265 
 3996      00
 3997              	.LASF26:
 3998 0272 74707269 		.ascii	"tprio_t\000"
 3998      6F5F7400 
 3999              	.LASF41:
 4000 027a 6D736771 		.ascii	"msgqueue\000"
 4000      75657565 
 4000      00
 4001              	.LASF195:
 4002 0283 68616C66 		.ascii	"half\000"
 4002      00
 4003              	.LASF128:
 4004 0288 6F735F69 		.ascii	"os_instance_config_t\000"
 4004      6E737461 
 4004      6E63655F 
 4004      636F6E66 
 4004      69675F74 
 4005              	.LASF129:
 4006 029d 7466756E 		.ascii	"tfunc_t\000"
 4006      635F7400 
 4007              	.LASF182:
 4008 02a5 61756469 		.ascii	"audio_dma_half_count\000"
 4008      6F5F646D 
 4008      615F6861 
 4008      6C665F63 
 4008      6F756E74 
 4009              	.LASF82:
 4010 02ba 68616C74 		.ascii	"halt\000"
 4010      00
 4011              	.LASF15:
ARM GAS  C:\Users\DEVELO~1\AppData\Local\Temp\ccY3QrD9.s 			page 74


 4012 02bf 6C6F6E67 		.ascii	"long long unsigned int\000"
 4012      206C6F6E 
 4012      6720756E 
 4012      7369676E 
 4012      65642069 
 4013              	.LASF81:
 4014 02d6 72656173 		.ascii	"reason\000"
 4014      6F6E00
 4015              	.LASF94:
 4016 02dd 50524553 		.ascii	"PRESC\000"
 4016      4300
 4017              	.LASF137:
 4018 02e3 6576656E 		.ascii	"event_source_t\000"
 4018      745F736F 
 4018      75726365 
 4018      5F7400
 4019              	.LASF110:
 4020 02f2 70717565 		.ascii	"pqueue\000"
 4020      756500
 4021              	.LASF8:
 4022 02f9 5F5F7569 		.ascii	"__uint16_t\000"
 4022      6E743136 
 4022      5F7400
 4023              	.LASF30:
 4024 0304 636E745F 		.ascii	"cnt_t\000"
 4024      7400
 4025              	.LASF86:
 4026 030a 74696D65 		.ascii	"time\000"
 4026      00
 4027              	.LASF34:
 4028 030f 6F776E65 		.ascii	"owner\000"
 4028      7200
 4029              	.LASF179:
 4030 0315 4452565F 		.ascii	"DRV_AUDIO_RUNNING\000"
 4030      41554449 
 4030      4F5F5255 
 4030      4E4E494E 
 4030      4700
 4031              	.LASF125:
 4032 0327 6D61696E 		.ascii	"mainthread_end\000"
 4032      74687265 
 4032      61645F65 
 4032      6E6400
 4033              	.LASF108:
 4034 0336 74687265 		.ascii	"threads_queue_t\000"
 4034      6164735F 
 4034      71756575 
 4034      655F7400 
 4035              	.LASF43:
 4036 0346 6D74786C 		.ascii	"mtxlist\000"
 4036      69737400 
 4037              	.LASF98:
 4038 034e 63685F76 		.ascii	"ch_virtual_timers_list\000"
 4038      69727475 
 4038      616C5F74 
 4038      696D6572 
 4038      735F6C69 
ARM GAS  C:\Users\DEVELO~1\AppData\Local\Temp\ccY3QrD9.s 			page 75


 4039              	.LASF53:
 4040 0365 72666375 		.ascii	"rfcu\000"
 4040      00
 4041              	.LASF100:
 4042 036a 6C617374 		.ascii	"lasttime\000"
 4042      74696D65 
 4042      00
 4043              	.LASF32:
 4044 0373 74687265 		.ascii	"thread_t\000"
 4044      61645F74 
 4044      00
 4045              	.LASF83:
 4046 037c 75736572 		.ascii	"user\000"
 4046      00
 4047              	.LASF173:
 4048 0381 70757474 		.ascii	"putt\000"
 4048      00
 4049              	.LASF4:
 4050 0386 73697A65 		.ascii	"size_t\000"
 4050      5F7400
 4051              	.LASF111:
 4052 038d 7264796D 		.ascii	"rdymsg\000"
 4052      736700
 4053              	.LASF74:
 4054 0394 63685F70 		.ascii	"ch_priority_queue_t\000"
 4054      72696F72 
 4054      6974795F 
 4054      71756575 
 4054      655F7400 
 4055              	.LASF197:
 4056 03a8 68616C66 		.ascii	"half_delta\000"
 4056      5F64656C 
 4056      746100
 4057              	.LASF138:
 4058 03b3 5F426F6F 		.ascii	"_Bool\000"
 4058      6C00
 4059              	.LASF158:
 4060 03b9 53445F53 		.ascii	"SD_STOP\000"
 4060      544F5000 
 4061              	.LASF58:
 4062 03c1 63685F72 		.ascii	"ch_rfcu\000"
 4062      66637500 
 4063              	.LASF119:
 4064 03c9 63685F6D 		.ascii	"ch_mutex\000"
 4064      75746578 
 4064      00
 4065              	.LASF169:
 4066 03d2 68616C5F 		.ascii	"hal_serial_config\000"
 4066      73657269 
 4066      616C5F63 
 4066      6F6E6669 
 4066      6700
 4067              	.LASF95:
 4068 03e4 55534152 		.ascii	"USART_TypeDef\000"
 4068      545F5479 
 4068      70654465 
 4068      6600
ARM GAS  C:\Users\DEVELO~1\AppData\Local\Temp\ccY3QrD9.s 			page 76


 4069              	.LASF178:
 4070 03f2 4452565F 		.ascii	"DRV_AUDIO_READY\000"
 4070      41554449 
 4070      4F5F5245 
 4070      41445900 
 4071              	.LASF48:
 4072 0402 63685F6F 		.ascii	"ch_os_instance\000"
 4072      735F696E 
 4072      7374616E 
 4072      636500
 4073              	.LASF152:
 4074 0411 715F6E6F 		.ascii	"q_notify\000"
 4074      74696679 
 4074      00
 4075              	.LASF189:
 4076 041a 63687072 		.ascii	"chprintf\000"
 4076      696E7466 
 4076      00
 4077              	.LASF167:
 4078 0423 636C6F63 		.ascii	"clock\000"
 4078      6B00
 4079              	.LASF127:
 4080 0429 69646C65 		.ascii	"idlethread_end\000"
 4080      74687265 
 4080      61645F65 
 4080      6E6400
 4081              	.LASF143:
 4082 0438 42617365 		.ascii	"BaseSequentialStream\000"
 4082      53657175 
 4082      656E7469 
 4082      616C5374 
 4082      7265616D 
 4083              	.LASF153:
 4084 044d 715F6C69 		.ascii	"q_link\000"
 4084      6E6B00
 4085              	.LASF76:
 4086 0454 7072696F 		.ascii	"prio\000"
 4086      00
 4087              	.LASF63:
 4088 0459 63686172 		.ascii	"char\000"
 4088      00
 4089              	.LASF191:
 4090 045e 63685379 		.ascii	"chSysInit\000"
 4090      73496E69 
 4090      7400
 4091              	.LASF77:
 4092 0468 63685F64 		.ascii	"ch_delta_list_t\000"
 4092      656C7461 
 4092      5F6C6973 
 4092      745F7400 
 4093              	.LASF57:
 4094 0478 72666375 		.ascii	"rfcu_mask_t\000"
 4094      5F6D6173 
 4094      6B5F7400 
 4095              	.LASF67:
 4096 0484 74696D65 		.ascii	"time_conv_t\000"
 4096      5F636F6E 
ARM GAS  C:\Users\DEVELO~1\AppData\Local\Temp\ccY3QrD9.s 			page 77


 4096      765F7400 
 4097              	.LASF36:
 4098 0490 77616261 		.ascii	"wabase\000"
 4098      736500
 4099              	.LASF150:
 4100 0497 715F7772 		.ascii	"q_wrptr\000"
 4100      70747200 
 4101              	.LASF24:
 4102 049f 74737461 		.ascii	"tstate_t\000"
 4102      74655F74 
 4102      00
 4103              	.LASF33:
 4104 04a8 72717565 		.ascii	"rqueue\000"
 4104      756500
 4105              	.LASF124:
 4106 04af 6D61696E 		.ascii	"mainthread_base\000"
 4106      74687265 
 4106      61645F62 
 4106      61736500 
 4107              	.LASF1:
 4108 04bf 6C6F6E67 		.ascii	"long long int\000"
 4108      206C6F6E 
 4108      6720696E 
 4108      7400
 4109              	.LASF14:
 4110 04cd 5F5F7569 		.ascii	"__uint64_t\000"
 4110      6E743634 
 4110      5F7400
 4111              	.LASF16:
 4112 04d8 75696E74 		.ascii	"uint8_t\000"
 4112      385F7400 
 4113              	.LASF93:
 4114 04e0 52544F52 		.ascii	"RTOR\000"
 4114      00
 4115              	.LASF155:
 4116 04e5 696E7075 		.ascii	"input_queue_t\000"
 4116      745F7175 
 4116      6575655F 
 4116      7400
 4117              	.LASF47:
 4118 04f3 63685F74 		.ascii	"ch_thread\000"
 4118      68726561 
 4118      6400
 4119              	.LASF166:
 4120 04fd 75736172 		.ascii	"usart\000"
 4120      7400
 4121              	.LASF64:
 4122 0503 73797374 		.ascii	"system_debug_t\000"
 4122      656D5F64 
 4122      65627567 
 4122      5F7400
 4123              	.LASF107:
 4124 0512 63685F74 		.ascii	"ch_threads_queue\000"
 4124      68726561 
 4124      64735F71 
 4124      75657565 
 4124      00
ARM GAS  C:\Users\DEVELO~1\AppData\Local\Temp\ccY3QrD9.s 			page 78


 4125              	.LASF141:
 4126 0523 77726974 		.ascii	"write\000"
 4126      6500
 4127              	.LASF202:
 4128 0529 6D61696E 		.ascii	"main.c\000"
 4128      2E6300
 4129              	.LASF132:
 4130 0530 6576656E 		.ascii	"event_listener\000"
 4130      745F6C69 
 4130      7374656E 
 4130      657200
 4131              	.LASF184:
 4132 053f 75617274 		.ascii	"uart_cfg\000"
 4132      5F636667 
 4132      00
 4133              	.LASF27:
 4134 0548 6D73675F 		.ascii	"msg_t\000"
 4134      7400
 4135              	.LASF176:
 4136 054e 72656164 		.ascii	"readt\000"
 4136      7400
 4137              	.LASF105:
 4138 0554 72656769 		.ascii	"registry_t\000"
 4138      73747279 
 4138      5F7400
 4139              	.LASF140:
 4140 055f 696E7374 		.ascii	"instance_offset\000"
 4140      616E6365 
 4140      5F6F6666 
 4140      73657400 
 4141              	.LASF156:
 4142 056f 6F757470 		.ascii	"output_queue_t\000"
 4142      75745F71 
 4142      75657565 
 4142      5F7400
 4143              	.LASF89:
 4144 057e 73697A65 		.ascii	"size\000"
 4144      00
 4145              	.LASF59:
 4146 0583 6D61736B 		.ascii	"mask\000"
 4146      00
 4147              	.LASF13:
 4148 0588 6C6F6E67 		.ascii	"long unsigned int\000"
 4148      20756E73 
 4148      69676E65 
 4148      6420696E 
 4148      7400
 4149              	.LASF66:
 4150 059a 73797369 		.ascii	"sysinterval_t\000"
 4150      6E746572 
 4150      76616C5F 
 4150      7400
 4151              	.LASF71:
 4152 05a8 63685F71 		.ascii	"ch_queue_t\000"
 4152      75657565 
 4152      5F7400
 4153              	.LASF29:
ARM GAS  C:\Users\DEVELO~1\AppData\Local\Temp\ccY3QrD9.s 			page 79


 4154 05b3 6576656E 		.ascii	"eventflags_t\000"
 4154      74666C61 
 4154      67735F74 
 4154      00
 4155              	.LASF62:
 4156 05c0 70616E69 		.ascii	"panic_msg\000"
 4156      635F6D73 
 4156      6700
 4157              	.LASF188:
 4158 05ca 63685468 		.ascii	"chThdCreateStatic\000"
 4158      64437265 
 4158      61746553 
 4158      74617469 
 4158      6300
 4159              	.LASF91:
 4160 05dc 74726163 		.ascii	"trace_buffer_t\000"
 4160      655F6275 
 4160      66666572 
 4160      5F7400
 4161              	.LASF23:
 4162 05eb 746D6F64 		.ascii	"tmode_t\000"
 4162      655F7400 
 4163              	.LASF55:
 4164 05f3 6D61696E 		.ascii	"mainthread\000"
 4164      74687265 
 4164      616400
 4165              	.LASF199:
 4166 05fe 6472765F 		.ascii	"drv_audio_dma_full_cb\000"
 4166      61756469 
 4166      6F5F646D 
 4166      615F6675 
 4166      6C6C5F63 
 4167              	.LASF9:
 4168 0614 73686F72 		.ascii	"short unsigned int\000"
 4168      7420756E 
 4168      7369676E 
 4168      65642069 
 4168      6E7400
 4169              	.LASF2:
 4170 0627 6C6F6E67 		.ascii	"long double\000"
 4170      20646F75 
 4170      626C6500 
 4171              	.LASF165:
 4172 0633 6F717565 		.ascii	"oqueue\000"
 4172      756500
 4173              	.LASF17:
 4174 063a 75696E74 		.ascii	"uint16_t\000"
 4174      31365F74 
 4174      00
 4175              	.LASF68:
 4176 0643 63685F6C 		.ascii	"ch_list_t\000"
 4176      6973745F 
 4176      7400
 4177              	.LASF209:
 4178 064d 63685265 		.ascii	"chRegSetThreadName\000"
 4178      67536574 
 4178      54687265 
ARM GAS  C:\Users\DEVELO~1\AppData\Local\Temp\ccY3QrD9.s 			page 80


 4178      61644E61 
 4178      6D6500
 4179              	.LASF159:
 4180 0660 53445F52 		.ascii	"SD_READY\000"
 4180      45414459 
 4180      00
 4181              	.LASF187:
 4182 0669 6472765F 		.ascii	"drv_audio_init\000"
 4182      61756469 
 4182      6F5F696E 
 4182      697400
 4183              	.LASF54:
 4184 0678 636F6E66 		.ascii	"config\000"
 4184      696700
 4185              	.LASF201:
 4186 067f 474E5520 		.ascii	"GNU C17 11.3.1 20220712 -mcpu=cortex-m7 -mthumb -mf"
 4186      43313720 
 4186      31312E33 
 4186      2E312032 
 4186      30323230 
 4187 06b2 6C6F6174 		.ascii	"loat-abi=soft -march=armv7e-m -ggdb -O2 -fomit-fram"
 4187      2D616269 
 4187      3D736F66 
 4187      74202D6D 
 4187      61726368 
 4188 06e5 652D706F 		.ascii	"e-pointer -falign-functions=16 -ffunction-sections "
 4188      696E7465 
 4188      72202D66 
 4188      616C6967 
 4188      6E2D6675 
 4189 0718 2D666461 		.ascii	"-fdata-sections -fno-common\000"
 4189      74612D73 
 4189      65637469 
 4189      6F6E7320 
 4189      2D666E6F 
 4190              	.LASF168:
 4191 0734 72786D61 		.ascii	"rxmask\000"
 4191      736B00
 4192              	.LASF7:
 4193 073b 73686F72 		.ascii	"short int\000"
 4193      7420696E 
 4193      7400
 4194              	.LASF135:
 4195 0745 77666C61 		.ascii	"wflags\000"
 4195      677300
 4196              	.LASF96:
 4197 074c 706F7274 		.ascii	"port_intctx\000"
 4197      5F696E74 
 4197      63747800 
 4198              	.LASF21:
 4199 0758 706F7274 		.ascii	"port_stkalign_t\000"
 4199      5F73746B 
 4199      616C6967 
 4199      6E5F7400 
 4200              	.LASF180:
 4201 0768 4452565F 		.ascii	"DRV_AUDIO_FAULT\000"
 4201      41554449 
ARM GAS  C:\Users\DEVELO~1\AppData\Local\Temp\ccY3QrD9.s 			page 81


 4201      4F5F4641 
 4201      554C5400 
 4202              	.LASF207:
 4203 0778 6C6F6754 		.ascii	"logThread\000"
 4203      68726561 
 4203      6400
 4204              	.LASF123:
 4205 0782 63685F6F 		.ascii	"ch_os_instance_config\000"
 4205      735F696E 
 4205      7374616E 
 4205      63655F63 
 4205      6F6E6669 
 4206              	.LASF99:
 4207 0798 646C6973 		.ascii	"dlist\000"
 4207      7400
 4208              	.LASF204:
 4209 079e 6472765F 		.ascii	"drv_audio_get_state\000"
 4209      61756469 
 4209      6F5F6765 
 4209      745F7374 
 4209      61746500 
 4210              	.LASF20:
 4211 07b2 75696E74 		.ascii	"uint64_t\000"
 4211      36345F74 
 4211      00
 4212              	.LASF192:
 4213 07bb 68616C49 		.ascii	"halInit\000"
 4213      6E697400 
 4214              	.LASF49:
 4215 07c3 726C6973 		.ascii	"rlist\000"
 4215      7400
 4216              	.LASF185:
 4217 07c9 6C6F6754 		.ascii	"logThreadWA\000"
 4217      68726561 
 4217      64574100 
 4218              	.LASF5:
 4219 07d5 5F5F7569 		.ascii	"__uint8_t\000"
 4219      6E74385F 
 4219      7400
 4220              	.LASF142:
 4221 07df 72656164 		.ascii	"read\000"
 4221      00
 4222              	.LASF157:
 4223 07e4 53445F55 		.ascii	"SD_UNINIT\000"
 4223      4E494E49 
 4223      5400
 4224              	.LASF147:
 4225 07ee 715F636F 		.ascii	"q_counter\000"
 4225      756E7465 
 4225      7200
 4226              	.LASF174:
 4227 07f8 67657474 		.ascii	"gett\000"
 4227      00
 4228              	.LASF149:
 4229 07fd 715F746F 		.ascii	"q_top\000"
 4229      7000
 4230              	.LASF25:
ARM GAS  C:\Users\DEVELO~1\AppData\Local\Temp\ccY3QrD9.s 			page 82


 4231 0803 74726566 		.ascii	"trefs_t\000"
 4231      735F7400 
 4232              	.LASF131:
 4233 080b 6576656E 		.ascii	"event_listener_t\000"
 4233      745F6C69 
 4233      7374656E 
 4233      65725F74 
 4233      00
 4234              	.LASF122:
 4235 081c 72656164 		.ascii	"ready_list_t\000"
 4235      795F6C69 
 4235      73745F74 
 4235      00
 4236              	.LASF186:
 4237 0829 6472765F 		.ascii	"drv_audio_start\000"
 4237      61756469 
 4237      6F5F7374 
 4237      61727400 
 4238              	.LASF85:
 4239 0839 72747374 		.ascii	"rtstamp\000"
 4239      616D7000 
 4240              	.LASF104:
 4241 0841 71756575 		.ascii	"queue\000"
 4241      6500
 4242              	.LASF183:
 4243 0847 61756469 		.ascii	"audio_dma_full_count\000"
 4243      6F5F646D 
 4243      615F6675 
 4243      6C6C5F63 
 4243      6F756E74 
 4244              	.LASF18:
 4245 085c 696E7433 		.ascii	"int32_t\000"
 4245      325F7400 
 4246              	.LASF60:
 4247 0864 72666375 		.ascii	"rfcu_t\000"
 4247      5F7400
 4248              	.LASF56:
 4249 086b 74726163 		.ascii	"trace_buffer\000"
 4249      655F6275 
 4249      66666572 
 4249      00
 4250              	.LASF115:
 4251 0878 77747365 		.ascii	"wtsemp\000"
 4251      6D7000
 4252              	.LASF75:
 4253 087f 63685F70 		.ascii	"ch_priority_queue\000"
 4253      72696F72 
 4253      6974795F 
 4253      71756575 
 4253      6500
 4254              	.LASF72:
 4255 0891 63685F71 		.ascii	"ch_queue\000"
 4255      75657565 
 4255      00
 4256              	.LASF130:
 4257 089a 6D757465 		.ascii	"mutex_t\000"
 4257      785F7400 
ARM GAS  C:\Users\DEVELO~1\AppData\Local\Temp\ccY3QrD9.s 			page 83


 4258              	.LASF84:
 4259 08a2 74797065 		.ascii	"type\000"
 4259      00
 4260              	.LASF6:
 4261 08a7 756E7369 		.ascii	"unsigned char\000"
 4261      676E6564 
 4261      20636861 
 4261      7200
 4262              	.LASF12:
 4263 08b5 5F5F7569 		.ascii	"__uint32_t\000"
 4263      6E743332 
 4263      5F7400
 4264              	.LASF40:
 4265 08c0 77616974 		.ascii	"waiting\000"
 4265      696E6700 
 4266              	.LASF102:
 4267 08c8 76697274 		.ascii	"virtual_timers_list_t\000"
 4267      75616C5F 
 4267      74696D65 
 4267      72735F6C 
 4267      6973745F 
 4268              	.LASF134:
 4269 08de 6576656E 		.ascii	"events\000"
 4269      747300
 4270              	.LASF205:
 4271 08e5 63685468 		.ascii	"chThdSleep\000"
 4271      64536C65 
 4271      657000
 4272              	.LASF37:
 4273 08f0 73746174 		.ascii	"state\000"
 4273      6500
 4274              	.LASF46:
 4275 08f6 6F735F69 		.ascii	"os_instance_t\000"
 4275      6E737461 
 4275      6E63655F 
 4275      7400
 4276              	.LASF193:
 4277 0904 6C617374 		.ascii	"last_half\000"
 4277      5F68616C 
 4277      6600
 4278              	.LASF208:
 4279 090e 61756469 		.ascii	"audio_state_name\000"
 4279      6F5F7374 
 4279      6174655F 
 4279      6E616D65 
 4279      00
 4280              	.LASF51:
 4281 091f 7265676C 		.ascii	"reglist\000"
 4281      69737400 
 4282              	.LASF113:
 4283 0927 77747472 		.ascii	"wttrp\000"
 4283      7000
 4284              	.LASF194:
 4285 092d 6C617374 		.ascii	"last_full\000"
 4285      5F66756C 
 4285      6C00
 4286              	.LASF198:
ARM GAS  C:\Users\DEVELO~1\AppData\Local\Temp\ccY3QrD9.s 			page 84


 4287 0937 66756C6C 		.ascii	"full_delta\000"
 4287      5F64656C 
 4287      746100
 4288              	.LASF126:
 4289 0942 69646C65 		.ascii	"idlethread_base\000"
 4289      74687265 
 4289      61645F62 
 4289      61736500 
 4290              	.LASF3:
 4291 0952 7369676E 		.ascii	"signed char\000"
 4291      65642063 
 4291      68617200 
 4292              	.LASF79:
 4293 095e 64656C74 		.ascii	"delta\000"
 4293      6100
 4294              	.LASF145:
 4295 0964 696F5F71 		.ascii	"io_queue\000"
 4295      75657565 
 4295      00
 4296              	.LASF172:
 4297 096d 53657269 		.ascii	"SerialDriverVMT\000"
 4297      616C4472 
 4297      69766572 
 4297      564D5400 
 4298              	.LASF22:
 4299 097d 73746B61 		.ascii	"stkalign_t\000"
 4299      6C69676E 
 4299      5F7400
 4300              	.LASF206:
 4301 0988 6D61696E 		.ascii	"main\000"
 4301      00
 4302              	.LASF121:
 4303 098d 63757272 		.ascii	"current\000"
 4303      656E7400 
 4304              	.LASF116:
 4305 0995 77746D74 		.ascii	"wtmtxp\000"
 4305      787000
 4306              	.LASF112:
 4307 099c 65786974 		.ascii	"exitcode\000"
 4307      636F6465 
 4307      00
 4308              	.LASF31:
 4309 09a5 636F7265 		.ascii	"core_id_t\000"
 4309      5F69645F 
 4309      7400
 4310              	.LASF148:
 4311 09af 715F6275 		.ascii	"q_buffer\000"
 4311      66666572 
 4311      00
 4312              	.LASF45:
 4313 09b8 6D706F6F 		.ascii	"mpool\000"
 4313      6C00
 4314              		.ident	"GCC: (Arm GNU Toolchain 11.3.Rel1) 11.3.1 20220712"
ARM GAS  C:\Users\DEVELO~1\AppData\Local\Temp\ccY3QrD9.s 			page 85


DEFINED SYMBOLS
                            *ABS*:00000000 main.c
C:\Users\DEVELO~1\AppData\Local\Temp\ccY3QrD9.s:18     .rodata.logThread.str1.4:00000000 $d
C:\Users\DEVELO~1\AppData\Local\Temp\ccY3QrD9.s:28     .text.logThread:00000000 $t
C:\Users\DEVELO~1\AppData\Local\Temp\ccY3QrD9.s:34     .text.logThread:00000000 logThread
C:\Users\DEVELO~1\AppData\Local\Temp\ccY3QrD9.s:170    .text.logThread:00000058 $d
C:\Users\DEVELO~1\AppData\Local\Temp\ccY3QrD9.s:181    .text.drv_audio_dma_half_cb:00000000 $t
C:\Users\DEVELO~1\AppData\Local\Temp\ccY3QrD9.s:188    .text.drv_audio_dma_half_cb:00000000 drv_audio_dma_half_cb
C:\Users\DEVELO~1\AppData\Local\Temp\ccY3QrD9.s:208    .text.drv_audio_dma_half_cb:0000000c $d
C:\Users\DEVELO~1\AppData\Local\Temp\ccY3QrD9.s:213    .text.drv_audio_dma_full_cb:00000000 $t
C:\Users\DEVELO~1\AppData\Local\Temp\ccY3QrD9.s:220    .text.drv_audio_dma_full_cb:00000000 drv_audio_dma_full_cb
C:\Users\DEVELO~1\AppData\Local\Temp\ccY3QrD9.s:240    .text.drv_audio_dma_full_cb:0000000c $d
C:\Users\DEVELO~1\AppData\Local\Temp\ccY3QrD9.s:245    .rodata.main.str1.4:00000000 $d
C:\Users\DEVELO~1\AppData\Local\Temp\ccY3QrD9.s:249    .text.startup.main:00000000 $t
C:\Users\DEVELO~1\AppData\Local\Temp\ccY3QrD9.s:256    .text.startup.main:00000000 main
C:\Users\DEVELO~1\AppData\Local\Temp\ccY3QrD9.s:313    .text.startup.main:00000040 $d
C:\Users\DEVELO~1\AppData\Local\Temp\ccY3QrD9.s:322    .rodata.str1.4:00000000 $d
C:\Users\DEVELO~1\AppData\Local\Temp\ccY3QrD9.s:335    .bss.audio_dma_full_count:00000000 $d
C:\Users\DEVELO~1\AppData\Local\Temp\ccY3QrD9.s:339    .bss.audio_dma_full_count:00000000 audio_dma_full_count
C:\Users\DEVELO~1\AppData\Local\Temp\ccY3QrD9.s:342    .bss.audio_dma_half_count:00000000 $d
C:\Users\DEVELO~1\AppData\Local\Temp\ccY3QrD9.s:346    .bss.audio_dma_half_count:00000000 audio_dma_half_count
C:\Users\DEVELO~1\AppData\Local\Temp\ccY3QrD9.s:349    .bss.logThreadWA:00000000 $d
C:\Users\DEVELO~1\AppData\Local\Temp\ccY3QrD9.s:353    .bss.logThreadWA:00000000 logThreadWA
C:\Users\DEVELO~1\AppData\Local\Temp\ccY3QrD9.s:356    .rodata.CSWTCH.4:00000000 $d
C:\Users\DEVELO~1\AppData\Local\Temp\ccY3QrD9.s:360    .rodata.CSWTCH.4:00000000 CSWTCH.4
C:\Users\DEVELO~1\AppData\Local\Temp\ccY3QrD9.s:366    .rodata.uart_cfg:00000000 $d
C:\Users\DEVELO~1\AppData\Local\Temp\ccY3QrD9.s:370    .rodata.uart_cfg:00000000 uart_cfg

UNDEFINED SYMBOLS
chThdSleep
drv_audio_get_state
chprintf
ch0
halInit
chSysInit
sdStart
drv_audio_init
drv_audio_start
chThdCreateStatic
SD1
