ARM GAS  C:\Users\DEVELO~1\AppData\Local\Temp\ccnOkWUN.s 			page 1


   1              		.cpu cortex-m7
   2              		.arch armv7e-m
   3              		.fpu softvfp
   4              		.eabi_attribute 20, 1
   5              		.eabi_attribute 21, 1
   6              		.eabi_attribute 23, 3
   7              		.eabi_attribute 24, 1
   8              		.eabi_attribute 25, 1
   9              		.eabi_attribute 26, 1
  10              		.eabi_attribute 30, 2
  11              		.eabi_attribute 34, 1
  12              		.eabi_attribute 18, 4
  13              		.file	"main.c"
  14              		.text
  15              	.Ltext0:
  16              		.cfi_sections	.debug_frame
  17              		.section	.rodata.main.str1.4,"aMS",%progbits,1
  18              		.align	2
  19              	.LC0:
  20 0000 4D41494E 		.ascii	"MAIN START\015\012\000"
  20      20535441 
  20      52540D0A 
  20      00
  21 000d 000000   		.align	2
  22              	.LC1:
  23 0010 4245464F 		.ascii	"BEFORE SDRAM INIT\015\012\000"
  23      52452053 
  23      4452414D 
  23      20494E49 
  23      540D0A00 
  24              		.align	2
  25              	.LC2:
  26 0024 41465445 		.ascii	"AFTER SDRAM INIT: %d\015\012\000"
  26      52205344 
  26      52414D20 
  26      494E4954 
  26      3A202564 
  27 003b 00       		.align	2
  28              	.LC3:
  29 003c 4245464F 		.ascii	"BEFORE POINTER\015\012\000"
  29      52452050 
  29      4F494E54 
  29      45520D0A 
  29      00
  30 004d 000000   		.align	2
  31              	.LC4:
  32 0050 41465445 		.ascii	"AFTER POINTER\015\012\000"
  32      5220504F 
  32      494E5445 
  32      520D0A00 
  33              		.align	2
  34              	.LC5:
  35 0060 4245464F 		.ascii	"BEFORE WRITE\015\012\000"
  35      52452057 
  35      52495445 
  35      0D0A00
  36 006f 00       		.align	2
ARM GAS  C:\Users\DEVELO~1\AppData\Local\Temp\ccnOkWUN.s 			page 2


  37              	.LC6:
  38 0070 41465445 		.ascii	"AFTER WRITE\015\012\000"
  38      52205752 
  38      4954450D 
  38      0A00
  39 007e 0000     		.align	2
  40              	.LC7:
  41 0080 4245464F 		.ascii	"BEFORE READ\015\012\000"
  41      52452052 
  41      4541440D 
  41      0A00
  42 008e 0000     		.align	2
  43              	.LC8:
  44 0090 41465445 		.ascii	"AFTER READ: 0x%08lX\015\012\000"
  44      52205245 
  44      41443A20 
  44      30782530 
  44      386C580D 
  45 00a6 0000     		.align	2
  46              	.LC9:
  47 00a8 53445241 		.ascii	"SDRAM OK\015\012\000"
  47      4D204F4B 
  47      0D0A00
  48 00b3 00       		.align	2
  49              	.LC10:
  50 00b4 53445241 		.ascii	"SDRAM FAIL\015\012\000"
  50      4D204641 
  50      494C0D0A 
  50      00
  51 00c1 000000   		.align	2
  52              	.LC11:
  53 00c4 414C4956 		.ascii	"ALIVE\015\012\000"
  53      450D0A00 
  54              		.section	.text.startup.main,"ax",%progbits
  55              		.align	1
  56              		.p2align 4,,15
  57              		.global	main
  58              		.syntax unified
  59              		.thumb
  60              		.thumb_func
  61              		.type	main, %function
  62              	main:
  63              	.LFB432:
  64              		.file 1 "main.c"
  65              		.loc 1 18 1 view -0
  66              		.cfi_startproc
  67              		@ args = 0, pretend = 0, frame = 0
  68              		@ frame_needed = 0, uses_anonymous_args = 0
  69              		.loc 1 19 5 view .LVU1
  70              		.loc 1 18 1 is_stmt 0 view .LVU2
  71 0000 38B5     		push	{r3, r4, r5, lr}
  72              		.cfi_def_cfa_offset 16
  73              		.cfi_offset 3, -16
  74              		.cfi_offset 4, -12
  75              		.cfi_offset 5, -8
  76              		.cfi_offset 14, -4
  77              		.loc 1 19 5 view .LVU3
ARM GAS  C:\Users\DEVELO~1\AppData\Local\Temp\ccnOkWUN.s 			page 3


  78 0002 FFF7FEFF 		bl	halInit
  79              	.LVL0:
  80              		.loc 1 20 5 is_stmt 1 view .LVU4
  81 0006 FFF7FEFF 		bl	chSysInit
  82              	.LVL1:
  83              		.loc 1 22 5 view .LVU5
  84 000a 2D49     		ldr	r1, .L8
  85 000c 2D48     		ldr	r0, .L8+4
  86 000e FFF7FEFF 		bl	sdStart
  87              	.LVL2:
  88              		.loc 1 23 5 view .LVU6
  89 0012 4FF4FA60 		mov	r0, #2000
  90 0016 FFF7FEFF 		bl	chThdSleep
  91              	.LVL3:
  92              		.loc 1 25 5 view .LVU7
  93 001a 2B49     		ldr	r1, .L8+8
  94 001c 2948     		ldr	r0, .L8+4
  95 001e FFF7FEFF 		bl	chprintf
  96              	.LVL4:
  97              		.loc 1 27 5 view .LVU8
  98 0022 2A49     		ldr	r1, .L8+12
  99 0024 2748     		ldr	r0, .L8+4
 100 0026 FFF7FEFF 		bl	chprintf
 101              	.LVL5:
 102              		.loc 1 28 5 view .LVU9
 103              		.loc 1 28 15 is_stmt 0 view .LVU10
 104 002a FFF7FEFF 		bl	sdram_init_minimal
 105              	.LVL6:
 106              		.loc 1 29 5 view .LVU11
 107 002e 2849     		ldr	r1, .L8+16
 108              		.loc 1 28 15 view .LVU12
 109 0030 0246     		mov	r2, r0
 110              	.LVL7:
 111              		.loc 1 29 5 is_stmt 1 view .LVU13
 112 0032 2448     		ldr	r0, .L8+4
 113 0034 FFF7FEFF 		bl	chprintf
 114              	.LVL8:
 115              		.loc 1 31 5 view .LVU14
 116 0038 2649     		ldr	r1, .L8+20
 117 003a 2248     		ldr	r0, .L8+4
 118 003c FFF7FEFF 		bl	chprintf
 119              	.LVL9:
 120              		.loc 1 32 5 view .LVU15
 121              		.loc 1 34 5 view .LVU16
 122 0040 2549     		ldr	r1, .L8+24
 123 0042 2048     		ldr	r0, .L8+4
 124 0044 FFF7FEFF 		bl	chprintf
 125              	.LVL10:
 126              		.loc 1 36 5 view .LVU17
 127 0048 2449     		ldr	r1, .L8+28
 128 004a 1E48     		ldr	r0, .L8+4
 129 004c FFF7FEFF 		bl	chprintf
 130              	.LVL11:
 131              		.loc 1 37 5 view .LVU18
 132              	.LBB18:
 133              	.LBI18:
 134              		.file 2 "../../../os/common/ext/ARM/CMSIS/Core/Include/cmsis_gcc.h"
ARM GAS  C:\Users\DEVELO~1\AppData\Local\Temp\ccnOkWUN.s 			page 4


 135              		.loc 2 877 27 view .LVU19
 136              	.LBB19:
 137              		.loc 2 879 3 view .LVU20
 138              		.syntax unified
 139              	@ 879 "../../../os/common/ext/ARM/CMSIS/Core/Include/cmsis_gcc.h" 1
 140 0050 BFF34F8F 		dsb 0xF
 141              	@ 0 "" 2
 142              		.thumb
 143              		.syntax unified
 144              	.LBE19:
 145              	.LBE18:
 146              		.loc 1 38 5 view .LVU21
 147              	.LBB20:
 148              	.LBI20:
 149              		.loc 2 866 27 view .LVU22
 150              	.LBB21:
 151              		.loc 2 868 3 view .LVU23
 152              		.syntax unified
 153              	@ 868 "../../../os/common/ext/ARM/CMSIS/Core/Include/cmsis_gcc.h" 1
 154 0054 BFF36F8F 		isb 0xF
 155              	@ 0 "" 2
 156              		.thumb
 157              		.syntax unified
 158              	.LBE21:
 159              	.LBE20:
 160              		.loc 1 39 5 view .LVU24
 161              		.loc 1 39 12 is_stmt 0 view .LVU25
 162 0058 4FF04045 		mov	r5, #-1073741824
 163 005c 204C     		ldr	r4, .L8+32
 164 005e 2C60     		str	r4, [r5]
 165              		.loc 1 40 5 is_stmt 1 view .LVU26
 166              	.LBB22:
 167              	.LBI22:
 168              		.loc 2 877 27 view .LVU27
 169              	.LBB23:
 170              		.loc 2 879 3 view .LVU28
 171              		.syntax unified
 172              	@ 879 "../../../os/common/ext/ARM/CMSIS/Core/Include/cmsis_gcc.h" 1
 173 0060 BFF34F8F 		dsb 0xF
 174              	@ 0 "" 2
 175              		.thumb
 176              		.syntax unified
 177              	.LBE23:
 178              	.LBE22:
 179              		.loc 1 41 5 view .LVU29
 180              	.LBB24:
 181              	.LBI24:
 182              		.loc 2 866 27 view .LVU30
 183              	.LBB25:
 184              		.loc 2 868 3 view .LVU31
 185              		.syntax unified
 186              	@ 868 "../../../os/common/ext/ARM/CMSIS/Core/Include/cmsis_gcc.h" 1
 187 0064 BFF36F8F 		isb 0xF
 188              	@ 0 "" 2
 189              		.thumb
 190              		.syntax unified
 191              	.LBE25:
ARM GAS  C:\Users\DEVELO~1\AppData\Local\Temp\ccnOkWUN.s 			page 5


 192              	.LBE24:
 193              		.loc 1 42 5 view .LVU32
 194 0068 1E49     		ldr	r1, .L8+36
 195 006a 1648     		ldr	r0, .L8+4
 196 006c FFF7FEFF 		bl	chprintf
 197              	.LVL12:
 198              		.loc 1 44 5 view .LVU33
 199 0070 1D49     		ldr	r1, .L8+40
 200 0072 1448     		ldr	r0, .L8+4
 201 0074 FFF7FEFF 		bl	chprintf
 202              	.LVL13:
 203              		.loc 1 45 5 view .LVU34
 204              	.LBB26:
 205              	.LBI26:
 206              		.loc 2 877 27 view .LVU35
 207              	.LBB27:
 208              		.loc 2 879 3 view .LVU36
 209              		.syntax unified
 210              	@ 879 "../../../os/common/ext/ARM/CMSIS/Core/Include/cmsis_gcc.h" 1
 211 0078 BFF34F8F 		dsb 0xF
 212              	@ 0 "" 2
 213              		.thumb
 214              		.syntax unified
 215              	.LBE27:
 216              	.LBE26:
 217              		.loc 1 46 5 view .LVU37
 218              	.LBB28:
 219              	.LBI28:
 220              		.loc 2 866 27 view .LVU38
 221              	.LBB29:
 222              		.loc 2 868 3 view .LVU39
 223              		.syntax unified
 224              	@ 868 "../../../os/common/ext/ARM/CMSIS/Core/Include/cmsis_gcc.h" 1
 225 007c BFF36F8F 		isb 0xF
 226              	@ 0 "" 2
 227              		.thumb
 228              		.syntax unified
 229              	.LBE29:
 230              	.LBE28:
 231              		.loc 1 47 5 view .LVU40
 232              		.loc 1 47 14 is_stmt 0 view .LVU41
 233 0080 2D68     		ldr	r5, [r5]
 234              	.LVL14:
 235              		.loc 1 48 5 is_stmt 1 view .LVU42
 236              	.LBB30:
 237              	.LBI30:
 238              		.loc 2 877 27 view .LVU43
 239              	.LBB31:
 240              		.loc 2 879 3 view .LVU44
 241              		.syntax unified
 242              	@ 879 "../../../os/common/ext/ARM/CMSIS/Core/Include/cmsis_gcc.h" 1
 243 0082 BFF34F8F 		dsb 0xF
 244              	@ 0 "" 2
 245              		.thumb
 246              		.syntax unified
 247              	.LBE31:
 248              	.LBE30:
ARM GAS  C:\Users\DEVELO~1\AppData\Local\Temp\ccnOkWUN.s 			page 6


 249              		.loc 1 49 5 view .LVU45
 250              	.LBB32:
 251              	.LBI32:
 252              		.loc 2 866 27 view .LVU46
 253              	.LBB33:
 254              		.loc 2 868 3 view .LVU47
 255              		.syntax unified
 256              	@ 868 "../../../os/common/ext/ARM/CMSIS/Core/Include/cmsis_gcc.h" 1
 257 0086 BFF36F8F 		isb 0xF
 258              	@ 0 "" 2
 259              		.thumb
 260              		.syntax unified
 261              	.LBE33:
 262              	.LBE32:
 263              		.loc 1 50 5 view .LVU48
 264 008a 1849     		ldr	r1, .L8+44
 265 008c 2A46     		mov	r2, r5
 266 008e 0D48     		ldr	r0, .L8+4
 267 0090 FFF7FEFF 		bl	chprintf
 268              	.LVL15:
 269              		.loc 1 52 5 view .LVU49
 270              		.loc 1 52 8 is_stmt 0 view .LVU50
 271 0094 A542     		cmp	r5, r4
 272 0096 0ED0     		beq	.L7
 273              		.loc 1 55 9 is_stmt 1 view .LVU51
 274 0098 1549     		ldr	r1, .L8+48
 275 009a 0A48     		ldr	r0, .L8+4
 276 009c FFF7FEFF 		bl	chprintf
 277              	.LVL16:
 278              	.L4:
 279              		.loc 1 59 9 is_stmt 0 discriminator 1 view .LVU52
 280 00a0 144D     		ldr	r5, .L8+52
 281              	.LVL17:
 282              		.loc 1 59 9 discriminator 1 view .LVU53
 283 00a2 084C     		ldr	r4, .L8+4
 284              	.L3:
 285              		.loc 1 58 5 is_stmt 1 discriminator 1 view .LVU54
 286              		.loc 1 59 9 discriminator 1 view .LVU55
 287 00a4 2946     		mov	r1, r5
 288 00a6 2046     		mov	r0, r4
 289 00a8 FFF7FEFF 		bl	chprintf
 290              	.LVL18:
 291              		.loc 1 60 9 discriminator 1 view .LVU56
 292 00ac 42F21070 		movw	r0, #10000
 293 00b0 FFF7FEFF 		bl	chThdSleep
 294              	.LVL19:
 295              		.loc 1 58 11 discriminator 1 view .LVU57
 296 00b4 F6E7     		b	.L3
 297              	.LVL20:
 298              	.L7:
 299              		.loc 1 53 9 view .LVU58
 300 00b6 1049     		ldr	r1, .L8+56
 301 00b8 0248     		ldr	r0, .L8+4
 302 00ba FFF7FEFF 		bl	chprintf
 303              	.LVL21:
 304 00be EFE7     		b	.L4
 305              	.L9:
ARM GAS  C:\Users\DEVELO~1\AppData\Local\Temp\ccnOkWUN.s 			page 7


 306              		.align	2
 307              	.L8:
 308 00c0 00000000 		.word	.LANCHOR0
 309 00c4 00000000 		.word	SD1
 310 00c8 00000000 		.word	.LC0
 311 00cc 10000000 		.word	.LC1
 312 00d0 24000000 		.word	.LC2
 313 00d4 3C000000 		.word	.LC3
 314 00d8 50000000 		.word	.LC4
 315 00dc 60000000 		.word	.LC5
 316 00e0 78563412 		.word	305419896
 317 00e4 70000000 		.word	.LC6
 318 00e8 80000000 		.word	.LC7
 319 00ec 90000000 		.word	.LC8
 320 00f0 B4000000 		.word	.LC10
 321 00f4 C4000000 		.word	.LC11
 322 00f8 A8000000 		.word	.LC9
 323              		.cfi_endproc
 324              	.LFE432:
 325              		.size	main, .-main
 326              		.section	.rodata.uart_cfg,"a"
 327              		.align	2
 328              		.set	.LANCHOR0,. + 0
 329              		.type	uart_cfg, %object
 330              		.size	uart_cfg, 16
 331              	uart_cfg:
 332 0000 00C20100 		.word	115200
 333 0004 00000000 		.word	0
 334 0008 00000000 		.word	0
 335 000c 00000000 		.word	0
 336              		.text
 337              	.Letext0:
 338              		.file 3 "c:\\chibistudio\\tools\\gnu tools arm embedded\\11.3 2022.08\\lib\\gcc\\arm-none-eabi\\11
 339              		.file 4 "c:\\chibistudio\\tools\\gnu tools arm embedded\\11.3 2022.08\\arm-none-eabi\\include\\mac
 340              		.file 5 "c:\\chibistudio\\tools\\gnu tools arm embedded\\11.3 2022.08\\arm-none-eabi\\include\\sys
 341              		.file 6 "../../../os/common/ports/ARM-common/chtypes.h"
 342              		.file 7 "../../../os/rt/include/chearly.h"
 343              		.file 8 "../../../os/rt/include/chobjects.h"
 344              		.file 9 "../../../os/rt/include/chrfcu.h"
 345              		.file 10 "../../../os/rt/include/chdebug.h"
 346              		.file 11 "../../../os/rt/include/chtime.h"
 347              		.file 12 "../../../os/rt/include/chlists.h"
 348              		.file 13 "../../../os/rt/include/chtrace.h"
 349              		.file 14 "../../../os/common/ext/ST/STM32H7xx/stm32h743xx.h"
 350              		.file 15 "../../../os/common/ports/ARMv7-M/chcore.h"
 351              		.file 16 "../../../os/rt/include/chsem.h"
 352              		.file 17 "../../../os/rt/include/chmtx.h"
 353              		.file 18 "../../../os/rt/include/chevents.h"
 354              		.file 19 "../../../os/hal/include/hal_streams.h"
 355              		.file 20 "../../../os/hal/include/hal_queues.h"
 356              		.file 21 "../../../os/hal/include/hal_serial.h"
 357              		.file 22 "../../../os/hal/ports/STM32/LLD/USARTv3/hal_serial_lld.h"
 358              		.file 23 "../../../os/hal/lib/streams/chprintf.h"
 359              		.file 24 "../../../os/rt/include/chsys.h"
 360              		.file 25 "../../../os/hal/include/hal.h"
 361              		.file 26 "drivers/sdram/sdram_hw_minimal.h"
 362              		.file 27 "../../../os/rt/include/chthreads.h"
ARM GAS  C:\Users\DEVELO~1\AppData\Local\Temp\ccnOkWUN.s 			page 8


 363              		.section	.debug_info,"",%progbits
 364              	.Ldebug_info0:
 365 0000 73110000 		.4byte	0x1173
 366 0004 0500     		.2byte	0x5
 367 0006 01       		.byte	0x1
 368 0007 04       		.byte	0x4
 369 0008 00000000 		.4byte	.Ldebug_abbrev0
 370 000c 1D       		.uleb128 0x1d
 371 000d B9010000 		.4byte	.LASF184
 372 0011 1D       		.byte	0x1d
 373 0012 B9070000 		.4byte	.LASF185
 374 0016 35000000 		.4byte	.LASF186
 375 001a 0C000000 		.4byte	.LLRL2
 376 001e 00000000 		.4byte	0
 377 0022 00000000 		.4byte	.Ldebug_line0
 378 0026 1E       		.uleb128 0x1e
 379 0027 04       		.byte	0x4
 380 0028 05       		.byte	0x5
 381 0029 696E7400 		.ascii	"int\000"
 382 002d 02       		.uleb128 0x2
 383 002e 12000000 		.4byte	.LASF4
 384 0032 03       		.byte	0x3
 385 0033 D1       		.byte	0xd1
 386 0034 17       		.byte	0x17
 387 0035 3E000000 		.4byte	0x3e
 388 0039 13       		.uleb128 0x13
 389 003a 2D000000 		.4byte	0x2d
 390 003e 0B       		.uleb128 0xb
 391 003f 04       		.byte	0x4
 392 0040 07       		.byte	0x7
 393 0041 26030000 		.4byte	.LASF0
 394 0045 0B       		.uleb128 0xb
 395 0046 08       		.byte	0x8
 396 0047 05       		.byte	0x5
 397 0048 15010000 		.4byte	.LASF1
 398 004c 0B       		.uleb128 0xb
 399 004d 08       		.byte	0x8
 400 004e 04       		.byte	0x4
 401 004f C5060000 		.4byte	.LASF2
 402 0053 0B       		.uleb128 0xb
 403 0054 01       		.byte	0x1
 404 0055 06       		.byte	0x6
 405 0056 23010000 		.4byte	.LASF3
 406 005a 02       		.uleb128 0x2
 407 005b 2B000000 		.4byte	.LASF5
 408 005f 04       		.byte	0x4
 409 0060 2B       		.byte	0x2b
 410 0061 18       		.byte	0x18
 411 0062 66000000 		.4byte	0x66
 412 0066 0B       		.uleb128 0xb
 413 0067 01       		.byte	0x1
 414 0068 08       		.byte	0x8
 415 0069 E0050000 		.4byte	.LASF6
 416 006d 0B       		.uleb128 0xb
 417 006e 02       		.byte	0x2
 418 006f 05       		.byte	0x5
 419 0070 F5050000 		.4byte	.LASF7
ARM GAS  C:\Users\DEVELO~1\AppData\Local\Temp\ccnOkWUN.s 			page 9


 420 0074 02       		.uleb128 0x2
 421 0075 03070000 		.4byte	.LASF8
 422 0079 04       		.byte	0x4
 423 007a 39       		.byte	0x39
 424 007b 19       		.byte	0x19
 425 007c 80000000 		.4byte	0x80
 426 0080 0B       		.uleb128 0xb
 427 0081 02       		.byte	0x2
 428 0082 07       		.byte	0x7
 429 0083 B2030000 		.4byte	.LASF9
 430 0087 02       		.uleb128 0x2
 431 0088 DD060000 		.4byte	.LASF10
 432 008c 04       		.byte	0x4
 433 008d 4D       		.byte	0x4d
 434 008e 18       		.byte	0x18
 435 008f 93000000 		.4byte	0x93
 436 0093 0B       		.uleb128 0xb
 437 0094 04       		.byte	0x4
 438 0095 05       		.byte	0x5
 439 0096 8D010000 		.4byte	.LASF11
 440 009a 02       		.uleb128 0x2
 441 009b A7020000 		.4byte	.LASF12
 442 009f 04       		.byte	0x4
 443 00a0 4F       		.byte	0x4f
 444 00a1 19       		.byte	0x19
 445 00a2 A6000000 		.4byte	0xa6
 446 00a6 0B       		.uleb128 0xb
 447 00a7 04       		.byte	0x4
 448 00a8 07       		.byte	0x7
 449 00a9 50010000 		.4byte	.LASF13
 450 00ad 02       		.uleb128 0x2
 451 00ae 7E050000 		.4byte	.LASF14
 452 00b2 04       		.byte	0x4
 453 00b3 69       		.byte	0x69
 454 00b4 19       		.byte	0x19
 455 00b5 B9000000 		.4byte	0xb9
 456 00b9 0B       		.uleb128 0xb
 457 00ba 08       		.byte	0x8
 458 00bb 07       		.byte	0x7
 459 00bc 70010000 		.4byte	.LASF15
 460 00c0 02       		.uleb128 0x2
 461 00c1 0A080000 		.4byte	.LASF16
 462 00c5 05       		.byte	0x5
 463 00c6 18       		.byte	0x18
 464 00c7 13       		.byte	0x13
 465 00c8 5A000000 		.4byte	0x5a
 466 00cc 10       		.uleb128 0x10
 467 00cd C0000000 		.4byte	0xc0
 468 00d1 02       		.uleb128 0x2
 469 00d2 80020000 		.4byte	.LASF17
 470 00d6 05       		.byte	0x5
 471 00d7 24       		.byte	0x24
 472 00d8 14       		.byte	0x14
 473 00d9 74000000 		.4byte	0x74
 474 00dd 02       		.uleb128 0x2
 475 00de D8050000 		.4byte	.LASF18
 476 00e2 05       		.byte	0x5
ARM GAS  C:\Users\DEVELO~1\AppData\Local\Temp\ccnOkWUN.s 			page 10


 477 00e3 2C       		.byte	0x2c
 478 00e4 13       		.byte	0x13
 479 00e5 87000000 		.4byte	0x87
 480 00e9 02       		.uleb128 0x2
 481 00ea 89060000 		.4byte	.LASF19
 482 00ee 05       		.byte	0x5
 483 00ef 30       		.byte	0x30
 484 00f0 14       		.byte	0x14
 485 00f1 9A000000 		.4byte	0x9a
 486 00f5 13       		.uleb128 0x13
 487 00f6 E9000000 		.4byte	0xe9
 488 00fa 02       		.uleb128 0x2
 489 00fb 13050000 		.4byte	.LASF20
 490 00ff 05       		.byte	0x5
 491 0100 3C       		.byte	0x3c
 492 0101 14       		.byte	0x14
 493 0102 AD000000 		.4byte	0xad
 494 0106 13       		.uleb128 0x13
 495 0107 FA000000 		.4byte	0xfa
 496 010b 02       		.uleb128 0x2
 497 010c 99060000 		.4byte	.LASF21
 498 0110 06       		.byte	0x6
 499 0111 48       		.byte	0x48
 500 0112 1D       		.byte	0x1d
 501 0113 FA000000 		.4byte	0xfa
 502 0117 02       		.uleb128 0x2
 503 0118 4C040000 		.4byte	.LASF22
 504 011c 07       		.byte	0x7
 505 011d 50       		.byte	0x50
 506 011e 19       		.byte	0x19
 507 011f 0B010000 		.4byte	0x10b
 508 0123 02       		.uleb128 0x2
 509 0124 00040000 		.4byte	.LASF23
 510 0128 07       		.byte	0x7
 511 0129 53       		.byte	0x53
 512 012a 19       		.byte	0x19
 513 012b C0000000 		.4byte	0xc0
 514 012f 02       		.uleb128 0x2
 515 0130 A8010000 		.4byte	.LASF24
 516 0134 07       		.byte	0x7
 517 0135 54       		.byte	0x54
 518 0136 19       		.byte	0x19
 519 0137 C0000000 		.4byte	0xc0
 520 013b 02       		.uleb128 0x2
 521 013c 93050000 		.4byte	.LASF25
 522 0140 07       		.byte	0x7
 523 0141 55       		.byte	0x55
 524 0142 19       		.byte	0x19
 525 0143 C0000000 		.4byte	0xc0
 526 0147 02       		.uleb128 0x2
 527 0148 B2050000 		.4byte	.LASF26
 528 014c 07       		.byte	0x7
 529 014d 57       		.byte	0x57
 530 014e 19       		.byte	0x19
 531 014f E9000000 		.4byte	0xe9
 532 0153 02       		.uleb128 0x2
 533 0154 DC030000 		.4byte	.LASF27
ARM GAS  C:\Users\DEVELO~1\AppData\Local\Temp\ccnOkWUN.s 			page 11


 534 0158 07       		.byte	0x7
 535 0159 58       		.byte	0x58
 536 015a 19       		.byte	0x19
 537 015b DD000000 		.4byte	0xdd
 538 015f 02       		.uleb128 0x2
 539 0160 1E040000 		.4byte	.LASF28
 540 0164 07       		.byte	0x7
 541 0165 5A       		.byte	0x5a
 542 0166 19       		.byte	0x19
 543 0167 E9000000 		.4byte	0xe9
 544 016b 02       		.uleb128 0x2
 545 016c CF030000 		.4byte	.LASF29
 546 0170 07       		.byte	0x7
 547 0171 5B       		.byte	0x5b
 548 0172 19       		.byte	0x19
 549 0173 E9000000 		.4byte	0xe9
 550 0177 02       		.uleb128 0x2
 551 0178 11030000 		.4byte	.LASF30
 552 017c 07       		.byte	0x7
 553 017d 5C       		.byte	0x5c
 554 017e 19       		.byte	0x19
 555 017f DD000000 		.4byte	0xdd
 556 0183 02       		.uleb128 0x2
 557 0184 89050000 		.4byte	.LASF31
 558 0188 07       		.byte	0x7
 559 0189 80       		.byte	0x80
 560 018a 12       		.byte	0x12
 561 018b 3E000000 		.4byte	0x3e
 562 018f 02       		.uleb128 0x2
 563 0190 0E070000 		.4byte	.LASF32
 564 0194 07       		.byte	0x7
 565 0195 85       		.byte	0x85
 566 0196 1A       		.byte	0x1a
 567 0197 9B010000 		.4byte	0x19b
 568 019b 07       		.uleb128 0x7
 569 019c C5030000 		.4byte	.LASF47
 570 01a0 48       		.byte	0x48
 571 01a1 08       		.byte	0x8
 572 01a2 9C       		.byte	0x9c
 573 01a3 08       		.byte	0x8
 574 01a4 7E020000 		.4byte	0x27e
 575 01a8 08       		.uleb128 0x8
 576 01a9 68647200 		.ascii	"hdr\000"
 577 01ad 08       		.byte	0x8
 578 01ae AD       		.byte	0xad
 579 01af 05       		.byte	0x5
 580 01b0 2E080000 		.4byte	0x82e
 581 01b4 00       		.byte	0
 582 01b5 08       		.uleb128 0x8
 583 01b6 63747800 		.ascii	"ctx\000"
 584 01ba 08       		.byte	0x8
 585 01bb B1       		.byte	0xb1
 586 01bc 21       		.byte	0x21
 587 01bd 72070000 		.4byte	0x772
 588 01c1 0C       		.byte	0xc
 589 01c2 01       		.uleb128 0x1
 590 01c3 76030000 		.4byte	.LASF33
ARM GAS  C:\Users\DEVELO~1\AppData\Local\Temp\ccnOkWUN.s 			page 12


 591 01c7 08       		.byte	0x8
 592 01c8 B6       		.byte	0xb6
 593 01c9 21       		.byte	0x21
 594 01ca D8030000 		.4byte	0x3d8
 595 01ce 10       		.byte	0x10
 596 01cf 01       		.uleb128 0x1
 597 01d0 A9060000 		.4byte	.LASF34
 598 01d4 08       		.byte	0x8
 599 01d5 BB       		.byte	0xbb
 600 01d6 22       		.byte	0x22
 601 01d7 30090000 		.4byte	0x930
 602 01db 18       		.byte	0x18
 603 01dc 01       		.uleb128 0x1
 604 01dd 96030000 		.4byte	.LASF35
 605 01e1 08       		.byte	0x8
 606 01e2 C0       		.byte	0xc0
 607 01e3 22       		.byte	0x22
 608 01e4 66030000 		.4byte	0x366
 609 01e8 1C       		.byte	0x1c
 610 01e9 01       		.uleb128 0x1
 611 01ea D1060000 		.4byte	.LASF36
 612 01ee 08       		.byte	0x8
 613 01ef C9       		.byte	0xc9
 614 01f0 22       		.byte	0x22
 615 01f1 35090000 		.4byte	0x935
 616 01f5 20       		.byte	0x20
 617 01f6 01       		.uleb128 0x1
 618 01f7 87010000 		.4byte	.LASF37
 619 01fb 08       		.byte	0x8
 620 01fc CE       		.byte	0xce
 621 01fd 21       		.byte	0x21
 622 01fe 2F010000 		.4byte	0x12f
 623 0202 24       		.byte	0x24
 624 0203 01       		.uleb128 0x1
 625 0204 12080000 		.4byte	.LASF38
 626 0208 08       		.byte	0x8
 627 0209 D2       		.byte	0xd2
 628 020a 21       		.byte	0x21
 629 020b 23010000 		.4byte	0x123
 630 020f 25       		.byte	0x25
 631 0210 01       		.uleb128 0x1
 632 0211 06010000 		.4byte	.LASF39
 633 0215 08       		.byte	0x8
 634 0216 D7       		.byte	0xd7
 635 0217 21       		.byte	0x21
 636 0218 3B010000 		.4byte	0x13b
 637 021c 26       		.byte	0x26
 638 021d 06       		.uleb128 0x6
 639 021e 7500     		.ascii	"u\000"
 640 0220 08       		.byte	0x8
 641 0221 2801     		.2byte	0x128
 642 0223 21       		.byte	0x21
 643 0224 5B080000 		.4byte	0x85b
 644 0228 28       		.byte	0x28
 645 0229 05       		.uleb128 0x5
 646 022a C2020000 		.4byte	.LASF40
 647 022e 08       		.byte	0x8
ARM GAS  C:\Users\DEVELO~1\AppData\Local\Temp\ccnOkWUN.s 			page 13


 648 022f 2D01     		.2byte	0x12d
 649 0231 21       		.byte	0x21
 650 0232 AC030000 		.4byte	0x3ac
 651 0236 2C       		.byte	0x2c
 652 0237 05       		.uleb128 0x5
 653 0238 17030000 		.4byte	.LASF41
 654 023c 08       		.byte	0x8
 655 023d 3301     		.2byte	0x133
 656 023f 21       		.byte	0x21
 657 0240 D8030000 		.4byte	0x3d8
 658 0244 30       		.byte	0x30
 659 0245 05       		.uleb128 0x5
 660 0246 E2030000 		.4byte	.LASF42
 661 024a 08       		.byte	0x8
 662 024b 3901     		.2byte	0x139
 663 024d 21       		.byte	0x21
 664 024e 5F010000 		.4byte	0x15f
 665 0252 38       		.byte	0x38
 666 0253 05       		.uleb128 0x5
 667 0254 5C080000 		.4byte	.LASF43
 668 0258 08       		.byte	0x8
 669 0259 4001     		.2byte	0x140
 670 025b 22       		.byte	0x22
 671 025c 2B090000 		.4byte	0x92b
 672 0260 3C       		.byte	0x3c
 673 0261 05       		.uleb128 0x5
 674 0262 BC060000 		.4byte	.LASF44
 675 0266 08       		.byte	0x8
 676 0267 4401     		.2byte	0x144
 677 0269 21       		.byte	0x21
 678 026a 47010000 		.4byte	0x147
 679 026e 40       		.byte	0x40
 680 026f 05       		.uleb128 0x5
 681 0270 A1030000 		.4byte	.LASF45
 682 0274 08       		.byte	0x8
 683 0275 4B01     		.2byte	0x14b
 684 0277 22       		.byte	0x22
 685 0278 C6040000 		.4byte	0x4c6
 686 027c 44       		.byte	0x44
 687 027d 00       		.byte	0
 688 027e 02       		.uleb128 0x2
 689 027f 58070000 		.4byte	.LASF46
 690 0283 07       		.byte	0x7
 691 0284 8A       		.byte	0x8a
 692 0285 1F       		.byte	0x1f
 693 0286 8A020000 		.4byte	0x28a
 694 028a 1F       		.uleb128 0x1f
 695 028b 4D050000 		.4byte	.LASF48
 696 028f 9008     		.2byte	0x890
 697 0291 08       		.byte	0x8
 698 0292 8A01     		.2byte	0x18a
 699 0294 08       		.byte	0x8
 700 0295 18030000 		.4byte	0x318
 701 0299 05       		.uleb128 0x5
 702 029a F7070000 		.4byte	.LASF49
 703 029e 08       		.byte	0x8
 704 029f 8E01     		.2byte	0x18e
ARM GAS  C:\Users\DEVELO~1\AppData\Local\Temp\ccnOkWUN.s 			page 14


 705 02a1 21       		.byte	0x21
 706 02a2 65090000 		.4byte	0x965
 707 02a6 00       		.byte	0
 708 02a7 05       		.uleb128 0x5
 709 02a8 97000000 		.4byte	.LASF50
 710 02ac 08       		.byte	0x8
 711 02ad 9201     		.2byte	0x192
 712 02af 21       		.byte	0x21
 713 02b0 C8070000 		.4byte	0x7c8
 714 02b4 10       		.byte	0x10
 715 02b5 05       		.uleb128 0x5
 716 02b6 66070000 		.4byte	.LASF51
 717 02ba 08       		.byte	0x8
 718 02bb 9901     		.2byte	0x199
 719 02bd 21       		.byte	0x21
 720 02be EF070000 		.4byte	0x7ef
 721 02c2 28       		.byte	0x28
 722 02c3 05       		.uleb128 0x5
 723 02c4 44060000 		.4byte	.LASF52
 724 02c8 08       		.byte	0x8
 725 02c9 9E01     		.2byte	0x19e
 726 02cb 21       		.byte	0x21
 727 02cc 83010000 		.4byte	0x183
 728 02d0 30       		.byte	0x30
 729 02d1 05       		.uleb128 0x5
 730 02d2 20000000 		.4byte	.LASF53
 731 02d6 08       		.byte	0x8
 732 02d7 A401     		.2byte	0x1a4
 733 02d9 21       		.byte	0x21
 734 02da 3F030000 		.4byte	0x33f
 735 02de 34       		.byte	0x34
 736 02df 05       		.uleb128 0x5
 737 02e0 E7060000 		.4byte	.LASF54
 738 02e4 08       		.byte	0x8
 739 02e5 A901     		.2byte	0x1a9
 740 02e7 22       		.byte	0x22
 741 02e8 D7090000 		.4byte	0x9d7
 742 02ec 38       		.byte	0x38
 743 02ed 05       		.uleb128 0x5
 744 02ee C6000000 		.4byte	.LASF55
 745 02f2 08       		.byte	0x8
 746 02f3 AD01     		.2byte	0x1ad
 747 02f5 21       		.byte	0x21
 748 02f6 8F010000 		.4byte	0x18f
 749 02fa 3C       		.byte	0x3c
 750 02fb 06       		.uleb128 0x6
 751 02fc 64626700 		.ascii	"dbg\000"
 752 0300 08       		.byte	0x8
 753 0301 B101     		.2byte	0x1b1
 754 0303 21       		.byte	0x21
 755 0304 7C030000 		.4byte	0x37c
 756 0308 84       		.byte	0x84
 757 0309 05       		.uleb128 0x5
 758 030a 1D080000 		.4byte	.LASF56
 759 030e 08       		.byte	0x8
 760 030f B601     		.2byte	0x1b6
 761 0311 21       		.byte	0x21
ARM GAS  C:\Users\DEVELO~1\AppData\Local\Temp\ccnOkWUN.s 			page 15


 762 0312 21060000 		.4byte	0x621
 763 0316 88       		.byte	0x88
 764 0317 00       		.byte	0
 765 0318 02       		.uleb128 0x2
 766 0319 8D040000 		.4byte	.LASF57
 767 031d 09       		.byte	0x9
 768 031e 3F       		.byte	0x3f
 769 031f 12       		.byte	0x12
 770 0320 E9000000 		.4byte	0xe9
 771 0324 07       		.uleb128 0x7
 772 0325 B1010000 		.4byte	.LASF58
 773 0329 04       		.byte	0x4
 774 032a 09       		.byte	0x9
 775 032b 44       		.byte	0x44
 776 032c 10       		.byte	0x10
 777 032d 3F030000 		.4byte	0x33f
 778 0331 01       		.uleb128 0x1
 779 0332 B2020000 		.4byte	.LASF59
 780 0336 09       		.byte	0x9
 781 0337 48       		.byte	0x48
 782 0338 21       		.byte	0x21
 783 0339 18030000 		.4byte	0x318
 784 033d 00       		.byte	0
 785 033e 00       		.byte	0
 786 033f 02       		.uleb128 0x2
 787 0340 EE050000 		.4byte	.LASF60
 788 0344 09       		.byte	0x9
 789 0345 49       		.byte	0x49
 790 0346 03       		.byte	0x3
 791 0347 24030000 		.4byte	0x324
 792 034b 07       		.uleb128 0x7
 793 034c C2050000 		.4byte	.LASF61
 794 0350 04       		.byte	0x4
 795 0351 0A       		.byte	0xa
 796 0352 3E       		.byte	0x3e
 797 0353 10       		.byte	0x10
 798 0354 66030000 		.4byte	0x366
 799 0358 01       		.uleb128 0x1
 800 0359 42070000 		.4byte	.LASF62
 801 035d 0A       		.byte	0xa
 802 035e 46       		.byte	0x46
 803 035f 24       		.byte	0x24
 804 0360 6B030000 		.4byte	0x36b
 805 0364 00       		.byte	0
 806 0365 00       		.byte	0
 807 0366 03       		.uleb128 0x3
 808 0367 77030000 		.4byte	0x377
 809 036b 13       		.uleb128 0x13
 810 036c 66030000 		.4byte	0x366
 811 0370 0B       		.uleb128 0xb
 812 0371 01       		.byte	0x1
 813 0372 08       		.byte	0x8
 814 0373 D8060000 		.4byte	.LASF63
 815 0377 10       		.uleb128 0x10
 816 0378 70030000 		.4byte	0x370
 817 037c 02       		.uleb128 0x2
 818 037d 5A030000 		.4byte	.LASF64
ARM GAS  C:\Users\DEVELO~1\AppData\Local\Temp\ccnOkWUN.s 			page 16


 819 0381 0A       		.byte	0xa
 820 0382 51       		.byte	0x51
 821 0383 03       		.byte	0x3
 822 0384 4B030000 		.4byte	0x34b
 823 0388 02       		.uleb128 0x2
 824 0389 1D070000 		.4byte	.LASF65
 825 038d 0B       		.byte	0xb
 826 038e 6D       		.byte	0x6d
 827 038f 12       		.byte	0x12
 828 0390 E9000000 		.4byte	0xe9
 829 0394 02       		.uleb128 0x2
 830 0395 03030000 		.4byte	.LASF66
 831 0399 0B       		.byte	0xb
 832 039a 79       		.byte	0x79
 833 039b 12       		.byte	0x12
 834 039c E9000000 		.4byte	0xe9
 835 03a0 02       		.uleb128 0x2
 836 03a1 85030000 		.4byte	.LASF67
 837 03a5 0B       		.byte	0xb
 838 03a6 9B       		.byte	0x9b
 839 03a7 12       		.byte	0x12
 840 03a8 FA000000 		.4byte	0xfa
 841 03ac 02       		.uleb128 0x2
 842 03ad FF040000 		.4byte	.LASF68
 843 03b1 0C       		.byte	0xc
 844 03b2 32       		.byte	0x32
 845 03b3 18       		.byte	0x18
 846 03b4 B8030000 		.4byte	0x3b8
 847 03b8 07       		.uleb128 0x7
 848 03b9 08040000 		.4byte	.LASF69
 849 03bd 04       		.byte	0x4
 850 03be 0C       		.byte	0xc
 851 03bf 38       		.byte	0x38
 852 03c0 08       		.byte	0x8
 853 03c1 D3030000 		.4byte	0x3d3
 854 03c5 01       		.uleb128 0x1
 855 03c6 EA000000 		.4byte	.LASF70
 856 03ca 0C       		.byte	0xc
 857 03cb 39       		.byte	0x39
 858 03cc 1A       		.byte	0x1a
 859 03cd D3030000 		.4byte	0x3d3
 860 03d1 00       		.byte	0
 861 03d2 00       		.byte	0
 862 03d3 03       		.uleb128 0x3
 863 03d4 AC030000 		.4byte	0x3ac
 864 03d8 02       		.uleb128 0x2
 865 03d9 B7020000 		.4byte	.LASF71
 866 03dd 0C       		.byte	0xc
 867 03de 3F       		.byte	0x3f
 868 03df 19       		.byte	0x19
 869 03e0 E4030000 		.4byte	0x3e4
 870 03e4 07       		.uleb128 0x7
 871 03e5 6E020000 		.4byte	.LASF72
 872 03e9 08       		.byte	0x8
 873 03ea 0C       		.byte	0xc
 874 03eb 45       		.byte	0x45
 875 03ec 08       		.byte	0x8
ARM GAS  C:\Users\DEVELO~1\AppData\Local\Temp\ccnOkWUN.s 			page 17


 876 03ed 0C040000 		.4byte	0x40c
 877 03f1 01       		.uleb128 0x1
 878 03f2 EA000000 		.4byte	.LASF70
 879 03f6 0C       		.byte	0xc
 880 03f7 46       		.byte	0x46
 881 03f8 1A       		.byte	0x1a
 882 03f9 0C040000 		.4byte	0x40c
 883 03fd 00       		.byte	0
 884 03fe 01       		.uleb128 0x1
 885 03ff 00000000 		.4byte	.LASF73
 886 0403 0C       		.byte	0xc
 887 0404 47       		.byte	0x47
 888 0405 1A       		.byte	0x1a
 889 0406 0C040000 		.4byte	0x40c
 890 040a 04       		.byte	0x4
 891 040b 00       		.byte	0
 892 040c 03       		.uleb128 0x3
 893 040d D8030000 		.4byte	0x3d8
 894 0411 02       		.uleb128 0x2
 895 0412 2E070000 		.4byte	.LASF74
 896 0416 0C       		.byte	0xc
 897 0417 4E       		.byte	0x4e
 898 0418 22       		.byte	0x22
 899 0419 1D040000 		.4byte	0x41d
 900 041d 07       		.uleb128 0x7
 901 041e 6E070000 		.4byte	.LASF75
 902 0422 0C       		.byte	0xc
 903 0423 0C       		.byte	0xc
 904 0424 55       		.byte	0x55
 905 0425 08       		.byte	0x8
 906 0426 52040000 		.4byte	0x452
 907 042a 01       		.uleb128 0x1
 908 042b EA000000 		.4byte	.LASF70
 909 042f 0C       		.byte	0xc
 910 0430 56       		.byte	0x56
 911 0431 1A       		.byte	0x1a
 912 0432 52040000 		.4byte	0x452
 913 0436 00       		.byte	0
 914 0437 01       		.uleb128 0x1
 915 0438 00000000 		.4byte	.LASF73
 916 043c 0C       		.byte	0xc
 917 043d 57       		.byte	0x57
 918 043e 1A       		.byte	0x1a
 919 043f 52040000 		.4byte	0x452
 920 0443 04       		.byte	0x4
 921 0444 01       		.uleb128 0x1
 922 0445 61050000 		.4byte	.LASF76
 923 0449 0C       		.byte	0xc
 924 044a 58       		.byte	0x58
 925 044b 19       		.byte	0x19
 926 044c 47010000 		.4byte	0x147
 927 0450 08       		.byte	0x8
 928 0451 00       		.byte	0
 929 0452 03       		.uleb128 0x3
 930 0453 11040000 		.4byte	0x411
 931 0457 02       		.uleb128 0x2
 932 0458 89070000 		.4byte	.LASF77
ARM GAS  C:\Users\DEVELO~1\AppData\Local\Temp\ccnOkWUN.s 			page 18


 933 045c 0C       		.byte	0xc
 934 045d 5F       		.byte	0x5f
 935 045e 1E       		.byte	0x1e
 936 045f 63040000 		.4byte	0x463
 937 0463 07       		.uleb128 0x7
 938 0464 62010000 		.4byte	.LASF78
 939 0468 0C       		.byte	0xc
 940 0469 0C       		.byte	0xc
 941 046a 64       		.byte	0x64
 942 046b 08       		.byte	0x8
 943 046c 98040000 		.4byte	0x498
 944 0470 01       		.uleb128 0x1
 945 0471 EA000000 		.4byte	.LASF70
 946 0475 0C       		.byte	0xc
 947 0476 65       		.byte	0x65
 948 0477 1A       		.byte	0x1a
 949 0478 98040000 		.4byte	0x498
 950 047c 00       		.byte	0
 951 047d 01       		.uleb128 0x1
 952 047e 00000000 		.4byte	.LASF73
 953 0482 0C       		.byte	0xc
 954 0483 66       		.byte	0x66
 955 0484 1A       		.byte	0x1a
 956 0485 98040000 		.4byte	0x498
 957 0489 04       		.byte	0x4
 958 048a 01       		.uleb128 0x1
 959 048b D9000000 		.4byte	.LASF79
 960 048f 0C       		.byte	0xc
 961 0490 67       		.byte	0x67
 962 0491 19       		.byte	0x19
 963 0492 94030000 		.4byte	0x394
 964 0496 08       		.byte	0x8
 965 0497 00       		.byte	0
 966 0498 03       		.uleb128 0x3
 967 0499 57040000 		.4byte	0x457
 968 049d 0E       		.uleb128 0xe
 969 049e 08       		.byte	0x8
 970 049f 0D       		.byte	0xd
 971 04a0 83       		.byte	0x83
 972 04a1 05       		.byte	0x5
 973 04a2 C1040000 		.4byte	0x4c1
 974 04a6 08       		.uleb128 0x8
 975 04a7 6E747000 		.ascii	"ntp\000"
 976 04ab 0D       		.byte	0xd
 977 04ac 87       		.byte	0x87
 978 04ad 1E       		.byte	0x1e
 979 04ae C1040000 		.4byte	0x4c1
 980 04b2 00       		.byte	0
 981 04b3 01       		.uleb128 0x1
 982 04b4 17060000 		.4byte	.LASF80
 983 04b8 0D       		.byte	0xd
 984 04b9 8B       		.byte	0x8b
 985 04ba 1E       		.byte	0x1e
 986 04bb C6040000 		.4byte	0x4c6
 987 04bf 04       		.byte	0x4
 988 04c0 00       		.byte	0
 989 04c1 03       		.uleb128 0x3
ARM GAS  C:\Users\DEVELO~1\AppData\Local\Temp\ccnOkWUN.s 			page 19


 990 04c2 8F010000 		.4byte	0x18f
 991 04c6 20       		.uleb128 0x20
 992 04c7 04       		.byte	0x4
 993 04c8 0E       		.uleb128 0xe
 994 04c9 08       		.byte	0x8
 995 04ca 0D       		.byte	0xd
 996 04cb 90       		.byte	0x90
 997 04cc 05       		.byte	0x5
 998 04cd EB040000 		.4byte	0x4eb
 999 04d1 08       		.uleb128 0x8
 1000 04d2 747000   		.ascii	"tp\000"
 1001 04d5 0D       		.byte	0xd
 1002 04d6 94       		.byte	0x94
 1003 04d7 1E       		.byte	0x1e
 1004 04d8 C1040000 		.4byte	0x4c1
 1005 04dc 00       		.byte	0
 1006 04dd 08       		.uleb128 0x8
 1007 04de 6D736700 		.ascii	"msg\000"
 1008 04e2 0D       		.byte	0xd
 1009 04e3 98       		.byte	0x98
 1010 04e4 1D       		.byte	0x1d
 1011 04e5 53010000 		.4byte	0x153
 1012 04e9 04       		.byte	0x4
 1013 04ea 00       		.byte	0
 1014 04eb 0E       		.uleb128 0xe
 1015 04ec 04       		.byte	0x4
 1016 04ed 0D       		.byte	0xd
 1017 04ee 9D       		.byte	0x9d
 1018 04ef 05       		.byte	0x5
 1019 04f0 02050000 		.4byte	0x502
 1020 04f4 01       		.uleb128 0x1
 1021 04f5 96030000 		.4byte	.LASF35
 1022 04f9 0D       		.byte	0xd
 1023 04fa A1       		.byte	0xa1
 1024 04fb 1E       		.byte	0x1e
 1025 04fc 66030000 		.4byte	0x366
 1026 0500 00       		.byte	0
 1027 0501 00       		.byte	0
 1028 0502 0E       		.uleb128 0xe
 1029 0503 04       		.byte	0x4
 1030 0504 0D       		.byte	0xd
 1031 0505 A6       		.byte	0xa6
 1032 0506 05       		.byte	0x5
 1033 0507 19050000 		.4byte	0x519
 1034 050b 01       		.uleb128 0x1
 1035 050c 4C060000 		.4byte	.LASF81
 1036 0510 0D       		.byte	0xd
 1037 0511 AA       		.byte	0xaa
 1038 0512 1E       		.byte	0x1e
 1039 0513 66030000 		.4byte	0x366
 1040 0517 00       		.byte	0
 1041 0518 00       		.byte	0
 1042 0519 0E       		.uleb128 0xe
 1043 051a 08       		.byte	0x8
 1044 051b 0D       		.byte	0xd
 1045 051c AF       		.byte	0xaf
 1046 051d 05       		.byte	0x5
ARM GAS  C:\Users\DEVELO~1\AppData\Local\Temp\ccnOkWUN.s 			page 20


 1047 051e 3D050000 		.4byte	0x53d
 1048 0522 08       		.uleb128 0x8
 1049 0523 75703100 		.ascii	"up1\000"
 1050 0527 0D       		.byte	0xd
 1051 0528 B3       		.byte	0xb3
 1052 0529 1E       		.byte	0x1e
 1053 052a C6040000 		.4byte	0x4c6
 1054 052e 00       		.byte	0
 1055 052f 08       		.uleb128 0x8
 1056 0530 75703200 		.ascii	"up2\000"
 1057 0534 0D       		.byte	0xd
 1058 0535 B7       		.byte	0xb7
 1059 0536 1E       		.byte	0x1e
 1060 0537 C6040000 		.4byte	0x4c6
 1061 053b 04       		.byte	0x4
 1062 053c 00       		.byte	0
 1063 053d 15       		.uleb128 0x15
 1064 053e 08       		.byte	0x8
 1065 053f 0D       		.byte	0xd
 1066 0540 7F       		.byte	0x7f
 1067 0541 7B050000 		.4byte	0x57b
 1068 0545 16       		.uleb128 0x16
 1069 0546 737700   		.ascii	"sw\000"
 1070 0549 8C       		.byte	0x8c
 1071 054a 9D040000 		.4byte	0x49d
 1072 054e 16       		.uleb128 0x16
 1073 054f 72647900 		.ascii	"rdy\000"
 1074 0553 99       		.byte	0x99
 1075 0554 C8040000 		.4byte	0x4c8
 1076 0558 16       		.uleb128 0x16
 1077 0559 69737200 		.ascii	"isr\000"
 1078 055d A2       		.byte	0xa2
 1079 055e EB040000 		.4byte	0x4eb
 1080 0562 0F       		.uleb128 0xf
 1081 0563 B8000000 		.4byte	.LASF82
 1082 0567 0D       		.byte	0xd
 1083 0568 AB       		.byte	0xab
 1084 0569 07       		.byte	0x7
 1085 056a 02050000 		.4byte	0x502
 1086 056e 0F       		.uleb128 0xf
 1087 056f AD050000 		.4byte	.LASF83
 1088 0573 0D       		.byte	0xd
 1089 0574 B8       		.byte	0xb8
 1090 0575 07       		.byte	0x7
 1091 0576 19050000 		.4byte	0x519
 1092 057a 00       		.byte	0
 1093 057b 0E       		.uleb128 0xe
 1094 057c 10       		.byte	0x10
 1095 057d 0D       		.byte	0xd
 1096 057e 6C       		.byte	0x6c
 1097 057f 09       		.byte	0x9
 1098 0580 C1050000 		.4byte	0x5c1
 1099 0584 17       		.uleb128 0x17
 1100 0585 A5000000 		.4byte	.LASF84
 1101 0589 70       		.byte	0x70
 1102 058a E9000000 		.4byte	0xe9
 1103 058e 03       		.byte	0x3
ARM GAS  C:\Users\DEVELO~1\AppData\Local\Temp\ccnOkWUN.s 			page 21


 1104 058f 00       		.byte	0
 1105 0590 17       		.uleb128 0x17
 1106 0591 87010000 		.4byte	.LASF37
 1107 0595 74       		.byte	0x74
 1108 0596 E9000000 		.4byte	0xe9
 1109 059a 05       		.byte	0x5
 1110 059b 03       		.byte	0x3
 1111 059c 17       		.uleb128 0x17
 1112 059d 57040000 		.4byte	.LASF85
 1113 05a1 7A       		.byte	0x7a
 1114 05a2 E9000000 		.4byte	0xe9
 1115 05a6 18       		.byte	0x18
 1116 05a7 08       		.byte	0x8
 1117 05a8 01       		.uleb128 0x1
 1118 05a9 5C050000 		.4byte	.LASF86
 1119 05ad 0D       		.byte	0xd
 1120 05ae 7E       		.byte	0x7e
 1121 05af 19       		.byte	0x19
 1122 05b0 88030000 		.4byte	0x388
 1123 05b4 04       		.byte	0x4
 1124 05b5 08       		.uleb128 0x8
 1125 05b6 7500     		.ascii	"u\000"
 1126 05b8 0D       		.byte	0xd
 1127 05b9 B9       		.byte	0xb9
 1128 05ba 05       		.byte	0x5
 1129 05bb 3D050000 		.4byte	0x53d
 1130 05bf 08       		.byte	0x8
 1131 05c0 00       		.byte	0
 1132 05c1 02       		.uleb128 0x2
 1133 05c2 AA000000 		.4byte	.LASF87
 1134 05c6 0D       		.byte	0xd
 1135 05c7 BA       		.byte	0xba
 1136 05c8 03       		.byte	0x3
 1137 05c9 7B050000 		.4byte	0x57b
 1138 05cd 21       		.uleb128 0x21
 1139 05ce 0808     		.2byte	0x808
 1140 05d0 0D       		.byte	0xd
 1141 05d1 C0       		.byte	0xc0
 1142 05d2 09       		.byte	0x9
 1143 05d3 0C060000 		.4byte	0x60c
 1144 05d7 01       		.uleb128 0x1
 1145 05d8 09050000 		.4byte	.LASF88
 1146 05dc 0D       		.byte	0xd
 1147 05dd C4       		.byte	0xc4
 1148 05de 19       		.byte	0x19
 1149 05df D1000000 		.4byte	0xd1
 1150 05e3 00       		.byte	0
 1151 05e4 01       		.uleb128 0x1
 1152 05e5 AD030000 		.4byte	.LASF89
 1153 05e9 0D       		.byte	0xd
 1154 05ea C8       		.byte	0xc8
 1155 05eb 19       		.byte	0x19
 1156 05ec D1000000 		.4byte	0xd1
 1157 05f0 02       		.byte	0x2
 1158 05f1 08       		.uleb128 0x8
 1159 05f2 70747200 		.ascii	"ptr\000"
 1160 05f6 0D       		.byte	0xd
ARM GAS  C:\Users\DEVELO~1\AppData\Local\Temp\ccnOkWUN.s 			page 22


 1161 05f7 CC       		.byte	0xcc
 1162 05f8 1A       		.byte	0x1a
 1163 05f9 0C060000 		.4byte	0x60c
 1164 05fd 04       		.byte	0x4
 1165 05fe 01       		.uleb128 0x1
 1166 05ff 27070000 		.4byte	.LASF90
 1167 0603 0D       		.byte	0xd
 1168 0604 D0       		.byte	0xd0
 1169 0605 19       		.byte	0x19
 1170 0606 11060000 		.4byte	0x611
 1171 060a 08       		.byte	0x8
 1172 060b 00       		.byte	0
 1173 060c 03       		.uleb128 0x3
 1174 060d C1050000 		.4byte	0x5c1
 1175 0611 22       		.uleb128 0x22
 1176 0612 C1050000 		.4byte	0x5c1
 1177 0616 21060000 		.4byte	0x621
 1178 061a 23       		.uleb128 0x23
 1179 061b 3E000000 		.4byte	0x3e
 1180 061f 7F       		.byte	0x7f
 1181 0620 00       		.byte	0
 1182 0621 02       		.uleb128 0x2
 1183 0622 08060000 		.4byte	.LASF91
 1184 0626 0D       		.byte	0xd
 1185 0627 D1       		.byte	0xd1
 1186 0628 03       		.byte	0x3
 1187 0629 CD050000 		.4byte	0x5cd
 1188 062d 24       		.uleb128 0x24
 1189 062e 30       		.byte	0x30
 1190 062f 0E       		.byte	0xe
 1191 0630 3906     		.2byte	0x639
 1192 0632 09       		.byte	0x9
 1193 0633 E0060000 		.4byte	0x6e0
 1194 0637 06       		.uleb128 0x6
 1195 0638 43523100 		.ascii	"CR1\000"
 1196 063c 0E       		.byte	0xe
 1197 063d 3B06     		.2byte	0x63b
 1198 063f 11       		.byte	0x11
 1199 0640 F5000000 		.4byte	0xf5
 1200 0644 00       		.byte	0
 1201 0645 06       		.uleb128 0x6
 1202 0646 43523200 		.ascii	"CR2\000"
 1203 064a 0E       		.byte	0xe
 1204 064b 3C06     		.2byte	0x63c
 1205 064d 11       		.byte	0x11
 1206 064e F5000000 		.4byte	0xf5
 1207 0652 04       		.byte	0x4
 1208 0653 06       		.uleb128 0x6
 1209 0654 43523300 		.ascii	"CR3\000"
 1210 0658 0E       		.byte	0xe
 1211 0659 3D06     		.2byte	0x63d
 1212 065b 11       		.byte	0x11
 1213 065c F5000000 		.4byte	0xf5
 1214 0660 08       		.byte	0x8
 1215 0661 06       		.uleb128 0x6
 1216 0662 42525200 		.ascii	"BRR\000"
 1217 0666 0E       		.byte	0xe
ARM GAS  C:\Users\DEVELO~1\AppData\Local\Temp\ccnOkWUN.s 			page 23


 1218 0667 3E06     		.2byte	0x63e
 1219 0669 11       		.byte	0x11
 1220 066a F5000000 		.4byte	0xf5
 1221 066e 0C       		.byte	0xc
 1222 066f 05       		.uleb128 0x5
 1223 0670 4B010000 		.4byte	.LASF92
 1224 0674 0E       		.byte	0xe
 1225 0675 3F06     		.2byte	0x63f
 1226 0677 11       		.byte	0x11
 1227 0678 F5000000 		.4byte	0xf5
 1228 067c 10       		.byte	0x10
 1229 067d 05       		.uleb128 0x5
 1230 067e 53070000 		.4byte	.LASF93
 1231 0682 0E       		.byte	0xe
 1232 0683 4006     		.2byte	0x640
 1233 0685 11       		.byte	0x11
 1234 0686 F5000000 		.4byte	0xf5
 1235 068a 14       		.byte	0x14
 1236 068b 06       		.uleb128 0x6
 1237 068c 52515200 		.ascii	"RQR\000"
 1238 0690 0E       		.byte	0xe
 1239 0691 4106     		.2byte	0x641
 1240 0693 11       		.byte	0x11
 1241 0694 F5000000 		.4byte	0xf5
 1242 0698 18       		.byte	0x18
 1243 0699 06       		.uleb128 0x6
 1244 069a 49535200 		.ascii	"ISR\000"
 1245 069e 0E       		.byte	0xe
 1246 069f 4206     		.2byte	0x642
 1247 06a1 11       		.byte	0x11
 1248 06a2 F5000000 		.4byte	0xf5
 1249 06a6 1C       		.byte	0x1c
 1250 06a7 06       		.uleb128 0x6
 1251 06a8 49435200 		.ascii	"ICR\000"
 1252 06ac 0E       		.byte	0xe
 1253 06ad 4306     		.2byte	0x643
 1254 06af 11       		.byte	0x11
 1255 06b0 F5000000 		.4byte	0xf5
 1256 06b4 20       		.byte	0x20
 1257 06b5 06       		.uleb128 0x6
 1258 06b6 52445200 		.ascii	"RDR\000"
 1259 06ba 0E       		.byte	0xe
 1260 06bb 4406     		.2byte	0x644
 1261 06bd 11       		.byte	0x11
 1262 06be F5000000 		.4byte	0xf5
 1263 06c2 24       		.byte	0x24
 1264 06c3 06       		.uleb128 0x6
 1265 06c4 54445200 		.ascii	"TDR\000"
 1266 06c8 0E       		.byte	0xe
 1267 06c9 4506     		.2byte	0x645
 1268 06cb 11       		.byte	0x11
 1269 06cc F5000000 		.4byte	0xf5
 1270 06d0 28       		.byte	0x28
 1271 06d1 05       		.uleb128 0x5
 1272 06d2 A1020000 		.4byte	.LASF94
 1273 06d6 0E       		.byte	0xe
 1274 06d7 4606     		.2byte	0x646
ARM GAS  C:\Users\DEVELO~1\AppData\Local\Temp\ccnOkWUN.s 			page 24


 1275 06d9 11       		.byte	0x11
 1276 06da F5000000 		.4byte	0xf5
 1277 06de 2C       		.byte	0x2c
 1278 06df 00       		.byte	0
 1279 06e0 14       		.uleb128 0x14
 1280 06e1 EB030000 		.4byte	.LASF95
 1281 06e5 0E       		.byte	0xe
 1282 06e6 4706     		.2byte	0x647
 1283 06e8 2D060000 		.4byte	0x62d
 1284 06ec 12       		.uleb128 0x12
 1285 06ed 8B000000 		.4byte	.LASF96
 1286 06f1 24       		.byte	0x24
 1287 06f2 0F       		.byte	0xf
 1288 06f3 E001     		.2byte	0x1e0
 1289 06f5 08       		.byte	0x8
 1290 06f6 72070000 		.4byte	0x772
 1291 06fa 06       		.uleb128 0x6
 1292 06fb 723400   		.ascii	"r4\000"
 1293 06fe 0F       		.byte	0xf
 1294 06ff F901     		.2byte	0x1f9
 1295 0701 11       		.byte	0x11
 1296 0702 E9000000 		.4byte	0xe9
 1297 0706 00       		.byte	0
 1298 0707 06       		.uleb128 0x6
 1299 0708 723500   		.ascii	"r5\000"
 1300 070b 0F       		.byte	0xf
 1301 070c FA01     		.2byte	0x1fa
 1302 070e 11       		.byte	0x11
 1303 070f E9000000 		.4byte	0xe9
 1304 0713 04       		.byte	0x4
 1305 0714 06       		.uleb128 0x6
 1306 0715 723600   		.ascii	"r6\000"
 1307 0718 0F       		.byte	0xf
 1308 0719 FB01     		.2byte	0x1fb
 1309 071b 11       		.byte	0x11
 1310 071c E9000000 		.4byte	0xe9
 1311 0720 08       		.byte	0x8
 1312 0721 06       		.uleb128 0x6
 1313 0722 723700   		.ascii	"r7\000"
 1314 0725 0F       		.byte	0xf
 1315 0726 FC01     		.2byte	0x1fc
 1316 0728 11       		.byte	0x11
 1317 0729 E9000000 		.4byte	0xe9
 1318 072d 0C       		.byte	0xc
 1319 072e 06       		.uleb128 0x6
 1320 072f 723800   		.ascii	"r8\000"
 1321 0732 0F       		.byte	0xf
 1322 0733 FD01     		.2byte	0x1fd
 1323 0735 11       		.byte	0x11
 1324 0736 E9000000 		.4byte	0xe9
 1325 073a 10       		.byte	0x10
 1326 073b 06       		.uleb128 0x6
 1327 073c 723900   		.ascii	"r9\000"
 1328 073f 0F       		.byte	0xf
 1329 0740 FE01     		.2byte	0x1fe
 1330 0742 11       		.byte	0x11
 1331 0743 E9000000 		.4byte	0xe9
ARM GAS  C:\Users\DEVELO~1\AppData\Local\Temp\ccnOkWUN.s 			page 25


 1332 0747 14       		.byte	0x14
 1333 0748 06       		.uleb128 0x6
 1334 0749 72313000 		.ascii	"r10\000"
 1335 074d 0F       		.byte	0xf
 1336 074e FF01     		.2byte	0x1ff
 1337 0750 11       		.byte	0x11
 1338 0751 E9000000 		.4byte	0xe9
 1339 0755 18       		.byte	0x18
 1340 0756 06       		.uleb128 0x6
 1341 0757 72313100 		.ascii	"r11\000"
 1342 075b 0F       		.byte	0xf
 1343 075c 0002     		.2byte	0x200
 1344 075e 11       		.byte	0x11
 1345 075f E9000000 		.4byte	0xe9
 1346 0763 1C       		.byte	0x1c
 1347 0764 06       		.uleb128 0x6
 1348 0765 6C7200   		.ascii	"lr\000"
 1349 0768 0F       		.byte	0xf
 1350 0769 0102     		.2byte	0x201
 1351 076b 11       		.byte	0x11
 1352 076c E9000000 		.4byte	0xe9
 1353 0770 20       		.byte	0x20
 1354 0771 00       		.byte	0
 1355 0772 12       		.uleb128 0x12
 1356 0773 40050000 		.4byte	.LASF97
 1357 0777 04       		.byte	0x4
 1358 0778 0F       		.byte	0xf
 1359 0779 0A02     		.2byte	0x20a
 1360 077b 08       		.byte	0x8
 1361 077c 8E070000 		.4byte	0x78e
 1362 0780 06       		.uleb128 0x6
 1363 0781 737000   		.ascii	"sp\000"
 1364 0784 0F       		.byte	0xf
 1365 0785 0B02     		.2byte	0x20b
 1366 0787 1A       		.byte	0x1a
 1367 0788 8E070000 		.4byte	0x78e
 1368 078c 00       		.byte	0
 1369 078d 00       		.byte	0
 1370 078e 03       		.uleb128 0x3
 1371 078f EC060000 		.4byte	0x6ec
 1372 0793 07       		.uleb128 0x7
 1373 0794 BC040000 		.4byte	.LASF98
 1374 0798 18       		.byte	0x18
 1375 0799 08       		.byte	0x8
 1376 079a 64       		.byte	0x64
 1377 079b 10       		.byte	0x10
 1378 079c C8070000 		.4byte	0x7c8
 1379 07a0 01       		.uleb128 0x1
 1380 07a1 17070000 		.4byte	.LASF99
 1381 07a5 08       		.byte	0x8
 1382 07a6 68       		.byte	0x68
 1383 07a7 21       		.byte	0x21
 1384 07a8 57040000 		.4byte	0x457
 1385 07ac 00       		.byte	0
 1386 07ad 01       		.uleb128 0x1
 1387 07ae FF050000 		.4byte	.LASF100
 1388 07b2 08       		.byte	0x8
ARM GAS  C:\Users\DEVELO~1\AppData\Local\Temp\ccnOkWUN.s 			page 26


 1389 07b3 73       		.byte	0x73
 1390 07b4 21       		.byte	0x21
 1391 07b5 88030000 		.4byte	0x388
 1392 07b9 0C       		.byte	0xc
 1393 07ba 01       		.uleb128 0x1
 1394 07bb 5F040000 		.4byte	.LASF101
 1395 07bf 08       		.byte	0x8
 1396 07c0 79       		.byte	0x79
 1397 07c1 21       		.byte	0x21
 1398 07c2 06010000 		.4byte	0x106
 1399 07c6 10       		.byte	0x10
 1400 07c7 00       		.byte	0
 1401 07c8 02       		.uleb128 0x2
 1402 07c9 36040000 		.4byte	.LASF102
 1403 07cd 08       		.byte	0x8
 1404 07ce 7B       		.byte	0x7b
 1405 07cf 03       		.byte	0x3
 1406 07d0 93070000 		.4byte	0x793
 1407 07d4 07       		.uleb128 0x7
 1408 07d5 89020000 		.4byte	.LASF103
 1409 07d9 08       		.byte	0x8
 1410 07da 08       		.byte	0x8
 1411 07db 80       		.byte	0x80
 1412 07dc 10       		.byte	0x10
 1413 07dd EF070000 		.4byte	0x7ef
 1414 07e1 01       		.uleb128 0x1
 1415 07e2 9B030000 		.4byte	.LASF104
 1416 07e6 08       		.byte	0x8
 1417 07e7 84       		.byte	0x84
 1418 07e8 21       		.byte	0x21
 1419 07e9 D8030000 		.4byte	0x3d8
 1420 07ed 00       		.byte	0
 1421 07ee 00       		.byte	0
 1422 07ef 02       		.uleb128 0x2
 1423 07f0 99070000 		.4byte	.LASF105
 1424 07f4 08       		.byte	0x8
 1425 07f5 85       		.byte	0x85
 1426 07f6 03       		.byte	0x3
 1427 07f7 D4070000 		.4byte	0x7d4
 1428 07fb 02       		.uleb128 0x2
 1429 07fc A0040000 		.4byte	.LASF106
 1430 0800 08       		.byte	0x8
 1431 0801 8A       		.byte	0x8a
 1432 0802 14       		.byte	0x14
 1433 0803 C1040000 		.4byte	0x4c1
 1434 0807 07       		.uleb128 0x7
 1435 0808 EF000000 		.4byte	.LASF107
 1436 080c 08       		.byte	0x8
 1437 080d 08       		.byte	0x8
 1438 080e 8F       		.byte	0x8f
 1439 080f 10       		.byte	0x10
 1440 0810 22080000 		.4byte	0x822
 1441 0814 01       		.uleb128 0x1
 1442 0815 9B030000 		.4byte	.LASF104
 1443 0819 08       		.byte	0x8
 1444 081a 93       		.byte	0x93
 1445 081b 21       		.byte	0x21
ARM GAS  C:\Users\DEVELO~1\AppData\Local\Temp\ccnOkWUN.s 			page 27


 1446 081c D8030000 		.4byte	0x3d8
 1447 0820 00       		.byte	0
 1448 0821 00       		.byte	0
 1449 0822 02       		.uleb128 0x2
 1450 0823 53060000 		.4byte	.LASF108
 1451 0827 08       		.byte	0x8
 1452 0828 94       		.byte	0x94
 1453 0829 03       		.byte	0x3
 1454 082a 07080000 		.4byte	0x807
 1455 082e 15       		.uleb128 0x15
 1456 082f 0C       		.byte	0xc
 1457 0830 08       		.byte	0x8
 1458 0831 A0       		.byte	0xa0
 1459 0832 5B080000 		.4byte	0x85b
 1460 0836 0F       		.uleb128 0xf
 1461 0837 40080000 		.4byte	.LASF109
 1462 083b 08       		.byte	0x8
 1463 083c A4       		.byte	0xa4
 1464 083d 21       		.byte	0x21
 1465 083e AC030000 		.4byte	0x3ac
 1466 0842 0F       		.uleb128 0xf
 1467 0843 9B030000 		.4byte	.LASF104
 1468 0847 08       		.byte	0x8
 1469 0848 A8       		.byte	0xa8
 1470 0849 21       		.byte	0x21
 1471 084a D8030000 		.4byte	0x3d8
 1472 084e 0F       		.uleb128 0xf
 1473 084f 4C070000 		.4byte	.LASF110
 1474 0853 08       		.byte	0x8
 1475 0854 AC       		.byte	0xac
 1476 0855 21       		.byte	0x21
 1477 0856 11040000 		.4byte	0x411
 1478 085a 00       		.byte	0
 1479 085b 15       		.uleb128 0x15
 1480 085c 04       		.byte	0x4
 1481 085d 08       		.byte	0x8
 1482 085e EB       		.byte	0xeb
 1483 085f C4080000 		.4byte	0x8c4
 1484 0863 0F       		.uleb128 0xf
 1485 0864 19000000 		.4byte	.LASF111
 1486 0868 08       		.byte	0x8
 1487 0869 F2       		.byte	0xf2
 1488 086a 21       		.byte	0x21
 1489 086b 53010000 		.4byte	0x153
 1490 086f 0F       		.uleb128 0xf
 1491 0870 BD000000 		.4byte	.LASF112
 1492 0874 08       		.byte	0x8
 1493 0875 F9       		.byte	0xf9
 1494 0876 21       		.byte	0x21
 1495 0877 53010000 		.4byte	0x153
 1496 087b 11       		.uleb128 0x11
 1497 087c 17060000 		.4byte	.LASF80
 1498 0880 0001     		.2byte	0x100
 1499 0882 22       		.byte	0x22
 1500 0883 C6040000 		.4byte	0x4c6
 1501 0887 11       		.uleb128 0x11
 1502 0888 70030000 		.4byte	.LASF113
ARM GAS  C:\Users\DEVELO~1\AppData\Local\Temp\ccnOkWUN.s 			page 28


 1503 088c 0701     		.2byte	0x107
 1504 088e 22       		.byte	0x22
 1505 088f C4080000 		.4byte	0x8c4
 1506 0893 11       		.uleb128 0x11
 1507 0894 D1000000 		.4byte	.LASF114
 1508 0898 0C01     		.2byte	0x10c
 1509 089a 21       		.byte	0x21
 1510 089b 53010000 		.4byte	0x153
 1511 089f 11       		.uleb128 0x11
 1512 08a0 53030000 		.4byte	.LASF115
 1513 08a4 1501     		.2byte	0x115
 1514 08a6 22       		.byte	0x22
 1515 08a7 F1080000 		.4byte	0x8f1
 1516 08ab 11       		.uleb128 0x11
 1517 08ac 92060000 		.4byte	.LASF116
 1518 08b0 1E01     		.2byte	0x11e
 1519 08b2 22       		.byte	0x22
 1520 08b3 2B090000 		.4byte	0x92b
 1521 08b7 11       		.uleb128 0x11
 1522 08b8 1E060000 		.4byte	.LASF117
 1523 08bc 2601     		.2byte	0x126
 1524 08be 21       		.byte	0x21
 1525 08bf 5F010000 		.4byte	0x15f
 1526 08c3 00       		.byte	0
 1527 08c4 03       		.uleb128 0x3
 1528 08c5 FB070000 		.4byte	0x7fb
 1529 08c9 07       		.uleb128 0x7
 1530 08ca 63060000 		.4byte	.LASF118
 1531 08ce 0C       		.byte	0xc
 1532 08cf 10       		.byte	0x10
 1533 08d0 34       		.byte	0x34
 1534 08d1 10       		.byte	0x10
 1535 08d2 F1080000 		.4byte	0x8f1
 1536 08d6 01       		.uleb128 0x1
 1537 08d7 9B030000 		.4byte	.LASF104
 1538 08db 10       		.byte	0x10
 1539 08dc 35       		.byte	0x35
 1540 08dd 19       		.byte	0x19
 1541 08de D8030000 		.4byte	0x3d8
 1542 08e2 00       		.byte	0
 1543 08e3 08       		.uleb128 0x8
 1544 08e4 636E7400 		.ascii	"cnt\000"
 1545 08e8 10       		.byte	0x10
 1546 08e9 37       		.byte	0x37
 1547 08ea 19       		.byte	0x19
 1548 08eb 77010000 		.4byte	0x177
 1549 08ef 08       		.byte	0x8
 1550 08f0 00       		.byte	0
 1551 08f1 03       		.uleb128 0x3
 1552 08f2 C9080000 		.4byte	0x8c9
 1553 08f6 07       		.uleb128 0x7
 1554 08f7 E5070000 		.4byte	.LASF119
 1555 08fb 10       		.byte	0x10
 1556 08fc 11       		.byte	0x11
 1557 08fd 39       		.byte	0x39
 1558 08fe 08       		.byte	0x8
 1559 08ff 2B090000 		.4byte	0x92b
ARM GAS  C:\Users\DEVELO~1\AppData\Local\Temp\ccnOkWUN.s 			page 29


 1560 0903 01       		.uleb128 0x1
 1561 0904 9B030000 		.4byte	.LASF104
 1562 0908 11       		.byte	0x11
 1563 0909 3A       		.byte	0x3a
 1564 090a 19       		.byte	0x19
 1565 090b D8030000 		.4byte	0x3d8
 1566 090f 00       		.byte	0
 1567 0910 01       		.uleb128 0x1
 1568 0911 A9060000 		.4byte	.LASF34
 1569 0915 11       		.byte	0x11
 1570 0916 3C       		.byte	0x3c
 1571 0917 1A       		.byte	0x1a
 1572 0918 C1040000 		.4byte	0x4c1
 1573 091c 08       		.byte	0x8
 1574 091d 01       		.uleb128 0x1
 1575 091e EA000000 		.4byte	.LASF70
 1576 0922 11       		.byte	0x11
 1577 0923 3E       		.byte	0x3e
 1578 0924 1A       		.byte	0x1a
 1579 0925 E8090000 		.4byte	0x9e8
 1580 0929 0C       		.byte	0xc
 1581 092a 00       		.byte	0
 1582 092b 03       		.uleb128 0x3
 1583 092c F6080000 		.4byte	0x8f6
 1584 0930 03       		.uleb128 0x3
 1585 0931 7E020000 		.4byte	0x27e
 1586 0935 03       		.uleb128 0x3
 1587 0936 17010000 		.4byte	0x117
 1588 093a 12       		.uleb128 0x12
 1589 093b 10040000 		.4byte	.LASF120
 1590 093f 10       		.byte	0x10
 1591 0940 08       		.byte	0x8
 1592 0941 5C01     		.2byte	0x15c
 1593 0943 10       		.byte	0x10
 1594 0944 65090000 		.4byte	0x965
 1595 0948 05       		.uleb128 0x5
 1596 0949 4C070000 		.4byte	.LASF110
 1597 094d 08       		.byte	0x8
 1598 094e 6101     		.2byte	0x161
 1599 0950 21       		.byte	0x21
 1600 0951 11040000 		.4byte	0x411
 1601 0955 00       		.byte	0
 1602 0956 05       		.uleb128 0x5
 1603 0957 70060000 		.4byte	.LASF121
 1604 095b 08       		.byte	0x8
 1605 095c 6501     		.2byte	0x165
 1606 095e 22       		.byte	0x22
 1607 095f C1040000 		.4byte	0x4c1
 1608 0963 0C       		.byte	0xc
 1609 0964 00       		.byte	0
 1610 0965 14       		.uleb128 0x14
 1611 0966 05000000 		.4byte	.LASF122
 1612 096a 08       		.byte	0x8
 1613 096b 6601     		.2byte	0x166
 1614 096d 3A090000 		.4byte	0x93a
 1615 0971 12       		.uleb128 0x12
 1616 0972 2A050000 		.4byte	.LASF123
ARM GAS  C:\Users\DEVELO~1\AppData\Local\Temp\ccnOkWUN.s 			page 30


 1617 0976 14       		.byte	0x14
 1618 0977 08       		.byte	0x8
 1619 0978 6B01     		.2byte	0x16b
 1620 097a 10       		.byte	0x10
 1621 097b C6090000 		.4byte	0x9c6
 1622 097f 05       		.uleb128 0x5
 1623 0980 96030000 		.4byte	.LASF35
 1624 0984 08       		.byte	0x8
 1625 0985 6F01     		.2byte	0x16f
 1626 0987 22       		.byte	0x22
 1627 0988 66030000 		.4byte	0x366
 1628 098c 00       		.byte	0
 1629 098d 05       		.uleb128 0x5
 1630 098e D3020000 		.4byte	.LASF124
 1631 0992 08       		.byte	0x8
 1632 0993 7501     		.2byte	0x175
 1633 0995 22       		.byte	0x22
 1634 0996 35090000 		.4byte	0x935
 1635 099a 04       		.byte	0x4
 1636 099b 05       		.uleb128 0x5
 1637 099c A4070000 		.4byte	.LASF125
 1638 09a0 08       		.byte	0x8
 1639 09a1 7901     		.2byte	0x179
 1640 09a3 22       		.byte	0x22
 1641 09a4 35090000 		.4byte	0x935
 1642 09a8 08       		.byte	0x8
 1643 09a9 05       		.uleb128 0x5
 1644 09aa 33030000 		.4byte	.LASF126
 1645 09ae 08       		.byte	0x8
 1646 09af 7F01     		.2byte	0x17f
 1647 09b1 22       		.byte	0x22
 1648 09b2 35090000 		.4byte	0x935
 1649 09b6 0C       		.byte	0xc
 1650 09b7 05       		.uleb128 0x5
 1651 09b8 4D080000 		.4byte	.LASF127
 1652 09bc 08       		.byte	0x8
 1653 09bd 8301     		.2byte	0x183
 1654 09bf 22       		.byte	0x22
 1655 09c0 35090000 		.4byte	0x935
 1656 09c4 10       		.byte	0x10
 1657 09c5 00       		.byte	0
 1658 09c6 14       		.uleb128 0x14
 1659 09c7 CA070000 		.4byte	.LASF128
 1660 09cb 08       		.byte	0x8
 1661 09cc 8501     		.2byte	0x185
 1662 09ce 71090000 		.4byte	0x971
 1663 09d2 10       		.uleb128 0x10
 1664 09d3 C6090000 		.4byte	0x9c6
 1665 09d7 03       		.uleb128 0x3
 1666 09d8 D2090000 		.4byte	0x9d2
 1667 09dc 02       		.uleb128 0x2
 1668 09dd E3020000 		.4byte	.LASF129
 1669 09e1 11       		.byte	0x11
 1670 09e2 34       		.byte	0x34
 1671 09e3 19       		.byte	0x19
 1672 09e4 F6080000 		.4byte	0x8f6
 1673 09e8 03       		.uleb128 0x3
ARM GAS  C:\Users\DEVELO~1\AppData\Local\Temp\ccnOkWUN.s 			page 31


 1674 09e9 DC090000 		.4byte	0x9dc
 1675 09ed 02       		.uleb128 0x2
 1676 09ee 69040000 		.4byte	.LASF130
 1677 09f2 12       		.byte	0x12
 1678 09f3 34       		.byte	0x34
 1679 09f4 1F       		.byte	0x1f
 1680 09f5 F9090000 		.4byte	0x9f9
 1681 09f9 07       		.uleb128 0x7
 1682 09fa 64080000 		.4byte	.LASF131
 1683 09fe 14       		.byte	0x14
 1684 09ff 12       		.byte	0x12
 1685 0a00 39       		.byte	0x39
 1686 0a01 08       		.byte	0x8
 1687 0a02 480A0000 		.4byte	0xa48
 1688 0a06 01       		.uleb128 0x1
 1689 0a07 EA000000 		.4byte	.LASF70
 1690 0a0b 12       		.byte	0x12
 1691 0a0c 3A       		.byte	0x3a
 1692 0a0d 1A       		.byte	0x1a
 1693 0a0e 480A0000 		.4byte	0xa48
 1694 0a12 00       		.byte	0
 1695 0a13 01       		.uleb128 0x1
 1696 0a14 B3040000 		.4byte	.LASF132
 1697 0a18 12       		.byte	0x12
 1698 0a19 3D       		.byte	0x3d
 1699 0a1a 1A       		.byte	0x1a
 1700 0a1b C1040000 		.4byte	0x4c1
 1701 0a1f 04       		.byte	0x4
 1702 0a20 01       		.uleb128 0x1
 1703 0a21 82060000 		.4byte	.LASF133
 1704 0a25 12       		.byte	0x12
 1705 0a26 3F       		.byte	0x3f
 1706 0a27 19       		.byte	0x19
 1707 0a28 5F010000 		.4byte	0x15f
 1708 0a2c 08       		.byte	0x8
 1709 0a2d 01       		.uleb128 0x1
 1710 0a2e 12080000 		.4byte	.LASF38
 1711 0a32 12       		.byte	0x12
 1712 0a33 41       		.byte	0x41
 1713 0a34 19       		.byte	0x19
 1714 0a35 6B010000 		.4byte	0x16b
 1715 0a39 0C       		.byte	0xc
 1716 0a3a 01       		.uleb128 0x1
 1717 0a3b 95020000 		.4byte	.LASF134
 1718 0a3f 12       		.byte	0x12
 1719 0a40 43       		.byte	0x43
 1720 0a41 19       		.byte	0x19
 1721 0a42 6B010000 		.4byte	0x16b
 1722 0a46 10       		.byte	0x10
 1723 0a47 00       		.byte	0
 1724 0a48 03       		.uleb128 0x3
 1725 0a49 ED090000 		.4byte	0x9ed
 1726 0a4d 07       		.uleb128 0x7
 1727 0a4e FD070000 		.4byte	.LASF135
 1728 0a52 04       		.byte	0x4
 1729 0a53 12       		.byte	0x12
 1730 0a54 4A       		.byte	0x4a
ARM GAS  C:\Users\DEVELO~1\AppData\Local\Temp\ccnOkWUN.s 			page 32


 1731 0a55 10       		.byte	0x10
 1732 0a56 680A0000 		.4byte	0xa68
 1733 0a5a 01       		.uleb128 0x1
 1734 0a5b EA000000 		.4byte	.LASF70
 1735 0a5f 12       		.byte	0x12
 1736 0a60 4B       		.byte	0x4b
 1737 0a61 1A       		.byte	0x1a
 1738 0a62 480A0000 		.4byte	0xa48
 1739 0a66 00       		.byte	0
 1740 0a67 00       		.byte	0
 1741 0a68 02       		.uleb128 0x2
 1742 0a69 F4020000 		.4byte	.LASF136
 1743 0a6d 12       		.byte	0x12
 1744 0a6e 4E       		.byte	0x4e
 1745 0a6f 03       		.byte	0x3
 1746 0a70 4D0A0000 		.4byte	0xa4d
 1747 0a74 0B       		.uleb128 0xb
 1748 0a75 01       		.byte	0x1
 1749 0a76 02       		.byte	0x2
 1750 0a77 D2050000 		.4byte	.LASF137
 1751 0a7b 03       		.uleb128 0x3
 1752 0a7c C0000000 		.4byte	0xc0
 1753 0a80 03       		.uleb128 0x3
 1754 0a81 F5000000 		.4byte	0xf5
 1755 0a85 07       		.uleb128 0x7
 1756 0a86 2C060000 		.4byte	.LASF138
 1757 0a8a 14       		.byte	0x14
 1758 0a8b 13       		.byte	0x13
 1759 0a8c 4F       		.byte	0x4f
 1760 0a8d 08       		.byte	0x8
 1761 0a8e D40A0000 		.4byte	0xad4
 1762 0a92 01       		.uleb128 0x1
 1763 0a93 30080000 		.4byte	.LASF139
 1764 0a97 13       		.byte	0x13
 1765 0a98 50       		.byte	0x50
 1766 0a99 03       		.byte	0x3
 1767 0a9a 2D000000 		.4byte	0x2d
 1768 0a9e 00       		.byte	0
 1769 0a9f 01       		.uleb128 0x1
 1770 0aa0 25000000 		.4byte	.LASF140
 1771 0aa4 13       		.byte	0x13
 1772 0aa5 50       		.byte	0x50
 1773 0aa6 03       		.byte	0x3
 1774 0aa7 F70A0000 		.4byte	0xaf7
 1775 0aab 04       		.byte	0x4
 1776 0aac 01       		.uleb128 0x1
 1777 0aad 18080000 		.4byte	.LASF141
 1778 0ab1 13       		.byte	0x13
 1779 0ab2 50       		.byte	0x50
 1780 0ab3 03       		.byte	0x3
 1781 0ab4 150B0000 		.4byte	0xb15
 1782 0ab8 08       		.byte	0x8
 1783 0ab9 08       		.uleb128 0x8
 1784 0aba 70757400 		.ascii	"put\000"
 1785 0abe 13       		.byte	0x13
 1786 0abf 50       		.byte	0x50
 1787 0ac0 03       		.byte	0x3
ARM GAS  C:\Users\DEVELO~1\AppData\Local\Temp\ccnOkWUN.s 			page 33


 1788 0ac1 2E0B0000 		.4byte	0xb2e
 1789 0ac5 0C       		.byte	0xc
 1790 0ac6 08       		.uleb128 0x8
 1791 0ac7 67657400 		.ascii	"get\000"
 1792 0acb 13       		.byte	0x13
 1793 0acc 50       		.byte	0x50
 1794 0acd 03       		.byte	0x3
 1795 0ace 420B0000 		.4byte	0xb42
 1796 0ad2 10       		.byte	0x10
 1797 0ad3 00       		.byte	0
 1798 0ad4 10       		.uleb128 0x10
 1799 0ad5 850A0000 		.4byte	0xa85
 1800 0ad9 0C       		.uleb128 0xc
 1801 0ada 2D000000 		.4byte	0x2d
 1802 0ade F20A0000 		.4byte	0xaf2
 1803 0ae2 04       		.uleb128 0x4
 1804 0ae3 C6040000 		.4byte	0x4c6
 1805 0ae7 04       		.uleb128 0x4
 1806 0ae8 F20A0000 		.4byte	0xaf2
 1807 0aec 04       		.uleb128 0x4
 1808 0aed 2D000000 		.4byte	0x2d
 1809 0af1 00       		.byte	0
 1810 0af2 03       		.uleb128 0x3
 1811 0af3 CC000000 		.4byte	0xcc
 1812 0af7 03       		.uleb128 0x3
 1813 0af8 D90A0000 		.4byte	0xad9
 1814 0afc 0C       		.uleb128 0xc
 1815 0afd 2D000000 		.4byte	0x2d
 1816 0b01 150B0000 		.4byte	0xb15
 1817 0b05 04       		.uleb128 0x4
 1818 0b06 C6040000 		.4byte	0x4c6
 1819 0b0a 04       		.uleb128 0x4
 1820 0b0b 7B0A0000 		.4byte	0xa7b
 1821 0b0f 04       		.uleb128 0x4
 1822 0b10 2D000000 		.4byte	0x2d
 1823 0b14 00       		.byte	0
 1824 0b15 03       		.uleb128 0x3
 1825 0b16 FC0A0000 		.4byte	0xafc
 1826 0b1a 0C       		.uleb128 0xc
 1827 0b1b 53010000 		.4byte	0x153
 1828 0b1f 2E0B0000 		.4byte	0xb2e
 1829 0b23 04       		.uleb128 0x4
 1830 0b24 C6040000 		.4byte	0x4c6
 1831 0b28 04       		.uleb128 0x4
 1832 0b29 C0000000 		.4byte	0xc0
 1833 0b2d 00       		.byte	0
 1834 0b2e 03       		.uleb128 0x3
 1835 0b2f 1A0B0000 		.4byte	0xb1a
 1836 0b33 0C       		.uleb128 0xc
 1837 0b34 53010000 		.4byte	0x153
 1838 0b38 420B0000 		.4byte	0xb42
 1839 0b3c 04       		.uleb128 0x4
 1840 0b3d C6040000 		.4byte	0x4c6
 1841 0b41 00       		.byte	0
 1842 0b42 03       		.uleb128 0x3
 1843 0b43 330B0000 		.4byte	0xb33
 1844 0b47 0E       		.uleb128 0xe
ARM GAS  C:\Users\DEVELO~1\AppData\Local\Temp\ccnOkWUN.s 			page 34


 1845 0b48 04       		.byte	0x4
 1846 0b49 13       		.byte	0x13
 1847 0b4a 5A       		.byte	0x5a
 1848 0b4b 09       		.byte	0x9
 1849 0b4c 5E0B0000 		.4byte	0xb5e
 1850 0b50 08       		.uleb128 0x8
 1851 0b51 766D7400 		.ascii	"vmt\000"
 1852 0b55 13       		.byte	0x13
 1853 0b56 5C       		.byte	0x5c
 1854 0b57 29       		.byte	0x29
 1855 0b58 5E0B0000 		.4byte	0xb5e
 1856 0b5c 00       		.byte	0
 1857 0b5d 00       		.byte	0
 1858 0b5e 03       		.uleb128 0x3
 1859 0b5f D40A0000 		.4byte	0xad4
 1860 0b63 02       		.uleb128 0x2
 1861 0b64 EE060000 		.4byte	.LASF142
 1862 0b68 13       		.byte	0x13
 1863 0b69 5E       		.byte	0x5e
 1864 0b6a 03       		.byte	0x3
 1865 0b6b 470B0000 		.4byte	0xb47
 1866 0b6f 0C       		.uleb128 0xc
 1867 0b70 53010000 		.4byte	0x153
 1868 0b74 880B0000 		.4byte	0xb88
 1869 0b78 04       		.uleb128 0x4
 1870 0b79 C6040000 		.4byte	0x4c6
 1871 0b7d 04       		.uleb128 0x4
 1872 0b7e C0000000 		.4byte	0xc0
 1873 0b82 04       		.uleb128 0x4
 1874 0b83 94030000 		.4byte	0x394
 1875 0b87 00       		.byte	0
 1876 0b88 03       		.uleb128 0x3
 1877 0b89 6F0B0000 		.4byte	0xb6f
 1878 0b8d 0C       		.uleb128 0xc
 1879 0b8e 53010000 		.4byte	0x153
 1880 0b92 A10B0000 		.4byte	0xba1
 1881 0b96 04       		.uleb128 0x4
 1882 0b97 C6040000 		.4byte	0x4c6
 1883 0b9b 04       		.uleb128 0x4
 1884 0b9c 94030000 		.4byte	0x394
 1885 0ba0 00       		.byte	0
 1886 0ba1 03       		.uleb128 0x3
 1887 0ba2 8D0B0000 		.4byte	0xb8d
 1888 0ba6 0C       		.uleb128 0xc
 1889 0ba7 2D000000 		.4byte	0x2d
 1890 0bab C40B0000 		.4byte	0xbc4
 1891 0baf 04       		.uleb128 0x4
 1892 0bb0 C6040000 		.4byte	0x4c6
 1893 0bb4 04       		.uleb128 0x4
 1894 0bb5 F20A0000 		.4byte	0xaf2
 1895 0bb9 04       		.uleb128 0x4
 1896 0bba 2D000000 		.4byte	0x2d
 1897 0bbe 04       		.uleb128 0x4
 1898 0bbf 94030000 		.4byte	0x394
 1899 0bc3 00       		.byte	0
 1900 0bc4 03       		.uleb128 0x3
 1901 0bc5 A60B0000 		.4byte	0xba6
ARM GAS  C:\Users\DEVELO~1\AppData\Local\Temp\ccnOkWUN.s 			page 35


 1902 0bc9 0C       		.uleb128 0xc
 1903 0bca 2D000000 		.4byte	0x2d
 1904 0bce E70B0000 		.4byte	0xbe7
 1905 0bd2 04       		.uleb128 0x4
 1906 0bd3 C6040000 		.4byte	0x4c6
 1907 0bd7 04       		.uleb128 0x4
 1908 0bd8 7B0A0000 		.4byte	0xa7b
 1909 0bdc 04       		.uleb128 0x4
 1910 0bdd 2D000000 		.4byte	0x2d
 1911 0be1 04       		.uleb128 0x4
 1912 0be2 94030000 		.4byte	0x394
 1913 0be6 00       		.byte	0
 1914 0be7 03       		.uleb128 0x3
 1915 0be8 C90B0000 		.4byte	0xbc9
 1916 0bec 0C       		.uleb128 0xc
 1917 0bed 53010000 		.4byte	0x153
 1918 0bf1 050C0000 		.4byte	0xc05
 1919 0bf5 04       		.uleb128 0x4
 1920 0bf6 C6040000 		.4byte	0x4c6
 1921 0bfa 04       		.uleb128 0x4
 1922 0bfb 3E000000 		.4byte	0x3e
 1923 0bff 04       		.uleb128 0x4
 1924 0c00 C6040000 		.4byte	0x4c6
 1925 0c04 00       		.byte	0
 1926 0c05 03       		.uleb128 0x3
 1927 0c06 EC0B0000 		.4byte	0xbec
 1928 0c0a 02       		.uleb128 0x2
 1929 0c0b DF000000 		.4byte	.LASF143
 1930 0c0f 14       		.byte	0x14
 1931 0c10 3A       		.byte	0x3a
 1932 0c11 19       		.byte	0x19
 1933 0c12 160C0000 		.4byte	0xc16
 1934 0c16 07       		.uleb128 0x7
 1935 0c17 EB020000 		.4byte	.LASF144
 1936 0c1b 24       		.byte	0x24
 1937 0c1c 14       		.byte	0x14
 1938 0c1d 4B       		.byte	0x4b
 1939 0c1e 08       		.byte	0x8
 1940 0c1f 8C0C0000 		.4byte	0xc8c
 1941 0c23 01       		.uleb128 0x1
 1942 0c24 0B010000 		.4byte	.LASF145
 1943 0c28 14       		.byte	0x14
 1944 0c29 4C       		.byte	0x4c
 1945 0c2a 19       		.byte	0x19
 1946 0c2b 22080000 		.4byte	0x822
 1947 0c2f 00       		.byte	0
 1948 0c30 01       		.uleb128 0x1
 1949 0c31 D3040000 		.4byte	.LASF146
 1950 0c35 14       		.byte	0x14
 1951 0c36 4D       		.byte	0x4d
 1952 0c37 19       		.byte	0x19
 1953 0c38 39000000 		.4byte	0x39
 1954 0c3c 08       		.byte	0x8
 1955 0c3d 01       		.uleb128 0x1
 1956 0c3e 77020000 		.4byte	.LASF147
 1957 0c42 14       		.byte	0x14
 1958 0c43 4E       		.byte	0x4e
ARM GAS  C:\Users\DEVELO~1\AppData\Local\Temp\ccnOkWUN.s 			page 36


 1959 0c44 1A       		.byte	0x1a
 1960 0c45 7B0A0000 		.4byte	0xa7b
 1961 0c49 0C       		.byte	0xc
 1962 0c4a 01       		.uleb128 0x1
 1963 0c4b DF070000 		.4byte	.LASF148
 1964 0c4f 14       		.byte	0x14
 1965 0c50 4F       		.byte	0x4f
 1966 0c51 1A       		.byte	0x1a
 1967 0c52 7B0A0000 		.4byte	0xa7b
 1968 0c56 10       		.byte	0x10
 1969 0c57 01       		.uleb128 0x1
 1970 0c58 1C050000 		.4byte	.LASF149
 1971 0c5c 14       		.byte	0x14
 1972 0c5d 51       		.byte	0x51
 1973 0c5e 1A       		.byte	0x1a
 1974 0c5f 7B0A0000 		.4byte	0xa7b
 1975 0c63 14       		.byte	0x14
 1976 0c64 01       		.uleb128 0x1
 1977 0c65 BA050000 		.4byte	.LASF150
 1978 0c69 14       		.byte	0x14
 1979 0c6a 52       		.byte	0x52
 1980 0c6b 1A       		.byte	0x1a
 1981 0c6c 7B0A0000 		.4byte	0xa7b
 1982 0c70 18       		.byte	0x18
 1983 0c71 01       		.uleb128 0x1
 1984 0c72 EE070000 		.4byte	.LASF151
 1985 0c76 14       		.byte	0x14
 1986 0c77 53       		.byte	0x53
 1987 0c78 19       		.byte	0x19
 1988 0c79 8C0C0000 		.4byte	0xc8c
 1989 0c7d 1C       		.byte	0x1c
 1990 0c7e 01       		.uleb128 0x1
 1991 0c7f 99040000 		.4byte	.LASF152
 1992 0c83 14       		.byte	0x14
 1993 0c84 54       		.byte	0x54
 1994 0c85 1A       		.byte	0x1a
 1995 0c86 C6040000 		.4byte	0x4c6
 1996 0c8a 20       		.byte	0x20
 1997 0c8b 00       		.byte	0
 1998 0c8c 02       		.uleb128 0x2
 1999 0c8d 9B050000 		.4byte	.LASF153
 2000 0c91 14       		.byte	0x14
 2001 0c92 41       		.byte	0x41
 2002 0c93 10       		.byte	0x10
 2003 0c94 980C0000 		.4byte	0xc98
 2004 0c98 03       		.uleb128 0x3
 2005 0c99 9D0C0000 		.4byte	0xc9d
 2006 0c9d 25       		.uleb128 0x25
 2007 0c9e A80C0000 		.4byte	0xca8
 2008 0ca2 04       		.uleb128 0x4
 2009 0ca3 A80C0000 		.4byte	0xca8
 2010 0ca7 00       		.byte	0
 2011 0ca8 03       		.uleb128 0x3
 2012 0ca9 0A0C0000 		.4byte	0xc0a
 2013 0cad 02       		.uleb128 0x2
 2014 0cae 7A040000 		.4byte	.LASF154
 2015 0cb2 14       		.byte	0x14
ARM GAS  C:\Users\DEVELO~1\AppData\Local\Temp\ccnOkWUN.s 			page 37


 2016 0cb3 61       		.byte	0x61
 2017 0cb4 14       		.byte	0x14
 2018 0cb5 0A0C0000 		.4byte	0xc0a
 2019 0cb9 02       		.uleb128 0x2
 2020 0cba DD040000 		.4byte	.LASF155
 2021 0cbe 14       		.byte	0x14
 2022 0cbf 6D       		.byte	0x6d
 2023 0cc0 14       		.byte	0x14
 2024 0cc1 0A0C0000 		.4byte	0xc0a
 2025 0cc5 26       		.uleb128 0x26
 2026 0cc6 07       		.byte	0x7
 2027 0cc7 01       		.byte	0x1
 2028 0cc8 66000000 		.4byte	0x66
 2029 0ccc 15       		.byte	0x15
 2030 0ccd 58       		.byte	0x58
 2031 0cce 0E       		.byte	0xe
 2032 0ccf E60C0000 		.4byte	0xce6
 2033 0cd3 18       		.uleb128 0x18
 2034 0cd4 78060000 		.4byte	.LASF156
 2035 0cd8 00       		.byte	0
 2036 0cd9 18       		.uleb128 0x18
 2037 0cda A5050000 		.4byte	.LASF157
 2038 0cde 01       		.byte	0x1
 2039 0cdf 18       		.uleb128 0x18
 2040 0ce0 80070000 		.4byte	.LASF158
 2041 0ce4 02       		.byte	0x2
 2042 0ce5 00       		.byte	0
 2043 0ce6 02       		.uleb128 0x2
 2044 0ce7 C0070000 		.4byte	.LASF159
 2045 0ceb 15       		.byte	0x15
 2046 0cec 5C       		.byte	0x5c
 2047 0ced 03       		.byte	0x3
 2048 0cee C50C0000 		.4byte	0xcc5
 2049 0cf2 02       		.uleb128 0x2
 2050 0cf3 AF060000 		.4byte	.LASF160
 2051 0cf7 15       		.byte	0x15
 2052 0cf8 61       		.byte	0x61
 2053 0cf9 22       		.byte	0x22
 2054 0cfa FE0C0000 		.4byte	0xcfe
 2055 0cfe 07       		.uleb128 0x7
 2056 0cff 96010000 		.4byte	.LASF161
 2057 0d03 60       		.byte	0x60
 2058 0d04 15       		.byte	0x15
 2059 0d05 7B       		.byte	0x7b
 2060 0d06 08       		.byte	0x8
 2061 0d07 740D0000 		.4byte	0xd74
 2062 0d0b 08       		.uleb128 0x8
 2063 0d0c 766D7400 		.ascii	"vmt\000"
 2064 0d10 15       		.byte	0x15
 2065 0d11 7D       		.byte	0x7d
 2066 0d12 21       		.byte	0x21
 2067 0d13 6E0E0000 		.4byte	0xe6e
 2068 0d17 00       		.byte	0
 2069 0d18 01       		.uleb128 0x1
 2070 0d19 A7030000 		.4byte	.LASF162
 2071 0d1d 15       		.byte	0x15
 2072 0d1e 7E       		.byte	0x7e
ARM GAS  C:\Users\DEVELO~1\AppData\Local\Temp\ccnOkWUN.s 			page 38


 2073 0d1f 03       		.byte	0x3
 2074 0d20 680A0000 		.4byte	0xa68
 2075 0d24 04       		.byte	0x4
 2076 0d25 01       		.uleb128 0x1
 2077 0d26 87010000 		.4byte	.LASF37
 2078 0d2a 15       		.byte	0x15
 2079 0d2b 7E       		.byte	0x7e
 2080 0d2c 03       		.byte	0x3
 2081 0d2d E60C0000 		.4byte	0xce6
 2082 0d31 08       		.byte	0x8
 2083 0d32 01       		.uleb128 0x1
 2084 0d33 69030000 		.4byte	.LASF163
 2085 0d37 15       		.byte	0x15
 2086 0d38 7E       		.byte	0x7e
 2087 0d39 03       		.byte	0x3
 2088 0d3a AD0C0000 		.4byte	0xcad
 2089 0d3e 0C       		.byte	0xc
 2090 0d3f 01       		.uleb128 0x1
 2091 0d40 25060000 		.4byte	.LASF164
 2092 0d44 15       		.byte	0x15
 2093 0d45 7E       		.byte	0x7e
 2094 0d46 03       		.byte	0x3
 2095 0d47 B90C0000 		.4byte	0xcb9
 2096 0d4b 30       		.byte	0x30
 2097 0d4c 01       		.uleb128 0x1
 2098 0d4d 20030000 		.4byte	.LASF165
 2099 0d51 15       		.byte	0x15
 2100 0d52 7E       		.byte	0x7e
 2101 0d53 03       		.byte	0x3
 2102 0d54 730E0000 		.4byte	0xe73
 2103 0d58 54       		.byte	0x54
 2104 0d59 01       		.uleb128 0x1
 2105 0d5a 2A080000 		.4byte	.LASF166
 2106 0d5e 15       		.byte	0x15
 2107 0d5f 7E       		.byte	0x7e
 2108 0d60 03       		.byte	0x3
 2109 0d61 E9000000 		.4byte	0xe9
 2110 0d65 58       		.byte	0x58
 2111 0d66 01       		.uleb128 0x1
 2112 0d67 9E000000 		.4byte	.LASF167
 2113 0d6b 15       		.byte	0x15
 2114 0d6c 7E       		.byte	0x7e
 2115 0d6d 03       		.byte	0x3
 2116 0d6e C0000000 		.4byte	0xc0
 2117 0d72 5C       		.byte	0x5c
 2118 0d73 00       		.byte	0
 2119 0d74 12       		.uleb128 0x12
 2120 0d75 2F010000 		.4byte	.LASF168
 2121 0d79 10       		.byte	0x10
 2122 0d7a 16       		.byte	0x16
 2123 0d7b 6002     		.2byte	0x260
 2124 0d7d 10       		.byte	0x10
 2125 0d7e BB0D0000 		.4byte	0xdbb
 2126 0d82 05       		.uleb128 0x5
 2127 0d83 2A040000 		.4byte	.LASF169
 2128 0d87 16       		.byte	0x16
 2129 0d88 6402     		.2byte	0x264
ARM GAS  C:\Users\DEVELO~1\AppData\Local\Temp\ccnOkWUN.s 			page 39


 2130 0d8a 1D       		.byte	0x1d
 2131 0d8b E9000000 		.4byte	0xe9
 2132 0d8f 00       		.byte	0
 2133 0d90 06       		.uleb128 0x6
 2134 0d91 63723100 		.ascii	"cr1\000"
 2135 0d95 16       		.byte	0x16
 2136 0d96 6902     		.2byte	0x269
 2137 0d98 1D       		.byte	0x1d
 2138 0d99 E9000000 		.4byte	0xe9
 2139 0d9d 04       		.byte	0x4
 2140 0d9e 06       		.uleb128 0x6
 2141 0d9f 63723200 		.ascii	"cr2\000"
 2142 0da3 16       		.byte	0x16
 2143 0da4 6D02     		.2byte	0x26d
 2144 0da6 1D       		.byte	0x1d
 2145 0da7 E9000000 		.4byte	0xe9
 2146 0dab 08       		.byte	0x8
 2147 0dac 06       		.uleb128 0x6
 2148 0dad 63723300 		.ascii	"cr3\000"
 2149 0db1 16       		.byte	0x16
 2150 0db2 7102     		.2byte	0x271
 2151 0db4 1D       		.byte	0x1d
 2152 0db5 E9000000 		.4byte	0xe9
 2153 0db9 0C       		.byte	0xc
 2154 0dba 00       		.byte	0
 2155 0dbb 14       		.uleb128 0x14
 2156 0dbc 71050000 		.4byte	.LASF170
 2157 0dc0 16       		.byte	0x16
 2158 0dc1 7202     		.2byte	0x272
 2159 0dc3 740D0000 		.4byte	0xd74
 2160 0dc7 10       		.uleb128 0x10
 2161 0dc8 BB0D0000 		.4byte	0xdbb
 2162 0dcc 27       		.uleb128 0x27
 2163 0dcd 53443100 		.ascii	"SD1\000"
 2164 0dd1 16       		.byte	0x16
 2165 0dd2 9002     		.2byte	0x290
 2166 0dd4 15       		.byte	0x15
 2167 0dd5 F20C0000 		.4byte	0xcf2
 2168 0dd9 07       		.uleb128 0x7
 2169 0dda 43030000 		.4byte	.LASF171
 2170 0dde 28       		.byte	0x28
 2171 0ddf 15       		.byte	0x15
 2172 0de0 70       		.byte	0x70
 2173 0de1 08       		.byte	0x8
 2174 0de2 690E0000 		.4byte	0xe69
 2175 0de6 01       		.uleb128 0x1
 2176 0de7 30080000 		.4byte	.LASF139
 2177 0deb 15       		.byte	0x15
 2178 0dec 71       		.byte	0x71
 2179 0ded 03       		.byte	0x3
 2180 0dee 2D000000 		.4byte	0x2d
 2181 0df2 00       		.byte	0
 2182 0df3 01       		.uleb128 0x1
 2183 0df4 25000000 		.4byte	.LASF140
 2184 0df8 15       		.byte	0x15
 2185 0df9 71       		.byte	0x71
 2186 0dfa 03       		.byte	0x3
ARM GAS  C:\Users\DEVELO~1\AppData\Local\Temp\ccnOkWUN.s 			page 40


 2187 0dfb F70A0000 		.4byte	0xaf7
 2188 0dff 04       		.byte	0x4
 2189 0e00 01       		.uleb128 0x1
 2190 0e01 18080000 		.4byte	.LASF141
 2191 0e05 15       		.byte	0x15
 2192 0e06 71       		.byte	0x71
 2193 0e07 03       		.byte	0x3
 2194 0e08 150B0000 		.4byte	0xb15
 2195 0e0c 08       		.byte	0x8
 2196 0e0d 08       		.uleb128 0x8
 2197 0e0e 70757400 		.ascii	"put\000"
 2198 0e12 15       		.byte	0x15
 2199 0e13 71       		.byte	0x71
 2200 0e14 03       		.byte	0x3
 2201 0e15 2E0B0000 		.4byte	0xb2e
 2202 0e19 0C       		.byte	0xc
 2203 0e1a 08       		.uleb128 0x8
 2204 0e1b 67657400 		.ascii	"get\000"
 2205 0e1f 15       		.byte	0x15
 2206 0e20 71       		.byte	0x71
 2207 0e21 03       		.byte	0x3
 2208 0e22 420B0000 		.4byte	0xb42
 2209 0e26 10       		.byte	0x10
 2210 0e27 01       		.uleb128 0x1
 2211 0e28 88040000 		.4byte	.LASF172
 2212 0e2c 15       		.byte	0x15
 2213 0e2d 71       		.byte	0x71
 2214 0e2e 03       		.byte	0x3
 2215 0e2f 880B0000 		.4byte	0xb88
 2216 0e33 14       		.byte	0x14
 2217 0e34 01       		.uleb128 0x1
 2218 0e35 91030000 		.4byte	.LASF173
 2219 0e39 15       		.byte	0x15
 2220 0e3a 71       		.byte	0x71
 2221 0e3b 03       		.byte	0x3
 2222 0e3c A10B0000 		.4byte	0xba1
 2223 0e40 18       		.byte	0x18
 2224 0e41 01       		.uleb128 0x1
 2225 0e42 F9030000 		.4byte	.LASF174
 2226 0e46 15       		.byte	0x15
 2227 0e47 71       		.byte	0x71
 2228 0e48 03       		.byte	0x3
 2229 0e49 C40B0000 		.4byte	0xbc4
 2230 0e4d 1C       		.byte	0x1c
 2231 0e4e 01       		.uleb128 0x1
 2232 0e4f 00010000 		.4byte	.LASF175
 2233 0e53 15       		.byte	0x15
 2234 0e54 71       		.byte	0x71
 2235 0e55 03       		.byte	0x3
 2236 0e56 E70B0000 		.4byte	0xbe7
 2237 0e5a 20       		.byte	0x20
 2238 0e5b 08       		.uleb128 0x8
 2239 0e5c 63746C00 		.ascii	"ctl\000"
 2240 0e60 15       		.byte	0x15
 2241 0e61 71       		.byte	0x71
 2242 0e62 03       		.byte	0x3
 2243 0e63 050C0000 		.4byte	0xc05
ARM GAS  C:\Users\DEVELO~1\AppData\Local\Temp\ccnOkWUN.s 			page 41


 2244 0e67 24       		.byte	0x24
 2245 0e68 00       		.byte	0
 2246 0e69 10       		.uleb128 0x10
 2247 0e6a D90D0000 		.4byte	0xdd9
 2248 0e6e 03       		.uleb128 0x3
 2249 0e6f 690E0000 		.4byte	0xe69
 2250 0e73 03       		.uleb128 0x3
 2251 0e74 E0060000 		.4byte	0x6e0
 2252 0e78 28       		.uleb128 0x28
 2253 0e79 CA020000 		.4byte	.LASF180
 2254 0e7d 01       		.byte	0x1
 2255 0e7e 08       		.byte	0x8
 2256 0e7f 1B       		.byte	0x1b
 2257 0e80 C70D0000 		.4byte	0xdc7
 2258 0e84 05       		.uleb128 0x5
 2259 0e85 03       		.byte	0x3
 2260 0e86 00000000 		.4byte	uart_cfg
 2261 0e8a 29       		.uleb128 0x29
 2262 0e8b 63687000 		.ascii	"chp\000"
 2263 0e8f 01       		.byte	0x1
 2264 0e90 0F       		.byte	0xf
 2265 0e91 1E       		.byte	0x1e
 2266 0e92 960E0000 		.4byte	0xe96
 2267 0e96 03       		.uleb128 0x3
 2268 0e97 630B0000 		.4byte	0xb63
 2269 0e9b 2A       		.uleb128 0x2a
 2270 0e9c EC040000 		.4byte	.LASF187
 2271 0ea0 1A       		.byte	0x1a
 2272 0ea1 05       		.byte	0x5
 2273 0ea2 06       		.byte	0x6
 2274 0ea3 740A0000 		.4byte	0xa74
 2275 0ea7 2B       		.uleb128 0x2b
 2276 0ea8 73080000 		.4byte	.LASF176
 2277 0eac 17       		.byte	0x17
 2278 0ead 2B       		.byte	0x2b
 2279 0eae 07       		.byte	0x7
 2280 0eaf 26000000 		.4byte	0x26
 2281 0eb3 C30E0000 		.4byte	0xec3
 2282 0eb7 04       		.uleb128 0x4
 2283 0eb8 960E0000 		.4byte	0xe96
 2284 0ebc 04       		.uleb128 0x4
 2285 0ebd 66030000 		.4byte	0x366
 2286 0ec1 2C       		.uleb128 0x2c
 2287 0ec2 00       		.byte	0
 2288 0ec3 2D       		.uleb128 0x2d
 2289 0ec4 66050000 		.4byte	.LASF188
 2290 0ec8 1B       		.byte	0x1b
 2291 0ec9 4201     		.2byte	0x142
 2292 0ecb 08       		.byte	0x8
 2293 0ecc D60E0000 		.4byte	0xed6
 2294 0ed0 04       		.uleb128 0x4
 2295 0ed1 94030000 		.4byte	0x394
 2296 0ed5 00       		.byte	0
 2297 0ed6 2E       		.uleb128 0x2e
 2298 0ed7 45080000 		.4byte	.LASF177
 2299 0edb 15       		.byte	0x15
 2300 0edc 8601     		.2byte	0x186
ARM GAS  C:\Users\DEVELO~1\AppData\Local\Temp\ccnOkWUN.s 			page 42


 2301 0ede 09       		.byte	0x9
 2302 0edf 53010000 		.4byte	0x153
 2303 0ee3 F20E0000 		.4byte	0xef2
 2304 0ee7 04       		.uleb128 0x4
 2305 0ee8 F20E0000 		.4byte	0xef2
 2306 0eec 04       		.uleb128 0x4
 2307 0eed F70E0000 		.4byte	0xef7
 2308 0ef1 00       		.byte	0
 2309 0ef2 03       		.uleb128 0x3
 2310 0ef3 F20C0000 		.4byte	0xcf2
 2311 0ef7 03       		.uleb128 0x3
 2312 0ef8 C70D0000 		.4byte	0xdc7
 2313 0efc 1A       		.uleb128 0x1a
 2314 0efd 41010000 		.4byte	.LASF178
 2315 0f01 18       		.byte	0x18
 2316 0f02 4E01     		.2byte	0x14e
 2317 0f04 1A       		.uleb128 0x1a
 2318 0f05 7D030000 		.4byte	.LASF179
 2319 0f09 19       		.byte	0x19
 2320 0f0a 0101     		.2byte	0x101
 2321 0f0c 2F       		.uleb128 0x2f
 2322 0f0d 9C020000 		.4byte	.LASF189
 2323 0f11 01       		.byte	0x1
 2324 0f12 11       		.byte	0x11
 2325 0f13 05       		.byte	0x5
 2326 0f14 26000000 		.4byte	0x26
 2327 0f18 00000000 		.4byte	.LFB432
 2328 0f1c FC000000 		.4byte	.LFE432-.LFB432
 2329 0f20 01       		.uleb128 0x1
 2330 0f21 9C       		.byte	0x9c
 2331 0f22 68110000 		.4byte	0x1168
 2332 0f26 1B       		.uleb128 0x1b
 2333 0f27 6F6B00   		.ascii	"ok\000"
 2334 0f2a 1C       		.byte	0x1c
 2335 0f2b 0A       		.byte	0xa
 2336 0f2c 740A0000 		.4byte	0xa74
 2337 0f30 0E000000 		.4byte	.LLST0
 2338 0f34 0C000000 		.4byte	.LVUS0
 2339 0f38 30       		.uleb128 0x30
 2340 0f39 B3070000 		.4byte	.LASF181
 2341 0f3d 01       		.byte	0x1
 2342 0f3e 20       		.byte	0x20
 2343 0f3f 18       		.byte	0x18
 2344 0f40 800A0000 		.4byte	0xa80
 2345 0f44 80808080 		.sleb128 -1073741824
 2345      7C
 2346 0f49 1B       		.uleb128 0x1b
 2347 0f4a 7600     		.ascii	"v\000"
 2348 0f4c 2F       		.byte	0x2f
 2349 0f4d 0E       		.byte	0xe
 2350 0f4e E9000000 		.4byte	0xe9
 2351 0f52 1B000000 		.4byte	.LLST1
 2352 0f56 17000000 		.4byte	.LVUS1
 2353 0f5a 0D       		.uleb128 0xd
 2354 0f5b 68110000 		.4byte	0x1168
 2355 0f5f 50000000 		.4byte	.LBI18
 2356 0f63 01       		.byte	.LVU19
ARM GAS  C:\Users\DEVELO~1\AppData\Local\Temp\ccnOkWUN.s 			page 43


 2357 0f64 50000000 		.4byte	.LBB18
 2358 0f68 04000000 		.4byte	.LBE18-.LBB18
 2359 0f6c 25       		.byte	0x25
 2360 0f6d 0D       		.uleb128 0xd
 2361 0f6e 6F110000 		.4byte	0x116f
 2362 0f72 54000000 		.4byte	.LBI20
 2363 0f76 01       		.byte	.LVU22
 2364 0f77 54000000 		.4byte	.LBB20
 2365 0f7b 04000000 		.4byte	.LBE20-.LBB20
 2366 0f7f 26       		.byte	0x26
 2367 0f80 0D       		.uleb128 0xd
 2368 0f81 68110000 		.4byte	0x1168
 2369 0f85 60000000 		.4byte	.LBI22
 2370 0f89 01       		.byte	.LVU27
 2371 0f8a 60000000 		.4byte	.LBB22
 2372 0f8e 04000000 		.4byte	.LBE22-.LBB22
 2373 0f92 28       		.byte	0x28
 2374 0f93 0D       		.uleb128 0xd
 2375 0f94 6F110000 		.4byte	0x116f
 2376 0f98 64000000 		.4byte	.LBI24
 2377 0f9c 01       		.byte	.LVU30
 2378 0f9d 64000000 		.4byte	.LBB24
 2379 0fa1 04000000 		.4byte	.LBE24-.LBB24
 2380 0fa5 29       		.byte	0x29
 2381 0fa6 0D       		.uleb128 0xd
 2382 0fa7 68110000 		.4byte	0x1168
 2383 0fab 78000000 		.4byte	.LBI26
 2384 0faf 01       		.byte	.LVU35
 2385 0fb0 78000000 		.4byte	.LBB26
 2386 0fb4 04000000 		.4byte	.LBE26-.LBB26
 2387 0fb8 2D       		.byte	0x2d
 2388 0fb9 0D       		.uleb128 0xd
 2389 0fba 6F110000 		.4byte	0x116f
 2390 0fbe 7C000000 		.4byte	.LBI28
 2391 0fc2 01       		.byte	.LVU38
 2392 0fc3 7C000000 		.4byte	.LBB28
 2393 0fc7 04000000 		.4byte	.LBE28-.LBB28
 2394 0fcb 2E       		.byte	0x2e
 2395 0fcc 0D       		.uleb128 0xd
 2396 0fcd 68110000 		.4byte	0x1168
 2397 0fd1 82000000 		.4byte	.LBI30
 2398 0fd5 01       		.byte	.LVU43
 2399 0fd6 82000000 		.4byte	.LBB30
 2400 0fda 04000000 		.4byte	.LBE30-.LBB30
 2401 0fde 30       		.byte	0x30
 2402 0fdf 0D       		.uleb128 0xd
 2403 0fe0 6F110000 		.4byte	0x116f
 2404 0fe4 86000000 		.4byte	.LBI32
 2405 0fe8 01       		.byte	.LVU46
 2406 0fe9 86000000 		.4byte	.LBB32
 2407 0fed 04000000 		.4byte	.LBE32-.LBB32
 2408 0ff1 31       		.byte	0x31
 2409 0ff2 19       		.uleb128 0x19
 2410 0ff3 06000000 		.4byte	.LVL0
 2411 0ff7 040F0000 		.4byte	0xf04
 2412 0ffb 19       		.uleb128 0x19
 2413 0ffc 0A000000 		.4byte	.LVL1
ARM GAS  C:\Users\DEVELO~1\AppData\Local\Temp\ccnOkWUN.s 			page 44


 2414 1000 FC0E0000 		.4byte	0xefc
 2415 1004 0A       		.uleb128 0xa
 2416 1005 12000000 		.4byte	.LVL2
 2417 1009 D60E0000 		.4byte	0xed6
 2418 100d 1B100000 		.4byte	0x101b
 2419 1011 09       		.uleb128 0x9
 2420 1012 01       		.uleb128 0x1
 2421 1013 51       		.byte	0x51
 2422 1014 05       		.uleb128 0x5
 2423 1015 03       		.byte	0x3
 2424 1016 00000000 		.4byte	.LANCHOR0
 2425 101a 00       		.byte	0
 2426 101b 0A       		.uleb128 0xa
 2427 101c 1A000000 		.4byte	.LVL3
 2428 1020 C30E0000 		.4byte	0xec3
 2429 1024 30100000 		.4byte	0x1030
 2430 1028 09       		.uleb128 0x9
 2431 1029 01       		.uleb128 0x1
 2432 102a 50       		.byte	0x50
 2433 102b 03       		.uleb128 0x3
 2434 102c 0A       		.byte	0xa
 2435 102d D007     		.2byte	0x7d0
 2436 102f 00       		.byte	0
 2437 1030 0A       		.uleb128 0xa
 2438 1031 22000000 		.4byte	.LVL4
 2439 1035 A70E0000 		.4byte	0xea7
 2440 1039 47100000 		.4byte	0x1047
 2441 103d 09       		.uleb128 0x9
 2442 103e 01       		.uleb128 0x1
 2443 103f 51       		.byte	0x51
 2444 1040 05       		.uleb128 0x5
 2445 1041 03       		.byte	0x3
 2446 1042 00000000 		.4byte	.LC0
 2447 1046 00       		.byte	0
 2448 1047 0A       		.uleb128 0xa
 2449 1048 2A000000 		.4byte	.LVL5
 2450 104c A70E0000 		.4byte	0xea7
 2451 1050 5E100000 		.4byte	0x105e
 2452 1054 09       		.uleb128 0x9
 2453 1055 01       		.uleb128 0x1
 2454 1056 51       		.byte	0x51
 2455 1057 05       		.uleb128 0x5
 2456 1058 03       		.byte	0x3
 2457 1059 10000000 		.4byte	.LC1
 2458 105d 00       		.byte	0
 2459 105e 19       		.uleb128 0x19
 2460 105f 2E000000 		.4byte	.LVL6
 2461 1063 9B0E0000 		.4byte	0xe9b
 2462 1067 0A       		.uleb128 0xa
 2463 1068 38000000 		.4byte	.LVL8
 2464 106c A70E0000 		.4byte	0xea7
 2465 1070 7E100000 		.4byte	0x107e
 2466 1074 09       		.uleb128 0x9
 2467 1075 01       		.uleb128 0x1
 2468 1076 51       		.byte	0x51
 2469 1077 05       		.uleb128 0x5
 2470 1078 03       		.byte	0x3
ARM GAS  C:\Users\DEVELO~1\AppData\Local\Temp\ccnOkWUN.s 			page 45


 2471 1079 24000000 		.4byte	.LC2
 2472 107d 00       		.byte	0
 2473 107e 0A       		.uleb128 0xa
 2474 107f 40000000 		.4byte	.LVL9
 2475 1083 A70E0000 		.4byte	0xea7
 2476 1087 95100000 		.4byte	0x1095
 2477 108b 09       		.uleb128 0x9
 2478 108c 01       		.uleb128 0x1
 2479 108d 51       		.byte	0x51
 2480 108e 05       		.uleb128 0x5
 2481 108f 03       		.byte	0x3
 2482 1090 3C000000 		.4byte	.LC3
 2483 1094 00       		.byte	0
 2484 1095 0A       		.uleb128 0xa
 2485 1096 48000000 		.4byte	.LVL10
 2486 109a A70E0000 		.4byte	0xea7
 2487 109e AC100000 		.4byte	0x10ac
 2488 10a2 09       		.uleb128 0x9
 2489 10a3 01       		.uleb128 0x1
 2490 10a4 51       		.byte	0x51
 2491 10a5 05       		.uleb128 0x5
 2492 10a6 03       		.byte	0x3
 2493 10a7 50000000 		.4byte	.LC4
 2494 10ab 00       		.byte	0
 2495 10ac 0A       		.uleb128 0xa
 2496 10ad 50000000 		.4byte	.LVL11
 2497 10b1 A70E0000 		.4byte	0xea7
 2498 10b5 C3100000 		.4byte	0x10c3
 2499 10b9 09       		.uleb128 0x9
 2500 10ba 01       		.uleb128 0x1
 2501 10bb 51       		.byte	0x51
 2502 10bc 05       		.uleb128 0x5
 2503 10bd 03       		.byte	0x3
 2504 10be 60000000 		.4byte	.LC5
 2505 10c2 00       		.byte	0
 2506 10c3 0A       		.uleb128 0xa
 2507 10c4 70000000 		.4byte	.LVL12
 2508 10c8 A70E0000 		.4byte	0xea7
 2509 10cc DA100000 		.4byte	0x10da
 2510 10d0 09       		.uleb128 0x9
 2511 10d1 01       		.uleb128 0x1
 2512 10d2 51       		.byte	0x51
 2513 10d3 05       		.uleb128 0x5
 2514 10d4 03       		.byte	0x3
 2515 10d5 70000000 		.4byte	.LC6
 2516 10d9 00       		.byte	0
 2517 10da 0A       		.uleb128 0xa
 2518 10db 78000000 		.4byte	.LVL13
 2519 10df A70E0000 		.4byte	0xea7
 2520 10e3 F1100000 		.4byte	0x10f1
 2521 10e7 09       		.uleb128 0x9
 2522 10e8 01       		.uleb128 0x1
 2523 10e9 51       		.byte	0x51
 2524 10ea 05       		.uleb128 0x5
 2525 10eb 03       		.byte	0x3
 2526 10ec 80000000 		.4byte	.LC7
 2527 10f0 00       		.byte	0
ARM GAS  C:\Users\DEVELO~1\AppData\Local\Temp\ccnOkWUN.s 			page 46


 2528 10f1 0A       		.uleb128 0xa
 2529 10f2 94000000 		.4byte	.LVL15
 2530 10f6 A70E0000 		.4byte	0xea7
 2531 10fa 0E110000 		.4byte	0x110e
 2532 10fe 09       		.uleb128 0x9
 2533 10ff 01       		.uleb128 0x1
 2534 1100 51       		.byte	0x51
 2535 1101 05       		.uleb128 0x5
 2536 1102 03       		.byte	0x3
 2537 1103 90000000 		.4byte	.LC8
 2538 1107 09       		.uleb128 0x9
 2539 1108 01       		.uleb128 0x1
 2540 1109 52       		.byte	0x52
 2541 110a 02       		.uleb128 0x2
 2542 110b 75       		.byte	0x75
 2543 110c 00       		.sleb128 0
 2544 110d 00       		.byte	0
 2545 110e 0A       		.uleb128 0xa
 2546 110f A0000000 		.4byte	.LVL16
 2547 1113 A70E0000 		.4byte	0xea7
 2548 1117 25110000 		.4byte	0x1125
 2549 111b 09       		.uleb128 0x9
 2550 111c 01       		.uleb128 0x1
 2551 111d 51       		.byte	0x51
 2552 111e 05       		.uleb128 0x5
 2553 111f 03       		.byte	0x3
 2554 1120 B4000000 		.4byte	.LC10
 2555 1124 00       		.byte	0
 2556 1125 0A       		.uleb128 0xa
 2557 1126 AC000000 		.4byte	.LVL18
 2558 112a A70E0000 		.4byte	0xea7
 2559 112e 3F110000 		.4byte	0x113f
 2560 1132 09       		.uleb128 0x9
 2561 1133 01       		.uleb128 0x1
 2562 1134 50       		.byte	0x50
 2563 1135 02       		.uleb128 0x2
 2564 1136 74       		.byte	0x74
 2565 1137 00       		.sleb128 0
 2566 1138 09       		.uleb128 0x9
 2567 1139 01       		.uleb128 0x1
 2568 113a 51       		.byte	0x51
 2569 113b 02       		.uleb128 0x2
 2570 113c 75       		.byte	0x75
 2571 113d 00       		.sleb128 0
 2572 113e 00       		.byte	0
 2573 113f 0A       		.uleb128 0xa
 2574 1140 B4000000 		.4byte	.LVL19
 2575 1144 C30E0000 		.4byte	0xec3
 2576 1148 54110000 		.4byte	0x1154
 2577 114c 09       		.uleb128 0x9
 2578 114d 01       		.uleb128 0x1
 2579 114e 50       		.byte	0x50
 2580 114f 03       		.uleb128 0x3
 2581 1150 0A       		.byte	0xa
 2582 1151 1027     		.2byte	0x2710
 2583 1153 00       		.byte	0
 2584 1154 31       		.uleb128 0x31
ARM GAS  C:\Users\DEVELO~1\AppData\Local\Temp\ccnOkWUN.s 			page 47


 2585 1155 BE000000 		.4byte	.LVL21
 2586 1159 A70E0000 		.4byte	0xea7
 2587 115d 09       		.uleb128 0x9
 2588 115e 01       		.uleb128 0x1
 2589 115f 51       		.byte	0x51
 2590 1160 05       		.uleb128 0x5
 2591 1161 03       		.byte	0x3
 2592 1162 A8000000 		.4byte	.LC9
 2593 1166 00       		.byte	0
 2594 1167 00       		.byte	0
 2595 1168 1C       		.uleb128 0x1c
 2596 1169 30040000 		.4byte	.LASF182
 2597 116d 6D03     		.2byte	0x36d
 2598 116f 1C       		.uleb128 0x1c
 2599 1170 24050000 		.4byte	.LASF183
 2600 1174 6203     		.2byte	0x362
 2601 1176 00       		.byte	0
 2602              		.section	.debug_abbrev,"",%progbits
 2603              	.Ldebug_abbrev0:
 2604 0000 01       		.uleb128 0x1
 2605 0001 0D       		.uleb128 0xd
 2606 0002 00       		.byte	0
 2607 0003 03       		.uleb128 0x3
 2608 0004 0E       		.uleb128 0xe
 2609 0005 3A       		.uleb128 0x3a
 2610 0006 0B       		.uleb128 0xb
 2611 0007 3B       		.uleb128 0x3b
 2612 0008 0B       		.uleb128 0xb
 2613 0009 39       		.uleb128 0x39
 2614 000a 0B       		.uleb128 0xb
 2615 000b 49       		.uleb128 0x49
 2616 000c 13       		.uleb128 0x13
 2617 000d 38       		.uleb128 0x38
 2618 000e 0B       		.uleb128 0xb
 2619 000f 00       		.byte	0
 2620 0010 00       		.byte	0
 2621 0011 02       		.uleb128 0x2
 2622 0012 16       		.uleb128 0x16
 2623 0013 00       		.byte	0
 2624 0014 03       		.uleb128 0x3
 2625 0015 0E       		.uleb128 0xe
 2626 0016 3A       		.uleb128 0x3a
 2627 0017 0B       		.uleb128 0xb
 2628 0018 3B       		.uleb128 0x3b
 2629 0019 0B       		.uleb128 0xb
 2630 001a 39       		.uleb128 0x39
 2631 001b 0B       		.uleb128 0xb
 2632 001c 49       		.uleb128 0x49
 2633 001d 13       		.uleb128 0x13
 2634 001e 00       		.byte	0
 2635 001f 00       		.byte	0
 2636 0020 03       		.uleb128 0x3
 2637 0021 0F       		.uleb128 0xf
 2638 0022 00       		.byte	0
 2639 0023 0B       		.uleb128 0xb
 2640 0024 21       		.uleb128 0x21
 2641 0025 04       		.sleb128 4
ARM GAS  C:\Users\DEVELO~1\AppData\Local\Temp\ccnOkWUN.s 			page 48


 2642 0026 49       		.uleb128 0x49
 2643 0027 13       		.uleb128 0x13
 2644 0028 00       		.byte	0
 2645 0029 00       		.byte	0
 2646 002a 04       		.uleb128 0x4
 2647 002b 05       		.uleb128 0x5
 2648 002c 00       		.byte	0
 2649 002d 49       		.uleb128 0x49
 2650 002e 13       		.uleb128 0x13
 2651 002f 00       		.byte	0
 2652 0030 00       		.byte	0
 2653 0031 05       		.uleb128 0x5
 2654 0032 0D       		.uleb128 0xd
 2655 0033 00       		.byte	0
 2656 0034 03       		.uleb128 0x3
 2657 0035 0E       		.uleb128 0xe
 2658 0036 3A       		.uleb128 0x3a
 2659 0037 0B       		.uleb128 0xb
 2660 0038 3B       		.uleb128 0x3b
 2661 0039 05       		.uleb128 0x5
 2662 003a 39       		.uleb128 0x39
 2663 003b 0B       		.uleb128 0xb
 2664 003c 49       		.uleb128 0x49
 2665 003d 13       		.uleb128 0x13
 2666 003e 38       		.uleb128 0x38
 2667 003f 0B       		.uleb128 0xb
 2668 0040 00       		.byte	0
 2669 0041 00       		.byte	0
 2670 0042 06       		.uleb128 0x6
 2671 0043 0D       		.uleb128 0xd
 2672 0044 00       		.byte	0
 2673 0045 03       		.uleb128 0x3
 2674 0046 08       		.uleb128 0x8
 2675 0047 3A       		.uleb128 0x3a
 2676 0048 0B       		.uleb128 0xb
 2677 0049 3B       		.uleb128 0x3b
 2678 004a 05       		.uleb128 0x5
 2679 004b 39       		.uleb128 0x39
 2680 004c 0B       		.uleb128 0xb
 2681 004d 49       		.uleb128 0x49
 2682 004e 13       		.uleb128 0x13
 2683 004f 38       		.uleb128 0x38
 2684 0050 0B       		.uleb128 0xb
 2685 0051 00       		.byte	0
 2686 0052 00       		.byte	0
 2687 0053 07       		.uleb128 0x7
 2688 0054 13       		.uleb128 0x13
 2689 0055 01       		.byte	0x1
 2690 0056 03       		.uleb128 0x3
 2691 0057 0E       		.uleb128 0xe
 2692 0058 0B       		.uleb128 0xb
 2693 0059 0B       		.uleb128 0xb
 2694 005a 3A       		.uleb128 0x3a
 2695 005b 0B       		.uleb128 0xb
 2696 005c 3B       		.uleb128 0x3b
 2697 005d 0B       		.uleb128 0xb
 2698 005e 39       		.uleb128 0x39
ARM GAS  C:\Users\DEVELO~1\AppData\Local\Temp\ccnOkWUN.s 			page 49


 2699 005f 0B       		.uleb128 0xb
 2700 0060 01       		.uleb128 0x1
 2701 0061 13       		.uleb128 0x13
 2702 0062 00       		.byte	0
 2703 0063 00       		.byte	0
 2704 0064 08       		.uleb128 0x8
 2705 0065 0D       		.uleb128 0xd
 2706 0066 00       		.byte	0
 2707 0067 03       		.uleb128 0x3
 2708 0068 08       		.uleb128 0x8
 2709 0069 3A       		.uleb128 0x3a
 2710 006a 0B       		.uleb128 0xb
 2711 006b 3B       		.uleb128 0x3b
 2712 006c 0B       		.uleb128 0xb
 2713 006d 39       		.uleb128 0x39
 2714 006e 0B       		.uleb128 0xb
 2715 006f 49       		.uleb128 0x49
 2716 0070 13       		.uleb128 0x13
 2717 0071 38       		.uleb128 0x38
 2718 0072 0B       		.uleb128 0xb
 2719 0073 00       		.byte	0
 2720 0074 00       		.byte	0
 2721 0075 09       		.uleb128 0x9
 2722 0076 49       		.uleb128 0x49
 2723 0077 00       		.byte	0
 2724 0078 02       		.uleb128 0x2
 2725 0079 18       		.uleb128 0x18
 2726 007a 7E       		.uleb128 0x7e
 2727 007b 18       		.uleb128 0x18
 2728 007c 00       		.byte	0
 2729 007d 00       		.byte	0
 2730 007e 0A       		.uleb128 0xa
 2731 007f 48       		.uleb128 0x48
 2732 0080 01       		.byte	0x1
 2733 0081 7D       		.uleb128 0x7d
 2734 0082 01       		.uleb128 0x1
 2735 0083 7F       		.uleb128 0x7f
 2736 0084 13       		.uleb128 0x13
 2737 0085 01       		.uleb128 0x1
 2738 0086 13       		.uleb128 0x13
 2739 0087 00       		.byte	0
 2740 0088 00       		.byte	0
 2741 0089 0B       		.uleb128 0xb
 2742 008a 24       		.uleb128 0x24
 2743 008b 00       		.byte	0
 2744 008c 0B       		.uleb128 0xb
 2745 008d 0B       		.uleb128 0xb
 2746 008e 3E       		.uleb128 0x3e
 2747 008f 0B       		.uleb128 0xb
 2748 0090 03       		.uleb128 0x3
 2749 0091 0E       		.uleb128 0xe
 2750 0092 00       		.byte	0
 2751 0093 00       		.byte	0
 2752 0094 0C       		.uleb128 0xc
 2753 0095 15       		.uleb128 0x15
 2754 0096 01       		.byte	0x1
 2755 0097 27       		.uleb128 0x27
ARM GAS  C:\Users\DEVELO~1\AppData\Local\Temp\ccnOkWUN.s 			page 50


 2756 0098 19       		.uleb128 0x19
 2757 0099 49       		.uleb128 0x49
 2758 009a 13       		.uleb128 0x13
 2759 009b 01       		.uleb128 0x1
 2760 009c 13       		.uleb128 0x13
 2761 009d 00       		.byte	0
 2762 009e 00       		.byte	0
 2763 009f 0D       		.uleb128 0xd
 2764 00a0 1D       		.uleb128 0x1d
 2765 00a1 00       		.byte	0
 2766 00a2 31       		.uleb128 0x31
 2767 00a3 13       		.uleb128 0x13
 2768 00a4 52       		.uleb128 0x52
 2769 00a5 01       		.uleb128 0x1
 2770 00a6 B842     		.uleb128 0x2138
 2771 00a8 0B       		.uleb128 0xb
 2772 00a9 11       		.uleb128 0x11
 2773 00aa 01       		.uleb128 0x1
 2774 00ab 12       		.uleb128 0x12
 2775 00ac 06       		.uleb128 0x6
 2776 00ad 58       		.uleb128 0x58
 2777 00ae 21       		.uleb128 0x21
 2778 00af 01       		.sleb128 1
 2779 00b0 59       		.uleb128 0x59
 2780 00b1 0B       		.uleb128 0xb
 2781 00b2 57       		.uleb128 0x57
 2782 00b3 21       		.uleb128 0x21
 2783 00b4 05       		.sleb128 5
 2784 00b5 00       		.byte	0
 2785 00b6 00       		.byte	0
 2786 00b7 0E       		.uleb128 0xe
 2787 00b8 13       		.uleb128 0x13
 2788 00b9 01       		.byte	0x1
 2789 00ba 0B       		.uleb128 0xb
 2790 00bb 0B       		.uleb128 0xb
 2791 00bc 3A       		.uleb128 0x3a
 2792 00bd 0B       		.uleb128 0xb
 2793 00be 3B       		.uleb128 0x3b
 2794 00bf 0B       		.uleb128 0xb
 2795 00c0 39       		.uleb128 0x39
 2796 00c1 0B       		.uleb128 0xb
 2797 00c2 01       		.uleb128 0x1
 2798 00c3 13       		.uleb128 0x13
 2799 00c4 00       		.byte	0
 2800 00c5 00       		.byte	0
 2801 00c6 0F       		.uleb128 0xf
 2802 00c7 0D       		.uleb128 0xd
 2803 00c8 00       		.byte	0
 2804 00c9 03       		.uleb128 0x3
 2805 00ca 0E       		.uleb128 0xe
 2806 00cb 3A       		.uleb128 0x3a
 2807 00cc 0B       		.uleb128 0xb
 2808 00cd 3B       		.uleb128 0x3b
 2809 00ce 0B       		.uleb128 0xb
 2810 00cf 39       		.uleb128 0x39
 2811 00d0 0B       		.uleb128 0xb
 2812 00d1 49       		.uleb128 0x49
ARM GAS  C:\Users\DEVELO~1\AppData\Local\Temp\ccnOkWUN.s 			page 51


 2813 00d2 13       		.uleb128 0x13
 2814 00d3 00       		.byte	0
 2815 00d4 00       		.byte	0
 2816 00d5 10       		.uleb128 0x10
 2817 00d6 26       		.uleb128 0x26
 2818 00d7 00       		.byte	0
 2819 00d8 49       		.uleb128 0x49
 2820 00d9 13       		.uleb128 0x13
 2821 00da 00       		.byte	0
 2822 00db 00       		.byte	0
 2823 00dc 11       		.uleb128 0x11
 2824 00dd 0D       		.uleb128 0xd
 2825 00de 00       		.byte	0
 2826 00df 03       		.uleb128 0x3
 2827 00e0 0E       		.uleb128 0xe
 2828 00e1 3A       		.uleb128 0x3a
 2829 00e2 21       		.uleb128 0x21
 2830 00e3 08       		.sleb128 8
 2831 00e4 3B       		.uleb128 0x3b
 2832 00e5 05       		.uleb128 0x5
 2833 00e6 39       		.uleb128 0x39
 2834 00e7 0B       		.uleb128 0xb
 2835 00e8 49       		.uleb128 0x49
 2836 00e9 13       		.uleb128 0x13
 2837 00ea 00       		.byte	0
 2838 00eb 00       		.byte	0
 2839 00ec 12       		.uleb128 0x12
 2840 00ed 13       		.uleb128 0x13
 2841 00ee 01       		.byte	0x1
 2842 00ef 03       		.uleb128 0x3
 2843 00f0 0E       		.uleb128 0xe
 2844 00f1 0B       		.uleb128 0xb
 2845 00f2 0B       		.uleb128 0xb
 2846 00f3 3A       		.uleb128 0x3a
 2847 00f4 0B       		.uleb128 0xb
 2848 00f5 3B       		.uleb128 0x3b
 2849 00f6 05       		.uleb128 0x5
 2850 00f7 39       		.uleb128 0x39
 2851 00f8 0B       		.uleb128 0xb
 2852 00f9 01       		.uleb128 0x1
 2853 00fa 13       		.uleb128 0x13
 2854 00fb 00       		.byte	0
 2855 00fc 00       		.byte	0
 2856 00fd 13       		.uleb128 0x13
 2857 00fe 35       		.uleb128 0x35
 2858 00ff 00       		.byte	0
 2859 0100 49       		.uleb128 0x49
 2860 0101 13       		.uleb128 0x13
 2861 0102 00       		.byte	0
 2862 0103 00       		.byte	0
 2863 0104 14       		.uleb128 0x14
 2864 0105 16       		.uleb128 0x16
 2865 0106 00       		.byte	0
 2866 0107 03       		.uleb128 0x3
 2867 0108 0E       		.uleb128 0xe
 2868 0109 3A       		.uleb128 0x3a
 2869 010a 0B       		.uleb128 0xb
ARM GAS  C:\Users\DEVELO~1\AppData\Local\Temp\ccnOkWUN.s 			page 52


 2870 010b 3B       		.uleb128 0x3b
 2871 010c 05       		.uleb128 0x5
 2872 010d 39       		.uleb128 0x39
 2873 010e 21       		.uleb128 0x21
 2874 010f 03       		.sleb128 3
 2875 0110 49       		.uleb128 0x49
 2876 0111 13       		.uleb128 0x13
 2877 0112 00       		.byte	0
 2878 0113 00       		.byte	0
 2879 0114 15       		.uleb128 0x15
 2880 0115 17       		.uleb128 0x17
 2881 0116 01       		.byte	0x1
 2882 0117 0B       		.uleb128 0xb
 2883 0118 0B       		.uleb128 0xb
 2884 0119 3A       		.uleb128 0x3a
 2885 011a 0B       		.uleb128 0xb
 2886 011b 3B       		.uleb128 0x3b
 2887 011c 0B       		.uleb128 0xb
 2888 011d 39       		.uleb128 0x39
 2889 011e 21       		.uleb128 0x21
 2890 011f 03       		.sleb128 3
 2891 0120 01       		.uleb128 0x1
 2892 0121 13       		.uleb128 0x13
 2893 0122 00       		.byte	0
 2894 0123 00       		.byte	0
 2895 0124 16       		.uleb128 0x16
 2896 0125 0D       		.uleb128 0xd
 2897 0126 00       		.byte	0
 2898 0127 03       		.uleb128 0x3
 2899 0128 08       		.uleb128 0x8
 2900 0129 3A       		.uleb128 0x3a
 2901 012a 21       		.uleb128 0x21
 2902 012b 0D       		.sleb128 13
 2903 012c 3B       		.uleb128 0x3b
 2904 012d 0B       		.uleb128 0xb
 2905 012e 39       		.uleb128 0x39
 2906 012f 21       		.uleb128 0x21
 2907 0130 07       		.sleb128 7
 2908 0131 49       		.uleb128 0x49
 2909 0132 13       		.uleb128 0x13
 2910 0133 00       		.byte	0
 2911 0134 00       		.byte	0
 2912 0135 17       		.uleb128 0x17
 2913 0136 0D       		.uleb128 0xd
 2914 0137 00       		.byte	0
 2915 0138 03       		.uleb128 0x3
 2916 0139 0E       		.uleb128 0xe
 2917 013a 3A       		.uleb128 0x3a
 2918 013b 21       		.uleb128 0x21
 2919 013c 0D       		.sleb128 13
 2920 013d 3B       		.uleb128 0x3b
 2921 013e 0B       		.uleb128 0xb
 2922 013f 39       		.uleb128 0x39
 2923 0140 21       		.uleb128 0x21
 2924 0141 19       		.sleb128 25
 2925 0142 49       		.uleb128 0x49
 2926 0143 13       		.uleb128 0x13
ARM GAS  C:\Users\DEVELO~1\AppData\Local\Temp\ccnOkWUN.s 			page 53


 2927 0144 0D       		.uleb128 0xd
 2928 0145 0B       		.uleb128 0xb
 2929 0146 6B       		.uleb128 0x6b
 2930 0147 0B       		.uleb128 0xb
 2931 0148 00       		.byte	0
 2932 0149 00       		.byte	0
 2933 014a 18       		.uleb128 0x18
 2934 014b 28       		.uleb128 0x28
 2935 014c 00       		.byte	0
 2936 014d 03       		.uleb128 0x3
 2937 014e 0E       		.uleb128 0xe
 2938 014f 1C       		.uleb128 0x1c
 2939 0150 0B       		.uleb128 0xb
 2940 0151 00       		.byte	0
 2941 0152 00       		.byte	0
 2942 0153 19       		.uleb128 0x19
 2943 0154 48       		.uleb128 0x48
 2944 0155 00       		.byte	0
 2945 0156 7D       		.uleb128 0x7d
 2946 0157 01       		.uleb128 0x1
 2947 0158 7F       		.uleb128 0x7f
 2948 0159 13       		.uleb128 0x13
 2949 015a 00       		.byte	0
 2950 015b 00       		.byte	0
 2951 015c 1A       		.uleb128 0x1a
 2952 015d 2E       		.uleb128 0x2e
 2953 015e 00       		.byte	0
 2954 015f 3F       		.uleb128 0x3f
 2955 0160 19       		.uleb128 0x19
 2956 0161 03       		.uleb128 0x3
 2957 0162 0E       		.uleb128 0xe
 2958 0163 3A       		.uleb128 0x3a
 2959 0164 0B       		.uleb128 0xb
 2960 0165 3B       		.uleb128 0x3b
 2961 0166 05       		.uleb128 0x5
 2962 0167 39       		.uleb128 0x39
 2963 0168 21       		.uleb128 0x21
 2964 0169 08       		.sleb128 8
 2965 016a 27       		.uleb128 0x27
 2966 016b 19       		.uleb128 0x19
 2967 016c 3C       		.uleb128 0x3c
 2968 016d 19       		.uleb128 0x19
 2969 016e 00       		.byte	0
 2970 016f 00       		.byte	0
 2971 0170 1B       		.uleb128 0x1b
 2972 0171 34       		.uleb128 0x34
 2973 0172 00       		.byte	0
 2974 0173 03       		.uleb128 0x3
 2975 0174 08       		.uleb128 0x8
 2976 0175 3A       		.uleb128 0x3a
 2977 0176 21       		.uleb128 0x21
 2978 0177 01       		.sleb128 1
 2979 0178 3B       		.uleb128 0x3b
 2980 0179 0B       		.uleb128 0xb
 2981 017a 39       		.uleb128 0x39
 2982 017b 0B       		.uleb128 0xb
 2983 017c 49       		.uleb128 0x49
ARM GAS  C:\Users\DEVELO~1\AppData\Local\Temp\ccnOkWUN.s 			page 54


 2984 017d 13       		.uleb128 0x13
 2985 017e 02       		.uleb128 0x2
 2986 017f 17       		.uleb128 0x17
 2987 0180 B742     		.uleb128 0x2137
 2988 0182 17       		.uleb128 0x17
 2989 0183 00       		.byte	0
 2990 0184 00       		.byte	0
 2991 0185 1C       		.uleb128 0x1c
 2992 0186 2E       		.uleb128 0x2e
 2993 0187 00       		.byte	0
 2994 0188 03       		.uleb128 0x3
 2995 0189 0E       		.uleb128 0xe
 2996 018a 3A       		.uleb128 0x3a
 2997 018b 21       		.uleb128 0x21
 2998 018c 02       		.sleb128 2
 2999 018d 3B       		.uleb128 0x3b
 3000 018e 05       		.uleb128 0x5
 3001 018f 39       		.uleb128 0x39
 3002 0190 21       		.uleb128 0x21
 3003 0191 1B       		.sleb128 27
 3004 0192 27       		.uleb128 0x27
 3005 0193 19       		.uleb128 0x19
 3006 0194 20       		.uleb128 0x20
 3007 0195 21       		.uleb128 0x21
 3008 0196 03       		.sleb128 3
 3009 0197 00       		.byte	0
 3010 0198 00       		.byte	0
 3011 0199 1D       		.uleb128 0x1d
 3012 019a 11       		.uleb128 0x11
 3013 019b 01       		.byte	0x1
 3014 019c 25       		.uleb128 0x25
 3015 019d 0E       		.uleb128 0xe
 3016 019e 13       		.uleb128 0x13
 3017 019f 0B       		.uleb128 0xb
 3018 01a0 03       		.uleb128 0x3
 3019 01a1 0E       		.uleb128 0xe
 3020 01a2 1B       		.uleb128 0x1b
 3021 01a3 0E       		.uleb128 0xe
 3022 01a4 55       		.uleb128 0x55
 3023 01a5 17       		.uleb128 0x17
 3024 01a6 11       		.uleb128 0x11
 3025 01a7 01       		.uleb128 0x1
 3026 01a8 10       		.uleb128 0x10
 3027 01a9 17       		.uleb128 0x17
 3028 01aa 00       		.byte	0
 3029 01ab 00       		.byte	0
 3030 01ac 1E       		.uleb128 0x1e
 3031 01ad 24       		.uleb128 0x24
 3032 01ae 00       		.byte	0
 3033 01af 0B       		.uleb128 0xb
 3034 01b0 0B       		.uleb128 0xb
 3035 01b1 3E       		.uleb128 0x3e
 3036 01b2 0B       		.uleb128 0xb
 3037 01b3 03       		.uleb128 0x3
 3038 01b4 08       		.uleb128 0x8
 3039 01b5 00       		.byte	0
 3040 01b6 00       		.byte	0
ARM GAS  C:\Users\DEVELO~1\AppData\Local\Temp\ccnOkWUN.s 			page 55


 3041 01b7 1F       		.uleb128 0x1f
 3042 01b8 13       		.uleb128 0x13
 3043 01b9 01       		.byte	0x1
 3044 01ba 03       		.uleb128 0x3
 3045 01bb 0E       		.uleb128 0xe
 3046 01bc 0B       		.uleb128 0xb
 3047 01bd 05       		.uleb128 0x5
 3048 01be 3A       		.uleb128 0x3a
 3049 01bf 0B       		.uleb128 0xb
 3050 01c0 3B       		.uleb128 0x3b
 3051 01c1 05       		.uleb128 0x5
 3052 01c2 39       		.uleb128 0x39
 3053 01c3 0B       		.uleb128 0xb
 3054 01c4 01       		.uleb128 0x1
 3055 01c5 13       		.uleb128 0x13
 3056 01c6 00       		.byte	0
 3057 01c7 00       		.byte	0
 3058 01c8 20       		.uleb128 0x20
 3059 01c9 0F       		.uleb128 0xf
 3060 01ca 00       		.byte	0
 3061 01cb 0B       		.uleb128 0xb
 3062 01cc 0B       		.uleb128 0xb
 3063 01cd 00       		.byte	0
 3064 01ce 00       		.byte	0
 3065 01cf 21       		.uleb128 0x21
 3066 01d0 13       		.uleb128 0x13
 3067 01d1 01       		.byte	0x1
 3068 01d2 0B       		.uleb128 0xb
 3069 01d3 05       		.uleb128 0x5
 3070 01d4 3A       		.uleb128 0x3a
 3071 01d5 0B       		.uleb128 0xb
 3072 01d6 3B       		.uleb128 0x3b
 3073 01d7 0B       		.uleb128 0xb
 3074 01d8 39       		.uleb128 0x39
 3075 01d9 0B       		.uleb128 0xb
 3076 01da 01       		.uleb128 0x1
 3077 01db 13       		.uleb128 0x13
 3078 01dc 00       		.byte	0
 3079 01dd 00       		.byte	0
 3080 01de 22       		.uleb128 0x22
 3081 01df 01       		.uleb128 0x1
 3082 01e0 01       		.byte	0x1
 3083 01e1 49       		.uleb128 0x49
 3084 01e2 13       		.uleb128 0x13
 3085 01e3 01       		.uleb128 0x1
 3086 01e4 13       		.uleb128 0x13
 3087 01e5 00       		.byte	0
 3088 01e6 00       		.byte	0
 3089 01e7 23       		.uleb128 0x23
 3090 01e8 21       		.uleb128 0x21
 3091 01e9 00       		.byte	0
 3092 01ea 49       		.uleb128 0x49
 3093 01eb 13       		.uleb128 0x13
 3094 01ec 2F       		.uleb128 0x2f
 3095 01ed 0B       		.uleb128 0xb
 3096 01ee 00       		.byte	0
 3097 01ef 00       		.byte	0
ARM GAS  C:\Users\DEVELO~1\AppData\Local\Temp\ccnOkWUN.s 			page 56


 3098 01f0 24       		.uleb128 0x24
 3099 01f1 13       		.uleb128 0x13
 3100 01f2 01       		.byte	0x1
 3101 01f3 0B       		.uleb128 0xb
 3102 01f4 0B       		.uleb128 0xb
 3103 01f5 3A       		.uleb128 0x3a
 3104 01f6 0B       		.uleb128 0xb
 3105 01f7 3B       		.uleb128 0x3b
 3106 01f8 05       		.uleb128 0x5
 3107 01f9 39       		.uleb128 0x39
 3108 01fa 0B       		.uleb128 0xb
 3109 01fb 01       		.uleb128 0x1
 3110 01fc 13       		.uleb128 0x13
 3111 01fd 00       		.byte	0
 3112 01fe 00       		.byte	0
 3113 01ff 25       		.uleb128 0x25
 3114 0200 15       		.uleb128 0x15
 3115 0201 01       		.byte	0x1
 3116 0202 27       		.uleb128 0x27
 3117 0203 19       		.uleb128 0x19
 3118 0204 01       		.uleb128 0x1
 3119 0205 13       		.uleb128 0x13
 3120 0206 00       		.byte	0
 3121 0207 00       		.byte	0
 3122 0208 26       		.uleb128 0x26
 3123 0209 04       		.uleb128 0x4
 3124 020a 01       		.byte	0x1
 3125 020b 3E       		.uleb128 0x3e
 3126 020c 0B       		.uleb128 0xb
 3127 020d 0B       		.uleb128 0xb
 3128 020e 0B       		.uleb128 0xb
 3129 020f 49       		.uleb128 0x49
 3130 0210 13       		.uleb128 0x13
 3131 0211 3A       		.uleb128 0x3a
 3132 0212 0B       		.uleb128 0xb
 3133 0213 3B       		.uleb128 0x3b
 3134 0214 0B       		.uleb128 0xb
 3135 0215 39       		.uleb128 0x39
 3136 0216 0B       		.uleb128 0xb
 3137 0217 01       		.uleb128 0x1
 3138 0218 13       		.uleb128 0x13
 3139 0219 00       		.byte	0
 3140 021a 00       		.byte	0
 3141 021b 27       		.uleb128 0x27
 3142 021c 34       		.uleb128 0x34
 3143 021d 00       		.byte	0
 3144 021e 03       		.uleb128 0x3
 3145 021f 08       		.uleb128 0x8
 3146 0220 3A       		.uleb128 0x3a
 3147 0221 0B       		.uleb128 0xb
 3148 0222 3B       		.uleb128 0x3b
 3149 0223 05       		.uleb128 0x5
 3150 0224 39       		.uleb128 0x39
 3151 0225 0B       		.uleb128 0xb
 3152 0226 49       		.uleb128 0x49
 3153 0227 13       		.uleb128 0x13
 3154 0228 3F       		.uleb128 0x3f
ARM GAS  C:\Users\DEVELO~1\AppData\Local\Temp\ccnOkWUN.s 			page 57


 3155 0229 19       		.uleb128 0x19
 3156 022a 3C       		.uleb128 0x3c
 3157 022b 19       		.uleb128 0x19
 3158 022c 00       		.byte	0
 3159 022d 00       		.byte	0
 3160 022e 28       		.uleb128 0x28
 3161 022f 34       		.uleb128 0x34
 3162 0230 00       		.byte	0
 3163 0231 03       		.uleb128 0x3
 3164 0232 0E       		.uleb128 0xe
 3165 0233 3A       		.uleb128 0x3a
 3166 0234 0B       		.uleb128 0xb
 3167 0235 3B       		.uleb128 0x3b
 3168 0236 0B       		.uleb128 0xb
 3169 0237 39       		.uleb128 0x39
 3170 0238 0B       		.uleb128 0xb
 3171 0239 49       		.uleb128 0x49
 3172 023a 13       		.uleb128 0x13
 3173 023b 02       		.uleb128 0x2
 3174 023c 18       		.uleb128 0x18
 3175 023d 00       		.byte	0
 3176 023e 00       		.byte	0
 3177 023f 29       		.uleb128 0x29
 3178 0240 34       		.uleb128 0x34
 3179 0241 00       		.byte	0
 3180 0242 03       		.uleb128 0x3
 3181 0243 08       		.uleb128 0x8
 3182 0244 3A       		.uleb128 0x3a
 3183 0245 0B       		.uleb128 0xb
 3184 0246 3B       		.uleb128 0x3b
 3185 0247 0B       		.uleb128 0xb
 3186 0248 39       		.uleb128 0x39
 3187 0249 0B       		.uleb128 0xb
 3188 024a 49       		.uleb128 0x49
 3189 024b 13       		.uleb128 0x13
 3190 024c 00       		.byte	0
 3191 024d 00       		.byte	0
 3192 024e 2A       		.uleb128 0x2a
 3193 024f 2E       		.uleb128 0x2e
 3194 0250 00       		.byte	0
 3195 0251 3F       		.uleb128 0x3f
 3196 0252 19       		.uleb128 0x19
 3197 0253 03       		.uleb128 0x3
 3198 0254 0E       		.uleb128 0xe
 3199 0255 3A       		.uleb128 0x3a
 3200 0256 0B       		.uleb128 0xb
 3201 0257 3B       		.uleb128 0x3b
 3202 0258 0B       		.uleb128 0xb
 3203 0259 39       		.uleb128 0x39
 3204 025a 0B       		.uleb128 0xb
 3205 025b 27       		.uleb128 0x27
 3206 025c 19       		.uleb128 0x19
 3207 025d 49       		.uleb128 0x49
 3208 025e 13       		.uleb128 0x13
 3209 025f 3C       		.uleb128 0x3c
 3210 0260 19       		.uleb128 0x19
 3211 0261 00       		.byte	0
ARM GAS  C:\Users\DEVELO~1\AppData\Local\Temp\ccnOkWUN.s 			page 58


 3212 0262 00       		.byte	0
 3213 0263 2B       		.uleb128 0x2b
 3214 0264 2E       		.uleb128 0x2e
 3215 0265 01       		.byte	0x1
 3216 0266 3F       		.uleb128 0x3f
 3217 0267 19       		.uleb128 0x19
 3218 0268 03       		.uleb128 0x3
 3219 0269 0E       		.uleb128 0xe
 3220 026a 3A       		.uleb128 0x3a
 3221 026b 0B       		.uleb128 0xb
 3222 026c 3B       		.uleb128 0x3b
 3223 026d 0B       		.uleb128 0xb
 3224 026e 39       		.uleb128 0x39
 3225 026f 0B       		.uleb128 0xb
 3226 0270 27       		.uleb128 0x27
 3227 0271 19       		.uleb128 0x19
 3228 0272 49       		.uleb128 0x49
 3229 0273 13       		.uleb128 0x13
 3230 0274 3C       		.uleb128 0x3c
 3231 0275 19       		.uleb128 0x19
 3232 0276 01       		.uleb128 0x1
 3233 0277 13       		.uleb128 0x13
 3234 0278 00       		.byte	0
 3235 0279 00       		.byte	0
 3236 027a 2C       		.uleb128 0x2c
 3237 027b 18       		.uleb128 0x18
 3238 027c 00       		.byte	0
 3239 027d 00       		.byte	0
 3240 027e 00       		.byte	0
 3241 027f 2D       		.uleb128 0x2d
 3242 0280 2E       		.uleb128 0x2e
 3243 0281 01       		.byte	0x1
 3244 0282 3F       		.uleb128 0x3f
 3245 0283 19       		.uleb128 0x19
 3246 0284 03       		.uleb128 0x3
 3247 0285 0E       		.uleb128 0xe
 3248 0286 3A       		.uleb128 0x3a
 3249 0287 0B       		.uleb128 0xb
 3250 0288 3B       		.uleb128 0x3b
 3251 0289 05       		.uleb128 0x5
 3252 028a 39       		.uleb128 0x39
 3253 028b 0B       		.uleb128 0xb
 3254 028c 27       		.uleb128 0x27
 3255 028d 19       		.uleb128 0x19
 3256 028e 3C       		.uleb128 0x3c
 3257 028f 19       		.uleb128 0x19
 3258 0290 01       		.uleb128 0x1
 3259 0291 13       		.uleb128 0x13
 3260 0292 00       		.byte	0
 3261 0293 00       		.byte	0
 3262 0294 2E       		.uleb128 0x2e
 3263 0295 2E       		.uleb128 0x2e
 3264 0296 01       		.byte	0x1
 3265 0297 3F       		.uleb128 0x3f
 3266 0298 19       		.uleb128 0x19
 3267 0299 03       		.uleb128 0x3
 3268 029a 0E       		.uleb128 0xe
ARM GAS  C:\Users\DEVELO~1\AppData\Local\Temp\ccnOkWUN.s 			page 59


 3269 029b 3A       		.uleb128 0x3a
 3270 029c 0B       		.uleb128 0xb
 3271 029d 3B       		.uleb128 0x3b
 3272 029e 05       		.uleb128 0x5
 3273 029f 39       		.uleb128 0x39
 3274 02a0 0B       		.uleb128 0xb
 3275 02a1 27       		.uleb128 0x27
 3276 02a2 19       		.uleb128 0x19
 3277 02a3 49       		.uleb128 0x49
 3278 02a4 13       		.uleb128 0x13
 3279 02a5 3C       		.uleb128 0x3c
 3280 02a6 19       		.uleb128 0x19
 3281 02a7 01       		.uleb128 0x1
 3282 02a8 13       		.uleb128 0x13
 3283 02a9 00       		.byte	0
 3284 02aa 00       		.byte	0
 3285 02ab 2F       		.uleb128 0x2f
 3286 02ac 2E       		.uleb128 0x2e
 3287 02ad 01       		.byte	0x1
 3288 02ae 3F       		.uleb128 0x3f
 3289 02af 19       		.uleb128 0x19
 3290 02b0 03       		.uleb128 0x3
 3291 02b1 0E       		.uleb128 0xe
 3292 02b2 3A       		.uleb128 0x3a
 3293 02b3 0B       		.uleb128 0xb
 3294 02b4 3B       		.uleb128 0x3b
 3295 02b5 0B       		.uleb128 0xb
 3296 02b6 39       		.uleb128 0x39
 3297 02b7 0B       		.uleb128 0xb
 3298 02b8 27       		.uleb128 0x27
 3299 02b9 19       		.uleb128 0x19
 3300 02ba 49       		.uleb128 0x49
 3301 02bb 13       		.uleb128 0x13
 3302 02bc 11       		.uleb128 0x11
 3303 02bd 01       		.uleb128 0x1
 3304 02be 12       		.uleb128 0x12
 3305 02bf 06       		.uleb128 0x6
 3306 02c0 40       		.uleb128 0x40
 3307 02c1 18       		.uleb128 0x18
 3308 02c2 7A       		.uleb128 0x7a
 3309 02c3 19       		.uleb128 0x19
 3310 02c4 01       		.uleb128 0x1
 3311 02c5 13       		.uleb128 0x13
 3312 02c6 00       		.byte	0
 3313 02c7 00       		.byte	0
 3314 02c8 30       		.uleb128 0x30
 3315 02c9 34       		.uleb128 0x34
 3316 02ca 00       		.byte	0
 3317 02cb 03       		.uleb128 0x3
 3318 02cc 0E       		.uleb128 0xe
 3319 02cd 3A       		.uleb128 0x3a
 3320 02ce 0B       		.uleb128 0xb
 3321 02cf 3B       		.uleb128 0x3b
 3322 02d0 0B       		.uleb128 0xb
 3323 02d1 39       		.uleb128 0x39
 3324 02d2 0B       		.uleb128 0xb
 3325 02d3 49       		.uleb128 0x49
ARM GAS  C:\Users\DEVELO~1\AppData\Local\Temp\ccnOkWUN.s 			page 60


 3326 02d4 13       		.uleb128 0x13
 3327 02d5 1C       		.uleb128 0x1c
 3328 02d6 0D       		.uleb128 0xd
 3329 02d7 00       		.byte	0
 3330 02d8 00       		.byte	0
 3331 02d9 31       		.uleb128 0x31
 3332 02da 48       		.uleb128 0x48
 3333 02db 01       		.byte	0x1
 3334 02dc 7D       		.uleb128 0x7d
 3335 02dd 01       		.uleb128 0x1
 3336 02de 7F       		.uleb128 0x7f
 3337 02df 13       		.uleb128 0x13
 3338 02e0 00       		.byte	0
 3339 02e1 00       		.byte	0
 3340 02e2 00       		.byte	0
 3341              		.section	.debug_loclists,"",%progbits
 3342 0000 27000000 		.4byte	.Ldebug_loc3-.Ldebug_loc2
 3343              	.Ldebug_loc2:
 3344 0004 0500     		.2byte	0x5
 3345 0006 04       		.byte	0x4
 3346 0007 00       		.byte	0
 3347 0008 00000000 		.4byte	0
 3348              	.Ldebug_loc0:
 3349              	.LVUS0:
 3350 000c 00       		.uleb128 .LVU13
 3351 000d 00       		.uleb128 .LVU14
 3352              	.LLST0:
 3353 000e 08       		.byte	0x8
 3354 000f 32000000 		.4byte	.LVL7
 3355 0013 05       		.uleb128 .LVL8-1-.LVL7
 3356 0014 01       		.uleb128 0x1
 3357 0015 52       		.byte	0x52
 3358 0016 00       		.byte	0
 3359              	.LVUS1:
 3360 0017 00       		.uleb128 .LVU42
 3361 0018 00       		.uleb128 .LVU53
 3362 0019 00       		.uleb128 .LVU58
 3363 001a 00       		.uleb128 0
 3364              	.LLST1:
 3365 001b 06       		.byte	0x6
 3366 001c 82000000 		.4byte	.LVL14
 3367 0020 04       		.byte	0x4
 3368 0021 00       		.uleb128 .LVL14-.LVL14
 3369 0022 20       		.uleb128 .LVL17-.LVL14
 3370 0023 01       		.uleb128 0x1
 3371 0024 55       		.byte	0x55
 3372 0025 04       		.byte	0x4
 3373 0026 34       		.uleb128 .LVL20-.LVL14
 3374 0027 7A       		.uleb128 .LFE432-.LVL14
 3375 0028 01       		.uleb128 0x1
 3376 0029 55       		.byte	0x55
 3377 002a 00       		.byte	0
 3378              	.Ldebug_loc3:
 3379              		.section	.debug_aranges,"",%progbits
 3380 0000 1C000000 		.4byte	0x1c
 3381 0004 0200     		.2byte	0x2
 3382 0006 00000000 		.4byte	.Ldebug_info0
ARM GAS  C:\Users\DEVELO~1\AppData\Local\Temp\ccnOkWUN.s 			page 61


 3383 000a 04       		.byte	0x4
 3384 000b 00       		.byte	0
 3385 000c 0000     		.2byte	0
 3386 000e 0000     		.2byte	0
 3387 0010 00000000 		.4byte	.LFB432
 3388 0014 FC000000 		.4byte	.LFE432-.LFB432
 3389 0018 00000000 		.4byte	0
 3390 001c 00000000 		.4byte	0
 3391              		.section	.debug_rnglists,"",%progbits
 3392              	.Ldebug_ranges0:
 3393 0000 10000000 		.4byte	.Ldebug_ranges3-.Ldebug_ranges2
 3394              	.Ldebug_ranges2:
 3395 0004 0500     		.2byte	0x5
 3396 0006 04       		.byte	0x4
 3397 0007 00       		.byte	0
 3398 0008 00000000 		.4byte	0
 3399              	.LLRL2:
 3400 000c 07       		.byte	0x7
 3401 000d 00000000 		.4byte	.LFB432
 3402 0011 FC01     		.uleb128 .LFE432-.LFB432
 3403 0013 00       		.byte	0
 3404              	.Ldebug_ranges3:
 3405              		.section	.debug_line,"",%progbits
 3406              	.Ldebug_line0:
 3407 0000 C5040000 		.section	.debug_str,"MS",%progbits,1
 3407      0300AE03 
 3407      00000201 
 3407      FB0E0D00 
 3407      01010101 
 3408              	.LASF73:
 3409 0000 70726576 		.ascii	"prev\000"
 3409      00
 3410              	.LASF122:
 3411 0005 72656164 		.ascii	"ready_list_t\000"
 3411      795F6C69 
 3411      73745F74 
 3411      00
 3412              	.LASF4:
 3413 0012 73697A65 		.ascii	"size_t\000"
 3413      5F7400
 3414              	.LASF111:
 3415 0019 7264796D 		.ascii	"rdymsg\000"
 3415      736700
 3416              	.LASF53:
 3417 0020 72666375 		.ascii	"rfcu\000"
 3417      00
 3418              	.LASF140:
 3419 0025 77726974 		.ascii	"write\000"
 3419      6500
 3420              	.LASF5:
 3421 002b 5F5F7569 		.ascii	"__uint8_t\000"
 3421      6E74385F 
 3421      7400
 3422              	.LASF186:
 3423 0035 433A5C50 		.ascii	"C:\\PROJET\\ChibiOS project\\ChibiOS_21.11.4\\demos"
 3423      524F4A45 
 3423      545C4368 
ARM GAS  C:\Users\DEVELO~1\AppData\Local\Temp\ccnOkWUN.s 			page 62


 3423      6962694F 
 3423      53207072 
 3424 0064 5C53544D 		.ascii	"\\STM32\\RT-STM32H743ZI_REV_XY-NUCLEO144\000"
 3424      33325C52 
 3424      542D5354 
 3424      4D333248 
 3424      3734335A 
 3425              	.LASF96:
 3426 008b 706F7274 		.ascii	"port_intctx\000"
 3426      5F696E74 
 3426      63747800 
 3427              	.LASF50:
 3428 0097 76746C69 		.ascii	"vtlist\000"
 3428      737400
 3429              	.LASF167:
 3430 009e 72786D61 		.ascii	"rxmask\000"
 3430      736B00
 3431              	.LASF84:
 3432 00a5 74797065 		.ascii	"type\000"
 3432      00
 3433              	.LASF87:
 3434 00aa 74726163 		.ascii	"trace_event_t\000"
 3434      655F6576 
 3434      656E745F 
 3434      7400
 3435              	.LASF82:
 3436 00b8 68616C74 		.ascii	"halt\000"
 3436      00
 3437              	.LASF112:
 3438 00bd 65786974 		.ascii	"exitcode\000"
 3438      636F6465 
 3438      00
 3439              	.LASF55:
 3440 00c6 6D61696E 		.ascii	"mainthread\000"
 3440      74687265 
 3440      616400
 3441              	.LASF114:
 3442 00d1 73656E74 		.ascii	"sentmsg\000"
 3442      6D736700 
 3443              	.LASF79:
 3444 00d9 64656C74 		.ascii	"delta\000"
 3444      6100
 3445              	.LASF143:
 3446 00df 696F5F71 		.ascii	"io_queue_t\000"
 3446      75657565 
 3446      5F7400
 3447              	.LASF70:
 3448 00ea 6E657874 		.ascii	"next\000"
 3448      00
 3449              	.LASF107:
 3450 00ef 63685F74 		.ascii	"ch_threads_queue\000"
 3450      68726561 
 3450      64735F71 
 3450      75657565 
 3450      00
 3451              	.LASF175:
 3452 0100 72656164 		.ascii	"readt\000"
ARM GAS  C:\Users\DEVELO~1\AppData\Local\Temp\ccnOkWUN.s 			page 63


 3452      7400
 3453              	.LASF39:
 3454 0106 72656673 		.ascii	"refs\000"
 3454      00
 3455              	.LASF145:
 3456 010b 715F7761 		.ascii	"q_waiting\000"
 3456      6974696E 
 3456      6700
 3457              	.LASF1:
 3458 0115 6C6F6E67 		.ascii	"long long int\000"
 3458      206C6F6E 
 3458      6720696E 
 3458      7400
 3459              	.LASF3:
 3460 0123 7369676E 		.ascii	"signed char\000"
 3460      65642063 
 3460      68617200 
 3461              	.LASF168:
 3462 012f 68616C5F 		.ascii	"hal_serial_config\000"
 3462      73657269 
 3462      616C5F63 
 3462      6F6E6669 
 3462      6700
 3463              	.LASF178:
 3464 0141 63685379 		.ascii	"chSysInit\000"
 3464      73496E69 
 3464      7400
 3465              	.LASF92:
 3466 014b 47545052 		.ascii	"GTPR\000"
 3466      00
 3467              	.LASF13:
 3468 0150 6C6F6E67 		.ascii	"long unsigned int\000"
 3468      20756E73 
 3468      69676E65 
 3468      6420696E 
 3468      7400
 3469              	.LASF78:
 3470 0162 63685F64 		.ascii	"ch_delta_list\000"
 3470      656C7461 
 3470      5F6C6973 
 3470      7400
 3471              	.LASF15:
 3472 0170 6C6F6E67 		.ascii	"long long unsigned int\000"
 3472      206C6F6E 
 3472      6720756E 
 3472      7369676E 
 3472      65642069 
 3473              	.LASF37:
 3474 0187 73746174 		.ascii	"state\000"
 3474      6500
 3475              	.LASF11:
 3476 018d 6C6F6E67 		.ascii	"long int\000"
 3476      20696E74 
 3476      00
 3477              	.LASF161:
 3478 0196 68616C5F 		.ascii	"hal_serial_driver\000"
 3478      73657269 
ARM GAS  C:\Users\DEVELO~1\AppData\Local\Temp\ccnOkWUN.s 			page 64


 3478      616C5F64 
 3478      72697665 
 3478      7200
 3479              	.LASF24:
 3480 01a8 74737461 		.ascii	"tstate_t\000"
 3480      74655F74 
 3480      00
 3481              	.LASF58:
 3482 01b1 63685F72 		.ascii	"ch_rfcu\000"
 3482      66637500 
 3483              	.LASF184:
 3484 01b9 474E5520 		.ascii	"GNU C17 11.3.1 20220712 -mcpu=cortex-m7 -mthumb -mf"
 3484      43313720 
 3484      31312E33 
 3484      2E312032 
 3484      30323230 
 3485 01ec 6C6F6174 		.ascii	"loat-abi=soft -march=armv7e-m -ggdb -O2 -fomit-fram"
 3485      2D616269 
 3485      3D736F66 
 3485      74202D6D 
 3485      61726368 
 3486 021f 652D706F 		.ascii	"e-pointer -falign-functions=16 -ffunction-sections "
 3486      696E7465 
 3486      72202D66 
 3486      616C6967 
 3486      6E2D6675 
 3487 0252 2D666461 		.ascii	"-fdata-sections -fno-common\000"
 3487      74612D73 
 3487      65637469 
 3487      6F6E7320 
 3487      2D666E6F 
 3488              	.LASF72:
 3489 026e 63685F71 		.ascii	"ch_queue\000"
 3489      75657565 
 3489      00
 3490              	.LASF147:
 3491 0277 715F6275 		.ascii	"q_buffer\000"
 3491      66666572 
 3491      00
 3492              	.LASF17:
 3493 0280 75696E74 		.ascii	"uint16_t\000"
 3493      31365F74 
 3493      00
 3494              	.LASF103:
 3495 0289 63685F72 		.ascii	"ch_registry\000"
 3495      65676973 
 3495      74727900 
 3496              	.LASF134:
 3497 0295 77666C61 		.ascii	"wflags\000"
 3497      677300
 3498              	.LASF189:
 3499 029c 6D61696E 		.ascii	"main\000"
 3499      00
 3500              	.LASF94:
 3501 02a1 50524553 		.ascii	"PRESC\000"
 3501      4300
 3502              	.LASF12:
ARM GAS  C:\Users\DEVELO~1\AppData\Local\Temp\ccnOkWUN.s 			page 65


 3503 02a7 5F5F7569 		.ascii	"__uint32_t\000"
 3503      6E743332 
 3503      5F7400
 3504              	.LASF59:
 3505 02b2 6D61736B 		.ascii	"mask\000"
 3505      00
 3506              	.LASF71:
 3507 02b7 63685F71 		.ascii	"ch_queue_t\000"
 3507      75657565 
 3507      5F7400
 3508              	.LASF40:
 3509 02c2 77616974 		.ascii	"waiting\000"
 3509      696E6700 
 3510              	.LASF180:
 3511 02ca 75617274 		.ascii	"uart_cfg\000"
 3511      5F636667 
 3511      00
 3512              	.LASF124:
 3513 02d3 6D61696E 		.ascii	"mainthread_base\000"
 3513      74687265 
 3513      61645F62 
 3513      61736500 
 3514              	.LASF129:
 3515 02e3 6D757465 		.ascii	"mutex_t\000"
 3515      785F7400 
 3516              	.LASF144:
 3517 02eb 696F5F71 		.ascii	"io_queue\000"
 3517      75657565 
 3517      00
 3518              	.LASF136:
 3519 02f4 6576656E 		.ascii	"event_source_t\000"
 3519      745F736F 
 3519      75726365 
 3519      5F7400
 3520              	.LASF66:
 3521 0303 73797369 		.ascii	"sysinterval_t\000"
 3521      6E746572 
 3521      76616C5F 
 3521      7400
 3522              	.LASF30:
 3523 0311 636E745F 		.ascii	"cnt_t\000"
 3523      7400
 3524              	.LASF41:
 3525 0317 6D736771 		.ascii	"msgqueue\000"
 3525      75657565 
 3525      00
 3526              	.LASF165:
 3527 0320 75736172 		.ascii	"usart\000"
 3527      7400
 3528              	.LASF0:
 3529 0326 756E7369 		.ascii	"unsigned int\000"
 3529      676E6564 
 3529      20696E74 
 3529      00
 3530              	.LASF126:
 3531 0333 69646C65 		.ascii	"idlethread_base\000"
 3531      74687265 
ARM GAS  C:\Users\DEVELO~1\AppData\Local\Temp\ccnOkWUN.s 			page 66


 3531      61645F62 
 3531      61736500 
 3532              	.LASF171:
 3533 0343 53657269 		.ascii	"SerialDriverVMT\000"
 3533      616C4472 
 3533      69766572 
 3533      564D5400 
 3534              	.LASF115:
 3535 0353 77747365 		.ascii	"wtsemp\000"
 3535      6D7000
 3536              	.LASF64:
 3537 035a 73797374 		.ascii	"system_debug_t\000"
 3537      656D5F64 
 3537      65627567 
 3537      5F7400
 3538              	.LASF163:
 3539 0369 69717565 		.ascii	"iqueue\000"
 3539      756500
 3540              	.LASF113:
 3541 0370 77747472 		.ascii	"wttrp\000"
 3541      7000
 3542              	.LASF33:
 3543 0376 72717565 		.ascii	"rqueue\000"
 3543      756500
 3544              	.LASF179:
 3545 037d 68616C49 		.ascii	"halInit\000"
 3545      6E697400 
 3546              	.LASF67:
 3547 0385 74696D65 		.ascii	"time_conv_t\000"
 3547      5F636F6E 
 3547      765F7400 
 3548              	.LASF173:
 3549 0391 67657474 		.ascii	"gett\000"
 3549      00
 3550              	.LASF35:
 3551 0396 6E616D65 		.ascii	"name\000"
 3551      00
 3552              	.LASF104:
 3553 039b 71756575 		.ascii	"queue\000"
 3553      6500
 3554              	.LASF45:
 3555 03a1 6D706F6F 		.ascii	"mpool\000"
 3555      6C00
 3556              	.LASF162:
 3557 03a7 6576656E 		.ascii	"event\000"
 3557      7400
 3558              	.LASF89:
 3559 03ad 73697A65 		.ascii	"size\000"
 3559      00
 3560              	.LASF9:
 3561 03b2 73686F72 		.ascii	"short unsigned int\000"
 3561      7420756E 
 3561      7369676E 
 3561      65642069 
 3561      6E7400
 3562              	.LASF47:
 3563 03c5 63685F74 		.ascii	"ch_thread\000"
ARM GAS  C:\Users\DEVELO~1\AppData\Local\Temp\ccnOkWUN.s 			page 67


 3563      68726561 
 3563      6400
 3564              	.LASF29:
 3565 03cf 6576656E 		.ascii	"eventflags_t\000"
 3565      74666C61 
 3565      67735F74 
 3565      00
 3566              	.LASF27:
 3567 03dc 6D73675F 		.ascii	"msg_t\000"
 3567      7400
 3568              	.LASF42:
 3569 03e2 6570656E 		.ascii	"epending\000"
 3569      64696E67 
 3569      00
 3570              	.LASF95:
 3571 03eb 55534152 		.ascii	"USART_TypeDef\000"
 3571      545F5479 
 3571      70654465 
 3571      6600
 3572              	.LASF174:
 3573 03f9 77726974 		.ascii	"writet\000"
 3573      657400
 3574              	.LASF23:
 3575 0400 746D6F64 		.ascii	"tmode_t\000"
 3575      655F7400 
 3576              	.LASF69:
 3577 0408 63685F6C 		.ascii	"ch_list\000"
 3577      69737400 
 3578              	.LASF120:
 3579 0410 63685F72 		.ascii	"ch_ready_list\000"
 3579      65616479 
 3579      5F6C6973 
 3579      7400
 3580              	.LASF28:
 3581 041e 6576656E 		.ascii	"eventmask_t\000"
 3581      746D6173 
 3581      6B5F7400 
 3582              	.LASF169:
 3583 042a 73706565 		.ascii	"speed\000"
 3583      6400
 3584              	.LASF182:
 3585 0430 5F5F4453 		.ascii	"__DSB\000"
 3585      4200
 3586              	.LASF102:
 3587 0436 76697274 		.ascii	"virtual_timers_list_t\000"
 3587      75616C5F 
 3587      74696D65 
 3587      72735F6C 
 3587      6973745F 
 3588              	.LASF22:
 3589 044c 73746B61 		.ascii	"stkalign_t\000"
 3589      6C69676E 
 3589      5F7400
 3590              	.LASF85:
 3591 0457 72747374 		.ascii	"rtstamp\000"
 3591      616D7000 
 3592              	.LASF101:
ARM GAS  C:\Users\DEVELO~1\AppData\Local\Temp\ccnOkWUN.s 			page 68


 3593 045f 6C617374 		.ascii	"laststamp\000"
 3593      7374616D 
 3593      7000
 3594              	.LASF130:
 3595 0469 6576656E 		.ascii	"event_listener_t\000"
 3595      745F6C69 
 3595      7374656E 
 3595      65725F74 
 3595      00
 3596              	.LASF154:
 3597 047a 696E7075 		.ascii	"input_queue_t\000"
 3597      745F7175 
 3597      6575655F 
 3597      7400
 3598              	.LASF172:
 3599 0488 70757474 		.ascii	"putt\000"
 3599      00
 3600              	.LASF57:
 3601 048d 72666375 		.ascii	"rfcu_mask_t\000"
 3601      5F6D6173 
 3601      6B5F7400 
 3602              	.LASF152:
 3603 0499 715F6C69 		.ascii	"q_link\000"
 3603      6E6B00
 3604              	.LASF106:
 3605 04a0 74687265 		.ascii	"thread_reference_t\000"
 3605      61645F72 
 3605      65666572 
 3605      656E6365 
 3605      5F7400
 3606              	.LASF132:
 3607 04b3 6C697374 		.ascii	"listener\000"
 3607      656E6572 
 3607      00
 3608              	.LASF98:
 3609 04bc 63685F76 		.ascii	"ch_virtual_timers_list\000"
 3609      69727475 
 3609      616C5F74 
 3609      696D6572 
 3609      735F6C69 
 3610              	.LASF146:
 3611 04d3 715F636F 		.ascii	"q_counter\000"
 3611      756E7465 
 3611      7200
 3612              	.LASF155:
 3613 04dd 6F757470 		.ascii	"output_queue_t\000"
 3613      75745F71 
 3613      75657565 
 3613      5F7400
 3614              	.LASF187:
 3615 04ec 73647261 		.ascii	"sdram_init_minimal\000"
 3615      6D5F696E 
 3615      69745F6D 
 3615      696E696D 
 3615      616C00
 3616              	.LASF68:
 3617 04ff 63685F6C 		.ascii	"ch_list_t\000"
ARM GAS  C:\Users\DEVELO~1\AppData\Local\Temp\ccnOkWUN.s 			page 69


 3617      6973745F 
 3617      7400
 3618              	.LASF88:
 3619 0509 73757370 		.ascii	"suspended\000"
 3619      656E6465 
 3619      6400
 3620              	.LASF20:
 3621 0513 75696E74 		.ascii	"uint64_t\000"
 3621      36345F74 
 3621      00
 3622              	.LASF149:
 3623 051c 715F7772 		.ascii	"q_wrptr\000"
 3623      70747200 
 3624              	.LASF183:
 3625 0524 5F5F4953 		.ascii	"__ISB\000"
 3625      4200
 3626              	.LASF123:
 3627 052a 63685F6F 		.ascii	"ch_os_instance_config\000"
 3627      735F696E 
 3627      7374616E 
 3627      63655F63 
 3627      6F6E6669 
 3628              	.LASF97:
 3629 0540 706F7274 		.ascii	"port_context\000"
 3629      5F636F6E 
 3629      74657874 
 3629      00
 3630              	.LASF48:
 3631 054d 63685F6F 		.ascii	"ch_os_instance\000"
 3631      735F696E 
 3631      7374616E 
 3631      636500
 3632              	.LASF86:
 3633 055c 74696D65 		.ascii	"time\000"
 3633      00
 3634              	.LASF76:
 3635 0561 7072696F 		.ascii	"prio\000"
 3635      00
 3636              	.LASF188:
 3637 0566 63685468 		.ascii	"chThdSleep\000"
 3637      64536C65 
 3637      657000
 3638              	.LASF170:
 3639 0571 53657269 		.ascii	"SerialConfig\000"
 3639      616C436F 
 3639      6E666967 
 3639      00
 3640              	.LASF14:
 3641 057e 5F5F7569 		.ascii	"__uint64_t\000"
 3641      6E743634 
 3641      5F7400
 3642              	.LASF31:
 3643 0589 636F7265 		.ascii	"core_id_t\000"
 3643      5F69645F 
 3643      7400
 3644              	.LASF25:
 3645 0593 74726566 		.ascii	"trefs_t\000"
ARM GAS  C:\Users\DEVELO~1\AppData\Local\Temp\ccnOkWUN.s 			page 70


 3645      735F7400 
 3646              	.LASF153:
 3647 059b 716E6F74 		.ascii	"qnotify_t\000"
 3647      6966795F 
 3647      7400
 3648              	.LASF157:
 3649 05a5 53445F53 		.ascii	"SD_STOP\000"
 3649      544F5000 
 3650              	.LASF83:
 3651 05ad 75736572 		.ascii	"user\000"
 3651      00
 3652              	.LASF26:
 3653 05b2 74707269 		.ascii	"tprio_t\000"
 3653      6F5F7400 
 3654              	.LASF150:
 3655 05ba 715F7264 		.ascii	"q_rdptr\000"
 3655      70747200 
 3656              	.LASF61:
 3657 05c2 63685F73 		.ascii	"ch_system_debug\000"
 3657      79737465 
 3657      6D5F6465 
 3657      62756700 
 3658              	.LASF137:
 3659 05d2 5F426F6F 		.ascii	"_Bool\000"
 3659      6C00
 3660              	.LASF18:
 3661 05d8 696E7433 		.ascii	"int32_t\000"
 3661      325F7400 
 3662              	.LASF6:
 3663 05e0 756E7369 		.ascii	"unsigned char\000"
 3663      676E6564 
 3663      20636861 
 3663      7200
 3664              	.LASF60:
 3665 05ee 72666375 		.ascii	"rfcu_t\000"
 3665      5F7400
 3666              	.LASF7:
 3667 05f5 73686F72 		.ascii	"short int\000"
 3667      7420696E 
 3667      7400
 3668              	.LASF100:
 3669 05ff 6C617374 		.ascii	"lasttime\000"
 3669      74696D65 
 3669      00
 3670              	.LASF91:
 3671 0608 74726163 		.ascii	"trace_buffer_t\000"
 3671      655F6275 
 3671      66666572 
 3671      5F7400
 3672              	.LASF80:
 3673 0617 77746F62 		.ascii	"wtobjp\000"
 3673      6A7000
 3674              	.LASF117:
 3675 061e 65776D61 		.ascii	"ewmask\000"
 3675      736B00
 3676              	.LASF164:
 3677 0625 6F717565 		.ascii	"oqueue\000"
ARM GAS  C:\Users\DEVELO~1\AppData\Local\Temp\ccnOkWUN.s 			page 71


 3677      756500
 3678              	.LASF138:
 3679 062c 42617365 		.ascii	"BaseSequentialStreamVMT\000"
 3679      53657175 
 3679      656E7469 
 3679      616C5374 
 3679      7265616D 
 3680              	.LASF52:
 3681 0644 636F7265 		.ascii	"core_id\000"
 3681      5F696400 
 3682              	.LASF81:
 3683 064c 72656173 		.ascii	"reason\000"
 3683      6F6E00
 3684              	.LASF108:
 3685 0653 74687265 		.ascii	"threads_queue_t\000"
 3685      6164735F 
 3685      71756575 
 3685      655F7400 
 3686              	.LASF118:
 3687 0663 63685F73 		.ascii	"ch_semaphore\000"
 3687      656D6170 
 3687      686F7265 
 3687      00
 3688              	.LASF121:
 3689 0670 63757272 		.ascii	"current\000"
 3689      656E7400 
 3690              	.LASF156:
 3691 0678 53445F55 		.ascii	"SD_UNINIT\000"
 3691      4E494E49 
 3691      5400
 3692              	.LASF133:
 3693 0682 6576656E 		.ascii	"events\000"
 3693      747300
 3694              	.LASF19:
 3695 0689 75696E74 		.ascii	"uint32_t\000"
 3695      33325F74 
 3695      00
 3696              	.LASF116:
 3697 0692 77746D74 		.ascii	"wtmtxp\000"
 3697      787000
 3698              	.LASF21:
 3699 0699 706F7274 		.ascii	"port_stkalign_t\000"
 3699      5F73746B 
 3699      616C6967 
 3699      6E5F7400 
 3700              	.LASF34:
 3701 06a9 6F776E65 		.ascii	"owner\000"
 3701      7200
 3702              	.LASF160:
 3703 06af 53657269 		.ascii	"SerialDriver\000"
 3703      616C4472 
 3703      69766572 
 3703      00
 3704              	.LASF44:
 3705 06bc 7265616C 		.ascii	"realprio\000"
 3705      7072696F 
 3705      00
ARM GAS  C:\Users\DEVELO~1\AppData\Local\Temp\ccnOkWUN.s 			page 72


 3706              	.LASF2:
 3707 06c5 6C6F6E67 		.ascii	"long double\000"
 3707      20646F75 
 3707      626C6500 
 3708              	.LASF36:
 3709 06d1 77616261 		.ascii	"wabase\000"
 3709      736500
 3710              	.LASF63:
 3711 06d8 63686172 		.ascii	"char\000"
 3711      00
 3712              	.LASF10:
 3713 06dd 5F5F696E 		.ascii	"__int32_t\000"
 3713      7433325F 
 3713      7400
 3714              	.LASF54:
 3715 06e7 636F6E66 		.ascii	"config\000"
 3715      696700
 3716              	.LASF142:
 3717 06ee 42617365 		.ascii	"BaseSequentialStream\000"
 3717      53657175 
 3717      656E7469 
 3717      616C5374 
 3717      7265616D 
 3718              	.LASF8:
 3719 0703 5F5F7569 		.ascii	"__uint16_t\000"
 3719      6E743136 
 3719      5F7400
 3720              	.LASF32:
 3721 070e 74687265 		.ascii	"thread_t\000"
 3721      61645F74 
 3721      00
 3722              	.LASF99:
 3723 0717 646C6973 		.ascii	"dlist\000"
 3723      7400
 3724              	.LASF65:
 3725 071d 73797374 		.ascii	"systime_t\000"
 3725      696D655F 
 3725      7400
 3726              	.LASF90:
 3727 0727 62756666 		.ascii	"buffer\000"
 3727      657200
 3728              	.LASF74:
 3729 072e 63685F70 		.ascii	"ch_priority_queue_t\000"
 3729      72696F72 
 3729      6974795F 
 3729      71756575 
 3729      655F7400 
 3730              	.LASF62:
 3731 0742 70616E69 		.ascii	"panic_msg\000"
 3731      635F6D73 
 3731      6700
 3732              	.LASF110:
 3733 074c 70717565 		.ascii	"pqueue\000"
 3733      756500
 3734              	.LASF93:
 3735 0753 52544F52 		.ascii	"RTOR\000"
 3735      00
ARM GAS  C:\Users\DEVELO~1\AppData\Local\Temp\ccnOkWUN.s 			page 73


 3736              	.LASF46:
 3737 0758 6F735F69 		.ascii	"os_instance_t\000"
 3737      6E737461 
 3737      6E63655F 
 3737      7400
 3738              	.LASF51:
 3739 0766 7265676C 		.ascii	"reglist\000"
 3739      69737400 
 3740              	.LASF75:
 3741 076e 63685F70 		.ascii	"ch_priority_queue\000"
 3741      72696F72 
 3741      6974795F 
 3741      71756575 
 3741      6500
 3742              	.LASF158:
 3743 0780 53445F52 		.ascii	"SD_READY\000"
 3743      45414459 
 3743      00
 3744              	.LASF77:
 3745 0789 63685F64 		.ascii	"ch_delta_list_t\000"
 3745      656C7461 
 3745      5F6C6973 
 3745      745F7400 
 3746              	.LASF105:
 3747 0799 72656769 		.ascii	"registry_t\000"
 3747      73747279 
 3747      5F7400
 3748              	.LASF125:
 3749 07a4 6D61696E 		.ascii	"mainthread_end\000"
 3749      74687265 
 3749      61645F65 
 3749      6E6400
 3750              	.LASF181:
 3751 07b3 73647261 		.ascii	"sdram\000"
 3751      6D00
 3752              	.LASF185:
 3753 07b9 6D61696E 		.ascii	"main.c\000"
 3753      2E6300
 3754              	.LASF159:
 3755 07c0 73647374 		.ascii	"sdstate_t\000"
 3755      6174655F 
 3755      7400
 3756              	.LASF128:
 3757 07ca 6F735F69 		.ascii	"os_instance_config_t\000"
 3757      6E737461 
 3757      6E63655F 
 3757      636F6E66 
 3757      69675F74 
 3758              	.LASF148:
 3759 07df 715F746F 		.ascii	"q_top\000"
 3759      7000
 3760              	.LASF119:
 3761 07e5 63685F6D 		.ascii	"ch_mutex\000"
 3761      75746578 
 3761      00
 3762              	.LASF151:
 3763 07ee 715F6E6F 		.ascii	"q_notify\000"
ARM GAS  C:\Users\DEVELO~1\AppData\Local\Temp\ccnOkWUN.s 			page 74


 3763      74696679 
 3763      00
 3764              	.LASF49:
 3765 07f7 726C6973 		.ascii	"rlist\000"
 3765      7400
 3766              	.LASF135:
 3767 07fd 6576656E 		.ascii	"event_source\000"
 3767      745F736F 
 3767      75726365 
 3767      00
 3768              	.LASF16:
 3769 080a 75696E74 		.ascii	"uint8_t\000"
 3769      385F7400 
 3770              	.LASF38:
 3771 0812 666C6167 		.ascii	"flags\000"
 3771      7300
 3772              	.LASF141:
 3773 0818 72656164 		.ascii	"read\000"
 3773      00
 3774              	.LASF56:
 3775 081d 74726163 		.ascii	"trace_buffer\000"
 3775      655F6275 
 3775      66666572 
 3775      00
 3776              	.LASF166:
 3777 082a 636C6F63 		.ascii	"clock\000"
 3777      6B00
 3778              	.LASF139:
 3779 0830 696E7374 		.ascii	"instance_offset\000"
 3779      616E6365 
 3779      5F6F6666 
 3779      73657400 
 3780              	.LASF109:
 3781 0840 6C697374 		.ascii	"list\000"
 3781      00
 3782              	.LASF177:
 3783 0845 73645374 		.ascii	"sdStart\000"
 3783      61727400 
 3784              	.LASF127:
 3785 084d 69646C65 		.ascii	"idlethread_end\000"
 3785      74687265 
 3785      61645F65 
 3785      6E6400
 3786              	.LASF43:
 3787 085c 6D74786C 		.ascii	"mtxlist\000"
 3787      69737400 
 3788              	.LASF131:
 3789 0864 6576656E 		.ascii	"event_listener\000"
 3789      745F6C69 
 3789      7374656E 
 3789      657200
 3790              	.LASF176:
 3791 0873 63687072 		.ascii	"chprintf\000"
 3791      696E7466 
 3791      00
 3792              		.ident	"GCC: (Arm GNU Toolchain 11.3.Rel1) 11.3.1 20220712"
ARM GAS  C:\Users\DEVELO~1\AppData\Local\Temp\ccnOkWUN.s 			page 75


DEFINED SYMBOLS
                            *ABS*:00000000 main.c
C:\Users\DEVELO~1\AppData\Local\Temp\ccnOkWUN.s:18     .rodata.main.str1.4:00000000 $d
C:\Users\DEVELO~1\AppData\Local\Temp\ccnOkWUN.s:55     .text.startup.main:00000000 $t
C:\Users\DEVELO~1\AppData\Local\Temp\ccnOkWUN.s:62     .text.startup.main:00000000 main
C:\Users\DEVELO~1\AppData\Local\Temp\ccnOkWUN.s:308    .text.startup.main:000000c0 $d
C:\Users\DEVELO~1\AppData\Local\Temp\ccnOkWUN.s:327    .rodata.uart_cfg:00000000 $d
C:\Users\DEVELO~1\AppData\Local\Temp\ccnOkWUN.s:331    .rodata.uart_cfg:00000000 uart_cfg

UNDEFINED SYMBOLS
halInit
chSysInit
sdStart
chThdSleep
chprintf
sdram_init_minimal
SD1
