ARM GAS  C:\Users\DEVELO~1\AppData\Local\Temp\ccv7u97u.s 			page 1


   1              		.cpu cortex-m7
   2              		.arch armv7e-m
   3              		.fpu softvfp
   4              		.eabi_attribute 20, 1
   5              		.eabi_attribute 21, 1
   6              		.eabi_attribute 23, 3
   7              		.eabi_attribute 24, 1
   8              		.eabi_attribute 25, 1
   9              		.eabi_attribute 26, 1
  10              		.eabi_attribute 30, 2
  11              		.eabi_attribute 34, 1
  12              		.eabi_attribute 18, 4
  13              		.file	"main.c"
  14              		.text
  15              	.Ltext0:
  16              		.cfi_sections	.debug_frame
  17              		.section	.rodata.main.str1.4,"aMS",%progbits,1
  18              		.align	2
  19              	.LC1:
  20 0000 0D0A3D3D 		.ascii	"\015\012=== SDRAM RAW OBSERVATION TEST ===\015\012\000"
  20      3D205344 
  20      52414D20 
  20      52415720 
  20      4F425345 
  21 0027 00       		.align	2
  22              	.LC2:
  23 0028 496E6974 		.ascii	"Init SDRAM...\015\012\000"
  23      20534452 
  23      414D2E2E 
  23      2E0D0A00 
  24              		.align	2
  25              	.LC3:
  26 0038 53445241 		.ascii	"SDRAM init done\015\012\000"
  26      4D20696E 
  26      69742064 
  26      6F6E650D 
  26      0A00
  27 004a 0000     		.align	2
  28              	.LC4:
  29 004c 0D0A2D2D 		.ascii	"\015\012-- INDEX %lu --\015\012\000"
  29      20494E44 
  29      45582025 
  29      6C75202D 
  29      2D0D0A00 
  30              		.align	2
  31              	.LC5:
  32 0060 573A2030 		.ascii	"W: 0x%08lX  R: 0x%08lX\015\012\000"
  32      78253038 
  32      6C582020 
  32      523A2030 
  32      78253038 
  33 0079 000000   		.align	2
  34              	.LC6:
  35 007c 0D0A3D3D 		.ascii	"\015\012=== END OF TEST ===\015\012\000"
  35      3D20454E 
  35      44204F46 
  35      20544553 
ARM GAS  C:\Users\DEVELO~1\AppData\Local\Temp\ccv7u97u.s 			page 2


  35      54203D3D 
  36              		.section	.text.startup.main,"ax",%progbits
  37              		.align	1
  38              		.p2align 4,,15
  39              		.global	main
  40              		.syntax unified
  41              		.thumb
  42              		.thumb_func
  43              		.type	main, %function
  44              	main:
  45              	.LFB432:
  46              		.file 1 "main.c"
  47              		.loc 1 14 16 view -0
  48              		.cfi_startproc
  49              		@ args = 0, pretend = 0, frame = 24
  50              		@ frame_needed = 0, uses_anonymous_args = 0
  51              		.loc 1 16 3 view .LVU1
  52              		.loc 1 14 16 is_stmt 0 view .LVU2
  53 0000 2DE9F047 		push	{r4, r5, r6, r7, r8, r9, r10, lr}
  54              		.cfi_def_cfa_offset 32
  55              		.cfi_offset 4, -32
  56              		.cfi_offset 5, -28
  57              		.cfi_offset 6, -24
  58              		.cfi_offset 7, -20
  59              		.cfi_offset 8, -16
  60              		.cfi_offset 9, -12
  61              		.cfi_offset 10, -8
  62              		.cfi_offset 14, -4
  63 0004 86B0     		sub	sp, sp, #24
  64              		.cfi_def_cfa_offset 56
  65              		.loc 1 30 12 view .LVU3
  66 0006 234D     		ldr	r5, .L9
  67              		.loc 1 16 3 view .LVU4
  68 0008 FFF7FEFF 		bl	halInit
  69              	.LVL0:
  70              		.loc 1 17 3 is_stmt 1 view .LVU5
  71              	.LBB2:
  72              		.loc 1 39 17 is_stmt 0 view .LVU6
  73 000c 0026     		movs	r6, #0
  74              	.LBE2:
  75              		.loc 1 17 3 view .LVU7
  76 000e FFF7FEFF 		bl	chSysInit
  77              	.LVL1:
  78              		.loc 1 19 3 is_stmt 1 view .LVU8
  79 0012 2149     		ldr	r1, .L9+4
  80 0014 2148     		ldr	r0, .L9+8
  81              		.loc 1 30 12 is_stmt 0 view .LVU9
  82 0016 01AC     		add	r4, sp, #4
  83              		.loc 1 19 3 view .LVU10
  84 0018 FFF7FEFF 		bl	sdStart
  85              	.LVL2:
  86              		.loc 1 20 3 is_stmt 1 view .LVU11
  87              		.loc 1 22 3 view .LVU12
  88 001c 2049     		ldr	r1, .L9+12
  89 001e 1F48     		ldr	r0, .L9+8
  90 0020 FFF7FEFF 		bl	chprintf
  91              	.LVL3:
ARM GAS  C:\Users\DEVELO~1\AppData\Local\Temp\ccv7u97u.s 			page 3


  92              		.loc 1 25 3 view .LVU13
  93 0024 1F49     		ldr	r1, .L9+16
  94 0026 1D48     		ldr	r0, .L9+8
  95 0028 FFF7FEFF 		bl	chprintf
  96              	.LVL4:
  97              		.loc 1 26 3 view .LVU14
  98              	.LBB7:
  99              		.loc 1 41 5 is_stmt 0 view .LVU15
 100 002c DFF878A0 		ldr	r10, .L9+20
 101              	.LBE7:
 102              		.loc 1 26 3 view .LVU16
 103 0030 FFF7FEFF 		bl	sdram_ext_init
 104              	.LVL5:
 105              		.loc 1 27 3 is_stmt 1 view .LVU17
 106 0034 1D49     		ldr	r1, .L9+24
 107 0036 1948     		ldr	r0, .L9+8
 108 0038 FFF7FEFF 		bl	chprintf
 109              	.LVL6:
 110              		.loc 1 30 3 view .LVU18
 111              	.LBB8:
 112              		.loc 1 41 5 is_stmt 0 view .LVU19
 113 003c 174F     		ldr	r7, .L9+8
 114              	.LBB3:
 115              	.LBB4:
 116              		.loc 1 51 7 view .LVU20
 117 003e DFF87090 		ldr	r9, .L9+28
 118              	.LBE4:
 119              	.LBE3:
 120              	.LBE8:
 121              		.loc 1 30 12 view .LVU21
 122 0042 0FCD     		ldmia	r5!, {r0, r1, r2, r3}
 123 0044 0FC4     		stmia	r4!, {r0, r1, r2, r3}
 124 0046 2B68     		ldr	r3, [r5]
 125 0048 2360     		str	r3, [r4]
 126              		.loc 1 39 3 is_stmt 1 view .LVU22
 127              	.LBB9:
 128              		.loc 1 39 8 view .LVU23
 129              	.LVL7:
 130              		.loc 1 39 30 view .LVU24
 131              	.L3:
 132              		.loc 1 41 5 view .LVU25
 133 004a 3246     		mov	r2, r6
 134 004c 5146     		mov	r1, r10
 135 004e 3846     		mov	r0, r7
 136 0050 01AC     		add	r4, sp, #4
 137 0052 0DF11808 		add	r8, sp, #24
 138 0056 FFF7FEFF 		bl	chprintf
 139              	.LVL8:
 140              		.loc 1 43 5 view .LVU26
 141              	.LBB6:
 142              		.loc 1 43 10 view .LVU27
 143              		.loc 1 43 28 view .LVU28
 144              	.L2:
 145              	.LBB5:
 146              		.loc 1 45 7 discriminator 3 view .LVU29
 147              		.loc 1 45 16 is_stmt 0 discriminator 3 view .LVU30
 148 005a 54F8045B 		ldr	r5, [r4], #4
ARM GAS  C:\Users\DEVELO~1\AppData\Local\Temp\ccv7u97u.s 			page 4


 149              	.LVL9:
 150              		.loc 1 46 7 is_stmt 1 discriminator 3 view .LVU31
 151              		.loc 1 48 7 discriminator 3 view .LVU32
 152 005e 3046     		mov	r0, r6
 153 0060 2946     		mov	r1, r5
 154 0062 FFF7FEFF 		bl	sdram_ext_write32
 155              	.LVL10:
 156              		.loc 1 49 7 discriminator 3 view .LVU33
 157              		.loc 1 49 18 is_stmt 0 discriminator 3 view .LVU34
 158 0066 3046     		mov	r0, r6
 159 0068 FFF7FEFF 		bl	sdram_ext_read32
 160              	.LVL11:
 161              		.loc 1 51 7 discriminator 3 view .LVU35
 162 006c 2A46     		mov	r2, r5
 163              		.loc 1 49 18 discriminator 3 view .LVU36
 164 006e 0346     		mov	r3, r0
 165              	.LVL12:
 166              		.loc 1 51 7 is_stmt 1 discriminator 3 view .LVU37
 167 0070 4946     		mov	r1, r9
 168 0072 3846     		mov	r0, r7
 169              	.LVL13:
 170              		.loc 1 51 7 is_stmt 0 discriminator 3 view .LVU38
 171 0074 FFF7FEFF 		bl	chprintf
 172              	.LVL14:
 173              		.loc 1 51 7 discriminator 3 view .LVU39
 174              	.LBE5:
 175              		.loc 1 43 67 is_stmt 1 discriminator 3 view .LVU40
 176              		.loc 1 43 28 discriminator 3 view .LVU41
 177 0078 4445     		cmp	r4, r8
 178 007a EED1     		bne	.L2
 179              	.LBE6:
 180              		.loc 1 39 38 discriminator 2 view .LVU42
 181 007c 0136     		adds	r6, r6, #1
 182              	.LVL15:
 183              		.loc 1 39 30 discriminator 2 view .LVU43
 184 007e 082E     		cmp	r6, #8
 185 0080 E3D1     		bne	.L3
 186              	.LBE9:
 187              		.loc 1 60 3 view .LVU44
 188 0082 0C49     		ldr	r1, .L9+32
 189 0084 0548     		ldr	r0, .L9+8
 190 0086 FFF7FEFF 		bl	chprintf
 191              	.LVL16:
 192              	.L4:
 193              		.loc 1 62 3 discriminator 1 view .LVU45
 194              		.loc 1 63 5 discriminator 1 view .LVU46
 195 008a 42F21070 		movw	r0, #10000
 196 008e FFF7FEFF 		bl	chThdSleep
 197              	.LVL17:
 198              		.loc 1 62 9 discriminator 1 view .LVU47
 199 0092 FAE7     		b	.L4
 200              	.L10:
 201              		.align	2
 202              	.L9:
 203 0094 00000000 		.word	.LANCHOR1
 204 0098 00000000 		.word	.LANCHOR0
 205 009c 00000000 		.word	SD1
ARM GAS  C:\Users\DEVELO~1\AppData\Local\Temp\ccv7u97u.s 			page 5


 206 00a0 00000000 		.word	.LC1
 207 00a4 28000000 		.word	.LC2
 208 00a8 4C000000 		.word	.LC4
 209 00ac 38000000 		.word	.LC3
 210 00b0 60000000 		.word	.LC5
 211 00b4 7C000000 		.word	.LC6
 212              		.cfi_endproc
 213              	.LFE432:
 214              		.size	main, .-main
 215              		.section	.rodata
 216              		.align	2
 217              		.set	.LANCHOR1,. + 0
 218              	.LC0:
 219 0000 00000000 		.word	0
 220 0004 FFFFFFFF 		.word	-1
 221 0008 44332211 		.word	287454020
 222 000c A5A5A5A5 		.word	-1515870811
 223 0010 5A5A5A5A 		.word	1515870810
 224              		.section	.rodata.uart_cfg,"a"
 225              		.align	2
 226              		.set	.LANCHOR0,. + 0
 227              		.type	uart_cfg, %object
 228              		.size	uart_cfg, 16
 229              	uart_cfg:
 230 0000 00C20100 		.word	115200
 231 0004 00000000 		.word	0
 232 0008 00000000 		.word	0
 233 000c 00000000 		.word	0
 234              		.text
 235              	.Letext0:
 236              		.file 2 "c:\\chibistudio\\tools\\gnu tools arm embedded\\11.3 2022.08\\lib\\gcc\\arm-none-eabi\\11
 237              		.file 3 "c:\\chibistudio\\tools\\gnu tools arm embedded\\11.3 2022.08\\arm-none-eabi\\include\\mac
 238              		.file 4 "c:\\chibistudio\\tools\\gnu tools arm embedded\\11.3 2022.08\\arm-none-eabi\\include\\sys
 239              		.file 5 "../../../os/common/ports/ARM-common/chtypes.h"
 240              		.file 6 "../../../os/rt/include/chearly.h"
 241              		.file 7 "../../../os/rt/include/chobjects.h"
 242              		.file 8 "../../../os/rt/include/chrfcu.h"
 243              		.file 9 "../../../os/rt/include/chdebug.h"
 244              		.file 10 "../../../os/rt/include/chtime.h"
 245              		.file 11 "../../../os/rt/include/chlists.h"
 246              		.file 12 "../../../os/rt/include/chtrace.h"
 247              		.file 13 "../../../os/common/ext/ST/STM32H7xx/stm32h743xx.h"
 248              		.file 14 "../../../os/common/ports/ARMv7-M/chcore.h"
 249              		.file 15 "../../../os/rt/include/chsem.h"
 250              		.file 16 "../../../os/rt/include/chmtx.h"
 251              		.file 17 "../../../os/rt/include/chevents.h"
 252              		.file 18 "../../../os/hal/include/hal_streams.h"
 253              		.file 19 "../../../os/hal/include/hal_queues.h"
 254              		.file 20 "../../../os/hal/include/hal_serial.h"
 255              		.file 21 "../../../os/hal/ports/STM32/LLD/USARTv3/hal_serial_lld.h"
 256              		.file 22 "../../../os/rt/include/chthreads.h"
 257              		.file 23 "sdram/sdram_ext.h"
 258              		.file 24 "../../../os/hal/lib/streams/chprintf.h"
 259              		.file 25 "../../../os/rt/include/chsys.h"
 260              		.file 26 "../../../os/hal/include/hal.h"
 261              		.section	.debug_info,"",%progbits
 262              	.Ldebug_info0:
ARM GAS  C:\Users\DEVELO~1\AppData\Local\Temp\ccv7u97u.s 			page 6


 263 0000 CE100000 		.4byte	0x10ce
 264 0004 0500     		.2byte	0x5
 265 0006 01       		.byte	0x1
 266 0007 04       		.byte	0x4
 267 0008 00000000 		.4byte	.Ldebug_abbrev0
 268 000c 22       		.uleb128 0x22
 269 000d C0010000 		.4byte	.LASF188
 270 0011 1D       		.byte	0x1d
 271 0012 E0070000 		.4byte	.LASF189
 272 0016 35000000 		.4byte	.LASF190
 273 001a 36000000 		.4byte	.LLRL7
 274 001e 00000000 		.4byte	0
 275 0022 00000000 		.4byte	.Ldebug_line0
 276 0026 23       		.uleb128 0x23
 277 0027 04       		.byte	0x4
 278 0028 05       		.byte	0x5
 279 0029 696E7400 		.ascii	"int\000"
 280 002d 02       		.uleb128 0x2
 281 002e 12000000 		.4byte	.LASF4
 282 0032 02       		.byte	0x2
 283 0033 D1       		.byte	0xd1
 284 0034 17       		.byte	0x17
 285 0035 3E000000 		.4byte	0x3e
 286 0039 12       		.uleb128 0x12
 287 003a 2D000000 		.4byte	0x2d
 288 003e 0A       		.uleb128 0xa
 289 003f 04       		.byte	0x4
 290 0040 07       		.byte	0x7
 291 0041 37030000 		.4byte	.LASF0
 292 0045 0A       		.uleb128 0xa
 293 0046 08       		.byte	0x8
 294 0047 05       		.byte	0x5
 295 0048 1C010000 		.4byte	.LASF1
 296 004c 0A       		.uleb128 0xa
 297 004d 08       		.byte	0x8
 298 004e 04       		.byte	0x4
 299 004f F2060000 		.4byte	.LASF2
 300 0053 0A       		.uleb128 0xa
 301 0054 01       		.byte	0x1
 302 0055 06       		.byte	0x6
 303 0056 2A010000 		.4byte	.LASF3
 304 005a 02       		.uleb128 0x2
 305 005b 2B000000 		.4byte	.LASF5
 306 005f 03       		.byte	0x3
 307 0060 2B       		.byte	0x2b
 308 0061 18       		.byte	0x18
 309 0062 66000000 		.4byte	0x66
 310 0066 0A       		.uleb128 0xa
 311 0067 01       		.byte	0x1
 312 0068 08       		.byte	0x8
 313 0069 FB050000 		.4byte	.LASF6
 314 006d 0A       		.uleb128 0xa
 315 006e 02       		.byte	0x2
 316 006f 05       		.byte	0x5
 317 0070 22060000 		.4byte	.LASF7
 318 0074 02       		.uleb128 0x2
 319 0075 30070000 		.4byte	.LASF8
ARM GAS  C:\Users\DEVELO~1\AppData\Local\Temp\ccv7u97u.s 			page 7


 320 0079 03       		.byte	0x3
 321 007a 39       		.byte	0x39
 322 007b 19       		.byte	0x19
 323 007c 80000000 		.4byte	0x80
 324 0080 0A       		.uleb128 0xa
 325 0081 02       		.byte	0x2
 326 0082 07       		.byte	0x7
 327 0083 C3030000 		.4byte	.LASF9
 328 0087 02       		.uleb128 0x2
 329 0088 0A070000 		.4byte	.LASF10
 330 008c 03       		.byte	0x3
 331 008d 4D       		.byte	0x4d
 332 008e 18       		.byte	0x18
 333 008f 93000000 		.4byte	0x93
 334 0093 0A       		.uleb128 0xa
 335 0094 04       		.byte	0x4
 336 0095 05       		.byte	0x5
 337 0096 94010000 		.4byte	.LASF11
 338 009a 02       		.uleb128 0x2
 339 009b B8020000 		.4byte	.LASF12
 340 009f 03       		.byte	0x3
 341 00a0 4F       		.byte	0x4f
 342 00a1 19       		.byte	0x19
 343 00a2 A6000000 		.4byte	0xa6
 344 00a6 0A       		.uleb128 0xa
 345 00a7 04       		.byte	0x4
 346 00a8 07       		.byte	0x7
 347 00a9 57010000 		.4byte	.LASF13
 348 00ad 02       		.uleb128 0x2
 349 00ae 8A050000 		.4byte	.LASF14
 350 00b2 03       		.byte	0x3
 351 00b3 69       		.byte	0x69
 352 00b4 19       		.byte	0x19
 353 00b5 B9000000 		.4byte	0xb9
 354 00b9 0A       		.uleb128 0xa
 355 00ba 08       		.byte	0x8
 356 00bb 07       		.byte	0x7
 357 00bc 77010000 		.4byte	.LASF15
 358 00c0 02       		.uleb128 0x2
 359 00c1 31080000 		.4byte	.LASF16
 360 00c5 04       		.byte	0x4
 361 00c6 18       		.byte	0x18
 362 00c7 13       		.byte	0x13
 363 00c8 5A000000 		.4byte	0x5a
 364 00cc 0F       		.uleb128 0xf
 365 00cd C0000000 		.4byte	0xc0
 366 00d1 02       		.uleb128 0x2
 367 00d2 87020000 		.4byte	.LASF17
 368 00d6 04       		.byte	0x4
 369 00d7 24       		.byte	0x24
 370 00d8 14       		.byte	0x14
 371 00d9 74000000 		.4byte	0x74
 372 00dd 02       		.uleb128 0x2
 373 00de F3050000 		.4byte	.LASF18
 374 00e2 04       		.byte	0x4
 375 00e3 2C       		.byte	0x2c
 376 00e4 13       		.byte	0x13
ARM GAS  C:\Users\DEVELO~1\AppData\Local\Temp\ccv7u97u.s 			page 8


 377 00e5 87000000 		.4byte	0x87
 378 00e9 02       		.uleb128 0x2
 379 00ea B6060000 		.4byte	.LASF19
 380 00ee 04       		.byte	0x4
 381 00ef 30       		.byte	0x30
 382 00f0 14       		.byte	0x14
 383 00f1 9A000000 		.4byte	0x9a
 384 00f5 12       		.uleb128 0x12
 385 00f6 E9000000 		.4byte	0xe9
 386 00fa 02       		.uleb128 0x2
 387 00fb 1C050000 		.4byte	.LASF20
 388 00ff 04       		.byte	0x4
 389 0100 3C       		.byte	0x3c
 390 0101 14       		.byte	0x14
 391 0102 AD000000 		.4byte	0xad
 392 0106 12       		.uleb128 0x12
 393 0107 FA000000 		.4byte	0xfa
 394 010b 02       		.uleb128 0x2
 395 010c C6060000 		.4byte	.LASF21
 396 0110 05       		.byte	0x5
 397 0111 48       		.byte	0x48
 398 0112 1D       		.byte	0x1d
 399 0113 FA000000 		.4byte	0xfa
 400 0117 02       		.uleb128 0x2
 401 0118 57040000 		.4byte	.LASF22
 402 011c 06       		.byte	0x6
 403 011d 50       		.byte	0x50
 404 011e 19       		.byte	0x19
 405 011f 0B010000 		.4byte	0x10b
 406 0123 02       		.uleb128 0x2
 407 0124 11040000 		.4byte	.LASF23
 408 0128 06       		.byte	0x6
 409 0129 53       		.byte	0x53
 410 012a 19       		.byte	0x19
 411 012b C0000000 		.4byte	0xc0
 412 012f 02       		.uleb128 0x2
 413 0130 AF010000 		.4byte	.LASF24
 414 0134 06       		.byte	0x6
 415 0135 54       		.byte	0x54
 416 0136 19       		.byte	0x19
 417 0137 C0000000 		.4byte	0xc0
 418 013b 02       		.uleb128 0x2
 419 013c AE050000 		.4byte	.LASF25
 420 0140 06       		.byte	0x6
 421 0141 55       		.byte	0x55
 422 0142 19       		.byte	0x19
 423 0143 C0000000 		.4byte	0xc0
 424 0147 02       		.uleb128 0x2
 425 0148 CD050000 		.4byte	.LASF26
 426 014c 06       		.byte	0x6
 427 014d 57       		.byte	0x57
 428 014e 19       		.byte	0x19
 429 014f E9000000 		.4byte	0xe9
 430 0153 02       		.uleb128 0x2
 431 0154 ED030000 		.4byte	.LASF27
 432 0158 06       		.byte	0x6
 433 0159 58       		.byte	0x58
ARM GAS  C:\Users\DEVELO~1\AppData\Local\Temp\ccv7u97u.s 			page 9


 434 015a 19       		.byte	0x19
 435 015b DD000000 		.4byte	0xdd
 436 015f 02       		.uleb128 0x2
 437 0160 2F040000 		.4byte	.LASF28
 438 0164 06       		.byte	0x6
 439 0165 5A       		.byte	0x5a
 440 0166 19       		.byte	0x19
 441 0167 E9000000 		.4byte	0xe9
 442 016b 02       		.uleb128 0x2
 443 016c E0030000 		.4byte	.LASF29
 444 0170 06       		.byte	0x6
 445 0171 5B       		.byte	0x5b
 446 0172 19       		.byte	0x19
 447 0173 E9000000 		.4byte	0xe9
 448 0177 02       		.uleb128 0x2
 449 0178 22030000 		.4byte	.LASF30
 450 017c 06       		.byte	0x6
 451 017d 5C       		.byte	0x5c
 452 017e 19       		.byte	0x19
 453 017f DD000000 		.4byte	0xdd
 454 0183 02       		.uleb128 0x2
 455 0184 A4050000 		.4byte	.LASF31
 456 0188 06       		.byte	0x6
 457 0189 80       		.byte	0x80
 458 018a 12       		.byte	0x12
 459 018b 3E000000 		.4byte	0x3e
 460 018f 02       		.uleb128 0x2
 461 0190 3B070000 		.4byte	.LASF32
 462 0194 06       		.byte	0x6
 463 0195 85       		.byte	0x85
 464 0196 1A       		.byte	0x1a
 465 0197 9B010000 		.4byte	0x19b
 466 019b 07       		.uleb128 0x7
 467 019c D6030000 		.4byte	.LASF47
 468 01a0 48       		.byte	0x48
 469 01a1 07       		.byte	0x7
 470 01a2 9C       		.byte	0x9c
 471 01a3 08       		.byte	0x8
 472 01a4 7E020000 		.4byte	0x27e
 473 01a8 08       		.uleb128 0x8
 474 01a9 68647200 		.ascii	"hdr\000"
 475 01ad 07       		.byte	0x7
 476 01ae AD       		.byte	0xad
 477 01af 05       		.byte	0x5
 478 01b0 3E080000 		.4byte	0x83e
 479 01b4 00       		.byte	0
 480 01b5 08       		.uleb128 0x8
 481 01b6 63747800 		.ascii	"ctx\000"
 482 01ba 07       		.byte	0x7
 483 01bb B1       		.byte	0xb1
 484 01bc 21       		.byte	0x21
 485 01bd 82070000 		.4byte	0x782
 486 01c1 0C       		.byte	0xc
 487 01c2 01       		.uleb128 0x1
 488 01c3 87030000 		.4byte	.LASF33
 489 01c7 07       		.byte	0x7
 490 01c8 B6       		.byte	0xb6
ARM GAS  C:\Users\DEVELO~1\AppData\Local\Temp\ccv7u97u.s 			page 10


 491 01c9 21       		.byte	0x21
 492 01ca D8030000 		.4byte	0x3d8
 493 01ce 10       		.byte	0x10
 494 01cf 01       		.uleb128 0x1
 495 01d0 D6060000 		.4byte	.LASF34
 496 01d4 07       		.byte	0x7
 497 01d5 BB       		.byte	0xbb
 498 01d6 22       		.byte	0x22
 499 01d7 40090000 		.4byte	0x940
 500 01db 18       		.byte	0x18
 501 01dc 01       		.uleb128 0x1
 502 01dd A7030000 		.4byte	.LASF35
 503 01e1 07       		.byte	0x7
 504 01e2 C0       		.byte	0xc0
 505 01e3 22       		.byte	0x22
 506 01e4 66030000 		.4byte	0x366
 507 01e8 1C       		.byte	0x1c
 508 01e9 01       		.uleb128 0x1
 509 01ea FE060000 		.4byte	.LASF36
 510 01ee 07       		.byte	0x7
 511 01ef C9       		.byte	0xc9
 512 01f0 22       		.byte	0x22
 513 01f1 45090000 		.4byte	0x945
 514 01f5 20       		.byte	0x20
 515 01f6 01       		.uleb128 0x1
 516 01f7 8E010000 		.4byte	.LASF37
 517 01fb 07       		.byte	0x7
 518 01fc CE       		.byte	0xce
 519 01fd 21       		.byte	0x21
 520 01fe 2F010000 		.4byte	0x12f
 521 0202 24       		.byte	0x24
 522 0203 01       		.uleb128 0x1
 523 0204 39080000 		.4byte	.LASF38
 524 0208 07       		.byte	0x7
 525 0209 D2       		.byte	0xd2
 526 020a 21       		.byte	0x21
 527 020b 23010000 		.4byte	0x123
 528 020f 25       		.byte	0x25
 529 0210 01       		.uleb128 0x1
 530 0211 0D010000 		.4byte	.LASF39
 531 0215 07       		.byte	0x7
 532 0216 D7       		.byte	0xd7
 533 0217 21       		.byte	0x21
 534 0218 3B010000 		.4byte	0x13b
 535 021c 26       		.byte	0x26
 536 021d 06       		.uleb128 0x6
 537 021e 7500     		.ascii	"u\000"
 538 0220 07       		.byte	0x7
 539 0221 2801     		.2byte	0x128
 540 0223 21       		.byte	0x21
 541 0224 6B080000 		.4byte	0x86b
 542 0228 28       		.byte	0x28
 543 0229 05       		.uleb128 0x5
 544 022a D3020000 		.4byte	.LASF40
 545 022e 07       		.byte	0x7
 546 022f 2D01     		.2byte	0x12d
 547 0231 21       		.byte	0x21
ARM GAS  C:\Users\DEVELO~1\AppData\Local\Temp\ccv7u97u.s 			page 11


 548 0232 AC030000 		.4byte	0x3ac
 549 0236 2C       		.byte	0x2c
 550 0237 05       		.uleb128 0x5
 551 0238 28030000 		.4byte	.LASF41
 552 023c 07       		.byte	0x7
 553 023d 3301     		.2byte	0x133
 554 023f 21       		.byte	0x21
 555 0240 D8030000 		.4byte	0x3d8
 556 0244 30       		.byte	0x30
 557 0245 05       		.uleb128 0x5
 558 0246 F3030000 		.4byte	.LASF42
 559 024a 07       		.byte	0x7
 560 024b 3901     		.2byte	0x139
 561 024d 21       		.byte	0x21
 562 024e 5F010000 		.4byte	0x15f
 563 0252 38       		.byte	0x38
 564 0253 05       		.uleb128 0x5
 565 0254 83080000 		.4byte	.LASF43
 566 0258 07       		.byte	0x7
 567 0259 4001     		.2byte	0x140
 568 025b 22       		.byte	0x22
 569 025c 3B090000 		.4byte	0x93b
 570 0260 3C       		.byte	0x3c
 571 0261 05       		.uleb128 0x5
 572 0262 E9060000 		.4byte	.LASF44
 573 0266 07       		.byte	0x7
 574 0267 4401     		.2byte	0x144
 575 0269 21       		.byte	0x21
 576 026a 47010000 		.4byte	0x147
 577 026e 40       		.byte	0x40
 578 026f 05       		.uleb128 0x5
 579 0270 B2030000 		.4byte	.LASF45
 580 0274 07       		.byte	0x7
 581 0275 4B01     		.2byte	0x14b
 582 0277 22       		.byte	0x22
 583 0278 C6040000 		.4byte	0x4c6
 584 027c 44       		.byte	0x44
 585 027d 00       		.byte	0
 586 027e 02       		.uleb128 0x2
 587 027f 85070000 		.4byte	.LASF46
 588 0283 06       		.byte	0x6
 589 0284 8A       		.byte	0x8a
 590 0285 1F       		.byte	0x1f
 591 0286 8A020000 		.4byte	0x28a
 592 028a 24       		.uleb128 0x24
 593 028b 59050000 		.4byte	.LASF48
 594 028f 9008     		.2byte	0x890
 595 0291 07       		.byte	0x7
 596 0292 8A01     		.2byte	0x18a
 597 0294 08       		.byte	0x8
 598 0295 18030000 		.4byte	0x318
 599 0299 05       		.uleb128 0x5
 600 029a 1E080000 		.4byte	.LASF49
 601 029e 07       		.byte	0x7
 602 029f 8E01     		.2byte	0x18e
 603 02a1 21       		.byte	0x21
 604 02a2 75090000 		.4byte	0x975
ARM GAS  C:\Users\DEVELO~1\AppData\Local\Temp\ccv7u97u.s 			page 12


 605 02a6 00       		.byte	0
 606 02a7 05       		.uleb128 0x5
 607 02a8 97000000 		.4byte	.LASF50
 608 02ac 07       		.byte	0x7
 609 02ad 9201     		.2byte	0x192
 610 02af 21       		.byte	0x21
 611 02b0 D8070000 		.4byte	0x7d8
 612 02b4 10       		.byte	0x10
 613 02b5 05       		.uleb128 0x5
 614 02b6 93070000 		.4byte	.LASF51
 615 02ba 07       		.byte	0x7
 616 02bb 9901     		.2byte	0x199
 617 02bd 21       		.byte	0x21
 618 02be FF070000 		.4byte	0x7ff
 619 02c2 28       		.byte	0x28
 620 02c3 05       		.uleb128 0x5
 621 02c4 71060000 		.4byte	.LASF52
 622 02c8 07       		.byte	0x7
 623 02c9 9E01     		.2byte	0x19e
 624 02cb 21       		.byte	0x21
 625 02cc 83010000 		.4byte	0x183
 626 02d0 30       		.byte	0x30
 627 02d1 05       		.uleb128 0x5
 628 02d2 20000000 		.4byte	.LASF53
 629 02d6 07       		.byte	0x7
 630 02d7 A401     		.2byte	0x1a4
 631 02d9 21       		.byte	0x21
 632 02da 3F030000 		.4byte	0x33f
 633 02de 34       		.byte	0x34
 634 02df 05       		.uleb128 0x5
 635 02e0 14070000 		.4byte	.LASF54
 636 02e4 07       		.byte	0x7
 637 02e5 A901     		.2byte	0x1a9
 638 02e7 22       		.byte	0x22
 639 02e8 E7090000 		.4byte	0x9e7
 640 02ec 38       		.byte	0x38
 641 02ed 05       		.uleb128 0x5
 642 02ee CD000000 		.4byte	.LASF55
 643 02f2 07       		.byte	0x7
 644 02f3 AD01     		.2byte	0x1ad
 645 02f5 21       		.byte	0x21
 646 02f6 8F010000 		.4byte	0x18f
 647 02fa 3C       		.byte	0x3c
 648 02fb 06       		.uleb128 0x6
 649 02fc 64626700 		.ascii	"dbg\000"
 650 0300 07       		.byte	0x7
 651 0301 B101     		.2byte	0x1b1
 652 0303 21       		.byte	0x21
 653 0304 7C030000 		.4byte	0x37c
 654 0308 84       		.byte	0x84
 655 0309 05       		.uleb128 0x5
 656 030a 44080000 		.4byte	.LASF56
 657 030e 07       		.byte	0x7
 658 030f B601     		.2byte	0x1b6
 659 0311 21       		.byte	0x21
 660 0312 21060000 		.4byte	0x621
 661 0316 88       		.byte	0x88
ARM GAS  C:\Users\DEVELO~1\AppData\Local\Temp\ccv7u97u.s 			page 13


 662 0317 00       		.byte	0
 663 0318 02       		.uleb128 0x2
 664 0319 98040000 		.4byte	.LASF57
 665 031d 08       		.byte	0x8
 666 031e 3F       		.byte	0x3f
 667 031f 12       		.byte	0x12
 668 0320 E9000000 		.4byte	0xe9
 669 0324 07       		.uleb128 0x7
 670 0325 B8010000 		.4byte	.LASF58
 671 0329 04       		.byte	0x4
 672 032a 08       		.byte	0x8
 673 032b 44       		.byte	0x44
 674 032c 10       		.byte	0x10
 675 032d 3F030000 		.4byte	0x33f
 676 0331 01       		.uleb128 0x1
 677 0332 C3020000 		.4byte	.LASF59
 678 0336 08       		.byte	0x8
 679 0337 48       		.byte	0x48
 680 0338 21       		.byte	0x21
 681 0339 18030000 		.4byte	0x318
 682 033d 00       		.byte	0
 683 033e 00       		.byte	0
 684 033f 02       		.uleb128 0x2
 685 0340 1B060000 		.4byte	.LASF60
 686 0344 08       		.byte	0x8
 687 0345 49       		.byte	0x49
 688 0346 03       		.byte	0x3
 689 0347 24030000 		.4byte	0x324
 690 034b 07       		.uleb128 0x7
 691 034c DD050000 		.4byte	.LASF61
 692 0350 04       		.byte	0x4
 693 0351 09       		.byte	0x9
 694 0352 3E       		.byte	0x3e
 695 0353 10       		.byte	0x10
 696 0354 66030000 		.4byte	0x366
 697 0358 01       		.uleb128 0x1
 698 0359 6F070000 		.4byte	.LASF62
 699 035d 09       		.byte	0x9
 700 035e 46       		.byte	0x46
 701 035f 24       		.byte	0x24
 702 0360 6B030000 		.4byte	0x36b
 703 0364 00       		.byte	0
 704 0365 00       		.byte	0
 705 0366 03       		.uleb128 0x3
 706 0367 77030000 		.4byte	0x377
 707 036b 12       		.uleb128 0x12
 708 036c 66030000 		.4byte	0x366
 709 0370 0A       		.uleb128 0xa
 710 0371 01       		.byte	0x1
 711 0372 08       		.byte	0x8
 712 0373 05070000 		.4byte	.LASF63
 713 0377 0F       		.uleb128 0xf
 714 0378 70030000 		.4byte	0x370
 715 037c 02       		.uleb128 0x2
 716 037d 6B030000 		.4byte	.LASF64
 717 0381 09       		.byte	0x9
 718 0382 51       		.byte	0x51
ARM GAS  C:\Users\DEVELO~1\AppData\Local\Temp\ccv7u97u.s 			page 14


 719 0383 03       		.byte	0x3
 720 0384 4B030000 		.4byte	0x34b
 721 0388 02       		.uleb128 0x2
 722 0389 4A070000 		.4byte	.LASF65
 723 038d 0A       		.byte	0xa
 724 038e 6D       		.byte	0x6d
 725 038f 12       		.byte	0x12
 726 0390 E9000000 		.4byte	0xe9
 727 0394 02       		.uleb128 0x2
 728 0395 14030000 		.4byte	.LASF66
 729 0399 0A       		.byte	0xa
 730 039a 79       		.byte	0x79
 731 039b 12       		.byte	0x12
 732 039c E9000000 		.4byte	0xe9
 733 03a0 02       		.uleb128 0x2
 734 03a1 96030000 		.4byte	.LASF67
 735 03a5 0A       		.byte	0xa
 736 03a6 9B       		.byte	0x9b
 737 03a7 12       		.byte	0x12
 738 03a8 FA000000 		.4byte	0xfa
 739 03ac 02       		.uleb128 0x2
 740 03ad F7040000 		.4byte	.LASF68
 741 03b1 0B       		.byte	0xb
 742 03b2 32       		.byte	0x32
 743 03b3 18       		.byte	0x18
 744 03b4 B8030000 		.4byte	0x3b8
 745 03b8 07       		.uleb128 0x7
 746 03b9 19040000 		.4byte	.LASF69
 747 03bd 04       		.byte	0x4
 748 03be 0B       		.byte	0xb
 749 03bf 38       		.byte	0x38
 750 03c0 08       		.byte	0x8
 751 03c1 D3030000 		.4byte	0x3d3
 752 03c5 01       		.uleb128 0x1
 753 03c6 F1000000 		.4byte	.LASF70
 754 03ca 0B       		.byte	0xb
 755 03cb 39       		.byte	0x39
 756 03cc 1A       		.byte	0x1a
 757 03cd D3030000 		.4byte	0x3d3
 758 03d1 00       		.byte	0
 759 03d2 00       		.byte	0
 760 03d3 03       		.uleb128 0x3
 761 03d4 AC030000 		.4byte	0x3ac
 762 03d8 02       		.uleb128 0x2
 763 03d9 C8020000 		.4byte	.LASF71
 764 03dd 0B       		.byte	0xb
 765 03de 3F       		.byte	0x3f
 766 03df 19       		.byte	0x19
 767 03e0 E4030000 		.4byte	0x3e4
 768 03e4 07       		.uleb128 0x7
 769 03e5 75020000 		.4byte	.LASF72
 770 03e9 08       		.byte	0x8
 771 03ea 0B       		.byte	0xb
 772 03eb 45       		.byte	0x45
 773 03ec 08       		.byte	0x8
 774 03ed 0C040000 		.4byte	0x40c
 775 03f1 01       		.uleb128 0x1
ARM GAS  C:\Users\DEVELO~1\AppData\Local\Temp\ccv7u97u.s 			page 15


 776 03f2 F1000000 		.4byte	.LASF70
 777 03f6 0B       		.byte	0xb
 778 03f7 46       		.byte	0x46
 779 03f8 1A       		.byte	0x1a
 780 03f9 0C040000 		.4byte	0x40c
 781 03fd 00       		.byte	0
 782 03fe 01       		.uleb128 0x1
 783 03ff 00000000 		.4byte	.LASF73
 784 0403 0B       		.byte	0xb
 785 0404 47       		.byte	0x47
 786 0405 1A       		.byte	0x1a
 787 0406 0C040000 		.4byte	0x40c
 788 040a 04       		.byte	0x4
 789 040b 00       		.byte	0
 790 040c 03       		.uleb128 0x3
 791 040d D8030000 		.4byte	0x3d8
 792 0411 02       		.uleb128 0x2
 793 0412 5B070000 		.4byte	.LASF74
 794 0416 0B       		.byte	0xb
 795 0417 4E       		.byte	0x4e
 796 0418 22       		.byte	0x22
 797 0419 1D040000 		.4byte	0x41d
 798 041d 07       		.uleb128 0x7
 799 041e 9B070000 		.4byte	.LASF75
 800 0422 0C       		.byte	0xc
 801 0423 0B       		.byte	0xb
 802 0424 55       		.byte	0x55
 803 0425 08       		.byte	0x8
 804 0426 52040000 		.4byte	0x452
 805 042a 01       		.uleb128 0x1
 806 042b F1000000 		.4byte	.LASF70
 807 042f 0B       		.byte	0xb
 808 0430 56       		.byte	0x56
 809 0431 1A       		.byte	0x1a
 810 0432 52040000 		.4byte	0x452
 811 0436 00       		.byte	0
 812 0437 01       		.uleb128 0x1
 813 0438 00000000 		.4byte	.LASF73
 814 043c 0B       		.byte	0xb
 815 043d 57       		.byte	0x57
 816 043e 1A       		.byte	0x1a
 817 043f 52040000 		.4byte	0x452
 818 0443 04       		.byte	0x4
 819 0444 01       		.uleb128 0x1
 820 0445 6D050000 		.4byte	.LASF76
 821 0449 0B       		.byte	0xb
 822 044a 58       		.byte	0x58
 823 044b 19       		.byte	0x19
 824 044c 47010000 		.4byte	0x147
 825 0450 08       		.byte	0x8
 826 0451 00       		.byte	0
 827 0452 03       		.uleb128 0x3
 828 0453 11040000 		.4byte	0x411
 829 0457 02       		.uleb128 0x2
 830 0458 B6070000 		.4byte	.LASF77
 831 045c 0B       		.byte	0xb
 832 045d 5F       		.byte	0x5f
ARM GAS  C:\Users\DEVELO~1\AppData\Local\Temp\ccv7u97u.s 			page 16


 833 045e 1E       		.byte	0x1e
 834 045f 63040000 		.4byte	0x463
 835 0463 07       		.uleb128 0x7
 836 0464 69010000 		.4byte	.LASF78
 837 0468 0C       		.byte	0xc
 838 0469 0B       		.byte	0xb
 839 046a 64       		.byte	0x64
 840 046b 08       		.byte	0x8
 841 046c 98040000 		.4byte	0x498
 842 0470 01       		.uleb128 0x1
 843 0471 F1000000 		.4byte	.LASF70
 844 0475 0B       		.byte	0xb
 845 0476 65       		.byte	0x65
 846 0477 1A       		.byte	0x1a
 847 0478 98040000 		.4byte	0x498
 848 047c 00       		.byte	0
 849 047d 01       		.uleb128 0x1
 850 047e 00000000 		.4byte	.LASF73
 851 0482 0B       		.byte	0xb
 852 0483 66       		.byte	0x66
 853 0484 1A       		.byte	0x1a
 854 0485 98040000 		.4byte	0x498
 855 0489 04       		.byte	0x4
 856 048a 01       		.uleb128 0x1
 857 048b E0000000 		.4byte	.LASF79
 858 048f 0B       		.byte	0xb
 859 0490 67       		.byte	0x67
 860 0491 19       		.byte	0x19
 861 0492 94030000 		.4byte	0x394
 862 0496 08       		.byte	0x8
 863 0497 00       		.byte	0
 864 0498 03       		.uleb128 0x3
 865 0499 57040000 		.4byte	0x457
 866 049d 0C       		.uleb128 0xc
 867 049e 08       		.byte	0x8
 868 049f 0C       		.byte	0xc
 869 04a0 83       		.byte	0x83
 870 04a1 05       		.byte	0x5
 871 04a2 C1040000 		.4byte	0x4c1
 872 04a6 08       		.uleb128 0x8
 873 04a7 6E747000 		.ascii	"ntp\000"
 874 04ab 0C       		.byte	0xc
 875 04ac 87       		.byte	0x87
 876 04ad 1E       		.byte	0x1e
 877 04ae C1040000 		.4byte	0x4c1
 878 04b2 00       		.byte	0
 879 04b3 01       		.uleb128 0x1
 880 04b4 44060000 		.4byte	.LASF80
 881 04b8 0C       		.byte	0xc
 882 04b9 8B       		.byte	0x8b
 883 04ba 1E       		.byte	0x1e
 884 04bb C6040000 		.4byte	0x4c6
 885 04bf 04       		.byte	0x4
 886 04c0 00       		.byte	0
 887 04c1 03       		.uleb128 0x3
 888 04c2 8F010000 		.4byte	0x18f
 889 04c6 25       		.uleb128 0x25
ARM GAS  C:\Users\DEVELO~1\AppData\Local\Temp\ccv7u97u.s 			page 17


 890 04c7 04       		.byte	0x4
 891 04c8 0C       		.uleb128 0xc
 892 04c9 08       		.byte	0x8
 893 04ca 0C       		.byte	0xc
 894 04cb 90       		.byte	0x90
 895 04cc 05       		.byte	0x5
 896 04cd EB040000 		.4byte	0x4eb
 897 04d1 08       		.uleb128 0x8
 898 04d2 747000   		.ascii	"tp\000"
 899 04d5 0C       		.byte	0xc
 900 04d6 94       		.byte	0x94
 901 04d7 1E       		.byte	0x1e
 902 04d8 C1040000 		.4byte	0x4c1
 903 04dc 00       		.byte	0
 904 04dd 08       		.uleb128 0x8
 905 04de 6D736700 		.ascii	"msg\000"
 906 04e2 0C       		.byte	0xc
 907 04e3 98       		.byte	0x98
 908 04e4 1D       		.byte	0x1d
 909 04e5 53010000 		.4byte	0x153
 910 04e9 04       		.byte	0x4
 911 04ea 00       		.byte	0
 912 04eb 0C       		.uleb128 0xc
 913 04ec 04       		.byte	0x4
 914 04ed 0C       		.byte	0xc
 915 04ee 9D       		.byte	0x9d
 916 04ef 05       		.byte	0x5
 917 04f0 02050000 		.4byte	0x502
 918 04f4 01       		.uleb128 0x1
 919 04f5 A7030000 		.4byte	.LASF35
 920 04f9 0C       		.byte	0xc
 921 04fa A1       		.byte	0xa1
 922 04fb 1E       		.byte	0x1e
 923 04fc 66030000 		.4byte	0x366
 924 0500 00       		.byte	0
 925 0501 00       		.byte	0
 926 0502 0C       		.uleb128 0xc
 927 0503 04       		.byte	0x4
 928 0504 0C       		.byte	0xc
 929 0505 A6       		.byte	0xa6
 930 0506 05       		.byte	0x5
 931 0507 19050000 		.4byte	0x519
 932 050b 01       		.uleb128 0x1
 933 050c 79060000 		.4byte	.LASF81
 934 0510 0C       		.byte	0xc
 935 0511 AA       		.byte	0xaa
 936 0512 1E       		.byte	0x1e
 937 0513 66030000 		.4byte	0x366
 938 0517 00       		.byte	0
 939 0518 00       		.byte	0
 940 0519 0C       		.uleb128 0xc
 941 051a 08       		.byte	0x8
 942 051b 0C       		.byte	0xc
 943 051c AF       		.byte	0xaf
 944 051d 05       		.byte	0x5
 945 051e 3D050000 		.4byte	0x53d
 946 0522 08       		.uleb128 0x8
ARM GAS  C:\Users\DEVELO~1\AppData\Local\Temp\ccv7u97u.s 			page 18


 947 0523 75703100 		.ascii	"up1\000"
 948 0527 0C       		.byte	0xc
 949 0528 B3       		.byte	0xb3
 950 0529 1E       		.byte	0x1e
 951 052a C6040000 		.4byte	0x4c6
 952 052e 00       		.byte	0
 953 052f 08       		.uleb128 0x8
 954 0530 75703200 		.ascii	"up2\000"
 955 0534 0C       		.byte	0xc
 956 0535 B7       		.byte	0xb7
 957 0536 1E       		.byte	0x1e
 958 0537 C6040000 		.4byte	0x4c6
 959 053b 04       		.byte	0x4
 960 053c 00       		.byte	0
 961 053d 14       		.uleb128 0x14
 962 053e 08       		.byte	0x8
 963 053f 0C       		.byte	0xc
 964 0540 7F       		.byte	0x7f
 965 0541 7B050000 		.4byte	0x57b
 966 0545 15       		.uleb128 0x15
 967 0546 737700   		.ascii	"sw\000"
 968 0549 8C       		.byte	0x8c
 969 054a 9D040000 		.4byte	0x49d
 970 054e 15       		.uleb128 0x15
 971 054f 72647900 		.ascii	"rdy\000"
 972 0553 99       		.byte	0x99
 973 0554 C8040000 		.4byte	0x4c8
 974 0558 15       		.uleb128 0x15
 975 0559 69737200 		.ascii	"isr\000"
 976 055d A2       		.byte	0xa2
 977 055e EB040000 		.4byte	0x4eb
 978 0562 0D       		.uleb128 0xd
 979 0563 B8000000 		.4byte	.LASF82
 980 0567 0C       		.byte	0xc
 981 0568 AB       		.byte	0xab
 982 0569 07       		.byte	0x7
 983 056a 02050000 		.4byte	0x502
 984 056e 0D       		.uleb128 0xd
 985 056f C8050000 		.4byte	.LASF83
 986 0573 0C       		.byte	0xc
 987 0574 B8       		.byte	0xb8
 988 0575 07       		.byte	0x7
 989 0576 19050000 		.4byte	0x519
 990 057a 00       		.byte	0
 991 057b 0C       		.uleb128 0xc
 992 057c 10       		.byte	0x10
 993 057d 0C       		.byte	0xc
 994 057e 6C       		.byte	0x6c
 995 057f 09       		.byte	0x9
 996 0580 C1050000 		.4byte	0x5c1
 997 0584 16       		.uleb128 0x16
 998 0585 A5000000 		.4byte	.LASF84
 999 0589 70       		.byte	0x70
 1000 058a E9000000 		.4byte	0xe9
 1001 058e 03       		.byte	0x3
 1002 058f 00       		.byte	0
 1003 0590 16       		.uleb128 0x16
ARM GAS  C:\Users\DEVELO~1\AppData\Local\Temp\ccv7u97u.s 			page 19


 1004 0591 8E010000 		.4byte	.LASF37
 1005 0595 74       		.byte	0x74
 1006 0596 E9000000 		.4byte	0xe9
 1007 059a 05       		.byte	0x5
 1008 059b 03       		.byte	0x3
 1009 059c 16       		.uleb128 0x16
 1010 059d 62040000 		.4byte	.LASF85
 1011 05a1 7A       		.byte	0x7a
 1012 05a2 E9000000 		.4byte	0xe9
 1013 05a6 18       		.byte	0x18
 1014 05a7 08       		.byte	0x8
 1015 05a8 01       		.uleb128 0x1
 1016 05a9 68050000 		.4byte	.LASF86
 1017 05ad 0C       		.byte	0xc
 1018 05ae 7E       		.byte	0x7e
 1019 05af 19       		.byte	0x19
 1020 05b0 88030000 		.4byte	0x388
 1021 05b4 04       		.byte	0x4
 1022 05b5 08       		.uleb128 0x8
 1023 05b6 7500     		.ascii	"u\000"
 1024 05b8 0C       		.byte	0xc
 1025 05b9 B9       		.byte	0xb9
 1026 05ba 05       		.byte	0x5
 1027 05bb 3D050000 		.4byte	0x53d
 1028 05bf 08       		.byte	0x8
 1029 05c0 00       		.byte	0
 1030 05c1 02       		.uleb128 0x2
 1031 05c2 AA000000 		.4byte	.LASF87
 1032 05c6 0C       		.byte	0xc
 1033 05c7 BA       		.byte	0xba
 1034 05c8 03       		.byte	0x3
 1035 05c9 7B050000 		.4byte	0x57b
 1036 05cd 26       		.uleb128 0x26
 1037 05ce 0808     		.2byte	0x808
 1038 05d0 0C       		.byte	0xc
 1039 05d1 C0       		.byte	0xc0
 1040 05d2 09       		.byte	0x9
 1041 05d3 0C060000 		.4byte	0x60c
 1042 05d7 01       		.uleb128 0x1
 1043 05d8 01050000 		.4byte	.LASF88
 1044 05dc 0C       		.byte	0xc
 1045 05dd C4       		.byte	0xc4
 1046 05de 19       		.byte	0x19
 1047 05df D1000000 		.4byte	0xd1
 1048 05e3 00       		.byte	0
 1049 05e4 01       		.uleb128 0x1
 1050 05e5 BE030000 		.4byte	.LASF89
 1051 05e9 0C       		.byte	0xc
 1052 05ea C8       		.byte	0xc8
 1053 05eb 19       		.byte	0x19
 1054 05ec D1000000 		.4byte	0xd1
 1055 05f0 02       		.byte	0x2
 1056 05f1 08       		.uleb128 0x8
 1057 05f2 70747200 		.ascii	"ptr\000"
 1058 05f6 0C       		.byte	0xc
 1059 05f7 CC       		.byte	0xcc
 1060 05f8 1A       		.byte	0x1a
ARM GAS  C:\Users\DEVELO~1\AppData\Local\Temp\ccv7u97u.s 			page 20


 1061 05f9 0C060000 		.4byte	0x60c
 1062 05fd 04       		.byte	0x4
 1063 05fe 01       		.uleb128 0x1
 1064 05ff 54070000 		.4byte	.LASF90
 1065 0603 0C       		.byte	0xc
 1066 0604 D0       		.byte	0xd0
 1067 0605 19       		.byte	0x19
 1068 0606 11060000 		.4byte	0x611
 1069 060a 08       		.byte	0x8
 1070 060b 00       		.byte	0
 1071 060c 03       		.uleb128 0x3
 1072 060d C1050000 		.4byte	0x5c1
 1073 0611 1A       		.uleb128 0x1a
 1074 0612 C1050000 		.4byte	0x5c1
 1075 0616 21060000 		.4byte	0x621
 1076 061a 1B       		.uleb128 0x1b
 1077 061b 3E000000 		.4byte	0x3e
 1078 061f 7F       		.byte	0x7f
 1079 0620 00       		.byte	0
 1080 0621 02       		.uleb128 0x2
 1081 0622 35060000 		.4byte	.LASF91
 1082 0626 0C       		.byte	0xc
 1083 0627 D1       		.byte	0xd1
 1084 0628 03       		.byte	0x3
 1085 0629 CD050000 		.4byte	0x5cd
 1086 062d 1A       		.uleb128 0x1a
 1087 062e E9000000 		.4byte	0xe9
 1088 0632 3D060000 		.4byte	0x63d
 1089 0636 1B       		.uleb128 0x1b
 1090 0637 3E000000 		.4byte	0x3e
 1091 063b 04       		.byte	0x4
 1092 063c 00       		.byte	0
 1093 063d 27       		.uleb128 0x27
 1094 063e 30       		.byte	0x30
 1095 063f 0D       		.byte	0xd
 1096 0640 3906     		.2byte	0x639
 1097 0642 09       		.byte	0x9
 1098 0643 F0060000 		.4byte	0x6f0
 1099 0647 06       		.uleb128 0x6
 1100 0648 43523100 		.ascii	"CR1\000"
 1101 064c 0D       		.byte	0xd
 1102 064d 3B06     		.2byte	0x63b
 1103 064f 11       		.byte	0x11
 1104 0650 F5000000 		.4byte	0xf5
 1105 0654 00       		.byte	0
 1106 0655 06       		.uleb128 0x6
 1107 0656 43523200 		.ascii	"CR2\000"
 1108 065a 0D       		.byte	0xd
 1109 065b 3C06     		.2byte	0x63c
 1110 065d 11       		.byte	0x11
 1111 065e F5000000 		.4byte	0xf5
 1112 0662 04       		.byte	0x4
 1113 0663 06       		.uleb128 0x6
 1114 0664 43523300 		.ascii	"CR3\000"
 1115 0668 0D       		.byte	0xd
 1116 0669 3D06     		.2byte	0x63d
 1117 066b 11       		.byte	0x11
ARM GAS  C:\Users\DEVELO~1\AppData\Local\Temp\ccv7u97u.s 			page 21


 1118 066c F5000000 		.4byte	0xf5
 1119 0670 08       		.byte	0x8
 1120 0671 06       		.uleb128 0x6
 1121 0672 42525200 		.ascii	"BRR\000"
 1122 0676 0D       		.byte	0xd
 1123 0677 3E06     		.2byte	0x63e
 1124 0679 11       		.byte	0x11
 1125 067a F5000000 		.4byte	0xf5
 1126 067e 0C       		.byte	0xc
 1127 067f 05       		.uleb128 0x5
 1128 0680 52010000 		.4byte	.LASF92
 1129 0684 0D       		.byte	0xd
 1130 0685 3F06     		.2byte	0x63f
 1131 0687 11       		.byte	0x11
 1132 0688 F5000000 		.4byte	0xf5
 1133 068c 10       		.byte	0x10
 1134 068d 05       		.uleb128 0x5
 1135 068e 80070000 		.4byte	.LASF93
 1136 0692 0D       		.byte	0xd
 1137 0693 4006     		.2byte	0x640
 1138 0695 11       		.byte	0x11
 1139 0696 F5000000 		.4byte	0xf5
 1140 069a 14       		.byte	0x14
 1141 069b 06       		.uleb128 0x6
 1142 069c 52515200 		.ascii	"RQR\000"
 1143 06a0 0D       		.byte	0xd
 1144 06a1 4106     		.2byte	0x641
 1145 06a3 11       		.byte	0x11
 1146 06a4 F5000000 		.4byte	0xf5
 1147 06a8 18       		.byte	0x18
 1148 06a9 06       		.uleb128 0x6
 1149 06aa 49535200 		.ascii	"ISR\000"
 1150 06ae 0D       		.byte	0xd
 1151 06af 4206     		.2byte	0x642
 1152 06b1 11       		.byte	0x11
 1153 06b2 F5000000 		.4byte	0xf5
 1154 06b6 1C       		.byte	0x1c
 1155 06b7 06       		.uleb128 0x6
 1156 06b8 49435200 		.ascii	"ICR\000"
 1157 06bc 0D       		.byte	0xd
 1158 06bd 4306     		.2byte	0x643
 1159 06bf 11       		.byte	0x11
 1160 06c0 F5000000 		.4byte	0xf5
 1161 06c4 20       		.byte	0x20
 1162 06c5 06       		.uleb128 0x6
 1163 06c6 52445200 		.ascii	"RDR\000"
 1164 06ca 0D       		.byte	0xd
 1165 06cb 4406     		.2byte	0x644
 1166 06cd 11       		.byte	0x11
 1167 06ce F5000000 		.4byte	0xf5
 1168 06d2 24       		.byte	0x24
 1169 06d3 06       		.uleb128 0x6
 1170 06d4 54445200 		.ascii	"TDR\000"
 1171 06d8 0D       		.byte	0xd
 1172 06d9 4506     		.2byte	0x645
 1173 06db 11       		.byte	0x11
 1174 06dc F5000000 		.4byte	0xf5
ARM GAS  C:\Users\DEVELO~1\AppData\Local\Temp\ccv7u97u.s 			page 22


 1175 06e0 28       		.byte	0x28
 1176 06e1 05       		.uleb128 0x5
 1177 06e2 A8020000 		.4byte	.LASF94
 1178 06e6 0D       		.byte	0xd
 1179 06e7 4606     		.2byte	0x646
 1180 06e9 11       		.byte	0x11
 1181 06ea F5000000 		.4byte	0xf5
 1182 06ee 2C       		.byte	0x2c
 1183 06ef 00       		.byte	0
 1184 06f0 13       		.uleb128 0x13
 1185 06f1 FC030000 		.4byte	.LASF95
 1186 06f5 0D       		.byte	0xd
 1187 06f6 4706     		.2byte	0x647
 1188 06f8 3D060000 		.4byte	0x63d
 1189 06fc 11       		.uleb128 0x11
 1190 06fd 8B000000 		.4byte	.LASF96
 1191 0701 24       		.byte	0x24
 1192 0702 0E       		.byte	0xe
 1193 0703 E001     		.2byte	0x1e0
 1194 0705 08       		.byte	0x8
 1195 0706 82070000 		.4byte	0x782
 1196 070a 06       		.uleb128 0x6
 1197 070b 723400   		.ascii	"r4\000"
 1198 070e 0E       		.byte	0xe
 1199 070f F901     		.2byte	0x1f9
 1200 0711 11       		.byte	0x11
 1201 0712 E9000000 		.4byte	0xe9
 1202 0716 00       		.byte	0
 1203 0717 06       		.uleb128 0x6
 1204 0718 723500   		.ascii	"r5\000"
 1205 071b 0E       		.byte	0xe
 1206 071c FA01     		.2byte	0x1fa
 1207 071e 11       		.byte	0x11
 1208 071f E9000000 		.4byte	0xe9
 1209 0723 04       		.byte	0x4
 1210 0724 06       		.uleb128 0x6
 1211 0725 723600   		.ascii	"r6\000"
 1212 0728 0E       		.byte	0xe
 1213 0729 FB01     		.2byte	0x1fb
 1214 072b 11       		.byte	0x11
 1215 072c E9000000 		.4byte	0xe9
 1216 0730 08       		.byte	0x8
 1217 0731 06       		.uleb128 0x6
 1218 0732 723700   		.ascii	"r7\000"
 1219 0735 0E       		.byte	0xe
 1220 0736 FC01     		.2byte	0x1fc
 1221 0738 11       		.byte	0x11
 1222 0739 E9000000 		.4byte	0xe9
 1223 073d 0C       		.byte	0xc
 1224 073e 06       		.uleb128 0x6
 1225 073f 723800   		.ascii	"r8\000"
 1226 0742 0E       		.byte	0xe
 1227 0743 FD01     		.2byte	0x1fd
 1228 0745 11       		.byte	0x11
 1229 0746 E9000000 		.4byte	0xe9
 1230 074a 10       		.byte	0x10
 1231 074b 06       		.uleb128 0x6
ARM GAS  C:\Users\DEVELO~1\AppData\Local\Temp\ccv7u97u.s 			page 23


 1232 074c 723900   		.ascii	"r9\000"
 1233 074f 0E       		.byte	0xe
 1234 0750 FE01     		.2byte	0x1fe
 1235 0752 11       		.byte	0x11
 1236 0753 E9000000 		.4byte	0xe9
 1237 0757 14       		.byte	0x14
 1238 0758 06       		.uleb128 0x6
 1239 0759 72313000 		.ascii	"r10\000"
 1240 075d 0E       		.byte	0xe
 1241 075e FF01     		.2byte	0x1ff
 1242 0760 11       		.byte	0x11
 1243 0761 E9000000 		.4byte	0xe9
 1244 0765 18       		.byte	0x18
 1245 0766 06       		.uleb128 0x6
 1246 0767 72313100 		.ascii	"r11\000"
 1247 076b 0E       		.byte	0xe
 1248 076c 0002     		.2byte	0x200
 1249 076e 11       		.byte	0x11
 1250 076f E9000000 		.4byte	0xe9
 1251 0773 1C       		.byte	0x1c
 1252 0774 06       		.uleb128 0x6
 1253 0775 6C7200   		.ascii	"lr\000"
 1254 0778 0E       		.byte	0xe
 1255 0779 0102     		.2byte	0x201
 1256 077b 11       		.byte	0x11
 1257 077c E9000000 		.4byte	0xe9
 1258 0780 20       		.byte	0x20
 1259 0781 00       		.byte	0
 1260 0782 11       		.uleb128 0x11
 1261 0783 4C050000 		.4byte	.LASF97
 1262 0787 04       		.byte	0x4
 1263 0788 0E       		.byte	0xe
 1264 0789 0A02     		.2byte	0x20a
 1265 078b 08       		.byte	0x8
 1266 078c 9E070000 		.4byte	0x79e
 1267 0790 06       		.uleb128 0x6
 1268 0791 737000   		.ascii	"sp\000"
 1269 0794 0E       		.byte	0xe
 1270 0795 0B02     		.2byte	0x20b
 1271 0797 1A       		.byte	0x1a
 1272 0798 9E070000 		.4byte	0x79e
 1273 079c 00       		.byte	0
 1274 079d 00       		.byte	0
 1275 079e 03       		.uleb128 0x3
 1276 079f FC060000 		.4byte	0x6fc
 1277 07a3 07       		.uleb128 0x7
 1278 07a4 C7040000 		.4byte	.LASF98
 1279 07a8 18       		.byte	0x18
 1280 07a9 07       		.byte	0x7
 1281 07aa 64       		.byte	0x64
 1282 07ab 10       		.byte	0x10
 1283 07ac D8070000 		.4byte	0x7d8
 1284 07b0 01       		.uleb128 0x1
 1285 07b1 44070000 		.4byte	.LASF99
 1286 07b5 07       		.byte	0x7
 1287 07b6 68       		.byte	0x68
 1288 07b7 21       		.byte	0x21
ARM GAS  C:\Users\DEVELO~1\AppData\Local\Temp\ccv7u97u.s 			page 24


 1289 07b8 57040000 		.4byte	0x457
 1290 07bc 00       		.byte	0
 1291 07bd 01       		.uleb128 0x1
 1292 07be 2C060000 		.4byte	.LASF100
 1293 07c2 07       		.byte	0x7
 1294 07c3 73       		.byte	0x73
 1295 07c4 21       		.byte	0x21
 1296 07c5 88030000 		.4byte	0x388
 1297 07c9 0C       		.byte	0xc
 1298 07ca 01       		.uleb128 0x1
 1299 07cb 6A040000 		.4byte	.LASF101
 1300 07cf 07       		.byte	0x7
 1301 07d0 79       		.byte	0x79
 1302 07d1 21       		.byte	0x21
 1303 07d2 06010000 		.4byte	0x106
 1304 07d6 10       		.byte	0x10
 1305 07d7 00       		.byte	0
 1306 07d8 02       		.uleb128 0x2
 1307 07d9 41040000 		.4byte	.LASF102
 1308 07dd 07       		.byte	0x7
 1309 07de 7B       		.byte	0x7b
 1310 07df 03       		.byte	0x3
 1311 07e0 A3070000 		.4byte	0x7a3
 1312 07e4 07       		.uleb128 0x7
 1313 07e5 90020000 		.4byte	.LASF103
 1314 07e9 08       		.byte	0x8
 1315 07ea 07       		.byte	0x7
 1316 07eb 80       		.byte	0x80
 1317 07ec 10       		.byte	0x10
 1318 07ed FF070000 		.4byte	0x7ff
 1319 07f1 01       		.uleb128 0x1
 1320 07f2 AC030000 		.4byte	.LASF104
 1321 07f6 07       		.byte	0x7
 1322 07f7 84       		.byte	0x84
 1323 07f8 21       		.byte	0x21
 1324 07f9 D8030000 		.4byte	0x3d8
 1325 07fd 00       		.byte	0
 1326 07fe 00       		.byte	0
 1327 07ff 02       		.uleb128 0x2
 1328 0800 C6070000 		.4byte	.LASF105
 1329 0804 07       		.byte	0x7
 1330 0805 85       		.byte	0x85
 1331 0806 03       		.byte	0x3
 1332 0807 E4070000 		.4byte	0x7e4
 1333 080b 02       		.uleb128 0x2
 1334 080c AB040000 		.4byte	.LASF106
 1335 0810 07       		.byte	0x7
 1336 0811 8A       		.byte	0x8a
 1337 0812 14       		.byte	0x14
 1338 0813 C1040000 		.4byte	0x4c1
 1339 0817 07       		.uleb128 0x7
 1340 0818 F6000000 		.4byte	.LASF107
 1341 081c 08       		.byte	0x8
 1342 081d 07       		.byte	0x7
 1343 081e 8F       		.byte	0x8f
 1344 081f 10       		.byte	0x10
 1345 0820 32080000 		.4byte	0x832
ARM GAS  C:\Users\DEVELO~1\AppData\Local\Temp\ccv7u97u.s 			page 25


 1346 0824 01       		.uleb128 0x1
 1347 0825 AC030000 		.4byte	.LASF104
 1348 0829 07       		.byte	0x7
 1349 082a 93       		.byte	0x93
 1350 082b 21       		.byte	0x21
 1351 082c D8030000 		.4byte	0x3d8
 1352 0830 00       		.byte	0
 1353 0831 00       		.byte	0
 1354 0832 02       		.uleb128 0x2
 1355 0833 80060000 		.4byte	.LASF108
 1356 0837 07       		.byte	0x7
 1357 0838 94       		.byte	0x94
 1358 0839 03       		.byte	0x3
 1359 083a 17080000 		.4byte	0x817
 1360 083e 14       		.uleb128 0x14
 1361 083f 0C       		.byte	0xc
 1362 0840 07       		.byte	0x7
 1363 0841 A0       		.byte	0xa0
 1364 0842 6B080000 		.4byte	0x86b
 1365 0846 0D       		.uleb128 0xd
 1366 0847 67080000 		.4byte	.LASF109
 1367 084b 07       		.byte	0x7
 1368 084c A4       		.byte	0xa4
 1369 084d 21       		.byte	0x21
 1370 084e AC030000 		.4byte	0x3ac
 1371 0852 0D       		.uleb128 0xd
 1372 0853 AC030000 		.4byte	.LASF104
 1373 0857 07       		.byte	0x7
 1374 0858 A8       		.byte	0xa8
 1375 0859 21       		.byte	0x21
 1376 085a D8030000 		.4byte	0x3d8
 1377 085e 0D       		.uleb128 0xd
 1378 085f 79070000 		.4byte	.LASF110
 1379 0863 07       		.byte	0x7
 1380 0864 AC       		.byte	0xac
 1381 0865 21       		.byte	0x21
 1382 0866 11040000 		.4byte	0x411
 1383 086a 00       		.byte	0
 1384 086b 14       		.uleb128 0x14
 1385 086c 04       		.byte	0x4
 1386 086d 07       		.byte	0x7
 1387 086e EB       		.byte	0xeb
 1388 086f D4080000 		.4byte	0x8d4
 1389 0873 0D       		.uleb128 0xd
 1390 0874 19000000 		.4byte	.LASF111
 1391 0878 07       		.byte	0x7
 1392 0879 F2       		.byte	0xf2
 1393 087a 21       		.byte	0x21
 1394 087b 53010000 		.4byte	0x153
 1395 087f 0D       		.uleb128 0xd
 1396 0880 BD000000 		.4byte	.LASF112
 1397 0884 07       		.byte	0x7
 1398 0885 F9       		.byte	0xf9
 1399 0886 21       		.byte	0x21
 1400 0887 53010000 		.4byte	0x153
 1401 088b 10       		.uleb128 0x10
 1402 088c 44060000 		.4byte	.LASF80
ARM GAS  C:\Users\DEVELO~1\AppData\Local\Temp\ccv7u97u.s 			page 26


 1403 0890 0001     		.2byte	0x100
 1404 0892 22       		.byte	0x22
 1405 0893 C6040000 		.4byte	0x4c6
 1406 0897 10       		.uleb128 0x10
 1407 0898 81030000 		.4byte	.LASF113
 1408 089c 0701     		.2byte	0x107
 1409 089e 22       		.byte	0x22
 1410 089f D4080000 		.4byte	0x8d4
 1411 08a3 10       		.uleb128 0x10
 1412 08a4 D8000000 		.4byte	.LASF114
 1413 08a8 0C01     		.2byte	0x10c
 1414 08aa 21       		.byte	0x21
 1415 08ab 53010000 		.4byte	0x153
 1416 08af 10       		.uleb128 0x10
 1417 08b0 64030000 		.4byte	.LASF115
 1418 08b4 1501     		.2byte	0x115
 1419 08b6 22       		.byte	0x22
 1420 08b7 01090000 		.4byte	0x901
 1421 08bb 10       		.uleb128 0x10
 1422 08bc BF060000 		.4byte	.LASF116
 1423 08c0 1E01     		.2byte	0x11e
 1424 08c2 22       		.byte	0x22
 1425 08c3 3B090000 		.4byte	0x93b
 1426 08c7 10       		.uleb128 0x10
 1427 08c8 4B060000 		.4byte	.LASF117
 1428 08cc 2601     		.2byte	0x126
 1429 08ce 21       		.byte	0x21
 1430 08cf 5F010000 		.4byte	0x15f
 1431 08d3 00       		.byte	0
 1432 08d4 03       		.uleb128 0x3
 1433 08d5 0B080000 		.4byte	0x80b
 1434 08d9 07       		.uleb128 0x7
 1435 08da 90060000 		.4byte	.LASF118
 1436 08de 0C       		.byte	0xc
 1437 08df 0F       		.byte	0xf
 1438 08e0 34       		.byte	0x34
 1439 08e1 10       		.byte	0x10
 1440 08e2 01090000 		.4byte	0x901
 1441 08e6 01       		.uleb128 0x1
 1442 08e7 AC030000 		.4byte	.LASF104
 1443 08eb 0F       		.byte	0xf
 1444 08ec 35       		.byte	0x35
 1445 08ed 19       		.byte	0x19
 1446 08ee D8030000 		.4byte	0x3d8
 1447 08f2 00       		.byte	0
 1448 08f3 08       		.uleb128 0x8
 1449 08f4 636E7400 		.ascii	"cnt\000"
 1450 08f8 0F       		.byte	0xf
 1451 08f9 37       		.byte	0x37
 1452 08fa 19       		.byte	0x19
 1453 08fb 77010000 		.4byte	0x177
 1454 08ff 08       		.byte	0x8
 1455 0900 00       		.byte	0
 1456 0901 03       		.uleb128 0x3
 1457 0902 D9080000 		.4byte	0x8d9
 1458 0906 07       		.uleb128 0x7
 1459 0907 0C080000 		.4byte	.LASF119
ARM GAS  C:\Users\DEVELO~1\AppData\Local\Temp\ccv7u97u.s 			page 27


 1460 090b 10       		.byte	0x10
 1461 090c 10       		.byte	0x10
 1462 090d 39       		.byte	0x39
 1463 090e 08       		.byte	0x8
 1464 090f 3B090000 		.4byte	0x93b
 1465 0913 01       		.uleb128 0x1
 1466 0914 AC030000 		.4byte	.LASF104
 1467 0918 10       		.byte	0x10
 1468 0919 3A       		.byte	0x3a
 1469 091a 19       		.byte	0x19
 1470 091b D8030000 		.4byte	0x3d8
 1471 091f 00       		.byte	0
 1472 0920 01       		.uleb128 0x1
 1473 0921 D6060000 		.4byte	.LASF34
 1474 0925 10       		.byte	0x10
 1475 0926 3C       		.byte	0x3c
 1476 0927 1A       		.byte	0x1a
 1477 0928 C1040000 		.4byte	0x4c1
 1478 092c 08       		.byte	0x8
 1479 092d 01       		.uleb128 0x1
 1480 092e F1000000 		.4byte	.LASF70
 1481 0932 10       		.byte	0x10
 1482 0933 3E       		.byte	0x3e
 1483 0934 1A       		.byte	0x1a
 1484 0935 F8090000 		.4byte	0x9f8
 1485 0939 0C       		.byte	0xc
 1486 093a 00       		.byte	0
 1487 093b 03       		.uleb128 0x3
 1488 093c 06090000 		.4byte	0x906
 1489 0940 03       		.uleb128 0x3
 1490 0941 7E020000 		.4byte	0x27e
 1491 0945 03       		.uleb128 0x3
 1492 0946 17010000 		.4byte	0x117
 1493 094a 11       		.uleb128 0x11
 1494 094b 21040000 		.4byte	.LASF120
 1495 094f 10       		.byte	0x10
 1496 0950 07       		.byte	0x7
 1497 0951 5C01     		.2byte	0x15c
 1498 0953 10       		.byte	0x10
 1499 0954 75090000 		.4byte	0x975
 1500 0958 05       		.uleb128 0x5
 1501 0959 79070000 		.4byte	.LASF110
 1502 095d 07       		.byte	0x7
 1503 095e 6101     		.2byte	0x161
 1504 0960 21       		.byte	0x21
 1505 0961 11040000 		.4byte	0x411
 1506 0965 00       		.byte	0
 1507 0966 05       		.uleb128 0x5
 1508 0967 9D060000 		.4byte	.LASF121
 1509 096b 07       		.byte	0x7
 1510 096c 6501     		.2byte	0x165
 1511 096e 22       		.byte	0x22
 1512 096f C1040000 		.4byte	0x4c1
 1513 0973 0C       		.byte	0xc
 1514 0974 00       		.byte	0
 1515 0975 13       		.uleb128 0x13
 1516 0976 05000000 		.4byte	.LASF122
ARM GAS  C:\Users\DEVELO~1\AppData\Local\Temp\ccv7u97u.s 			page 28


 1517 097a 07       		.byte	0x7
 1518 097b 6601     		.2byte	0x166
 1519 097d 4A090000 		.4byte	0x94a
 1520 0981 11       		.uleb128 0x11
 1521 0982 36050000 		.4byte	.LASF123
 1522 0986 14       		.byte	0x14
 1523 0987 07       		.byte	0x7
 1524 0988 6B01     		.2byte	0x16b
 1525 098a 10       		.byte	0x10
 1526 098b D6090000 		.4byte	0x9d6
 1527 098f 05       		.uleb128 0x5
 1528 0990 A7030000 		.4byte	.LASF35
 1529 0994 07       		.byte	0x7
 1530 0995 6F01     		.2byte	0x16f
 1531 0997 22       		.byte	0x22
 1532 0998 66030000 		.4byte	0x366
 1533 099c 00       		.byte	0
 1534 099d 05       		.uleb128 0x5
 1535 099e E4020000 		.4byte	.LASF124
 1536 09a2 07       		.byte	0x7
 1537 09a3 7501     		.2byte	0x175
 1538 09a5 22       		.byte	0x22
 1539 09a6 45090000 		.4byte	0x945
 1540 09aa 04       		.byte	0x4
 1541 09ab 05       		.uleb128 0x5
 1542 09ac D1070000 		.4byte	.LASF125
 1543 09b0 07       		.byte	0x7
 1544 09b1 7901     		.2byte	0x179
 1545 09b3 22       		.byte	0x22
 1546 09b4 45090000 		.4byte	0x945
 1547 09b8 08       		.byte	0x8
 1548 09b9 05       		.uleb128 0x5
 1549 09ba 44030000 		.4byte	.LASF126
 1550 09be 07       		.byte	0x7
 1551 09bf 7F01     		.2byte	0x17f
 1552 09c1 22       		.byte	0x22
 1553 09c2 45090000 		.4byte	0x945
 1554 09c6 0C       		.byte	0xc
 1555 09c7 05       		.uleb128 0x5
 1556 09c8 74080000 		.4byte	.LASF127
 1557 09cc 07       		.byte	0x7
 1558 09cd 8301     		.2byte	0x183
 1559 09cf 22       		.byte	0x22
 1560 09d0 45090000 		.4byte	0x945
 1561 09d4 10       		.byte	0x10
 1562 09d5 00       		.byte	0
 1563 09d6 13       		.uleb128 0x13
 1564 09d7 F1070000 		.4byte	.LASF128
 1565 09db 07       		.byte	0x7
 1566 09dc 8501     		.2byte	0x185
 1567 09de 81090000 		.4byte	0x981
 1568 09e2 0F       		.uleb128 0xf
 1569 09e3 D6090000 		.4byte	0x9d6
 1570 09e7 03       		.uleb128 0x3
 1571 09e8 E2090000 		.4byte	0x9e2
 1572 09ec 02       		.uleb128 0x2
 1573 09ed F4020000 		.4byte	.LASF129
ARM GAS  C:\Users\DEVELO~1\AppData\Local\Temp\ccv7u97u.s 			page 29


 1574 09f1 10       		.byte	0x10
 1575 09f2 34       		.byte	0x34
 1576 09f3 19       		.byte	0x19
 1577 09f4 06090000 		.4byte	0x906
 1578 09f8 03       		.uleb128 0x3
 1579 09f9 EC090000 		.4byte	0x9ec
 1580 09fd 02       		.uleb128 0x2
 1581 09fe 74040000 		.4byte	.LASF130
 1582 0a02 11       		.byte	0x11
 1583 0a03 34       		.byte	0x34
 1584 0a04 1F       		.byte	0x1f
 1585 0a05 090A0000 		.4byte	0xa09
 1586 0a09 07       		.uleb128 0x7
 1587 0a0a 8B080000 		.4byte	.LASF131
 1588 0a0e 14       		.byte	0x14
 1589 0a0f 11       		.byte	0x11
 1590 0a10 39       		.byte	0x39
 1591 0a11 08       		.byte	0x8
 1592 0a12 580A0000 		.4byte	0xa58
 1593 0a16 01       		.uleb128 0x1
 1594 0a17 F1000000 		.4byte	.LASF70
 1595 0a1b 11       		.byte	0x11
 1596 0a1c 3A       		.byte	0x3a
 1597 0a1d 1A       		.byte	0x1a
 1598 0a1e 580A0000 		.4byte	0xa58
 1599 0a22 00       		.byte	0
 1600 0a23 01       		.uleb128 0x1
 1601 0a24 BE040000 		.4byte	.LASF132
 1602 0a28 11       		.byte	0x11
 1603 0a29 3D       		.byte	0x3d
 1604 0a2a 1A       		.byte	0x1a
 1605 0a2b C1040000 		.4byte	0x4c1
 1606 0a2f 04       		.byte	0x4
 1607 0a30 01       		.uleb128 0x1
 1608 0a31 AF060000 		.4byte	.LASF133
 1609 0a35 11       		.byte	0x11
 1610 0a36 3F       		.byte	0x3f
 1611 0a37 19       		.byte	0x19
 1612 0a38 5F010000 		.4byte	0x15f
 1613 0a3c 08       		.byte	0x8
 1614 0a3d 01       		.uleb128 0x1
 1615 0a3e 39080000 		.4byte	.LASF38
 1616 0a42 11       		.byte	0x11
 1617 0a43 41       		.byte	0x41
 1618 0a44 19       		.byte	0x19
 1619 0a45 6B010000 		.4byte	0x16b
 1620 0a49 0C       		.byte	0xc
 1621 0a4a 01       		.uleb128 0x1
 1622 0a4b 9C020000 		.4byte	.LASF134
 1623 0a4f 11       		.byte	0x11
 1624 0a50 43       		.byte	0x43
 1625 0a51 19       		.byte	0x19
 1626 0a52 6B010000 		.4byte	0x16b
 1627 0a56 10       		.byte	0x10
 1628 0a57 00       		.byte	0
 1629 0a58 03       		.uleb128 0x3
 1630 0a59 FD090000 		.4byte	0x9fd
ARM GAS  C:\Users\DEVELO~1\AppData\Local\Temp\ccv7u97u.s 			page 30


 1631 0a5d 07       		.uleb128 0x7
 1632 0a5e 24080000 		.4byte	.LASF135
 1633 0a62 04       		.byte	0x4
 1634 0a63 11       		.byte	0x11
 1635 0a64 4A       		.byte	0x4a
 1636 0a65 10       		.byte	0x10
 1637 0a66 780A0000 		.4byte	0xa78
 1638 0a6a 01       		.uleb128 0x1
 1639 0a6b F1000000 		.4byte	.LASF70
 1640 0a6f 11       		.byte	0x11
 1641 0a70 4B       		.byte	0x4b
 1642 0a71 1A       		.byte	0x1a
 1643 0a72 580A0000 		.4byte	0xa58
 1644 0a76 00       		.byte	0
 1645 0a77 00       		.byte	0
 1646 0a78 02       		.uleb128 0x2
 1647 0a79 05030000 		.4byte	.LASF136
 1648 0a7d 11       		.byte	0x11
 1649 0a7e 4E       		.byte	0x4e
 1650 0a7f 03       		.byte	0x3
 1651 0a80 5D0A0000 		.4byte	0xa5d
 1652 0a84 0A       		.uleb128 0xa
 1653 0a85 01       		.byte	0x1
 1654 0a86 02       		.byte	0x2
 1655 0a87 ED050000 		.4byte	.LASF137
 1656 0a8b 03       		.uleb128 0x3
 1657 0a8c C0000000 		.4byte	0xc0
 1658 0a90 07       		.uleb128 0x7
 1659 0a91 59060000 		.4byte	.LASF138
 1660 0a95 14       		.byte	0x14
 1661 0a96 12       		.byte	0x12
 1662 0a97 4F       		.byte	0x4f
 1663 0a98 08       		.byte	0x8
 1664 0a99 DF0A0000 		.4byte	0xadf
 1665 0a9d 01       		.uleb128 0x1
 1666 0a9e 57080000 		.4byte	.LASF139
 1667 0aa2 12       		.byte	0x12
 1668 0aa3 50       		.byte	0x50
 1669 0aa4 03       		.byte	0x3
 1670 0aa5 2D000000 		.4byte	0x2d
 1671 0aa9 00       		.byte	0
 1672 0aaa 01       		.uleb128 0x1
 1673 0aab 25000000 		.4byte	.LASF140
 1674 0aaf 12       		.byte	0x12
 1675 0ab0 50       		.byte	0x50
 1676 0ab1 03       		.byte	0x3
 1677 0ab2 020B0000 		.4byte	0xb02
 1678 0ab6 04       		.byte	0x4
 1679 0ab7 01       		.uleb128 0x1
 1680 0ab8 3F080000 		.4byte	.LASF141
 1681 0abc 12       		.byte	0x12
 1682 0abd 50       		.byte	0x50
 1683 0abe 03       		.byte	0x3
 1684 0abf 200B0000 		.4byte	0xb20
 1685 0ac3 08       		.byte	0x8
 1686 0ac4 08       		.uleb128 0x8
 1687 0ac5 70757400 		.ascii	"put\000"
ARM GAS  C:\Users\DEVELO~1\AppData\Local\Temp\ccv7u97u.s 			page 31


 1688 0ac9 12       		.byte	0x12
 1689 0aca 50       		.byte	0x50
 1690 0acb 03       		.byte	0x3
 1691 0acc 390B0000 		.4byte	0xb39
 1692 0ad0 0C       		.byte	0xc
 1693 0ad1 08       		.uleb128 0x8
 1694 0ad2 67657400 		.ascii	"get\000"
 1695 0ad6 12       		.byte	0x12
 1696 0ad7 50       		.byte	0x50
 1697 0ad8 03       		.byte	0x3
 1698 0ad9 4D0B0000 		.4byte	0xb4d
 1699 0add 10       		.byte	0x10
 1700 0ade 00       		.byte	0
 1701 0adf 0F       		.uleb128 0xf
 1702 0ae0 900A0000 		.4byte	0xa90
 1703 0ae4 0B       		.uleb128 0xb
 1704 0ae5 2D000000 		.4byte	0x2d
 1705 0ae9 FD0A0000 		.4byte	0xafd
 1706 0aed 04       		.uleb128 0x4
 1707 0aee C6040000 		.4byte	0x4c6
 1708 0af2 04       		.uleb128 0x4
 1709 0af3 FD0A0000 		.4byte	0xafd
 1710 0af7 04       		.uleb128 0x4
 1711 0af8 2D000000 		.4byte	0x2d
 1712 0afc 00       		.byte	0
 1713 0afd 03       		.uleb128 0x3
 1714 0afe CC000000 		.4byte	0xcc
 1715 0b02 03       		.uleb128 0x3
 1716 0b03 E40A0000 		.4byte	0xae4
 1717 0b07 0B       		.uleb128 0xb
 1718 0b08 2D000000 		.4byte	0x2d
 1719 0b0c 200B0000 		.4byte	0xb20
 1720 0b10 04       		.uleb128 0x4
 1721 0b11 C6040000 		.4byte	0x4c6
 1722 0b15 04       		.uleb128 0x4
 1723 0b16 8B0A0000 		.4byte	0xa8b
 1724 0b1a 04       		.uleb128 0x4
 1725 0b1b 2D000000 		.4byte	0x2d
 1726 0b1f 00       		.byte	0
 1727 0b20 03       		.uleb128 0x3
 1728 0b21 070B0000 		.4byte	0xb07
 1729 0b25 0B       		.uleb128 0xb
 1730 0b26 53010000 		.4byte	0x153
 1731 0b2a 390B0000 		.4byte	0xb39
 1732 0b2e 04       		.uleb128 0x4
 1733 0b2f C6040000 		.4byte	0x4c6
 1734 0b33 04       		.uleb128 0x4
 1735 0b34 C0000000 		.4byte	0xc0
 1736 0b38 00       		.byte	0
 1737 0b39 03       		.uleb128 0x3
 1738 0b3a 250B0000 		.4byte	0xb25
 1739 0b3e 0B       		.uleb128 0xb
 1740 0b3f 53010000 		.4byte	0x153
 1741 0b43 4D0B0000 		.4byte	0xb4d
 1742 0b47 04       		.uleb128 0x4
 1743 0b48 C6040000 		.4byte	0x4c6
 1744 0b4c 00       		.byte	0
ARM GAS  C:\Users\DEVELO~1\AppData\Local\Temp\ccv7u97u.s 			page 32


 1745 0b4d 03       		.uleb128 0x3
 1746 0b4e 3E0B0000 		.4byte	0xb3e
 1747 0b52 0C       		.uleb128 0xc
 1748 0b53 04       		.byte	0x4
 1749 0b54 12       		.byte	0x12
 1750 0b55 5A       		.byte	0x5a
 1751 0b56 09       		.byte	0x9
 1752 0b57 690B0000 		.4byte	0xb69
 1753 0b5b 08       		.uleb128 0x8
 1754 0b5c 766D7400 		.ascii	"vmt\000"
 1755 0b60 12       		.byte	0x12
 1756 0b61 5C       		.byte	0x5c
 1757 0b62 29       		.byte	0x29
 1758 0b63 690B0000 		.4byte	0xb69
 1759 0b67 00       		.byte	0
 1760 0b68 00       		.byte	0
 1761 0b69 03       		.uleb128 0x3
 1762 0b6a DF0A0000 		.4byte	0xadf
 1763 0b6e 02       		.uleb128 0x2
 1764 0b6f 1B070000 		.4byte	.LASF142
 1765 0b73 12       		.byte	0x12
 1766 0b74 5E       		.byte	0x5e
 1767 0b75 03       		.byte	0x3
 1768 0b76 520B0000 		.4byte	0xb52
 1769 0b7a 0B       		.uleb128 0xb
 1770 0b7b 53010000 		.4byte	0x153
 1771 0b7f 930B0000 		.4byte	0xb93
 1772 0b83 04       		.uleb128 0x4
 1773 0b84 C6040000 		.4byte	0x4c6
 1774 0b88 04       		.uleb128 0x4
 1775 0b89 C0000000 		.4byte	0xc0
 1776 0b8d 04       		.uleb128 0x4
 1777 0b8e 94030000 		.4byte	0x394
 1778 0b92 00       		.byte	0
 1779 0b93 03       		.uleb128 0x3
 1780 0b94 7A0B0000 		.4byte	0xb7a
 1781 0b98 0B       		.uleb128 0xb
 1782 0b99 53010000 		.4byte	0x153
 1783 0b9d AC0B0000 		.4byte	0xbac
 1784 0ba1 04       		.uleb128 0x4
 1785 0ba2 C6040000 		.4byte	0x4c6
 1786 0ba6 04       		.uleb128 0x4
 1787 0ba7 94030000 		.4byte	0x394
 1788 0bab 00       		.byte	0
 1789 0bac 03       		.uleb128 0x3
 1790 0bad 980B0000 		.4byte	0xb98
 1791 0bb1 0B       		.uleb128 0xb
 1792 0bb2 2D000000 		.4byte	0x2d
 1793 0bb6 CF0B0000 		.4byte	0xbcf
 1794 0bba 04       		.uleb128 0x4
 1795 0bbb C6040000 		.4byte	0x4c6
 1796 0bbf 04       		.uleb128 0x4
 1797 0bc0 FD0A0000 		.4byte	0xafd
 1798 0bc4 04       		.uleb128 0x4
 1799 0bc5 2D000000 		.4byte	0x2d
 1800 0bc9 04       		.uleb128 0x4
 1801 0bca 94030000 		.4byte	0x394
ARM GAS  C:\Users\DEVELO~1\AppData\Local\Temp\ccv7u97u.s 			page 33


 1802 0bce 00       		.byte	0
 1803 0bcf 03       		.uleb128 0x3
 1804 0bd0 B10B0000 		.4byte	0xbb1
 1805 0bd4 0B       		.uleb128 0xb
 1806 0bd5 2D000000 		.4byte	0x2d
 1807 0bd9 F20B0000 		.4byte	0xbf2
 1808 0bdd 04       		.uleb128 0x4
 1809 0bde C6040000 		.4byte	0x4c6
 1810 0be2 04       		.uleb128 0x4
 1811 0be3 8B0A0000 		.4byte	0xa8b
 1812 0be7 04       		.uleb128 0x4
 1813 0be8 2D000000 		.4byte	0x2d
 1814 0bec 04       		.uleb128 0x4
 1815 0bed 94030000 		.4byte	0x394
 1816 0bf1 00       		.byte	0
 1817 0bf2 03       		.uleb128 0x3
 1818 0bf3 D40B0000 		.4byte	0xbd4
 1819 0bf7 0B       		.uleb128 0xb
 1820 0bf8 53010000 		.4byte	0x153
 1821 0bfc 100C0000 		.4byte	0xc10
 1822 0c00 04       		.uleb128 0x4
 1823 0c01 C6040000 		.4byte	0x4c6
 1824 0c05 04       		.uleb128 0x4
 1825 0c06 3E000000 		.4byte	0x3e
 1826 0c0a 04       		.uleb128 0x4
 1827 0c0b C6040000 		.4byte	0x4c6
 1828 0c0f 00       		.byte	0
 1829 0c10 03       		.uleb128 0x3
 1830 0c11 F70B0000 		.4byte	0xbf7
 1831 0c15 02       		.uleb128 0x2
 1832 0c16 E6000000 		.4byte	.LASF143
 1833 0c1a 13       		.byte	0x13
 1834 0c1b 3A       		.byte	0x3a
 1835 0c1c 19       		.byte	0x19
 1836 0c1d 210C0000 		.4byte	0xc21
 1837 0c21 07       		.uleb128 0x7
 1838 0c22 FC020000 		.4byte	.LASF144
 1839 0c26 24       		.byte	0x24
 1840 0c27 13       		.byte	0x13
 1841 0c28 4B       		.byte	0x4b
 1842 0c29 08       		.byte	0x8
 1843 0c2a 970C0000 		.4byte	0xc97
 1844 0c2e 01       		.uleb128 0x1
 1845 0c2f 12010000 		.4byte	.LASF145
 1846 0c33 13       		.byte	0x13
 1847 0c34 4C       		.byte	0x4c
 1848 0c35 19       		.byte	0x19
 1849 0c36 32080000 		.4byte	0x832
 1850 0c3a 00       		.byte	0
 1851 0c3b 01       		.uleb128 0x1
 1852 0c3c DE040000 		.4byte	.LASF146
 1853 0c40 13       		.byte	0x13
 1854 0c41 4D       		.byte	0x4d
 1855 0c42 19       		.byte	0x19
 1856 0c43 39000000 		.4byte	0x39
 1857 0c47 08       		.byte	0x8
 1858 0c48 01       		.uleb128 0x1
ARM GAS  C:\Users\DEVELO~1\AppData\Local\Temp\ccv7u97u.s 			page 34


 1859 0c49 7E020000 		.4byte	.LASF147
 1860 0c4d 13       		.byte	0x13
 1861 0c4e 4E       		.byte	0x4e
 1862 0c4f 1A       		.byte	0x1a
 1863 0c50 8B0A0000 		.4byte	0xa8b
 1864 0c54 0C       		.byte	0xc
 1865 0c55 01       		.uleb128 0x1
 1866 0c56 06080000 		.4byte	.LASF148
 1867 0c5a 13       		.byte	0x13
 1868 0c5b 4F       		.byte	0x4f
 1869 0c5c 1A       		.byte	0x1a
 1870 0c5d 8B0A0000 		.4byte	0xa8b
 1871 0c61 10       		.byte	0x10
 1872 0c62 01       		.uleb128 0x1
 1873 0c63 2E050000 		.4byte	.LASF149
 1874 0c67 13       		.byte	0x13
 1875 0c68 51       		.byte	0x51
 1876 0c69 1A       		.byte	0x1a
 1877 0c6a 8B0A0000 		.4byte	0xa8b
 1878 0c6e 14       		.byte	0x14
 1879 0c6f 01       		.uleb128 0x1
 1880 0c70 D5050000 		.4byte	.LASF150
 1881 0c74 13       		.byte	0x13
 1882 0c75 52       		.byte	0x52
 1883 0c76 1A       		.byte	0x1a
 1884 0c77 8B0A0000 		.4byte	0xa8b
 1885 0c7b 18       		.byte	0x18
 1886 0c7c 01       		.uleb128 0x1
 1887 0c7d 15080000 		.4byte	.LASF151
 1888 0c81 13       		.byte	0x13
 1889 0c82 53       		.byte	0x53
 1890 0c83 19       		.byte	0x19
 1891 0c84 970C0000 		.4byte	0xc97
 1892 0c88 1C       		.byte	0x1c
 1893 0c89 01       		.uleb128 0x1
 1894 0c8a A4040000 		.4byte	.LASF152
 1895 0c8e 13       		.byte	0x13
 1896 0c8f 54       		.byte	0x54
 1897 0c90 1A       		.byte	0x1a
 1898 0c91 C6040000 		.4byte	0x4c6
 1899 0c95 20       		.byte	0x20
 1900 0c96 00       		.byte	0
 1901 0c97 02       		.uleb128 0x2
 1902 0c98 B6050000 		.4byte	.LASF153
 1903 0c9c 13       		.byte	0x13
 1904 0c9d 41       		.byte	0x41
 1905 0c9e 10       		.byte	0x10
 1906 0c9f A30C0000 		.4byte	0xca3
 1907 0ca3 03       		.uleb128 0x3
 1908 0ca4 A80C0000 		.4byte	0xca8
 1909 0ca8 28       		.uleb128 0x28
 1910 0ca9 B30C0000 		.4byte	0xcb3
 1911 0cad 04       		.uleb128 0x4
 1912 0cae B30C0000 		.4byte	0xcb3
 1913 0cb2 00       		.byte	0
 1914 0cb3 03       		.uleb128 0x3
 1915 0cb4 150C0000 		.4byte	0xc15
ARM GAS  C:\Users\DEVELO~1\AppData\Local\Temp\ccv7u97u.s 			page 35


 1916 0cb8 02       		.uleb128 0x2
 1917 0cb9 85040000 		.4byte	.LASF154
 1918 0cbd 13       		.byte	0x13
 1919 0cbe 61       		.byte	0x61
 1920 0cbf 14       		.byte	0x14
 1921 0cc0 150C0000 		.4byte	0xc15
 1922 0cc4 02       		.uleb128 0x2
 1923 0cc5 E8040000 		.4byte	.LASF155
 1924 0cc9 13       		.byte	0x13
 1925 0cca 6D       		.byte	0x6d
 1926 0ccb 14       		.byte	0x14
 1927 0ccc 150C0000 		.4byte	0xc15
 1928 0cd0 29       		.uleb128 0x29
 1929 0cd1 07       		.byte	0x7
 1930 0cd2 01       		.byte	0x1
 1931 0cd3 66000000 		.4byte	0x66
 1932 0cd7 14       		.byte	0x14
 1933 0cd8 58       		.byte	0x58
 1934 0cd9 0E       		.byte	0xe
 1935 0cda F10C0000 		.4byte	0xcf1
 1936 0cde 17       		.uleb128 0x17
 1937 0cdf A5060000 		.4byte	.LASF156
 1938 0ce3 00       		.byte	0
 1939 0ce4 17       		.uleb128 0x17
 1940 0ce5 C0050000 		.4byte	.LASF157
 1941 0ce9 01       		.byte	0x1
 1942 0cea 17       		.uleb128 0x17
 1943 0ceb AD070000 		.4byte	.LASF158
 1944 0cef 02       		.byte	0x2
 1945 0cf0 00       		.byte	0
 1946 0cf1 02       		.uleb128 0x2
 1947 0cf2 E7070000 		.4byte	.LASF159
 1948 0cf6 14       		.byte	0x14
 1949 0cf7 5C       		.byte	0x5c
 1950 0cf8 03       		.byte	0x3
 1951 0cf9 D00C0000 		.4byte	0xcd0
 1952 0cfd 02       		.uleb128 0x2
 1953 0cfe DC060000 		.4byte	.LASF160
 1954 0d02 14       		.byte	0x14
 1955 0d03 61       		.byte	0x61
 1956 0d04 22       		.byte	0x22
 1957 0d05 090D0000 		.4byte	0xd09
 1958 0d09 07       		.uleb128 0x7
 1959 0d0a 9D010000 		.4byte	.LASF161
 1960 0d0e 60       		.byte	0x60
 1961 0d0f 14       		.byte	0x14
 1962 0d10 7B       		.byte	0x7b
 1963 0d11 08       		.byte	0x8
 1964 0d12 7F0D0000 		.4byte	0xd7f
 1965 0d16 08       		.uleb128 0x8
 1966 0d17 766D7400 		.ascii	"vmt\000"
 1967 0d1b 14       		.byte	0x14
 1968 0d1c 7D       		.byte	0x7d
 1969 0d1d 21       		.byte	0x21
 1970 0d1e 790E0000 		.4byte	0xe79
 1971 0d22 00       		.byte	0
 1972 0d23 01       		.uleb128 0x1
ARM GAS  C:\Users\DEVELO~1\AppData\Local\Temp\ccv7u97u.s 			page 36


 1973 0d24 B8030000 		.4byte	.LASF162
 1974 0d28 14       		.byte	0x14
 1975 0d29 7E       		.byte	0x7e
 1976 0d2a 03       		.byte	0x3
 1977 0d2b 780A0000 		.4byte	0xa78
 1978 0d2f 04       		.byte	0x4
 1979 0d30 01       		.uleb128 0x1
 1980 0d31 8E010000 		.4byte	.LASF37
 1981 0d35 14       		.byte	0x14
 1982 0d36 7E       		.byte	0x7e
 1983 0d37 03       		.byte	0x3
 1984 0d38 F10C0000 		.4byte	0xcf1
 1985 0d3c 08       		.byte	0x8
 1986 0d3d 01       		.uleb128 0x1
 1987 0d3e 7A030000 		.4byte	.LASF163
 1988 0d42 14       		.byte	0x14
 1989 0d43 7E       		.byte	0x7e
 1990 0d44 03       		.byte	0x3
 1991 0d45 B80C0000 		.4byte	0xcb8
 1992 0d49 0C       		.byte	0xc
 1993 0d4a 01       		.uleb128 0x1
 1994 0d4b 52060000 		.4byte	.LASF164
 1995 0d4f 14       		.byte	0x14
 1996 0d50 7E       		.byte	0x7e
 1997 0d51 03       		.byte	0x3
 1998 0d52 C40C0000 		.4byte	0xcc4
 1999 0d56 30       		.byte	0x30
 2000 0d57 01       		.uleb128 0x1
 2001 0d58 31030000 		.4byte	.LASF165
 2002 0d5c 14       		.byte	0x14
 2003 0d5d 7E       		.byte	0x7e
 2004 0d5e 03       		.byte	0x3
 2005 0d5f 7E0E0000 		.4byte	0xe7e
 2006 0d63 54       		.byte	0x54
 2007 0d64 01       		.uleb128 0x1
 2008 0d65 51080000 		.4byte	.LASF166
 2009 0d69 14       		.byte	0x14
 2010 0d6a 7E       		.byte	0x7e
 2011 0d6b 03       		.byte	0x3
 2012 0d6c E9000000 		.4byte	0xe9
 2013 0d70 58       		.byte	0x58
 2014 0d71 01       		.uleb128 0x1
 2015 0d72 9E000000 		.4byte	.LASF167
 2016 0d76 14       		.byte	0x14
 2017 0d77 7E       		.byte	0x7e
 2018 0d78 03       		.byte	0x3
 2019 0d79 C0000000 		.4byte	0xc0
 2020 0d7d 5C       		.byte	0x5c
 2021 0d7e 00       		.byte	0
 2022 0d7f 11       		.uleb128 0x11
 2023 0d80 36010000 		.4byte	.LASF168
 2024 0d84 10       		.byte	0x10
 2025 0d85 15       		.byte	0x15
 2026 0d86 6002     		.2byte	0x260
 2027 0d88 10       		.byte	0x10
 2028 0d89 C60D0000 		.4byte	0xdc6
 2029 0d8d 05       		.uleb128 0x5
ARM GAS  C:\Users\DEVELO~1\AppData\Local\Temp\ccv7u97u.s 			page 37


 2030 0d8e 3B040000 		.4byte	.LASF169
 2031 0d92 15       		.byte	0x15
 2032 0d93 6402     		.2byte	0x264
 2033 0d95 1D       		.byte	0x1d
 2034 0d96 E9000000 		.4byte	0xe9
 2035 0d9a 00       		.byte	0
 2036 0d9b 06       		.uleb128 0x6
 2037 0d9c 63723100 		.ascii	"cr1\000"
 2038 0da0 15       		.byte	0x15
 2039 0da1 6902     		.2byte	0x269
 2040 0da3 1D       		.byte	0x1d
 2041 0da4 E9000000 		.4byte	0xe9
 2042 0da8 04       		.byte	0x4
 2043 0da9 06       		.uleb128 0x6
 2044 0daa 63723200 		.ascii	"cr2\000"
 2045 0dae 15       		.byte	0x15
 2046 0daf 6D02     		.2byte	0x26d
 2047 0db1 1D       		.byte	0x1d
 2048 0db2 E9000000 		.4byte	0xe9
 2049 0db6 08       		.byte	0x8
 2050 0db7 06       		.uleb128 0x6
 2051 0db8 63723300 		.ascii	"cr3\000"
 2052 0dbc 15       		.byte	0x15
 2053 0dbd 7102     		.2byte	0x271
 2054 0dbf 1D       		.byte	0x1d
 2055 0dc0 E9000000 		.4byte	0xe9
 2056 0dc4 0C       		.byte	0xc
 2057 0dc5 00       		.byte	0
 2058 0dc6 13       		.uleb128 0x13
 2059 0dc7 7D050000 		.4byte	.LASF170
 2060 0dcb 15       		.byte	0x15
 2061 0dcc 7202     		.2byte	0x272
 2062 0dce 7F0D0000 		.4byte	0xd7f
 2063 0dd2 0F       		.uleb128 0xf
 2064 0dd3 C60D0000 		.4byte	0xdc6
 2065 0dd7 2A       		.uleb128 0x2a
 2066 0dd8 53443100 		.ascii	"SD1\000"
 2067 0ddc 15       		.byte	0x15
 2068 0ddd 9002     		.2byte	0x290
 2069 0ddf 15       		.byte	0x15
 2070 0de0 FD0C0000 		.4byte	0xcfd
 2071 0de4 07       		.uleb128 0x7
 2072 0de5 54030000 		.4byte	.LASF171
 2073 0de9 28       		.byte	0x28
 2074 0dea 14       		.byte	0x14
 2075 0deb 70       		.byte	0x70
 2076 0dec 08       		.byte	0x8
 2077 0ded 740E0000 		.4byte	0xe74
 2078 0df1 01       		.uleb128 0x1
 2079 0df2 57080000 		.4byte	.LASF139
 2080 0df6 14       		.byte	0x14
 2081 0df7 71       		.byte	0x71
 2082 0df8 03       		.byte	0x3
 2083 0df9 2D000000 		.4byte	0x2d
 2084 0dfd 00       		.byte	0
 2085 0dfe 01       		.uleb128 0x1
 2086 0dff 25000000 		.4byte	.LASF140
ARM GAS  C:\Users\DEVELO~1\AppData\Local\Temp\ccv7u97u.s 			page 38


 2087 0e03 14       		.byte	0x14
 2088 0e04 71       		.byte	0x71
 2089 0e05 03       		.byte	0x3
 2090 0e06 020B0000 		.4byte	0xb02
 2091 0e0a 04       		.byte	0x4
 2092 0e0b 01       		.uleb128 0x1
 2093 0e0c 3F080000 		.4byte	.LASF141
 2094 0e10 14       		.byte	0x14
 2095 0e11 71       		.byte	0x71
 2096 0e12 03       		.byte	0x3
 2097 0e13 200B0000 		.4byte	0xb20
 2098 0e17 08       		.byte	0x8
 2099 0e18 08       		.uleb128 0x8
 2100 0e19 70757400 		.ascii	"put\000"
 2101 0e1d 14       		.byte	0x14
 2102 0e1e 71       		.byte	0x71
 2103 0e1f 03       		.byte	0x3
 2104 0e20 390B0000 		.4byte	0xb39
 2105 0e24 0C       		.byte	0xc
 2106 0e25 08       		.uleb128 0x8
 2107 0e26 67657400 		.ascii	"get\000"
 2108 0e2a 14       		.byte	0x14
 2109 0e2b 71       		.byte	0x71
 2110 0e2c 03       		.byte	0x3
 2111 0e2d 4D0B0000 		.4byte	0xb4d
 2112 0e31 10       		.byte	0x10
 2113 0e32 01       		.uleb128 0x1
 2114 0e33 93040000 		.4byte	.LASF172
 2115 0e37 14       		.byte	0x14
 2116 0e38 71       		.byte	0x71
 2117 0e39 03       		.byte	0x3
 2118 0e3a 930B0000 		.4byte	0xb93
 2119 0e3e 14       		.byte	0x14
 2120 0e3f 01       		.uleb128 0x1
 2121 0e40 A2030000 		.4byte	.LASF173
 2122 0e44 14       		.byte	0x14
 2123 0e45 71       		.byte	0x71
 2124 0e46 03       		.byte	0x3
 2125 0e47 AC0B0000 		.4byte	0xbac
 2126 0e4b 18       		.byte	0x18
 2127 0e4c 01       		.uleb128 0x1
 2128 0e4d 0A040000 		.4byte	.LASF174
 2129 0e51 14       		.byte	0x14
 2130 0e52 71       		.byte	0x71
 2131 0e53 03       		.byte	0x3
 2132 0e54 CF0B0000 		.4byte	0xbcf
 2133 0e58 1C       		.byte	0x1c
 2134 0e59 01       		.uleb128 0x1
 2135 0e5a 07010000 		.4byte	.LASF175
 2136 0e5e 14       		.byte	0x14
 2137 0e5f 71       		.byte	0x71
 2138 0e60 03       		.byte	0x3
 2139 0e61 F20B0000 		.4byte	0xbf2
 2140 0e65 20       		.byte	0x20
 2141 0e66 08       		.uleb128 0x8
 2142 0e67 63746C00 		.ascii	"ctl\000"
 2143 0e6b 14       		.byte	0x14
ARM GAS  C:\Users\DEVELO~1\AppData\Local\Temp\ccv7u97u.s 			page 39


 2144 0e6c 71       		.byte	0x71
 2145 0e6d 03       		.byte	0x3
 2146 0e6e 100C0000 		.4byte	0xc10
 2147 0e72 24       		.byte	0x24
 2148 0e73 00       		.byte	0
 2149 0e74 0F       		.uleb128 0xf
 2150 0e75 E40D0000 		.4byte	0xde4
 2151 0e79 03       		.uleb128 0x3
 2152 0e7a 740E0000 		.4byte	0xe74
 2153 0e7e 03       		.uleb128 0x3
 2154 0e7f F0060000 		.4byte	0x6f0
 2155 0e83 1C       		.uleb128 0x1c
 2156 0e84 DB020000 		.4byte	.LASF184
 2157 0e88 07       		.byte	0x7
 2158 0e89 1B       		.byte	0x1b
 2159 0e8a D20D0000 		.4byte	0xdd2
 2160 0e8e 05       		.uleb128 0x5
 2161 0e8f 03       		.byte	0x3
 2162 0e90 00000000 		.4byte	uart_cfg
 2163 0e94 2B       		.uleb128 0x2b
 2164 0e95 72050000 		.4byte	.LASF176
 2165 0e99 16       		.byte	0x16
 2166 0e9a 4201     		.2byte	0x142
 2167 0e9c 08       		.byte	0x8
 2168 0e9d A70E0000 		.4byte	0xea7
 2169 0ea1 04       		.uleb128 0x4
 2170 0ea2 94030000 		.4byte	0x394
 2171 0ea6 00       		.byte	0
 2172 0ea7 1D       		.uleb128 0x1d
 2173 0ea8 0B050000 		.4byte	.LASF178
 2174 0eac 17       		.byte	0x17
 2175 0ead 16       		.byte	0x16
 2176 0eae 0A       		.byte	0xa
 2177 0eaf E9000000 		.4byte	0xe9
 2178 0eb3 BD0E0000 		.4byte	0xebd
 2179 0eb7 04       		.uleb128 0x4
 2180 0eb8 E9000000 		.4byte	0xe9
 2181 0ebc 00       		.byte	0
 2182 0ebd 2C       		.uleb128 0x2c
 2183 0ebe 09060000 		.4byte	.LASF177
 2184 0ec2 17       		.byte	0x17
 2185 0ec3 15       		.byte	0x15
 2186 0ec4 0A       		.byte	0xa
 2187 0ec5 D40E0000 		.4byte	0xed4
 2188 0ec9 04       		.uleb128 0x4
 2189 0eca E9000000 		.4byte	0xe9
 2190 0ece 04       		.uleb128 0x4
 2191 0ecf E9000000 		.4byte	0xe9
 2192 0ed3 00       		.byte	0
 2193 0ed4 2D       		.uleb128 0x2d
 2194 0ed5 95050000 		.4byte	.LASF181
 2195 0ed9 17       		.byte	0x17
 2196 0eda 12       		.byte	0x12
 2197 0edb 06       		.byte	0x6
 2198 0edc 1D       		.uleb128 0x1d
 2199 0edd 9A080000 		.4byte	.LASF179
 2200 0ee1 18       		.byte	0x18
ARM GAS  C:\Users\DEVELO~1\AppData\Local\Temp\ccv7u97u.s 			page 40


 2201 0ee2 2B       		.byte	0x2b
 2202 0ee3 07       		.byte	0x7
 2203 0ee4 26000000 		.4byte	0x26
 2204 0ee8 F80E0000 		.4byte	0xef8
 2205 0eec 04       		.uleb128 0x4
 2206 0eed F80E0000 		.4byte	0xef8
 2207 0ef1 04       		.uleb128 0x4
 2208 0ef2 66030000 		.4byte	0x366
 2209 0ef6 2E       		.uleb128 0x2e
 2210 0ef7 00       		.byte	0
 2211 0ef8 03       		.uleb128 0x3
 2212 0ef9 6E0B0000 		.4byte	0xb6e
 2213 0efd 2F       		.uleb128 0x2f
 2214 0efe 6C080000 		.4byte	.LASF180
 2215 0f02 14       		.byte	0x14
 2216 0f03 8601     		.2byte	0x186
 2217 0f05 09       		.byte	0x9
 2218 0f06 53010000 		.4byte	0x153
 2219 0f0a 190F0000 		.4byte	0xf19
 2220 0f0e 04       		.uleb128 0x4
 2221 0f0f 190F0000 		.4byte	0xf19
 2222 0f13 04       		.uleb128 0x4
 2223 0f14 1E0F0000 		.4byte	0xf1e
 2224 0f18 00       		.byte	0
 2225 0f19 03       		.uleb128 0x3
 2226 0f1a FD0C0000 		.4byte	0xcfd
 2227 0f1e 03       		.uleb128 0x3
 2228 0f1f D20D0000 		.4byte	0xdd2
 2229 0f23 1E       		.uleb128 0x1e
 2230 0f24 48010000 		.4byte	.LASF182
 2231 0f28 19       		.byte	0x19
 2232 0f29 4E01     		.2byte	0x14e
 2233 0f2b 1E       		.uleb128 0x1e
 2234 0f2c 8E030000 		.4byte	.LASF183
 2235 0f30 1A       		.byte	0x1a
 2236 0f31 0101     		.2byte	0x101
 2237 0f33 30       		.uleb128 0x30
 2238 0f34 A3020000 		.4byte	.LASF191
 2239 0f38 01       		.byte	0x1
 2240 0f39 0E       		.byte	0xe
 2241 0f3a 05       		.byte	0x5
 2242 0f3b 26000000 		.4byte	0x26
 2243 0f3f 00000000 		.4byte	.LFB432
 2244 0f43 B8000000 		.4byte	.LFE432-.LFB432
 2245 0f47 01       		.uleb128 0x1
 2246 0f48 9C       		.byte	0x9c
 2247 0f49 31       		.uleb128 0x31
 2248 0f4a 63687000 		.ascii	"chp\000"
 2249 0f4e 01       		.byte	0x1
 2250 0f4f 14       		.byte	0x14
 2251 0f50 19       		.byte	0x19
 2252 0f51 F80E0000 		.4byte	0xef8
 2253 0f55 1C       		.uleb128 0x1c
 2254 0f56 C6000000 		.4byte	.LASF185
 2255 0f5a 1E       		.byte	0x1e
 2256 0f5b 0C       		.byte	0xc
 2257 0f5c 2D060000 		.4byte	0x62d
ARM GAS  C:\Users\DEVELO~1\AppData\Local\Temp\ccv7u97u.s 			page 41


 2258 0f60 02       		.uleb128 0x2
 2259 0f61 91       		.byte	0x91
 2260 0f62 4C       		.sleb128 -52
 2261 0f63 1F       		.uleb128 0x1f
 2262 0f64 0C000000 		.4byte	.LLRL0
 2263 0f68 2B100000 		.4byte	0x102b
 2264 0f6c 20       		.uleb128 0x20
 2265 0f6d 69647800 		.ascii	"idx\000"
 2266 0f71 27       		.byte	0x27
 2267 0f72 11       		.byte	0x11
 2268 0f73 E9000000 		.4byte	0xe9
 2269 0f77 10000000 		.4byte	.LLST1
 2270 0f7b 0C000000 		.4byte	.LVUS1
 2271 0f7f 1F       		.uleb128 0x1f
 2272 0f80 1E000000 		.4byte	.LLRL2
 2273 0f84 0E100000 		.4byte	0x100e
 2274 0f88 20       		.uleb128 0x20
 2275 0f89 7600     		.ascii	"v\000"
 2276 0f8b 2B       		.byte	0x2b
 2277 0f8c 13       		.byte	0x13
 2278 0f8d E9000000 		.4byte	0xe9
 2279 0f91 23000000 		.4byte	.LLST3
 2280 0f95 21000000 		.4byte	.LVUS3
 2281 0f99 32       		.uleb128 0x32
 2282 0f9a 2A000000 		.4byte	.LLRL4
 2283 0f9e 21       		.uleb128 0x21
 2284 0f9f AE020000 		.4byte	.LASF186
 2285 0fa3 2D       		.byte	0x2d
 2286 0fa4 E9000000 		.4byte	0xe9
 2287 0fa8 2F000000 		.4byte	.LLST5
 2288 0fac 2D000000 		.4byte	.LVUS5
 2289 0fb0 21       		.uleb128 0x21
 2290 0fb1 25050000 		.4byte	.LASF187
 2291 0fb5 2E       		.byte	0x2e
 2292 0fb6 E9000000 		.4byte	0xe9
 2293 0fba 3E000000 		.4byte	.LLST6
 2294 0fbe 38000000 		.4byte	.LVUS6
 2295 0fc2 0E       		.uleb128 0xe
 2296 0fc3 66000000 		.4byte	.LVL10
 2297 0fc7 BD0E0000 		.4byte	0xebd
 2298 0fcb DC0F0000 		.4byte	0xfdc
 2299 0fcf 09       		.uleb128 0x9
 2300 0fd0 01       		.uleb128 0x1
 2301 0fd1 50       		.byte	0x50
 2302 0fd2 02       		.uleb128 0x2
 2303 0fd3 76       		.byte	0x76
 2304 0fd4 00       		.sleb128 0
 2305 0fd5 09       		.uleb128 0x9
 2306 0fd6 01       		.uleb128 0x1
 2307 0fd7 51       		.byte	0x51
 2308 0fd8 02       		.uleb128 0x2
 2309 0fd9 75       		.byte	0x75
 2310 0fda 00       		.sleb128 0
 2311 0fdb 00       		.byte	0
 2312 0fdc 0E       		.uleb128 0xe
 2313 0fdd 6C000000 		.4byte	.LVL11
 2314 0fe1 A70E0000 		.4byte	0xea7
ARM GAS  C:\Users\DEVELO~1\AppData\Local\Temp\ccv7u97u.s 			page 42


 2315 0fe5 F00F0000 		.4byte	0xff0
 2316 0fe9 09       		.uleb128 0x9
 2317 0fea 01       		.uleb128 0x1
 2318 0feb 50       		.byte	0x50
 2319 0fec 02       		.uleb128 0x2
 2320 0fed 76       		.byte	0x76
 2321 0fee 00       		.sleb128 0
 2322 0fef 00       		.byte	0
 2323 0ff0 18       		.uleb128 0x18
 2324 0ff1 78000000 		.4byte	.LVL14
 2325 0ff5 DC0E0000 		.4byte	0xedc
 2326 0ff9 09       		.uleb128 0x9
 2327 0ffa 01       		.uleb128 0x1
 2328 0ffb 50       		.byte	0x50
 2329 0ffc 02       		.uleb128 0x2
 2330 0ffd 77       		.byte	0x77
 2331 0ffe 00       		.sleb128 0
 2332 0fff 09       		.uleb128 0x9
 2333 1000 01       		.uleb128 0x1
 2334 1001 51       		.byte	0x51
 2335 1002 02       		.uleb128 0x2
 2336 1003 79       		.byte	0x79
 2337 1004 00       		.sleb128 0
 2338 1005 09       		.uleb128 0x9
 2339 1006 01       		.uleb128 0x1
 2340 1007 52       		.byte	0x52
 2341 1008 02       		.uleb128 0x2
 2342 1009 75       		.byte	0x75
 2343 100a 00       		.sleb128 0
 2344 100b 00       		.byte	0
 2345 100c 00       		.byte	0
 2346 100d 00       		.byte	0
 2347 100e 18       		.uleb128 0x18
 2348 100f 5A000000 		.4byte	.LVL8
 2349 1013 DC0E0000 		.4byte	0xedc
 2350 1017 09       		.uleb128 0x9
 2351 1018 01       		.uleb128 0x1
 2352 1019 50       		.byte	0x50
 2353 101a 02       		.uleb128 0x2
 2354 101b 77       		.byte	0x77
 2355 101c 00       		.sleb128 0
 2356 101d 09       		.uleb128 0x9
 2357 101e 01       		.uleb128 0x1
 2358 101f 51       		.byte	0x51
 2359 1020 02       		.uleb128 0x2
 2360 1021 7A       		.byte	0x7a
 2361 1022 00       		.sleb128 0
 2362 1023 09       		.uleb128 0x9
 2363 1024 01       		.uleb128 0x1
 2364 1025 52       		.byte	0x52
 2365 1026 02       		.uleb128 0x2
 2366 1027 76       		.byte	0x76
 2367 1028 00       		.sleb128 0
 2368 1029 00       		.byte	0
 2369 102a 00       		.byte	0
 2370 102b 19       		.uleb128 0x19
 2371 102c 0C000000 		.4byte	.LVL0
ARM GAS  C:\Users\DEVELO~1\AppData\Local\Temp\ccv7u97u.s 			page 43


 2372 1030 2B0F0000 		.4byte	0xf2b
 2373 1034 19       		.uleb128 0x19
 2374 1035 12000000 		.4byte	.LVL1
 2375 1039 230F0000 		.4byte	0xf23
 2376 103d 0E       		.uleb128 0xe
 2377 103e 1C000000 		.4byte	.LVL2
 2378 1042 FD0E0000 		.4byte	0xefd
 2379 1046 54100000 		.4byte	0x1054
 2380 104a 09       		.uleb128 0x9
 2381 104b 01       		.uleb128 0x1
 2382 104c 51       		.byte	0x51
 2383 104d 05       		.uleb128 0x5
 2384 104e 03       		.byte	0x3
 2385 104f 00000000 		.4byte	.LANCHOR0
 2386 1053 00       		.byte	0
 2387 1054 0E       		.uleb128 0xe
 2388 1055 24000000 		.4byte	.LVL3
 2389 1059 DC0E0000 		.4byte	0xedc
 2390 105d 6B100000 		.4byte	0x106b
 2391 1061 09       		.uleb128 0x9
 2392 1062 01       		.uleb128 0x1
 2393 1063 51       		.byte	0x51
 2394 1064 05       		.uleb128 0x5
 2395 1065 03       		.byte	0x3
 2396 1066 00000000 		.4byte	.LC1
 2397 106a 00       		.byte	0
 2398 106b 0E       		.uleb128 0xe
 2399 106c 2C000000 		.4byte	.LVL4
 2400 1070 DC0E0000 		.4byte	0xedc
 2401 1074 82100000 		.4byte	0x1082
 2402 1078 09       		.uleb128 0x9
 2403 1079 01       		.uleb128 0x1
 2404 107a 51       		.byte	0x51
 2405 107b 05       		.uleb128 0x5
 2406 107c 03       		.byte	0x3
 2407 107d 28000000 		.4byte	.LC2
 2408 1081 00       		.byte	0
 2409 1082 19       		.uleb128 0x19
 2410 1083 34000000 		.4byte	.LVL5
 2411 1087 D40E0000 		.4byte	0xed4
 2412 108b 0E       		.uleb128 0xe
 2413 108c 3C000000 		.4byte	.LVL6
 2414 1090 DC0E0000 		.4byte	0xedc
 2415 1094 A2100000 		.4byte	0x10a2
 2416 1098 09       		.uleb128 0x9
 2417 1099 01       		.uleb128 0x1
 2418 109a 51       		.byte	0x51
 2419 109b 05       		.uleb128 0x5
 2420 109c 03       		.byte	0x3
 2421 109d 38000000 		.4byte	.LC3
 2422 10a1 00       		.byte	0
 2423 10a2 0E       		.uleb128 0xe
 2424 10a3 8A000000 		.4byte	.LVL16
 2425 10a7 DC0E0000 		.4byte	0xedc
 2426 10ab BF100000 		.4byte	0x10bf
 2427 10af 09       		.uleb128 0x9
 2428 10b0 01       		.uleb128 0x1
ARM GAS  C:\Users\DEVELO~1\AppData\Local\Temp\ccv7u97u.s 			page 44


 2429 10b1 50       		.byte	0x50
 2430 10b2 02       		.uleb128 0x2
 2431 10b3 77       		.byte	0x77
 2432 10b4 00       		.sleb128 0
 2433 10b5 09       		.uleb128 0x9
 2434 10b6 01       		.uleb128 0x1
 2435 10b7 51       		.byte	0x51
 2436 10b8 05       		.uleb128 0x5
 2437 10b9 03       		.byte	0x3
 2438 10ba 7C000000 		.4byte	.LC6
 2439 10be 00       		.byte	0
 2440 10bf 18       		.uleb128 0x18
 2441 10c0 92000000 		.4byte	.LVL17
 2442 10c4 940E0000 		.4byte	0xe94
 2443 10c8 09       		.uleb128 0x9
 2444 10c9 01       		.uleb128 0x1
 2445 10ca 50       		.byte	0x50
 2446 10cb 03       		.uleb128 0x3
 2447 10cc 0A       		.byte	0xa
 2448 10cd 1027     		.2byte	0x2710
 2449 10cf 00       		.byte	0
 2450 10d0 00       		.byte	0
 2451 10d1 00       		.byte	0
 2452              		.section	.debug_abbrev,"",%progbits
 2453              	.Ldebug_abbrev0:
 2454 0000 01       		.uleb128 0x1
 2455 0001 0D       		.uleb128 0xd
 2456 0002 00       		.byte	0
 2457 0003 03       		.uleb128 0x3
 2458 0004 0E       		.uleb128 0xe
 2459 0005 3A       		.uleb128 0x3a
 2460 0006 0B       		.uleb128 0xb
 2461 0007 3B       		.uleb128 0x3b
 2462 0008 0B       		.uleb128 0xb
 2463 0009 39       		.uleb128 0x39
 2464 000a 0B       		.uleb128 0xb
 2465 000b 49       		.uleb128 0x49
 2466 000c 13       		.uleb128 0x13
 2467 000d 38       		.uleb128 0x38
 2468 000e 0B       		.uleb128 0xb
 2469 000f 00       		.byte	0
 2470 0010 00       		.byte	0
 2471 0011 02       		.uleb128 0x2
 2472 0012 16       		.uleb128 0x16
 2473 0013 00       		.byte	0
 2474 0014 03       		.uleb128 0x3
 2475 0015 0E       		.uleb128 0xe
 2476 0016 3A       		.uleb128 0x3a
 2477 0017 0B       		.uleb128 0xb
 2478 0018 3B       		.uleb128 0x3b
 2479 0019 0B       		.uleb128 0xb
 2480 001a 39       		.uleb128 0x39
 2481 001b 0B       		.uleb128 0xb
 2482 001c 49       		.uleb128 0x49
 2483 001d 13       		.uleb128 0x13
 2484 001e 00       		.byte	0
 2485 001f 00       		.byte	0
ARM GAS  C:\Users\DEVELO~1\AppData\Local\Temp\ccv7u97u.s 			page 45


 2486 0020 03       		.uleb128 0x3
 2487 0021 0F       		.uleb128 0xf
 2488 0022 00       		.byte	0
 2489 0023 0B       		.uleb128 0xb
 2490 0024 21       		.uleb128 0x21
 2491 0025 04       		.sleb128 4
 2492 0026 49       		.uleb128 0x49
 2493 0027 13       		.uleb128 0x13
 2494 0028 00       		.byte	0
 2495 0029 00       		.byte	0
 2496 002a 04       		.uleb128 0x4
 2497 002b 05       		.uleb128 0x5
 2498 002c 00       		.byte	0
 2499 002d 49       		.uleb128 0x49
 2500 002e 13       		.uleb128 0x13
 2501 002f 00       		.byte	0
 2502 0030 00       		.byte	0
 2503 0031 05       		.uleb128 0x5
 2504 0032 0D       		.uleb128 0xd
 2505 0033 00       		.byte	0
 2506 0034 03       		.uleb128 0x3
 2507 0035 0E       		.uleb128 0xe
 2508 0036 3A       		.uleb128 0x3a
 2509 0037 0B       		.uleb128 0xb
 2510 0038 3B       		.uleb128 0x3b
 2511 0039 05       		.uleb128 0x5
 2512 003a 39       		.uleb128 0x39
 2513 003b 0B       		.uleb128 0xb
 2514 003c 49       		.uleb128 0x49
 2515 003d 13       		.uleb128 0x13
 2516 003e 38       		.uleb128 0x38
 2517 003f 0B       		.uleb128 0xb
 2518 0040 00       		.byte	0
 2519 0041 00       		.byte	0
 2520 0042 06       		.uleb128 0x6
 2521 0043 0D       		.uleb128 0xd
 2522 0044 00       		.byte	0
 2523 0045 03       		.uleb128 0x3
 2524 0046 08       		.uleb128 0x8
 2525 0047 3A       		.uleb128 0x3a
 2526 0048 0B       		.uleb128 0xb
 2527 0049 3B       		.uleb128 0x3b
 2528 004a 05       		.uleb128 0x5
 2529 004b 39       		.uleb128 0x39
 2530 004c 0B       		.uleb128 0xb
 2531 004d 49       		.uleb128 0x49
 2532 004e 13       		.uleb128 0x13
 2533 004f 38       		.uleb128 0x38
 2534 0050 0B       		.uleb128 0xb
 2535 0051 00       		.byte	0
 2536 0052 00       		.byte	0
 2537 0053 07       		.uleb128 0x7
 2538 0054 13       		.uleb128 0x13
 2539 0055 01       		.byte	0x1
 2540 0056 03       		.uleb128 0x3
 2541 0057 0E       		.uleb128 0xe
 2542 0058 0B       		.uleb128 0xb
ARM GAS  C:\Users\DEVELO~1\AppData\Local\Temp\ccv7u97u.s 			page 46


 2543 0059 0B       		.uleb128 0xb
 2544 005a 3A       		.uleb128 0x3a
 2545 005b 0B       		.uleb128 0xb
 2546 005c 3B       		.uleb128 0x3b
 2547 005d 0B       		.uleb128 0xb
 2548 005e 39       		.uleb128 0x39
 2549 005f 0B       		.uleb128 0xb
 2550 0060 01       		.uleb128 0x1
 2551 0061 13       		.uleb128 0x13
 2552 0062 00       		.byte	0
 2553 0063 00       		.byte	0
 2554 0064 08       		.uleb128 0x8
 2555 0065 0D       		.uleb128 0xd
 2556 0066 00       		.byte	0
 2557 0067 03       		.uleb128 0x3
 2558 0068 08       		.uleb128 0x8
 2559 0069 3A       		.uleb128 0x3a
 2560 006a 0B       		.uleb128 0xb
 2561 006b 3B       		.uleb128 0x3b
 2562 006c 0B       		.uleb128 0xb
 2563 006d 39       		.uleb128 0x39
 2564 006e 0B       		.uleb128 0xb
 2565 006f 49       		.uleb128 0x49
 2566 0070 13       		.uleb128 0x13
 2567 0071 38       		.uleb128 0x38
 2568 0072 0B       		.uleb128 0xb
 2569 0073 00       		.byte	0
 2570 0074 00       		.byte	0
 2571 0075 09       		.uleb128 0x9
 2572 0076 49       		.uleb128 0x49
 2573 0077 00       		.byte	0
 2574 0078 02       		.uleb128 0x2
 2575 0079 18       		.uleb128 0x18
 2576 007a 7E       		.uleb128 0x7e
 2577 007b 18       		.uleb128 0x18
 2578 007c 00       		.byte	0
 2579 007d 00       		.byte	0
 2580 007e 0A       		.uleb128 0xa
 2581 007f 24       		.uleb128 0x24
 2582 0080 00       		.byte	0
 2583 0081 0B       		.uleb128 0xb
 2584 0082 0B       		.uleb128 0xb
 2585 0083 3E       		.uleb128 0x3e
 2586 0084 0B       		.uleb128 0xb
 2587 0085 03       		.uleb128 0x3
 2588 0086 0E       		.uleb128 0xe
 2589 0087 00       		.byte	0
 2590 0088 00       		.byte	0
 2591 0089 0B       		.uleb128 0xb
 2592 008a 15       		.uleb128 0x15
 2593 008b 01       		.byte	0x1
 2594 008c 27       		.uleb128 0x27
 2595 008d 19       		.uleb128 0x19
 2596 008e 49       		.uleb128 0x49
 2597 008f 13       		.uleb128 0x13
 2598 0090 01       		.uleb128 0x1
 2599 0091 13       		.uleb128 0x13
ARM GAS  C:\Users\DEVELO~1\AppData\Local\Temp\ccv7u97u.s 			page 47


 2600 0092 00       		.byte	0
 2601 0093 00       		.byte	0
 2602 0094 0C       		.uleb128 0xc
 2603 0095 13       		.uleb128 0x13
 2604 0096 01       		.byte	0x1
 2605 0097 0B       		.uleb128 0xb
 2606 0098 0B       		.uleb128 0xb
 2607 0099 3A       		.uleb128 0x3a
 2608 009a 0B       		.uleb128 0xb
 2609 009b 3B       		.uleb128 0x3b
 2610 009c 0B       		.uleb128 0xb
 2611 009d 39       		.uleb128 0x39
 2612 009e 0B       		.uleb128 0xb
 2613 009f 01       		.uleb128 0x1
 2614 00a0 13       		.uleb128 0x13
 2615 00a1 00       		.byte	0
 2616 00a2 00       		.byte	0
 2617 00a3 0D       		.uleb128 0xd
 2618 00a4 0D       		.uleb128 0xd
 2619 00a5 00       		.byte	0
 2620 00a6 03       		.uleb128 0x3
 2621 00a7 0E       		.uleb128 0xe
 2622 00a8 3A       		.uleb128 0x3a
 2623 00a9 0B       		.uleb128 0xb
 2624 00aa 3B       		.uleb128 0x3b
 2625 00ab 0B       		.uleb128 0xb
 2626 00ac 39       		.uleb128 0x39
 2627 00ad 0B       		.uleb128 0xb
 2628 00ae 49       		.uleb128 0x49
 2629 00af 13       		.uleb128 0x13
 2630 00b0 00       		.byte	0
 2631 00b1 00       		.byte	0
 2632 00b2 0E       		.uleb128 0xe
 2633 00b3 48       		.uleb128 0x48
 2634 00b4 01       		.byte	0x1
 2635 00b5 7D       		.uleb128 0x7d
 2636 00b6 01       		.uleb128 0x1
 2637 00b7 7F       		.uleb128 0x7f
 2638 00b8 13       		.uleb128 0x13
 2639 00b9 01       		.uleb128 0x1
 2640 00ba 13       		.uleb128 0x13
 2641 00bb 00       		.byte	0
 2642 00bc 00       		.byte	0
 2643 00bd 0F       		.uleb128 0xf
 2644 00be 26       		.uleb128 0x26
 2645 00bf 00       		.byte	0
 2646 00c0 49       		.uleb128 0x49
 2647 00c1 13       		.uleb128 0x13
 2648 00c2 00       		.byte	0
 2649 00c3 00       		.byte	0
 2650 00c4 10       		.uleb128 0x10
 2651 00c5 0D       		.uleb128 0xd
 2652 00c6 00       		.byte	0
 2653 00c7 03       		.uleb128 0x3
 2654 00c8 0E       		.uleb128 0xe
 2655 00c9 3A       		.uleb128 0x3a
 2656 00ca 21       		.uleb128 0x21
ARM GAS  C:\Users\DEVELO~1\AppData\Local\Temp\ccv7u97u.s 			page 48


 2657 00cb 07       		.sleb128 7
 2658 00cc 3B       		.uleb128 0x3b
 2659 00cd 05       		.uleb128 0x5
 2660 00ce 39       		.uleb128 0x39
 2661 00cf 0B       		.uleb128 0xb
 2662 00d0 49       		.uleb128 0x49
 2663 00d1 13       		.uleb128 0x13
 2664 00d2 00       		.byte	0
 2665 00d3 00       		.byte	0
 2666 00d4 11       		.uleb128 0x11
 2667 00d5 13       		.uleb128 0x13
 2668 00d6 01       		.byte	0x1
 2669 00d7 03       		.uleb128 0x3
 2670 00d8 0E       		.uleb128 0xe
 2671 00d9 0B       		.uleb128 0xb
 2672 00da 0B       		.uleb128 0xb
 2673 00db 3A       		.uleb128 0x3a
 2674 00dc 0B       		.uleb128 0xb
 2675 00dd 3B       		.uleb128 0x3b
 2676 00de 05       		.uleb128 0x5
 2677 00df 39       		.uleb128 0x39
 2678 00e0 0B       		.uleb128 0xb
 2679 00e1 01       		.uleb128 0x1
 2680 00e2 13       		.uleb128 0x13
 2681 00e3 00       		.byte	0
 2682 00e4 00       		.byte	0
 2683 00e5 12       		.uleb128 0x12
 2684 00e6 35       		.uleb128 0x35
 2685 00e7 00       		.byte	0
 2686 00e8 49       		.uleb128 0x49
 2687 00e9 13       		.uleb128 0x13
 2688 00ea 00       		.byte	0
 2689 00eb 00       		.byte	0
 2690 00ec 13       		.uleb128 0x13
 2691 00ed 16       		.uleb128 0x16
 2692 00ee 00       		.byte	0
 2693 00ef 03       		.uleb128 0x3
 2694 00f0 0E       		.uleb128 0xe
 2695 00f1 3A       		.uleb128 0x3a
 2696 00f2 0B       		.uleb128 0xb
 2697 00f3 3B       		.uleb128 0x3b
 2698 00f4 05       		.uleb128 0x5
 2699 00f5 39       		.uleb128 0x39
 2700 00f6 21       		.uleb128 0x21
 2701 00f7 03       		.sleb128 3
 2702 00f8 49       		.uleb128 0x49
 2703 00f9 13       		.uleb128 0x13
 2704 00fa 00       		.byte	0
 2705 00fb 00       		.byte	0
 2706 00fc 14       		.uleb128 0x14
 2707 00fd 17       		.uleb128 0x17
 2708 00fe 01       		.byte	0x1
 2709 00ff 0B       		.uleb128 0xb
 2710 0100 0B       		.uleb128 0xb
 2711 0101 3A       		.uleb128 0x3a
 2712 0102 0B       		.uleb128 0xb
 2713 0103 3B       		.uleb128 0x3b
ARM GAS  C:\Users\DEVELO~1\AppData\Local\Temp\ccv7u97u.s 			page 49


 2714 0104 0B       		.uleb128 0xb
 2715 0105 39       		.uleb128 0x39
 2716 0106 21       		.uleb128 0x21
 2717 0107 03       		.sleb128 3
 2718 0108 01       		.uleb128 0x1
 2719 0109 13       		.uleb128 0x13
 2720 010a 00       		.byte	0
 2721 010b 00       		.byte	0
 2722 010c 15       		.uleb128 0x15
 2723 010d 0D       		.uleb128 0xd
 2724 010e 00       		.byte	0
 2725 010f 03       		.uleb128 0x3
 2726 0110 08       		.uleb128 0x8
 2727 0111 3A       		.uleb128 0x3a
 2728 0112 21       		.uleb128 0x21
 2729 0113 0C       		.sleb128 12
 2730 0114 3B       		.uleb128 0x3b
 2731 0115 0B       		.uleb128 0xb
 2732 0116 39       		.uleb128 0x39
 2733 0117 21       		.uleb128 0x21
 2734 0118 07       		.sleb128 7
 2735 0119 49       		.uleb128 0x49
 2736 011a 13       		.uleb128 0x13
 2737 011b 00       		.byte	0
 2738 011c 00       		.byte	0
 2739 011d 16       		.uleb128 0x16
 2740 011e 0D       		.uleb128 0xd
 2741 011f 00       		.byte	0
 2742 0120 03       		.uleb128 0x3
 2743 0121 0E       		.uleb128 0xe
 2744 0122 3A       		.uleb128 0x3a
 2745 0123 21       		.uleb128 0x21
 2746 0124 0C       		.sleb128 12
 2747 0125 3B       		.uleb128 0x3b
 2748 0126 0B       		.uleb128 0xb
 2749 0127 39       		.uleb128 0x39
 2750 0128 21       		.uleb128 0x21
 2751 0129 19       		.sleb128 25
 2752 012a 49       		.uleb128 0x49
 2753 012b 13       		.uleb128 0x13
 2754 012c 0D       		.uleb128 0xd
 2755 012d 0B       		.uleb128 0xb
 2756 012e 6B       		.uleb128 0x6b
 2757 012f 0B       		.uleb128 0xb
 2758 0130 00       		.byte	0
 2759 0131 00       		.byte	0
 2760 0132 17       		.uleb128 0x17
 2761 0133 28       		.uleb128 0x28
 2762 0134 00       		.byte	0
 2763 0135 03       		.uleb128 0x3
 2764 0136 0E       		.uleb128 0xe
 2765 0137 1C       		.uleb128 0x1c
 2766 0138 0B       		.uleb128 0xb
 2767 0139 00       		.byte	0
 2768 013a 00       		.byte	0
 2769 013b 18       		.uleb128 0x18
 2770 013c 48       		.uleb128 0x48
ARM GAS  C:\Users\DEVELO~1\AppData\Local\Temp\ccv7u97u.s 			page 50


 2771 013d 01       		.byte	0x1
 2772 013e 7D       		.uleb128 0x7d
 2773 013f 01       		.uleb128 0x1
 2774 0140 7F       		.uleb128 0x7f
 2775 0141 13       		.uleb128 0x13
 2776 0142 00       		.byte	0
 2777 0143 00       		.byte	0
 2778 0144 19       		.uleb128 0x19
 2779 0145 48       		.uleb128 0x48
 2780 0146 00       		.byte	0
 2781 0147 7D       		.uleb128 0x7d
 2782 0148 01       		.uleb128 0x1
 2783 0149 7F       		.uleb128 0x7f
 2784 014a 13       		.uleb128 0x13
 2785 014b 00       		.byte	0
 2786 014c 00       		.byte	0
 2787 014d 1A       		.uleb128 0x1a
 2788 014e 01       		.uleb128 0x1
 2789 014f 01       		.byte	0x1
 2790 0150 49       		.uleb128 0x49
 2791 0151 13       		.uleb128 0x13
 2792 0152 01       		.uleb128 0x1
 2793 0153 13       		.uleb128 0x13
 2794 0154 00       		.byte	0
 2795 0155 00       		.byte	0
 2796 0156 1B       		.uleb128 0x1b
 2797 0157 21       		.uleb128 0x21
 2798 0158 00       		.byte	0
 2799 0159 49       		.uleb128 0x49
 2800 015a 13       		.uleb128 0x13
 2801 015b 2F       		.uleb128 0x2f
 2802 015c 0B       		.uleb128 0xb
 2803 015d 00       		.byte	0
 2804 015e 00       		.byte	0
 2805 015f 1C       		.uleb128 0x1c
 2806 0160 34       		.uleb128 0x34
 2807 0161 00       		.byte	0
 2808 0162 03       		.uleb128 0x3
 2809 0163 0E       		.uleb128 0xe
 2810 0164 3A       		.uleb128 0x3a
 2811 0165 21       		.uleb128 0x21
 2812 0166 01       		.sleb128 1
 2813 0167 3B       		.uleb128 0x3b
 2814 0168 0B       		.uleb128 0xb
 2815 0169 39       		.uleb128 0x39
 2816 016a 0B       		.uleb128 0xb
 2817 016b 49       		.uleb128 0x49
 2818 016c 13       		.uleb128 0x13
 2819 016d 02       		.uleb128 0x2
 2820 016e 18       		.uleb128 0x18
 2821 016f 00       		.byte	0
 2822 0170 00       		.byte	0
 2823 0171 1D       		.uleb128 0x1d
 2824 0172 2E       		.uleb128 0x2e
 2825 0173 01       		.byte	0x1
 2826 0174 3F       		.uleb128 0x3f
 2827 0175 19       		.uleb128 0x19
ARM GAS  C:\Users\DEVELO~1\AppData\Local\Temp\ccv7u97u.s 			page 51


 2828 0176 03       		.uleb128 0x3
 2829 0177 0E       		.uleb128 0xe
 2830 0178 3A       		.uleb128 0x3a
 2831 0179 0B       		.uleb128 0xb
 2832 017a 3B       		.uleb128 0x3b
 2833 017b 0B       		.uleb128 0xb
 2834 017c 39       		.uleb128 0x39
 2835 017d 0B       		.uleb128 0xb
 2836 017e 27       		.uleb128 0x27
 2837 017f 19       		.uleb128 0x19
 2838 0180 49       		.uleb128 0x49
 2839 0181 13       		.uleb128 0x13
 2840 0182 3C       		.uleb128 0x3c
 2841 0183 19       		.uleb128 0x19
 2842 0184 01       		.uleb128 0x1
 2843 0185 13       		.uleb128 0x13
 2844 0186 00       		.byte	0
 2845 0187 00       		.byte	0
 2846 0188 1E       		.uleb128 0x1e
 2847 0189 2E       		.uleb128 0x2e
 2848 018a 00       		.byte	0
 2849 018b 3F       		.uleb128 0x3f
 2850 018c 19       		.uleb128 0x19
 2851 018d 03       		.uleb128 0x3
 2852 018e 0E       		.uleb128 0xe
 2853 018f 3A       		.uleb128 0x3a
 2854 0190 0B       		.uleb128 0xb
 2855 0191 3B       		.uleb128 0x3b
 2856 0192 05       		.uleb128 0x5
 2857 0193 39       		.uleb128 0x39
 2858 0194 21       		.uleb128 0x21
 2859 0195 08       		.sleb128 8
 2860 0196 27       		.uleb128 0x27
 2861 0197 19       		.uleb128 0x19
 2862 0198 3C       		.uleb128 0x3c
 2863 0199 19       		.uleb128 0x19
 2864 019a 00       		.byte	0
 2865 019b 00       		.byte	0
 2866 019c 1F       		.uleb128 0x1f
 2867 019d 0B       		.uleb128 0xb
 2868 019e 01       		.byte	0x1
 2869 019f 55       		.uleb128 0x55
 2870 01a0 17       		.uleb128 0x17
 2871 01a1 01       		.uleb128 0x1
 2872 01a2 13       		.uleb128 0x13
 2873 01a3 00       		.byte	0
 2874 01a4 00       		.byte	0
 2875 01a5 20       		.uleb128 0x20
 2876 01a6 34       		.uleb128 0x34
 2877 01a7 00       		.byte	0
 2878 01a8 03       		.uleb128 0x3
 2879 01a9 08       		.uleb128 0x8
 2880 01aa 3A       		.uleb128 0x3a
 2881 01ab 21       		.uleb128 0x21
 2882 01ac 01       		.sleb128 1
 2883 01ad 3B       		.uleb128 0x3b
 2884 01ae 0B       		.uleb128 0xb
ARM GAS  C:\Users\DEVELO~1\AppData\Local\Temp\ccv7u97u.s 			page 52


 2885 01af 39       		.uleb128 0x39
 2886 01b0 0B       		.uleb128 0xb
 2887 01b1 49       		.uleb128 0x49
 2888 01b2 13       		.uleb128 0x13
 2889 01b3 02       		.uleb128 0x2
 2890 01b4 17       		.uleb128 0x17
 2891 01b5 B742     		.uleb128 0x2137
 2892 01b7 17       		.uleb128 0x17
 2893 01b8 00       		.byte	0
 2894 01b9 00       		.byte	0
 2895 01ba 21       		.uleb128 0x21
 2896 01bb 34       		.uleb128 0x34
 2897 01bc 00       		.byte	0
 2898 01bd 03       		.uleb128 0x3
 2899 01be 0E       		.uleb128 0xe
 2900 01bf 3A       		.uleb128 0x3a
 2901 01c0 21       		.uleb128 0x21
 2902 01c1 01       		.sleb128 1
 2903 01c2 3B       		.uleb128 0x3b
 2904 01c3 0B       		.uleb128 0xb
 2905 01c4 39       		.uleb128 0x39
 2906 01c5 21       		.uleb128 0x21
 2907 01c6 10       		.sleb128 16
 2908 01c7 49       		.uleb128 0x49
 2909 01c8 13       		.uleb128 0x13
 2910 01c9 02       		.uleb128 0x2
 2911 01ca 17       		.uleb128 0x17
 2912 01cb B742     		.uleb128 0x2137
 2913 01cd 17       		.uleb128 0x17
 2914 01ce 00       		.byte	0
 2915 01cf 00       		.byte	0
 2916 01d0 22       		.uleb128 0x22
 2917 01d1 11       		.uleb128 0x11
 2918 01d2 01       		.byte	0x1
 2919 01d3 25       		.uleb128 0x25
 2920 01d4 0E       		.uleb128 0xe
 2921 01d5 13       		.uleb128 0x13
 2922 01d6 0B       		.uleb128 0xb
 2923 01d7 03       		.uleb128 0x3
 2924 01d8 0E       		.uleb128 0xe
 2925 01d9 1B       		.uleb128 0x1b
 2926 01da 0E       		.uleb128 0xe
 2927 01db 55       		.uleb128 0x55
 2928 01dc 17       		.uleb128 0x17
 2929 01dd 11       		.uleb128 0x11
 2930 01de 01       		.uleb128 0x1
 2931 01df 10       		.uleb128 0x10
 2932 01e0 17       		.uleb128 0x17
 2933 01e1 00       		.byte	0
 2934 01e2 00       		.byte	0
 2935 01e3 23       		.uleb128 0x23
 2936 01e4 24       		.uleb128 0x24
 2937 01e5 00       		.byte	0
 2938 01e6 0B       		.uleb128 0xb
 2939 01e7 0B       		.uleb128 0xb
 2940 01e8 3E       		.uleb128 0x3e
 2941 01e9 0B       		.uleb128 0xb
ARM GAS  C:\Users\DEVELO~1\AppData\Local\Temp\ccv7u97u.s 			page 53


 2942 01ea 03       		.uleb128 0x3
 2943 01eb 08       		.uleb128 0x8
 2944 01ec 00       		.byte	0
 2945 01ed 00       		.byte	0
 2946 01ee 24       		.uleb128 0x24
 2947 01ef 13       		.uleb128 0x13
 2948 01f0 01       		.byte	0x1
 2949 01f1 03       		.uleb128 0x3
 2950 01f2 0E       		.uleb128 0xe
 2951 01f3 0B       		.uleb128 0xb
 2952 01f4 05       		.uleb128 0x5
 2953 01f5 3A       		.uleb128 0x3a
 2954 01f6 0B       		.uleb128 0xb
 2955 01f7 3B       		.uleb128 0x3b
 2956 01f8 05       		.uleb128 0x5
 2957 01f9 39       		.uleb128 0x39
 2958 01fa 0B       		.uleb128 0xb
 2959 01fb 01       		.uleb128 0x1
 2960 01fc 13       		.uleb128 0x13
 2961 01fd 00       		.byte	0
 2962 01fe 00       		.byte	0
 2963 01ff 25       		.uleb128 0x25
 2964 0200 0F       		.uleb128 0xf
 2965 0201 00       		.byte	0
 2966 0202 0B       		.uleb128 0xb
 2967 0203 0B       		.uleb128 0xb
 2968 0204 00       		.byte	0
 2969 0205 00       		.byte	0
 2970 0206 26       		.uleb128 0x26
 2971 0207 13       		.uleb128 0x13
 2972 0208 01       		.byte	0x1
 2973 0209 0B       		.uleb128 0xb
 2974 020a 05       		.uleb128 0x5
 2975 020b 3A       		.uleb128 0x3a
 2976 020c 0B       		.uleb128 0xb
 2977 020d 3B       		.uleb128 0x3b
 2978 020e 0B       		.uleb128 0xb
 2979 020f 39       		.uleb128 0x39
 2980 0210 0B       		.uleb128 0xb
 2981 0211 01       		.uleb128 0x1
 2982 0212 13       		.uleb128 0x13
 2983 0213 00       		.byte	0
 2984 0214 00       		.byte	0
 2985 0215 27       		.uleb128 0x27
 2986 0216 13       		.uleb128 0x13
 2987 0217 01       		.byte	0x1
 2988 0218 0B       		.uleb128 0xb
 2989 0219 0B       		.uleb128 0xb
 2990 021a 3A       		.uleb128 0x3a
 2991 021b 0B       		.uleb128 0xb
 2992 021c 3B       		.uleb128 0x3b
 2993 021d 05       		.uleb128 0x5
 2994 021e 39       		.uleb128 0x39
 2995 021f 0B       		.uleb128 0xb
 2996 0220 01       		.uleb128 0x1
 2997 0221 13       		.uleb128 0x13
 2998 0222 00       		.byte	0
ARM GAS  C:\Users\DEVELO~1\AppData\Local\Temp\ccv7u97u.s 			page 54


 2999 0223 00       		.byte	0
 3000 0224 28       		.uleb128 0x28
 3001 0225 15       		.uleb128 0x15
 3002 0226 01       		.byte	0x1
 3003 0227 27       		.uleb128 0x27
 3004 0228 19       		.uleb128 0x19
 3005 0229 01       		.uleb128 0x1
 3006 022a 13       		.uleb128 0x13
 3007 022b 00       		.byte	0
 3008 022c 00       		.byte	0
 3009 022d 29       		.uleb128 0x29
 3010 022e 04       		.uleb128 0x4
 3011 022f 01       		.byte	0x1
 3012 0230 3E       		.uleb128 0x3e
 3013 0231 0B       		.uleb128 0xb
 3014 0232 0B       		.uleb128 0xb
 3015 0233 0B       		.uleb128 0xb
 3016 0234 49       		.uleb128 0x49
 3017 0235 13       		.uleb128 0x13
 3018 0236 3A       		.uleb128 0x3a
 3019 0237 0B       		.uleb128 0xb
 3020 0238 3B       		.uleb128 0x3b
 3021 0239 0B       		.uleb128 0xb
 3022 023a 39       		.uleb128 0x39
 3023 023b 0B       		.uleb128 0xb
 3024 023c 01       		.uleb128 0x1
 3025 023d 13       		.uleb128 0x13
 3026 023e 00       		.byte	0
 3027 023f 00       		.byte	0
 3028 0240 2A       		.uleb128 0x2a
 3029 0241 34       		.uleb128 0x34
 3030 0242 00       		.byte	0
 3031 0243 03       		.uleb128 0x3
 3032 0244 08       		.uleb128 0x8
 3033 0245 3A       		.uleb128 0x3a
 3034 0246 0B       		.uleb128 0xb
 3035 0247 3B       		.uleb128 0x3b
 3036 0248 05       		.uleb128 0x5
 3037 0249 39       		.uleb128 0x39
 3038 024a 0B       		.uleb128 0xb
 3039 024b 49       		.uleb128 0x49
 3040 024c 13       		.uleb128 0x13
 3041 024d 3F       		.uleb128 0x3f
 3042 024e 19       		.uleb128 0x19
 3043 024f 3C       		.uleb128 0x3c
 3044 0250 19       		.uleb128 0x19
 3045 0251 00       		.byte	0
 3046 0252 00       		.byte	0
 3047 0253 2B       		.uleb128 0x2b
 3048 0254 2E       		.uleb128 0x2e
 3049 0255 01       		.byte	0x1
 3050 0256 3F       		.uleb128 0x3f
 3051 0257 19       		.uleb128 0x19
 3052 0258 03       		.uleb128 0x3
 3053 0259 0E       		.uleb128 0xe
 3054 025a 3A       		.uleb128 0x3a
 3055 025b 0B       		.uleb128 0xb
ARM GAS  C:\Users\DEVELO~1\AppData\Local\Temp\ccv7u97u.s 			page 55


 3056 025c 3B       		.uleb128 0x3b
 3057 025d 05       		.uleb128 0x5
 3058 025e 39       		.uleb128 0x39
 3059 025f 0B       		.uleb128 0xb
 3060 0260 27       		.uleb128 0x27
 3061 0261 19       		.uleb128 0x19
 3062 0262 3C       		.uleb128 0x3c
 3063 0263 19       		.uleb128 0x19
 3064 0264 01       		.uleb128 0x1
 3065 0265 13       		.uleb128 0x13
 3066 0266 00       		.byte	0
 3067 0267 00       		.byte	0
 3068 0268 2C       		.uleb128 0x2c
 3069 0269 2E       		.uleb128 0x2e
 3070 026a 01       		.byte	0x1
 3071 026b 3F       		.uleb128 0x3f
 3072 026c 19       		.uleb128 0x19
 3073 026d 03       		.uleb128 0x3
 3074 026e 0E       		.uleb128 0xe
 3075 026f 3A       		.uleb128 0x3a
 3076 0270 0B       		.uleb128 0xb
 3077 0271 3B       		.uleb128 0x3b
 3078 0272 0B       		.uleb128 0xb
 3079 0273 39       		.uleb128 0x39
 3080 0274 0B       		.uleb128 0xb
 3081 0275 27       		.uleb128 0x27
 3082 0276 19       		.uleb128 0x19
 3083 0277 3C       		.uleb128 0x3c
 3084 0278 19       		.uleb128 0x19
 3085 0279 01       		.uleb128 0x1
 3086 027a 13       		.uleb128 0x13
 3087 027b 00       		.byte	0
 3088 027c 00       		.byte	0
 3089 027d 2D       		.uleb128 0x2d
 3090 027e 2E       		.uleb128 0x2e
 3091 027f 00       		.byte	0
 3092 0280 3F       		.uleb128 0x3f
 3093 0281 19       		.uleb128 0x19
 3094 0282 03       		.uleb128 0x3
 3095 0283 0E       		.uleb128 0xe
 3096 0284 3A       		.uleb128 0x3a
 3097 0285 0B       		.uleb128 0xb
 3098 0286 3B       		.uleb128 0x3b
 3099 0287 0B       		.uleb128 0xb
 3100 0288 39       		.uleb128 0x39
 3101 0289 0B       		.uleb128 0xb
 3102 028a 27       		.uleb128 0x27
 3103 028b 19       		.uleb128 0x19
 3104 028c 3C       		.uleb128 0x3c
 3105 028d 19       		.uleb128 0x19
 3106 028e 00       		.byte	0
 3107 028f 00       		.byte	0
 3108 0290 2E       		.uleb128 0x2e
 3109 0291 18       		.uleb128 0x18
 3110 0292 00       		.byte	0
 3111 0293 00       		.byte	0
 3112 0294 00       		.byte	0
ARM GAS  C:\Users\DEVELO~1\AppData\Local\Temp\ccv7u97u.s 			page 56


 3113 0295 2F       		.uleb128 0x2f
 3114 0296 2E       		.uleb128 0x2e
 3115 0297 01       		.byte	0x1
 3116 0298 3F       		.uleb128 0x3f
 3117 0299 19       		.uleb128 0x19
 3118 029a 03       		.uleb128 0x3
 3119 029b 0E       		.uleb128 0xe
 3120 029c 3A       		.uleb128 0x3a
 3121 029d 0B       		.uleb128 0xb
 3122 029e 3B       		.uleb128 0x3b
 3123 029f 05       		.uleb128 0x5
 3124 02a0 39       		.uleb128 0x39
 3125 02a1 0B       		.uleb128 0xb
 3126 02a2 27       		.uleb128 0x27
 3127 02a3 19       		.uleb128 0x19
 3128 02a4 49       		.uleb128 0x49
 3129 02a5 13       		.uleb128 0x13
 3130 02a6 3C       		.uleb128 0x3c
 3131 02a7 19       		.uleb128 0x19
 3132 02a8 01       		.uleb128 0x1
 3133 02a9 13       		.uleb128 0x13
 3134 02aa 00       		.byte	0
 3135 02ab 00       		.byte	0
 3136 02ac 30       		.uleb128 0x30
 3137 02ad 2E       		.uleb128 0x2e
 3138 02ae 01       		.byte	0x1
 3139 02af 3F       		.uleb128 0x3f
 3140 02b0 19       		.uleb128 0x19
 3141 02b1 03       		.uleb128 0x3
 3142 02b2 0E       		.uleb128 0xe
 3143 02b3 3A       		.uleb128 0x3a
 3144 02b4 0B       		.uleb128 0xb
 3145 02b5 3B       		.uleb128 0x3b
 3146 02b6 0B       		.uleb128 0xb
 3147 02b7 39       		.uleb128 0x39
 3148 02b8 0B       		.uleb128 0xb
 3149 02b9 27       		.uleb128 0x27
 3150 02ba 19       		.uleb128 0x19
 3151 02bb 49       		.uleb128 0x49
 3152 02bc 13       		.uleb128 0x13
 3153 02bd 11       		.uleb128 0x11
 3154 02be 01       		.uleb128 0x1
 3155 02bf 12       		.uleb128 0x12
 3156 02c0 06       		.uleb128 0x6
 3157 02c1 40       		.uleb128 0x40
 3158 02c2 18       		.uleb128 0x18
 3159 02c3 7A       		.uleb128 0x7a
 3160 02c4 19       		.uleb128 0x19
 3161 02c5 00       		.byte	0
 3162 02c6 00       		.byte	0
 3163 02c7 31       		.uleb128 0x31
 3164 02c8 34       		.uleb128 0x34
 3165 02c9 00       		.byte	0
 3166 02ca 03       		.uleb128 0x3
 3167 02cb 08       		.uleb128 0x8
 3168 02cc 3A       		.uleb128 0x3a
 3169 02cd 0B       		.uleb128 0xb
ARM GAS  C:\Users\DEVELO~1\AppData\Local\Temp\ccv7u97u.s 			page 57


 3170 02ce 3B       		.uleb128 0x3b
 3171 02cf 0B       		.uleb128 0xb
 3172 02d0 39       		.uleb128 0x39
 3173 02d1 0B       		.uleb128 0xb
 3174 02d2 49       		.uleb128 0x49
 3175 02d3 13       		.uleb128 0x13
 3176 02d4 00       		.byte	0
 3177 02d5 00       		.byte	0
 3178 02d6 32       		.uleb128 0x32
 3179 02d7 0B       		.uleb128 0xb
 3180 02d8 01       		.byte	0x1
 3181 02d9 55       		.uleb128 0x55
 3182 02da 17       		.uleb128 0x17
 3183 02db 00       		.byte	0
 3184 02dc 00       		.byte	0
 3185 02dd 00       		.byte	0
 3186              		.section	.debug_loclists,"",%progbits
 3187 0000 50000000 		.4byte	.Ldebug_loc3-.Ldebug_loc2
 3188              	.Ldebug_loc2:
 3189 0004 0500     		.2byte	0x5
 3190 0006 04       		.byte	0x4
 3191 0007 00       		.byte	0
 3192 0008 00000000 		.4byte	0
 3193              	.Ldebug_loc0:
 3194              	.LVUS1:
 3195 000c 02       		.uleb128 .LVU24
 3196 000d 03       		.uleb128 .LVU25
 3197 000e 03       		.uleb128 .LVU25
 3198 000f 00       		.uleb128 0
 3199              	.LLST1:
 3200 0010 06       		.byte	0x6
 3201 0011 4A000000 		.4byte	.LVL7
 3202 0015 04       		.byte	0x4
 3203 0016 00       		.uleb128 .LVL7-.LVL7
 3204 0017 00       		.uleb128 .LVL7-.LVL7
 3205 0018 02       		.uleb128 0x2
 3206 0019 30       		.byte	0x30
 3207 001a 9F       		.byte	0x9f
 3208 001b 04       		.byte	0x4
 3209 001c 00       		.uleb128 .LVL7-.LVL7
 3210 001d 6E       		.uleb128 .LFE432-.LVL7
 3211 001e 01       		.uleb128 0x1
 3212 001f 56       		.byte	0x56
 3213 0020 00       		.byte	0
 3214              	.LVUS3:
 3215 0021 02       		.uleb128 .LVU28
 3216 0022 03       		.uleb128 .LVU29
 3217              	.LLST3:
 3218 0023 08       		.byte	0x8
 3219 0024 5A000000 		.4byte	.LVL8
 3220 0028 00       		.uleb128 .LVL8-.LVL8
 3221 0029 02       		.uleb128 0x2
 3222 002a 30       		.byte	0x30
 3223 002b 9F       		.byte	0x9f
 3224 002c 00       		.byte	0
 3225              	.LVUS5:
 3226 002d 00       		.uleb128 .LVU31
ARM GAS  C:\Users\DEVELO~1\AppData\Local\Temp\ccv7u97u.s 			page 58


 3227 002e 00       		.uleb128 0
 3228              	.LLST5:
 3229 002f 08       		.byte	0x8
 3230 0030 5E000000 		.4byte	.LVL9
 3231 0034 5A       		.uleb128 .LFE432-.LVL9
 3232 0035 01       		.uleb128 0x1
 3233 0036 55       		.byte	0x55
 3234 0037 00       		.byte	0
 3235              	.LVUS6:
 3236 0038 01       		.uleb128 .LVU32
 3237 0039 00       		.uleb128 .LVU37
 3238 003a 00       		.uleb128 .LVU37
 3239 003b 00       		.uleb128 .LVU38
 3240 003c 00       		.uleb128 .LVU38
 3241 003d 00       		.uleb128 .LVU39
 3242              	.LLST6:
 3243 003e 06       		.byte	0x6
 3244 003f 5E000000 		.4byte	.LVL9
 3245 0043 04       		.byte	0x4
 3246 0044 00       		.uleb128 .LVL9-.LVL9
 3247 0045 12       		.uleb128 .LVL12-.LVL9
 3248 0046 02       		.uleb128 0x2
 3249 0047 30       		.byte	0x30
 3250 0048 9F       		.byte	0x9f
 3251 0049 04       		.byte	0x4
 3252 004a 12       		.uleb128 .LVL12-.LVL9
 3253 004b 16       		.uleb128 .LVL13-.LVL9
 3254 004c 01       		.uleb128 0x1
 3255 004d 50       		.byte	0x50
 3256 004e 04       		.byte	0x4
 3257 004f 16       		.uleb128 .LVL13-.LVL9
 3258 0050 19       		.uleb128 .LVL14-1-.LVL9
 3259 0051 01       		.uleb128 0x1
 3260 0052 53       		.byte	0x53
 3261 0053 00       		.byte	0
 3262              	.Ldebug_loc3:
 3263              		.section	.debug_aranges,"",%progbits
 3264 0000 1C000000 		.4byte	0x1c
 3265 0004 0200     		.2byte	0x2
 3266 0006 00000000 		.4byte	.Ldebug_info0
 3267 000a 04       		.byte	0x4
 3268 000b 00       		.byte	0
 3269 000c 0000     		.2byte	0
 3270 000e 0000     		.2byte	0
 3271 0010 00000000 		.4byte	.LFB432
 3272 0014 B8000000 		.4byte	.LFE432-.LFB432
 3273 0018 00000000 		.4byte	0
 3274 001c 00000000 		.4byte	0
 3275              		.section	.debug_rnglists,"",%progbits
 3276              	.Ldebug_ranges0:
 3277 0000 3A000000 		.4byte	.Ldebug_ranges3-.Ldebug_ranges2
 3278              	.Ldebug_ranges2:
 3279 0004 0500     		.2byte	0x5
 3280 0006 04       		.byte	0x4
 3281 0007 00       		.byte	0
 3282 0008 00000000 		.4byte	0
 3283              	.LLRL0:
ARM GAS  C:\Users\DEVELO~1\AppData\Local\Temp\ccv7u97u.s 			page 59


 3284 000c 05       		.byte	0x5
 3285 000d 0C000000 		.4byte	.LBB2
 3286 0011 04       		.byte	0x4
 3287 0012 00       		.uleb128 .LBB2-.LBB2
 3288 0013 02       		.uleb128 .LBE2-.LBB2
 3289 0014 04       		.byte	0x4
 3290 0015 20       		.uleb128 .LBB7-.LBB2
 3291 0016 24       		.uleb128 .LBE7-.LBB2
 3292 0017 04       		.byte	0x4
 3293 0018 30       		.uleb128 .LBB8-.LBB2
 3294 0019 36       		.uleb128 .LBE8-.LBB2
 3295 001a 04       		.byte	0x4
 3296 001b 3E       		.uleb128 .LBB9-.LBB2
 3297 001c 76       		.uleb128 .LBE9-.LBB2
 3298 001d 00       		.byte	0
 3299              	.LLRL2:
 3300 001e 05       		.byte	0x5
 3301 001f 3E000000 		.4byte	.LBB3
 3302 0023 04       		.byte	0x4
 3303 0024 00       		.uleb128 .LBB3-.LBB3
 3304 0025 04       		.uleb128 .LBE3-.LBB3
 3305 0026 04       		.byte	0x4
 3306 0027 1C       		.uleb128 .LBB6-.LBB3
 3307 0028 3E       		.uleb128 .LBE6-.LBB3
 3308 0029 00       		.byte	0
 3309              	.LLRL4:
 3310 002a 05       		.byte	0x5
 3311 002b 3E000000 		.4byte	.LBB4
 3312 002f 04       		.byte	0x4
 3313 0030 00       		.uleb128 .LBB4-.LBB4
 3314 0031 04       		.uleb128 .LBE4-.LBB4
 3315 0032 04       		.byte	0x4
 3316 0033 1C       		.uleb128 .LBB5-.LBB4
 3317 0034 3A       		.uleb128 .LBE5-.LBB4
 3318 0035 00       		.byte	0
 3319              	.LLRL7:
 3320 0036 07       		.byte	0x7
 3321 0037 00000000 		.4byte	.LFB432
 3322 003b B801     		.uleb128 .LFE432-.LFB432
 3323 003d 00       		.byte	0
 3324              	.Ldebug_ranges3:
 3325              		.section	.debug_line,"",%progbits
 3326              	.Ldebug_line0:
 3327 0000 5E040000 		.section	.debug_str,"MS",%progbits,1
 3327      03006203 
 3327      00000201 
 3327      FB0E0D00 
 3327      01010101 
 3328              	.LASF73:
 3329 0000 70726576 		.ascii	"prev\000"
 3329      00
 3330              	.LASF122:
 3331 0005 72656164 		.ascii	"ready_list_t\000"
 3331      795F6C69 
 3331      73745F74 
 3331      00
 3332              	.LASF4:
ARM GAS  C:\Users\DEVELO~1\AppData\Local\Temp\ccv7u97u.s 			page 60


 3333 0012 73697A65 		.ascii	"size_t\000"
 3333      5F7400
 3334              	.LASF111:
 3335 0019 7264796D 		.ascii	"rdymsg\000"
 3335      736700
 3336              	.LASF53:
 3337 0020 72666375 		.ascii	"rfcu\000"
 3337      00
 3338              	.LASF140:
 3339 0025 77726974 		.ascii	"write\000"
 3339      6500
 3340              	.LASF5:
 3341 002b 5F5F7569 		.ascii	"__uint8_t\000"
 3341      6E74385F 
 3341      7400
 3342              	.LASF190:
 3343 0035 433A5C50 		.ascii	"C:\\PROJET\\ChibiOS project\\ChibiOS_21.11.4\\demos"
 3343      524F4A45 
 3343      545C4368 
 3343      6962694F 
 3343      53207072 
 3344 0064 5C53544D 		.ascii	"\\STM32\\RT-STM32H743ZI_REV_XY-NUCLEO144\000"
 3344      33325C52 
 3344      542D5354 
 3344      4D333248 
 3344      3734335A 
 3345              	.LASF96:
 3346 008b 706F7274 		.ascii	"port_intctx\000"
 3346      5F696E74 
 3346      63747800 
 3347              	.LASF50:
 3348 0097 76746C69 		.ascii	"vtlist\000"
 3348      737400
 3349              	.LASF167:
 3350 009e 72786D61 		.ascii	"rxmask\000"
 3350      736B00
 3351              	.LASF84:
 3352 00a5 74797065 		.ascii	"type\000"
 3352      00
 3353              	.LASF87:
 3354 00aa 74726163 		.ascii	"trace_event_t\000"
 3354      655F6576 
 3354      656E745F 
 3354      7400
 3355              	.LASF82:
 3356 00b8 68616C74 		.ascii	"halt\000"
 3356      00
 3357              	.LASF112:
 3358 00bd 65786974 		.ascii	"exitcode\000"
 3358      636F6465 
 3358      00
 3359              	.LASF185:
 3360 00c6 76616C75 		.ascii	"values\000"
 3360      657300
 3361              	.LASF55:
 3362 00cd 6D61696E 		.ascii	"mainthread\000"
 3362      74687265 
ARM GAS  C:\Users\DEVELO~1\AppData\Local\Temp\ccv7u97u.s 			page 61


 3362      616400
 3363              	.LASF114:
 3364 00d8 73656E74 		.ascii	"sentmsg\000"
 3364      6D736700 
 3365              	.LASF79:
 3366 00e0 64656C74 		.ascii	"delta\000"
 3366      6100
 3367              	.LASF143:
 3368 00e6 696F5F71 		.ascii	"io_queue_t\000"
 3368      75657565 
 3368      5F7400
 3369              	.LASF70:
 3370 00f1 6E657874 		.ascii	"next\000"
 3370      00
 3371              	.LASF107:
 3372 00f6 63685F74 		.ascii	"ch_threads_queue\000"
 3372      68726561 
 3372      64735F71 
 3372      75657565 
 3372      00
 3373              	.LASF175:
 3374 0107 72656164 		.ascii	"readt\000"
 3374      7400
 3375              	.LASF39:
 3376 010d 72656673 		.ascii	"refs\000"
 3376      00
 3377              	.LASF145:
 3378 0112 715F7761 		.ascii	"q_waiting\000"
 3378      6974696E 
 3378      6700
 3379              	.LASF1:
 3380 011c 6C6F6E67 		.ascii	"long long int\000"
 3380      206C6F6E 
 3380      6720696E 
 3380      7400
 3381              	.LASF3:
 3382 012a 7369676E 		.ascii	"signed char\000"
 3382      65642063 
 3382      68617200 
 3383              	.LASF168:
 3384 0136 68616C5F 		.ascii	"hal_serial_config\000"
 3384      73657269 
 3384      616C5F63 
 3384      6F6E6669 
 3384      6700
 3385              	.LASF182:
 3386 0148 63685379 		.ascii	"chSysInit\000"
 3386      73496E69 
 3386      7400
 3387              	.LASF92:
 3388 0152 47545052 		.ascii	"GTPR\000"
 3388      00
 3389              	.LASF13:
 3390 0157 6C6F6E67 		.ascii	"long unsigned int\000"
 3390      20756E73 
 3390      69676E65 
 3390      6420696E 
ARM GAS  C:\Users\DEVELO~1\AppData\Local\Temp\ccv7u97u.s 			page 62


 3390      7400
 3391              	.LASF78:
 3392 0169 63685F64 		.ascii	"ch_delta_list\000"
 3392      656C7461 
 3392      5F6C6973 
 3392      7400
 3393              	.LASF15:
 3394 0177 6C6F6E67 		.ascii	"long long unsigned int\000"
 3394      206C6F6E 
 3394      6720756E 
 3394      7369676E 
 3394      65642069 
 3395              	.LASF37:
 3396 018e 73746174 		.ascii	"state\000"
 3396      6500
 3397              	.LASF11:
 3398 0194 6C6F6E67 		.ascii	"long int\000"
 3398      20696E74 
 3398      00
 3399              	.LASF161:
 3400 019d 68616C5F 		.ascii	"hal_serial_driver\000"
 3400      73657269 
 3400      616C5F64 
 3400      72697665 
 3400      7200
 3401              	.LASF24:
 3402 01af 74737461 		.ascii	"tstate_t\000"
 3402      74655F74 
 3402      00
 3403              	.LASF58:
 3404 01b8 63685F72 		.ascii	"ch_rfcu\000"
 3404      66637500 
 3405              	.LASF188:
 3406 01c0 474E5520 		.ascii	"GNU C17 11.3.1 20220712 -mcpu=cortex-m7 -mthumb -mf"
 3406      43313720 
 3406      31312E33 
 3406      2E312032 
 3406      30323230 
 3407 01f3 6C6F6174 		.ascii	"loat-abi=soft -march=armv7e-m -ggdb -O2 -fomit-fram"
 3407      2D616269 
 3407      3D736F66 
 3407      74202D6D 
 3407      61726368 
 3408 0226 652D706F 		.ascii	"e-pointer -falign-functions=16 -ffunction-sections "
 3408      696E7465 
 3408      72202D66 
 3408      616C6967 
 3408      6E2D6675 
 3409 0259 2D666461 		.ascii	"-fdata-sections -fno-common\000"
 3409      74612D73 
 3409      65637469 
 3409      6F6E7320 
 3409      2D666E6F 
 3410              	.LASF72:
 3411 0275 63685F71 		.ascii	"ch_queue\000"
 3411      75657565 
 3411      00
ARM GAS  C:\Users\DEVELO~1\AppData\Local\Temp\ccv7u97u.s 			page 63


 3412              	.LASF147:
 3413 027e 715F6275 		.ascii	"q_buffer\000"
 3413      66666572 
 3413      00
 3414              	.LASF17:
 3415 0287 75696E74 		.ascii	"uint16_t\000"
 3415      31365F74 
 3415      00
 3416              	.LASF103:
 3417 0290 63685F72 		.ascii	"ch_registry\000"
 3417      65676973 
 3417      74727900 
 3418              	.LASF134:
 3419 029c 77666C61 		.ascii	"wflags\000"
 3419      677300
 3420              	.LASF191:
 3421 02a3 6D61696E 		.ascii	"main\000"
 3421      00
 3422              	.LASF94:
 3423 02a8 50524553 		.ascii	"PRESC\000"
 3423      4300
 3424              	.LASF186:
 3425 02ae 77726974 		.ascii	"write_val\000"
 3425      655F7661 
 3425      6C00
 3426              	.LASF12:
 3427 02b8 5F5F7569 		.ascii	"__uint32_t\000"
 3427      6E743332 
 3427      5F7400
 3428              	.LASF59:
 3429 02c3 6D61736B 		.ascii	"mask\000"
 3429      00
 3430              	.LASF71:
 3431 02c8 63685F71 		.ascii	"ch_queue_t\000"
 3431      75657565 
 3431      5F7400
 3432              	.LASF40:
 3433 02d3 77616974 		.ascii	"waiting\000"
 3433      696E6700 
 3434              	.LASF184:
 3435 02db 75617274 		.ascii	"uart_cfg\000"
 3435      5F636667 
 3435      00
 3436              	.LASF124:
 3437 02e4 6D61696E 		.ascii	"mainthread_base\000"
 3437      74687265 
 3437      61645F62 
 3437      61736500 
 3438              	.LASF129:
 3439 02f4 6D757465 		.ascii	"mutex_t\000"
 3439      785F7400 
 3440              	.LASF144:
 3441 02fc 696F5F71 		.ascii	"io_queue\000"
 3441      75657565 
 3441      00
 3442              	.LASF136:
 3443 0305 6576656E 		.ascii	"event_source_t\000"
ARM GAS  C:\Users\DEVELO~1\AppData\Local\Temp\ccv7u97u.s 			page 64


 3443      745F736F 
 3443      75726365 
 3443      5F7400
 3444              	.LASF66:
 3445 0314 73797369 		.ascii	"sysinterval_t\000"
 3445      6E746572 
 3445      76616C5F 
 3445      7400
 3446              	.LASF30:
 3447 0322 636E745F 		.ascii	"cnt_t\000"
 3447      7400
 3448              	.LASF41:
 3449 0328 6D736771 		.ascii	"msgqueue\000"
 3449      75657565 
 3449      00
 3450              	.LASF165:
 3451 0331 75736172 		.ascii	"usart\000"
 3451      7400
 3452              	.LASF0:
 3453 0337 756E7369 		.ascii	"unsigned int\000"
 3453      676E6564 
 3453      20696E74 
 3453      00
 3454              	.LASF126:
 3455 0344 69646C65 		.ascii	"idlethread_base\000"
 3455      74687265 
 3455      61645F62 
 3455      61736500 
 3456              	.LASF171:
 3457 0354 53657269 		.ascii	"SerialDriverVMT\000"
 3457      616C4472 
 3457      69766572 
 3457      564D5400 
 3458              	.LASF115:
 3459 0364 77747365 		.ascii	"wtsemp\000"
 3459      6D7000
 3460              	.LASF64:
 3461 036b 73797374 		.ascii	"system_debug_t\000"
 3461      656D5F64 
 3461      65627567 
 3461      5F7400
 3462              	.LASF163:
 3463 037a 69717565 		.ascii	"iqueue\000"
 3463      756500
 3464              	.LASF113:
 3465 0381 77747472 		.ascii	"wttrp\000"
 3465      7000
 3466              	.LASF33:
 3467 0387 72717565 		.ascii	"rqueue\000"
 3467      756500
 3468              	.LASF183:
 3469 038e 68616C49 		.ascii	"halInit\000"
 3469      6E697400 
 3470              	.LASF67:
 3471 0396 74696D65 		.ascii	"time_conv_t\000"
 3471      5F636F6E 
 3471      765F7400 
ARM GAS  C:\Users\DEVELO~1\AppData\Local\Temp\ccv7u97u.s 			page 65


 3472              	.LASF173:
 3473 03a2 67657474 		.ascii	"gett\000"
 3473      00
 3474              	.LASF35:
 3475 03a7 6E616D65 		.ascii	"name\000"
 3475      00
 3476              	.LASF104:
 3477 03ac 71756575 		.ascii	"queue\000"
 3477      6500
 3478              	.LASF45:
 3479 03b2 6D706F6F 		.ascii	"mpool\000"
 3479      6C00
 3480              	.LASF162:
 3481 03b8 6576656E 		.ascii	"event\000"
 3481      7400
 3482              	.LASF89:
 3483 03be 73697A65 		.ascii	"size\000"
 3483      00
 3484              	.LASF9:
 3485 03c3 73686F72 		.ascii	"short unsigned int\000"
 3485      7420756E 
 3485      7369676E 
 3485      65642069 
 3485      6E7400
 3486              	.LASF47:
 3487 03d6 63685F74 		.ascii	"ch_thread\000"
 3487      68726561 
 3487      6400
 3488              	.LASF29:
 3489 03e0 6576656E 		.ascii	"eventflags_t\000"
 3489      74666C61 
 3489      67735F74 
 3489      00
 3490              	.LASF27:
 3491 03ed 6D73675F 		.ascii	"msg_t\000"
 3491      7400
 3492              	.LASF42:
 3493 03f3 6570656E 		.ascii	"epending\000"
 3493      64696E67 
 3493      00
 3494              	.LASF95:
 3495 03fc 55534152 		.ascii	"USART_TypeDef\000"
 3495      545F5479 
 3495      70654465 
 3495      6600
 3496              	.LASF174:
 3497 040a 77726974 		.ascii	"writet\000"
 3497      657400
 3498              	.LASF23:
 3499 0411 746D6F64 		.ascii	"tmode_t\000"
 3499      655F7400 
 3500              	.LASF69:
 3501 0419 63685F6C 		.ascii	"ch_list\000"
 3501      69737400 
 3502              	.LASF120:
 3503 0421 63685F72 		.ascii	"ch_ready_list\000"
 3503      65616479 
ARM GAS  C:\Users\DEVELO~1\AppData\Local\Temp\ccv7u97u.s 			page 66


 3503      5F6C6973 
 3503      7400
 3504              	.LASF28:
 3505 042f 6576656E 		.ascii	"eventmask_t\000"
 3505      746D6173 
 3505      6B5F7400 
 3506              	.LASF169:
 3507 043b 73706565 		.ascii	"speed\000"
 3507      6400
 3508              	.LASF102:
 3509 0441 76697274 		.ascii	"virtual_timers_list_t\000"
 3509      75616C5F 
 3509      74696D65 
 3509      72735F6C 
 3509      6973745F 
 3510              	.LASF22:
 3511 0457 73746B61 		.ascii	"stkalign_t\000"
 3511      6C69676E 
 3511      5F7400
 3512              	.LASF85:
 3513 0462 72747374 		.ascii	"rtstamp\000"
 3513      616D7000 
 3514              	.LASF101:
 3515 046a 6C617374 		.ascii	"laststamp\000"
 3515      7374616D 
 3515      7000
 3516              	.LASF130:
 3517 0474 6576656E 		.ascii	"event_listener_t\000"
 3517      745F6C69 
 3517      7374656E 
 3517      65725F74 
 3517      00
 3518              	.LASF154:
 3519 0485 696E7075 		.ascii	"input_queue_t\000"
 3519      745F7175 
 3519      6575655F 
 3519      7400
 3520              	.LASF172:
 3521 0493 70757474 		.ascii	"putt\000"
 3521      00
 3522              	.LASF57:
 3523 0498 72666375 		.ascii	"rfcu_mask_t\000"
 3523      5F6D6173 
 3523      6B5F7400 
 3524              	.LASF152:
 3525 04a4 715F6C69 		.ascii	"q_link\000"
 3525      6E6B00
 3526              	.LASF106:
 3527 04ab 74687265 		.ascii	"thread_reference_t\000"
 3527      61645F72 
 3527      65666572 
 3527      656E6365 
 3527      5F7400
 3528              	.LASF132:
 3529 04be 6C697374 		.ascii	"listener\000"
 3529      656E6572 
 3529      00
ARM GAS  C:\Users\DEVELO~1\AppData\Local\Temp\ccv7u97u.s 			page 67


 3530              	.LASF98:
 3531 04c7 63685F76 		.ascii	"ch_virtual_timers_list\000"
 3531      69727475 
 3531      616C5F74 
 3531      696D6572 
 3531      735F6C69 
 3532              	.LASF146:
 3533 04de 715F636F 		.ascii	"q_counter\000"
 3533      756E7465 
 3533      7200
 3534              	.LASF155:
 3535 04e8 6F757470 		.ascii	"output_queue_t\000"
 3535      75745F71 
 3535      75657565 
 3535      5F7400
 3536              	.LASF68:
 3537 04f7 63685F6C 		.ascii	"ch_list_t\000"
 3537      6973745F 
 3537      7400
 3538              	.LASF88:
 3539 0501 73757370 		.ascii	"suspended\000"
 3539      656E6465 
 3539      6400
 3540              	.LASF178:
 3541 050b 73647261 		.ascii	"sdram_ext_read32\000"
 3541      6D5F6578 
 3541      745F7265 
 3541      61643332 
 3541      00
 3542              	.LASF20:
 3543 051c 75696E74 		.ascii	"uint64_t\000"
 3543      36345F74 
 3543      00
 3544              	.LASF187:
 3545 0525 72656164 		.ascii	"read_val\000"
 3545      5F76616C 
 3545      00
 3546              	.LASF149:
 3547 052e 715F7772 		.ascii	"q_wrptr\000"
 3547      70747200 
 3548              	.LASF123:
 3549 0536 63685F6F 		.ascii	"ch_os_instance_config\000"
 3549      735F696E 
 3549      7374616E 
 3549      63655F63 
 3549      6F6E6669 
 3550              	.LASF97:
 3551 054c 706F7274 		.ascii	"port_context\000"
 3551      5F636F6E 
 3551      74657874 
 3551      00
 3552              	.LASF48:
 3553 0559 63685F6F 		.ascii	"ch_os_instance\000"
 3553      735F696E 
 3553      7374616E 
 3553      636500
 3554              	.LASF86:
ARM GAS  C:\Users\DEVELO~1\AppData\Local\Temp\ccv7u97u.s 			page 68


 3555 0568 74696D65 		.ascii	"time\000"
 3555      00
 3556              	.LASF76:
 3557 056d 7072696F 		.ascii	"prio\000"
 3557      00
 3558              	.LASF176:
 3559 0572 63685468 		.ascii	"chThdSleep\000"
 3559      64536C65 
 3559      657000
 3560              	.LASF170:
 3561 057d 53657269 		.ascii	"SerialConfig\000"
 3561      616C436F 
 3561      6E666967 
 3561      00
 3562              	.LASF14:
 3563 058a 5F5F7569 		.ascii	"__uint64_t\000"
 3563      6E743634 
 3563      5F7400
 3564              	.LASF181:
 3565 0595 73647261 		.ascii	"sdram_ext_init\000"
 3565      6D5F6578 
 3565      745F696E 
 3565      697400
 3566              	.LASF31:
 3567 05a4 636F7265 		.ascii	"core_id_t\000"
 3567      5F69645F 
 3567      7400
 3568              	.LASF25:
 3569 05ae 74726566 		.ascii	"trefs_t\000"
 3569      735F7400 
 3570              	.LASF153:
 3571 05b6 716E6F74 		.ascii	"qnotify_t\000"
 3571      6966795F 
 3571      7400
 3572              	.LASF157:
 3573 05c0 53445F53 		.ascii	"SD_STOP\000"
 3573      544F5000 
 3574              	.LASF83:
 3575 05c8 75736572 		.ascii	"user\000"
 3575      00
 3576              	.LASF26:
 3577 05cd 74707269 		.ascii	"tprio_t\000"
 3577      6F5F7400 
 3578              	.LASF150:
 3579 05d5 715F7264 		.ascii	"q_rdptr\000"
 3579      70747200 
 3580              	.LASF61:
 3581 05dd 63685F73 		.ascii	"ch_system_debug\000"
 3581      79737465 
 3581      6D5F6465 
 3581      62756700 
 3582              	.LASF137:
 3583 05ed 5F426F6F 		.ascii	"_Bool\000"
 3583      6C00
 3584              	.LASF18:
 3585 05f3 696E7433 		.ascii	"int32_t\000"
 3585      325F7400 
ARM GAS  C:\Users\DEVELO~1\AppData\Local\Temp\ccv7u97u.s 			page 69


 3586              	.LASF6:
 3587 05fb 756E7369 		.ascii	"unsigned char\000"
 3587      676E6564 
 3587      20636861 
 3587      7200
 3588              	.LASF177:
 3589 0609 73647261 		.ascii	"sdram_ext_write32\000"
 3589      6D5F6578 
 3589      745F7772 
 3589      69746533 
 3589      3200
 3590              	.LASF60:
 3591 061b 72666375 		.ascii	"rfcu_t\000"
 3591      5F7400
 3592              	.LASF7:
 3593 0622 73686F72 		.ascii	"short int\000"
 3593      7420696E 
 3593      7400
 3594              	.LASF100:
 3595 062c 6C617374 		.ascii	"lasttime\000"
 3595      74696D65 
 3595      00
 3596              	.LASF91:
 3597 0635 74726163 		.ascii	"trace_buffer_t\000"
 3597      655F6275 
 3597      66666572 
 3597      5F7400
 3598              	.LASF80:
 3599 0644 77746F62 		.ascii	"wtobjp\000"
 3599      6A7000
 3600              	.LASF117:
 3601 064b 65776D61 		.ascii	"ewmask\000"
 3601      736B00
 3602              	.LASF164:
 3603 0652 6F717565 		.ascii	"oqueue\000"
 3603      756500
 3604              	.LASF138:
 3605 0659 42617365 		.ascii	"BaseSequentialStreamVMT\000"
 3605      53657175 
 3605      656E7469 
 3605      616C5374 
 3605      7265616D 
 3606              	.LASF52:
 3607 0671 636F7265 		.ascii	"core_id\000"
 3607      5F696400 
 3608              	.LASF81:
 3609 0679 72656173 		.ascii	"reason\000"
 3609      6F6E00
 3610              	.LASF108:
 3611 0680 74687265 		.ascii	"threads_queue_t\000"
 3611      6164735F 
 3611      71756575 
 3611      655F7400 
 3612              	.LASF118:
 3613 0690 63685F73 		.ascii	"ch_semaphore\000"
 3613      656D6170 
 3613      686F7265 
ARM GAS  C:\Users\DEVELO~1\AppData\Local\Temp\ccv7u97u.s 			page 70


 3613      00
 3614              	.LASF121:
 3615 069d 63757272 		.ascii	"current\000"
 3615      656E7400 
 3616              	.LASF156:
 3617 06a5 53445F55 		.ascii	"SD_UNINIT\000"
 3617      4E494E49 
 3617      5400
 3618              	.LASF133:
 3619 06af 6576656E 		.ascii	"events\000"
 3619      747300
 3620              	.LASF19:
 3621 06b6 75696E74 		.ascii	"uint32_t\000"
 3621      33325F74 
 3621      00
 3622              	.LASF116:
 3623 06bf 77746D74 		.ascii	"wtmtxp\000"
 3623      787000
 3624              	.LASF21:
 3625 06c6 706F7274 		.ascii	"port_stkalign_t\000"
 3625      5F73746B 
 3625      616C6967 
 3625      6E5F7400 
 3626              	.LASF34:
 3627 06d6 6F776E65 		.ascii	"owner\000"
 3627      7200
 3628              	.LASF160:
 3629 06dc 53657269 		.ascii	"SerialDriver\000"
 3629      616C4472 
 3629      69766572 
 3629      00
 3630              	.LASF44:
 3631 06e9 7265616C 		.ascii	"realprio\000"
 3631      7072696F 
 3631      00
 3632              	.LASF2:
 3633 06f2 6C6F6E67 		.ascii	"long double\000"
 3633      20646F75 
 3633      626C6500 
 3634              	.LASF36:
 3635 06fe 77616261 		.ascii	"wabase\000"
 3635      736500
 3636              	.LASF63:
 3637 0705 63686172 		.ascii	"char\000"
 3637      00
 3638              	.LASF10:
 3639 070a 5F5F696E 		.ascii	"__int32_t\000"
 3639      7433325F 
 3639      7400
 3640              	.LASF54:
 3641 0714 636F6E66 		.ascii	"config\000"
 3641      696700
 3642              	.LASF142:
 3643 071b 42617365 		.ascii	"BaseSequentialStream\000"
 3643      53657175 
 3643      656E7469 
 3643      616C5374 
ARM GAS  C:\Users\DEVELO~1\AppData\Local\Temp\ccv7u97u.s 			page 71


 3643      7265616D 
 3644              	.LASF8:
 3645 0730 5F5F7569 		.ascii	"__uint16_t\000"
 3645      6E743136 
 3645      5F7400
 3646              	.LASF32:
 3647 073b 74687265 		.ascii	"thread_t\000"
 3647      61645F74 
 3647      00
 3648              	.LASF99:
 3649 0744 646C6973 		.ascii	"dlist\000"
 3649      7400
 3650              	.LASF65:
 3651 074a 73797374 		.ascii	"systime_t\000"
 3651      696D655F 
 3651      7400
 3652              	.LASF90:
 3653 0754 62756666 		.ascii	"buffer\000"
 3653      657200
 3654              	.LASF74:
 3655 075b 63685F70 		.ascii	"ch_priority_queue_t\000"
 3655      72696F72 
 3655      6974795F 
 3655      71756575 
 3655      655F7400 
 3656              	.LASF62:
 3657 076f 70616E69 		.ascii	"panic_msg\000"
 3657      635F6D73 
 3657      6700
 3658              	.LASF110:
 3659 0779 70717565 		.ascii	"pqueue\000"
 3659      756500
 3660              	.LASF93:
 3661 0780 52544F52 		.ascii	"RTOR\000"
 3661      00
 3662              	.LASF46:
 3663 0785 6F735F69 		.ascii	"os_instance_t\000"
 3663      6E737461 
 3663      6E63655F 
 3663      7400
 3664              	.LASF51:
 3665 0793 7265676C 		.ascii	"reglist\000"
 3665      69737400 
 3666              	.LASF75:
 3667 079b 63685F70 		.ascii	"ch_priority_queue\000"
 3667      72696F72 
 3667      6974795F 
 3667      71756575 
 3667      6500
 3668              	.LASF158:
 3669 07ad 53445F52 		.ascii	"SD_READY\000"
 3669      45414459 
 3669      00
 3670              	.LASF77:
 3671 07b6 63685F64 		.ascii	"ch_delta_list_t\000"
 3671      656C7461 
 3671      5F6C6973 
ARM GAS  C:\Users\DEVELO~1\AppData\Local\Temp\ccv7u97u.s 			page 72


 3671      745F7400 
 3672              	.LASF105:
 3673 07c6 72656769 		.ascii	"registry_t\000"
 3673      73747279 
 3673      5F7400
 3674              	.LASF125:
 3675 07d1 6D61696E 		.ascii	"mainthread_end\000"
 3675      74687265 
 3675      61645F65 
 3675      6E6400
 3676              	.LASF189:
 3677 07e0 6D61696E 		.ascii	"main.c\000"
 3677      2E6300
 3678              	.LASF159:
 3679 07e7 73647374 		.ascii	"sdstate_t\000"
 3679      6174655F 
 3679      7400
 3680              	.LASF128:
 3681 07f1 6F735F69 		.ascii	"os_instance_config_t\000"
 3681      6E737461 
 3681      6E63655F 
 3681      636F6E66 
 3681      69675F74 
 3682              	.LASF148:
 3683 0806 715F746F 		.ascii	"q_top\000"
 3683      7000
 3684              	.LASF119:
 3685 080c 63685F6D 		.ascii	"ch_mutex\000"
 3685      75746578 
 3685      00
 3686              	.LASF151:
 3687 0815 715F6E6F 		.ascii	"q_notify\000"
 3687      74696679 
 3687      00
 3688              	.LASF49:
 3689 081e 726C6973 		.ascii	"rlist\000"
 3689      7400
 3690              	.LASF135:
 3691 0824 6576656E 		.ascii	"event_source\000"
 3691      745F736F 
 3691      75726365 
 3691      00
 3692              	.LASF16:
 3693 0831 75696E74 		.ascii	"uint8_t\000"
 3693      385F7400 
 3694              	.LASF38:
 3695 0839 666C6167 		.ascii	"flags\000"
 3695      7300
 3696              	.LASF141:
 3697 083f 72656164 		.ascii	"read\000"
 3697      00
 3698              	.LASF56:
 3699 0844 74726163 		.ascii	"trace_buffer\000"
 3699      655F6275 
 3699      66666572 
 3699      00
 3700              	.LASF166:
ARM GAS  C:\Users\DEVELO~1\AppData\Local\Temp\ccv7u97u.s 			page 73


 3701 0851 636C6F63 		.ascii	"clock\000"
 3701      6B00
 3702              	.LASF139:
 3703 0857 696E7374 		.ascii	"instance_offset\000"
 3703      616E6365 
 3703      5F6F6666 
 3703      73657400 
 3704              	.LASF109:
 3705 0867 6C697374 		.ascii	"list\000"
 3705      00
 3706              	.LASF180:
 3707 086c 73645374 		.ascii	"sdStart\000"
 3707      61727400 
 3708              	.LASF127:
 3709 0874 69646C65 		.ascii	"idlethread_end\000"
 3709      74687265 
 3709      61645F65 
 3709      6E6400
 3710              	.LASF43:
 3711 0883 6D74786C 		.ascii	"mtxlist\000"
 3711      69737400 
 3712              	.LASF131:
 3713 088b 6576656E 		.ascii	"event_listener\000"
 3713      745F6C69 
 3713      7374656E 
 3713      657200
 3714              	.LASF179:
 3715 089a 63687072 		.ascii	"chprintf\000"
 3715      696E7466 
 3715      00
 3716              		.ident	"GCC: (Arm GNU Toolchain 11.3.Rel1) 11.3.1 20220712"
ARM GAS  C:\Users\DEVELO~1\AppData\Local\Temp\ccv7u97u.s 			page 74


DEFINED SYMBOLS
                            *ABS*:00000000 main.c
C:\Users\DEVELO~1\AppData\Local\Temp\ccv7u97u.s:18     .rodata.main.str1.4:00000000 $d
C:\Users\DEVELO~1\AppData\Local\Temp\ccv7u97u.s:37     .text.startup.main:00000000 $t
C:\Users\DEVELO~1\AppData\Local\Temp\ccv7u97u.s:44     .text.startup.main:00000000 main
C:\Users\DEVELO~1\AppData\Local\Temp\ccv7u97u.s:203    .text.startup.main:00000094 $d
C:\Users\DEVELO~1\AppData\Local\Temp\ccv7u97u.s:216    .rodata:00000000 $d
C:\Users\DEVELO~1\AppData\Local\Temp\ccv7u97u.s:225    .rodata.uart_cfg:00000000 $d
C:\Users\DEVELO~1\AppData\Local\Temp\ccv7u97u.s:229    .rodata.uart_cfg:00000000 uart_cfg

UNDEFINED SYMBOLS
halInit
chSysInit
sdStart
chprintf
sdram_ext_init
sdram_ext_write32
sdram_ext_read32
chThdSleep
SD1
