ARM GAS  C:\Users\DEVELO~1\AppData\Local\Temp\ccHgW5fR.s 			page 1


   1              		.cpu cortex-m7
   2              		.arch armv7e-m
   3              		.fpu softvfp
   4              		.eabi_attribute 20, 1
   5              		.eabi_attribute 21, 1
   6              		.eabi_attribute 23, 3
   7              		.eabi_attribute 24, 1
   8              		.eabi_attribute 25, 1
   9              		.eabi_attribute 26, 1
  10              		.eabi_attribute 30, 2
  11              		.eabi_attribute 34, 1
  12              		.eabi_attribute 18, 4
  13              		.file	"main.c"
  14              		.text
  15              	.Ltext0:
  16              		.cfi_sections	.debug_frame
  17              		.section	.text.startup.main,"ax",%progbits
  18              		.align	1
  19              		.p2align 4,,15
  20              		.global	main
  21              		.syntax unified
  22              		.thumb
  23              		.thumb_func
  24              		.type	main, %function
  25              	main:
  26              	.LFB432:
  27              		.file 1 "main.c"
  28              		.loc 1 6 16 view -0
  29              		.cfi_startproc
  30              		@ Volatile: function does not return.
  31              		@ args = 0, pretend = 0, frame = 0
  32              		@ frame_needed = 0, uses_anonymous_args = 0
  33              		.loc 1 7 3 view .LVU1
  34              		.loc 1 6 16 is_stmt 0 view .LVU2
  35 0000 08B5     		push	{r3, lr}
  36              		.cfi_def_cfa_offset 8
  37              		.cfi_offset 3, -8
  38              		.cfi_offset 14, -4
  39              		.loc 1 7 3 view .LVU3
  40 0002 FFF7FEFF 		bl	halInit
  41              	.LVL0:
  42              		.loc 1 8 3 is_stmt 1 view .LVU4
  43 0006 FFF7FEFF 		bl	chSysInit
  44              	.LVL1:
  45              		.loc 1 10 3 view .LVU5
  46 000a FFF7FEFF 		bl	usb_device_start
  47              	.LVL2:
  48              		.loc 1 11 3 view .LVU6
  49 000e FFF7FEFF 		bl	midi_init
  50              	.LVL3:
  51              		.loc 1 13 3 view .LVU7
  52              		.loc 1 13 9 is_stmt 0 view .LVU8
  53 0012 01E0     		b	.L2
  54              	.L3:
  55              		.loc 1 14 5 view .LVU9
  56 0014 FFF7FEFF 		bl	chThdSleep
  57              	.LVL4:
ARM GAS  C:\Users\DEVELO~1\AppData\Local\Temp\ccHgW5fR.s 			page 2


  58              	.L2:
  59              		.loc 1 13 10 is_stmt 1 view .LVU10
  60              		.loc 1 13 11 is_stmt 0 view .LVU11
  61 0018 FFF7FEFF 		bl	usb_device_active
  62              	.LVL5:
  63              		.loc 1 14 5 is_stmt 1 view .LVU12
  64              		.loc 1 13 11 is_stmt 0 view .LVU13
  65 001c 0346     		mov	r3, r0
  66              		.loc 1 14 5 view .LVU14
  67 001e 6420     		movs	r0, #100
  68              		.loc 1 13 10 view .LVU15
  69 0020 002B     		cmp	r3, #0
  70 0022 F7D0     		beq	.L3
  71              	.L4:
  72              		.loc 1 17 3 is_stmt 1 discriminator 1 view .LVU16
  73              		.loc 1 18 5 discriminator 1 view .LVU17
  74 0024 6423     		movs	r3, #100
  75 0026 3C22     		movs	r2, #60
  76 0028 0021     		movs	r1, #0
  77 002a 0220     		movs	r0, #2
  78 002c FFF7FEFF 		bl	midi_note_on
  79              	.LVL6:
  80              		.loc 1 19 5 discriminator 1 view .LVU18
  81 0030 42F21070 		movw	r0, #10000
  82 0034 FFF7FEFF 		bl	chThdSleep
  83              	.LVL7:
  84              		.loc 1 20 5 discriminator 1 view .LVU19
  85 0038 0023     		movs	r3, #0
  86 003a 3C22     		movs	r2, #60
  87 003c 0220     		movs	r0, #2
  88 003e 1946     		mov	r1, r3
  89 0040 FFF7FEFF 		bl	midi_note_off
  90              	.LVL8:
  91              		.loc 1 21 5 discriminator 1 view .LVU20
  92 0044 42F21070 		movw	r0, #10000
  93 0048 FFF7FEFF 		bl	chThdSleep
  94              	.LVL9:
  95              		.loc 1 17 9 discriminator 1 view .LVU21
  96 004c EAE7     		b	.L4
  97              		.cfi_endproc
  98              	.LFE432:
  99              		.size	main, .-main
 100 004e 00BF     		.text
 101              	.Letext0:
 102              		.file 2 "c:\\chibistudio\\tools\\gnu tools arm embedded\\11.3 2022.08\\arm-none-eabi\\include\\mac
 103              		.file 3 "c:\\chibistudio\\tools\\gnu tools arm embedded\\11.3 2022.08\\arm-none-eabi\\include\\sys
 104              		.file 4 "../../../os/rt/include/chtime.h"
 105              		.file 5 "midi/midi.h"
 106              		.file 6 "../../../os/rt/include/chthreads.h"
 107              		.file 7 "usb/usb_device.h"
 108              		.file 8 "../../../os/rt/include/chsys.h"
 109              		.file 9 "../../../os/hal/include/hal.h"
 110              		.section	.debug_info,"",%progbits
 111              	.Ldebug_info0:
 112 0000 46020000 		.4byte	0x246
 113 0004 0500     		.2byte	0x5
 114 0006 01       		.byte	0x1
ARM GAS  C:\Users\DEVELO~1\AppData\Local\Temp\ccHgW5fR.s 			page 3


 115 0007 04       		.byte	0x4
 116 0008 00000000 		.4byte	.Ldebug_abbrev0
 117 000c 0B       		.uleb128 0xb
 118 000d 60000000 		.4byte	.LASF32
 119 0011 1D       		.byte	0x1d
 120 0012 AB020000 		.4byte	.LASF33
 121 0016 80010000 		.4byte	.LASF34
 122 001a 0C000000 		.4byte	.LLRL0
 123 001e 00000000 		.4byte	0
 124 0022 00000000 		.4byte	.Ldebug_line0
 125 0026 0C       		.uleb128 0xc
 126 0027 04       		.byte	0x4
 127 0028 05       		.byte	0x5
 128 0029 696E7400 		.ascii	"int\000"
 129 002d 01       		.uleb128 0x1
 130 002e 04       		.byte	0x4
 131 002f 07       		.byte	0x7
 132 0030 E6010000 		.4byte	.LASF0
 133 0034 01       		.uleb128 0x1
 134 0035 08       		.byte	0x8
 135 0036 05       		.byte	0x5
 136 0037 0E020000 		.4byte	.LASF1
 137 003b 01       		.uleb128 0x1
 138 003c 08       		.byte	0x8
 139 003d 04       		.byte	0x4
 140 003e 5F020000 		.4byte	.LASF2
 141 0042 01       		.uleb128 0x1
 142 0043 01       		.byte	0x1
 143 0044 06       		.byte	0x6
 144 0045 6B020000 		.4byte	.LASF3
 145 0049 03       		.uleb128 0x3
 146 004a 00000000 		.4byte	.LASF8
 147 004e 02       		.byte	0x2
 148 004f 2B       		.byte	0x2b
 149 0050 18       		.byte	0x18
 150 0051 55000000 		.4byte	0x55
 151 0055 01       		.uleb128 0x1
 152 0056 01       		.byte	0x1
 153 0057 08       		.byte	0x8
 154 0058 38010000 		.4byte	.LASF4
 155 005c 01       		.uleb128 0x1
 156 005d 02       		.byte	0x2
 157 005e 05       		.byte	0x5
 158 005f 2B020000 		.4byte	.LASF5
 159 0063 01       		.uleb128 0x1
 160 0064 02       		.byte	0x2
 161 0065 07       		.byte	0x7
 162 0066 6D010000 		.4byte	.LASF6
 163 006a 01       		.uleb128 0x1
 164 006b 04       		.byte	0x4
 165 006c 05       		.byte	0x5
 166 006d 56020000 		.4byte	.LASF7
 167 0071 03       		.uleb128 0x3
 168 0072 D6010000 		.4byte	.LASF9
 169 0076 02       		.byte	0x2
 170 0077 4F       		.byte	0x4f
 171 0078 19       		.byte	0x19
ARM GAS  C:\Users\DEVELO~1\AppData\Local\Temp\ccHgW5fR.s 			page 4


 172 0079 7D000000 		.4byte	0x7d
 173 007d 01       		.uleb128 0x1
 174 007e 04       		.byte	0x4
 175 007f 07       		.byte	0x7
 176 0080 5B010000 		.4byte	.LASF10
 177 0084 03       		.uleb128 0x3
 178 0085 35020000 		.4byte	.LASF11
 179 0089 02       		.byte	0x2
 180 008a 69       		.byte	0x69
 181 008b 19       		.byte	0x19
 182 008c 90000000 		.4byte	0x90
 183 0090 01       		.uleb128 0x1
 184 0091 08       		.byte	0x8
 185 0092 07       		.byte	0x7
 186 0093 21010000 		.4byte	.LASF12
 187 0097 03       		.uleb128 0x3
 188 0098 F8010000 		.4byte	.LASF13
 189 009c 03       		.byte	0x3
 190 009d 18       		.byte	0x18
 191 009e 13       		.byte	0x13
 192 009f 49000000 		.4byte	0x49
 193 00a3 03       		.uleb128 0x3
 194 00a4 4D020000 		.4byte	.LASF14
 195 00a8 03       		.byte	0x3
 196 00a9 30       		.byte	0x30
 197 00aa 14       		.byte	0x14
 198 00ab 71000000 		.4byte	0x71
 199 00af 03       		.uleb128 0x3
 200 00b0 57000000 		.4byte	.LASF15
 201 00b4 03       		.byte	0x3
 202 00b5 3C       		.byte	0x3c
 203 00b6 14       		.byte	0x14
 204 00b7 84000000 		.4byte	0x84
 205 00bb 01       		.uleb128 0x1
 206 00bc 01       		.byte	0x1
 207 00bd 08       		.byte	0x8
 208 00be F3010000 		.4byte	.LASF16
 209 00c2 03       		.uleb128 0x3
 210 00c3 23000000 		.4byte	.LASF17
 211 00c7 04       		.byte	0x4
 212 00c8 79       		.byte	0x79
 213 00c9 12       		.byte	0x12
 214 00ca A3000000 		.4byte	0xa3
 215 00ce 03       		.uleb128 0x3
 216 00cf 43000000 		.4byte	.LASF18
 217 00d3 04       		.byte	0x4
 218 00d4 9B       		.byte	0x9b
 219 00d5 12       		.byte	0x12
 220 00d6 AF000000 		.4byte	0xaf
 221 00da 01       		.uleb128 0x1
 222 00db 01       		.byte	0x1
 223 00dc 02       		.byte	0x2
 224 00dd 96020000 		.4byte	.LASF19
 225 00e1 0D       		.uleb128 0xd
 226 00e2 07       		.byte	0x7
 227 00e3 01       		.byte	0x1
 228 00e4 55000000 		.4byte	0x55
ARM GAS  C:\Users\DEVELO~1\AppData\Local\Temp\ccHgW5fR.s 			page 5


 229 00e8 05       		.byte	0x5
 230 00e9 41       		.byte	0x41
 231 00ea 0E       		.byte	0xe
 232 00eb 08010000 		.4byte	0x108
 233 00ef 06       		.uleb128 0x6
 234 00f0 14000000 		.4byte	.LASF20
 235 00f4 00       		.byte	0
 236 00f5 06       		.uleb128 0x6
 237 00f6 9C020000 		.4byte	.LASF21
 238 00fa 01       		.byte	0x1
 239 00fb 06       		.uleb128 0x6
 240 00fc 00020000 		.4byte	.LASF22
 241 0100 02       		.byte	0x2
 242 0101 06       		.uleb128 0x6
 243 0102 1C020000 		.4byte	.LASF23
 244 0106 03       		.byte	0x3
 245 0107 00       		.byte	0
 246 0108 03       		.uleb128 0x3
 247 0109 15010000 		.4byte	.LASF24
 248 010d 05       		.byte	0x5
 249 010e 46       		.byte	0x46
 250 010f 03       		.byte	0x3
 251 0110 E1000000 		.4byte	0xe1
 252 0114 08       		.uleb128 0x8
 253 0115 77020000 		.4byte	.LASF25
 254 0119 A0       		.byte	0xa0
 255 011a 33010000 		.4byte	0x133
 256 011e 04       		.uleb128 0x4
 257 011f 08010000 		.4byte	0x108
 258 0123 04       		.uleb128 0x4
 259 0124 97000000 		.4byte	0x97
 260 0128 04       		.uleb128 0x4
 261 0129 97000000 		.4byte	0x97
 262 012d 04       		.uleb128 0x4
 263 012e 97000000 		.4byte	0x97
 264 0132 00       		.byte	0
 265 0133 08       		.uleb128 0x8
 266 0134 40020000 		.4byte	.LASF26
 267 0138 9B       		.byte	0x9b
 268 0139 52010000 		.4byte	0x152
 269 013d 04       		.uleb128 0x4
 270 013e 08010000 		.4byte	0x108
 271 0142 04       		.uleb128 0x4
 272 0143 97000000 		.4byte	0x97
 273 0147 04       		.uleb128 0x4
 274 0148 97000000 		.4byte	0x97
 275 014c 04       		.uleb128 0x4
 276 014d 97000000 		.4byte	0x97
 277 0151 00       		.byte	0
 278 0152 0E       		.uleb128 0xe
 279 0153 31000000 		.4byte	.LASF35
 280 0157 07       		.byte	0x7
 281 0158 2D       		.byte	0x2d
 282 0159 06       		.byte	0x6
 283 015a DA000000 		.4byte	0xda
 284 015e 0F       		.uleb128 0xf
 285 015f 46010000 		.4byte	.LASF27
ARM GAS  C:\Users\DEVELO~1\AppData\Local\Temp\ccHgW5fR.s 			page 6


 286 0163 06       		.byte	0x6
 287 0164 4201     		.2byte	0x142
 288 0166 08       		.byte	0x8
 289 0167 71010000 		.4byte	0x171
 290 016b 04       		.uleb128 0x4
 291 016c C2000000 		.4byte	0xc2
 292 0170 00       		.byte	0
 293 0171 09       		.uleb128 0x9
 294 0172 0A000000 		.4byte	.LASF28
 295 0176 05       		.byte	0x5
 296 0177 7D       		.byte	0x7d
 297 0178 09       		.uleb128 0x9
 298 0179 85020000 		.4byte	.LASF29
 299 017d 07       		.byte	0x7
 300 017e 26       		.byte	0x26
 301 017f 0A       		.uleb128 0xa
 302 0180 51010000 		.4byte	.LASF30
 303 0184 08       		.byte	0x8
 304 0185 4E01     		.2byte	0x14e
 305 0187 0A       		.uleb128 0xa
 306 0188 4F000000 		.4byte	.LASF31
 307 018c 09       		.byte	0x9
 308 018d 0101     		.2byte	0x101
 309 018f 10       		.uleb128 0x10
 310 0190 E1010000 		.4byte	.LASF36
 311 0194 01       		.byte	0x1
 312 0195 06       		.byte	0x6
 313 0196 05       		.byte	0x5
 314 0197 26000000 		.4byte	0x26
 315 019b 00000000 		.4byte	.LFB432
 316 019f 4E000000 		.4byte	.LFE432-.LFB432
 317 01a3 01       		.uleb128 0x1
 318 01a4 9C       		.byte	0x9c
 319 01a5 05       		.uleb128 0x5
 320 01a6 06000000 		.4byte	.LVL0
 321 01aa 87010000 		.4byte	0x187
 322 01ae 05       		.uleb128 0x5
 323 01af 0A000000 		.4byte	.LVL1
 324 01b3 7F010000 		.4byte	0x17f
 325 01b7 05       		.uleb128 0x5
 326 01b8 0E000000 		.4byte	.LVL2
 327 01bc 78010000 		.4byte	0x178
 328 01c0 05       		.uleb128 0x5
 329 01c1 12000000 		.4byte	.LVL3
 330 01c5 71010000 		.4byte	0x171
 331 01c9 05       		.uleb128 0x5
 332 01ca 18000000 		.4byte	.LVL4
 333 01ce 5E010000 		.4byte	0x15e
 334 01d2 05       		.uleb128 0x5
 335 01d3 1C000000 		.4byte	.LVL5
 336 01d7 52010000 		.4byte	0x152
 337 01db 07       		.uleb128 0x7
 338 01dc 30000000 		.4byte	.LVL6
 339 01e0 33010000 		.4byte	0x133
 340 01e4 FF010000 		.4byte	0x1ff
 341 01e8 02       		.uleb128 0x2
 342 01e9 01       		.uleb128 0x1
ARM GAS  C:\Users\DEVELO~1\AppData\Local\Temp\ccHgW5fR.s 			page 7


 343 01ea 50       		.byte	0x50
 344 01eb 01       		.uleb128 0x1
 345 01ec 32       		.byte	0x32
 346 01ed 02       		.uleb128 0x2
 347 01ee 01       		.uleb128 0x1
 348 01ef 51       		.byte	0x51
 349 01f0 01       		.uleb128 0x1
 350 01f1 30       		.byte	0x30
 351 01f2 02       		.uleb128 0x2
 352 01f3 01       		.uleb128 0x1
 353 01f4 52       		.byte	0x52
 354 01f5 02       		.uleb128 0x2
 355 01f6 08       		.byte	0x8
 356 01f7 3C       		.byte	0x3c
 357 01f8 02       		.uleb128 0x2
 358 01f9 01       		.uleb128 0x1
 359 01fa 53       		.byte	0x53
 360 01fb 02       		.uleb128 0x2
 361 01fc 08       		.byte	0x8
 362 01fd 64       		.byte	0x64
 363 01fe 00       		.byte	0
 364 01ff 07       		.uleb128 0x7
 365 0200 38000000 		.4byte	.LVL7
 366 0204 5E010000 		.4byte	0x15e
 367 0208 14020000 		.4byte	0x214
 368 020c 02       		.uleb128 0x2
 369 020d 01       		.uleb128 0x1
 370 020e 50       		.byte	0x50
 371 020f 03       		.uleb128 0x3
 372 0210 0A       		.byte	0xa
 373 0211 1027     		.2byte	0x2710
 374 0213 00       		.byte	0
 375 0214 07       		.uleb128 0x7
 376 0215 44000000 		.4byte	.LVL8
 377 0219 14010000 		.4byte	0x114
 378 021d 37020000 		.4byte	0x237
 379 0221 02       		.uleb128 0x2
 380 0222 01       		.uleb128 0x1
 381 0223 50       		.byte	0x50
 382 0224 01       		.uleb128 0x1
 383 0225 32       		.byte	0x32
 384 0226 02       		.uleb128 0x2
 385 0227 01       		.uleb128 0x1
 386 0228 51       		.byte	0x51
 387 0229 01       		.uleb128 0x1
 388 022a 30       		.byte	0x30
 389 022b 02       		.uleb128 0x2
 390 022c 01       		.uleb128 0x1
 391 022d 52       		.byte	0x52
 392 022e 02       		.uleb128 0x2
 393 022f 08       		.byte	0x8
 394 0230 3C       		.byte	0x3c
 395 0231 02       		.uleb128 0x2
 396 0232 01       		.uleb128 0x1
 397 0233 53       		.byte	0x53
 398 0234 01       		.uleb128 0x1
 399 0235 30       		.byte	0x30
ARM GAS  C:\Users\DEVELO~1\AppData\Local\Temp\ccHgW5fR.s 			page 8


 400 0236 00       		.byte	0
 401 0237 11       		.uleb128 0x11
 402 0238 4C000000 		.4byte	.LVL9
 403 023c 5E010000 		.4byte	0x15e
 404 0240 02       		.uleb128 0x2
 405 0241 01       		.uleb128 0x1
 406 0242 50       		.byte	0x50
 407 0243 03       		.uleb128 0x3
 408 0244 0A       		.byte	0xa
 409 0245 1027     		.2byte	0x2710
 410 0247 00       		.byte	0
 411 0248 00       		.byte	0
 412 0249 00       		.byte	0
 413              		.section	.debug_abbrev,"",%progbits
 414              	.Ldebug_abbrev0:
 415 0000 01       		.uleb128 0x1
 416 0001 24       		.uleb128 0x24
 417 0002 00       		.byte	0
 418 0003 0B       		.uleb128 0xb
 419 0004 0B       		.uleb128 0xb
 420 0005 3E       		.uleb128 0x3e
 421 0006 0B       		.uleb128 0xb
 422 0007 03       		.uleb128 0x3
 423 0008 0E       		.uleb128 0xe
 424 0009 00       		.byte	0
 425 000a 00       		.byte	0
 426 000b 02       		.uleb128 0x2
 427 000c 49       		.uleb128 0x49
 428 000d 00       		.byte	0
 429 000e 02       		.uleb128 0x2
 430 000f 18       		.uleb128 0x18
 431 0010 7E       		.uleb128 0x7e
 432 0011 18       		.uleb128 0x18
 433 0012 00       		.byte	0
 434 0013 00       		.byte	0
 435 0014 03       		.uleb128 0x3
 436 0015 16       		.uleb128 0x16
 437 0016 00       		.byte	0
 438 0017 03       		.uleb128 0x3
 439 0018 0E       		.uleb128 0xe
 440 0019 3A       		.uleb128 0x3a
 441 001a 0B       		.uleb128 0xb
 442 001b 3B       		.uleb128 0x3b
 443 001c 0B       		.uleb128 0xb
 444 001d 39       		.uleb128 0x39
 445 001e 0B       		.uleb128 0xb
 446 001f 49       		.uleb128 0x49
 447 0020 13       		.uleb128 0x13
 448 0021 00       		.byte	0
 449 0022 00       		.byte	0
 450 0023 04       		.uleb128 0x4
 451 0024 05       		.uleb128 0x5
 452 0025 00       		.byte	0
 453 0026 49       		.uleb128 0x49
 454 0027 13       		.uleb128 0x13
 455 0028 00       		.byte	0
 456 0029 00       		.byte	0
ARM GAS  C:\Users\DEVELO~1\AppData\Local\Temp\ccHgW5fR.s 			page 9


 457 002a 05       		.uleb128 0x5
 458 002b 48       		.uleb128 0x48
 459 002c 00       		.byte	0
 460 002d 7D       		.uleb128 0x7d
 461 002e 01       		.uleb128 0x1
 462 002f 7F       		.uleb128 0x7f
 463 0030 13       		.uleb128 0x13
 464 0031 00       		.byte	0
 465 0032 00       		.byte	0
 466 0033 06       		.uleb128 0x6
 467 0034 28       		.uleb128 0x28
 468 0035 00       		.byte	0
 469 0036 03       		.uleb128 0x3
 470 0037 0E       		.uleb128 0xe
 471 0038 1C       		.uleb128 0x1c
 472 0039 0B       		.uleb128 0xb
 473 003a 00       		.byte	0
 474 003b 00       		.byte	0
 475 003c 07       		.uleb128 0x7
 476 003d 48       		.uleb128 0x48
 477 003e 01       		.byte	0x1
 478 003f 7D       		.uleb128 0x7d
 479 0040 01       		.uleb128 0x1
 480 0041 7F       		.uleb128 0x7f
 481 0042 13       		.uleb128 0x13
 482 0043 01       		.uleb128 0x1
 483 0044 13       		.uleb128 0x13
 484 0045 00       		.byte	0
 485 0046 00       		.byte	0
 486 0047 08       		.uleb128 0x8
 487 0048 2E       		.uleb128 0x2e
 488 0049 01       		.byte	0x1
 489 004a 3F       		.uleb128 0x3f
 490 004b 19       		.uleb128 0x19
 491 004c 03       		.uleb128 0x3
 492 004d 0E       		.uleb128 0xe
 493 004e 3A       		.uleb128 0x3a
 494 004f 21       		.uleb128 0x21
 495 0050 05       		.sleb128 5
 496 0051 3B       		.uleb128 0x3b
 497 0052 0B       		.uleb128 0xb
 498 0053 39       		.uleb128 0x39
 499 0054 21       		.uleb128 0x21
 500 0055 06       		.sleb128 6
 501 0056 27       		.uleb128 0x27
 502 0057 19       		.uleb128 0x19
 503 0058 3C       		.uleb128 0x3c
 504 0059 19       		.uleb128 0x19
 505 005a 01       		.uleb128 0x1
 506 005b 13       		.uleb128 0x13
 507 005c 00       		.byte	0
 508 005d 00       		.byte	0
 509 005e 09       		.uleb128 0x9
 510 005f 2E       		.uleb128 0x2e
 511 0060 00       		.byte	0
 512 0061 3F       		.uleb128 0x3f
 513 0062 19       		.uleb128 0x19
ARM GAS  C:\Users\DEVELO~1\AppData\Local\Temp\ccHgW5fR.s 			page 10


 514 0063 03       		.uleb128 0x3
 515 0064 0E       		.uleb128 0xe
 516 0065 3A       		.uleb128 0x3a
 517 0066 0B       		.uleb128 0xb
 518 0067 3B       		.uleb128 0x3b
 519 0068 0B       		.uleb128 0xb
 520 0069 39       		.uleb128 0x39
 521 006a 21       		.uleb128 0x21
 522 006b 06       		.sleb128 6
 523 006c 27       		.uleb128 0x27
 524 006d 19       		.uleb128 0x19
 525 006e 3C       		.uleb128 0x3c
 526 006f 19       		.uleb128 0x19
 527 0070 00       		.byte	0
 528 0071 00       		.byte	0
 529 0072 0A       		.uleb128 0xa
 530 0073 2E       		.uleb128 0x2e
 531 0074 00       		.byte	0
 532 0075 3F       		.uleb128 0x3f
 533 0076 19       		.uleb128 0x19
 534 0077 03       		.uleb128 0x3
 535 0078 0E       		.uleb128 0xe
 536 0079 3A       		.uleb128 0x3a
 537 007a 0B       		.uleb128 0xb
 538 007b 3B       		.uleb128 0x3b
 539 007c 05       		.uleb128 0x5
 540 007d 39       		.uleb128 0x39
 541 007e 21       		.uleb128 0x21
 542 007f 08       		.sleb128 8
 543 0080 27       		.uleb128 0x27
 544 0081 19       		.uleb128 0x19
 545 0082 3C       		.uleb128 0x3c
 546 0083 19       		.uleb128 0x19
 547 0084 00       		.byte	0
 548 0085 00       		.byte	0
 549 0086 0B       		.uleb128 0xb
 550 0087 11       		.uleb128 0x11
 551 0088 01       		.byte	0x1
 552 0089 25       		.uleb128 0x25
 553 008a 0E       		.uleb128 0xe
 554 008b 13       		.uleb128 0x13
 555 008c 0B       		.uleb128 0xb
 556 008d 03       		.uleb128 0x3
 557 008e 0E       		.uleb128 0xe
 558 008f 1B       		.uleb128 0x1b
 559 0090 0E       		.uleb128 0xe
 560 0091 55       		.uleb128 0x55
 561 0092 17       		.uleb128 0x17
 562 0093 11       		.uleb128 0x11
 563 0094 01       		.uleb128 0x1
 564 0095 10       		.uleb128 0x10
 565 0096 17       		.uleb128 0x17
 566 0097 00       		.byte	0
 567 0098 00       		.byte	0
 568 0099 0C       		.uleb128 0xc
 569 009a 24       		.uleb128 0x24
 570 009b 00       		.byte	0
ARM GAS  C:\Users\DEVELO~1\AppData\Local\Temp\ccHgW5fR.s 			page 11


 571 009c 0B       		.uleb128 0xb
 572 009d 0B       		.uleb128 0xb
 573 009e 3E       		.uleb128 0x3e
 574 009f 0B       		.uleb128 0xb
 575 00a0 03       		.uleb128 0x3
 576 00a1 08       		.uleb128 0x8
 577 00a2 00       		.byte	0
 578 00a3 00       		.byte	0
 579 00a4 0D       		.uleb128 0xd
 580 00a5 04       		.uleb128 0x4
 581 00a6 01       		.byte	0x1
 582 00a7 3E       		.uleb128 0x3e
 583 00a8 0B       		.uleb128 0xb
 584 00a9 0B       		.uleb128 0xb
 585 00aa 0B       		.uleb128 0xb
 586 00ab 49       		.uleb128 0x49
 587 00ac 13       		.uleb128 0x13
 588 00ad 3A       		.uleb128 0x3a
 589 00ae 0B       		.uleb128 0xb
 590 00af 3B       		.uleb128 0x3b
 591 00b0 0B       		.uleb128 0xb
 592 00b1 39       		.uleb128 0x39
 593 00b2 0B       		.uleb128 0xb
 594 00b3 01       		.uleb128 0x1
 595 00b4 13       		.uleb128 0x13
 596 00b5 00       		.byte	0
 597 00b6 00       		.byte	0
 598 00b7 0E       		.uleb128 0xe
 599 00b8 2E       		.uleb128 0x2e
 600 00b9 00       		.byte	0
 601 00ba 3F       		.uleb128 0x3f
 602 00bb 19       		.uleb128 0x19
 603 00bc 03       		.uleb128 0x3
 604 00bd 0E       		.uleb128 0xe
 605 00be 3A       		.uleb128 0x3a
 606 00bf 0B       		.uleb128 0xb
 607 00c0 3B       		.uleb128 0x3b
 608 00c1 0B       		.uleb128 0xb
 609 00c2 39       		.uleb128 0x39
 610 00c3 0B       		.uleb128 0xb
 611 00c4 27       		.uleb128 0x27
 612 00c5 19       		.uleb128 0x19
 613 00c6 49       		.uleb128 0x49
 614 00c7 13       		.uleb128 0x13
 615 00c8 3C       		.uleb128 0x3c
 616 00c9 19       		.uleb128 0x19
 617 00ca 00       		.byte	0
 618 00cb 00       		.byte	0
 619 00cc 0F       		.uleb128 0xf
 620 00cd 2E       		.uleb128 0x2e
 621 00ce 01       		.byte	0x1
 622 00cf 3F       		.uleb128 0x3f
 623 00d0 19       		.uleb128 0x19
 624 00d1 03       		.uleb128 0x3
 625 00d2 0E       		.uleb128 0xe
 626 00d3 3A       		.uleb128 0x3a
 627 00d4 0B       		.uleb128 0xb
ARM GAS  C:\Users\DEVELO~1\AppData\Local\Temp\ccHgW5fR.s 			page 12


 628 00d5 3B       		.uleb128 0x3b
 629 00d6 05       		.uleb128 0x5
 630 00d7 39       		.uleb128 0x39
 631 00d8 0B       		.uleb128 0xb
 632 00d9 27       		.uleb128 0x27
 633 00da 19       		.uleb128 0x19
 634 00db 3C       		.uleb128 0x3c
 635 00dc 19       		.uleb128 0x19
 636 00dd 01       		.uleb128 0x1
 637 00de 13       		.uleb128 0x13
 638 00df 00       		.byte	0
 639 00e0 00       		.byte	0
 640 00e1 10       		.uleb128 0x10
 641 00e2 2E       		.uleb128 0x2e
 642 00e3 01       		.byte	0x1
 643 00e4 3F       		.uleb128 0x3f
 644 00e5 19       		.uleb128 0x19
 645 00e6 03       		.uleb128 0x3
 646 00e7 0E       		.uleb128 0xe
 647 00e8 3A       		.uleb128 0x3a
 648 00e9 0B       		.uleb128 0xb
 649 00ea 3B       		.uleb128 0x3b
 650 00eb 0B       		.uleb128 0xb
 651 00ec 39       		.uleb128 0x39
 652 00ed 0B       		.uleb128 0xb
 653 00ee 27       		.uleb128 0x27
 654 00ef 19       		.uleb128 0x19
 655 00f0 49       		.uleb128 0x49
 656 00f1 13       		.uleb128 0x13
 657 00f2 11       		.uleb128 0x11
 658 00f3 01       		.uleb128 0x1
 659 00f4 12       		.uleb128 0x12
 660 00f5 06       		.uleb128 0x6
 661 00f6 40       		.uleb128 0x40
 662 00f7 18       		.uleb128 0x18
 663 00f8 7A       		.uleb128 0x7a
 664 00f9 19       		.uleb128 0x19
 665 00fa 00       		.byte	0
 666 00fb 00       		.byte	0
 667 00fc 11       		.uleb128 0x11
 668 00fd 48       		.uleb128 0x48
 669 00fe 01       		.byte	0x1
 670 00ff 7D       		.uleb128 0x7d
 671 0100 01       		.uleb128 0x1
 672 0101 7F       		.uleb128 0x7f
 673 0102 13       		.uleb128 0x13
 674 0103 00       		.byte	0
 675 0104 00       		.byte	0
 676 0105 00       		.byte	0
 677              		.section	.debug_aranges,"",%progbits
 678 0000 1C000000 		.4byte	0x1c
 679 0004 0200     		.2byte	0x2
 680 0006 00000000 		.4byte	.Ldebug_info0
 681 000a 04       		.byte	0x4
 682 000b 00       		.byte	0
 683 000c 0000     		.2byte	0
 684 000e 0000     		.2byte	0
ARM GAS  C:\Users\DEVELO~1\AppData\Local\Temp\ccHgW5fR.s 			page 13


 685 0010 00000000 		.4byte	.LFB432
 686 0014 4E000000 		.4byte	.LFE432-.LFB432
 687 0018 00000000 		.4byte	0
 688 001c 00000000 		.4byte	0
 689              		.section	.debug_rnglists,"",%progbits
 690              	.Ldebug_ranges0:
 691 0000 0F000000 		.4byte	.Ldebug_ranges3-.Ldebug_ranges2
 692              	.Ldebug_ranges2:
 693 0004 0500     		.2byte	0x5
 694 0006 04       		.byte	0x4
 695 0007 00       		.byte	0
 696 0008 00000000 		.4byte	0
 697              	.LLRL0:
 698 000c 07       		.byte	0x7
 699 000d 00000000 		.4byte	.LFB432
 700 0011 4E       		.uleb128 .LFE432-.LFB432
 701 0012 00       		.byte	0
 702              	.Ldebug_ranges3:
 703              		.section	.debug_line,"",%progbits
 704              	.Ldebug_line0:
 705 0000 CF010000 		.section	.debug_str,"MS",%progbits,1
 705      03006901 
 705      00000201 
 705      FB0E0D00 
 705      01010101 
 706              	.LASF8:
 707 0000 5F5F7569 		.ascii	"__uint8_t\000"
 707      6E74385F 
 707      7400
 708              	.LASF28:
 709 000a 6D696469 		.ascii	"midi_init\000"
 709      5F696E69 
 709      7400
 710              	.LASF20:
 711 0014 4D494449 		.ascii	"MIDI_DEST_NONE\000"
 711      5F444553 
 711      545F4E4F 
 711      4E4500
 712              	.LASF17:
 713 0023 73797369 		.ascii	"sysinterval_t\000"
 713      6E746572 
 713      76616C5F 
 713      7400
 714              	.LASF35:
 715 0031 7573625F 		.ascii	"usb_device_active\000"
 715      64657669 
 715      63655F61 
 715      63746976 
 715      6500
 716              	.LASF18:
 717 0043 74696D65 		.ascii	"time_conv_t\000"
 717      5F636F6E 
 717      765F7400 
 718              	.LASF31:
 719 004f 68616C49 		.ascii	"halInit\000"
 719      6E697400 
 720              	.LASF15:
ARM GAS  C:\Users\DEVELO~1\AppData\Local\Temp\ccHgW5fR.s 			page 14


 721 0057 75696E74 		.ascii	"uint64_t\000"
 721      36345F74 
 721      00
 722              	.LASF32:
 723 0060 474E5520 		.ascii	"GNU C17 11.3.1 20220712 -mcpu=cortex-m7 -mthumb -mf"
 723      43313720 
 723      31312E33 
 723      2E312032 
 723      30323230 
 724 0093 6C6F6174 		.ascii	"loat-abi=soft -march=armv7e-m -ggdb -O2 -fomit-fram"
 724      2D616269 
 724      3D736F66 
 724      74202D6D 
 724      61726368 
 725 00c6 652D706F 		.ascii	"e-pointer -falign-functions=16 -ffunction-sections "
 725      696E7465 
 725      72202D66 
 725      616C6967 
 725      6E2D6675 
 726 00f9 2D666461 		.ascii	"-fdata-sections -fno-common\000"
 726      74612D73 
 726      65637469 
 726      6F6E7320 
 726      2D666E6F 
 727              	.LASF24:
 728 0115 6D696469 		.ascii	"midi_dest_t\000"
 728      5F646573 
 728      745F7400 
 729              	.LASF12:
 730 0121 6C6F6E67 		.ascii	"long long unsigned int\000"
 730      206C6F6E 
 730      6720756E 
 730      7369676E 
 730      65642069 
 731              	.LASF4:
 732 0138 756E7369 		.ascii	"unsigned char\000"
 732      676E6564 
 732      20636861 
 732      7200
 733              	.LASF27:
 734 0146 63685468 		.ascii	"chThdSleep\000"
 734      64536C65 
 734      657000
 735              	.LASF30:
 736 0151 63685379 		.ascii	"chSysInit\000"
 736      73496E69 
 736      7400
 737              	.LASF10:
 738 015b 6C6F6E67 		.ascii	"long unsigned int\000"
 738      20756E73 
 738      69676E65 
 738      6420696E 
 738      7400
 739              	.LASF6:
 740 016d 73686F72 		.ascii	"short unsigned int\000"
 740      7420756E 
 740      7369676E 
ARM GAS  C:\Users\DEVELO~1\AppData\Local\Temp\ccHgW5fR.s 			page 15


 740      65642069 
 740      6E7400
 741              	.LASF34:
 742 0180 433A5C50 		.ascii	"C:\\PROJET\\ChibiOS project\\ChibiOS_21.11.4\\demos"
 742      524F4A45 
 742      545C4368 
 742      6962694F 
 742      53207072 
 743 01af 5C53544D 		.ascii	"\\STM32\\RT-STM32H743ZI_REV_XY-NUCLEO144\000"
 743      33325C52 
 743      542D5354 
 743      4D333248 
 743      3734335A 
 744              	.LASF9:
 745 01d6 5F5F7569 		.ascii	"__uint32_t\000"
 745      6E743332 
 745      5F7400
 746              	.LASF36:
 747 01e1 6D61696E 		.ascii	"main\000"
 747      00
 748              	.LASF0:
 749 01e6 756E7369 		.ascii	"unsigned int\000"
 749      676E6564 
 749      20696E74 
 749      00
 750              	.LASF16:
 751 01f3 63686172 		.ascii	"char\000"
 751      00
 752              	.LASF13:
 753 01f8 75696E74 		.ascii	"uint8_t\000"
 753      385F7400 
 754              	.LASF22:
 755 0200 4D494449 		.ascii	"MIDI_DEST_USB\000"
 755      5F444553 
 755      545F5553 
 755      4200
 756              	.LASF1:
 757 020e 6C6F6E67 		.ascii	"long long int\000"
 757      206C6F6E 
 757      6720696E 
 757      7400
 758              	.LASF23:
 759 021c 4D494449 		.ascii	"MIDI_DEST_BOTH\000"
 759      5F444553 
 759      545F424F 
 759      544800
 760              	.LASF5:
 761 022b 73686F72 		.ascii	"short int\000"
 761      7420696E 
 761      7400
 762              	.LASF11:
 763 0235 5F5F7569 		.ascii	"__uint64_t\000"
 763      6E743634 
 763      5F7400
 764              	.LASF26:
 765 0240 6D696469 		.ascii	"midi_note_on\000"
 765      5F6E6F74 
ARM GAS  C:\Users\DEVELO~1\AppData\Local\Temp\ccHgW5fR.s 			page 16


 765      655F6F6E 
 765      00
 766              	.LASF14:
 767 024d 75696E74 		.ascii	"uint32_t\000"
 767      33325F74 
 767      00
 768              	.LASF7:
 769 0256 6C6F6E67 		.ascii	"long int\000"
 769      20696E74 
 769      00
 770              	.LASF2:
 771 025f 6C6F6E67 		.ascii	"long double\000"
 771      20646F75 
 771      626C6500 
 772              	.LASF3:
 773 026b 7369676E 		.ascii	"signed char\000"
 773      65642063 
 773      68617200 
 774              	.LASF25:
 775 0277 6D696469 		.ascii	"midi_note_off\000"
 775      5F6E6F74 
 775      655F6F66 
 775      6600
 776              	.LASF29:
 777 0285 7573625F 		.ascii	"usb_device_start\000"
 777      64657669 
 777      63655F73 
 777      74617274 
 777      00
 778              	.LASF19:
 779 0296 5F426F6F 		.ascii	"_Bool\000"
 779      6C00
 780              	.LASF21:
 781 029c 4D494449 		.ascii	"MIDI_DEST_UART\000"
 781      5F444553 
 781      545F5541 
 781      525400
 782              	.LASF33:
 783 02ab 6D61696E 		.ascii	"main.c\000"
 783      2E6300
 784              		.ident	"GCC: (Arm GNU Toolchain 11.3.Rel1) 11.3.1 20220712"
ARM GAS  C:\Users\DEVELO~1\AppData\Local\Temp\ccHgW5fR.s 			page 17


DEFINED SYMBOLS
                            *ABS*:00000000 main.c
C:\Users\DEVELO~1\AppData\Local\Temp\ccHgW5fR.s:18     .text.startup.main:00000000 $t
C:\Users\DEVELO~1\AppData\Local\Temp\ccHgW5fR.s:25     .text.startup.main:00000000 main

UNDEFINED SYMBOLS
halInit
chSysInit
usb_device_start
midi_init
chThdSleep
usb_device_active
midi_note_on
midi_note_off
