ARM GAS  C:\Users\DEVELO~1\AppData\Local\Temp\cc4M0Z3o.s 			page 1


   1              		.cpu cortex-m7
   2              		.arch armv7e-m
   3              		.fpu softvfp
   4              		.eabi_attribute 20, 1
   5              		.eabi_attribute 21, 1
   6              		.eabi_attribute 23, 3
   7              		.eabi_attribute 24, 1
   8              		.eabi_attribute 25, 1
   9              		.eabi_attribute 26, 1
  10              		.eabi_attribute 30, 2
  11              		.eabi_attribute 34, 1
  12              		.eabi_attribute 18, 4
  13              		.file	"main.c"
  14              		.text
  15              	.Ltext0:
  16              		.cfi_sections	.debug_frame
  17              		.section	.rodata.main.str1.4,"aMS",%progbits,1
  18              		.align	2
  19              	.LC0:
  20 0000 0D0A00   		.ascii	"\015\012\000"
  21 0003 00       		.align	2
  22              	.LC1:
  23 0004 3D3D3D3D 		.ascii	"========================================\015\012\000"
  23      3D3D3D3D 
  23      3D3D3D3D 
  23      3D3D3D3D 
  23      3D3D3D3D 
  24 002f 00       		.align	2
  25              	.LC2:
  26 0030 2053544D 		.ascii	" STM32H743 Clock & SDRAM Check\015\012\000"
  26      33324837 
  26      34332043 
  26      6C6F636B 
  26      20262053 
  27 0051 000000   		.align	2
  28              	.LC3:
  29 0054 5359535F 		.ascii	"SYS_CK  : %lu Hz\015\012\000"
  29      434B2020 
  29      3A20256C 
  29      7520487A 
  29      0D0A00
  30 0067 00       		.align	2
  31              	.LC4:
  32 0068 48434C4B 		.ascii	"HCLK    : %lu Hz\015\012\000"
  32      20202020 
  32      3A20256C 
  32      7520487A 
  32      0D0A00
  33 007b 00       		.align	2
  34              	.LC5:
  35 007c 50434C4B 		.ascii	"PCLK1   : %lu Hz\015\012\000"
  35      31202020 
  35      3A20256C 
  35      7520487A 
  35      0D0A00
  36 008f 00       		.align	2
  37              	.LC6:
ARM GAS  C:\Users\DEVELO~1\AppData\Local\Temp\cc4M0Z3o.s 			page 2


  38 0090 50434C4B 		.ascii	"PCLK2   : %lu Hz\015\012\000"
  38      32202020 
  38      3A20256C 
  38      7520487A 
  38      0D0A00
  39 00a3 00       		.align	2
  40              	.LC7:
  41 00a4 50434C4B 		.ascii	"PCLK3   : %lu Hz\015\012\000"
  41      33202020 
  41      3A20256C 
  41      7520487A 
  41      0D0A00
  42 00b7 00       		.align	2
  43              	.LC8:
  44 00b8 50434C4B 		.ascii	"PCLK4   : %lu Hz\015\012\000"
  44      34202020 
  44      3A20256C 
  44      7520487A 
  44      0D0A00
  45 00cb 00       		.align	2
  46              	.LC9:
  47 00cc 41737375 		.ascii	"Assumed FMC SDCLK : ~%lu Hz (HCLK / 2)\015\012\000"
  47      6D656420 
  47      464D4320 
  47      5344434C 
  47      4B203A20 
  48 00f5 000000   		.align	2
  49              	.LC10:
  50 00f8 0D0A5B49 		.ascii	"\015\012[INFO] SDRAM not initialized, starting init"
  50      4E464F5D 
  50      20534452 
  50      414D206E 
  50      6F742069 
  51 0125 2E2E2E0D 		.ascii	"...\015\012\000"
  51      0A00
  52 012b 00       		.align	2
  53              	.LC11:
  54 012c 5B455252 		.ascii	"[ERR ] SDRAM init FAILED\015\012\000"
  54      205D2053 
  54      4452414D 
  54      20696E69 
  54      74204641 
  55 0147 00       		.align	2
  56              	.LC12:
  57 0148 5B4F4B20 		.ascii	"[OK  ] SDRAM init OK\015\012\000"
  57      205D2053 
  57      4452414D 
  57      20696E69 
  57      74204F4B 
  58 015f 00       		.align	2
  59              	.LC13:
  60 0160 5B455252 		.ascii	"[ERR ] SDRAM QUICK_BIST FAILED\015\012\000"
  60      205D2053 
  60      4452414D 
  60      20515549 
  60      434B5F42 
  61 0181 000000   		.align	2
ARM GAS  C:\Users\DEVELO~1\AppData\Local\Temp\cc4M0Z3o.s 			page 3


  62              	.LC14:
  63 0184 5B4F4B20 		.ascii	"[OK  ] SDRAM QUICK_BIST PASSED\015\012\000"
  63      205D2053 
  63      4452414D 
  63      20515549 
  63      434B5F42 
  64 01a5 000000   		.align	2
  65              	.LC15:
  66 01a8 0D0A5B4F 		.ascii	"\015\012[OK  ] SDRAM already initialized\015\012\000"
  66      4B20205D 
  66      20534452 
  66      414D2061 
  66      6C726561 
  67              		.section	.text.startup.main,"ax",%progbits
  68              		.align	1
  69              		.p2align 4,,15
  70              		.global	main
  71              		.syntax unified
  72              		.thumb
  73              		.thumb_func
  74              		.type	main, %function
  75              	main:
  76              	.LFB432:
  77              		.file 1 "main.c"
  78              		.loc 1 17 16 view -0
  79              		.cfi_startproc
  80              		@ args = 0, pretend = 0, frame = 0
  81              		@ frame_needed = 0, uses_anonymous_args = 0
  82              		.loc 1 19 5 view .LVU1
  83              		.loc 1 17 16 is_stmt 0 view .LVU2
  84 0000 2DE9F047 		push	{r4, r5, r6, r7, r8, r9, r10, lr}
  85              		.cfi_def_cfa_offset 32
  86              		.cfi_offset 4, -32
  87              		.cfi_offset 5, -28
  88              		.cfi_offset 6, -24
  89              		.cfi_offset 7, -20
  90              		.cfi_offset 8, -16
  91              		.cfi_offset 9, -12
  92              		.cfi_offset 10, -8
  93              		.cfi_offset 14, -4
  94              		.loc 1 29 9 view .LVU3
  95 0004 3C4C     		ldr	r4, .L11
  96              		.loc 1 19 5 view .LVU4
  97 0006 FFF7FEFF 		bl	halInit
  98              	.LVL0:
  99              		.loc 1 20 5 is_stmt 1 view .LVU5
 100 000a FFF7FEFF 		bl	chSysInit
 101              	.LVL1:
 102              		.loc 1 23 5 view .LVU6
 103 000e 3B49     		ldr	r1, .L11+4
 104 0010 2046     		mov	r0, r4
 105              		.loc 1 29 9 is_stmt 0 view .LVU7
 106 0012 DFF8ECA0 		ldr	r10, .L11+8
 107              		.loc 1 23 5 view .LVU8
 108 0016 FFF7FEFF 		bl	sdStart
 109              	.LVL2:
 110              		.loc 1 25 5 is_stmt 1 view .LVU9
ARM GAS  C:\Users\DEVELO~1\AppData\Local\Temp\cc4M0Z3o.s 			page 4


 111 001a 4FF4FA60 		mov	r0, #2000
 112              		.loc 1 30 9 is_stmt 0 view .LVU10
 113 001e 394F     		ldr	r7, .L11+12
 114              		.loc 1 25 5 view .LVU11
 115 0020 FFF7FEFF 		bl	chThdSleep
 116              	.LVL3:
 117              		.loc 1 35 9 view .LVU12
 118 0024 DFF8E090 		ldr	r9, .L11+16
 119              		.loc 1 36 9 view .LVU13
 120 0028 DFF8E080 		ldr	r8, .L11+20
 121              		.loc 1 37 9 view .LVU14
 122 002c 384D     		ldr	r5, .L11+24
 123 002e 17E0     		b	.L6
 124              	.L10:
 125              	.LBB2:
 126              		.loc 1 47 13 view .LVU15
 127 0030 FFF7FEFF 		bl	chprintf
 128              	.LVL4:
 129              		.loc 1 49 13 is_stmt 1 view .LVU16
 130 0034 0120     		movs	r0, #1
 131 0036 FFF7FEFF 		bl	sdram_init
 132              	.LVL5:
 133              		.loc 1 51 13 view .LVU17
 134              		.loc 1 51 35 is_stmt 0 view .LVU18
 135 003a FFF7FEFF 		bl	sdram_status
 136              	.LVL6:
 137              		.loc 1 53 17 is_stmt 1 view .LVU19
 138              		.loc 1 51 35 is_stmt 0 view .LVU20
 139 003e 0346     		mov	r3, r0
 140              	.LVL7:
 141              		.loc 1 52 13 is_stmt 1 view .LVU21
 142              		.loc 1 53 17 is_stmt 0 view .LVU22
 143 0040 3449     		ldr	r1, .L11+28
 144 0042 2046     		mov	r0, r4
 145              		.loc 1 52 40 view .LVU23
 146 0044 023B     		subs	r3, r3, #2
 147              	.LVL8:
 148              		.loc 1 52 16 view .LVU24
 149 0046 DBB2     		uxtb	r3, r3
 150 0048 012B     		cmp	r3, #1
 151 004a 45D9     		bls	.L3
 152              	.L8:
 153              		.loc 1 52 16 view .LVU25
 154              	.LBE2:
 155              		.loc 1 64 13 view .LVU26
 156 004c FFF7FEFF 		bl	chprintf
 157              	.LVL9:
 158              	.L4:
 159              		.loc 1 67 9 is_stmt 1 view .LVU27
 160 0050 3946     		mov	r1, r7
 161 0052 2046     		mov	r0, r4
 162 0054 FFF7FEFF 		bl	chprintf
 163              	.LVL10:
 164              		.loc 1 70 9 view .LVU28
 165 0058 44F62060 		movw	r0, #20000
 166 005c FFF7FEFF 		bl	chThdSleep
 167              	.LVL11:
ARM GAS  C:\Users\DEVELO~1\AppData\Local\Temp\cc4M0Z3o.s 			page 5


 168              		.loc 1 27 11 view .LVU29
 169              	.L6:
 170              		.loc 1 27 5 view .LVU30
 171              		.loc 1 29 9 view .LVU31
 172 0060 5146     		mov	r1, r10
 173 0062 2046     		mov	r0, r4
 174 0064 FFF7FEFF 		bl	chprintf
 175              	.LVL12:
 176              		.loc 1 30 9 view .LVU32
 177 0068 3946     		mov	r1, r7
 178 006a 2046     		mov	r0, r4
 179 006c FFF7FEFF 		bl	chprintf
 180              	.LVL13:
 181              		.loc 1 31 9 view .LVU33
 182 0070 2949     		ldr	r1, .L11+32
 183 0072 2046     		mov	r0, r4
 184 0074 FFF7FEFF 		bl	chprintf
 185              	.LVL14:
 186              		.loc 1 32 9 view .LVU34
 187 0078 3946     		mov	r1, r7
 188 007a 2046     		mov	r0, r4
 189 007c FFF7FEFF 		bl	chprintf
 190              	.LVL15:
 191              		.loc 1 35 9 view .LVU35
 192 0080 4A46     		mov	r2, r9
 193 0082 2649     		ldr	r1, .L11+36
 194 0084 2046     		mov	r0, r4
 195 0086 FFF7FEFF 		bl	chprintf
 196              	.LVL16:
 197              		.loc 1 36 9 view .LVU36
 198 008a 4246     		mov	r2, r8
 199 008c 2449     		ldr	r1, .L11+40
 200 008e 2046     		mov	r0, r4
 201 0090 FFF7FEFF 		bl	chprintf
 202              	.LVL17:
 203              		.loc 1 37 9 view .LVU37
 204 0094 2A46     		mov	r2, r5
 205 0096 2349     		ldr	r1, .L11+44
 206 0098 2046     		mov	r0, r4
 207 009a FFF7FEFF 		bl	chprintf
 208              	.LVL18:
 209              		.loc 1 38 9 view .LVU38
 210 009e 2A46     		mov	r2, r5
 211 00a0 2149     		ldr	r1, .L11+48
 212 00a2 2046     		mov	r0, r4
 213 00a4 FFF7FEFF 		bl	chprintf
 214              	.LVL19:
 215              		.loc 1 39 9 view .LVU39
 216 00a8 2A46     		mov	r2, r5
 217 00aa 2049     		ldr	r1, .L11+52
 218 00ac 2046     		mov	r0, r4
 219 00ae FFF7FEFF 		bl	chprintf
 220              	.LVL20:
 221              		.loc 1 40 9 view .LVU40
 222 00b2 2A46     		mov	r2, r5
 223 00b4 1E49     		ldr	r1, .L11+56
 224 00b6 2046     		mov	r0, r4
ARM GAS  C:\Users\DEVELO~1\AppData\Local\Temp\cc4M0Z3o.s 			page 6


 225 00b8 FFF7FEFF 		bl	chprintf
 226              	.LVL21:
 227              		.loc 1 42 9 view .LVU41
 228 00bc 1D49     		ldr	r1, .L11+60
 229 00be 2A46     		mov	r2, r5
 230 00c0 2046     		mov	r0, r4
 231 00c2 FFF7FEFF 		bl	chprintf
 232              	.LVL22:
 233              		.loc 1 46 9 view .LVU42
 234              		.loc 1 46 14 is_stmt 0 view .LVU43
 235 00c6 FFF7FEFF 		bl	sdram_is_initialized
 236              	.LVL23:
 237              	.LBB3:
 238              		.loc 1 47 13 is_stmt 1 view .LVU44
 239              	.LBE3:
 240              		.loc 1 46 14 is_stmt 0 view .LVU45
 241 00ca 0646     		mov	r6, r0
 242              	.LBB4:
 243              		.loc 1 47 13 view .LVU46
 244 00cc 1A49     		ldr	r1, .L11+64
 245 00ce 2046     		mov	r0, r4
 246              	.LBE4:
 247              		.loc 1 46 12 view .LVU47
 248 00d0 002E     		cmp	r6, #0
 249 00d2 ADD0     		beq	.L10
 250              		.loc 1 64 13 is_stmt 1 view .LVU48
 251 00d4 1949     		ldr	r1, .L11+68
 252 00d6 B9E7     		b	.L8
 253              	.L3:
 254              	.LBB5:
 255              		.loc 1 55 17 view .LVU49
 256 00d8 1949     		ldr	r1, .L11+72
 257 00da FFF7FEFF 		bl	chprintf
 258              	.LVL24:
 259              		.loc 1 57 17 view .LVU50
 260              		.loc 1 57 22 is_stmt 0 view .LVU51
 261 00de 3146     		mov	r1, r6
 262 00e0 3046     		mov	r0, r6
 263 00e2 FFF7FEFF 		bl	sdram_run_bist
 264              	.LVL25:
 265              		.loc 1 58 21 is_stmt 1 view .LVU52
 266              		.loc 1 60 21 view .LVU53
 267              		.loc 1 57 22 is_stmt 0 view .LVU54
 268 00e6 0346     		mov	r3, r0
 269              		.loc 1 58 21 view .LVU55
 270 00e8 1649     		ldr	r1, .L11+76
 271 00ea 2046     		mov	r0, r4
 272              		.loc 1 57 20 view .LVU56
 273 00ec 002B     		cmp	r3, #0
 274 00ee ADD0     		beq	.L8
 275              		.loc 1 60 21 view .LVU57
 276 00f0 1549     		ldr	r1, .L11+80
 277 00f2 FFF7FEFF 		bl	chprintf
 278              	.LVL26:
 279 00f6 ABE7     		b	.L4
 280              	.L12:
 281              		.align	2
ARM GAS  C:\Users\DEVELO~1\AppData\Local\Temp\cc4M0Z3o.s 			page 7


 282              	.L11:
 283 00f8 00000000 		.word	SD1
 284 00fc 00000000 		.word	.LANCHOR0
 285 0100 00000000 		.word	.LC0
 286 0104 04000000 		.word	.LC1
 287 0108 0084D717 		.word	400000000
 288 010c 00C2EB0B 		.word	200000000
 289 0110 00E1F505 		.word	100000000
 290 0114 2C010000 		.word	.LC11
 291 0118 30000000 		.word	.LC2
 292 011c 54000000 		.word	.LC3
 293 0120 68000000 		.word	.LC4
 294 0124 7C000000 		.word	.LC5
 295 0128 90000000 		.word	.LC6
 296 012c A4000000 		.word	.LC7
 297 0130 B8000000 		.word	.LC8
 298 0134 CC000000 		.word	.LC9
 299 0138 F8000000 		.word	.LC10
 300 013c A8010000 		.word	.LC15
 301 0140 48010000 		.word	.LC12
 302 0144 60010000 		.word	.LC13
 303 0148 84010000 		.word	.LC14
 304              	.LBE5:
 305              		.cfi_endproc
 306              	.LFE432:
 307              		.size	main, .-main
 308              		.section	.rodata.uart_cfg,"a"
 309              		.align	2
 310              		.set	.LANCHOR0,. + 0
 311              		.type	uart_cfg, %object
 312              		.size	uart_cfg, 16
 313              	uart_cfg:
 314 0000 00C20100 		.word	115200
 315 0004 00000000 		.word	0
 316 0008 00000000 		.word	0
 317 000c 00000000 		.word	0
 318              		.text
 319              	.Letext0:
 320              		.file 2 "c:\\chibistudio\\tools\\gnu tools arm embedded\\11.3 2022.08\\lib\\gcc\\arm-none-eabi\\11
 321              		.file 3 "c:\\chibistudio\\tools\\gnu tools arm embedded\\11.3 2022.08\\arm-none-eabi\\include\\mac
 322              		.file 4 "c:\\chibistudio\\tools\\gnu tools arm embedded\\11.3 2022.08\\arm-none-eabi\\include\\sys
 323              		.file 5 "../../../os/common/ports/ARM-common/chtypes.h"
 324              		.file 6 "../../../os/rt/include/chearly.h"
 325              		.file 7 "../../../os/rt/include/chobjects.h"
 326              		.file 8 "../../../os/rt/include/chrfcu.h"
 327              		.file 9 "../../../os/rt/include/chdebug.h"
 328              		.file 10 "../../../os/rt/include/chtime.h"
 329              		.file 11 "../../../os/rt/include/chlists.h"
 330              		.file 12 "../../../os/rt/include/chtrace.h"
 331              		.file 13 "../../../os/common/ext/ST/STM32H7xx/stm32h743xx.h"
 332              		.file 14 "../../../os/common/ports/ARMv7-M/chcore.h"
 333              		.file 15 "../../../os/rt/include/chsem.h"
 334              		.file 16 "../../../os/rt/include/chmtx.h"
 335              		.file 17 "../../../os/rt/include/chevents.h"
 336              		.file 18 "../../../os/hal/include/hal_streams.h"
 337              		.file 19 "../../../os/hal/include/hal_queues.h"
 338              		.file 20 "../../../os/hal/include/hal_serial.h"
ARM GAS  C:\Users\DEVELO~1\AppData\Local\Temp\cc4M0Z3o.s 			page 8


 339              		.file 21 "../../../os/hal/ports/STM32/LLD/USARTv3/hal_serial_lld.h"
 340              		.file 22 "drivers/sdram/sdram_driver.h"
 341              		.file 23 "../../../os/hal/lib/streams/chprintf.h"
 342              		.file 24 "../../../os/rt/include/chthreads.h"
 343              		.file 25 "../../../os/rt/include/chsys.h"
 344              		.file 26 "../../../os/hal/include/hal.h"
 345              		.section	.debug_info,"",%progbits
 346              	.Ldebug_info0:
 347 0000 23130000 		.4byte	0x1323
 348 0004 0500     		.2byte	0x5
 349 0006 01       		.byte	0x1
 350 0007 04       		.byte	0x4
 351 0008 00000000 		.4byte	.Ldebug_abbrev0
 352 000c 1D       		.uleb128 0x1d
 353 000d 2D070000 		.4byte	.LASF216
 354 0011 1D       		.byte	0x1d
 355 0012 C3050000 		.4byte	.LASF217
 356 0016 A6010000 		.4byte	.LASF218
 357 001a 24000000 		.4byte	.LLRL2
 358 001e 00000000 		.4byte	0
 359 0022 00000000 		.4byte	.Ldebug_line0
 360 0026 1E       		.uleb128 0x1e
 361 0027 04       		.byte	0x4
 362 0028 05       		.byte	0x5
 363 0029 696E7400 		.ascii	"int\000"
 364 002d 02       		.uleb128 0x2
 365 002e B7030000 		.4byte	.LASF4
 366 0032 02       		.byte	0x2
 367 0033 D1       		.byte	0xd1
 368 0034 17       		.byte	0x17
 369 0035 3E000000 		.4byte	0x3e
 370 0039 15       		.uleb128 0x15
 371 003a 2D000000 		.4byte	0x2d
 372 003e 0C       		.uleb128 0xc
 373 003f 04       		.byte	0x4
 374 0040 07       		.byte	0x7
 375 0041 C0000000 		.4byte	.LASF0
 376 0045 0C       		.uleb128 0xc
 377 0046 08       		.byte	0x8
 378 0047 05       		.byte	0x5
 379 0048 36050000 		.4byte	.LASF1
 380 004c 0C       		.uleb128 0xc
 381 004d 08       		.byte	0x8
 382 004e 04       		.byte	0x4
 383 004f EB060000 		.4byte	.LASF2
 384 0053 0C       		.uleb128 0xc
 385 0054 01       		.byte	0x1
 386 0055 06       		.byte	0x6
 387 0056 2D0A0000 		.4byte	.LASF3
 388 005a 02       		.uleb128 0x2
 389 005b 9C080000 		.4byte	.LASF5
 390 005f 03       		.byte	0x3
 391 0060 2B       		.byte	0x2b
 392 0061 18       		.byte	0x18
 393 0062 66000000 		.4byte	0x66
 394 0066 0C       		.uleb128 0xc
 395 0067 01       		.byte	0x1
ARM GAS  C:\Users\DEVELO~1\AppData\Local\Temp\cc4M0Z3o.s 			page 9


 396 0068 08       		.byte	0x8
 397 0069 A4090000 		.4byte	.LASF6
 398 006d 0C       		.uleb128 0xc
 399 006e 02       		.byte	0x2
 400 006f 05       		.byte	0x5
 401 0070 E9070000 		.4byte	.LASF7
 402 0074 02       		.uleb128 0x2
 403 0075 32030000 		.4byte	.LASF8
 404 0079 03       		.byte	0x3
 405 007a 39       		.byte	0x39
 406 007b 19       		.byte	0x19
 407 007c 80000000 		.4byte	0x80
 408 0080 0C       		.uleb128 0xc
 409 0081 02       		.byte	0x2
 410 0082 07       		.byte	0x7
 411 0083 D8060000 		.4byte	.LASF9
 412 0087 02       		.uleb128 0x2
 413 0088 EB000000 		.4byte	.LASF10
 414 008c 03       		.byte	0x3
 415 008d 4D       		.byte	0x4d
 416 008e 18       		.byte	0x18
 417 008f 93000000 		.4byte	0x93
 418 0093 0C       		.uleb128 0xc
 419 0094 04       		.byte	0x4
 420 0095 05       		.byte	0x5
 421 0096 00000000 		.4byte	.LASF11
 422 009a 02       		.uleb128 0x2
 423 009b B2090000 		.4byte	.LASF12
 424 009f 03       		.byte	0x3
 425 00a0 4F       		.byte	0x4f
 426 00a1 19       		.byte	0x19
 427 00a2 A6000000 		.4byte	0xa6
 428 00a6 0C       		.uleb128 0xc
 429 00a7 04       		.byte	0x4
 430 00a8 07       		.byte	0x7
 431 00a9 4C060000 		.4byte	.LASF13
 432 00ad 02       		.uleb128 0x2
 433 00ae 44050000 		.4byte	.LASF14
 434 00b2 03       		.byte	0x3
 435 00b3 69       		.byte	0x69
 436 00b4 19       		.byte	0x19
 437 00b5 B9000000 		.4byte	0xb9
 438 00b9 0C       		.uleb128 0xc
 439 00ba 08       		.byte	0x8
 440 00bb 07       		.byte	0x7
 441 00bc D7020000 		.4byte	.LASF15
 442 00c0 02       		.uleb128 0x2
 443 00c1 11070000 		.4byte	.LASF16
 444 00c5 03       		.byte	0x3
 445 00c6 E8       		.byte	0xe8
 446 00c7 1A       		.byte	0x1a
 447 00c8 3E000000 		.4byte	0x3e
 448 00cc 02       		.uleb128 0x2
 449 00cd 59050000 		.4byte	.LASF17
 450 00d1 04       		.byte	0x4
 451 00d2 18       		.byte	0x18
 452 00d3 13       		.byte	0x13
ARM GAS  C:\Users\DEVELO~1\AppData\Local\Temp\cc4M0Z3o.s 			page 10


 453 00d4 5A000000 		.4byte	0x5a
 454 00d8 10       		.uleb128 0x10
 455 00d9 CC000000 		.4byte	0xcc
 456 00dd 02       		.uleb128 0x2
 457 00de FE060000 		.4byte	.LASF18
 458 00e2 04       		.byte	0x4
 459 00e3 24       		.byte	0x24
 460 00e4 14       		.byte	0x14
 461 00e5 74000000 		.4byte	0x74
 462 00e9 02       		.uleb128 0x2
 463 00ea 3D090000 		.4byte	.LASF19
 464 00ee 04       		.byte	0x4
 465 00ef 2C       		.byte	0x2c
 466 00f0 13       		.byte	0x13
 467 00f1 87000000 		.4byte	0x87
 468 00f5 02       		.uleb128 0x2
 469 00f6 D2000000 		.4byte	.LASF20
 470 00fa 04       		.byte	0x4
 471 00fb 30       		.byte	0x30
 472 00fc 14       		.byte	0x14
 473 00fd 9A000000 		.4byte	0x9a
 474 0101 15       		.uleb128 0x15
 475 0102 F5000000 		.4byte	0xf5
 476 0106 02       		.uleb128 0x2
 477 0107 6F080000 		.4byte	.LASF21
 478 010b 04       		.byte	0x4
 479 010c 3C       		.byte	0x3c
 480 010d 14       		.byte	0x14
 481 010e AD000000 		.4byte	0xad
 482 0112 15       		.uleb128 0x15
 483 0113 06010000 		.4byte	0x106
 484 0117 02       		.uleb128 0x2
 485 0118 E0080000 		.4byte	.LASF22
 486 011c 04       		.byte	0x4
 487 011d 52       		.byte	0x52
 488 011e 15       		.byte	0x15
 489 011f C0000000 		.4byte	0xc0
 490 0123 02       		.uleb128 0x2
 491 0124 2E080000 		.4byte	.LASF23
 492 0128 05       		.byte	0x5
 493 0129 48       		.byte	0x48
 494 012a 1D       		.byte	0x1d
 495 012b 06010000 		.4byte	0x106
 496 012f 02       		.uleb128 0x2
 497 0130 580A0000 		.4byte	.LASF24
 498 0134 06       		.byte	0x6
 499 0135 50       		.byte	0x50
 500 0136 19       		.byte	0x19
 501 0137 23010000 		.4byte	0x123
 502 013b 02       		.uleb128 0x2
 503 013c C5060000 		.4byte	.LASF25
 504 0140 06       		.byte	0x6
 505 0141 53       		.byte	0x53
 506 0142 19       		.byte	0x19
 507 0143 CC000000 		.4byte	0xcc
 508 0147 02       		.uleb128 0x2
 509 0148 01050000 		.4byte	.LASF26
ARM GAS  C:\Users\DEVELO~1\AppData\Local\Temp\cc4M0Z3o.s 			page 11


 510 014c 06       		.byte	0x6
 511 014d 54       		.byte	0x54
 512 014e 19       		.byte	0x19
 513 014f CC000000 		.4byte	0xcc
 514 0153 02       		.uleb128 0x2
 515 0154 09090000 		.4byte	.LASF27
 516 0158 06       		.byte	0x6
 517 0159 55       		.byte	0x55
 518 015a 19       		.byte	0x19
 519 015b CC000000 		.4byte	0xcc
 520 015f 02       		.uleb128 0x2
 521 0160 AC020000 		.4byte	.LASF28
 522 0164 06       		.byte	0x6
 523 0165 57       		.byte	0x57
 524 0166 19       		.byte	0x19
 525 0167 F5000000 		.4byte	0xf5
 526 016b 02       		.uleb128 0x2
 527 016c E2050000 		.4byte	.LASF29
 528 0170 06       		.byte	0x6
 529 0171 58       		.byte	0x58
 530 0172 19       		.byte	0x19
 531 0173 E9000000 		.4byte	0xe9
 532 0177 02       		.uleb128 0x2
 533 0178 59020000 		.4byte	.LASF30
 534 017c 06       		.byte	0x6
 535 017d 5A       		.byte	0x5a
 536 017e 19       		.byte	0x19
 537 017f F5000000 		.4byte	0xf5
 538 0183 02       		.uleb128 0x2
 539 0184 82060000 		.4byte	.LASF31
 540 0188 06       		.byte	0x6
 541 0189 5B       		.byte	0x5b
 542 018a 19       		.byte	0x19
 543 018b F5000000 		.4byte	0xf5
 544 018f 02       		.uleb128 0x2
 545 0190 3D030000 		.4byte	.LASF32
 546 0194 06       		.byte	0x6
 547 0195 5C       		.byte	0x5c
 548 0196 19       		.byte	0x19
 549 0197 E9000000 		.4byte	0xe9
 550 019b 02       		.uleb128 0x2
 551 019c 9B0A0000 		.4byte	.LASF33
 552 01a0 06       		.byte	0x6
 553 01a1 80       		.byte	0x80
 554 01a2 12       		.byte	0x12
 555 01a3 3E000000 		.4byte	0x3e
 556 01a7 02       		.uleb128 0x2
 557 01a8 A4030000 		.4byte	.LASF34
 558 01ac 06       		.byte	0x6
 559 01ad 85       		.byte	0x85
 560 01ae 1A       		.byte	0x1a
 561 01af B3010000 		.4byte	0x1b3
 562 01b3 08       		.uleb128 0x8
 563 01b4 8D050000 		.4byte	.LASF49
 564 01b8 48       		.byte	0x48
 565 01b9 07       		.byte	0x7
 566 01ba 9C       		.byte	0x9c
ARM GAS  C:\Users\DEVELO~1\AppData\Local\Temp\cc4M0Z3o.s 			page 12


 567 01bb 08       		.byte	0x8
 568 01bc 96020000 		.4byte	0x296
 569 01c0 0B       		.uleb128 0xb
 570 01c1 68647200 		.ascii	"hdr\000"
 571 01c5 07       		.byte	0x7
 572 01c6 AD       		.byte	0xad
 573 01c7 05       		.byte	0x5
 574 01c8 46080000 		.4byte	0x846
 575 01cc 00       		.byte	0
 576 01cd 0B       		.uleb128 0xb
 577 01ce 63747800 		.ascii	"ctx\000"
 578 01d2 07       		.byte	0x7
 579 01d3 B1       		.byte	0xb1
 580 01d4 21       		.byte	0x21
 581 01d5 8A070000 		.4byte	0x78a
 582 01d9 0C       		.byte	0xc
 583 01da 01       		.uleb128 0x1
 584 01db 0A050000 		.4byte	.LASF35
 585 01df 07       		.byte	0x7
 586 01e0 B6       		.byte	0xb6
 587 01e1 21       		.byte	0x21
 588 01e2 F0030000 		.4byte	0x3f0
 589 01e6 10       		.byte	0x10
 590 01e7 01       		.uleb128 0x1
 591 01e8 5B030000 		.4byte	.LASF36
 592 01ec 07       		.byte	0x7
 593 01ed BB       		.byte	0xbb
 594 01ee 22       		.byte	0x22
 595 01ef 48090000 		.4byte	0x948
 596 01f3 18       		.byte	0x18
 597 01f4 01       		.uleb128 0x1
 598 01f5 1E000000 		.4byte	.LASF37
 599 01f9 07       		.byte	0x7
 600 01fa C0       		.byte	0xc0
 601 01fb 22       		.byte	0x22
 602 01fc 7E030000 		.4byte	0x37e
 603 0200 1C       		.byte	0x1c
 604 0201 01       		.uleb128 0x1
 605 0202 F2040000 		.4byte	.LASF38
 606 0206 07       		.byte	0x7
 607 0207 C9       		.byte	0xc9
 608 0208 22       		.byte	0x22
 609 0209 4D090000 		.4byte	0x94d
 610 020d 20       		.byte	0x20
 611 020e 01       		.uleb128 0x1
 612 020f ED090000 		.4byte	.LASF39
 613 0213 07       		.byte	0x7
 614 0214 CE       		.byte	0xce
 615 0215 21       		.byte	0x21
 616 0216 47010000 		.4byte	0x147
 617 021a 24       		.byte	0x24
 618 021b 01       		.uleb128 0x1
 619 021c 58000000 		.4byte	.LASF40
 620 0220 07       		.byte	0x7
 621 0221 D2       		.byte	0xd2
 622 0222 21       		.byte	0x21
 623 0223 3B010000 		.4byte	0x13b
ARM GAS  C:\Users\DEVELO~1\AppData\Local\Temp\cc4M0Z3o.s 			page 13


 624 0227 25       		.byte	0x25
 625 0228 01       		.uleb128 0x1
 626 0229 F5000000 		.4byte	.LASF41
 627 022d 07       		.byte	0x7
 628 022e D7       		.byte	0xd7
 629 022f 21       		.byte	0x21
 630 0230 53010000 		.4byte	0x153
 631 0234 26       		.byte	0x26
 632 0235 07       		.uleb128 0x7
 633 0236 7500     		.ascii	"u\000"
 634 0238 07       		.byte	0x7
 635 0239 2801     		.2byte	0x128
 636 023b 21       		.byte	0x21
 637 023c 73080000 		.4byte	0x873
 638 0240 28       		.byte	0x28
 639 0241 06       		.uleb128 0x6
 640 0242 BD090000 		.4byte	.LASF42
 641 0246 07       		.byte	0x7
 642 0247 2D01     		.2byte	0x12d
 643 0249 21       		.byte	0x21
 644 024a C4030000 		.4byte	0x3c4
 645 024e 2C       		.byte	0x2c
 646 024f 06       		.uleb128 0x6
 647 0250 B4020000 		.4byte	.LASF43
 648 0254 07       		.byte	0x7
 649 0255 3301     		.2byte	0x133
 650 0257 21       		.byte	0x21
 651 0258 F0030000 		.4byte	0x3f0
 652 025c 30       		.byte	0x30
 653 025d 06       		.uleb128 0x6
 654 025e B7000000 		.4byte	.LASF44
 655 0262 07       		.byte	0x7
 656 0263 3901     		.2byte	0x139
 657 0265 21       		.byte	0x21
 658 0266 77010000 		.4byte	0x177
 659 026a 38       		.byte	0x38
 660 026b 06       		.uleb128 0x6
 661 026c 80030000 		.4byte	.LASF45
 662 0270 07       		.byte	0x7
 663 0271 4001     		.2byte	0x140
 664 0273 22       		.byte	0x22
 665 0274 43090000 		.4byte	0x943
 666 0278 3C       		.byte	0x3c
 667 0279 06       		.uleb128 0x6
 668 027a 68000000 		.4byte	.LASF46
 669 027e 07       		.byte	0x7
 670 027f 4401     		.2byte	0x144
 671 0281 21       		.byte	0x21
 672 0282 5F010000 		.4byte	0x15f
 673 0286 40       		.byte	0x40
 674 0287 06       		.uleb128 0x6
 675 0288 AE0A0000 		.4byte	.LASF47
 676 028c 07       		.byte	0x7
 677 028d 4B01     		.2byte	0x14b
 678 028f 22       		.byte	0x22
 679 0290 DE040000 		.4byte	0x4de
 680 0294 44       		.byte	0x44
ARM GAS  C:\Users\DEVELO~1\AppData\Local\Temp\cc4M0Z3o.s 			page 14


 681 0295 00       		.byte	0
 682 0296 02       		.uleb128 0x2
 683 0297 F3090000 		.4byte	.LASF48
 684 029b 06       		.byte	0x6
 685 029c 8A       		.byte	0x8a
 686 029d 1F       		.byte	0x1f
 687 029e A2020000 		.4byte	0x2a2
 688 02a2 1F       		.uleb128 0x1f
 689 02a3 40040000 		.4byte	.LASF50
 690 02a7 9008     		.2byte	0x890
 691 02a9 07       		.byte	0x7
 692 02aa 8A01     		.2byte	0x18a
 693 02ac 08       		.byte	0x8
 694 02ad 30030000 		.4byte	0x330
 695 02b1 06       		.uleb128 0x6
 696 02b2 80080000 		.4byte	.LASF51
 697 02b6 07       		.byte	0x7
 698 02b7 8E01     		.2byte	0x18e
 699 02b9 21       		.byte	0x21
 700 02ba 7D090000 		.4byte	0x97d
 701 02be 00       		.byte	0
 702 02bf 06       		.uleb128 0x6
 703 02c0 38010000 		.4byte	.LASF52
 704 02c4 07       		.byte	0x7
 705 02c5 9201     		.2byte	0x192
 706 02c7 21       		.byte	0x21
 707 02c8 E0070000 		.4byte	0x7e0
 708 02cc 10       		.byte	0x10
 709 02cd 06       		.uleb128 0x6
 710 02ce 010A0000 		.4byte	.LASF53
 711 02d2 07       		.byte	0x7
 712 02d3 9901     		.2byte	0x199
 713 02d5 21       		.byte	0x21
 714 02d6 07080000 		.4byte	0x807
 715 02da 28       		.byte	0x28
 716 02db 06       		.uleb128 0x6
 717 02dc DB000000 		.4byte	.LASF54
 718 02e0 07       		.byte	0x7
 719 02e1 9E01     		.2byte	0x19e
 720 02e3 21       		.byte	0x21
 721 02e4 9B010000 		.4byte	0x19b
 722 02e8 30       		.byte	0x30
 723 02e9 06       		.uleb128 0x6
 724 02ea 9F030000 		.4byte	.LASF55
 725 02ee 07       		.byte	0x7
 726 02ef A401     		.2byte	0x1a4
 727 02f1 21       		.byte	0x21
 728 02f2 57030000 		.4byte	0x357
 729 02f6 34       		.byte	0x34
 730 02f7 06       		.uleb128 0x6
 731 02f8 26070000 		.4byte	.LASF56
 732 02fc 07       		.byte	0x7
 733 02fd A901     		.2byte	0x1a9
 734 02ff 22       		.byte	0x22
 735 0300 EF090000 		.4byte	0x9ef
 736 0304 38       		.byte	0x38
 737 0305 06       		.uleb128 0x6
ARM GAS  C:\Users\DEVELO~1\AppData\Local\Temp\cc4M0Z3o.s 			page 15


 738 0306 CD060000 		.4byte	.LASF57
 739 030a 07       		.byte	0x7
 740 030b AD01     		.2byte	0x1ad
 741 030d 21       		.byte	0x21
 742 030e A7010000 		.4byte	0x1a7
 743 0312 3C       		.byte	0x3c
 744 0313 07       		.uleb128 0x7
 745 0314 64626700 		.ascii	"dbg\000"
 746 0318 07       		.byte	0x7
 747 0319 B101     		.2byte	0x1b1
 748 031b 21       		.byte	0x21
 749 031c 94030000 		.4byte	0x394
 750 0320 84       		.byte	0x84
 751 0321 06       		.uleb128 0x6
 752 0322 4C090000 		.4byte	.LASF58
 753 0326 07       		.byte	0x7
 754 0327 B601     		.2byte	0x1b6
 755 0329 21       		.byte	0x21
 756 032a 39060000 		.4byte	0x639
 757 032e 88       		.byte	0x88
 758 032f 00       		.byte	0
 759 0330 02       		.uleb128 0x2
 760 0331 DA040000 		.4byte	.LASF59
 761 0335 08       		.byte	0x8
 762 0336 3F       		.byte	0x3f
 763 0337 12       		.byte	0x12
 764 0338 F5000000 		.4byte	0xf5
 765 033c 08       		.uleb128 0x8
 766 033d 0F040000 		.4byte	.LASF60
 767 0341 04       		.byte	0x4
 768 0342 08       		.byte	0x8
 769 0343 44       		.byte	0x44
 770 0344 10       		.byte	0x10
 771 0345 57030000 		.4byte	0x357
 772 0349 01       		.uleb128 0x1
 773 034a 47060000 		.4byte	.LASF61
 774 034e 08       		.byte	0x8
 775 034f 48       		.byte	0x48
 776 0350 21       		.byte	0x21
 777 0351 30030000 		.4byte	0x330
 778 0355 00       		.byte	0
 779 0356 00       		.byte	0
 780 0357 02       		.uleb128 0x2
 781 0358 45090000 		.4byte	.LASF62
 782 035c 08       		.byte	0x8
 783 035d 49       		.byte	0x49
 784 035e 03       		.byte	0x3
 785 035f 3C030000 		.4byte	0x33c
 786 0363 08       		.uleb128 0x8
 787 0364 91010000 		.4byte	.LASF63
 788 0368 04       		.byte	0x4
 789 0369 09       		.byte	0x9
 790 036a 3E       		.byte	0x3e
 791 036b 10       		.byte	0x10
 792 036c 7E030000 		.4byte	0x37e
 793 0370 01       		.uleb128 0x1
 794 0371 AC060000 		.4byte	.LASF64
ARM GAS  C:\Users\DEVELO~1\AppData\Local\Temp\cc4M0Z3o.s 			page 16


 795 0375 09       		.byte	0x9
 796 0376 46       		.byte	0x46
 797 0377 24       		.byte	0x24
 798 0378 83030000 		.4byte	0x383
 799 037c 00       		.byte	0
 800 037d 00       		.byte	0
 801 037e 04       		.uleb128 0x4
 802 037f 8F030000 		.4byte	0x38f
 803 0383 15       		.uleb128 0x15
 804 0384 7E030000 		.4byte	0x37e
 805 0388 0C       		.uleb128 0xc
 806 0389 01       		.byte	0x1
 807 038a 08       		.byte	0x8
 808 038b BB040000 		.4byte	.LASF65
 809 038f 10       		.uleb128 0x10
 810 0390 88030000 		.4byte	0x388
 811 0394 02       		.uleb128 0x2
 812 0395 9D050000 		.4byte	.LASF66
 813 0399 09       		.byte	0x9
 814 039a 51       		.byte	0x51
 815 039b 03       		.byte	0x3
 816 039c 63030000 		.4byte	0x363
 817 03a0 02       		.uleb128 0x2
 818 03a1 5E000000 		.4byte	.LASF67
 819 03a5 0A       		.byte	0xa
 820 03a6 6D       		.byte	0x6d
 821 03a7 12       		.byte	0x12
 822 03a8 F5000000 		.4byte	0xf5
 823 03ac 02       		.uleb128 0x2
 824 03ad 69060000 		.4byte	.LASF68
 825 03b1 0A       		.byte	0xa
 826 03b2 79       		.byte	0x79
 827 03b3 12       		.byte	0x12
 828 03b4 F5000000 		.4byte	0xf5
 829 03b8 02       		.uleb128 0x2
 830 03b9 E6040000 		.4byte	.LASF69
 831 03bd 0A       		.byte	0xa
 832 03be 9B       		.byte	0x9b
 833 03bf 12       		.byte	0x12
 834 03c0 06010000 		.4byte	0x106
 835 03c4 02       		.uleb128 0x2
 836 03c5 07070000 		.4byte	.LASF70
 837 03c9 0B       		.byte	0xb
 838 03ca 32       		.byte	0x32
 839 03cb 18       		.byte	0x18
 840 03cc D0030000 		.4byte	0x3d0
 841 03d0 08       		.uleb128 0x8
 842 03d1 7C010000 		.4byte	.LASF71
 843 03d5 04       		.byte	0x4
 844 03d6 0B       		.byte	0xb
 845 03d7 38       		.byte	0x38
 846 03d8 08       		.byte	0x8
 847 03d9 EB030000 		.4byte	0x3eb
 848 03dd 01       		.uleb128 0x1
 849 03de CD000000 		.4byte	.LASF72
 850 03e2 0B       		.byte	0xb
 851 03e3 39       		.byte	0x39
ARM GAS  C:\Users\DEVELO~1\AppData\Local\Temp\cc4M0Z3o.s 			page 17


 852 03e4 1A       		.byte	0x1a
 853 03e5 EB030000 		.4byte	0x3eb
 854 03e9 00       		.byte	0
 855 03ea 00       		.byte	0
 856 03eb 04       		.uleb128 0x4
 857 03ec C4030000 		.4byte	0x3c4
 858 03f0 02       		.uleb128 0x2
 859 03f1 77060000 		.4byte	.LASF73
 860 03f5 0B       		.byte	0xb
 861 03f6 3F       		.byte	0x3f
 862 03f7 19       		.byte	0x19
 863 03f8 FC030000 		.4byte	0x3fc
 864 03fc 08       		.uleb128 0x8
 865 03fd 72090000 		.4byte	.LASF74
 866 0401 08       		.byte	0x8
 867 0402 0B       		.byte	0xb
 868 0403 45       		.byte	0x45
 869 0404 08       		.byte	0x8
 870 0405 24040000 		.4byte	0x424
 871 0409 01       		.uleb128 0x1
 872 040a CD000000 		.4byte	.LASF72
 873 040e 0B       		.byte	0xb
 874 040f 46       		.byte	0x46
 875 0410 1A       		.byte	0x1a
 876 0411 24040000 		.4byte	0x424
 877 0415 00       		.byte	0
 878 0416 01       		.uleb128 0x1
 879 0417 6B010000 		.4byte	.LASF75
 880 041b 0B       		.byte	0xb
 881 041c 47       		.byte	0x47
 882 041d 1A       		.byte	0x1a
 883 041e 24040000 		.4byte	0x424
 884 0422 04       		.byte	0x4
 885 0423 00       		.byte	0
 886 0424 04       		.uleb128 0x4
 887 0425 F0030000 		.4byte	0x3f0
 888 0429 02       		.uleb128 0x2
 889 042a C5030000 		.4byte	.LASF76
 890 042e 0B       		.byte	0xb
 891 042f 4E       		.byte	0x4e
 892 0430 22       		.byte	0x22
 893 0431 35040000 		.4byte	0x435
 894 0435 08       		.uleb128 0x8
 895 0436 60090000 		.4byte	.LASF77
 896 043a 0C       		.byte	0xc
 897 043b 0B       		.byte	0xb
 898 043c 55       		.byte	0x55
 899 043d 08       		.byte	0x8
 900 043e 6A040000 		.4byte	0x46a
 901 0442 01       		.uleb128 0x1
 902 0443 CD000000 		.4byte	.LASF72
 903 0447 0B       		.byte	0xb
 904 0448 56       		.byte	0x56
 905 0449 1A       		.byte	0x1a
 906 044a 6A040000 		.4byte	0x46a
 907 044e 00       		.byte	0
 908 044f 01       		.uleb128 0x1
ARM GAS  C:\Users\DEVELO~1\AppData\Local\Temp\cc4M0Z3o.s 			page 18


 909 0450 6B010000 		.4byte	.LASF75
 910 0454 0B       		.byte	0xb
 911 0455 57       		.byte	0x57
 912 0456 1A       		.byte	0x1a
 913 0457 6A040000 		.4byte	0x46a
 914 045b 04       		.byte	0x4
 915 045c 01       		.uleb128 0x1
 916 045d A6040000 		.4byte	.LASF78
 917 0461 0B       		.byte	0xb
 918 0462 58       		.byte	0x58
 919 0463 19       		.byte	0x19
 920 0464 5F010000 		.4byte	0x15f
 921 0468 08       		.byte	0x8
 922 0469 00       		.byte	0
 923 046a 04       		.uleb128 0x4
 924 046b 29040000 		.4byte	0x429
 925 046f 02       		.uleb128 0x2
 926 0470 CA040000 		.4byte	.LASF79
 927 0474 0B       		.byte	0xb
 928 0475 5F       		.byte	0x5f
 929 0476 1E       		.byte	0x1e
 930 0477 7B040000 		.4byte	0x47b
 931 047b 08       		.uleb128 0x8
 932 047c 1E020000 		.4byte	.LASF80
 933 0480 0C       		.byte	0xc
 934 0481 0B       		.byte	0xb
 935 0482 64       		.byte	0x64
 936 0483 08       		.byte	0x8
 937 0484 B0040000 		.4byte	0x4b0
 938 0488 01       		.uleb128 0x1
 939 0489 CD000000 		.4byte	.LASF72
 940 048d 0B       		.byte	0xb
 941 048e 65       		.byte	0x65
 942 048f 1A       		.byte	0x1a
 943 0490 B0040000 		.4byte	0x4b0
 944 0494 00       		.byte	0
 945 0495 01       		.uleb128 0x1
 946 0496 6B010000 		.4byte	.LASF75
 947 049a 0B       		.byte	0xb
 948 049b 66       		.byte	0x66
 949 049c 1A       		.byte	0x1a
 950 049d B0040000 		.4byte	0x4b0
 951 04a1 04       		.byte	0x4
 952 04a2 01       		.uleb128 0x1
 953 04a3 390A0000 		.4byte	.LASF81
 954 04a7 0B       		.byte	0xb
 955 04a8 67       		.byte	0x67
 956 04a9 19       		.byte	0x19
 957 04aa AC030000 		.4byte	0x3ac
 958 04ae 08       		.byte	0x8
 959 04af 00       		.byte	0
 960 04b0 04       		.uleb128 0x4
 961 04b1 6F040000 		.4byte	0x46f
 962 04b5 0E       		.uleb128 0xe
 963 04b6 08       		.byte	0x8
 964 04b7 0C       		.byte	0xc
 965 04b8 83       		.byte	0x83
ARM GAS  C:\Users\DEVELO~1\AppData\Local\Temp\cc4M0Z3o.s 			page 19


 966 04b9 05       		.byte	0x5
 967 04ba D9040000 		.4byte	0x4d9
 968 04be 0B       		.uleb128 0xb
 969 04bf 6E747000 		.ascii	"ntp\000"
 970 04c3 0C       		.byte	0xc
 971 04c4 87       		.byte	0x87
 972 04c5 1E       		.byte	0x1e
 973 04c6 D9040000 		.4byte	0x4d9
 974 04ca 00       		.byte	0
 975 04cb 01       		.uleb128 0x1
 976 04cc 31010000 		.4byte	.LASF82
 977 04d0 0C       		.byte	0xc
 978 04d1 8B       		.byte	0x8b
 979 04d2 1E       		.byte	0x1e
 980 04d3 DE040000 		.4byte	0x4de
 981 04d7 04       		.byte	0x4
 982 04d8 00       		.byte	0
 983 04d9 04       		.uleb128 0x4
 984 04da A7010000 		.4byte	0x1a7
 985 04de 20       		.uleb128 0x20
 986 04df 04       		.byte	0x4
 987 04e0 0E       		.uleb128 0xe
 988 04e1 08       		.byte	0x8
 989 04e2 0C       		.byte	0xc
 990 04e3 90       		.byte	0x90
 991 04e4 05       		.byte	0x5
 992 04e5 03050000 		.4byte	0x503
 993 04e9 0B       		.uleb128 0xb
 994 04ea 747000   		.ascii	"tp\000"
 995 04ed 0C       		.byte	0xc
 996 04ee 94       		.byte	0x94
 997 04ef 1E       		.byte	0x1e
 998 04f0 D9040000 		.4byte	0x4d9
 999 04f4 00       		.byte	0
 1000 04f5 0B       		.uleb128 0xb
 1001 04f6 6D736700 		.ascii	"msg\000"
 1002 04fa 0C       		.byte	0xc
 1003 04fb 98       		.byte	0x98
 1004 04fc 1D       		.byte	0x1d
 1005 04fd 6B010000 		.4byte	0x16b
 1006 0501 04       		.byte	0x4
 1007 0502 00       		.byte	0
 1008 0503 0E       		.uleb128 0xe
 1009 0504 04       		.byte	0x4
 1010 0505 0C       		.byte	0xc
 1011 0506 9D       		.byte	0x9d
 1012 0507 05       		.byte	0x5
 1013 0508 1A050000 		.4byte	0x51a
 1014 050c 01       		.uleb128 0x1
 1015 050d 1E000000 		.4byte	.LASF37
 1016 0511 0C       		.byte	0xc
 1017 0512 A1       		.byte	0xa1
 1018 0513 1E       		.byte	0x1e
 1019 0514 7E030000 		.4byte	0x37e
 1020 0518 00       		.byte	0
 1021 0519 00       		.byte	0
 1022 051a 0E       		.uleb128 0xe
ARM GAS  C:\Users\DEVELO~1\AppData\Local\Temp\cc4M0Z3o.s 			page 20


 1023 051b 04       		.byte	0x4
 1024 051c 0C       		.byte	0xc
 1025 051d A6       		.byte	0xa6
 1026 051e 05       		.byte	0x5
 1027 051f 31050000 		.4byte	0x531
 1028 0523 01       		.uleb128 0x1
 1029 0524 FF020000 		.4byte	.LASF83
 1030 0528 0C       		.byte	0xc
 1031 0529 AA       		.byte	0xaa
 1032 052a 1E       		.byte	0x1e
 1033 052b 7E030000 		.4byte	0x37e
 1034 052f 00       		.byte	0
 1035 0530 00       		.byte	0
 1036 0531 0E       		.uleb128 0xe
 1037 0532 08       		.byte	0x8
 1038 0533 0C       		.byte	0xc
 1039 0534 AF       		.byte	0xaf
 1040 0535 05       		.byte	0x5
 1041 0536 55050000 		.4byte	0x555
 1042 053a 0B       		.uleb128 0xb
 1043 053b 75703100 		.ascii	"up1\000"
 1044 053f 0C       		.byte	0xc
 1045 0540 B3       		.byte	0xb3
 1046 0541 1E       		.byte	0x1e
 1047 0542 DE040000 		.4byte	0x4de
 1048 0546 00       		.byte	0
 1049 0547 0B       		.uleb128 0xb
 1050 0548 75703200 		.ascii	"up2\000"
 1051 054c 0C       		.byte	0xc
 1052 054d B7       		.byte	0xb7
 1053 054e 1E       		.byte	0x1e
 1054 054f DE040000 		.4byte	0x4de
 1055 0553 04       		.byte	0x4
 1056 0554 00       		.byte	0
 1057 0555 17       		.uleb128 0x17
 1058 0556 08       		.byte	0x8
 1059 0557 0C       		.byte	0xc
 1060 0558 7F       		.byte	0x7f
 1061 0559 93050000 		.4byte	0x593
 1062 055d 18       		.uleb128 0x18
 1063 055e 737700   		.ascii	"sw\000"
 1064 0561 8C       		.byte	0x8c
 1065 0562 B5040000 		.4byte	0x4b5
 1066 0566 18       		.uleb128 0x18
 1067 0567 72647900 		.ascii	"rdy\000"
 1068 056b 99       		.byte	0x99
 1069 056c E0040000 		.4byte	0x4e0
 1070 0570 18       		.uleb128 0x18
 1071 0571 69737200 		.ascii	"isr\000"
 1072 0575 A2       		.byte	0xa2
 1073 0576 03050000 		.4byte	0x503
 1074 057a 0F       		.uleb128 0xf
 1075 057b D2020000 		.4byte	.LASF84
 1076 057f 0C       		.byte	0xc
 1077 0580 AB       		.byte	0xab
 1078 0581 07       		.byte	0x7
 1079 0582 1A050000 		.4byte	0x51a
ARM GAS  C:\Users\DEVELO~1\AppData\Local\Temp\cc4M0Z3o.s 			page 21


 1080 0586 0F       		.uleb128 0xf
 1081 0587 AD030000 		.4byte	.LASF85
 1082 058b 0C       		.byte	0xc
 1083 058c B8       		.byte	0xb8
 1084 058d 07       		.byte	0x7
 1085 058e 31050000 		.4byte	0x531
 1086 0592 00       		.byte	0
 1087 0593 0E       		.uleb128 0xe
 1088 0594 10       		.byte	0x10
 1089 0595 0C       		.byte	0xc
 1090 0596 6C       		.byte	0x6c
 1091 0597 09       		.byte	0x9
 1092 0598 D9050000 		.4byte	0x5d9
 1093 059c 19       		.uleb128 0x19
 1094 059d 8F090000 		.4byte	.LASF86
 1095 05a1 70       		.byte	0x70
 1096 05a2 F5000000 		.4byte	0xf5
 1097 05a6 03       		.byte	0x3
 1098 05a7 00       		.byte	0
 1099 05a8 19       		.uleb128 0x19
 1100 05a9 ED090000 		.4byte	.LASF39
 1101 05ad 74       		.byte	0x74
 1102 05ae F5000000 		.4byte	0xf5
 1103 05b2 05       		.byte	0x5
 1104 05b3 03       		.byte	0x3
 1105 05b4 19       		.uleb128 0x19
 1106 05b5 2F090000 		.4byte	.LASF87
 1107 05b9 7A       		.byte	0x7a
 1108 05ba F5000000 		.4byte	0xf5
 1109 05be 18       		.byte	0x18
 1110 05bf 08       		.byte	0x8
 1111 05c0 01       		.uleb128 0x1
 1112 05c1 56030000 		.4byte	.LASF88
 1113 05c5 0C       		.byte	0xc
 1114 05c6 7E       		.byte	0x7e
 1115 05c7 19       		.byte	0x19
 1116 05c8 A0030000 		.4byte	0x3a0
 1117 05cc 04       		.byte	0x4
 1118 05cd 0B       		.uleb128 0xb
 1119 05ce 7500     		.ascii	"u\000"
 1120 05d0 0C       		.byte	0xc
 1121 05d1 B9       		.byte	0xb9
 1122 05d2 05       		.byte	0x5
 1123 05d3 55050000 		.4byte	0x555
 1124 05d7 08       		.byte	0x8
 1125 05d8 00       		.byte	0
 1126 05d9 02       		.uleb128 0x2
 1127 05da 72020000 		.4byte	.LASF89
 1128 05de 0C       		.byte	0xc
 1129 05df BA       		.byte	0xba
 1130 05e0 03       		.byte	0x3
 1131 05e1 93050000 		.4byte	0x593
 1132 05e5 21       		.uleb128 0x21
 1133 05e6 0808     		.2byte	0x808
 1134 05e8 0C       		.byte	0xc
 1135 05e9 C0       		.byte	0xc0
 1136 05ea 09       		.byte	0x9
ARM GAS  C:\Users\DEVELO~1\AppData\Local\Temp\cc4M0Z3o.s 			page 22


 1137 05eb 24060000 		.4byte	0x624
 1138 05ef 01       		.uleb128 0x1
 1139 05f0 78000000 		.4byte	.LASF90
 1140 05f4 0C       		.byte	0xc
 1141 05f5 C4       		.byte	0xc4
 1142 05f6 19       		.byte	0x19
 1143 05f7 DD000000 		.4byte	0xdd
 1144 05fb 00       		.byte	0
 1145 05fc 01       		.uleb128 0x1
 1146 05fd 18060000 		.4byte	.LASF91
 1147 0601 0C       		.byte	0xc
 1148 0602 C8       		.byte	0xc8
 1149 0603 19       		.byte	0x19
 1150 0604 DD000000 		.4byte	0xdd
 1151 0608 02       		.byte	0x2
 1152 0609 0B       		.uleb128 0xb
 1153 060a 70747200 		.ascii	"ptr\000"
 1154 060e 0C       		.byte	0xc
 1155 060f CC       		.byte	0xcc
 1156 0610 1A       		.byte	0x1a
 1157 0611 24060000 		.4byte	0x624
 1158 0615 04       		.byte	0x4
 1159 0616 01       		.uleb128 0x1
 1160 0617 71000000 		.4byte	.LASF92
 1161 061b 0C       		.byte	0xc
 1162 061c D0       		.byte	0xd0
 1163 061d 19       		.byte	0x19
 1164 061e 29060000 		.4byte	0x629
 1165 0622 08       		.byte	0x8
 1166 0623 00       		.byte	0
 1167 0624 04       		.uleb128 0x4
 1168 0625 D9050000 		.4byte	0x5d9
 1169 0629 22       		.uleb128 0x22
 1170 062a D9050000 		.4byte	0x5d9
 1171 062e 39060000 		.4byte	0x639
 1172 0632 23       		.uleb128 0x23
 1173 0633 3E000000 		.4byte	0x3e
 1174 0637 7F       		.byte	0x7f
 1175 0638 00       		.byte	0
 1176 0639 02       		.uleb128 0x2
 1177 063a B6060000 		.4byte	.LASF93
 1178 063e 0C       		.byte	0xc
 1179 063f D1       		.byte	0xd1
 1180 0640 03       		.byte	0x3
 1181 0641 E5050000 		.4byte	0x5e5
 1182 0645 24       		.uleb128 0x24
 1183 0646 30       		.byte	0x30
 1184 0647 0D       		.byte	0xd
 1185 0648 3906     		.2byte	0x639
 1186 064a 09       		.byte	0x9
 1187 064b F8060000 		.4byte	0x6f8
 1188 064f 07       		.uleb128 0x7
 1189 0650 43523100 		.ascii	"CR1\000"
 1190 0654 0D       		.byte	0xd
 1191 0655 3B06     		.2byte	0x63b
 1192 0657 11       		.byte	0x11
 1193 0658 01010000 		.4byte	0x101
ARM GAS  C:\Users\DEVELO~1\AppData\Local\Temp\cc4M0Z3o.s 			page 23


 1194 065c 00       		.byte	0
 1195 065d 07       		.uleb128 0x7
 1196 065e 43523200 		.ascii	"CR2\000"
 1197 0662 0D       		.byte	0xd
 1198 0663 3C06     		.2byte	0x63c
 1199 0665 11       		.byte	0x11
 1200 0666 01010000 		.4byte	0x101
 1201 066a 04       		.byte	0x4
 1202 066b 07       		.uleb128 0x7
 1203 066c 43523300 		.ascii	"CR3\000"
 1204 0670 0D       		.byte	0xd
 1205 0671 3D06     		.2byte	0x63d
 1206 0673 11       		.byte	0x11
 1207 0674 01010000 		.4byte	0x101
 1208 0678 08       		.byte	0x8
 1209 0679 07       		.uleb128 0x7
 1210 067a 42525200 		.ascii	"BRR\000"
 1211 067e 0D       		.byte	0xd
 1212 067f 3E06     		.2byte	0x63e
 1213 0681 11       		.byte	0x11
 1214 0682 01010000 		.4byte	0x101
 1215 0686 0C       		.byte	0xc
 1216 0687 06       		.uleb128 0x6
 1217 0688 A1010000 		.4byte	.LASF94
 1218 068c 0D       		.byte	0xd
 1219 068d 3F06     		.2byte	0x63f
 1220 068f 11       		.byte	0x11
 1221 0690 01010000 		.4byte	0x101
 1222 0694 10       		.byte	0x10
 1223 0695 06       		.uleb128 0x6
 1224 0696 68050000 		.4byte	.LASF95
 1225 069a 0D       		.byte	0xd
 1226 069b 4006     		.2byte	0x640
 1227 069d 11       		.byte	0x11
 1228 069e 01010000 		.4byte	0x101
 1229 06a2 14       		.byte	0x14
 1230 06a3 07       		.uleb128 0x7
 1231 06a4 52515200 		.ascii	"RQR\000"
 1232 06a8 0D       		.byte	0xd
 1233 06a9 4106     		.2byte	0x641
 1234 06ab 11       		.byte	0x11
 1235 06ac 01010000 		.4byte	0x101
 1236 06b0 18       		.byte	0x18
 1237 06b1 07       		.uleb128 0x7
 1238 06b2 49535200 		.ascii	"ISR\000"
 1239 06b6 0D       		.byte	0xd
 1240 06b7 4206     		.2byte	0x642
 1241 06b9 11       		.byte	0x11
 1242 06ba 01010000 		.4byte	0x101
 1243 06be 1C       		.byte	0x1c
 1244 06bf 07       		.uleb128 0x7
 1245 06c0 49435200 		.ascii	"ICR\000"
 1246 06c4 0D       		.byte	0xd
 1247 06c5 4306     		.2byte	0x643
 1248 06c7 11       		.byte	0x11
 1249 06c8 01010000 		.4byte	0x101
 1250 06cc 20       		.byte	0x20
ARM GAS  C:\Users\DEVELO~1\AppData\Local\Temp\cc4M0Z3o.s 			page 24


 1251 06cd 07       		.uleb128 0x7
 1252 06ce 52445200 		.ascii	"RDR\000"
 1253 06d2 0D       		.byte	0xd
 1254 06d3 4406     		.2byte	0x644
 1255 06d5 11       		.byte	0x11
 1256 06d6 01010000 		.4byte	0x101
 1257 06da 24       		.byte	0x24
 1258 06db 07       		.uleb128 0x7
 1259 06dc 54445200 		.ascii	"TDR\000"
 1260 06e0 0D       		.byte	0xd
 1261 06e1 4506     		.2byte	0x645
 1262 06e3 11       		.byte	0x11
 1263 06e4 01010000 		.4byte	0x101
 1264 06e8 28       		.byte	0x28
 1265 06e9 06       		.uleb128 0x6
 1266 06ea 16030000 		.4byte	.LASF96
 1267 06ee 0D       		.byte	0xd
 1268 06ef 4606     		.2byte	0x646
 1269 06f1 11       		.byte	0x11
 1270 06f2 01010000 		.4byte	0x101
 1271 06f6 2C       		.byte	0x2c
 1272 06f7 00       		.byte	0
 1273 06f8 16       		.uleb128 0x16
 1274 06f9 32040000 		.4byte	.LASF97
 1275 06fd 0D       		.byte	0xd
 1276 06fe 4706     		.2byte	0x647
 1277 0700 45060000 		.4byte	0x645
 1278 0704 13       		.uleb128 0x13
 1279 0705 0D080000 		.4byte	.LASF98
 1280 0709 24       		.byte	0x24
 1281 070a 0E       		.byte	0xe
 1282 070b E001     		.2byte	0x1e0
 1283 070d 08       		.byte	0x8
 1284 070e 8A070000 		.4byte	0x78a
 1285 0712 07       		.uleb128 0x7
 1286 0713 723400   		.ascii	"r4\000"
 1287 0716 0E       		.byte	0xe
 1288 0717 F901     		.2byte	0x1f9
 1289 0719 11       		.byte	0x11
 1290 071a F5000000 		.4byte	0xf5
 1291 071e 00       		.byte	0
 1292 071f 07       		.uleb128 0x7
 1293 0720 723500   		.ascii	"r5\000"
 1294 0723 0E       		.byte	0xe
 1295 0724 FA01     		.2byte	0x1fa
 1296 0726 11       		.byte	0x11
 1297 0727 F5000000 		.4byte	0xf5
 1298 072b 04       		.byte	0x4
 1299 072c 07       		.uleb128 0x7
 1300 072d 723600   		.ascii	"r6\000"
 1301 0730 0E       		.byte	0xe
 1302 0731 FB01     		.2byte	0x1fb
 1303 0733 11       		.byte	0x11
 1304 0734 F5000000 		.4byte	0xf5
 1305 0738 08       		.byte	0x8
 1306 0739 07       		.uleb128 0x7
 1307 073a 723700   		.ascii	"r7\000"
ARM GAS  C:\Users\DEVELO~1\AppData\Local\Temp\cc4M0Z3o.s 			page 25


 1308 073d 0E       		.byte	0xe
 1309 073e FC01     		.2byte	0x1fc
 1310 0740 11       		.byte	0x11
 1311 0741 F5000000 		.4byte	0xf5
 1312 0745 0C       		.byte	0xc
 1313 0746 07       		.uleb128 0x7
 1314 0747 723800   		.ascii	"r8\000"
 1315 074a 0E       		.byte	0xe
 1316 074b FD01     		.2byte	0x1fd
 1317 074d 11       		.byte	0x11
 1318 074e F5000000 		.4byte	0xf5
 1319 0752 10       		.byte	0x10
 1320 0753 07       		.uleb128 0x7
 1321 0754 723900   		.ascii	"r9\000"
 1322 0757 0E       		.byte	0xe
 1323 0758 FE01     		.2byte	0x1fe
 1324 075a 11       		.byte	0x11
 1325 075b F5000000 		.4byte	0xf5
 1326 075f 14       		.byte	0x14
 1327 0760 07       		.uleb128 0x7
 1328 0761 72313000 		.ascii	"r10\000"
 1329 0765 0E       		.byte	0xe
 1330 0766 FF01     		.2byte	0x1ff
 1331 0768 11       		.byte	0x11
 1332 0769 F5000000 		.4byte	0xf5
 1333 076d 18       		.byte	0x18
 1334 076e 07       		.uleb128 0x7
 1335 076f 72313100 		.ascii	"r11\000"
 1336 0773 0E       		.byte	0xe
 1337 0774 0002     		.2byte	0x200
 1338 0776 11       		.byte	0x11
 1339 0777 F5000000 		.4byte	0xf5
 1340 077b 1C       		.byte	0x1c
 1341 077c 07       		.uleb128 0x7
 1342 077d 6C7200   		.ascii	"lr\000"
 1343 0780 0E       		.byte	0xe
 1344 0781 0102     		.2byte	0x201
 1345 0783 11       		.byte	0x11
 1346 0784 F5000000 		.4byte	0xf5
 1347 0788 20       		.byte	0x20
 1348 0789 00       		.byte	0
 1349 078a 13       		.uleb128 0x13
 1350 078b 3F010000 		.4byte	.LASF99
 1351 078f 04       		.byte	0x4
 1352 0790 0E       		.byte	0xe
 1353 0791 0A02     		.2byte	0x20a
 1354 0793 08       		.byte	0x8
 1355 0794 A6070000 		.4byte	0x7a6
 1356 0798 07       		.uleb128 0x7
 1357 0799 737000   		.ascii	"sp\000"
 1358 079c 0E       		.byte	0xe
 1359 079d 0B02     		.2byte	0x20b
 1360 079f 1A       		.byte	0x1a
 1361 07a0 A6070000 		.4byte	0x7a6
 1362 07a4 00       		.byte	0
 1363 07a5 00       		.byte	0
 1364 07a6 04       		.uleb128 0x4
ARM GAS  C:\Users\DEVELO~1\AppData\Local\Temp\cc4M0Z3o.s 			page 26


 1365 07a7 04070000 		.4byte	0x704
 1366 07ab 08       		.uleb128 0x8
 1367 07ac 88030000 		.4byte	.LASF100
 1368 07b0 18       		.byte	0x18
 1369 07b1 07       		.byte	0x7
 1370 07b2 64       		.byte	0x64
 1371 07b3 10       		.byte	0x10
 1372 07b4 E0070000 		.4byte	0x7e0
 1373 07b8 01       		.uleb128 0x1
 1374 07b9 60080000 		.4byte	.LASF101
 1375 07bd 07       		.byte	0x7
 1376 07be 68       		.byte	0x68
 1377 07bf 21       		.byte	0x21
 1378 07c0 6F040000 		.4byte	0x46f
 1379 07c4 00       		.byte	0
 1380 07c5 01       		.uleb128 0x1
 1381 07c6 66080000 		.4byte	.LASF102
 1382 07ca 07       		.byte	0x7
 1383 07cb 73       		.byte	0x73
 1384 07cc 21       		.byte	0x21
 1385 07cd A0030000 		.4byte	0x3a0
 1386 07d1 0C       		.byte	0xc
 1387 07d2 01       		.uleb128 0x1
 1388 07d3 5A010000 		.4byte	.LASF103
 1389 07d7 07       		.byte	0x7
 1390 07d8 79       		.byte	0x79
 1391 07d9 21       		.byte	0x21
 1392 07da 12010000 		.4byte	0x112
 1393 07de 10       		.byte	0x10
 1394 07df 00       		.byte	0
 1395 07e0 02       		.uleb128 0x2
 1396 07e1 C5090000 		.4byte	.LASF104
 1397 07e5 07       		.byte	0x7
 1398 07e6 7B       		.byte	0x7b
 1399 07e7 03       		.byte	0x3
 1400 07e8 AB070000 		.4byte	0x7ab
 1401 07ec 08       		.uleb128 0x8
 1402 07ed 36000000 		.4byte	.LASF105
 1403 07f1 08       		.byte	0x8
 1404 07f2 07       		.byte	0x7
 1405 07f3 80       		.byte	0x80
 1406 07f4 10       		.byte	0x10
 1407 07f5 07080000 		.4byte	0x807
 1408 07f9 01       		.uleb128 0x1
 1409 07fa 37090000 		.4byte	.LASF106
 1410 07fe 07       		.byte	0x7
 1411 07ff 84       		.byte	0x84
 1412 0800 21       		.byte	0x21
 1413 0801 F0030000 		.4byte	0x3f0
 1414 0805 00       		.byte	0
 1415 0806 00       		.byte	0
 1416 0807 02       		.uleb128 0x2
 1417 0808 EE050000 		.4byte	.LASF107
 1418 080c 07       		.byte	0x7
 1419 080d 85       		.byte	0x85
 1420 080e 03       		.byte	0x3
 1421 080f EC070000 		.4byte	0x7ec
ARM GAS  C:\Users\DEVELO~1\AppData\Local\Temp\cc4M0Z3o.s 			page 27


 1422 0813 02       		.uleb128 0x2
 1423 0814 23000000 		.4byte	.LASF108
 1424 0818 07       		.byte	0x7
 1425 0819 8A       		.byte	0x8a
 1426 081a 14       		.byte	0x14
 1427 081b D9040000 		.4byte	0x4d9
 1428 081f 08       		.uleb128 0x8
 1429 0820 AC050000 		.4byte	.LASF109
 1430 0824 08       		.byte	0x8
 1431 0825 07       		.byte	0x7
 1432 0826 8F       		.byte	0x8f
 1433 0827 10       		.byte	0x10
 1434 0828 3A080000 		.4byte	0x83a
 1435 082c 01       		.uleb128 0x1
 1436 082d 37090000 		.4byte	.LASF106
 1437 0831 07       		.byte	0x7
 1438 0832 93       		.byte	0x93
 1439 0833 21       		.byte	0x21
 1440 0834 F0030000 		.4byte	0x3f0
 1441 0838 00       		.byte	0
 1442 0839 00       		.byte	0
 1443 083a 02       		.uleb128 0x2
 1444 083b 70030000 		.4byte	.LASF110
 1445 083f 07       		.byte	0x7
 1446 0840 94       		.byte	0x94
 1447 0841 03       		.byte	0x3
 1448 0842 1F080000 		.4byte	0x81f
 1449 0846 17       		.uleb128 0x17
 1450 0847 0C       		.byte	0xc
 1451 0848 07       		.byte	0x7
 1452 0849 A0       		.byte	0xa0
 1453 084a 73080000 		.4byte	0x873
 1454 084e 0F       		.uleb128 0xf
 1455 084f FC010000 		.4byte	.LASF111
 1456 0853 07       		.byte	0x7
 1457 0854 A4       		.byte	0xa4
 1458 0855 21       		.byte	0x21
 1459 0856 C4030000 		.4byte	0x3c4
 1460 085a 0F       		.uleb128 0xf
 1461 085b 37090000 		.4byte	.LASF106
 1462 085f 07       		.byte	0x7
 1463 0860 A8       		.byte	0xa8
 1464 0861 21       		.byte	0x21
 1465 0862 F0030000 		.4byte	0x3f0
 1466 0866 0F       		.uleb128 0xf
 1467 0867 2B030000 		.4byte	.LASF112
 1468 086b 07       		.byte	0x7
 1469 086c AC       		.byte	0xac
 1470 086d 21       		.byte	0x21
 1471 086e 29040000 		.4byte	0x429
 1472 0872 00       		.byte	0
 1473 0873 17       		.uleb128 0x17
 1474 0874 04       		.byte	0x4
 1475 0875 07       		.byte	0x7
 1476 0876 EB       		.byte	0xeb
 1477 0877 DC080000 		.4byte	0x8dc
 1478 087b 0F       		.uleb128 0xf
ARM GAS  C:\Users\DEVELO~1\AppData\Local\Temp\cc4M0Z3o.s 			page 28


 1479 087c BE030000 		.4byte	.LASF113
 1480 0880 07       		.byte	0x7
 1481 0881 F2       		.byte	0xf2
 1482 0882 21       		.byte	0x21
 1483 0883 6B010000 		.4byte	0x16b
 1484 0887 0F       		.uleb128 0xf
 1485 0888 920A0000 		.4byte	.LASF114
 1486 088c 07       		.byte	0x7
 1487 088d F9       		.byte	0xf9
 1488 088e 21       		.byte	0x21
 1489 088f 6B010000 		.4byte	0x16b
 1490 0893 11       		.uleb128 0x11
 1491 0894 31010000 		.4byte	.LASF82
 1492 0898 0001     		.2byte	0x100
 1493 089a 22       		.byte	0x22
 1494 089b DE040000 		.4byte	0x4de
 1495 089f 11       		.uleb128 0x11
 1496 08a0 090A0000 		.4byte	.LASF115
 1497 08a4 0701     		.2byte	0x107
 1498 08a6 22       		.byte	0x22
 1499 08a7 DC080000 		.4byte	0x8dc
 1500 08ab 11       		.uleb128 0x11
 1501 08ac 36020000 		.4byte	.LASF116
 1502 08b0 0C01     		.2byte	0x10c
 1503 08b2 21       		.byte	0x21
 1504 08b3 6B010000 		.4byte	0x16b
 1505 08b7 11       		.uleb128 0x11
 1506 08b8 59090000 		.4byte	.LASF117
 1507 08bc 1501     		.2byte	0x115
 1508 08be 22       		.byte	0x22
 1509 08bf 09090000 		.4byte	0x909
 1510 08c3 11       		.uleb128 0x11
 1511 08c4 8B0A0000 		.4byte	.LASF118
 1512 08c8 1E01     		.2byte	0x11e
 1513 08ca 22       		.byte	0x22
 1514 08cb 43090000 		.4byte	0x943
 1515 08cf 11       		.uleb128 0x11
 1516 08d0 64010000 		.4byte	.LASF119
 1517 08d4 2601     		.2byte	0x126
 1518 08d6 21       		.byte	0x21
 1519 08d7 77010000 		.4byte	0x177
 1520 08db 00       		.byte	0
 1521 08dc 04       		.uleb128 0x4
 1522 08dd 13080000 		.4byte	0x813
 1523 08e1 08       		.uleb128 0x8
 1524 08e2 9F020000 		.4byte	.LASF120
 1525 08e6 0C       		.byte	0xc
 1526 08e7 0F       		.byte	0xf
 1527 08e8 34       		.byte	0x34
 1528 08e9 10       		.byte	0x10
 1529 08ea 09090000 		.4byte	0x909
 1530 08ee 01       		.uleb128 0x1
 1531 08ef 37090000 		.4byte	.LASF106
 1532 08f3 0F       		.byte	0xf
 1533 08f4 35       		.byte	0x35
 1534 08f5 19       		.byte	0x19
 1535 08f6 F0030000 		.4byte	0x3f0
ARM GAS  C:\Users\DEVELO~1\AppData\Local\Temp\cc4M0Z3o.s 			page 29


 1536 08fa 00       		.byte	0
 1537 08fb 0B       		.uleb128 0xb
 1538 08fc 636E7400 		.ascii	"cnt\000"
 1539 0900 0F       		.byte	0xf
 1540 0901 37       		.byte	0x37
 1541 0902 19       		.byte	0x19
 1542 0903 8F010000 		.4byte	0x18f
 1543 0907 08       		.byte	0x8
 1544 0908 00       		.byte	0
 1545 0909 04       		.uleb128 0x4
 1546 090a E1080000 		.4byte	0x8e1
 1547 090e 08       		.uleb128 0x8
 1548 090f 17040000 		.4byte	.LASF121
 1549 0913 10       		.byte	0x10
 1550 0914 10       		.byte	0x10
 1551 0915 39       		.byte	0x39
 1552 0916 08       		.byte	0x8
 1553 0917 43090000 		.4byte	0x943
 1554 091b 01       		.uleb128 0x1
 1555 091c 37090000 		.4byte	.LASF106
 1556 0920 10       		.byte	0x10
 1557 0921 3A       		.byte	0x3a
 1558 0922 19       		.byte	0x19
 1559 0923 F0030000 		.4byte	0x3f0
 1560 0927 00       		.byte	0
 1561 0928 01       		.uleb128 0x1
 1562 0929 5B030000 		.4byte	.LASF36
 1563 092d 10       		.byte	0x10
 1564 092e 3C       		.byte	0x3c
 1565 092f 1A       		.byte	0x1a
 1566 0930 D9040000 		.4byte	0x4d9
 1567 0934 08       		.byte	0x8
 1568 0935 01       		.uleb128 0x1
 1569 0936 CD000000 		.4byte	.LASF72
 1570 093a 10       		.byte	0x10
 1571 093b 3E       		.byte	0x3e
 1572 093c 1A       		.byte	0x1a
 1573 093d 000A0000 		.4byte	0xa00
 1574 0941 0C       		.byte	0xc
 1575 0942 00       		.byte	0
 1576 0943 04       		.uleb128 0x4
 1577 0944 0E090000 		.4byte	0x90e
 1578 0948 04       		.uleb128 0x4
 1579 0949 96020000 		.4byte	0x296
 1580 094d 04       		.uleb128 0x4
 1581 094e 2F010000 		.4byte	0x12f
 1582 0952 13       		.uleb128 0x13
 1583 0953 4C010000 		.4byte	.LASF122
 1584 0957 10       		.byte	0x10
 1585 0958 07       		.byte	0x7
 1586 0959 5C01     		.2byte	0x15c
 1587 095b 10       		.byte	0x10
 1588 095c 7D090000 		.4byte	0x97d
 1589 0960 06       		.uleb128 0x6
 1590 0961 2B030000 		.4byte	.LASF112
 1591 0965 07       		.byte	0x7
 1592 0966 6101     		.2byte	0x161
ARM GAS  C:\Users\DEVELO~1\AppData\Local\Temp\cc4M0Z3o.s 			page 30


 1593 0968 21       		.byte	0x21
 1594 0969 29040000 		.4byte	0x429
 1595 096d 00       		.byte	0
 1596 096e 06       		.uleb128 0x6
 1597 096f 680A0000 		.4byte	.LASF123
 1598 0973 07       		.byte	0x7
 1599 0974 6501     		.2byte	0x165
 1600 0976 22       		.byte	0x22
 1601 0977 D9040000 		.4byte	0x4d9
 1602 097b 0C       		.byte	0xc
 1603 097c 00       		.byte	0
 1604 097d 16       		.uleb128 0x16
 1605 097e 22090000 		.4byte	.LASF124
 1606 0982 07       		.byte	0x7
 1607 0983 6601     		.2byte	0x166
 1608 0985 52090000 		.4byte	0x952
 1609 0989 13       		.uleb128 0x13
 1610 098a 4A080000 		.4byte	.LASF125
 1611 098e 14       		.byte	0x14
 1612 098f 07       		.byte	0x7
 1613 0990 6B01     		.2byte	0x16b
 1614 0992 10       		.byte	0x10
 1615 0993 DE090000 		.4byte	0x9de
 1616 0997 06       		.uleb128 0x6
 1617 0998 1E000000 		.4byte	.LASF37
 1618 099c 07       		.byte	0x7
 1619 099d 6F01     		.2byte	0x16f
 1620 099f 22       		.byte	0x22
 1621 09a0 7E030000 		.4byte	0x37e
 1622 09a4 00       		.byte	0
 1623 09a5 06       		.uleb128 0x6
 1624 09a6 26050000 		.4byte	.LASF126
 1625 09aa 07       		.byte	0x7
 1626 09ab 7501     		.2byte	0x175
 1627 09ad 22       		.byte	0x22
 1628 09ae 4D090000 		.4byte	0x94d
 1629 09b2 04       		.byte	0x4
 1630 09b3 06       		.uleb128 0x6
 1631 09b4 61030000 		.4byte	.LASF127
 1632 09b8 07       		.byte	0x7
 1633 09b9 7901     		.2byte	0x179
 1634 09bb 22       		.byte	0x22
 1635 09bc 4D090000 		.4byte	0x94d
 1636 09c0 08       		.byte	0x8
 1637 09c1 06       		.uleb128 0x6
 1638 09c2 0F0A0000 		.4byte	.LASF128
 1639 09c6 07       		.byte	0x7
 1640 09c7 7F01     		.2byte	0x17f
 1641 09c9 22       		.byte	0x22
 1642 09ca 4D090000 		.4byte	0x94d
 1643 09ce 0C       		.byte	0xc
 1644 09cf 06       		.uleb128 0x6
 1645 09d0 67040000 		.4byte	.LASF129
 1646 09d4 07       		.byte	0x7
 1647 09d5 8301     		.2byte	0x183
 1648 09d7 22       		.byte	0x22
 1649 09d8 4D090000 		.4byte	0x94d
ARM GAS  C:\Users\DEVELO~1\AppData\Local\Temp\cc4M0Z3o.s 			page 31


 1650 09dc 10       		.byte	0x10
 1651 09dd 00       		.byte	0
 1652 09de 16       		.uleb128 0x16
 1653 09df BD020000 		.4byte	.LASF130
 1654 09e3 07       		.byte	0x7
 1655 09e4 8501     		.2byte	0x185
 1656 09e6 89090000 		.4byte	0x989
 1657 09ea 10       		.uleb128 0x10
 1658 09eb DE090000 		.4byte	0x9de
 1659 09ef 04       		.uleb128 0x4
 1660 09f0 EA090000 		.4byte	0x9ea
 1661 09f4 02       		.uleb128 0x2
 1662 09f5 7B090000 		.4byte	.LASF131
 1663 09f9 10       		.byte	0x10
 1664 09fa 34       		.byte	0x34
 1665 09fb 19       		.byte	0x19
 1666 09fc 0E090000 		.4byte	0x90e
 1667 0a00 04       		.uleb128 0x4
 1668 0a01 F4090000 		.4byte	0x9f4
 1669 0a05 02       		.uleb128 0x2
 1670 0a06 11090000 		.4byte	.LASF132
 1671 0a0a 11       		.byte	0x11
 1672 0a0b 34       		.byte	0x34
 1673 0a0c 1F       		.byte	0x1f
 1674 0a0d 110A0000 		.4byte	0xa11
 1675 0a11 08       		.uleb128 0x8
 1676 0a12 CA050000 		.4byte	.LASF133
 1677 0a16 14       		.byte	0x14
 1678 0a17 11       		.byte	0x11
 1679 0a18 39       		.byte	0x39
 1680 0a19 08       		.byte	0x8
 1681 0a1a 600A0000 		.4byte	0xa60
 1682 0a1e 01       		.uleb128 0x1
 1683 0a1f CD000000 		.4byte	.LASF72
 1684 0a23 11       		.byte	0x11
 1685 0a24 3A       		.byte	0x3a
 1686 0a25 1A       		.byte	0x1a
 1687 0a26 600A0000 		.4byte	0xa60
 1688 0a2a 00       		.byte	0
 1689 0a2b 01       		.uleb128 0x1
 1690 0a2c 42000000 		.4byte	.LASF134
 1691 0a30 11       		.byte	0x11
 1692 0a31 3D       		.byte	0x3d
 1693 0a32 1A       		.byte	0x1a
 1694 0a33 D9040000 		.4byte	0x4d9
 1695 0a37 04       		.byte	0x4
 1696 0a38 01       		.uleb128 0x1
 1697 0a39 DB090000 		.4byte	.LASF135
 1698 0a3d 11       		.byte	0x11
 1699 0a3e 3F       		.byte	0x3f
 1700 0a3f 19       		.byte	0x19
 1701 0a40 77010000 		.4byte	0x177
 1702 0a44 08       		.byte	0x8
 1703 0a45 01       		.uleb128 0x1
 1704 0a46 58000000 		.4byte	.LASF40
 1705 0a4a 11       		.byte	0x11
 1706 0a4b 41       		.byte	0x41
ARM GAS  C:\Users\DEVELO~1\AppData\Local\Temp\cc4M0Z3o.s 			page 32


 1707 0a4c 19       		.byte	0x19
 1708 0a4d 83010000 		.4byte	0x183
 1709 0a51 0C       		.byte	0xc
 1710 0a52 01       		.uleb128 0x1
 1711 0a53 F3070000 		.4byte	.LASF136
 1712 0a57 11       		.byte	0x11
 1713 0a58 43       		.byte	0x43
 1714 0a59 19       		.byte	0x19
 1715 0a5a 83010000 		.4byte	0x183
 1716 0a5e 10       		.byte	0x10
 1717 0a5f 00       		.byte	0
 1718 0a60 04       		.uleb128 0x4
 1719 0a61 050A0000 		.4byte	0xa05
 1720 0a65 08       		.uleb128 0x8
 1721 0a66 4B000000 		.4byte	.LASF137
 1722 0a6a 04       		.byte	0x4
 1723 0a6b 11       		.byte	0x11
 1724 0a6c 4A       		.byte	0x4a
 1725 0a6d 10       		.byte	0x10
 1726 0a6e 800A0000 		.4byte	0xa80
 1727 0a72 01       		.uleb128 0x1
 1728 0a73 CD000000 		.4byte	.LASF72
 1729 0a77 11       		.byte	0x11
 1730 0a78 4B       		.byte	0x4b
 1731 0a79 1A       		.byte	0x1a
 1732 0a7a 600A0000 		.4byte	0xa60
 1733 0a7e 00       		.byte	0
 1734 0a7f 00       		.byte	0
 1735 0a80 02       		.uleb128 0x2
 1736 0a81 1C030000 		.4byte	.LASF138
 1737 0a85 11       		.byte	0x11
 1738 0a86 4E       		.byte	0x4e
 1739 0a87 03       		.byte	0x3
 1740 0a88 650A0000 		.4byte	0xa65
 1741 0a8c 0C       		.uleb128 0xc
 1742 0a8d 01       		.byte	0x1
 1743 0a8e 02       		.byte	0x2
 1744 0a8f D9030000 		.4byte	.LASF139
 1745 0a93 04       		.uleb128 0x4
 1746 0a94 CC000000 		.4byte	0xcc
 1747 0a98 08       		.uleb128 0x8
 1748 0a99 04010000 		.4byte	.LASF140
 1749 0a9d 14       		.byte	0x14
 1750 0a9e 12       		.byte	0x12
 1751 0a9f 4F       		.byte	0x4f
 1752 0aa0 08       		.byte	0x8
 1753 0aa1 E70A0000 		.4byte	0xae7
 1754 0aa5 01       		.uleb128 0x1
 1755 0aa6 F9050000 		.4byte	.LASF141
 1756 0aaa 12       		.byte	0x12
 1757 0aab 50       		.byte	0x50
 1758 0aac 03       		.byte	0x3
 1759 0aad 2D000000 		.4byte	0x2d
 1760 0ab1 00       		.byte	0
 1761 0ab2 01       		.uleb128 0x1
 1762 0ab3 BD050000 		.4byte	.LASF142
 1763 0ab7 12       		.byte	0x12
ARM GAS  C:\Users\DEVELO~1\AppData\Local\Temp\cc4M0Z3o.s 			page 33


 1764 0ab8 50       		.byte	0x50
 1765 0ab9 03       		.byte	0x3
 1766 0aba 0A0B0000 		.4byte	0xb0a
 1767 0abe 04       		.byte	0x4
 1768 0abf 01       		.uleb128 0x1
 1769 0ac0 BD080000 		.4byte	.LASF143
 1770 0ac4 12       		.byte	0x12
 1771 0ac5 50       		.byte	0x50
 1772 0ac6 03       		.byte	0x3
 1773 0ac7 280B0000 		.4byte	0xb28
 1774 0acb 08       		.byte	0x8
 1775 0acc 0B       		.uleb128 0xb
 1776 0acd 70757400 		.ascii	"put\000"
 1777 0ad1 12       		.byte	0x12
 1778 0ad2 50       		.byte	0x50
 1779 0ad3 03       		.byte	0x3
 1780 0ad4 410B0000 		.4byte	0xb41
 1781 0ad8 0C       		.byte	0xc
 1782 0ad9 0B       		.uleb128 0xb
 1783 0ada 67657400 		.ascii	"get\000"
 1784 0ade 12       		.byte	0x12
 1785 0adf 50       		.byte	0x50
 1786 0ae0 03       		.byte	0x3
 1787 0ae1 550B0000 		.4byte	0xb55
 1788 0ae5 10       		.byte	0x10
 1789 0ae6 00       		.byte	0
 1790 0ae7 10       		.uleb128 0x10
 1791 0ae8 980A0000 		.4byte	0xa98
 1792 0aec 0D       		.uleb128 0xd
 1793 0aed 2D000000 		.4byte	0x2d
 1794 0af1 050B0000 		.4byte	0xb05
 1795 0af5 05       		.uleb128 0x5
 1796 0af6 DE040000 		.4byte	0x4de
 1797 0afa 05       		.uleb128 0x5
 1798 0afb 050B0000 		.4byte	0xb05
 1799 0aff 05       		.uleb128 0x5
 1800 0b00 2D000000 		.4byte	0x2d
 1801 0b04 00       		.byte	0
 1802 0b05 04       		.uleb128 0x4
 1803 0b06 D8000000 		.4byte	0xd8
 1804 0b0a 04       		.uleb128 0x4
 1805 0b0b EC0A0000 		.4byte	0xaec
 1806 0b0f 0D       		.uleb128 0xd
 1807 0b10 2D000000 		.4byte	0x2d
 1808 0b14 280B0000 		.4byte	0xb28
 1809 0b18 05       		.uleb128 0x5
 1810 0b19 DE040000 		.4byte	0x4de
 1811 0b1d 05       		.uleb128 0x5
 1812 0b1e 930A0000 		.4byte	0xa93
 1813 0b22 05       		.uleb128 0x5
 1814 0b23 2D000000 		.4byte	0x2d
 1815 0b27 00       		.byte	0
 1816 0b28 04       		.uleb128 0x4
 1817 0b29 0F0B0000 		.4byte	0xb0f
 1818 0b2d 0D       		.uleb128 0xd
 1819 0b2e 6B010000 		.4byte	0x16b
 1820 0b32 410B0000 		.4byte	0xb41
ARM GAS  C:\Users\DEVELO~1\AppData\Local\Temp\cc4M0Z3o.s 			page 34


 1821 0b36 05       		.uleb128 0x5
 1822 0b37 DE040000 		.4byte	0x4de
 1823 0b3b 05       		.uleb128 0x5
 1824 0b3c CC000000 		.4byte	0xcc
 1825 0b40 00       		.byte	0
 1826 0b41 04       		.uleb128 0x4
 1827 0b42 2D0B0000 		.4byte	0xb2d
 1828 0b46 0D       		.uleb128 0xd
 1829 0b47 6B010000 		.4byte	0x16b
 1830 0b4b 550B0000 		.4byte	0xb55
 1831 0b4f 05       		.uleb128 0x5
 1832 0b50 DE040000 		.4byte	0x4de
 1833 0b54 00       		.byte	0
 1834 0b55 04       		.uleb128 0x4
 1835 0b56 460B0000 		.4byte	0xb46
 1836 0b5a 0E       		.uleb128 0xe
 1837 0b5b 04       		.byte	0x4
 1838 0b5c 12       		.byte	0x12
 1839 0b5d 5A       		.byte	0x5a
 1840 0b5e 09       		.byte	0x9
 1841 0b5f 710B0000 		.4byte	0xb71
 1842 0b63 0B       		.uleb128 0xb
 1843 0b64 766D7400 		.ascii	"vmt\000"
 1844 0b68 12       		.byte	0x12
 1845 0b69 5C       		.byte	0x5c
 1846 0b6a 29       		.byte	0x29
 1847 0b6b 710B0000 		.4byte	0xb71
 1848 0b6f 00       		.byte	0
 1849 0b70 00       		.byte	0
 1850 0b71 04       		.uleb128 0x4
 1851 0b72 E70A0000 		.4byte	0xae7
 1852 0b76 02       		.uleb128 0x2
 1853 0b77 76040000 		.4byte	.LASF144
 1854 0b7b 12       		.byte	0x12
 1855 0b7c 5E       		.byte	0x5e
 1856 0b7d 03       		.byte	0x3
 1857 0b7e 5A0B0000 		.4byte	0xb5a
 1858 0b82 0D       		.uleb128 0xd
 1859 0b83 6B010000 		.4byte	0x16b
 1860 0b87 9B0B0000 		.4byte	0xb9b
 1861 0b8b 05       		.uleb128 0x5
 1862 0b8c DE040000 		.4byte	0x4de
 1863 0b90 05       		.uleb128 0x5
 1864 0b91 CC000000 		.4byte	0xcc
 1865 0b95 05       		.uleb128 0x5
 1866 0b96 AC030000 		.4byte	0x3ac
 1867 0b9a 00       		.byte	0
 1868 0b9b 04       		.uleb128 0x4
 1869 0b9c 820B0000 		.4byte	0xb82
 1870 0ba0 0D       		.uleb128 0xd
 1871 0ba1 6B010000 		.4byte	0x16b
 1872 0ba5 B40B0000 		.4byte	0xbb4
 1873 0ba9 05       		.uleb128 0x5
 1874 0baa DE040000 		.4byte	0x4de
 1875 0bae 05       		.uleb128 0x5
 1876 0baf AC030000 		.4byte	0x3ac
 1877 0bb3 00       		.byte	0
ARM GAS  C:\Users\DEVELO~1\AppData\Local\Temp\cc4M0Z3o.s 			page 35


 1878 0bb4 04       		.uleb128 0x4
 1879 0bb5 A00B0000 		.4byte	0xba0
 1880 0bb9 0D       		.uleb128 0xd
 1881 0bba 2D000000 		.4byte	0x2d
 1882 0bbe D70B0000 		.4byte	0xbd7
 1883 0bc2 05       		.uleb128 0x5
 1884 0bc3 DE040000 		.4byte	0x4de
 1885 0bc7 05       		.uleb128 0x5
 1886 0bc8 050B0000 		.4byte	0xb05
 1887 0bcc 05       		.uleb128 0x5
 1888 0bcd 2D000000 		.4byte	0x2d
 1889 0bd1 05       		.uleb128 0x5
 1890 0bd2 AC030000 		.4byte	0x3ac
 1891 0bd6 00       		.byte	0
 1892 0bd7 04       		.uleb128 0x4
 1893 0bd8 B90B0000 		.4byte	0xbb9
 1894 0bdc 0D       		.uleb128 0xd
 1895 0bdd 2D000000 		.4byte	0x2d
 1896 0be1 FA0B0000 		.4byte	0xbfa
 1897 0be5 05       		.uleb128 0x5
 1898 0be6 DE040000 		.4byte	0x4de
 1899 0bea 05       		.uleb128 0x5
 1900 0beb 930A0000 		.4byte	0xa93
 1901 0bef 05       		.uleb128 0x5
 1902 0bf0 2D000000 		.4byte	0x2d
 1903 0bf4 05       		.uleb128 0x5
 1904 0bf5 AC030000 		.4byte	0x3ac
 1905 0bf9 00       		.byte	0
 1906 0bfa 04       		.uleb128 0x4
 1907 0bfb DC0B0000 		.4byte	0xbdc
 1908 0bff 0D       		.uleb128 0xd
 1909 0c00 6B010000 		.4byte	0x16b
 1910 0c04 180C0000 		.4byte	0xc18
 1911 0c08 05       		.uleb128 0x5
 1912 0c09 DE040000 		.4byte	0x4de
 1913 0c0d 05       		.uleb128 0x5
 1914 0c0e 3E000000 		.4byte	0x3e
 1915 0c12 05       		.uleb128 0x5
 1916 0c13 DE040000 		.4byte	0x4de
 1917 0c17 00       		.byte	0
 1918 0c18 04       		.uleb128 0x4
 1919 0c19 FF0B0000 		.4byte	0xbff
 1920 0c1d 02       		.uleb128 0x2
 1921 0c1e 94000000 		.4byte	.LASF145
 1922 0c22 13       		.byte	0x13
 1923 0c23 3A       		.byte	0x3a
 1924 0c24 19       		.byte	0x19
 1925 0c25 290C0000 		.4byte	0xc29
 1926 0c29 08       		.uleb128 0x8
 1927 0c2a 3F0A0000 		.4byte	.LASF146
 1928 0c2e 24       		.byte	0x24
 1929 0c2f 13       		.byte	0x13
 1930 0c30 4B       		.byte	0x4b
 1931 0c31 08       		.byte	0x8
 1932 0c32 9F0C0000 		.4byte	0xc9f
 1933 0c36 01       		.uleb128 0x1
 1934 0c37 2C020000 		.4byte	.LASF147
ARM GAS  C:\Users\DEVELO~1\AppData\Local\Temp\cc4M0Z3o.s 			page 36


 1935 0c3b 13       		.byte	0x13
 1936 0c3c 4C       		.byte	0x4c
 1937 0c3d 19       		.byte	0x19
 1938 0c3e 3A080000 		.4byte	0x83a
 1939 0c42 00       		.byte	0
 1940 0c43 01       		.uleb128 0x1
 1941 0c44 4F050000 		.4byte	.LASF148
 1942 0c48 13       		.byte	0x13
 1943 0c49 4D       		.byte	0x4d
 1944 0c4a 19       		.byte	0x19
 1945 0c4b 39000000 		.4byte	0x39
 1946 0c4f 08       		.byte	0x8
 1947 0c50 01       		.uleb128 0x1
 1948 0c51 A50A0000 		.4byte	.LASF149
 1949 0c55 13       		.byte	0x13
 1950 0c56 4E       		.byte	0x4e
 1951 0c57 1A       		.byte	0x1a
 1952 0c58 930A0000 		.4byte	0xa93
 1953 0c5c 0C       		.byte	0xc
 1954 0c5d 01       		.uleb128 0x1
 1955 0c5e EF080000 		.4byte	.LASF150
 1956 0c62 13       		.byte	0x13
 1957 0c63 4F       		.byte	0x4f
 1958 0c64 1A       		.byte	0x1a
 1959 0c65 930A0000 		.4byte	0xa93
 1960 0c69 10       		.byte	0x10
 1961 0c6a 01       		.uleb128 0x1
 1962 0c6b F9040000 		.4byte	.LASF151
 1963 0c6f 13       		.byte	0x13
 1964 0c70 51       		.byte	0x51
 1965 0c71 1A       		.byte	0x1a
 1966 0c72 930A0000 		.4byte	0xa93
 1967 0c76 14       		.byte	0x14
 1968 0c77 01       		.uleb128 0x1
 1969 0c78 E3000000 		.4byte	.LASF152
 1970 0c7c 13       		.byte	0x13
 1971 0c7d 52       		.byte	0x52
 1972 0c7e 1A       		.byte	0x1a
 1973 0c7f 930A0000 		.4byte	0xa93
 1974 0c83 18       		.byte	0x18
 1975 0c84 01       		.uleb128 0x1
 1976 0c85 4F040000 		.4byte	.LASF153
 1977 0c89 13       		.byte	0x13
 1978 0c8a 53       		.byte	0x53
 1979 0c8b 19       		.byte	0x19
 1980 0c8c 9F0C0000 		.4byte	0xc9f
 1981 0c90 1C       		.byte	0x1c
 1982 0c91 01       		.uleb128 0x1
 1983 0c92 9F040000 		.4byte	.LASF154
 1984 0c96 13       		.byte	0x13
 1985 0c97 54       		.byte	0x54
 1986 0c98 1A       		.byte	0x1a
 1987 0c99 DE040000 		.4byte	0x4de
 1988 0c9d 20       		.byte	0x20
 1989 0c9e 00       		.byte	0
 1990 0c9f 02       		.uleb128 0x2
 1991 0ca0 FA000000 		.4byte	.LASF155
ARM GAS  C:\Users\DEVELO~1\AppData\Local\Temp\cc4M0Z3o.s 			page 37


 1992 0ca4 13       		.byte	0x13
 1993 0ca5 41       		.byte	0x41
 1994 0ca6 10       		.byte	0x10
 1995 0ca7 AB0C0000 		.4byte	0xcab
 1996 0cab 04       		.uleb128 0x4
 1997 0cac B00C0000 		.4byte	0xcb0
 1998 0cb0 25       		.uleb128 0x25
 1999 0cb1 BB0C0000 		.4byte	0xcbb
 2000 0cb5 05       		.uleb128 0x5
 2001 0cb6 BB0C0000 		.4byte	0xcbb
 2002 0cba 00       		.byte	0
 2003 0cbb 04       		.uleb128 0x4
 2004 0cbc 1D0C0000 		.4byte	0xc1d
 2005 0cc0 02       		.uleb128 0x2
 2006 0cc1 6D050000 		.4byte	.LASF156
 2007 0cc5 13       		.byte	0x13
 2008 0cc6 61       		.byte	0x61
 2009 0cc7 14       		.byte	0x14
 2010 0cc8 1D0C0000 		.4byte	0xc1d
 2011 0ccc 02       		.uleb128 0x2
 2012 0ccd 09060000 		.4byte	.LASF157
 2013 0cd1 13       		.byte	0x13
 2014 0cd2 6D       		.byte	0x6d
 2015 0cd3 14       		.byte	0x14
 2016 0cd4 1D0C0000 		.4byte	0xc1d
 2017 0cd8 14       		.uleb128 0x14
 2018 0cd9 66000000 		.4byte	0x66
 2019 0cdd 14       		.byte	0x14
 2020 0cde 58       		.byte	0x58
 2021 0cdf F60C0000 		.4byte	0xcf6
 2022 0ce3 09       		.uleb128 0x9
 2023 0ce4 C2080000 		.4byte	.LASF158
 2024 0ce8 00       		.byte	0
 2025 0ce9 09       		.uleb128 0x9
 2026 0cea DF030000 		.4byte	.LASF159
 2027 0cee 01       		.byte	0x1
 2028 0cef 09       		.uleb128 0x9
 2029 0cf0 1D070000 		.4byte	.LASF160
 2030 0cf4 02       		.byte	0x2
 2031 0cf5 00       		.byte	0
 2032 0cf6 02       		.uleb128 0x2
 2033 0cf7 80020000 		.4byte	.LASF161
 2034 0cfb 14       		.byte	0x14
 2035 0cfc 5C       		.byte	0x5c
 2036 0cfd 03       		.byte	0x3
 2037 0cfe D80C0000 		.4byte	0xcd8
 2038 0d02 02       		.uleb128 0x2
 2039 0d03 09000000 		.4byte	.LASF162
 2040 0d07 14       		.byte	0x14
 2041 0d08 61       		.byte	0x61
 2042 0d09 22       		.byte	0x22
 2043 0d0a 0E0D0000 		.4byte	0xd0e
 2044 0d0e 08       		.uleb128 0x8
 2045 0d0f 82000000 		.4byte	.LASF163
 2046 0d13 60       		.byte	0x60
 2047 0d14 14       		.byte	0x14
 2048 0d15 7B       		.byte	0x7b
ARM GAS  C:\Users\DEVELO~1\AppData\Local\Temp\cc4M0Z3o.s 			page 38


 2049 0d16 08       		.byte	0x8
 2050 0d17 840D0000 		.4byte	0xd84
 2051 0d1b 0B       		.uleb128 0xb
 2052 0d1c 766D7400 		.ascii	"vmt\000"
 2053 0d20 14       		.byte	0x14
 2054 0d21 7D       		.byte	0x7d
 2055 0d22 21       		.byte	0x21
 2056 0d23 7E0E0000 		.4byte	0xe7e
 2057 0d27 00       		.byte	0
 2058 0d28 01       		.uleb128 0x1
 2059 0d29 8A020000 		.4byte	.LASF164
 2060 0d2d 14       		.byte	0x14
 2061 0d2e 7E       		.byte	0x7e
 2062 0d2f 03       		.byte	0x3
 2063 0d30 800A0000 		.4byte	0xa80
 2064 0d34 04       		.byte	0x4
 2065 0d35 01       		.uleb128 0x1
 2066 0d36 ED090000 		.4byte	.LASF39
 2067 0d3a 14       		.byte	0x14
 2068 0d3b 7E       		.byte	0x7e
 2069 0d3c 03       		.byte	0x3
 2070 0d3d F60C0000 		.4byte	0xcf6
 2071 0d41 08       		.byte	0x8
 2072 0d42 01       		.uleb128 0x1
 2073 0d43 17020000 		.4byte	.LASF165
 2074 0d47 14       		.byte	0x14
 2075 0d48 7E       		.byte	0x7e
 2076 0d49 03       		.byte	0x3
 2077 0d4a C00C0000 		.4byte	0xcc0
 2078 0d4e 0C       		.byte	0xc
 2079 0d4f 01       		.uleb128 0x1
 2080 0d50 F7060000 		.4byte	.LASF166
 2081 0d54 14       		.byte	0x14
 2082 0d55 7E       		.byte	0x7e
 2083 0d56 03       		.byte	0x3
 2084 0d57 CC0C0000 		.4byte	0xccc
 2085 0d5b 30       		.byte	0x30
 2086 0d5c 01       		.uleb128 0x1
 2087 0d5d 97050000 		.4byte	.LASF167
 2088 0d61 14       		.byte	0x14
 2089 0d62 7E       		.byte	0x7e
 2090 0d63 03       		.byte	0x3
 2091 0d64 830E0000 		.4byte	0xe83
 2092 0d68 54       		.byte	0x54
 2093 0d69 01       		.uleb128 0x1
 2094 0d6a 61040000 		.4byte	.LASF168
 2095 0d6e 14       		.byte	0x14
 2096 0d6f 7E       		.byte	0x7e
 2097 0d70 03       		.byte	0x3
 2098 0d71 F5000000 		.4byte	0xf5
 2099 0d75 58       		.byte	0x58
 2100 0d76 01       		.uleb128 0x1
 2101 0d77 E2070000 		.4byte	.LASF169
 2102 0d7b 14       		.byte	0x14
 2103 0d7c 7E       		.byte	0x7e
 2104 0d7d 03       		.byte	0x3
 2105 0d7e CC000000 		.4byte	0xcc
ARM GAS  C:\Users\DEVELO~1\AppData\Local\Temp\cc4M0Z3o.s 			page 39


 2106 0d82 5C       		.byte	0x5c
 2107 0d83 00       		.byte	0
 2108 0d84 13       		.uleb128 0x13
 2109 0d85 20040000 		.4byte	.LASF170
 2110 0d89 10       		.byte	0x10
 2111 0d8a 15       		.byte	0x15
 2112 0d8b 6002     		.2byte	0x260
 2113 0d8d 10       		.byte	0x10
 2114 0d8e CB0D0000 		.4byte	0xdcb
 2115 0d92 06       		.uleb128 0x6
 2116 0d93 84010000 		.4byte	.LASF171
 2117 0d97 15       		.byte	0x15
 2118 0d98 6402     		.2byte	0x264
 2119 0d9a 1D       		.byte	0x1d
 2120 0d9b F5000000 		.4byte	0xf5
 2121 0d9f 00       		.byte	0
 2122 0da0 07       		.uleb128 0x7
 2123 0da1 63723100 		.ascii	"cr1\000"
 2124 0da5 15       		.byte	0x15
 2125 0da6 6902     		.2byte	0x269
 2126 0da8 1D       		.byte	0x1d
 2127 0da9 F5000000 		.4byte	0xf5
 2128 0dad 04       		.byte	0x4
 2129 0dae 07       		.uleb128 0x7
 2130 0daf 63723200 		.ascii	"cr2\000"
 2131 0db3 15       		.byte	0x15
 2132 0db4 6D02     		.2byte	0x26d
 2133 0db6 1D       		.byte	0x1d
 2134 0db7 F5000000 		.4byte	0xf5
 2135 0dbb 08       		.byte	0x8
 2136 0dbc 07       		.uleb128 0x7
 2137 0dbd 63723300 		.ascii	"cr3\000"
 2138 0dc1 15       		.byte	0x15
 2139 0dc2 7102     		.2byte	0x271
 2140 0dc4 1D       		.byte	0x1d
 2141 0dc5 F5000000 		.4byte	0xf5
 2142 0dc9 0C       		.byte	0xc
 2143 0dca 00       		.byte	0
 2144 0dcb 16       		.uleb128 0x16
 2145 0dcc 65020000 		.4byte	.LASF172
 2146 0dd0 15       		.byte	0x15
 2147 0dd1 7202     		.2byte	0x272
 2148 0dd3 840D0000 		.4byte	0xd84
 2149 0dd7 10       		.uleb128 0x10
 2150 0dd8 CB0D0000 		.4byte	0xdcb
 2151 0ddc 26       		.uleb128 0x26
 2152 0ddd 53443100 		.ascii	"SD1\000"
 2153 0de1 15       		.byte	0x15
 2154 0de2 9002     		.2byte	0x290
 2155 0de4 15       		.byte	0x15
 2156 0de5 020D0000 		.4byte	0xd02
 2157 0de9 08       		.uleb128 0x8
 2158 0dea 480A0000 		.4byte	.LASF173
 2159 0dee 28       		.byte	0x28
 2160 0def 14       		.byte	0x14
 2161 0df0 70       		.byte	0x70
 2162 0df1 08       		.byte	0x8
ARM GAS  C:\Users\DEVELO~1\AppData\Local\Temp\cc4M0Z3o.s 			page 40


 2163 0df2 790E0000 		.4byte	0xe79
 2164 0df6 01       		.uleb128 0x1
 2165 0df7 F9050000 		.4byte	.LASF141
 2166 0dfb 14       		.byte	0x14
 2167 0dfc 71       		.byte	0x71
 2168 0dfd 03       		.byte	0x3
 2169 0dfe 2D000000 		.4byte	0x2d
 2170 0e02 00       		.byte	0
 2171 0e03 01       		.uleb128 0x1
 2172 0e04 BD050000 		.4byte	.LASF142
 2173 0e08 14       		.byte	0x14
 2174 0e09 71       		.byte	0x71
 2175 0e0a 03       		.byte	0x3
 2176 0e0b 0A0B0000 		.4byte	0xb0a
 2177 0e0f 04       		.byte	0x4
 2178 0e10 01       		.uleb128 0x1
 2179 0e11 BD080000 		.4byte	.LASF143
 2180 0e15 14       		.byte	0x14
 2181 0e16 71       		.byte	0x71
 2182 0e17 03       		.byte	0x3
 2183 0e18 280B0000 		.4byte	0xb28
 2184 0e1c 08       		.byte	0x8
 2185 0e1d 0B       		.uleb128 0xb
 2186 0e1e 70757400 		.ascii	"put\000"
 2187 0e22 14       		.byte	0x14
 2188 0e23 71       		.byte	0x71
 2189 0e24 03       		.byte	0x3
 2190 0e25 410B0000 		.4byte	0xb41
 2191 0e29 0C       		.byte	0xc
 2192 0e2a 0B       		.uleb128 0xb
 2193 0e2b 67657400 		.ascii	"get\000"
 2194 0e2f 14       		.byte	0x14
 2195 0e30 71       		.byte	0x71
 2196 0e31 03       		.byte	0x3
 2197 0e32 550B0000 		.4byte	0xb55
 2198 0e36 10       		.byte	0x10
 2199 0e37 01       		.uleb128 0x1
 2200 0e38 B2030000 		.4byte	.LASF174
 2201 0e3c 14       		.byte	0x14
 2202 0e3d 71       		.byte	0x71
 2203 0e3e 03       		.byte	0x3
 2204 0e3f 9B0B0000 		.4byte	0xb9b
 2205 0e43 14       		.byte	0x14
 2206 0e44 01       		.uleb128 0x1
 2207 0e45 EA080000 		.4byte	.LASF175
 2208 0e49 14       		.byte	0x14
 2209 0e4a 71       		.byte	0x71
 2210 0e4b 03       		.byte	0x3
 2211 0e4c B40B0000 		.4byte	0xbb4
 2212 0e50 18       		.byte	0x18
 2213 0e51 01       		.uleb128 0x1
 2214 0e52 8A010000 		.4byte	.LASF176
 2215 0e56 14       		.byte	0x14
 2216 0e57 71       		.byte	0x71
 2217 0e58 03       		.byte	0x3
 2218 0e59 D70B0000 		.4byte	0xbd7
 2219 0e5d 1C       		.byte	0x1c
ARM GAS  C:\Users\DEVELO~1\AppData\Local\Temp\cc4M0Z3o.s 			page 41


 2220 0e5e 01       		.uleb128 0x1
 2221 0e5f E8050000 		.4byte	.LASF177
 2222 0e63 14       		.byte	0x14
 2223 0e64 71       		.byte	0x71
 2224 0e65 03       		.byte	0x3
 2225 0e66 FA0B0000 		.4byte	0xbfa
 2226 0e6a 20       		.byte	0x20
 2227 0e6b 0B       		.uleb128 0xb
 2228 0e6c 63746C00 		.ascii	"ctl\000"
 2229 0e70 14       		.byte	0x14
 2230 0e71 71       		.byte	0x71
 2231 0e72 03       		.byte	0x3
 2232 0e73 180C0000 		.4byte	0xc18
 2233 0e77 24       		.byte	0x24
 2234 0e78 00       		.byte	0
 2235 0e79 10       		.uleb128 0x10
 2236 0e7a E90D0000 		.4byte	0xde9
 2237 0e7e 04       		.uleb128 0x4
 2238 0e7f 790E0000 		.4byte	0xe79
 2239 0e83 04       		.uleb128 0x4
 2240 0e84 F8060000 		.4byte	0x6f8
 2241 0e88 14       		.uleb128 0x14
 2242 0e89 66000000 		.4byte	0x66
 2243 0e8d 16       		.byte	0x16
 2244 0e8e 15       		.byte	0x15
 2245 0e8f B20E0000 		.4byte	0xeb2
 2246 0e93 09       		.uleb128 0x9
 2247 0e94 01020000 		.4byte	.LASF178
 2248 0e98 00       		.byte	0
 2249 0e99 09       		.uleb128 0x9
 2250 0e9a FA070000 		.4byte	.LASF179
 2251 0e9e 01       		.byte	0x1
 2252 0e9f 09       		.uleb128 0x9
 2253 0ea0 83090000 		.4byte	.LASF180
 2254 0ea4 02       		.byte	0x2
 2255 0ea5 09       		.uleb128 0x9
 2256 0ea6 90020000 		.4byte	.LASF181
 2257 0eaa 03       		.byte	0x3
 2258 0eab 09       		.uleb128 0x9
 2259 0eac 70010000 		.4byte	.LASF182
 2260 0eb0 04       		.byte	0x4
 2261 0eb1 00       		.byte	0
 2262 0eb2 02       		.uleb128 0x2
 2263 0eb3 3E020000 		.4byte	.LASF183
 2264 0eb7 16       		.byte	0x16
 2265 0eb8 1B       		.byte	0x1b
 2266 0eb9 03       		.byte	0x3
 2267 0eba 880E0000 		.4byte	0xe88
 2268 0ebe 14       		.uleb128 0x14
 2269 0ebf 66000000 		.4byte	0x66
 2270 0ec3 16       		.byte	0x16
 2271 0ec4 4E       		.byte	0x4e
 2272 0ec5 DC0E0000 		.4byte	0xedc
 2273 0ec9 09       		.uleb128 0x9
 2274 0eca 06030000 		.4byte	.LASF184
 2275 0ece 00       		.byte	0
 2276 0ecf 09       		.uleb128 0x9
ARM GAS  C:\Users\DEVELO~1\AppData\Local\Temp\cc4M0Z3o.s 			page 42


 2277 0ed0 94090000 		.4byte	.LASF185
 2278 0ed4 01       		.byte	0x1
 2279 0ed5 09       		.uleb128 0x9
 2280 0ed6 EE020000 		.4byte	.LASF186
 2281 0eda 02       		.byte	0x2
 2282 0edb 00       		.byte	0
 2283 0edc 02       		.uleb128 0x2
 2284 0edd F5080000 		.4byte	.LASF187
 2285 0ee1 16       		.byte	0x16
 2286 0ee2 52       		.byte	0x52
 2287 0ee3 03       		.byte	0x3
 2288 0ee4 BE0E0000 		.4byte	0xebe
 2289 0ee8 14       		.uleb128 0x14
 2290 0ee9 66000000 		.4byte	0x66
 2291 0eed 16       		.byte	0x16
 2292 0eee 57       		.byte	0x57
 2293 0eef 120F0000 		.4byte	0xf12
 2294 0ef3 09       		.uleb128 0x9
 2295 0ef4 FB030000 		.4byte	.LASF188
 2296 0ef8 00       		.byte	0
 2297 0ef9 09       		.uleb128 0x9
 2298 0efa 8F060000 		.4byte	.LASF189
 2299 0efe 01       		.byte	0x1
 2300 0eff 09       		.uleb128 0x9
 2301 0f00 2A060000 		.4byte	.LASF190
 2302 0f04 02       		.byte	0x2
 2303 0f05 09       		.uleb128 0x9
 2304 0f06 9F000000 		.4byte	.LASF191
 2305 0f0a 03       		.byte	0x3
 2306 0f0b 09       		.uleb128 0x9
 2307 0f0c A6080000 		.4byte	.LASF192
 2308 0f10 04       		.byte	0x4
 2309 0f11 00       		.byte	0
 2310 0f12 02       		.uleb128 0x2
 2311 0f13 43030000 		.4byte	.LASF193
 2312 0f17 16       		.byte	0x16
 2313 0f18 5D       		.byte	0x5d
 2314 0f19 03       		.byte	0x3
 2315 0f1a E80E0000 		.4byte	0xee8
 2316 0f1e 14       		.uleb128 0x14
 2317 0f1f 66000000 		.4byte	0x66
 2318 0f23 16       		.byte	0x16
 2319 0f24 62       		.byte	0x62
 2320 0f25 360F0000 		.4byte	0xf36
 2321 0f29 09       		.uleb128 0x9
 2322 0f2a 86080000 		.4byte	.LASF194
 2323 0f2e 00       		.byte	0
 2324 0f2f 09       		.uleb128 0x9
 2325 0f30 1C010000 		.4byte	.LASF195
 2326 0f34 01       		.byte	0x1
 2327 0f35 00       		.byte	0
 2328 0f36 02       		.uleb128 0x2
 2329 0f37 7B050000 		.4byte	.LASF196
 2330 0f3b 16       		.byte	0x16
 2331 0f3c 65       		.byte	0x65
 2332 0f3d 03       		.byte	0x3
 2333 0f3e 1E0F0000 		.4byte	0xf1e
ARM GAS  C:\Users\DEVELO~1\AppData\Local\Temp\cc4M0Z3o.s 			page 43


 2334 0f42 0E       		.uleb128 0xe
 2335 0f43 20       		.byte	0x20
 2336 0f44 16       		.byte	0x16
 2337 0f45 6A       		.byte	0x6a
 2338 0f46 09       		.byte	0x9
 2339 0f47 C10F0000 		.4byte	0xfc1
 2340 0f4b 01       		.uleb128 0x1
 2341 0f4c 61050000 		.4byte	.LASF197
 2342 0f50 16       		.byte	0x16
 2343 0f51 6B       		.byte	0x6b
 2344 0f52 17       		.byte	0x17
 2345 0f53 DC0E0000 		.4byte	0xedc
 2346 0f57 00       		.byte	0
 2347 0f58 01       		.uleb128 0x1
 2348 0f59 4C020000 		.4byte	.LASF198
 2349 0f5d 16       		.byte	0x16
 2350 0f5e 6C       		.byte	0x6c
 2351 0f5f 0C       		.byte	0xc
 2352 0f60 F5000000 		.4byte	0xf5
 2353 0f64 04       		.byte	0x4
 2354 0f65 01       		.uleb128 0x1
 2355 0f66 19080000 		.4byte	.LASF199
 2356 0f6a 16       		.byte	0x16
 2357 0f6b 6D       		.byte	0x6d
 2358 0f6c 0C       		.byte	0xc
 2359 0f6d F5000000 		.4byte	0xf5
 2360 0f71 08       		.byte	0x8
 2361 0f72 01       		.uleb128 0x1
 2362 0f73 3E080000 		.4byte	.LASF200
 2363 0f77 16       		.byte	0x16
 2364 0f78 6E       		.byte	0x6e
 2365 0f79 0C       		.byte	0xc
 2366 0f7a F5000000 		.4byte	0xf5
 2367 0f7e 0C       		.byte	0xc
 2368 0f7f 01       		.uleb128 0x1
 2369 0f80 E7030000 		.4byte	.LASF201
 2370 0f84 16       		.byte	0x16
 2371 0f85 6F       		.byte	0x6f
 2372 0f86 0D       		.byte	0xd
 2373 0f87 17010000 		.4byte	0x117
 2374 0f8b 10       		.byte	0x10
 2375 0f8c 01       		.uleb128 0x1
 2376 0f8d 7F0A0000 		.4byte	.LASF202
 2377 0f91 16       		.byte	0x16
 2378 0f92 70       		.byte	0x70
 2379 0f93 16       		.byte	0x16
 2380 0f94 120F0000 		.4byte	0xf12
 2381 0f98 14       		.byte	0x14
 2382 0f99 01       		.uleb128 0x1
 2383 0f9a 8B040000 		.4byte	.LASF203
 2384 0f9e 16       		.byte	0x16
 2385 0f9f 71       		.byte	0x71
 2386 0fa0 0C       		.byte	0xc
 2387 0fa1 DD000000 		.4byte	0xdd
 2388 0fa5 16       		.byte	0x16
 2389 0fa6 01       		.uleb128 0x1
 2390 0fa7 AB040000 		.4byte	.LASF204
ARM GAS  C:\Users\DEVELO~1\AppData\Local\Temp\cc4M0Z3o.s 			page 44


 2391 0fab 16       		.byte	0x16
 2392 0fac 72       		.byte	0x72
 2393 0fad 0D       		.byte	0xd
 2394 0fae A0030000 		.4byte	0x3a0
 2395 0fb2 18       		.byte	0x18
 2396 0fb3 01       		.uleb128 0x1
 2397 0fb4 1F0A0000 		.4byte	.LASF205
 2398 0fb8 16       		.byte	0x16
 2399 0fb9 73       		.byte	0x73
 2400 0fba 0D       		.byte	0xd
 2401 0fbb A0030000 		.4byte	0x3a0
 2402 0fbf 1C       		.byte	0x1c
 2403 0fc0 00       		.byte	0
 2404 0fc1 02       		.uleb128 0x2
 2405 0fc2 CC080000 		.4byte	.LASF206
 2406 0fc6 16       		.byte	0x16
 2407 0fc7 74       		.byte	0x74
 2408 0fc8 03       		.byte	0x3
 2409 0fc9 420F0000 		.4byte	0xf42
 2410 0fcd 27       		.uleb128 0x27
 2411 0fce D9050000 		.4byte	.LASF219
 2412 0fd2 01       		.byte	0x1
 2413 0fd3 08       		.byte	0x8
 2414 0fd4 1B       		.byte	0x1b
 2415 0fd5 D70D0000 		.4byte	0xdd7
 2416 0fd9 05       		.uleb128 0x5
 2417 0fda 03       		.byte	0x3
 2418 0fdb 00000000 		.4byte	uart_cfg
 2419 0fdf 28       		.uleb128 0x28
 2420 0fe0 63687000 		.ascii	"chp\000"
 2421 0fe4 01       		.byte	0x1
 2422 0fe5 0F       		.byte	0xf
 2423 0fe6 1E       		.byte	0x1e
 2424 0fe7 EB0F0000 		.4byte	0xfeb
 2425 0feb 04       		.uleb128 0x4
 2426 0fec 760B0000 		.4byte	0xb76
 2427 0ff0 1A       		.uleb128 0x1a
 2428 0ff1 700A0000 		.4byte	.LASF209
 2429 0ff5 16       		.byte	0x16
 2430 0ff6 A7       		.byte	0xa7
 2431 0ff7 06       		.byte	0x6
 2432 0ff8 8C0A0000 		.4byte	0xa8c
 2433 0ffc 0B100000 		.4byte	0x100b
 2434 1000 05       		.uleb128 0x5
 2435 1001 360F0000 		.4byte	0xf36
 2436 1005 05       		.uleb128 0x5
 2437 1006 0B100000 		.4byte	0x100b
 2438 100a 00       		.byte	0
 2439 100b 04       		.uleb128 0x4
 2440 100c C10F0000 		.4byte	0xfc1
 2441 1010 1B       		.uleb128 0x1b
 2442 1011 1D060000 		.4byte	.LASF207
 2443 1015 92       		.byte	0x92
 2444 1016 0F       		.byte	0xf
 2445 1017 B20E0000 		.4byte	0xeb2
 2446 101b 29       		.uleb128 0x29
 2447 101c 5E060000 		.4byte	.LASF211
ARM GAS  C:\Users\DEVELO~1\AppData\Local\Temp\cc4M0Z3o.s 			page 45


 2448 1020 16       		.byte	0x16
 2449 1021 81       		.byte	0x81
 2450 1022 06       		.byte	0x6
 2451 1023 2D100000 		.4byte	0x102d
 2452 1027 05       		.uleb128 0x5
 2453 1028 8C0A0000 		.4byte	0xa8c
 2454 102c 00       		.byte	0
 2455 102d 1B       		.uleb128 0x1b
 2456 102e 11050000 		.4byte	.LASF208
 2457 1032 88       		.byte	0x88
 2458 1033 06       		.byte	0x6
 2459 1034 8C0A0000 		.4byte	0xa8c
 2460 1038 1A       		.uleb128 0x1a
 2461 1039 58040000 		.4byte	.LASF210
 2462 103d 17       		.byte	0x17
 2463 103e 2B       		.byte	0x2b
 2464 103f 07       		.byte	0x7
 2465 1040 26000000 		.4byte	0x26
 2466 1044 54100000 		.4byte	0x1054
 2467 1048 05       		.uleb128 0x5
 2468 1049 EB0F0000 		.4byte	0xfeb
 2469 104d 05       		.uleb128 0x5
 2470 104e 7E030000 		.4byte	0x37e
 2471 1052 2A       		.uleb128 0x2a
 2472 1053 00       		.byte	0
 2473 1054 2B       		.uleb128 0x2b
 2474 1055 E2090000 		.4byte	.LASF212
 2475 1059 18       		.byte	0x18
 2476 105a 4201     		.2byte	0x142
 2477 105c 08       		.byte	0x8
 2478 105d 67100000 		.4byte	0x1067
 2479 1061 05       		.uleb128 0x5
 2480 1062 AC030000 		.4byte	0x3ac
 2481 1066 00       		.byte	0
 2482 1067 2C       		.uleb128 0x2c
 2483 1068 16000000 		.4byte	.LASF213
 2484 106c 14       		.byte	0x14
 2485 106d 8601     		.2byte	0x186
 2486 106f 09       		.byte	0x9
 2487 1070 6B010000 		.4byte	0x16b
 2488 1074 83100000 		.4byte	0x1083
 2489 1078 05       		.uleb128 0x5
 2490 1079 83100000 		.4byte	0x1083
 2491 107d 05       		.uleb128 0x5
 2492 107e 88100000 		.4byte	0x1088
 2493 1082 00       		.byte	0
 2494 1083 04       		.uleb128 0x4
 2495 1084 020D0000 		.4byte	0xd02
 2496 1088 04       		.uleb128 0x4
 2497 1089 D70D0000 		.4byte	0xdd7
 2498 108d 1C       		.uleb128 0x1c
 2499 108e C0040000 		.4byte	.LASF214
 2500 1092 19       		.byte	0x19
 2501 1093 4E01     		.2byte	0x14e
 2502 1095 1C       		.uleb128 0x1c
 2503 1096 78080000 		.4byte	.LASF215
 2504 109a 1A       		.byte	0x1a
ARM GAS  C:\Users\DEVELO~1\AppData\Local\Temp\cc4M0Z3o.s 			page 46


 2505 109b 0101     		.2byte	0x101
 2506 109d 2D       		.uleb128 0x2d
 2507 109e 630A0000 		.4byte	.LASF220
 2508 10a2 01       		.byte	0x1
 2509 10a3 11       		.byte	0x11
 2510 10a4 05       		.byte	0x5
 2511 10a5 26000000 		.4byte	0x26
 2512 10a9 00000000 		.4byte	.LFB432
 2513 10ad 4C010000 		.4byte	.LFE432-.LFB432
 2514 10b1 01       		.uleb128 0x1
 2515 10b2 9C       		.byte	0x9c
 2516 10b3 2E       		.uleb128 0x2e
 2517 10b4 0C000000 		.4byte	.LLRL0
 2518 10b8 40110000 		.4byte	0x1140
 2519 10bc 2F       		.uleb128 0x2f
 2520 10bd ED090000 		.4byte	.LASF39
 2521 10c1 01       		.byte	0x1
 2522 10c2 33       		.byte	0x33
 2523 10c3 1B       		.byte	0x1b
 2524 10c4 B20E0000 		.4byte	0xeb2
 2525 10c8 0E000000 		.4byte	.LLST1
 2526 10cc 0C000000 		.4byte	.LVUS1
 2527 10d0 12       		.uleb128 0x12
 2528 10d1 34000000 		.4byte	.LVL4
 2529 10d5 38100000 		.4byte	0x1038
 2530 10d9 0A       		.uleb128 0xa
 2531 10da 3A000000 		.4byte	.LVL5
 2532 10de 1B100000 		.4byte	0x101b
 2533 10e2 EC100000 		.4byte	0x10ec
 2534 10e6 03       		.uleb128 0x3
 2535 10e7 01       		.uleb128 0x1
 2536 10e8 50       		.byte	0x50
 2537 10e9 01       		.uleb128 0x1
 2538 10ea 31       		.byte	0x31
 2539 10eb 00       		.byte	0
 2540 10ec 12       		.uleb128 0x12
 2541 10ed 3E000000 		.4byte	.LVL6
 2542 10f1 10100000 		.4byte	0x1010
 2543 10f5 0A       		.uleb128 0xa
 2544 10f6 DE000000 		.4byte	.LVL24
 2545 10fa 38100000 		.4byte	0x1038
 2546 10fe 0C110000 		.4byte	0x110c
 2547 1102 03       		.uleb128 0x3
 2548 1103 01       		.uleb128 0x1
 2549 1104 51       		.byte	0x51
 2550 1105 05       		.uleb128 0x5
 2551 1106 03       		.byte	0x3
 2552 1107 48010000 		.4byte	.LC12
 2553 110b 00       		.byte	0
 2554 110c 0A       		.uleb128 0xa
 2555 110d E6000000 		.4byte	.LVL25
 2556 1111 F00F0000 		.4byte	0xff0
 2557 1115 26110000 		.4byte	0x1126
 2558 1119 03       		.uleb128 0x3
 2559 111a 01       		.uleb128 0x1
 2560 111b 50       		.byte	0x50
 2561 111c 02       		.uleb128 0x2
ARM GAS  C:\Users\DEVELO~1\AppData\Local\Temp\cc4M0Z3o.s 			page 47


 2562 111d 76       		.byte	0x76
 2563 111e 00       		.sleb128 0
 2564 111f 03       		.uleb128 0x3
 2565 1120 01       		.uleb128 0x1
 2566 1121 51       		.byte	0x51
 2567 1122 02       		.uleb128 0x2
 2568 1123 76       		.byte	0x76
 2569 1124 00       		.sleb128 0
 2570 1125 00       		.byte	0
 2571 1126 30       		.uleb128 0x30
 2572 1127 F6000000 		.4byte	.LVL26
 2573 112b 38100000 		.4byte	0x1038
 2574 112f 03       		.uleb128 0x3
 2575 1130 01       		.uleb128 0x1
 2576 1131 50       		.byte	0x50
 2577 1132 02       		.uleb128 0x2
 2578 1133 74       		.byte	0x74
 2579 1134 00       		.sleb128 0
 2580 1135 03       		.uleb128 0x3
 2581 1136 01       		.uleb128 0x1
 2582 1137 51       		.byte	0x51
 2583 1138 05       		.uleb128 0x5
 2584 1139 03       		.byte	0x3
 2585 113a 84010000 		.4byte	.LC14
 2586 113e 00       		.byte	0
 2587 113f 00       		.byte	0
 2588 1140 12       		.uleb128 0x12
 2589 1141 0A000000 		.4byte	.LVL0
 2590 1145 95100000 		.4byte	0x1095
 2591 1149 12       		.uleb128 0x12
 2592 114a 0E000000 		.4byte	.LVL1
 2593 114e 8D100000 		.4byte	0x108d
 2594 1152 0A       		.uleb128 0xa
 2595 1153 1A000000 		.4byte	.LVL2
 2596 1157 67100000 		.4byte	0x1067
 2597 115b 6F110000 		.4byte	0x116f
 2598 115f 03       		.uleb128 0x3
 2599 1160 01       		.uleb128 0x1
 2600 1161 50       		.byte	0x50
 2601 1162 02       		.uleb128 0x2
 2602 1163 74       		.byte	0x74
 2603 1164 00       		.sleb128 0
 2604 1165 03       		.uleb128 0x3
 2605 1166 01       		.uleb128 0x1
 2606 1167 51       		.byte	0x51
 2607 1168 05       		.uleb128 0x5
 2608 1169 03       		.byte	0x3
 2609 116a 00000000 		.4byte	.LANCHOR0
 2610 116e 00       		.byte	0
 2611 116f 0A       		.uleb128 0xa
 2612 1170 24000000 		.4byte	.LVL3
 2613 1174 54100000 		.4byte	0x1054
 2614 1178 84110000 		.4byte	0x1184
 2615 117c 03       		.uleb128 0x3
 2616 117d 01       		.uleb128 0x1
 2617 117e 50       		.byte	0x50
 2618 117f 03       		.uleb128 0x3
ARM GAS  C:\Users\DEVELO~1\AppData\Local\Temp\cc4M0Z3o.s 			page 48


 2619 1180 0A       		.byte	0xa
 2620 1181 D007     		.2byte	0x7d0
 2621 1183 00       		.byte	0
 2622 1184 12       		.uleb128 0x12
 2623 1185 50000000 		.4byte	.LVL9
 2624 1189 38100000 		.4byte	0x1038
 2625 118d 0A       		.uleb128 0xa
 2626 118e 58000000 		.4byte	.LVL10
 2627 1192 38100000 		.4byte	0x1038
 2628 1196 A7110000 		.4byte	0x11a7
 2629 119a 03       		.uleb128 0x3
 2630 119b 01       		.uleb128 0x1
 2631 119c 50       		.byte	0x50
 2632 119d 02       		.uleb128 0x2
 2633 119e 74       		.byte	0x74
 2634 119f 00       		.sleb128 0
 2635 11a0 03       		.uleb128 0x3
 2636 11a1 01       		.uleb128 0x1
 2637 11a2 51       		.byte	0x51
 2638 11a3 02       		.uleb128 0x2
 2639 11a4 77       		.byte	0x77
 2640 11a5 00       		.sleb128 0
 2641 11a6 00       		.byte	0
 2642 11a7 0A       		.uleb128 0xa
 2643 11a8 60000000 		.4byte	.LVL11
 2644 11ac 54100000 		.4byte	0x1054
 2645 11b0 BC110000 		.4byte	0x11bc
 2646 11b4 03       		.uleb128 0x3
 2647 11b5 01       		.uleb128 0x1
 2648 11b6 50       		.byte	0x50
 2649 11b7 03       		.uleb128 0x3
 2650 11b8 0A       		.byte	0xa
 2651 11b9 204E     		.2byte	0x4e20
 2652 11bb 00       		.byte	0
 2653 11bc 0A       		.uleb128 0xa
 2654 11bd 68000000 		.4byte	.LVL12
 2655 11c1 38100000 		.4byte	0x1038
 2656 11c5 D6110000 		.4byte	0x11d6
 2657 11c9 03       		.uleb128 0x3
 2658 11ca 01       		.uleb128 0x1
 2659 11cb 50       		.byte	0x50
 2660 11cc 02       		.uleb128 0x2
 2661 11cd 74       		.byte	0x74
 2662 11ce 00       		.sleb128 0
 2663 11cf 03       		.uleb128 0x3
 2664 11d0 01       		.uleb128 0x1
 2665 11d1 51       		.byte	0x51
 2666 11d2 02       		.uleb128 0x2
 2667 11d3 7A       		.byte	0x7a
 2668 11d4 00       		.sleb128 0
 2669 11d5 00       		.byte	0
 2670 11d6 0A       		.uleb128 0xa
 2671 11d7 70000000 		.4byte	.LVL13
 2672 11db 38100000 		.4byte	0x1038
 2673 11df F0110000 		.4byte	0x11f0
 2674 11e3 03       		.uleb128 0x3
 2675 11e4 01       		.uleb128 0x1
ARM GAS  C:\Users\DEVELO~1\AppData\Local\Temp\cc4M0Z3o.s 			page 49


 2676 11e5 50       		.byte	0x50
 2677 11e6 02       		.uleb128 0x2
 2678 11e7 74       		.byte	0x74
 2679 11e8 00       		.sleb128 0
 2680 11e9 03       		.uleb128 0x3
 2681 11ea 01       		.uleb128 0x1
 2682 11eb 51       		.byte	0x51
 2683 11ec 02       		.uleb128 0x2
 2684 11ed 77       		.byte	0x77
 2685 11ee 00       		.sleb128 0
 2686 11ef 00       		.byte	0
 2687 11f0 0A       		.uleb128 0xa
 2688 11f1 78000000 		.4byte	.LVL14
 2689 11f5 38100000 		.4byte	0x1038
 2690 11f9 0D120000 		.4byte	0x120d
 2691 11fd 03       		.uleb128 0x3
 2692 11fe 01       		.uleb128 0x1
 2693 11ff 50       		.byte	0x50
 2694 1200 02       		.uleb128 0x2
 2695 1201 74       		.byte	0x74
 2696 1202 00       		.sleb128 0
 2697 1203 03       		.uleb128 0x3
 2698 1204 01       		.uleb128 0x1
 2699 1205 51       		.byte	0x51
 2700 1206 05       		.uleb128 0x5
 2701 1207 03       		.byte	0x3
 2702 1208 30000000 		.4byte	.LC2
 2703 120c 00       		.byte	0
 2704 120d 0A       		.uleb128 0xa
 2705 120e 80000000 		.4byte	.LVL15
 2706 1212 38100000 		.4byte	0x1038
 2707 1216 27120000 		.4byte	0x1227
 2708 121a 03       		.uleb128 0x3
 2709 121b 01       		.uleb128 0x1
 2710 121c 50       		.byte	0x50
 2711 121d 02       		.uleb128 0x2
 2712 121e 74       		.byte	0x74
 2713 121f 00       		.sleb128 0
 2714 1220 03       		.uleb128 0x3
 2715 1221 01       		.uleb128 0x1
 2716 1222 51       		.byte	0x51
 2717 1223 02       		.uleb128 0x2
 2718 1224 77       		.byte	0x77
 2719 1225 00       		.sleb128 0
 2720 1226 00       		.byte	0
 2721 1227 0A       		.uleb128 0xa
 2722 1228 8A000000 		.4byte	.LVL16
 2723 122c 38100000 		.4byte	0x1038
 2724 1230 4A120000 		.4byte	0x124a
 2725 1234 03       		.uleb128 0x3
 2726 1235 01       		.uleb128 0x1
 2727 1236 50       		.byte	0x50
 2728 1237 02       		.uleb128 0x2
 2729 1238 74       		.byte	0x74
 2730 1239 00       		.sleb128 0
 2731 123a 03       		.uleb128 0x3
 2732 123b 01       		.uleb128 0x1
ARM GAS  C:\Users\DEVELO~1\AppData\Local\Temp\cc4M0Z3o.s 			page 50


 2733 123c 51       		.byte	0x51
 2734 123d 05       		.uleb128 0x5
 2735 123e 03       		.byte	0x3
 2736 123f 54000000 		.4byte	.LC3
 2737 1243 03       		.uleb128 0x3
 2738 1244 01       		.uleb128 0x1
 2739 1245 52       		.byte	0x52
 2740 1246 02       		.uleb128 0x2
 2741 1247 79       		.byte	0x79
 2742 1248 00       		.sleb128 0
 2743 1249 00       		.byte	0
 2744 124a 0A       		.uleb128 0xa
 2745 124b 94000000 		.4byte	.LVL17
 2746 124f 38100000 		.4byte	0x1038
 2747 1253 6D120000 		.4byte	0x126d
 2748 1257 03       		.uleb128 0x3
 2749 1258 01       		.uleb128 0x1
 2750 1259 50       		.byte	0x50
 2751 125a 02       		.uleb128 0x2
 2752 125b 74       		.byte	0x74
 2753 125c 00       		.sleb128 0
 2754 125d 03       		.uleb128 0x3
 2755 125e 01       		.uleb128 0x1
 2756 125f 51       		.byte	0x51
 2757 1260 05       		.uleb128 0x5
 2758 1261 03       		.byte	0x3
 2759 1262 68000000 		.4byte	.LC4
 2760 1266 03       		.uleb128 0x3
 2761 1267 01       		.uleb128 0x1
 2762 1268 52       		.byte	0x52
 2763 1269 02       		.uleb128 0x2
 2764 126a 78       		.byte	0x78
 2765 126b 00       		.sleb128 0
 2766 126c 00       		.byte	0
 2767 126d 0A       		.uleb128 0xa
 2768 126e 9E000000 		.4byte	.LVL18
 2769 1272 38100000 		.4byte	0x1038
 2770 1276 90120000 		.4byte	0x1290
 2771 127a 03       		.uleb128 0x3
 2772 127b 01       		.uleb128 0x1
 2773 127c 50       		.byte	0x50
 2774 127d 02       		.uleb128 0x2
 2775 127e 74       		.byte	0x74
 2776 127f 00       		.sleb128 0
 2777 1280 03       		.uleb128 0x3
 2778 1281 01       		.uleb128 0x1
 2779 1282 51       		.byte	0x51
 2780 1283 05       		.uleb128 0x5
 2781 1284 03       		.byte	0x3
 2782 1285 7C000000 		.4byte	.LC5
 2783 1289 03       		.uleb128 0x3
 2784 128a 01       		.uleb128 0x1
 2785 128b 52       		.byte	0x52
 2786 128c 02       		.uleb128 0x2
 2787 128d 75       		.byte	0x75
 2788 128e 00       		.sleb128 0
 2789 128f 00       		.byte	0
ARM GAS  C:\Users\DEVELO~1\AppData\Local\Temp\cc4M0Z3o.s 			page 51


 2790 1290 0A       		.uleb128 0xa
 2791 1291 A8000000 		.4byte	.LVL19
 2792 1295 38100000 		.4byte	0x1038
 2793 1299 B3120000 		.4byte	0x12b3
 2794 129d 03       		.uleb128 0x3
 2795 129e 01       		.uleb128 0x1
 2796 129f 50       		.byte	0x50
 2797 12a0 02       		.uleb128 0x2
 2798 12a1 74       		.byte	0x74
 2799 12a2 00       		.sleb128 0
 2800 12a3 03       		.uleb128 0x3
 2801 12a4 01       		.uleb128 0x1
 2802 12a5 51       		.byte	0x51
 2803 12a6 05       		.uleb128 0x5
 2804 12a7 03       		.byte	0x3
 2805 12a8 90000000 		.4byte	.LC6
 2806 12ac 03       		.uleb128 0x3
 2807 12ad 01       		.uleb128 0x1
 2808 12ae 52       		.byte	0x52
 2809 12af 02       		.uleb128 0x2
 2810 12b0 75       		.byte	0x75
 2811 12b1 00       		.sleb128 0
 2812 12b2 00       		.byte	0
 2813 12b3 0A       		.uleb128 0xa
 2814 12b4 B2000000 		.4byte	.LVL20
 2815 12b8 38100000 		.4byte	0x1038
 2816 12bc D6120000 		.4byte	0x12d6
 2817 12c0 03       		.uleb128 0x3
 2818 12c1 01       		.uleb128 0x1
 2819 12c2 50       		.byte	0x50
 2820 12c3 02       		.uleb128 0x2
 2821 12c4 74       		.byte	0x74
 2822 12c5 00       		.sleb128 0
 2823 12c6 03       		.uleb128 0x3
 2824 12c7 01       		.uleb128 0x1
 2825 12c8 51       		.byte	0x51
 2826 12c9 05       		.uleb128 0x5
 2827 12ca 03       		.byte	0x3
 2828 12cb A4000000 		.4byte	.LC7
 2829 12cf 03       		.uleb128 0x3
 2830 12d0 01       		.uleb128 0x1
 2831 12d1 52       		.byte	0x52
 2832 12d2 02       		.uleb128 0x2
 2833 12d3 75       		.byte	0x75
 2834 12d4 00       		.sleb128 0
 2835 12d5 00       		.byte	0
 2836 12d6 0A       		.uleb128 0xa
 2837 12d7 BC000000 		.4byte	.LVL21
 2838 12db 38100000 		.4byte	0x1038
 2839 12df F9120000 		.4byte	0x12f9
 2840 12e3 03       		.uleb128 0x3
 2841 12e4 01       		.uleb128 0x1
 2842 12e5 50       		.byte	0x50
 2843 12e6 02       		.uleb128 0x2
 2844 12e7 74       		.byte	0x74
 2845 12e8 00       		.sleb128 0
 2846 12e9 03       		.uleb128 0x3
ARM GAS  C:\Users\DEVELO~1\AppData\Local\Temp\cc4M0Z3o.s 			page 52


 2847 12ea 01       		.uleb128 0x1
 2848 12eb 51       		.byte	0x51
 2849 12ec 05       		.uleb128 0x5
 2850 12ed 03       		.byte	0x3
 2851 12ee B8000000 		.4byte	.LC8
 2852 12f2 03       		.uleb128 0x3
 2853 12f3 01       		.uleb128 0x1
 2854 12f4 52       		.byte	0x52
 2855 12f5 02       		.uleb128 0x2
 2856 12f6 75       		.byte	0x75
 2857 12f7 00       		.sleb128 0
 2858 12f8 00       		.byte	0
 2859 12f9 0A       		.uleb128 0xa
 2860 12fa C6000000 		.4byte	.LVL22
 2861 12fe 38100000 		.4byte	0x1038
 2862 1302 1C130000 		.4byte	0x131c
 2863 1306 03       		.uleb128 0x3
 2864 1307 01       		.uleb128 0x1
 2865 1308 50       		.byte	0x50
 2866 1309 02       		.uleb128 0x2
 2867 130a 74       		.byte	0x74
 2868 130b 00       		.sleb128 0
 2869 130c 03       		.uleb128 0x3
 2870 130d 01       		.uleb128 0x1
 2871 130e 51       		.byte	0x51
 2872 130f 05       		.uleb128 0x5
 2873 1310 03       		.byte	0x3
 2874 1311 CC000000 		.4byte	.LC9
 2875 1315 03       		.uleb128 0x3
 2876 1316 01       		.uleb128 0x1
 2877 1317 52       		.byte	0x52
 2878 1318 02       		.uleb128 0x2
 2879 1319 75       		.byte	0x75
 2880 131a 00       		.sleb128 0
 2881 131b 00       		.byte	0
 2882 131c 12       		.uleb128 0x12
 2883 131d CA000000 		.4byte	.LVL23
 2884 1321 2D100000 		.4byte	0x102d
 2885 1325 00       		.byte	0
 2886 1326 00       		.byte	0
 2887              		.section	.debug_abbrev,"",%progbits
 2888              	.Ldebug_abbrev0:
 2889 0000 01       		.uleb128 0x1
 2890 0001 0D       		.uleb128 0xd
 2891 0002 00       		.byte	0
 2892 0003 03       		.uleb128 0x3
 2893 0004 0E       		.uleb128 0xe
 2894 0005 3A       		.uleb128 0x3a
 2895 0006 0B       		.uleb128 0xb
 2896 0007 3B       		.uleb128 0x3b
 2897 0008 0B       		.uleb128 0xb
 2898 0009 39       		.uleb128 0x39
 2899 000a 0B       		.uleb128 0xb
 2900 000b 49       		.uleb128 0x49
 2901 000c 13       		.uleb128 0x13
 2902 000d 38       		.uleb128 0x38
 2903 000e 0B       		.uleb128 0xb
ARM GAS  C:\Users\DEVELO~1\AppData\Local\Temp\cc4M0Z3o.s 			page 53


 2904 000f 00       		.byte	0
 2905 0010 00       		.byte	0
 2906 0011 02       		.uleb128 0x2
 2907 0012 16       		.uleb128 0x16
 2908 0013 00       		.byte	0
 2909 0014 03       		.uleb128 0x3
 2910 0015 0E       		.uleb128 0xe
 2911 0016 3A       		.uleb128 0x3a
 2912 0017 0B       		.uleb128 0xb
 2913 0018 3B       		.uleb128 0x3b
 2914 0019 0B       		.uleb128 0xb
 2915 001a 39       		.uleb128 0x39
 2916 001b 0B       		.uleb128 0xb
 2917 001c 49       		.uleb128 0x49
 2918 001d 13       		.uleb128 0x13
 2919 001e 00       		.byte	0
 2920 001f 00       		.byte	0
 2921 0020 03       		.uleb128 0x3
 2922 0021 49       		.uleb128 0x49
 2923 0022 00       		.byte	0
 2924 0023 02       		.uleb128 0x2
 2925 0024 18       		.uleb128 0x18
 2926 0025 7E       		.uleb128 0x7e
 2927 0026 18       		.uleb128 0x18
 2928 0027 00       		.byte	0
 2929 0028 00       		.byte	0
 2930 0029 04       		.uleb128 0x4
 2931 002a 0F       		.uleb128 0xf
 2932 002b 00       		.byte	0
 2933 002c 0B       		.uleb128 0xb
 2934 002d 21       		.uleb128 0x21
 2935 002e 04       		.sleb128 4
 2936 002f 49       		.uleb128 0x49
 2937 0030 13       		.uleb128 0x13
 2938 0031 00       		.byte	0
 2939 0032 00       		.byte	0
 2940 0033 05       		.uleb128 0x5
 2941 0034 05       		.uleb128 0x5
 2942 0035 00       		.byte	0
 2943 0036 49       		.uleb128 0x49
 2944 0037 13       		.uleb128 0x13
 2945 0038 00       		.byte	0
 2946 0039 00       		.byte	0
 2947 003a 06       		.uleb128 0x6
 2948 003b 0D       		.uleb128 0xd
 2949 003c 00       		.byte	0
 2950 003d 03       		.uleb128 0x3
 2951 003e 0E       		.uleb128 0xe
 2952 003f 3A       		.uleb128 0x3a
 2953 0040 0B       		.uleb128 0xb
 2954 0041 3B       		.uleb128 0x3b
 2955 0042 05       		.uleb128 0x5
 2956 0043 39       		.uleb128 0x39
 2957 0044 0B       		.uleb128 0xb
 2958 0045 49       		.uleb128 0x49
 2959 0046 13       		.uleb128 0x13
 2960 0047 38       		.uleb128 0x38
ARM GAS  C:\Users\DEVELO~1\AppData\Local\Temp\cc4M0Z3o.s 			page 54


 2961 0048 0B       		.uleb128 0xb
 2962 0049 00       		.byte	0
 2963 004a 00       		.byte	0
 2964 004b 07       		.uleb128 0x7
 2965 004c 0D       		.uleb128 0xd
 2966 004d 00       		.byte	0
 2967 004e 03       		.uleb128 0x3
 2968 004f 08       		.uleb128 0x8
 2969 0050 3A       		.uleb128 0x3a
 2970 0051 0B       		.uleb128 0xb
 2971 0052 3B       		.uleb128 0x3b
 2972 0053 05       		.uleb128 0x5
 2973 0054 39       		.uleb128 0x39
 2974 0055 0B       		.uleb128 0xb
 2975 0056 49       		.uleb128 0x49
 2976 0057 13       		.uleb128 0x13
 2977 0058 38       		.uleb128 0x38
 2978 0059 0B       		.uleb128 0xb
 2979 005a 00       		.byte	0
 2980 005b 00       		.byte	0
 2981 005c 08       		.uleb128 0x8
 2982 005d 13       		.uleb128 0x13
 2983 005e 01       		.byte	0x1
 2984 005f 03       		.uleb128 0x3
 2985 0060 0E       		.uleb128 0xe
 2986 0061 0B       		.uleb128 0xb
 2987 0062 0B       		.uleb128 0xb
 2988 0063 3A       		.uleb128 0x3a
 2989 0064 0B       		.uleb128 0xb
 2990 0065 3B       		.uleb128 0x3b
 2991 0066 0B       		.uleb128 0xb
 2992 0067 39       		.uleb128 0x39
 2993 0068 0B       		.uleb128 0xb
 2994 0069 01       		.uleb128 0x1
 2995 006a 13       		.uleb128 0x13
 2996 006b 00       		.byte	0
 2997 006c 00       		.byte	0
 2998 006d 09       		.uleb128 0x9
 2999 006e 28       		.uleb128 0x28
 3000 006f 00       		.byte	0
 3001 0070 03       		.uleb128 0x3
 3002 0071 0E       		.uleb128 0xe
 3003 0072 1C       		.uleb128 0x1c
 3004 0073 0B       		.uleb128 0xb
 3005 0074 00       		.byte	0
 3006 0075 00       		.byte	0
 3007 0076 0A       		.uleb128 0xa
 3008 0077 48       		.uleb128 0x48
 3009 0078 01       		.byte	0x1
 3010 0079 7D       		.uleb128 0x7d
 3011 007a 01       		.uleb128 0x1
 3012 007b 7F       		.uleb128 0x7f
 3013 007c 13       		.uleb128 0x13
 3014 007d 01       		.uleb128 0x1
 3015 007e 13       		.uleb128 0x13
 3016 007f 00       		.byte	0
 3017 0080 00       		.byte	0
ARM GAS  C:\Users\DEVELO~1\AppData\Local\Temp\cc4M0Z3o.s 			page 55


 3018 0081 0B       		.uleb128 0xb
 3019 0082 0D       		.uleb128 0xd
 3020 0083 00       		.byte	0
 3021 0084 03       		.uleb128 0x3
 3022 0085 08       		.uleb128 0x8
 3023 0086 3A       		.uleb128 0x3a
 3024 0087 0B       		.uleb128 0xb
 3025 0088 3B       		.uleb128 0x3b
 3026 0089 0B       		.uleb128 0xb
 3027 008a 39       		.uleb128 0x39
 3028 008b 0B       		.uleb128 0xb
 3029 008c 49       		.uleb128 0x49
 3030 008d 13       		.uleb128 0x13
 3031 008e 38       		.uleb128 0x38
 3032 008f 0B       		.uleb128 0xb
 3033 0090 00       		.byte	0
 3034 0091 00       		.byte	0
 3035 0092 0C       		.uleb128 0xc
 3036 0093 24       		.uleb128 0x24
 3037 0094 00       		.byte	0
 3038 0095 0B       		.uleb128 0xb
 3039 0096 0B       		.uleb128 0xb
 3040 0097 3E       		.uleb128 0x3e
 3041 0098 0B       		.uleb128 0xb
 3042 0099 03       		.uleb128 0x3
 3043 009a 0E       		.uleb128 0xe
 3044 009b 00       		.byte	0
 3045 009c 00       		.byte	0
 3046 009d 0D       		.uleb128 0xd
 3047 009e 15       		.uleb128 0x15
 3048 009f 01       		.byte	0x1
 3049 00a0 27       		.uleb128 0x27
 3050 00a1 19       		.uleb128 0x19
 3051 00a2 49       		.uleb128 0x49
 3052 00a3 13       		.uleb128 0x13
 3053 00a4 01       		.uleb128 0x1
 3054 00a5 13       		.uleb128 0x13
 3055 00a6 00       		.byte	0
 3056 00a7 00       		.byte	0
 3057 00a8 0E       		.uleb128 0xe
 3058 00a9 13       		.uleb128 0x13
 3059 00aa 01       		.byte	0x1
 3060 00ab 0B       		.uleb128 0xb
 3061 00ac 0B       		.uleb128 0xb
 3062 00ad 3A       		.uleb128 0x3a
 3063 00ae 0B       		.uleb128 0xb
 3064 00af 3B       		.uleb128 0x3b
 3065 00b0 0B       		.uleb128 0xb
 3066 00b1 39       		.uleb128 0x39
 3067 00b2 0B       		.uleb128 0xb
 3068 00b3 01       		.uleb128 0x1
 3069 00b4 13       		.uleb128 0x13
 3070 00b5 00       		.byte	0
 3071 00b6 00       		.byte	0
 3072 00b7 0F       		.uleb128 0xf
 3073 00b8 0D       		.uleb128 0xd
 3074 00b9 00       		.byte	0
ARM GAS  C:\Users\DEVELO~1\AppData\Local\Temp\cc4M0Z3o.s 			page 56


 3075 00ba 03       		.uleb128 0x3
 3076 00bb 0E       		.uleb128 0xe
 3077 00bc 3A       		.uleb128 0x3a
 3078 00bd 0B       		.uleb128 0xb
 3079 00be 3B       		.uleb128 0x3b
 3080 00bf 0B       		.uleb128 0xb
 3081 00c0 39       		.uleb128 0x39
 3082 00c1 0B       		.uleb128 0xb
 3083 00c2 49       		.uleb128 0x49
 3084 00c3 13       		.uleb128 0x13
 3085 00c4 00       		.byte	0
 3086 00c5 00       		.byte	0
 3087 00c6 10       		.uleb128 0x10
 3088 00c7 26       		.uleb128 0x26
 3089 00c8 00       		.byte	0
 3090 00c9 49       		.uleb128 0x49
 3091 00ca 13       		.uleb128 0x13
 3092 00cb 00       		.byte	0
 3093 00cc 00       		.byte	0
 3094 00cd 11       		.uleb128 0x11
 3095 00ce 0D       		.uleb128 0xd
 3096 00cf 00       		.byte	0
 3097 00d0 03       		.uleb128 0x3
 3098 00d1 0E       		.uleb128 0xe
 3099 00d2 3A       		.uleb128 0x3a
 3100 00d3 21       		.uleb128 0x21
 3101 00d4 07       		.sleb128 7
 3102 00d5 3B       		.uleb128 0x3b
 3103 00d6 05       		.uleb128 0x5
 3104 00d7 39       		.uleb128 0x39
 3105 00d8 0B       		.uleb128 0xb
 3106 00d9 49       		.uleb128 0x49
 3107 00da 13       		.uleb128 0x13
 3108 00db 00       		.byte	0
 3109 00dc 00       		.byte	0
 3110 00dd 12       		.uleb128 0x12
 3111 00de 48       		.uleb128 0x48
 3112 00df 00       		.byte	0
 3113 00e0 7D       		.uleb128 0x7d
 3114 00e1 01       		.uleb128 0x1
 3115 00e2 7F       		.uleb128 0x7f
 3116 00e3 13       		.uleb128 0x13
 3117 00e4 00       		.byte	0
 3118 00e5 00       		.byte	0
 3119 00e6 13       		.uleb128 0x13
 3120 00e7 13       		.uleb128 0x13
 3121 00e8 01       		.byte	0x1
 3122 00e9 03       		.uleb128 0x3
 3123 00ea 0E       		.uleb128 0xe
 3124 00eb 0B       		.uleb128 0xb
 3125 00ec 0B       		.uleb128 0xb
 3126 00ed 3A       		.uleb128 0x3a
 3127 00ee 0B       		.uleb128 0xb
 3128 00ef 3B       		.uleb128 0x3b
 3129 00f0 05       		.uleb128 0x5
 3130 00f1 39       		.uleb128 0x39
 3131 00f2 0B       		.uleb128 0xb
ARM GAS  C:\Users\DEVELO~1\AppData\Local\Temp\cc4M0Z3o.s 			page 57


 3132 00f3 01       		.uleb128 0x1
 3133 00f4 13       		.uleb128 0x13
 3134 00f5 00       		.byte	0
 3135 00f6 00       		.byte	0
 3136 00f7 14       		.uleb128 0x14
 3137 00f8 04       		.uleb128 0x4
 3138 00f9 01       		.byte	0x1
 3139 00fa 3E       		.uleb128 0x3e
 3140 00fb 21       		.uleb128 0x21
 3141 00fc 07       		.sleb128 7
 3142 00fd 0B       		.uleb128 0xb
 3143 00fe 21       		.uleb128 0x21
 3144 00ff 01       		.sleb128 1
 3145 0100 49       		.uleb128 0x49
 3146 0101 13       		.uleb128 0x13
 3147 0102 3A       		.uleb128 0x3a
 3148 0103 0B       		.uleb128 0xb
 3149 0104 3B       		.uleb128 0x3b
 3150 0105 0B       		.uleb128 0xb
 3151 0106 39       		.uleb128 0x39
 3152 0107 21       		.uleb128 0x21
 3153 0108 0E       		.sleb128 14
 3154 0109 01       		.uleb128 0x1
 3155 010a 13       		.uleb128 0x13
 3156 010b 00       		.byte	0
 3157 010c 00       		.byte	0
 3158 010d 15       		.uleb128 0x15
 3159 010e 35       		.uleb128 0x35
 3160 010f 00       		.byte	0
 3161 0110 49       		.uleb128 0x49
 3162 0111 13       		.uleb128 0x13
 3163 0112 00       		.byte	0
 3164 0113 00       		.byte	0
 3165 0114 16       		.uleb128 0x16
 3166 0115 16       		.uleb128 0x16
 3167 0116 00       		.byte	0
 3168 0117 03       		.uleb128 0x3
 3169 0118 0E       		.uleb128 0xe
 3170 0119 3A       		.uleb128 0x3a
 3171 011a 0B       		.uleb128 0xb
 3172 011b 3B       		.uleb128 0x3b
 3173 011c 05       		.uleb128 0x5
 3174 011d 39       		.uleb128 0x39
 3175 011e 21       		.uleb128 0x21
 3176 011f 03       		.sleb128 3
 3177 0120 49       		.uleb128 0x49
 3178 0121 13       		.uleb128 0x13
 3179 0122 00       		.byte	0
 3180 0123 00       		.byte	0
 3181 0124 17       		.uleb128 0x17
 3182 0125 17       		.uleb128 0x17
 3183 0126 01       		.byte	0x1
 3184 0127 0B       		.uleb128 0xb
 3185 0128 0B       		.uleb128 0xb
 3186 0129 3A       		.uleb128 0x3a
 3187 012a 0B       		.uleb128 0xb
 3188 012b 3B       		.uleb128 0x3b
ARM GAS  C:\Users\DEVELO~1\AppData\Local\Temp\cc4M0Z3o.s 			page 58


 3189 012c 0B       		.uleb128 0xb
 3190 012d 39       		.uleb128 0x39
 3191 012e 21       		.uleb128 0x21
 3192 012f 03       		.sleb128 3
 3193 0130 01       		.uleb128 0x1
 3194 0131 13       		.uleb128 0x13
 3195 0132 00       		.byte	0
 3196 0133 00       		.byte	0
 3197 0134 18       		.uleb128 0x18
 3198 0135 0D       		.uleb128 0xd
 3199 0136 00       		.byte	0
 3200 0137 03       		.uleb128 0x3
 3201 0138 08       		.uleb128 0x8
 3202 0139 3A       		.uleb128 0x3a
 3203 013a 21       		.uleb128 0x21
 3204 013b 0C       		.sleb128 12
 3205 013c 3B       		.uleb128 0x3b
 3206 013d 0B       		.uleb128 0xb
 3207 013e 39       		.uleb128 0x39
 3208 013f 21       		.uleb128 0x21
 3209 0140 07       		.sleb128 7
 3210 0141 49       		.uleb128 0x49
 3211 0142 13       		.uleb128 0x13
 3212 0143 00       		.byte	0
 3213 0144 00       		.byte	0
 3214 0145 19       		.uleb128 0x19
 3215 0146 0D       		.uleb128 0xd
 3216 0147 00       		.byte	0
 3217 0148 03       		.uleb128 0x3
 3218 0149 0E       		.uleb128 0xe
 3219 014a 3A       		.uleb128 0x3a
 3220 014b 21       		.uleb128 0x21
 3221 014c 0C       		.sleb128 12
 3222 014d 3B       		.uleb128 0x3b
 3223 014e 0B       		.uleb128 0xb
 3224 014f 39       		.uleb128 0x39
 3225 0150 21       		.uleb128 0x21
 3226 0151 19       		.sleb128 25
 3227 0152 49       		.uleb128 0x49
 3228 0153 13       		.uleb128 0x13
 3229 0154 0D       		.uleb128 0xd
 3230 0155 0B       		.uleb128 0xb
 3231 0156 6B       		.uleb128 0x6b
 3232 0157 0B       		.uleb128 0xb
 3233 0158 00       		.byte	0
 3234 0159 00       		.byte	0
 3235 015a 1A       		.uleb128 0x1a
 3236 015b 2E       		.uleb128 0x2e
 3237 015c 01       		.byte	0x1
 3238 015d 3F       		.uleb128 0x3f
 3239 015e 19       		.uleb128 0x19
 3240 015f 03       		.uleb128 0x3
 3241 0160 0E       		.uleb128 0xe
 3242 0161 3A       		.uleb128 0x3a
 3243 0162 0B       		.uleb128 0xb
 3244 0163 3B       		.uleb128 0x3b
 3245 0164 0B       		.uleb128 0xb
ARM GAS  C:\Users\DEVELO~1\AppData\Local\Temp\cc4M0Z3o.s 			page 59


 3246 0165 39       		.uleb128 0x39
 3247 0166 0B       		.uleb128 0xb
 3248 0167 27       		.uleb128 0x27
 3249 0168 19       		.uleb128 0x19
 3250 0169 49       		.uleb128 0x49
 3251 016a 13       		.uleb128 0x13
 3252 016b 3C       		.uleb128 0x3c
 3253 016c 19       		.uleb128 0x19
 3254 016d 01       		.uleb128 0x1
 3255 016e 13       		.uleb128 0x13
 3256 016f 00       		.byte	0
 3257 0170 00       		.byte	0
 3258 0171 1B       		.uleb128 0x1b
 3259 0172 2E       		.uleb128 0x2e
 3260 0173 00       		.byte	0
 3261 0174 3F       		.uleb128 0x3f
 3262 0175 19       		.uleb128 0x19
 3263 0176 03       		.uleb128 0x3
 3264 0177 0E       		.uleb128 0xe
 3265 0178 3A       		.uleb128 0x3a
 3266 0179 21       		.uleb128 0x21
 3267 017a 16       		.sleb128 22
 3268 017b 3B       		.uleb128 0x3b
 3269 017c 0B       		.uleb128 0xb
 3270 017d 39       		.uleb128 0x39
 3271 017e 0B       		.uleb128 0xb
 3272 017f 27       		.uleb128 0x27
 3273 0180 19       		.uleb128 0x19
 3274 0181 49       		.uleb128 0x49
 3275 0182 13       		.uleb128 0x13
 3276 0183 3C       		.uleb128 0x3c
 3277 0184 19       		.uleb128 0x19
 3278 0185 00       		.byte	0
 3279 0186 00       		.byte	0
 3280 0187 1C       		.uleb128 0x1c
 3281 0188 2E       		.uleb128 0x2e
 3282 0189 00       		.byte	0
 3283 018a 3F       		.uleb128 0x3f
 3284 018b 19       		.uleb128 0x19
 3285 018c 03       		.uleb128 0x3
 3286 018d 0E       		.uleb128 0xe
 3287 018e 3A       		.uleb128 0x3a
 3288 018f 0B       		.uleb128 0xb
 3289 0190 3B       		.uleb128 0x3b
 3290 0191 05       		.uleb128 0x5
 3291 0192 39       		.uleb128 0x39
 3292 0193 21       		.uleb128 0x21
 3293 0194 08       		.sleb128 8
 3294 0195 27       		.uleb128 0x27
 3295 0196 19       		.uleb128 0x19
 3296 0197 3C       		.uleb128 0x3c
 3297 0198 19       		.uleb128 0x19
 3298 0199 00       		.byte	0
 3299 019a 00       		.byte	0
 3300 019b 1D       		.uleb128 0x1d
 3301 019c 11       		.uleb128 0x11
 3302 019d 01       		.byte	0x1
ARM GAS  C:\Users\DEVELO~1\AppData\Local\Temp\cc4M0Z3o.s 			page 60


 3303 019e 25       		.uleb128 0x25
 3304 019f 0E       		.uleb128 0xe
 3305 01a0 13       		.uleb128 0x13
 3306 01a1 0B       		.uleb128 0xb
 3307 01a2 03       		.uleb128 0x3
 3308 01a3 0E       		.uleb128 0xe
 3309 01a4 1B       		.uleb128 0x1b
 3310 01a5 0E       		.uleb128 0xe
 3311 01a6 55       		.uleb128 0x55
 3312 01a7 17       		.uleb128 0x17
 3313 01a8 11       		.uleb128 0x11
 3314 01a9 01       		.uleb128 0x1
 3315 01aa 10       		.uleb128 0x10
 3316 01ab 17       		.uleb128 0x17
 3317 01ac 00       		.byte	0
 3318 01ad 00       		.byte	0
 3319 01ae 1E       		.uleb128 0x1e
 3320 01af 24       		.uleb128 0x24
 3321 01b0 00       		.byte	0
 3322 01b1 0B       		.uleb128 0xb
 3323 01b2 0B       		.uleb128 0xb
 3324 01b3 3E       		.uleb128 0x3e
 3325 01b4 0B       		.uleb128 0xb
 3326 01b5 03       		.uleb128 0x3
 3327 01b6 08       		.uleb128 0x8
 3328 01b7 00       		.byte	0
 3329 01b8 00       		.byte	0
 3330 01b9 1F       		.uleb128 0x1f
 3331 01ba 13       		.uleb128 0x13
 3332 01bb 01       		.byte	0x1
 3333 01bc 03       		.uleb128 0x3
 3334 01bd 0E       		.uleb128 0xe
 3335 01be 0B       		.uleb128 0xb
 3336 01bf 05       		.uleb128 0x5
 3337 01c0 3A       		.uleb128 0x3a
 3338 01c1 0B       		.uleb128 0xb
 3339 01c2 3B       		.uleb128 0x3b
 3340 01c3 05       		.uleb128 0x5
 3341 01c4 39       		.uleb128 0x39
 3342 01c5 0B       		.uleb128 0xb
 3343 01c6 01       		.uleb128 0x1
 3344 01c7 13       		.uleb128 0x13
 3345 01c8 00       		.byte	0
 3346 01c9 00       		.byte	0
 3347 01ca 20       		.uleb128 0x20
 3348 01cb 0F       		.uleb128 0xf
 3349 01cc 00       		.byte	0
 3350 01cd 0B       		.uleb128 0xb
 3351 01ce 0B       		.uleb128 0xb
 3352 01cf 00       		.byte	0
 3353 01d0 00       		.byte	0
 3354 01d1 21       		.uleb128 0x21
 3355 01d2 13       		.uleb128 0x13
 3356 01d3 01       		.byte	0x1
 3357 01d4 0B       		.uleb128 0xb
 3358 01d5 05       		.uleb128 0x5
 3359 01d6 3A       		.uleb128 0x3a
ARM GAS  C:\Users\DEVELO~1\AppData\Local\Temp\cc4M0Z3o.s 			page 61


 3360 01d7 0B       		.uleb128 0xb
 3361 01d8 3B       		.uleb128 0x3b
 3362 01d9 0B       		.uleb128 0xb
 3363 01da 39       		.uleb128 0x39
 3364 01db 0B       		.uleb128 0xb
 3365 01dc 01       		.uleb128 0x1
 3366 01dd 13       		.uleb128 0x13
 3367 01de 00       		.byte	0
 3368 01df 00       		.byte	0
 3369 01e0 22       		.uleb128 0x22
 3370 01e1 01       		.uleb128 0x1
 3371 01e2 01       		.byte	0x1
 3372 01e3 49       		.uleb128 0x49
 3373 01e4 13       		.uleb128 0x13
 3374 01e5 01       		.uleb128 0x1
 3375 01e6 13       		.uleb128 0x13
 3376 01e7 00       		.byte	0
 3377 01e8 00       		.byte	0
 3378 01e9 23       		.uleb128 0x23
 3379 01ea 21       		.uleb128 0x21
 3380 01eb 00       		.byte	0
 3381 01ec 49       		.uleb128 0x49
 3382 01ed 13       		.uleb128 0x13
 3383 01ee 2F       		.uleb128 0x2f
 3384 01ef 0B       		.uleb128 0xb
 3385 01f0 00       		.byte	0
 3386 01f1 00       		.byte	0
 3387 01f2 24       		.uleb128 0x24
 3388 01f3 13       		.uleb128 0x13
 3389 01f4 01       		.byte	0x1
 3390 01f5 0B       		.uleb128 0xb
 3391 01f6 0B       		.uleb128 0xb
 3392 01f7 3A       		.uleb128 0x3a
 3393 01f8 0B       		.uleb128 0xb
 3394 01f9 3B       		.uleb128 0x3b
 3395 01fa 05       		.uleb128 0x5
 3396 01fb 39       		.uleb128 0x39
 3397 01fc 0B       		.uleb128 0xb
 3398 01fd 01       		.uleb128 0x1
 3399 01fe 13       		.uleb128 0x13
 3400 01ff 00       		.byte	0
 3401 0200 00       		.byte	0
 3402 0201 25       		.uleb128 0x25
 3403 0202 15       		.uleb128 0x15
 3404 0203 01       		.byte	0x1
 3405 0204 27       		.uleb128 0x27
 3406 0205 19       		.uleb128 0x19
 3407 0206 01       		.uleb128 0x1
 3408 0207 13       		.uleb128 0x13
 3409 0208 00       		.byte	0
 3410 0209 00       		.byte	0
 3411 020a 26       		.uleb128 0x26
 3412 020b 34       		.uleb128 0x34
 3413 020c 00       		.byte	0
 3414 020d 03       		.uleb128 0x3
 3415 020e 08       		.uleb128 0x8
 3416 020f 3A       		.uleb128 0x3a
ARM GAS  C:\Users\DEVELO~1\AppData\Local\Temp\cc4M0Z3o.s 			page 62


 3417 0210 0B       		.uleb128 0xb
 3418 0211 3B       		.uleb128 0x3b
 3419 0212 05       		.uleb128 0x5
 3420 0213 39       		.uleb128 0x39
 3421 0214 0B       		.uleb128 0xb
 3422 0215 49       		.uleb128 0x49
 3423 0216 13       		.uleb128 0x13
 3424 0217 3F       		.uleb128 0x3f
 3425 0218 19       		.uleb128 0x19
 3426 0219 3C       		.uleb128 0x3c
 3427 021a 19       		.uleb128 0x19
 3428 021b 00       		.byte	0
 3429 021c 00       		.byte	0
 3430 021d 27       		.uleb128 0x27
 3431 021e 34       		.uleb128 0x34
 3432 021f 00       		.byte	0
 3433 0220 03       		.uleb128 0x3
 3434 0221 0E       		.uleb128 0xe
 3435 0222 3A       		.uleb128 0x3a
 3436 0223 0B       		.uleb128 0xb
 3437 0224 3B       		.uleb128 0x3b
 3438 0225 0B       		.uleb128 0xb
 3439 0226 39       		.uleb128 0x39
 3440 0227 0B       		.uleb128 0xb
 3441 0228 49       		.uleb128 0x49
 3442 0229 13       		.uleb128 0x13
 3443 022a 02       		.uleb128 0x2
 3444 022b 18       		.uleb128 0x18
 3445 022c 00       		.byte	0
 3446 022d 00       		.byte	0
 3447 022e 28       		.uleb128 0x28
 3448 022f 34       		.uleb128 0x34
 3449 0230 00       		.byte	0
 3450 0231 03       		.uleb128 0x3
 3451 0232 08       		.uleb128 0x8
 3452 0233 3A       		.uleb128 0x3a
 3453 0234 0B       		.uleb128 0xb
 3454 0235 3B       		.uleb128 0x3b
 3455 0236 0B       		.uleb128 0xb
 3456 0237 39       		.uleb128 0x39
 3457 0238 0B       		.uleb128 0xb
 3458 0239 49       		.uleb128 0x49
 3459 023a 13       		.uleb128 0x13
 3460 023b 00       		.byte	0
 3461 023c 00       		.byte	0
 3462 023d 29       		.uleb128 0x29
 3463 023e 2E       		.uleb128 0x2e
 3464 023f 01       		.byte	0x1
 3465 0240 3F       		.uleb128 0x3f
 3466 0241 19       		.uleb128 0x19
 3467 0242 03       		.uleb128 0x3
 3468 0243 0E       		.uleb128 0xe
 3469 0244 3A       		.uleb128 0x3a
 3470 0245 0B       		.uleb128 0xb
 3471 0246 3B       		.uleb128 0x3b
 3472 0247 0B       		.uleb128 0xb
 3473 0248 39       		.uleb128 0x39
ARM GAS  C:\Users\DEVELO~1\AppData\Local\Temp\cc4M0Z3o.s 			page 63


 3474 0249 0B       		.uleb128 0xb
 3475 024a 27       		.uleb128 0x27
 3476 024b 19       		.uleb128 0x19
 3477 024c 3C       		.uleb128 0x3c
 3478 024d 19       		.uleb128 0x19
 3479 024e 01       		.uleb128 0x1
 3480 024f 13       		.uleb128 0x13
 3481 0250 00       		.byte	0
 3482 0251 00       		.byte	0
 3483 0252 2A       		.uleb128 0x2a
 3484 0253 18       		.uleb128 0x18
 3485 0254 00       		.byte	0
 3486 0255 00       		.byte	0
 3487 0256 00       		.byte	0
 3488 0257 2B       		.uleb128 0x2b
 3489 0258 2E       		.uleb128 0x2e
 3490 0259 01       		.byte	0x1
 3491 025a 3F       		.uleb128 0x3f
 3492 025b 19       		.uleb128 0x19
 3493 025c 03       		.uleb128 0x3
 3494 025d 0E       		.uleb128 0xe
 3495 025e 3A       		.uleb128 0x3a
 3496 025f 0B       		.uleb128 0xb
 3497 0260 3B       		.uleb128 0x3b
 3498 0261 05       		.uleb128 0x5
 3499 0262 39       		.uleb128 0x39
 3500 0263 0B       		.uleb128 0xb
 3501 0264 27       		.uleb128 0x27
 3502 0265 19       		.uleb128 0x19
 3503 0266 3C       		.uleb128 0x3c
 3504 0267 19       		.uleb128 0x19
 3505 0268 01       		.uleb128 0x1
 3506 0269 13       		.uleb128 0x13
 3507 026a 00       		.byte	0
 3508 026b 00       		.byte	0
 3509 026c 2C       		.uleb128 0x2c
 3510 026d 2E       		.uleb128 0x2e
 3511 026e 01       		.byte	0x1
 3512 026f 3F       		.uleb128 0x3f
 3513 0270 19       		.uleb128 0x19
 3514 0271 03       		.uleb128 0x3
 3515 0272 0E       		.uleb128 0xe
 3516 0273 3A       		.uleb128 0x3a
 3517 0274 0B       		.uleb128 0xb
 3518 0275 3B       		.uleb128 0x3b
 3519 0276 05       		.uleb128 0x5
 3520 0277 39       		.uleb128 0x39
 3521 0278 0B       		.uleb128 0xb
 3522 0279 27       		.uleb128 0x27
 3523 027a 19       		.uleb128 0x19
 3524 027b 49       		.uleb128 0x49
 3525 027c 13       		.uleb128 0x13
 3526 027d 3C       		.uleb128 0x3c
 3527 027e 19       		.uleb128 0x19
 3528 027f 01       		.uleb128 0x1
 3529 0280 13       		.uleb128 0x13
 3530 0281 00       		.byte	0
ARM GAS  C:\Users\DEVELO~1\AppData\Local\Temp\cc4M0Z3o.s 			page 64


 3531 0282 00       		.byte	0
 3532 0283 2D       		.uleb128 0x2d
 3533 0284 2E       		.uleb128 0x2e
 3534 0285 01       		.byte	0x1
 3535 0286 3F       		.uleb128 0x3f
 3536 0287 19       		.uleb128 0x19
 3537 0288 03       		.uleb128 0x3
 3538 0289 0E       		.uleb128 0xe
 3539 028a 3A       		.uleb128 0x3a
 3540 028b 0B       		.uleb128 0xb
 3541 028c 3B       		.uleb128 0x3b
 3542 028d 0B       		.uleb128 0xb
 3543 028e 39       		.uleb128 0x39
 3544 028f 0B       		.uleb128 0xb
 3545 0290 27       		.uleb128 0x27
 3546 0291 19       		.uleb128 0x19
 3547 0292 49       		.uleb128 0x49
 3548 0293 13       		.uleb128 0x13
 3549 0294 11       		.uleb128 0x11
 3550 0295 01       		.uleb128 0x1
 3551 0296 12       		.uleb128 0x12
 3552 0297 06       		.uleb128 0x6
 3553 0298 40       		.uleb128 0x40
 3554 0299 18       		.uleb128 0x18
 3555 029a 7A       		.uleb128 0x7a
 3556 029b 19       		.uleb128 0x19
 3557 029c 00       		.byte	0
 3558 029d 00       		.byte	0
 3559 029e 2E       		.uleb128 0x2e
 3560 029f 0B       		.uleb128 0xb
 3561 02a0 01       		.byte	0x1
 3562 02a1 55       		.uleb128 0x55
 3563 02a2 17       		.uleb128 0x17
 3564 02a3 01       		.uleb128 0x1
 3565 02a4 13       		.uleb128 0x13
 3566 02a5 00       		.byte	0
 3567 02a6 00       		.byte	0
 3568 02a7 2F       		.uleb128 0x2f
 3569 02a8 34       		.uleb128 0x34
 3570 02a9 00       		.byte	0
 3571 02aa 03       		.uleb128 0x3
 3572 02ab 0E       		.uleb128 0xe
 3573 02ac 3A       		.uleb128 0x3a
 3574 02ad 0B       		.uleb128 0xb
 3575 02ae 3B       		.uleb128 0x3b
 3576 02af 0B       		.uleb128 0xb
 3577 02b0 39       		.uleb128 0x39
 3578 02b1 0B       		.uleb128 0xb
 3579 02b2 49       		.uleb128 0x49
 3580 02b3 13       		.uleb128 0x13
 3581 02b4 02       		.uleb128 0x2
 3582 02b5 17       		.uleb128 0x17
 3583 02b6 B742     		.uleb128 0x2137
 3584 02b8 17       		.uleb128 0x17
 3585 02b9 00       		.byte	0
 3586 02ba 00       		.byte	0
 3587 02bb 30       		.uleb128 0x30
ARM GAS  C:\Users\DEVELO~1\AppData\Local\Temp\cc4M0Z3o.s 			page 65


 3588 02bc 48       		.uleb128 0x48
 3589 02bd 01       		.byte	0x1
 3590 02be 7D       		.uleb128 0x7d
 3591 02bf 01       		.uleb128 0x1
 3592 02c0 7F       		.uleb128 0x7f
 3593 02c1 13       		.uleb128 0x13
 3594 02c2 00       		.byte	0
 3595 02c3 00       		.byte	0
 3596 02c4 00       		.byte	0
 3597              		.section	.debug_loclists,"",%progbits
 3598 0000 13000000 		.4byte	.Ldebug_loc3-.Ldebug_loc2
 3599              	.Ldebug_loc2:
 3600 0004 0500     		.2byte	0x5
 3601 0006 04       		.byte	0x4
 3602 0007 00       		.byte	0
 3603 0008 00000000 		.4byte	0
 3604              	.Ldebug_loc0:
 3605              	.LVUS1:
 3606 000c 00       		.uleb128 .LVU21
 3607 000d 00       		.uleb128 .LVU24
 3608              	.LLST1:
 3609 000e 08       		.byte	0x8
 3610 000f 40000000 		.4byte	.LVL7
 3611 0013 06       		.uleb128 .LVL8-.LVL7
 3612 0014 01       		.uleb128 0x1
 3613 0015 53       		.byte	0x53
 3614 0016 00       		.byte	0
 3615              	.Ldebug_loc3:
 3616              		.section	.debug_aranges,"",%progbits
 3617 0000 1C000000 		.4byte	0x1c
 3618 0004 0200     		.2byte	0x2
 3619 0006 00000000 		.4byte	.Ldebug_info0
 3620 000a 04       		.byte	0x4
 3621 000b 00       		.byte	0
 3622 000c 0000     		.2byte	0
 3623 000e 0000     		.2byte	0
 3624 0010 00000000 		.4byte	.LFB432
 3625 0014 4C010000 		.4byte	.LFE432-.LFB432
 3626 0018 00000000 		.4byte	0
 3627 001c 00000000 		.4byte	0
 3628              		.section	.debug_rnglists,"",%progbits
 3629              	.Ldebug_ranges0:
 3630 0000 28000000 		.4byte	.Ldebug_ranges3-.Ldebug_ranges2
 3631              	.Ldebug_ranges2:
 3632 0004 0500     		.2byte	0x5
 3633 0006 04       		.byte	0x4
 3634 0007 00       		.byte	0
 3635 0008 00000000 		.4byte	0
 3636              	.LLRL0:
 3637 000c 05       		.byte	0x5
 3638 000d 30000000 		.4byte	.LBB2
 3639 0011 04       		.byte	0x4
 3640 0012 00       		.uleb128 .LBB2-.LBB2
 3641 0013 1C       		.uleb128 .LBE2-.LBB2
 3642 0014 04       		.byte	0x4
 3643 0015 9A01     		.uleb128 .LBB3-.LBB2
 3644 0017 9A01     		.uleb128 .LBE3-.LBB2
ARM GAS  C:\Users\DEVELO~1\AppData\Local\Temp\cc4M0Z3o.s 			page 66


 3645 0019 04       		.byte	0x4
 3646 001a 9C01     		.uleb128 .LBB4-.LBB2
 3647 001c A001     		.uleb128 .LBE4-.LBB2
 3648 001e 04       		.byte	0x4
 3649 001f A801     		.uleb128 .LBB5-.LBB2
 3650 0021 9C02     		.uleb128 .LBE5-.LBB2
 3651 0023 00       		.byte	0
 3652              	.LLRL2:
 3653 0024 07       		.byte	0x7
 3654 0025 00000000 		.4byte	.LFB432
 3655 0029 CC02     		.uleb128 .LFE432-.LFB432
 3656 002b 00       		.byte	0
 3657              	.Ldebug_ranges3:
 3658              		.section	.debug_line,"",%progbits
 3659              	.Ldebug_line0:
 3660 0000 28040000 		.section	.debug_str,"MS",%progbits,1
 3660      03006D03 
 3660      00000201 
 3660      FB0E0D00 
 3660      01010101 
 3661              	.LASF11:
 3662 0000 6C6F6E67 		.ascii	"long int\000"
 3662      20696E74 
 3662      00
 3663              	.LASF162:
 3664 0009 53657269 		.ascii	"SerialDriver\000"
 3664      616C4472 
 3664      69766572 
 3664      00
 3665              	.LASF213:
 3666 0016 73645374 		.ascii	"sdStart\000"
 3666      61727400 
 3667              	.LASF37:
 3668 001e 6E616D65 		.ascii	"name\000"
 3668      00
 3669              	.LASF108:
 3670 0023 74687265 		.ascii	"thread_reference_t\000"
 3670      61645F72 
 3670      65666572 
 3670      656E6365 
 3670      5F7400
 3671              	.LASF105:
 3672 0036 63685F72 		.ascii	"ch_registry\000"
 3672      65676973 
 3672      74727900 
 3673              	.LASF134:
 3674 0042 6C697374 		.ascii	"listener\000"
 3674      656E6572 
 3674      00
 3675              	.LASF137:
 3676 004b 6576656E 		.ascii	"event_source\000"
 3676      745F736F 
 3676      75726365 
 3676      00
 3677              	.LASF40:
 3678 0058 666C6167 		.ascii	"flags\000"
 3678      7300
ARM GAS  C:\Users\DEVELO~1\AppData\Local\Temp\cc4M0Z3o.s 			page 67


 3679              	.LASF67:
 3680 005e 73797374 		.ascii	"systime_t\000"
 3680      696D655F 
 3680      7400
 3681              	.LASF46:
 3682 0068 7265616C 		.ascii	"realprio\000"
 3682      7072696F 
 3682      00
 3683              	.LASF92:
 3684 0071 62756666 		.ascii	"buffer\000"
 3684      657200
 3685              	.LASF90:
 3686 0078 73757370 		.ascii	"suspended\000"
 3686      656E6465 
 3686      6400
 3687              	.LASF163:
 3688 0082 68616C5F 		.ascii	"hal_serial_driver\000"
 3688      73657269 
 3688      616C5F64 
 3688      72697665 
 3688      7200
 3689              	.LASF145:
 3690 0094 696F5F71 		.ascii	"io_queue_t\000"
 3690      75657565 
 3690      5F7400
 3691              	.LASF191:
 3692 009f 53445241 		.ascii	"SDRAM_BIST_ERR_STUCK_AT\000"
 3692      4D5F4249 
 3692      53545F45 
 3692      52525F53 
 3692      5455434B 
 3693              	.LASF44:
 3694 00b7 6570656E 		.ascii	"epending\000"
 3694      64696E67 
 3694      00
 3695              	.LASF0:
 3696 00c0 756E7369 		.ascii	"unsigned int\000"
 3696      676E6564 
 3696      20696E74 
 3696      00
 3697              	.LASF72:
 3698 00cd 6E657874 		.ascii	"next\000"
 3698      00
 3699              	.LASF20:
 3700 00d2 75696E74 		.ascii	"uint32_t\000"
 3700      33325F74 
 3700      00
 3701              	.LASF54:
 3702 00db 636F7265 		.ascii	"core_id\000"
 3702      5F696400 
 3703              	.LASF152:
 3704 00e3 715F7264 		.ascii	"q_rdptr\000"
 3704      70747200 
 3705              	.LASF10:
 3706 00eb 5F5F696E 		.ascii	"__int32_t\000"
 3706      7433325F 
 3706      7400
ARM GAS  C:\Users\DEVELO~1\AppData\Local\Temp\cc4M0Z3o.s 			page 68


 3707              	.LASF41:
 3708 00f5 72656673 		.ascii	"refs\000"
 3708      00
 3709              	.LASF155:
 3710 00fa 716E6F74 		.ascii	"qnotify_t\000"
 3710      6966795F 
 3710      7400
 3711              	.LASF140:
 3712 0104 42617365 		.ascii	"BaseSequentialStreamVMT\000"
 3712      53657175 
 3712      656E7469 
 3712      616C5374 
 3712      7265616D 
 3713              	.LASF195:
 3714 011c 53445241 		.ascii	"SDRAM_BIST_MODE_FULL\000"
 3714      4D5F4249 
 3714      53545F4D 
 3714      4F44455F 
 3714      46554C4C 
 3715              	.LASF82:
 3716 0131 77746F62 		.ascii	"wtobjp\000"
 3716      6A7000
 3717              	.LASF52:
 3718 0138 76746C69 		.ascii	"vtlist\000"
 3718      737400
 3719              	.LASF99:
 3720 013f 706F7274 		.ascii	"port_context\000"
 3720      5F636F6E 
 3720      74657874 
 3720      00
 3721              	.LASF122:
 3722 014c 63685F72 		.ascii	"ch_ready_list\000"
 3722      65616479 
 3722      5F6C6973 
 3722      7400
 3723              	.LASF103:
 3724 015a 6C617374 		.ascii	"laststamp\000"
 3724      7374616D 
 3724      7000
 3725              	.LASF119:
 3726 0164 65776D61 		.ascii	"ewmask\000"
 3726      736B00
 3727              	.LASF75:
 3728 016b 70726576 		.ascii	"prev\000"
 3728      00
 3729              	.LASF182:
 3730 0170 53445241 		.ascii	"SDRAM_FAULT\000"
 3730      4D5F4641 
 3730      554C5400 
 3731              	.LASF71:
 3732 017c 63685F6C 		.ascii	"ch_list\000"
 3732      69737400 
 3733              	.LASF171:
 3734 0184 73706565 		.ascii	"speed\000"
 3734      6400
 3735              	.LASF176:
 3736 018a 77726974 		.ascii	"writet\000"
ARM GAS  C:\Users\DEVELO~1\AppData\Local\Temp\cc4M0Z3o.s 			page 69


 3736      657400
 3737              	.LASF63:
 3738 0191 63685F73 		.ascii	"ch_system_debug\000"
 3738      79737465 
 3738      6D5F6465 
 3738      62756700 
 3739              	.LASF94:
 3740 01a1 47545052 		.ascii	"GTPR\000"
 3740      00
 3741              	.LASF218:
 3742 01a6 433A5C50 		.ascii	"C:\\PROJET\\ChibiOS project\\ChibiOS_21.11.4\\demos"
 3742      524F4A45 
 3742      545C4368 
 3742      6962694F 
 3742      53207072 
 3743 01d5 5C53544D 		.ascii	"\\STM32\\RT-STM32H743ZI_REV_XY-NUCLEO144\000"
 3743      33325C52 
 3743      542D5354 
 3743      4D333248 
 3743      3734335A 
 3744              	.LASF111:
 3745 01fc 6C697374 		.ascii	"list\000"
 3745      00
 3746              	.LASF178:
 3747 0201 53445241 		.ascii	"SDRAM_NOT_INITIALIZED\000"
 3747      4D5F4E4F 
 3747      545F494E 
 3747      49544941 
 3747      4C495A45 
 3748              	.LASF165:
 3749 0217 69717565 		.ascii	"iqueue\000"
 3749      756500
 3750              	.LASF80:
 3751 021e 63685F64 		.ascii	"ch_delta_list\000"
 3751      656C7461 
 3751      5F6C6973 
 3751      7400
 3752              	.LASF147:
 3753 022c 715F7761 		.ascii	"q_waiting\000"
 3753      6974696E 
 3753      6700
 3754              	.LASF116:
 3755 0236 73656E74 		.ascii	"sentmsg\000"
 3755      6D736700 
 3756              	.LASF183:
 3757 023e 73647261 		.ascii	"sdram_state_t\000"
 3757      6D5F7374 
 3757      6174655F 
 3757      7400
 3758              	.LASF198:
 3759 024c 776F7264 		.ascii	"words_tested\000"
 3759      735F7465 
 3759      73746564 
 3759      00
 3760              	.LASF30:
 3761 0259 6576656E 		.ascii	"eventmask_t\000"
 3761      746D6173 
ARM GAS  C:\Users\DEVELO~1\AppData\Local\Temp\cc4M0Z3o.s 			page 70


 3761      6B5F7400 
 3762              	.LASF172:
 3763 0265 53657269 		.ascii	"SerialConfig\000"
 3763      616C436F 
 3763      6E666967 
 3763      00
 3764              	.LASF89:
 3765 0272 74726163 		.ascii	"trace_event_t\000"
 3765      655F6576 
 3765      656E745F 
 3765      7400
 3766              	.LASF161:
 3767 0280 73647374 		.ascii	"sdstate_t\000"
 3767      6174655F 
 3767      7400
 3768              	.LASF164:
 3769 028a 6576656E 		.ascii	"event\000"
 3769      7400
 3770              	.LASF181:
 3771 0290 53445241 		.ascii	"SDRAM_DEGRADED\000"
 3771      4D5F4445 
 3771      47524144 
 3771      454400
 3772              	.LASF120:
 3773 029f 63685F73 		.ascii	"ch_semaphore\000"
 3773      656D6170 
 3773      686F7265 
 3773      00
 3774              	.LASF28:
 3775 02ac 74707269 		.ascii	"tprio_t\000"
 3775      6F5F7400 
 3776              	.LASF43:
 3777 02b4 6D736771 		.ascii	"msgqueue\000"
 3777      75657565 
 3777      00
 3778              	.LASF130:
 3779 02bd 6F735F69 		.ascii	"os_instance_config_t\000"
 3779      6E737461 
 3779      6E63655F 
 3779      636F6E66 
 3779      69675F74 
 3780              	.LASF84:
 3781 02d2 68616C74 		.ascii	"halt\000"
 3781      00
 3782              	.LASF15:
 3783 02d7 6C6F6E67 		.ascii	"long long unsigned int\000"
 3783      206C6F6E 
 3783      6720756E 
 3783      7369676E 
 3783      65642069 
 3784              	.LASF186:
 3785 02ee 53445241 		.ascii	"SDRAM_BIST_ABORT\000"
 3785      4D5F4249 
 3785      53545F41 
 3785      424F5254 
 3785      00
 3786              	.LASF83:
ARM GAS  C:\Users\DEVELO~1\AppData\Local\Temp\cc4M0Z3o.s 			page 71


 3787 02ff 72656173 		.ascii	"reason\000"
 3787      6F6E00
 3788              	.LASF184:
 3789 0306 53445241 		.ascii	"SDRAM_BIST_PASS\000"
 3789      4D5F4249 
 3789      53545F50 
 3789      41535300 
 3790              	.LASF96:
 3791 0316 50524553 		.ascii	"PRESC\000"
 3791      4300
 3792              	.LASF138:
 3793 031c 6576656E 		.ascii	"event_source_t\000"
 3793      745F736F 
 3793      75726365 
 3793      5F7400
 3794              	.LASF112:
 3795 032b 70717565 		.ascii	"pqueue\000"
 3795      756500
 3796              	.LASF8:
 3797 0332 5F5F7569 		.ascii	"__uint16_t\000"
 3797      6E743136 
 3797      5F7400
 3798              	.LASF32:
 3799 033d 636E745F 		.ascii	"cnt_t\000"
 3799      7400
 3800              	.LASF193:
 3801 0343 73647261 		.ascii	"sdram_bist_error_t\000"
 3801      6D5F6269 
 3801      73745F65 
 3801      72726F72 
 3801      5F7400
 3802              	.LASF88:
 3803 0356 74696D65 		.ascii	"time\000"
 3803      00
 3804              	.LASF36:
 3805 035b 6F776E65 		.ascii	"owner\000"
 3805      7200
 3806              	.LASF127:
 3807 0361 6D61696E 		.ascii	"mainthread_end\000"
 3807      74687265 
 3807      61645F65 
 3807      6E6400
 3808              	.LASF110:
 3809 0370 74687265 		.ascii	"threads_queue_t\000"
 3809      6164735F 
 3809      71756575 
 3809      655F7400 
 3810              	.LASF45:
 3811 0380 6D74786C 		.ascii	"mtxlist\000"
 3811      69737400 
 3812              	.LASF100:
 3813 0388 63685F76 		.ascii	"ch_virtual_timers_list\000"
 3813      69727475 
 3813      616C5F74 
 3813      696D6572 
 3813      735F6C69 
 3814              	.LASF55:
ARM GAS  C:\Users\DEVELO~1\AppData\Local\Temp\cc4M0Z3o.s 			page 72


 3815 039f 72666375 		.ascii	"rfcu\000"
 3815      00
 3816              	.LASF34:
 3817 03a4 74687265 		.ascii	"thread_t\000"
 3817      61645F74 
 3817      00
 3818              	.LASF85:
 3819 03ad 75736572 		.ascii	"user\000"
 3819      00
 3820              	.LASF174:
 3821 03b2 70757474 		.ascii	"putt\000"
 3821      00
 3822              	.LASF4:
 3823 03b7 73697A65 		.ascii	"size_t\000"
 3823      5F7400
 3824              	.LASF113:
 3825 03be 7264796D 		.ascii	"rdymsg\000"
 3825      736700
 3826              	.LASF76:
 3827 03c5 63685F70 		.ascii	"ch_priority_queue_t\000"
 3827      72696F72 
 3827      6974795F 
 3827      71756575 
 3827      655F7400 
 3828              	.LASF139:
 3829 03d9 5F426F6F 		.ascii	"_Bool\000"
 3829      6C00
 3830              	.LASF159:
 3831 03df 53445F53 		.ascii	"SD_STOP\000"
 3831      544F5000 
 3832              	.LASF201:
 3833 03e7 66697273 		.ascii	"first_error_address\000"
 3833      745F6572 
 3833      726F725F 
 3833      61646472 
 3833      65737300 
 3834              	.LASF188:
 3835 03fb 53445241 		.ascii	"SDRAM_BIST_ERR_NONE\000"
 3835      4D5F4249 
 3835      53545F45 
 3835      52525F4E 
 3835      4F4E4500 
 3836              	.LASF60:
 3837 040f 63685F72 		.ascii	"ch_rfcu\000"
 3837      66637500 
 3838              	.LASF121:
 3839 0417 63685F6D 		.ascii	"ch_mutex\000"
 3839      75746578 
 3839      00
 3840              	.LASF170:
 3841 0420 68616C5F 		.ascii	"hal_serial_config\000"
 3841      73657269 
 3841      616C5F63 
 3841      6F6E6669 
 3841      6700
 3842              	.LASF97:
 3843 0432 55534152 		.ascii	"USART_TypeDef\000"
ARM GAS  C:\Users\DEVELO~1\AppData\Local\Temp\cc4M0Z3o.s 			page 73


 3843      545F5479 
 3843      70654465 
 3843      6600
 3844              	.LASF50:
 3845 0440 63685F6F 		.ascii	"ch_os_instance\000"
 3845      735F696E 
 3845      7374616E 
 3845      636500
 3846              	.LASF153:
 3847 044f 715F6E6F 		.ascii	"q_notify\000"
 3847      74696679 
 3847      00
 3848              	.LASF210:
 3849 0458 63687072 		.ascii	"chprintf\000"
 3849      696E7466 
 3849      00
 3850              	.LASF168:
 3851 0461 636C6F63 		.ascii	"clock\000"
 3851      6B00
 3852              	.LASF129:
 3853 0467 69646C65 		.ascii	"idlethread_end\000"
 3853      74687265 
 3853      61645F65 
 3853      6E6400
 3854              	.LASF144:
 3855 0476 42617365 		.ascii	"BaseSequentialStream\000"
 3855      53657175 
 3855      656E7469 
 3855      616C5374 
 3855      7265616D 
 3856              	.LASF203:
 3857 048b 66697273 		.ascii	"first_error_pattern\000"
 3857      745F6572 
 3857      726F725F 
 3857      70617474 
 3857      65726E00 
 3858              	.LASF154:
 3859 049f 715F6C69 		.ascii	"q_link\000"
 3859      6E6B00
 3860              	.LASF78:
 3861 04a6 7072696F 		.ascii	"prio\000"
 3861      00
 3862              	.LASF204:
 3863 04ab 74696D65 		.ascii	"timestamp_start\000"
 3863      7374616D 
 3863      705F7374 
 3863      61727400 
 3864              	.LASF65:
 3865 04bb 63686172 		.ascii	"char\000"
 3865      00
 3866              	.LASF214:
 3867 04c0 63685379 		.ascii	"chSysInit\000"
 3867      73496E69 
 3867      7400
 3868              	.LASF79:
 3869 04ca 63685F64 		.ascii	"ch_delta_list_t\000"
 3869      656C7461 
ARM GAS  C:\Users\DEVELO~1\AppData\Local\Temp\cc4M0Z3o.s 			page 74


 3869      5F6C6973 
 3869      745F7400 
 3870              	.LASF59:
 3871 04da 72666375 		.ascii	"rfcu_mask_t\000"
 3871      5F6D6173 
 3871      6B5F7400 
 3872              	.LASF69:
 3873 04e6 74696D65 		.ascii	"time_conv_t\000"
 3873      5F636F6E 
 3873      765F7400 
 3874              	.LASF38:
 3875 04f2 77616261 		.ascii	"wabase\000"
 3875      736500
 3876              	.LASF151:
 3877 04f9 715F7772 		.ascii	"q_wrptr\000"
 3877      70747200 
 3878              	.LASF26:
 3879 0501 74737461 		.ascii	"tstate_t\000"
 3879      74655F74 
 3879      00
 3880              	.LASF35:
 3881 050a 72717565 		.ascii	"rqueue\000"
 3881      756500
 3882              	.LASF208:
 3883 0511 73647261 		.ascii	"sdram_is_initialized\000"
 3883      6D5F6973 
 3883      5F696E69 
 3883      7469616C 
 3883      697A6564 
 3884              	.LASF126:
 3885 0526 6D61696E 		.ascii	"mainthread_base\000"
 3885      74687265 
 3885      61645F62 
 3885      61736500 
 3886              	.LASF1:
 3887 0536 6C6F6E67 		.ascii	"long long int\000"
 3887      206C6F6E 
 3887      6720696E 
 3887      7400
 3888              	.LASF14:
 3889 0544 5F5F7569 		.ascii	"__uint64_t\000"
 3889      6E743634 
 3889      5F7400
 3890              	.LASF148:
 3891 054f 715F636F 		.ascii	"q_counter\000"
 3891      756E7465 
 3891      7200
 3892              	.LASF17:
 3893 0559 75696E74 		.ascii	"uint8_t\000"
 3893      385F7400 
 3894              	.LASF197:
 3895 0561 73746174 		.ascii	"status\000"
 3895      757300
 3896              	.LASF95:
 3897 0568 52544F52 		.ascii	"RTOR\000"
 3897      00
 3898              	.LASF156:
ARM GAS  C:\Users\DEVELO~1\AppData\Local\Temp\cc4M0Z3o.s 			page 75


 3899 056d 696E7075 		.ascii	"input_queue_t\000"
 3899      745F7175 
 3899      6575655F 
 3899      7400
 3900              	.LASF196:
 3901 057b 73647261 		.ascii	"sdram_bist_mode_t\000"
 3901      6D5F6269 
 3901      73745F6D 
 3901      6F64655F 
 3901      7400
 3902              	.LASF49:
 3903 058d 63685F74 		.ascii	"ch_thread\000"
 3903      68726561 
 3903      6400
 3904              	.LASF167:
 3905 0597 75736172 		.ascii	"usart\000"
 3905      7400
 3906              	.LASF66:
 3907 059d 73797374 		.ascii	"system_debug_t\000"
 3907      656D5F64 
 3907      65627567 
 3907      5F7400
 3908              	.LASF109:
 3909 05ac 63685F74 		.ascii	"ch_threads_queue\000"
 3909      68726561 
 3909      64735F71 
 3909      75657565 
 3909      00
 3910              	.LASF142:
 3911 05bd 77726974 		.ascii	"write\000"
 3911      6500
 3912              	.LASF217:
 3913 05c3 6D61696E 		.ascii	"main.c\000"
 3913      2E6300
 3914              	.LASF133:
 3915 05ca 6576656E 		.ascii	"event_listener\000"
 3915      745F6C69 
 3915      7374656E 
 3915      657200
 3916              	.LASF219:
 3917 05d9 75617274 		.ascii	"uart_cfg\000"
 3917      5F636667 
 3917      00
 3918              	.LASF29:
 3919 05e2 6D73675F 		.ascii	"msg_t\000"
 3919      7400
 3920              	.LASF177:
 3921 05e8 72656164 		.ascii	"readt\000"
 3921      7400
 3922              	.LASF107:
 3923 05ee 72656769 		.ascii	"registry_t\000"
 3923      73747279 
 3923      5F7400
 3924              	.LASF141:
 3925 05f9 696E7374 		.ascii	"instance_offset\000"
 3925      616E6365 
 3925      5F6F6666 
ARM GAS  C:\Users\DEVELO~1\AppData\Local\Temp\cc4M0Z3o.s 			page 76


 3925      73657400 
 3926              	.LASF157:
 3927 0609 6F757470 		.ascii	"output_queue_t\000"
 3927      75745F71 
 3927      75657565 
 3927      5F7400
 3928              	.LASF91:
 3929 0618 73697A65 		.ascii	"size\000"
 3929      00
 3930              	.LASF207:
 3931 061d 73647261 		.ascii	"sdram_status\000"
 3931      6D5F7374 
 3931      61747573 
 3931      00
 3932              	.LASF190:
 3933 062a 53445241 		.ascii	"SDRAM_BIST_ERR_ADDRESS_ALIAS\000"
 3933      4D5F4249 
 3933      53545F45 
 3933      52525F41 
 3933      44445245 
 3934              	.LASF61:
 3935 0647 6D61736B 		.ascii	"mask\000"
 3935      00
 3936              	.LASF13:
 3937 064c 6C6F6E67 		.ascii	"long unsigned int\000"
 3937      20756E73 
 3937      69676E65 
 3937      6420696E 
 3937      7400
 3938              	.LASF211:
 3939 065e 73647261 		.ascii	"sdram_init\000"
 3939      6D5F696E 
 3939      697400
 3940              	.LASF68:
 3941 0669 73797369 		.ascii	"sysinterval_t\000"
 3941      6E746572 
 3941      76616C5F 
 3941      7400
 3942              	.LASF73:
 3943 0677 63685F71 		.ascii	"ch_queue_t\000"
 3943      75657565 
 3943      5F7400
 3944              	.LASF31:
 3945 0682 6576656E 		.ascii	"eventflags_t\000"
 3945      74666C61 
 3945      67735F74 
 3945      00
 3946              	.LASF189:
 3947 068f 53445241 		.ascii	"SDRAM_BIST_ERR_DATA_MISMATCH\000"
 3947      4D5F4249 
 3947      53545F45 
 3947      52525F44 
 3947      4154415F 
 3948              	.LASF64:
 3949 06ac 70616E69 		.ascii	"panic_msg\000"
 3949      635F6D73 
 3949      6700
ARM GAS  C:\Users\DEVELO~1\AppData\Local\Temp\cc4M0Z3o.s 			page 77


 3950              	.LASF93:
 3951 06b6 74726163 		.ascii	"trace_buffer_t\000"
 3951      655F6275 
 3951      66666572 
 3951      5F7400
 3952              	.LASF25:
 3953 06c5 746D6F64 		.ascii	"tmode_t\000"
 3953      655F7400 
 3954              	.LASF57:
 3955 06cd 6D61696E 		.ascii	"mainthread\000"
 3955      74687265 
 3955      616400
 3956              	.LASF9:
 3957 06d8 73686F72 		.ascii	"short unsigned int\000"
 3957      7420756E 
 3957      7369676E 
 3957      65642069 
 3957      6E7400
 3958              	.LASF2:
 3959 06eb 6C6F6E67 		.ascii	"long double\000"
 3959      20646F75 
 3959      626C6500 
 3960              	.LASF166:
 3961 06f7 6F717565 		.ascii	"oqueue\000"
 3961      756500
 3962              	.LASF18:
 3963 06fe 75696E74 		.ascii	"uint16_t\000"
 3963      31365F74 
 3963      00
 3964              	.LASF70:
 3965 0707 63685F6C 		.ascii	"ch_list_t\000"
 3965      6973745F 
 3965      7400
 3966              	.LASF16:
 3967 0711 5F5F7569 		.ascii	"__uintptr_t\000"
 3967      6E747074 
 3967      725F7400 
 3968              	.LASF160:
 3969 071d 53445F52 		.ascii	"SD_READY\000"
 3969      45414459 
 3969      00
 3970              	.LASF56:
 3971 0726 636F6E66 		.ascii	"config\000"
 3971      696700
 3972              	.LASF216:
 3973 072d 474E5520 		.ascii	"GNU C17 11.3.1 20220712 -mcpu=cortex-m7 -mthumb -mf"
 3973      43313720 
 3973      31312E33 
 3973      2E312032 
 3973      30323230 
 3974 0760 6C6F6174 		.ascii	"loat-abi=soft -march=armv7e-m -ggdb -O2 -fomit-fram"
 3974      2D616269 
 3974      3D736F66 
 3974      74202D6D 
 3974      61726368 
 3975 0793 652D706F 		.ascii	"e-pointer -falign-functions=16 -ffunction-sections "
 3975      696E7465 
ARM GAS  C:\Users\DEVELO~1\AppData\Local\Temp\cc4M0Z3o.s 			page 78


 3975      72202D66 
 3975      616C6967 
 3975      6E2D6675 
 3976 07c6 2D666461 		.ascii	"-fdata-sections -fno-common\000"
 3976      74612D73 
 3976      65637469 
 3976      6F6E7320 
 3976      2D666E6F 
 3977              	.LASF169:
 3978 07e2 72786D61 		.ascii	"rxmask\000"
 3978      736B00
 3979              	.LASF7:
 3980 07e9 73686F72 		.ascii	"short int\000"
 3980      7420696E 
 3980      7400
 3981              	.LASF136:
 3982 07f3 77666C61 		.ascii	"wflags\000"
 3982      677300
 3983              	.LASF179:
 3984 07fa 53445241 		.ascii	"SDRAM_INITIALIZING\000"
 3984      4D5F494E 
 3984      49544941 
 3984      4C495A49 
 3984      4E4700
 3985              	.LASF98:
 3986 080d 706F7274 		.ascii	"port_intctx\000"
 3986      5F696E74 
 3986      63747800 
 3987              	.LASF199:
 3988 0819 776F7264 		.ascii	"words_covered_unique\000"
 3988      735F636F 
 3988      76657265 
 3988      645F756E 
 3988      69717565 
 3989              	.LASF23:
 3990 082e 706F7274 		.ascii	"port_stkalign_t\000"
 3990      5F73746B 
 3990      616C6967 
 3990      6E5F7400 
 3991              	.LASF200:
 3992 083e 6572726F 		.ascii	"error_count\000"
 3992      725F636F 
 3992      756E7400 
 3993              	.LASF125:
 3994 084a 63685F6F 		.ascii	"ch_os_instance_config\000"
 3994      735F696E 
 3994      7374616E 
 3994      63655F63 
 3994      6F6E6669 
 3995              	.LASF101:
 3996 0860 646C6973 		.ascii	"dlist\000"
 3996      7400
 3997              	.LASF102:
 3998 0866 6C617374 		.ascii	"lasttime\000"
 3998      74696D65 
 3998      00
 3999              	.LASF21:
ARM GAS  C:\Users\DEVELO~1\AppData\Local\Temp\cc4M0Z3o.s 			page 79


 4000 086f 75696E74 		.ascii	"uint64_t\000"
 4000      36345F74 
 4000      00
 4001              	.LASF215:
 4002 0878 68616C49 		.ascii	"halInit\000"
 4002      6E697400 
 4003              	.LASF51:
 4004 0880 726C6973 		.ascii	"rlist\000"
 4004      7400
 4005              	.LASF194:
 4006 0886 53445241 		.ascii	"SDRAM_BIST_MODE_QUICK\000"
 4006      4D5F4249 
 4006      53545F4D 
 4006      4F44455F 
 4006      51554943 
 4007              	.LASF5:
 4008 089c 5F5F7569 		.ascii	"__uint8_t\000"
 4008      6E74385F 
 4008      7400
 4009              	.LASF192:
 4010 08a6 53445241 		.ascii	"SDRAM_BIST_ERR_TIMEOUT\000"
 4010      4D5F4249 
 4010      53545F45 
 4010      52525F54 
 4010      494D454F 
 4011              	.LASF143:
 4012 08bd 72656164 		.ascii	"read\000"
 4012      00
 4013              	.LASF158:
 4014 08c2 53445F55 		.ascii	"SD_UNINIT\000"
 4014      4E494E49 
 4014      5400
 4015              	.LASF206:
 4016 08cc 73647261 		.ascii	"sdram_bist_result_t\000"
 4016      6D5F6269 
 4016      73745F72 
 4016      6573756C 
 4016      745F7400 
 4017              	.LASF22:
 4018 08e0 75696E74 		.ascii	"uintptr_t\000"
 4018      7074725F 
 4018      7400
 4019              	.LASF175:
 4020 08ea 67657474 		.ascii	"gett\000"
 4020      00
 4021              	.LASF150:
 4022 08ef 715F746F 		.ascii	"q_top\000"
 4022      7000
 4023              	.LASF187:
 4024 08f5 73647261 		.ascii	"sdram_bist_status_t\000"
 4024      6D5F6269 
 4024      73745F73 
 4024      74617475 
 4024      735F7400 
 4025              	.LASF27:
 4026 0909 74726566 		.ascii	"trefs_t\000"
 4026      735F7400 
ARM GAS  C:\Users\DEVELO~1\AppData\Local\Temp\cc4M0Z3o.s 			page 80


 4027              	.LASF132:
 4028 0911 6576656E 		.ascii	"event_listener_t\000"
 4028      745F6C69 
 4028      7374656E 
 4028      65725F74 
 4028      00
 4029              	.LASF124:
 4030 0922 72656164 		.ascii	"ready_list_t\000"
 4030      795F6C69 
 4030      73745F74 
 4030      00
 4031              	.LASF87:
 4032 092f 72747374 		.ascii	"rtstamp\000"
 4032      616D7000 
 4033              	.LASF106:
 4034 0937 71756575 		.ascii	"queue\000"
 4034      6500
 4035              	.LASF19:
 4036 093d 696E7433 		.ascii	"int32_t\000"
 4036      325F7400 
 4037              	.LASF62:
 4038 0945 72666375 		.ascii	"rfcu_t\000"
 4038      5F7400
 4039              	.LASF58:
 4040 094c 74726163 		.ascii	"trace_buffer\000"
 4040      655F6275 
 4040      66666572 
 4040      00
 4041              	.LASF117:
 4042 0959 77747365 		.ascii	"wtsemp\000"
 4042      6D7000
 4043              	.LASF77:
 4044 0960 63685F70 		.ascii	"ch_priority_queue\000"
 4044      72696F72 
 4044      6974795F 
 4044      71756575 
 4044      6500
 4045              	.LASF74:
 4046 0972 63685F71 		.ascii	"ch_queue\000"
 4046      75657565 
 4046      00
 4047              	.LASF131:
 4048 097b 6D757465 		.ascii	"mutex_t\000"
 4048      785F7400 
 4049              	.LASF180:
 4050 0983 53445241 		.ascii	"SDRAM_READY\000"
 4050      4D5F5245 
 4050      41445900 
 4051              	.LASF86:
 4052 098f 74797065 		.ascii	"type\000"
 4052      00
 4053              	.LASF185:
 4054 0994 53445241 		.ascii	"SDRAM_BIST_FAIL\000"
 4054      4D5F4249 
 4054      53545F46 
 4054      41494C00 
 4055              	.LASF6:
ARM GAS  C:\Users\DEVELO~1\AppData\Local\Temp\cc4M0Z3o.s 			page 81


 4056 09a4 756E7369 		.ascii	"unsigned char\000"
 4056      676E6564 
 4056      20636861 
 4056      7200
 4057              	.LASF12:
 4058 09b2 5F5F7569 		.ascii	"__uint32_t\000"
 4058      6E743332 
 4058      5F7400
 4059              	.LASF42:
 4060 09bd 77616974 		.ascii	"waiting\000"
 4060      696E6700 
 4061              	.LASF104:
 4062 09c5 76697274 		.ascii	"virtual_timers_list_t\000"
 4062      75616C5F 
 4062      74696D65 
 4062      72735F6C 
 4062      6973745F 
 4063              	.LASF135:
 4064 09db 6576656E 		.ascii	"events\000"
 4064      747300
 4065              	.LASF212:
 4066 09e2 63685468 		.ascii	"chThdSleep\000"
 4066      64536C65 
 4066      657000
 4067              	.LASF39:
 4068 09ed 73746174 		.ascii	"state\000"
 4068      6500
 4069              	.LASF48:
 4070 09f3 6F735F69 		.ascii	"os_instance_t\000"
 4070      6E737461 
 4070      6E63655F 
 4070      7400
 4071              	.LASF53:
 4072 0a01 7265676C 		.ascii	"reglist\000"
 4072      69737400 
 4073              	.LASF115:
 4074 0a09 77747472 		.ascii	"wttrp\000"
 4074      7000
 4075              	.LASF128:
 4076 0a0f 69646C65 		.ascii	"idlethread_base\000"
 4076      74687265 
 4076      61645F62 
 4076      61736500 
 4077              	.LASF205:
 4078 0a1f 74696D65 		.ascii	"timestamp_end\000"
 4078      7374616D 
 4078      705F656E 
 4078      6400
 4079              	.LASF3:
 4080 0a2d 7369676E 		.ascii	"signed char\000"
 4080      65642063 
 4080      68617200 
 4081              	.LASF81:
 4082 0a39 64656C74 		.ascii	"delta\000"
 4082      6100
 4083              	.LASF146:
 4084 0a3f 696F5F71 		.ascii	"io_queue\000"
ARM GAS  C:\Users\DEVELO~1\AppData\Local\Temp\cc4M0Z3o.s 			page 82


 4084      75657565 
 4084      00
 4085              	.LASF173:
 4086 0a48 53657269 		.ascii	"SerialDriverVMT\000"
 4086      616C4472 
 4086      69766572 
 4086      564D5400 
 4087              	.LASF24:
 4088 0a58 73746B61 		.ascii	"stkalign_t\000"
 4088      6C69676E 
 4088      5F7400
 4089              	.LASF220:
 4090 0a63 6D61696E 		.ascii	"main\000"
 4090      00
 4091              	.LASF123:
 4092 0a68 63757272 		.ascii	"current\000"
 4092      656E7400 
 4093              	.LASF209:
 4094 0a70 73647261 		.ascii	"sdram_run_bist\000"
 4094      6D5F7275 
 4094      6E5F6269 
 4094      737400
 4095              	.LASF202:
 4096 0a7f 66697273 		.ascii	"first_error\000"
 4096      745F6572 
 4096      726F7200 
 4097              	.LASF118:
 4098 0a8b 77746D74 		.ascii	"wtmtxp\000"
 4098      787000
 4099              	.LASF114:
 4100 0a92 65786974 		.ascii	"exitcode\000"
 4100      636F6465 
 4100      00
 4101              	.LASF33:
 4102 0a9b 636F7265 		.ascii	"core_id_t\000"
 4102      5F69645F 
 4102      7400
 4103              	.LASF149:
 4104 0aa5 715F6275 		.ascii	"q_buffer\000"
 4104      66666572 
 4104      00
 4105              	.LASF47:
 4106 0aae 6D706F6F 		.ascii	"mpool\000"
 4106      6C00
 4107              		.ident	"GCC: (Arm GNU Toolchain 11.3.Rel1) 11.3.1 20220712"
ARM GAS  C:\Users\DEVELO~1\AppData\Local\Temp\cc4M0Z3o.s 			page 83


DEFINED SYMBOLS
                            *ABS*:00000000 main.c
C:\Users\DEVELO~1\AppData\Local\Temp\cc4M0Z3o.s:18     .rodata.main.str1.4:00000000 $d
C:\Users\DEVELO~1\AppData\Local\Temp\cc4M0Z3o.s:68     .text.startup.main:00000000 $t
C:\Users\DEVELO~1\AppData\Local\Temp\cc4M0Z3o.s:75     .text.startup.main:00000000 main
C:\Users\DEVELO~1\AppData\Local\Temp\cc4M0Z3o.s:283    .text.startup.main:000000f8 $d
C:\Users\DEVELO~1\AppData\Local\Temp\cc4M0Z3o.s:309    .rodata.uart_cfg:00000000 $d
C:\Users\DEVELO~1\AppData\Local\Temp\cc4M0Z3o.s:313    .rodata.uart_cfg:00000000 uart_cfg

UNDEFINED SYMBOLS
halInit
chSysInit
sdStart
chThdSleep
chprintf
sdram_init
sdram_status
sdram_is_initialized
sdram_run_bist
SD1
