ARM GAS  C:\Users\DEVELO~1\AppData\Local\Temp\cct3Cfi7.s 			page 1


   1              		.cpu cortex-m7
   2              		.arch armv7e-m
   3              		.fpu softvfp
   4              		.eabi_attribute 20, 1
   5              		.eabi_attribute 21, 1
   6              		.eabi_attribute 23, 3
   7              		.eabi_attribute 24, 1
   8              		.eabi_attribute 25, 1
   9              		.eabi_attribute 26, 1
  10              		.eabi_attribute 30, 2
  11              		.eabi_attribute 34, 1
  12              		.eabi_attribute 18, 4
  13              		.file	"main.c"
  14              		.text
  15              	.Ltext0:
  16              		.cfi_sections	.debug_frame
  17              		.section	.text.startup.main,"ax",%progbits
  18              		.align	1
  19              		.p2align 4,,15
  20              		.global	main
  21              		.syntax unified
  22              		.thumb
  23              		.thumb_func
  24              		.type	main, %function
  25              	main:
  26              	.LFB432:
  27              		.file 1 "main.c"
  28              		.loc 1 5 16 view -0
  29              		.cfi_startproc
  30              		@ Volatile: function does not return.
  31              		@ args = 0, pretend = 0, frame = 8
  32              		@ frame_needed = 0, uses_anonymous_args = 0
  33              		.loc 1 7 3 view .LVU1
  34              		.loc 1 10 16 is_stmt 0 view .LVU2
  35 0000 154C     		ldr	r4, .L8
  36              		.loc 1 5 16 view .LVU3
  37 0002 00B5     		push	{lr}
  38              		.cfi_def_cfa_offset 4
  39              		.cfi_offset 14, -4
  40 0004 83B0     		sub	sp, sp, #12
  41              		.cfi_def_cfa_offset 16
  42              		.loc 1 7 3 view .LVU4
  43 0006 FFF7FEFF 		bl	halInit
  44              	.LVL0:
  45              		.loc 1 8 3 is_stmt 1 view .LVU5
  46 000a FFF7FEFF 		bl	chSysInit
  47              	.LVL1:
  48              		.loc 1 10 3 view .LVU6
  49              		.loc 1 10 16 is_stmt 0 view .LVU7
  50 000e D4F8E030 		ldr	r3, [r4, #224]
  51              		.loc 1 12 16 view .LVU8
  52 0012 124A     		ldr	r2, .L8+4
  53              	.LBB2:
  54              		.loc 1 18 28 view .LVU9
  55 0014 0020     		movs	r0, #0
  56              	.LBE2:
  57              		.loc 1 10 16 view .LVU10
ARM GAS  C:\Users\DEVELO~1\AppData\Local\Temp\cct3Cfi7.s 			page 2


  58 0016 43F08003 		orr	r3, r3, #128
  59              	.LBB3:
  60              		.loc 1 18 37 view .LVU11
  61 001a 1149     		ldr	r1, .L8+8
  62              	.LBE3:
  63              		.loc 1 10 16 view .LVU12
  64 001c C4F8E030 		str	r3, [r4, #224]
  65              		.loc 1 12 3 is_stmt 1 view .LVU13
  66              		.loc 1 12 16 is_stmt 0 view .LVU14
  67 0020 1368     		ldr	r3, [r2]
  68 0022 23F44043 		bic	r3, r3, #49152
  69 0026 1360     		str	r3, [r2]
  70              		.loc 1 13 3 is_stmt 1 view .LVU15
  71              		.loc 1 13 16 is_stmt 0 view .LVU16
  72 0028 1368     		ldr	r3, [r2]
  73 002a 43F48043 		orr	r3, r3, #16384
  74 002e 1360     		str	r3, [r2]
  75              		.loc 1 14 3 is_stmt 1 view .LVU17
  76              		.loc 1 14 17 is_stmt 0 view .LVU18
  77 0030 5368     		ldr	r3, [r2, #4]
  78 0032 23F08003 		bic	r3, r3, #128
  79 0036 5360     		str	r3, [r2, #4]
  80              	.L4:
  81              		.loc 1 16 3 is_stmt 1 view .LVU19
  82              		.loc 1 17 5 view .LVU20
  83              		.loc 1 17 16 is_stmt 0 view .LVU21
  84 0038 5369     		ldr	r3, [r2, #20]
  85 003a 83F08003 		eor	r3, r3, #128
  86 003e 5361     		str	r3, [r2, #20]
  87              		.loc 1 18 5 is_stmt 1 view .LVU22
  88              	.LBB4:
  89              		.loc 1 18 10 view .LVU23
  90              		.loc 1 18 28 is_stmt 0 view .LVU24
  91 0040 0190     		str	r0, [sp, #4]
  92              		.loc 1 18 37 is_stmt 1 view .LVU25
  93 0042 019B     		ldr	r3, [sp, #4]
  94 0044 8B42     		cmp	r3, r1
  95 0046 F7D8     		bhi	.L4
  96              	.L3:
  97              		.loc 1 18 49 discriminator 3 view .LVU26
  98 0048 019B     		ldr	r3, [sp, #4]
  99 004a 0133     		adds	r3, r3, #1
 100 004c 0193     		str	r3, [sp, #4]
 101              		.loc 1 18 37 discriminator 3 view .LVU27
 102 004e 019B     		ldr	r3, [sp, #4]
 103 0050 8B42     		cmp	r3, r1
 104 0052 F9D9     		bls	.L3
 105 0054 F0E7     		b	.L4
 106              	.L9:
 107 0056 00BF     		.align	2
 108              	.L8:
 109 0058 00440258 		.word	1476543488
 110 005c 001C0258 		.word	1476533248
 111 0060 3F420F00 		.word	999999
 112              	.LBE4:
 113              		.cfi_endproc
 114              	.LFE432:
ARM GAS  C:\Users\DEVELO~1\AppData\Local\Temp\cct3Cfi7.s 			page 3


 115              		.size	main, .-main
 116              		.text
 117              	.Letext0:
 118              		.file 2 "c:\\chibistudio\\tools\\gnu tools arm embedded\\11.3 2022.08\\arm-none-eabi\\include\\mac
 119              		.file 3 "c:\\chibistudio\\tools\\gnu tools arm embedded\\11.3 2022.08\\arm-none-eabi\\include\\sys
 120              		.file 4 "../../../os/common/ext/ST/STM32H7xx/stm32h743xx.h"
 121              		.file 5 "../../../os/hal/ports/STM32/LLD/GPIOv2/stm32_gpio.h"
 122              		.file 6 "../../../os/rt/include/chsys.h"
 123              		.file 7 "../../../os/hal/include/hal.h"
 124              		.section	.debug_info,"",%progbits
 125              	.Ldebug_info0:
 126 0000 5D050000 		.4byte	0x55d
 127 0004 0500     		.2byte	0x5
 128 0006 01       		.byte	0x1
 129 0007 04       		.byte	0x4
 130 0008 00000000 		.4byte	.Ldebug_abbrev0
 131 000c 0F       		.uleb128 0xf
 132 000d 93030000 		.4byte	.LASF90
 133 0011 1D       		.byte	0x1d
 134 0012 71030000 		.4byte	.LASF91
 135 0016 23020000 		.4byte	.LASF92
 136 001a 1B000000 		.4byte	.LLRL1
 137 001e 00000000 		.4byte	0
 138 0022 00000000 		.4byte	.Ldebug_line0
 139 0026 10       		.uleb128 0x10
 140 0027 04       		.byte	0x4
 141 0028 05       		.byte	0x5
 142 0029 696E7400 		.ascii	"int\000"
 143 002d 02       		.uleb128 0x2
 144 002e 04       		.byte	0x4
 145 002f 07       		.byte	0x7
 146 0030 04020000 		.4byte	.LASF0
 147 0034 02       		.uleb128 0x2
 148 0035 08       		.byte	0x8
 149 0036 05       		.byte	0x5
 150 0037 51030000 		.4byte	.LASF1
 151 003b 02       		.uleb128 0x2
 152 003c 08       		.byte	0x8
 153 003d 04       		.byte	0x4
 154 003e 6F010000 		.4byte	.LASF2
 155 0042 02       		.uleb128 0x2
 156 0043 01       		.byte	0x1
 157 0044 06       		.byte	0x6
 158 0045 CF010000 		.4byte	.LASF3
 159 0049 02       		.uleb128 0x2
 160 004a 01       		.byte	0x1
 161 004b 08       		.byte	0x8
 162 004c 8A010000 		.4byte	.LASF4
 163 0050 02       		.uleb128 0x2
 164 0051 02       		.byte	0x2
 165 0052 05       		.byte	0x5
 166 0053 43000000 		.4byte	.LASF5
 167 0057 05       		.uleb128 0x5
 168 0058 A2000000 		.4byte	.LASF8
 169 005c 02       		.byte	0x2
 170 005d 39       		.byte	0x39
 171 005e 19       		.byte	0x19
ARM GAS  C:\Users\DEVELO~1\AppData\Local\Temp\cct3Cfi7.s 			page 4


 172 005f 63000000 		.4byte	0x63
 173 0063 02       		.uleb128 0x2
 174 0064 02       		.byte	0x2
 175 0065 07       		.byte	0x7
 176 0066 9A020000 		.4byte	.LASF6
 177 006a 02       		.uleb128 0x2
 178 006b 04       		.byte	0x4
 179 006c 05       		.byte	0x5
 180 006d 1A010000 		.4byte	.LASF7
 181 0071 05       		.uleb128 0x5
 182 0072 89000000 		.4byte	.LASF9
 183 0076 02       		.byte	0x2
 184 0077 4F       		.byte	0x4f
 185 0078 19       		.byte	0x19
 186 0079 7D000000 		.4byte	0x7d
 187 007d 02       		.uleb128 0x2
 188 007e 04       		.byte	0x4
 189 007f 07       		.byte	0x7
 190 0080 11030000 		.4byte	.LASF10
 191 0084 02       		.uleb128 0x2
 192 0085 08       		.byte	0x8
 193 0086 07       		.byte	0x7
 194 0087 DB010000 		.4byte	.LASF11
 195 008b 05       		.uleb128 0x5
 196 008c 1A020000 		.4byte	.LASF12
 197 0090 03       		.byte	0x3
 198 0091 24       		.byte	0x24
 199 0092 14       		.byte	0x14
 200 0093 57000000 		.4byte	0x57
 201 0097 05       		.uleb128 0x5
 202 0098 FB010000 		.4byte	.LASF13
 203 009c 03       		.byte	0x3
 204 009d 30       		.byte	0x30
 205 009e 14       		.byte	0x14
 206 009f 71000000 		.4byte	0x71
 207 00a3 08       		.uleb128 0x8
 208 00a4 97000000 		.4byte	0x97
 209 00a8 02       		.uleb128 0x2
 210 00a9 01       		.byte	0x1
 211 00aa 08       		.byte	0x8
 212 00ab AD020000 		.4byte	.LASF14
 213 00af 09       		.uleb128 0x9
 214 00b0 97000000 		.4byte	0x97
 215 00b4 BF000000 		.4byte	0xbf
 216 00b8 0A       		.uleb128 0xa
 217 00b9 2D000000 		.4byte	0x2d
 218 00bd 03       		.byte	0x3
 219 00be 00       		.byte	0
 220 00bf 09       		.uleb128 0x9
 221 00c0 97000000 		.4byte	0x97
 222 00c4 CF000000 		.4byte	0xcf
 223 00c8 0A       		.uleb128 0xa
 224 00c9 2D000000 		.4byte	0x2d
 225 00cd 08       		.byte	0x8
 226 00ce 00       		.byte	0
 227 00cf 11       		.uleb128 0x11
 228 00d0 3001     		.2byte	0x130
ARM GAS  C:\Users\DEVELO~1\AppData\Local\Temp\cct3Cfi7.s 			page 5


 229 00d2 04       		.byte	0x4
 230 00d3 CE04     		.2byte	0x4ce
 231 00d5 09       		.byte	0x9
 232 00d6 30040000 		.4byte	0x430
 233 00da 06       		.uleb128 0x6
 234 00db 435200   		.ascii	"CR\000"
 235 00de D004     		.2byte	0x4d0
 236 00e0 10       		.byte	0x10
 237 00e1 A3000000 		.4byte	0xa3
 238 00e5 00       		.byte	0
 239 00e6 01       		.uleb128 0x1
 240 00e7 79000000 		.4byte	.LASF15
 241 00eb D104     		.2byte	0x4d1
 242 00ed 10       		.byte	0x10
 243 00ee A3000000 		.4byte	0xa3
 244 00f2 04       		.byte	0x4
 245 00f3 01       		.uleb128 0x1
 246 00f4 C9010000 		.4byte	.LASF16
 247 00f8 D204     		.2byte	0x4d2
 248 00fa 10       		.byte	0x10
 249 00fb A3000000 		.4byte	0xa3
 250 00ff 08       		.byte	0x8
 251 0100 01       		.uleb128 0x1
 252 0101 5D010000 		.4byte	.LASF17
 253 0105 D304     		.2byte	0x4d3
 254 0107 10       		.byte	0x10
 255 0108 A3000000 		.4byte	0xa3
 256 010c 0C       		.byte	0xc
 257 010d 01       		.uleb128 0x1
 258 010e B7000000 		.4byte	.LASF18
 259 0112 D404     		.2byte	0x4d4
 260 0114 10       		.byte	0x10
 261 0115 A3000000 		.4byte	0xa3
 262 0119 10       		.byte	0x10
 263 011a 01       		.uleb128 0x1
 264 011b E2020000 		.4byte	.LASF19
 265 011f D504     		.2byte	0x4d5
 266 0121 0F       		.byte	0xf
 267 0122 97000000 		.4byte	0x97
 268 0126 14       		.byte	0x14
 269 0127 01       		.uleb128 0x1
 270 0128 81020000 		.4byte	.LASF20
 271 012c D604     		.2byte	0x4d6
 272 012e 10       		.byte	0x10
 273 012f A3000000 		.4byte	0xa3
 274 0133 18       		.byte	0x18
 275 0134 01       		.uleb128 0x1
 276 0135 78030000 		.4byte	.LASF21
 277 0139 D704     		.2byte	0x4d7
 278 013b 10       		.byte	0x10
 279 013c A3000000 		.4byte	0xa3
 280 0140 1C       		.byte	0x1c
 281 0141 01       		.uleb128 0x1
 282 0142 68000000 		.4byte	.LASF22
 283 0146 D804     		.2byte	0x4d8
 284 0148 10       		.byte	0x10
 285 0149 A3000000 		.4byte	0xa3
ARM GAS  C:\Users\DEVELO~1\AppData\Local\Temp\cct3Cfi7.s 			page 6


 286 014d 20       		.byte	0x20
 287 014e 01       		.uleb128 0x1
 288 014f EC020000 		.4byte	.LASF23
 289 0153 D904     		.2byte	0x4d9
 290 0155 0F       		.byte	0xf
 291 0156 97000000 		.4byte	0x97
 292 015a 24       		.byte	0x24
 293 015b 01       		.uleb128 0x1
 294 015c FD000000 		.4byte	.LASF24
 295 0160 DA04     		.2byte	0x4da
 296 0162 10       		.byte	0x10
 297 0163 A3000000 		.4byte	0xa3
 298 0167 28       		.byte	0x28
 299 0168 01       		.uleb128 0x1
 300 0169 8D020000 		.4byte	.LASF25
 301 016d DB04     		.2byte	0x4db
 302 016f 10       		.byte	0x10
 303 0170 A3000000 		.4byte	0xa3
 304 0174 2C       		.byte	0x2c
 305 0175 01       		.uleb128 0x1
 306 0176 94000000 		.4byte	.LASF26
 307 017a DC04     		.2byte	0x4dc
 308 017c 10       		.byte	0x10
 309 017d A3000000 		.4byte	0xa3
 310 0181 30       		.byte	0x30
 311 0182 01       		.uleb128 0x1
 312 0183 00000000 		.4byte	.LASF27
 313 0187 DD04     		.2byte	0x4dd
 314 0189 10       		.byte	0x10
 315 018a A3000000 		.4byte	0xa3
 316 018e 34       		.byte	0x34
 317 018f 01       		.uleb128 0x1
 318 0190 23010000 		.4byte	.LASF28
 319 0194 DE04     		.2byte	0x4de
 320 0196 10       		.byte	0x10
 321 0197 A3000000 		.4byte	0xa3
 322 019b 38       		.byte	0x38
 323 019c 01       		.uleb128 0x1
 324 019d 98010000 		.4byte	.LASF29
 325 01a1 DF04     		.2byte	0x4df
 326 01a3 10       		.byte	0x10
 327 01a4 A3000000 		.4byte	0xa3
 328 01a8 3C       		.byte	0x3c
 329 01a9 01       		.uleb128 0x1
 330 01aa D9020000 		.4byte	.LASF30
 331 01ae E004     		.2byte	0x4e0
 332 01b0 10       		.byte	0x10
 333 01b1 A3000000 		.4byte	0xa3
 334 01b5 40       		.byte	0x40
 335 01b6 01       		.uleb128 0x1
 336 01b7 48040000 		.4byte	.LASF31
 337 01bb E104     		.2byte	0x4e1
 338 01bd 10       		.byte	0x10
 339 01be A3000000 		.4byte	0xa3
 340 01c2 44       		.byte	0x44
 341 01c3 01       		.uleb128 0x1
 342 01c4 BC000000 		.4byte	.LASF32
ARM GAS  C:\Users\DEVELO~1\AppData\Local\Temp\cct3Cfi7.s 			page 7


 343 01c8 E204     		.2byte	0x4e2
 344 01ca 10       		.byte	0x10
 345 01cb 97000000 		.4byte	0x97
 346 01cf 48       		.byte	0x48
 347 01d0 01       		.uleb128 0x1
 348 01d1 B7020000 		.4byte	.LASF33
 349 01d5 E304     		.2byte	0x4e3
 350 01d7 11       		.byte	0x11
 351 01d8 A3000000 		.4byte	0xa3
 352 01dc 4C       		.byte	0x4c
 353 01dd 01       		.uleb128 0x1
 354 01de 40030000 		.4byte	.LASF34
 355 01e2 E404     		.2byte	0x4e4
 356 01e4 11       		.byte	0x11
 357 01e5 A3000000 		.4byte	0xa3
 358 01e9 50       		.byte	0x50
 359 01ea 01       		.uleb128 0x1
 360 01eb 28000000 		.4byte	.LASF35
 361 01ef E504     		.2byte	0x4e5
 362 01f1 11       		.byte	0x11
 363 01f2 A3000000 		.4byte	0xa3
 364 01f6 54       		.byte	0x54
 365 01f7 01       		.uleb128 0x1
 366 01f8 81000000 		.4byte	.LASF36
 367 01fc E604     		.2byte	0x4e6
 368 01fe 11       		.byte	0x11
 369 01ff A3000000 		.4byte	0xa3
 370 0203 58       		.byte	0x58
 371 0204 01       		.uleb128 0x1
 372 0205 FE020000 		.4byte	.LASF37
 373 0209 E704     		.2byte	0x4e7
 374 020b 10       		.byte	0x10
 375 020c 97000000 		.4byte	0x97
 376 0210 5C       		.byte	0x5c
 377 0211 01       		.uleb128 0x1
 378 0212 07010000 		.4byte	.LASF38
 379 0216 E804     		.2byte	0x4e8
 380 0218 11       		.byte	0x11
 381 0219 A3000000 		.4byte	0xa3
 382 021d 60       		.byte	0x60
 383 021e 01       		.uleb128 0x1
 384 021f 3B030000 		.4byte	.LASF39
 385 0223 E904     		.2byte	0x4e9
 386 0225 11       		.byte	0x11
 387 0226 A3000000 		.4byte	0xa3
 388 022a 64       		.byte	0x64
 389 022b 01       		.uleb128 0x1
 390 022c 9D000000 		.4byte	.LASF40
 391 0230 EA04     		.2byte	0x4ea
 392 0232 11       		.byte	0x11
 393 0233 A3000000 		.4byte	0xa3
 394 0237 68       		.byte	0x68
 395 0238 01       		.uleb128 0x1
 396 0239 C6000000 		.4byte	.LASF41
 397 023d EB04     		.2byte	0x4eb
 398 023f 0F       		.byte	0xf
 399 0240 97000000 		.4byte	0x97
ARM GAS  C:\Users\DEVELO~1\AppData\Local\Temp\cct3Cfi7.s 			page 8


 400 0244 6C       		.byte	0x6c
 401 0245 01       		.uleb128 0x1
 402 0246 63000000 		.4byte	.LASF42
 403 024a EC04     		.2byte	0x4ec
 404 024c 11       		.byte	0x11
 405 024d A3000000 		.4byte	0xa3
 406 0251 70       		.byte	0x70
 407 0252 06       		.uleb128 0x6
 408 0253 43535200 		.ascii	"CSR\000"
 409 0257 ED04     		.2byte	0x4ed
 410 0259 11       		.byte	0x11
 411 025a A3000000 		.4byte	0xa3
 412 025e 74       		.byte	0x74
 413 025f 01       		.uleb128 0x1
 414 0260 D0000000 		.4byte	.LASF43
 415 0264 EE04     		.2byte	0x4ee
 416 0266 0F       		.byte	0xf
 417 0267 97000000 		.4byte	0x97
 418 026b 78       		.byte	0x78
 419 026c 01       		.uleb128 0x1
 420 026d 68030000 		.4byte	.LASF44
 421 0271 EF04     		.2byte	0x4ef
 422 0273 10       		.byte	0x10
 423 0274 A3000000 		.4byte	0xa3
 424 0278 7C       		.byte	0x7c
 425 0279 01       		.uleb128 0x1
 426 027a 5F030000 		.4byte	.LASF45
 427 027e F004     		.2byte	0x4f0
 428 0280 10       		.byte	0x10
 429 0281 A3000000 		.4byte	0xa3
 430 0285 80       		.byte	0x80
 431 0286 01       		.uleb128 0x1
 432 0287 11020000 		.4byte	.LASF46
 433 028b F104     		.2byte	0x4f1
 434 028d 10       		.byte	0x10
 435 028e A3000000 		.4byte	0xa3
 436 0292 84       		.byte	0x84
 437 0293 01       		.uleb128 0x1
 438 0294 F2010000 		.4byte	.LASF47
 439 0298 F204     		.2byte	0x4f2
 440 029a 10       		.byte	0x10
 441 029b A3000000 		.4byte	0xa3
 442 029f 88       		.byte	0x88
 443 02a0 01       		.uleb128 0x1
 444 02a1 08030000 		.4byte	.LASF48
 445 02a5 F304     		.2byte	0x4f3
 446 02a7 10       		.byte	0x10
 447 02a8 A3000000 		.4byte	0xa3
 448 02ac 8C       		.byte	0x8c
 449 02ad 01       		.uleb128 0x1
 450 02ae 23030000 		.4byte	.LASF49
 451 02b2 F404     		.2byte	0x4f4
 452 02b4 10       		.byte	0x10
 453 02b5 A3000000 		.4byte	0xa3
 454 02b9 90       		.byte	0x90
 455 02ba 01       		.uleb128 0x1
 456 02bb 39000000 		.4byte	.LASF50
ARM GAS  C:\Users\DEVELO~1\AppData\Local\Temp\cct3Cfi7.s 			page 9


 457 02bf F504     		.2byte	0x4f5
 458 02c1 10       		.byte	0x10
 459 02c2 A3000000 		.4byte	0xa3
 460 02c6 94       		.byte	0x94
 461 02c7 01       		.uleb128 0x1
 462 02c8 43010000 		.4byte	.LASF51
 463 02cc F604     		.2byte	0x4f6
 464 02ce 10       		.byte	0x10
 465 02cf A3000000 		.4byte	0xa3
 466 02d3 98       		.byte	0x98
 467 02d4 01       		.uleb128 0x1
 468 02d5 4D000000 		.4byte	.LASF52
 469 02d9 F704     		.2byte	0x4f7
 470 02db 10       		.byte	0x10
 471 02dc A3000000 		.4byte	0xa3
 472 02e0 9C       		.byte	0x9c
 473 02e1 06       		.uleb128 0x6
 474 02e2 47435200 		.ascii	"GCR\000"
 475 02e6 F804     		.2byte	0x4f8
 476 02e8 10       		.byte	0x10
 477 02e9 A3000000 		.4byte	0xa3
 478 02ed A0       		.byte	0xa0
 479 02ee 01       		.uleb128 0x1
 480 02ef DA000000 		.4byte	.LASF53
 481 02f3 F904     		.2byte	0x4f9
 482 02f5 0F       		.byte	0xf
 483 02f6 97000000 		.4byte	0x97
 484 02fa A4       		.byte	0xa4
 485 02fb 01       		.uleb128 0x1
 486 02fc 7B010000 		.4byte	.LASF54
 487 0300 FA04     		.2byte	0x4fa
 488 0302 10       		.byte	0x10
 489 0303 A3000000 		.4byte	0xa3
 490 0307 A8       		.byte	0xa8
 491 0308 01       		.uleb128 0x1
 492 0309 A2010000 		.4byte	.LASF55
 493 030d FB04     		.2byte	0x4fb
 494 030f 0F       		.byte	0xf
 495 0310 BF000000 		.4byte	0xbf
 496 0314 AC       		.byte	0xac
 497 0315 06       		.uleb128 0x6
 498 0316 52535200 		.ascii	"RSR\000"
 499 031a FC04     		.2byte	0x4fc
 500 031c 10       		.byte	0x10
 501 031d A3000000 		.4byte	0xa3
 502 0321 D0       		.byte	0xd0
 503 0322 01       		.uleb128 0x1
 504 0323 F5000000 		.4byte	.LASF56
 505 0327 FD04     		.2byte	0x4fd
 506 0329 10       		.byte	0x10
 507 032a A3000000 		.4byte	0xa3
 508 032e D4       		.byte	0xd4
 509 032f 01       		.uleb128 0x1
 510 0330 49030000 		.4byte	.LASF57
 511 0334 FE04     		.2byte	0x4fe
 512 0336 10       		.byte	0x10
 513 0337 A3000000 		.4byte	0xa3
ARM GAS  C:\Users\DEVELO~1\AppData\Local\Temp\cct3Cfi7.s 			page 10


 514 033b D8       		.byte	0xd8
 515 033c 01       		.uleb128 0x1
 516 033d 31000000 		.4byte	.LASF58
 517 0341 FF04     		.2byte	0x4ff
 518 0343 10       		.byte	0x10
 519 0344 A3000000 		.4byte	0xa3
 520 0348 DC       		.byte	0xdc
 521 0349 01       		.uleb128 0x1
 522 034a 79020000 		.4byte	.LASF59
 523 034e 0005     		.2byte	0x500
 524 0350 10       		.byte	0x10
 525 0351 A3000000 		.4byte	0xa3
 526 0355 E0       		.byte	0xe0
 527 0356 01       		.uleb128 0x1
 528 0357 33030000 		.4byte	.LASF60
 529 035b 0105     		.2byte	0x501
 530 035d 10       		.byte	0x10
 531 035e A3000000 		.4byte	0xa3
 532 0362 E4       		.byte	0xe4
 533 0363 01       		.uleb128 0x1
 534 0364 C0010000 		.4byte	.LASF61
 535 0368 0205     		.2byte	0x502
 536 036a 10       		.byte	0x10
 537 036b A3000000 		.4byte	0xa3
 538 036f E8       		.byte	0xe8
 539 0370 01       		.uleb128 0x1
 540 0371 81010000 		.4byte	.LASF62
 541 0375 0305     		.2byte	0x503
 542 0377 10       		.byte	0x10
 543 0378 A3000000 		.4byte	0xa3
 544 037c EC       		.byte	0xec
 545 037d 01       		.uleb128 0x1
 546 037e B8010000 		.4byte	.LASF63
 547 0382 0405     		.2byte	0x504
 548 0384 10       		.byte	0x10
 549 0385 A3000000 		.4byte	0xa3
 550 0389 F0       		.byte	0xf0
 551 038a 01       		.uleb128 0x1
 552 038b 15000000 		.4byte	.LASF64
 553 038f 0505     		.2byte	0x505
 554 0391 10       		.byte	0x10
 555 0392 A3000000 		.4byte	0xa3
 556 0396 F4       		.byte	0xf4
 557 0397 01       		.uleb128 0x1
 558 0398 AD010000 		.4byte	.LASF65
 559 039c 0605     		.2byte	0x506
 560 039e 10       		.byte	0x10
 561 039f 97000000 		.4byte	0x97
 562 03a3 F8       		.byte	0xf8
 563 03a4 01       		.uleb128 0x1
 564 03a5 AD000000 		.4byte	.LASF66
 565 03a9 0705     		.2byte	0x507
 566 03ab 10       		.byte	0x10
 567 03ac A3000000 		.4byte	0xa3
 568 03b0 FC       		.byte	0xfc
 569 03b1 03       		.uleb128 0x3
 570 03b2 E4000000 		.4byte	.LASF67
ARM GAS  C:\Users\DEVELO~1\AppData\Local\Temp\cct3Cfi7.s 			page 11


 571 03b6 0805     		.2byte	0x508
 572 03b8 10       		.byte	0x10
 573 03b9 A3000000 		.4byte	0xa3
 574 03bd 0001     		.2byte	0x100
 575 03bf 03       		.uleb128 0x3
 576 03c0 CF020000 		.4byte	.LASF68
 577 03c4 0905     		.2byte	0x509
 578 03c6 10       		.byte	0x10
 579 03c7 A3000000 		.4byte	0xa3
 580 03cb 0401     		.2byte	0x104
 581 03cd 03       		.uleb128 0x3
 582 03ce C5020000 		.4byte	.LASF69
 583 03d2 0A05     		.2byte	0x50a
 584 03d4 10       		.byte	0x10
 585 03d5 A3000000 		.4byte	0xa3
 586 03d9 0801     		.2byte	0x108
 587 03db 03       		.uleb128 0x3
 588 03dc 65010000 		.4byte	.LASF70
 589 03e0 0B05     		.2byte	0x50b
 590 03e2 10       		.byte	0x10
 591 03e3 A3000000 		.4byte	0xa3
 592 03e7 0C01     		.2byte	0x10c
 593 03e9 03       		.uleb128 0x3
 594 03ea 0A000000 		.4byte	.LASF71
 595 03ee 0C05     		.2byte	0x50c
 596 03f0 10       		.byte	0x10
 597 03f1 A3000000 		.4byte	0xa3
 598 03f5 1001     		.2byte	0x110
 599 03f7 03       		.uleb128 0x3
 600 03f8 1D000000 		.4byte	.LASF72
 601 03fc 0D05     		.2byte	0x50d
 602 03fe 10       		.byte	0x10
 603 03ff A3000000 		.4byte	0xa3
 604 0403 1401     		.2byte	0x114
 605 0405 03       		.uleb128 0x3
 606 0406 89030000 		.4byte	.LASF73
 607 040a 0E05     		.2byte	0x50e
 608 040c 10       		.byte	0x10
 609 040d A3000000 		.4byte	0xa3
 610 0411 1801     		.2byte	0x118
 611 0413 03       		.uleb128 0x3
 612 0414 7F030000 		.4byte	.LASF74
 613 0418 0F05     		.2byte	0x50f
 614 041a 10       		.byte	0x10
 615 041b A3000000 		.4byte	0xa3
 616 041f 1C01     		.2byte	0x11c
 617 0421 03       		.uleb128 0x3
 618 0422 52010000 		.4byte	.LASF75
 619 0426 1005     		.2byte	0x510
 620 0428 0F       		.byte	0xf
 621 0429 AF000000 		.4byte	0xaf
 622 042d 2001     		.2byte	0x120
 623 042f 00       		.byte	0
 624 0430 12       		.uleb128 0x12
 625 0431 2C010000 		.4byte	.LASF76
 626 0435 04       		.byte	0x4
 627 0436 1205     		.2byte	0x512
ARM GAS  C:\Users\DEVELO~1\AppData\Local\Temp\cct3Cfi7.s 			page 12


 628 0438 03       		.byte	0x3
 629 0439 CF000000 		.4byte	0xcf
 630 043d 02       		.uleb128 0x2
 631 043e 01       		.byte	0x1
 632 043f 02       		.byte	0x2
 633 0440 BF020000 		.4byte	.LASF77
 634 0444 0B       		.uleb128 0xb
 635 0445 04       		.byte	0x4
 636 0446 5B       		.byte	0x5b
 637 0447 05       		.byte	0x5
 638 0448 64040000 		.4byte	0x464
 639 044c 07       		.uleb128 0x7
 640 044d 73657400 		.ascii	"set\000"
 641 0451 5C       		.byte	0x5c
 642 0452 8B000000 		.4byte	0x8b
 643 0456 00       		.byte	0
 644 0457 04       		.uleb128 0x4
 645 0458 4C010000 		.4byte	.LASF78
 646 045c 5D       		.byte	0x5d
 647 045d 19       		.byte	0x19
 648 045e 8B000000 		.4byte	0x8b
 649 0462 02       		.byte	0x2
 650 0463 00       		.byte	0
 651 0464 13       		.uleb128 0x13
 652 0465 04       		.byte	0x4
 653 0466 05       		.byte	0x5
 654 0467 59       		.byte	0x59
 655 0468 0C       		.byte	0xc
 656 0469 80040000 		.4byte	0x480
 657 046d 0C       		.uleb128 0xc
 658 046e 5700     		.ascii	"W\000"
 659 0470 5A       		.byte	0x5a
 660 0471 19       		.byte	0x19
 661 0472 97000000 		.4byte	0x97
 662 0476 0C       		.uleb128 0xc
 663 0477 4800     		.ascii	"H\000"
 664 0479 5E       		.byte	0x5e
 665 047a 07       		.byte	0x7
 666 047b 44040000 		.4byte	0x444
 667 047f 00       		.byte	0
 668 0480 08       		.uleb128 0x8
 669 0481 64040000 		.4byte	0x464
 670 0485 0B       		.uleb128 0xb
 671 0486 28       		.byte	0x28
 672 0487 51       		.byte	0x51
 673 0488 09       		.byte	0x9
 674 0489 04050000 		.4byte	0x504
 675 048d 04       		.uleb128 0x4
 676 048e 3D010000 		.4byte	.LASF79
 677 0492 53       		.byte	0x53
 678 0493 19       		.byte	0x19
 679 0494 A3000000 		.4byte	0xa3
 680 0498 00       		.byte	0
 681 0499 04       		.uleb128 0x4
 682 049a EE000000 		.4byte	.LASF80
 683 049e 54       		.byte	0x54
 684 049f 19       		.byte	0x19
ARM GAS  C:\Users\DEVELO~1\AppData\Local\Temp\cct3Cfi7.s 			page 13


 685 04a0 A3000000 		.4byte	0xa3
 686 04a4 04       		.byte	0x4
 687 04a5 04       		.uleb128 0x4
 688 04a6 F6020000 		.4byte	.LASF81
 689 04aa 55       		.byte	0x55
 690 04ab 19       		.byte	0x19
 691 04ac A3000000 		.4byte	0xa3
 692 04b0 08       		.byte	0x8
 693 04b1 04       		.uleb128 0x4
 694 04b2 14010000 		.4byte	.LASF82
 695 04b6 56       		.byte	0x56
 696 04b7 19       		.byte	0x19
 697 04b8 A3000000 		.4byte	0xa3
 698 04bc 0C       		.byte	0xc
 699 04bd 07       		.uleb128 0x7
 700 04be 49445200 		.ascii	"IDR\000"
 701 04c2 57       		.byte	0x57
 702 04c3 A3000000 		.4byte	0xa3
 703 04c7 10       		.byte	0x10
 704 04c8 07       		.uleb128 0x7
 705 04c9 4F445200 		.ascii	"ODR\000"
 706 04cd 58       		.byte	0x58
 707 04ce A3000000 		.4byte	0xa3
 708 04d2 14       		.byte	0x14
 709 04d3 04       		.uleb128 0x4
 710 04d4 38010000 		.4byte	.LASF83
 711 04d8 5F       		.byte	0x5f
 712 04d9 05       		.byte	0x5
 713 04da 80040000 		.4byte	0x480
 714 04de 18       		.byte	0x18
 715 04df 04       		.uleb128 0x4
 716 04e0 2D030000 		.4byte	.LASF84
 717 04e4 60       		.byte	0x60
 718 04e5 19       		.byte	0x19
 719 04e6 A3000000 		.4byte	0xa3
 720 04ea 1C       		.byte	0x1c
 721 04eb 04       		.uleb128 0x4
 722 04ec 95020000 		.4byte	.LASF85
 723 04f0 61       		.byte	0x61
 724 04f1 19       		.byte	0x19
 725 04f2 A3000000 		.4byte	0xa3
 726 04f6 20       		.byte	0x20
 727 04f7 04       		.uleb128 0x4
 728 04f8 88020000 		.4byte	.LASF86
 729 04fc 62       		.byte	0x62
 730 04fd 19       		.byte	0x19
 731 04fe A3000000 		.4byte	0xa3
 732 0502 24       		.byte	0x24
 733 0503 00       		.byte	0
 734 0504 05       		.uleb128 0x5
 735 0505 56000000 		.4byte	.LASF87
 736 0509 05       		.byte	0x5
 737 050a 63       		.byte	0x63
 738 050b 03       		.byte	0x3
 739 050c 85040000 		.4byte	0x485
 740 0510 0D       		.uleb128 0xd
 741 0511 6F000000 		.4byte	.LASF88
ARM GAS  C:\Users\DEVELO~1\AppData\Local\Temp\cct3Cfi7.s 			page 14


 742 0515 06       		.byte	0x6
 743 0516 4E01     		.2byte	0x14e
 744 0518 0D       		.uleb128 0xd
 745 0519 0C010000 		.4byte	.LASF89
 746 051d 07       		.byte	0x7
 747 051e 0101     		.2byte	0x101
 748 0520 14       		.uleb128 0x14
 749 0521 B2020000 		.4byte	.LASF93
 750 0525 01       		.byte	0x1
 751 0526 05       		.byte	0x5
 752 0527 05       		.byte	0x5
 753 0528 26000000 		.4byte	0x26
 754 052c 00000000 		.4byte	.LFB432
 755 0530 64000000 		.4byte	.LFE432-.LFB432
 756 0534 01       		.uleb128 0x1
 757 0535 9C       		.byte	0x9c
 758 0536 15       		.uleb128 0x15
 759 0537 0C000000 		.4byte	.LLRL0
 760 053b 4D050000 		.4byte	0x54d
 761 053f 16       		.uleb128 0x16
 762 0540 6900     		.ascii	"i\000"
 763 0542 01       		.byte	0x1
 764 0543 12       		.byte	0x12
 765 0544 1C       		.byte	0x1c
 766 0545 A3000000 		.4byte	0xa3
 767 0549 02       		.uleb128 0x2
 768 054a 91       		.byte	0x91
 769 054b 74       		.sleb128 -12
 770 054c 00       		.byte	0
 771 054d 0E       		.uleb128 0xe
 772 054e 0A000000 		.4byte	.LVL0
 773 0552 18050000 		.4byte	0x518
 774 0556 0E       		.uleb128 0xe
 775 0557 0E000000 		.4byte	.LVL1
 776 055b 10050000 		.4byte	0x510
 777 055f 00       		.byte	0
 778 0560 00       		.byte	0
 779              		.section	.debug_abbrev,"",%progbits
 780              	.Ldebug_abbrev0:
 781 0000 01       		.uleb128 0x1
 782 0001 0D       		.uleb128 0xd
 783 0002 00       		.byte	0
 784 0003 03       		.uleb128 0x3
 785 0004 0E       		.uleb128 0xe
 786 0005 3A       		.uleb128 0x3a
 787 0006 21       		.uleb128 0x21
 788 0007 04       		.sleb128 4
 789 0008 3B       		.uleb128 0x3b
 790 0009 05       		.uleb128 0x5
 791 000a 39       		.uleb128 0x39
 792 000b 0B       		.uleb128 0xb
 793 000c 49       		.uleb128 0x49
 794 000d 13       		.uleb128 0x13
 795 000e 38       		.uleb128 0x38
 796 000f 0B       		.uleb128 0xb
 797 0010 00       		.byte	0
 798 0011 00       		.byte	0
ARM GAS  C:\Users\DEVELO~1\AppData\Local\Temp\cct3Cfi7.s 			page 15


 799 0012 02       		.uleb128 0x2
 800 0013 24       		.uleb128 0x24
 801 0014 00       		.byte	0
 802 0015 0B       		.uleb128 0xb
 803 0016 0B       		.uleb128 0xb
 804 0017 3E       		.uleb128 0x3e
 805 0018 0B       		.uleb128 0xb
 806 0019 03       		.uleb128 0x3
 807 001a 0E       		.uleb128 0xe
 808 001b 00       		.byte	0
 809 001c 00       		.byte	0
 810 001d 03       		.uleb128 0x3
 811 001e 0D       		.uleb128 0xd
 812 001f 00       		.byte	0
 813 0020 03       		.uleb128 0x3
 814 0021 0E       		.uleb128 0xe
 815 0022 3A       		.uleb128 0x3a
 816 0023 21       		.uleb128 0x21
 817 0024 04       		.sleb128 4
 818 0025 3B       		.uleb128 0x3b
 819 0026 05       		.uleb128 0x5
 820 0027 39       		.uleb128 0x39
 821 0028 0B       		.uleb128 0xb
 822 0029 49       		.uleb128 0x49
 823 002a 13       		.uleb128 0x13
 824 002b 38       		.uleb128 0x38
 825 002c 05       		.uleb128 0x5
 826 002d 00       		.byte	0
 827 002e 00       		.byte	0
 828 002f 04       		.uleb128 0x4
 829 0030 0D       		.uleb128 0xd
 830 0031 00       		.byte	0
 831 0032 03       		.uleb128 0x3
 832 0033 0E       		.uleb128 0xe
 833 0034 3A       		.uleb128 0x3a
 834 0035 21       		.uleb128 0x21
 835 0036 05       		.sleb128 5
 836 0037 3B       		.uleb128 0x3b
 837 0038 0B       		.uleb128 0xb
 838 0039 39       		.uleb128 0x39
 839 003a 0B       		.uleb128 0xb
 840 003b 49       		.uleb128 0x49
 841 003c 13       		.uleb128 0x13
 842 003d 38       		.uleb128 0x38
 843 003e 0B       		.uleb128 0xb
 844 003f 00       		.byte	0
 845 0040 00       		.byte	0
 846 0041 05       		.uleb128 0x5
 847 0042 16       		.uleb128 0x16
 848 0043 00       		.byte	0
 849 0044 03       		.uleb128 0x3
 850 0045 0E       		.uleb128 0xe
 851 0046 3A       		.uleb128 0x3a
 852 0047 0B       		.uleb128 0xb
 853 0048 3B       		.uleb128 0x3b
 854 0049 0B       		.uleb128 0xb
 855 004a 39       		.uleb128 0x39
ARM GAS  C:\Users\DEVELO~1\AppData\Local\Temp\cct3Cfi7.s 			page 16


 856 004b 0B       		.uleb128 0xb
 857 004c 49       		.uleb128 0x49
 858 004d 13       		.uleb128 0x13
 859 004e 00       		.byte	0
 860 004f 00       		.byte	0
 861 0050 06       		.uleb128 0x6
 862 0051 0D       		.uleb128 0xd
 863 0052 00       		.byte	0
 864 0053 03       		.uleb128 0x3
 865 0054 08       		.uleb128 0x8
 866 0055 3A       		.uleb128 0x3a
 867 0056 21       		.uleb128 0x21
 868 0057 04       		.sleb128 4
 869 0058 3B       		.uleb128 0x3b
 870 0059 05       		.uleb128 0x5
 871 005a 39       		.uleb128 0x39
 872 005b 0B       		.uleb128 0xb
 873 005c 49       		.uleb128 0x49
 874 005d 13       		.uleb128 0x13
 875 005e 38       		.uleb128 0x38
 876 005f 0B       		.uleb128 0xb
 877 0060 00       		.byte	0
 878 0061 00       		.byte	0
 879 0062 07       		.uleb128 0x7
 880 0063 0D       		.uleb128 0xd
 881 0064 00       		.byte	0
 882 0065 03       		.uleb128 0x3
 883 0066 08       		.uleb128 0x8
 884 0067 3A       		.uleb128 0x3a
 885 0068 21       		.uleb128 0x21
 886 0069 05       		.sleb128 5
 887 006a 3B       		.uleb128 0x3b
 888 006b 0B       		.uleb128 0xb
 889 006c 39       		.uleb128 0x39
 890 006d 21       		.uleb128 0x21
 891 006e 19       		.sleb128 25
 892 006f 49       		.uleb128 0x49
 893 0070 13       		.uleb128 0x13
 894 0071 38       		.uleb128 0x38
 895 0072 0B       		.uleb128 0xb
 896 0073 00       		.byte	0
 897 0074 00       		.byte	0
 898 0075 08       		.uleb128 0x8
 899 0076 35       		.uleb128 0x35
 900 0077 00       		.byte	0
 901 0078 49       		.uleb128 0x49
 902 0079 13       		.uleb128 0x13
 903 007a 00       		.byte	0
 904 007b 00       		.byte	0
 905 007c 09       		.uleb128 0x9
 906 007d 01       		.uleb128 0x1
 907 007e 01       		.byte	0x1
 908 007f 49       		.uleb128 0x49
 909 0080 13       		.uleb128 0x13
 910 0081 01       		.uleb128 0x1
 911 0082 13       		.uleb128 0x13
 912 0083 00       		.byte	0
ARM GAS  C:\Users\DEVELO~1\AppData\Local\Temp\cct3Cfi7.s 			page 17


 913 0084 00       		.byte	0
 914 0085 0A       		.uleb128 0xa
 915 0086 21       		.uleb128 0x21
 916 0087 00       		.byte	0
 917 0088 49       		.uleb128 0x49
 918 0089 13       		.uleb128 0x13
 919 008a 2F       		.uleb128 0x2f
 920 008b 0B       		.uleb128 0xb
 921 008c 00       		.byte	0
 922 008d 00       		.byte	0
 923 008e 0B       		.uleb128 0xb
 924 008f 13       		.uleb128 0x13
 925 0090 01       		.byte	0x1
 926 0091 0B       		.uleb128 0xb
 927 0092 0B       		.uleb128 0xb
 928 0093 3A       		.uleb128 0x3a
 929 0094 21       		.uleb128 0x21
 930 0095 05       		.sleb128 5
 931 0096 3B       		.uleb128 0x3b
 932 0097 0B       		.uleb128 0xb
 933 0098 39       		.uleb128 0x39
 934 0099 0B       		.uleb128 0xb
 935 009a 01       		.uleb128 0x1
 936 009b 13       		.uleb128 0x13
 937 009c 00       		.byte	0
 938 009d 00       		.byte	0
 939 009e 0C       		.uleb128 0xc
 940 009f 0D       		.uleb128 0xd
 941 00a0 00       		.byte	0
 942 00a1 03       		.uleb128 0x3
 943 00a2 08       		.uleb128 0x8
 944 00a3 3A       		.uleb128 0x3a
 945 00a4 21       		.uleb128 0x21
 946 00a5 05       		.sleb128 5
 947 00a6 3B       		.uleb128 0x3b
 948 00a7 0B       		.uleb128 0xb
 949 00a8 39       		.uleb128 0x39
 950 00a9 0B       		.uleb128 0xb
 951 00aa 49       		.uleb128 0x49
 952 00ab 13       		.uleb128 0x13
 953 00ac 00       		.byte	0
 954 00ad 00       		.byte	0
 955 00ae 0D       		.uleb128 0xd
 956 00af 2E       		.uleb128 0x2e
 957 00b0 00       		.byte	0
 958 00b1 3F       		.uleb128 0x3f
 959 00b2 19       		.uleb128 0x19
 960 00b3 03       		.uleb128 0x3
 961 00b4 0E       		.uleb128 0xe
 962 00b5 3A       		.uleb128 0x3a
 963 00b6 0B       		.uleb128 0xb
 964 00b7 3B       		.uleb128 0x3b
 965 00b8 05       		.uleb128 0x5
 966 00b9 39       		.uleb128 0x39
 967 00ba 21       		.uleb128 0x21
 968 00bb 08       		.sleb128 8
 969 00bc 27       		.uleb128 0x27
ARM GAS  C:\Users\DEVELO~1\AppData\Local\Temp\cct3Cfi7.s 			page 18


 970 00bd 19       		.uleb128 0x19
 971 00be 3C       		.uleb128 0x3c
 972 00bf 19       		.uleb128 0x19
 973 00c0 00       		.byte	0
 974 00c1 00       		.byte	0
 975 00c2 0E       		.uleb128 0xe
 976 00c3 48       		.uleb128 0x48
 977 00c4 00       		.byte	0
 978 00c5 7D       		.uleb128 0x7d
 979 00c6 01       		.uleb128 0x1
 980 00c7 7F       		.uleb128 0x7f
 981 00c8 13       		.uleb128 0x13
 982 00c9 00       		.byte	0
 983 00ca 00       		.byte	0
 984 00cb 0F       		.uleb128 0xf
 985 00cc 11       		.uleb128 0x11
 986 00cd 01       		.byte	0x1
 987 00ce 25       		.uleb128 0x25
 988 00cf 0E       		.uleb128 0xe
 989 00d0 13       		.uleb128 0x13
 990 00d1 0B       		.uleb128 0xb
 991 00d2 03       		.uleb128 0x3
 992 00d3 0E       		.uleb128 0xe
 993 00d4 1B       		.uleb128 0x1b
 994 00d5 0E       		.uleb128 0xe
 995 00d6 55       		.uleb128 0x55
 996 00d7 17       		.uleb128 0x17
 997 00d8 11       		.uleb128 0x11
 998 00d9 01       		.uleb128 0x1
 999 00da 10       		.uleb128 0x10
 1000 00db 17       		.uleb128 0x17
 1001 00dc 00       		.byte	0
 1002 00dd 00       		.byte	0
 1003 00de 10       		.uleb128 0x10
 1004 00df 24       		.uleb128 0x24
 1005 00e0 00       		.byte	0
 1006 00e1 0B       		.uleb128 0xb
 1007 00e2 0B       		.uleb128 0xb
 1008 00e3 3E       		.uleb128 0x3e
 1009 00e4 0B       		.uleb128 0xb
 1010 00e5 03       		.uleb128 0x3
 1011 00e6 08       		.uleb128 0x8
 1012 00e7 00       		.byte	0
 1013 00e8 00       		.byte	0
 1014 00e9 11       		.uleb128 0x11
 1015 00ea 13       		.uleb128 0x13
 1016 00eb 01       		.byte	0x1
 1017 00ec 0B       		.uleb128 0xb
 1018 00ed 05       		.uleb128 0x5
 1019 00ee 3A       		.uleb128 0x3a
 1020 00ef 0B       		.uleb128 0xb
 1021 00f0 3B       		.uleb128 0x3b
 1022 00f1 05       		.uleb128 0x5
 1023 00f2 39       		.uleb128 0x39
 1024 00f3 0B       		.uleb128 0xb
 1025 00f4 01       		.uleb128 0x1
 1026 00f5 13       		.uleb128 0x13
ARM GAS  C:\Users\DEVELO~1\AppData\Local\Temp\cct3Cfi7.s 			page 19


 1027 00f6 00       		.byte	0
 1028 00f7 00       		.byte	0
 1029 00f8 12       		.uleb128 0x12
 1030 00f9 16       		.uleb128 0x16
 1031 00fa 00       		.byte	0
 1032 00fb 03       		.uleb128 0x3
 1033 00fc 0E       		.uleb128 0xe
 1034 00fd 3A       		.uleb128 0x3a
 1035 00fe 0B       		.uleb128 0xb
 1036 00ff 3B       		.uleb128 0x3b
 1037 0100 05       		.uleb128 0x5
 1038 0101 39       		.uleb128 0x39
 1039 0102 0B       		.uleb128 0xb
 1040 0103 49       		.uleb128 0x49
 1041 0104 13       		.uleb128 0x13
 1042 0105 00       		.byte	0
 1043 0106 00       		.byte	0
 1044 0107 13       		.uleb128 0x13
 1045 0108 17       		.uleb128 0x17
 1046 0109 01       		.byte	0x1
 1047 010a 0B       		.uleb128 0xb
 1048 010b 0B       		.uleb128 0xb
 1049 010c 3A       		.uleb128 0x3a
 1050 010d 0B       		.uleb128 0xb
 1051 010e 3B       		.uleb128 0x3b
 1052 010f 0B       		.uleb128 0xb
 1053 0110 39       		.uleb128 0x39
 1054 0111 0B       		.uleb128 0xb
 1055 0112 01       		.uleb128 0x1
 1056 0113 13       		.uleb128 0x13
 1057 0114 00       		.byte	0
 1058 0115 00       		.byte	0
 1059 0116 14       		.uleb128 0x14
 1060 0117 2E       		.uleb128 0x2e
 1061 0118 01       		.byte	0x1
 1062 0119 3F       		.uleb128 0x3f
 1063 011a 19       		.uleb128 0x19
 1064 011b 03       		.uleb128 0x3
 1065 011c 0E       		.uleb128 0xe
 1066 011d 3A       		.uleb128 0x3a
 1067 011e 0B       		.uleb128 0xb
 1068 011f 3B       		.uleb128 0x3b
 1069 0120 0B       		.uleb128 0xb
 1070 0121 39       		.uleb128 0x39
 1071 0122 0B       		.uleb128 0xb
 1072 0123 27       		.uleb128 0x27
 1073 0124 19       		.uleb128 0x19
 1074 0125 49       		.uleb128 0x49
 1075 0126 13       		.uleb128 0x13
 1076 0127 11       		.uleb128 0x11
 1077 0128 01       		.uleb128 0x1
 1078 0129 12       		.uleb128 0x12
 1079 012a 06       		.uleb128 0x6
 1080 012b 40       		.uleb128 0x40
 1081 012c 18       		.uleb128 0x18
 1082 012d 7A       		.uleb128 0x7a
 1083 012e 19       		.uleb128 0x19
ARM GAS  C:\Users\DEVELO~1\AppData\Local\Temp\cct3Cfi7.s 			page 20


 1084 012f 00       		.byte	0
 1085 0130 00       		.byte	0
 1086 0131 15       		.uleb128 0x15
 1087 0132 0B       		.uleb128 0xb
 1088 0133 01       		.byte	0x1
 1089 0134 55       		.uleb128 0x55
 1090 0135 17       		.uleb128 0x17
 1091 0136 01       		.uleb128 0x1
 1092 0137 13       		.uleb128 0x13
 1093 0138 00       		.byte	0
 1094 0139 00       		.byte	0
 1095 013a 16       		.uleb128 0x16
 1096 013b 34       		.uleb128 0x34
 1097 013c 00       		.byte	0
 1098 013d 03       		.uleb128 0x3
 1099 013e 08       		.uleb128 0x8
 1100 013f 3A       		.uleb128 0x3a
 1101 0140 0B       		.uleb128 0xb
 1102 0141 3B       		.uleb128 0x3b
 1103 0142 0B       		.uleb128 0xb
 1104 0143 39       		.uleb128 0x39
 1105 0144 0B       		.uleb128 0xb
 1106 0145 49       		.uleb128 0x49
 1107 0146 13       		.uleb128 0x13
 1108 0147 02       		.uleb128 0x2
 1109 0148 18       		.uleb128 0x18
 1110 0149 00       		.byte	0
 1111 014a 00       		.byte	0
 1112 014b 00       		.byte	0
 1113              		.section	.debug_aranges,"",%progbits
 1114 0000 1C000000 		.4byte	0x1c
 1115 0004 0200     		.2byte	0x2
 1116 0006 00000000 		.4byte	.Ldebug_info0
 1117 000a 04       		.byte	0x4
 1118 000b 00       		.byte	0
 1119 000c 0000     		.2byte	0
 1120 000e 0000     		.2byte	0
 1121 0010 00000000 		.4byte	.LFB432
 1122 0014 64000000 		.4byte	.LFE432-.LFB432
 1123 0018 00000000 		.4byte	0
 1124 001c 00000000 		.4byte	0
 1125              		.section	.debug_rnglists,"",%progbits
 1126              	.Ldebug_ranges0:
 1127 0000 1E000000 		.4byte	.Ldebug_ranges3-.Ldebug_ranges2
 1128              	.Ldebug_ranges2:
 1129 0004 0500     		.2byte	0x5
 1130 0006 04       		.byte	0x4
 1131 0007 00       		.byte	0
 1132 0008 00000000 		.4byte	0
 1133              	.LLRL0:
 1134 000c 05       		.byte	0x5
 1135 000d 14000000 		.4byte	.LBB2
 1136 0011 04       		.byte	0x4
 1137 0012 00       		.uleb128 .LBB2-.LBB2
 1138 0013 02       		.uleb128 .LBE2-.LBB2
 1139 0014 04       		.byte	0x4
 1140 0015 06       		.uleb128 .LBB3-.LBB2
ARM GAS  C:\Users\DEVELO~1\AppData\Local\Temp\cct3Cfi7.s 			page 21


 1141 0016 08       		.uleb128 .LBE3-.LBB2
 1142 0017 04       		.byte	0x4
 1143 0018 2C       		.uleb128 .LBB4-.LBB2
 1144 0019 50       		.uleb128 .LBE4-.LBB2
 1145 001a 00       		.byte	0
 1146              	.LLRL1:
 1147 001b 07       		.byte	0x7
 1148 001c 00000000 		.4byte	.LFB432
 1149 0020 64       		.uleb128 .LFE432-.LFB432
 1150 0021 00       		.byte	0
 1151              	.Ldebug_ranges3:
 1152              		.section	.debug_line,"",%progbits
 1153              	.Ldebug_line0:
 1154 0000 0F020000 		.section	.debug_str,"MS",%progbits,1
 1154      03009701 
 1154      00000201 
 1154      FB0E0D00 
 1154      01010101 
 1155              	.LASF27:
 1156 0000 504C4C31 		.ascii	"PLL1FRACR\000"
 1156      46524143 
 1156      5200
 1157              	.LASF71:
 1158 000a 41504231 		.ascii	"APB1LLPENR\000"
 1158      4C4C5045 
 1158      4E5200
 1159              	.LASF64:
 1160 0015 41504234 		.ascii	"APB4ENR\000"
 1160      454E5200 
 1161              	.LASF72:
 1162 001d 41504231 		.ascii	"APB1HLPENR\000"
 1162      484C5045 
 1162      4E5200
 1163              	.LASF35:
 1164 0028 44324343 		.ascii	"D2CCIP2R\000"
 1164      49503252 
 1164      00
 1165              	.LASF58:
 1166 0031 41484232 		.ascii	"AHB2ENR\000"
 1166      454E5200 
 1167              	.LASF50:
 1168 0039 41504231 		.ascii	"APB1HRSTR\000"
 1168      48525354 
 1168      5200
 1169              	.LASF5:
 1170 0043 73686F72 		.ascii	"short int\000"
 1170      7420696E 
 1170      7400
 1171              	.LASF52:
 1172 004d 41504234 		.ascii	"APB4RSTR\000"
 1172      52535452 
 1172      00
 1173              	.LASF87:
 1174 0056 73746D33 		.ascii	"stm32_gpio_t\000"
 1174      325F6770 
 1174      696F5F74 
 1174      00
ARM GAS  C:\Users\DEVELO~1\AppData\Local\Temp\cct3Cfi7.s 			page 22


 1175              	.LASF42:
 1176 0063 42444352 		.ascii	"BDCR\000"
 1176      00
 1177              	.LASF22:
 1178 0068 44334346 		.ascii	"D3CFGR\000"
 1178      475200
 1179              	.LASF88:
 1180 006f 63685379 		.ascii	"chSysInit\000"
 1180      73496E69 
 1180      7400
 1181              	.LASF15:
 1182 0079 48534943 		.ascii	"HSICFGR\000"
 1182      46475200 
 1183              	.LASF36:
 1184 0081 44334343 		.ascii	"D3CCIPR\000"
 1184      49505200 
 1185              	.LASF9:
 1186 0089 5F5F7569 		.ascii	"__uint32_t\000"
 1186      6E743332 
 1186      5F7400
 1187              	.LASF26:
 1188 0094 504C4C31 		.ascii	"PLL1DIVR\000"
 1188      44495652 
 1188      00
 1189              	.LASF40:
 1190 009d 43494352 		.ascii	"CICR\000"
 1190      00
 1191              	.LASF8:
 1192 00a2 5F5F7569 		.ascii	"__uint16_t\000"
 1192      6E743136 
 1192      5F7400
 1193              	.LASF66:
 1194 00ad 41484233 		.ascii	"AHB3LPENR\000"
 1194      4C50454E 
 1194      5200
 1195              	.LASF18:
 1196 00b7 43464752 		.ascii	"CFGR\000"
 1196      00
 1197              	.LASF32:
 1198 00bc 52455345 		.ascii	"RESERVED3\000"
 1198      52564544 
 1198      3300
 1199              	.LASF41:
 1200 00c6 52455345 		.ascii	"RESERVED5\000"
 1200      52564544 
 1200      3500
 1201              	.LASF43:
 1202 00d0 52455345 		.ascii	"RESERVED6\000"
 1202      52564544 
 1202      3600
 1203              	.LASF53:
 1204 00da 52455345 		.ascii	"RESERVED8\000"
 1204      52564544 
 1204      3800
 1205              	.LASF67:
 1206 00e4 41484231 		.ascii	"AHB1LPENR\000"
 1206      4C50454E 
ARM GAS  C:\Users\DEVELO~1\AppData\Local\Temp\cct3Cfi7.s 			page 23


 1206      5200
 1207              	.LASF80:
 1208 00ee 4F545950 		.ascii	"OTYPER\000"
 1208      455200
 1209              	.LASF56:
 1210 00f5 41484233 		.ascii	"AHB3ENR\000"
 1210      454E5200 
 1211              	.LASF24:
 1212 00fd 504C4C43 		.ascii	"PLLCKSELR\000"
 1212      4B53454C 
 1212      5200
 1213              	.LASF38:
 1214 0107 43494552 		.ascii	"CIER\000"
 1214      00
 1215              	.LASF89:
 1216 010c 68616C49 		.ascii	"halInit\000"
 1216      6E697400 
 1217              	.LASF82:
 1218 0114 50555044 		.ascii	"PUPDR\000"
 1218      5200
 1219              	.LASF7:
 1220 011a 6C6F6E67 		.ascii	"long int\000"
 1220      20696E74 
 1220      00
 1221              	.LASF28:
 1222 0123 504C4C32 		.ascii	"PLL2DIVR\000"
 1222      44495652 
 1222      00
 1223              	.LASF76:
 1224 012c 5243435F 		.ascii	"RCC_TypeDef\000"
 1224      54797065 
 1224      44656600 
 1225              	.LASF83:
 1226 0138 42535252 		.ascii	"BSRR\000"
 1226      00
 1227              	.LASF79:
 1228 013d 4D4F4445 		.ascii	"MODER\000"
 1228      5200
 1229              	.LASF51:
 1230 0143 41504232 		.ascii	"APB2RSTR\000"
 1230      52535452 
 1230      00
 1231              	.LASF78:
 1232 014c 636C6561 		.ascii	"clear\000"
 1232      7200
 1233              	.LASF75:
 1234 0152 52455345 		.ascii	"RESERVED13\000"
 1234      52564544 
 1234      313300
 1235              	.LASF17:
 1236 015d 43534943 		.ascii	"CSICFGR\000"
 1236      46475200 
 1237              	.LASF70:
 1238 0165 41504233 		.ascii	"APB3LPENR\000"
 1238      4C50454E 
 1238      5200
 1239              	.LASF2:
ARM GAS  C:\Users\DEVELO~1\AppData\Local\Temp\cct3Cfi7.s 			page 24


 1240 016f 6C6F6E67 		.ascii	"long double\000"
 1240      20646F75 
 1240      626C6500 
 1241              	.LASF54:
 1242 017b 4433414D 		.ascii	"D3AMR\000"
 1242      5200
 1243              	.LASF62:
 1244 0181 41504231 		.ascii	"APB1HENR\000"
 1244      48454E52 
 1244      00
 1245              	.LASF4:
 1246 018a 756E7369 		.ascii	"unsigned char\000"
 1246      676E6564 
 1246      20636861 
 1246      7200
 1247              	.LASF29:
 1248 0198 504C4C32 		.ascii	"PLL2FRACR\000"
 1248      46524143 
 1248      5200
 1249              	.LASF55:
 1250 01a2 52455345 		.ascii	"RESERVED11\000"
 1250      52564544 
 1250      313100
 1251              	.LASF65:
 1252 01ad 52455345 		.ascii	"RESERVED12\000"
 1252      52564544 
 1252      313200
 1253              	.LASF63:
 1254 01b8 41504232 		.ascii	"APB2ENR\000"
 1254      454E5200 
 1255              	.LASF61:
 1256 01c0 41504231 		.ascii	"APB1LENR\000"
 1256      4C454E52 
 1256      00
 1257              	.LASF16:
 1258 01c9 43525243 		.ascii	"CRRCR\000"
 1258      5200
 1259              	.LASF3:
 1260 01cf 7369676E 		.ascii	"signed char\000"
 1260      65642063 
 1260      68617200 
 1261              	.LASF11:
 1262 01db 6C6F6E67 		.ascii	"long long unsigned int\000"
 1262      206C6F6E 
 1262      6720756E 
 1262      7369676E 
 1262      65642069 
 1263              	.LASF47:
 1264 01f2 41484234 		.ascii	"AHB4RSTR\000"
 1264      52535452 
 1264      00
 1265              	.LASF13:
 1266 01fb 75696E74 		.ascii	"uint32_t\000"
 1266      33325F74 
 1266      00
 1267              	.LASF0:
 1268 0204 756E7369 		.ascii	"unsigned int\000"
ARM GAS  C:\Users\DEVELO~1\AppData\Local\Temp\cct3Cfi7.s 			page 25


 1268      676E6564 
 1268      20696E74 
 1268      00
 1269              	.LASF46:
 1270 0211 41484232 		.ascii	"AHB2RSTR\000"
 1270      52535452 
 1270      00
 1271              	.LASF12:
 1272 021a 75696E74 		.ascii	"uint16_t\000"
 1272      31365F74 
 1272      00
 1273              	.LASF92:
 1274 0223 433A5C50 		.ascii	"C:\\PROJET\\ChibiOS project\\ChibiOS_21.11.4\\demos"
 1274      524F4A45 
 1274      545C4368 
 1274      6962694F 
 1274      53207072 
 1275 0252 5C53544D 		.ascii	"\\STM32\\RT-STM32H743ZI_REV_XY-NUCLEO144\000"
 1275      33325C52 
 1275      542D5354 
 1275      4D333248 
 1275      3734335A 
 1276              	.LASF59:
 1277 0279 41484234 		.ascii	"AHB4ENR\000"
 1277      454E5200 
 1278              	.LASF20:
 1279 0281 44314346 		.ascii	"D1CFGR\000"
 1279      475200
 1280              	.LASF86:
 1281 0288 41465248 		.ascii	"AFRH\000"
 1281      00
 1282              	.LASF25:
 1283 028d 504C4C43 		.ascii	"PLLCFGR\000"
 1283      46475200 
 1284              	.LASF85:
 1285 0295 4146524C 		.ascii	"AFRL\000"
 1285      00
 1286              	.LASF6:
 1287 029a 73686F72 		.ascii	"short unsigned int\000"
 1287      7420756E 
 1287      7369676E 
 1287      65642069 
 1287      6E7400
 1288              	.LASF14:
 1289 02ad 63686172 		.ascii	"char\000"
 1289      00
 1290              	.LASF93:
 1291 02b2 6D61696E 		.ascii	"main\000"
 1291      00
 1292              	.LASF33:
 1293 02b7 44314343 		.ascii	"D1CCIPR\000"
 1293      49505200 
 1294              	.LASF77:
 1295 02bf 5F426F6F 		.ascii	"_Bool\000"
 1295      6C00
 1296              	.LASF69:
 1297 02c5 41484234 		.ascii	"AHB4LPENR\000"
ARM GAS  C:\Users\DEVELO~1\AppData\Local\Temp\cct3Cfi7.s 			page 26


 1297      4C50454E 
 1297      5200
 1298              	.LASF68:
 1299 02cf 41484232 		.ascii	"AHB2LPENR\000"
 1299      4C50454E 
 1299      5200
 1300              	.LASF30:
 1301 02d9 504C4C33 		.ascii	"PLL3DIVR\000"
 1301      44495652 
 1301      00
 1302              	.LASF19:
 1303 02e2 52455345 		.ascii	"RESERVED1\000"
 1303      52564544 
 1303      3100
 1304              	.LASF23:
 1305 02ec 52455345 		.ascii	"RESERVED2\000"
 1305      52564544 
 1305      3200
 1306              	.LASF81:
 1307 02f6 4F535045 		.ascii	"OSPEEDR\000"
 1307      45445200 
 1308              	.LASF37:
 1309 02fe 52455345 		.ascii	"RESERVED4\000"
 1309      52564544 
 1309      3400
 1310              	.LASF48:
 1311 0308 41504233 		.ascii	"APB3RSTR\000"
 1311      52535452 
 1311      00
 1312              	.LASF10:
 1313 0311 6C6F6E67 		.ascii	"long unsigned int\000"
 1313      20756E73 
 1313      69676E65 
 1313      6420696E 
 1313      7400
 1314              	.LASF49:
 1315 0323 41504231 		.ascii	"APB1LRSTR\000"
 1315      4C525354 
 1315      5200
 1316              	.LASF84:
 1317 032d 4C4F434B 		.ascii	"LOCKR\000"
 1317      5200
 1318              	.LASF60:
 1319 0333 41504233 		.ascii	"APB3ENR\000"
 1319      454E5200 
 1320              	.LASF39:
 1321 033b 43494652 		.ascii	"CIFR\000"
 1321      00
 1322              	.LASF34:
 1323 0340 44324343 		.ascii	"D2CCIP1R\000"
 1323      49503152 
 1323      00
 1324              	.LASF57:
 1325 0349 41484231 		.ascii	"AHB1ENR\000"
 1325      454E5200 
 1326              	.LASF1:
 1327 0351 6C6F6E67 		.ascii	"long long int\000"
ARM GAS  C:\Users\DEVELO~1\AppData\Local\Temp\cct3Cfi7.s 			page 27


 1327      206C6F6E 
 1327      6720696E 
 1327      7400
 1328              	.LASF45:
 1329 035f 41484231 		.ascii	"AHB1RSTR\000"
 1329      52535452 
 1329      00
 1330              	.LASF44:
 1331 0368 41484233 		.ascii	"AHB3RSTR\000"
 1331      52535452 
 1331      00
 1332              	.LASF91:
 1333 0371 6D61696E 		.ascii	"main.c\000"
 1333      2E6300
 1334              	.LASF21:
 1335 0378 44324346 		.ascii	"D2CFGR\000"
 1335      475200
 1336              	.LASF74:
 1337 037f 41504234 		.ascii	"APB4LPENR\000"
 1337      4C50454E 
 1337      5200
 1338              	.LASF73:
 1339 0389 41504232 		.ascii	"APB2LPENR\000"
 1339      4C50454E 
 1339      5200
 1340              	.LASF90:
 1341 0393 474E5520 		.ascii	"GNU C17 11.3.1 20220712 -mcpu=cortex-m7 -mthumb -mf"
 1341      43313720 
 1341      31312E33 
 1341      2E312032 
 1341      30323230 
 1342 03c6 6C6F6174 		.ascii	"loat-abi=soft -march=armv7e-m -ggdb -O2 -fomit-fram"
 1342      2D616269 
 1342      3D736F66 
 1342      74202D6D 
 1342      61726368 
 1343 03f9 652D706F 		.ascii	"e-pointer -falign-functions=16 -ffunction-sections "
 1343      696E7465 
 1343      72202D66 
 1343      616C6967 
 1343      6E2D6675 
 1344 042c 2D666461 		.ascii	"-fdata-sections -fno-common\000"
 1344      74612D73 
 1344      65637469 
 1344      6F6E7320 
 1344      2D666E6F 
 1345              	.LASF31:
 1346 0448 504C4C33 		.ascii	"PLL3FRACR\000"
 1346      46524143 
 1346      5200
 1347              		.ident	"GCC: (Arm GNU Toolchain 11.3.Rel1) 11.3.1 20220712"
ARM GAS  C:\Users\DEVELO~1\AppData\Local\Temp\cct3Cfi7.s 			page 28


DEFINED SYMBOLS
                            *ABS*:00000000 main.c
C:\Users\DEVELO~1\AppData\Local\Temp\cct3Cfi7.s:18     .text.startup.main:00000000 $t
C:\Users\DEVELO~1\AppData\Local\Temp\cct3Cfi7.s:25     .text.startup.main:00000000 main
C:\Users\DEVELO~1\AppData\Local\Temp\cct3Cfi7.s:109    .text.startup.main:00000058 $d

UNDEFINED SYMBOLS
halInit
chSysInit
