ARM GAS  C:\Users\DEVELO~1\AppData\Local\Temp\ccR1ESDW.s 			page 1


   1              		.cpu cortex-m7
   2              		.arch armv7e-m
   3              		.fpu softvfp
   4              		.eabi_attribute 20, 1
   5              		.eabi_attribute 21, 1
   6              		.eabi_attribute 23, 3
   7              		.eabi_attribute 24, 1
   8              		.eabi_attribute 25, 1
   9              		.eabi_attribute 26, 1
  10              		.eabi_attribute 30, 2
  11              		.eabi_attribute 34, 1
  12              		.eabi_attribute 18, 4
  13              		.file	"mpu_config.c"
  14              		.text
  15              	.Ltext0:
  16              		.cfi_sections	.debug_frame
  17              		.section	.text.mpu_config_init_once,"ax",%progbits
  18              		.align	1
  19              		.p2align 4,,15
  20              		.global	mpu_config_init_once
  21              		.syntax unified
  22              		.thumb
  23              		.thumb_func
  24              		.type	mpu_config_init_once, %function
  25              	mpu_config_init_once:
  26              	.LFB432:
  27              		.file 1 "mpu/mpu_config.c"
  28              		.loc 1 16 33 view -0
  29              		.cfi_startproc
  30              		@ args = 0, pretend = 0, frame = 0
  31              		@ frame_needed = 0, uses_anonymous_args = 0
  32              		@ link register save eliminated.
  33              		.loc 1 18 3 view .LVU1
  34              		.loc 1 18 7 is_stmt 0 view .LVU2
  35 0000 184B     		ldr	r3, .L12
  36 0002 1878     		ldrb	r0, [r3]	@ zero_extendqisi2
  37              		.loc 1 18 6 view .LVU3
  38 0004 50BB     		cbnz	r0, .L8
  39              		.loc 1 21 3 is_stmt 1 view .LVU4
  40              		.loc 1 26 46 is_stmt 0 view .LVU5
  41 0006 1849     		ldr	r1, .L12+4
  42              		.loc 1 21 15 view .LVU6
  43 0008 0122     		movs	r2, #1
  44              		.loc 1 16 33 view .LVU7
  45 000a 30B4     		push	{r4, r5}
  46              		.cfi_def_cfa_offset 8
  47              		.cfi_offset 4, -8
  48              		.cfi_offset 5, -4
  49              		.loc 1 26 46 view .LVU8
  50 000c 174C     		ldr	r4, .L12+8
  51              		.loc 1 21 15 view .LVU9
  52 000e 1A70     		strb	r2, [r3]
  53              		.loc 1 25 3 is_stmt 1 view .LVU10
  54              	.LVL0:
  55              		.loc 1 26 3 view .LVU11
  56              		.loc 1 26 46 is_stmt 0 view .LVU12
  57 0010 091B     		subs	r1, r1, r4
ARM GAS  C:\Users\DEVELO~1\AppData\Local\Temp\ccR1ESDW.s 			page 2


  58              	.LVL1:
  59              		.loc 1 29 3 is_stmt 1 view .LVU13
  60              		.loc 1 29 6 is_stmt 0 view .LVU14
  61 0012 1F29     		cmp	r1, #31
  62 0014 20D9     		bls	.L2
  63              	.LVL2:
  64              		.loc 1 37 22 is_stmt 1 view .LVU15
  65 0016 2029     		cmp	r1, #32
  66 0018 21D0     		beq	.L5
  67              		.loc 1 35 12 is_stmt 0 view .LVU16
  68 001a 0822     		movs	r2, #8
  69              		.loc 1 34 10 view .LVU17
  70 001c 2023     		movs	r3, #32
  71              	.LVL3:
  72              	.L4:
  73              		.loc 1 38 5 is_stmt 1 view .LVU18
  74              		.loc 1 38 17 is_stmt 0 view .LVU19
  75 001e 5B00     		lsls	r3, r3, #1
  76              	.LVL4:
  77              		.loc 1 39 5 is_stmt 1 view .LVU20
  78              		.loc 1 39 14 is_stmt 0 view .LVU21
  79 0020 0132     		adds	r2, r2, #1
  80              	.LVL5:
  81              		.loc 1 37 22 is_stmt 1 view .LVU22
  82 0022 9942     		cmp	r1, r3
  83 0024 FBD8     		bhi	.L4
  84              		.loc 1 50 3 is_stmt 0 view .LVU23
  85 0026 42F40022 		orr	r2, r2, #524288
  86              	.LVL6:
  87              	.L3:
  88              		.loc 1 43 3 is_stmt 1 view .LVU24
  89 002a 114B     		ldr	r3, .L12+12
  90              		.loc 1 50 3 is_stmt 0 view .LVU25
  91 002c 0320     		movs	r0, #3
  92              		.loc 1 43 3 view .LVU26
  93 002e 0025     		movs	r5, #0
  94 0030 596A     		ldr	r1, [r3, #36]
  95              	.LVL7:
  96              		.loc 1 43 3 view .LVU27
  97 0032 21F48031 		bic	r1, r1, #65536
  98 0036 5962     		str	r1, [r3, #36]
  99              		.loc 1 43 3 is_stmt 1 view .LVU28
 100              		.loc 1 58 3 is_stmt 0 view .LVU29
 101 0038 0521     		movs	r1, #5
 102              		.loc 1 43 3 view .LVU30
 103 003a C3F89450 		str	r5, [r3, #148]
 104              		.loc 1 43 15 is_stmt 1 view .LVU31
 105              		.loc 1 50 3 view .LVU32
 106 003e C3F89800 		str	r0, [r3, #152]
 107              		.loc 1 50 3 view .LVU33
 108              		.loc 1 62 10 is_stmt 0 view .LVU34
 109 0042 0120     		movs	r0, #1
 110              		.loc 1 50 3 view .LVU35
 111 0044 C3F89C40 		str	r4, [r3, #156]
 112              		.loc 1 50 3 is_stmt 1 view .LVU36
 113 0048 C3F8A020 		str	r2, [r3, #160]
 114              		.loc 1 55 4 view .LVU37
ARM GAS  C:\Users\DEVELO~1\AppData\Local\Temp\ccR1ESDW.s 			page 3


 115              		.loc 1 58 3 view .LVU38
 116 004c C3F89410 		str	r1, [r3, #148]
 117              		.loc 1 58 3 view .LVU39
 118 0050 5A6A     		ldr	r2, [r3, #36]
 119 0052 42F48032 		orr	r2, r2, #65536
 120 0056 5A62     		str	r2, [r3, #36]
 121              		.loc 1 58 37 view .LVU40
 122              		.loc 1 62 3 view .LVU41
 123              	.L2:
 124              		.loc 1 63 1 is_stmt 0 view .LVU42
 125 0058 30BC     		pop	{r4, r5}
 126              		.cfi_restore 5
 127              		.cfi_restore 4
 128              		.cfi_def_cfa_offset 0
 129              	.LVL8:
 130              		.loc 1 63 1 view .LVU43
 131 005a 7047     		bx	lr
 132              	.LVL9:
 133              	.L8:
 134              		.loc 1 63 1 view .LVU44
 135 005c 7047     		bx	lr
 136              	.LVL10:
 137              	.L5:
 138              		.cfi_def_cfa_offset 8
 139              		.cfi_offset 4, -8
 140              		.cfi_offset 5, -4
 141              		.loc 1 37 22 view .LVU45
 142 005e 4FF00812 		mov	r2, #524296
 143 0062 E2E7     		b	.L3
 144              	.L13:
 145              		.align	2
 146              	.L12:
 147 0064 00000000 		.word	.LANCHOR0
 148 0068 00000000 		.word	__nocache_end__
 149 006c 00000000 		.word	__nocache_base__
 150 0070 00ED00E0 		.word	-536810240
 151              		.cfi_endproc
 152              	.LFE432:
 153              		.size	mpu_config_init_once, .-mpu_config_init_once
 154              		.section	.bss.initialized,"aw",%nobits
 155              		.set	.LANCHOR0,. + 0
 156              		.type	initialized, %object
 157              		.size	initialized, 1
 158              	initialized:
 159 0000 00       		.space	1
 160              		.text
 161              	.Letext0:
 162              		.file 2 "c:\\chibistudio\\tools\\gnu tools arm embedded\\11.3 2022.08\\arm-none-eabi\\include\\mac
 163              		.file 3 "c:\\chibistudio\\tools\\gnu tools arm embedded\\11.3 2022.08\\arm-none-eabi\\include\\sys
 164              		.file 4 "mpu/mpu_config.h"
 165              		.file 5 "c:\\chibistudio\\tools\\gnu tools arm embedded\\11.3 2022.08\\lib\\gcc\\arm-none-eabi\\11
 166              		.file 6 "../../../os/common/ext/ARM/CMSIS/Core/Include/core_cm7.h"