ARM GAS  C:\Users\DEVELO~1\AppData\Local\Temp\ccR1ESDW.s 			page 1


   1              		.cpu cortex-m7
   2              		.arch armv7e-m
   3              		.fpu softvfp
   4              		.eabi_attribute 20, 1
   5              		.eabi_attribute 21, 1
   6              		.eabi_attribute 23, 3
   7              		.eabi_attribute 24, 1
   8              		.eabi_attribute 25, 1
   9              		.eabi_attribute 26, 1
  10              		.eabi_attribute 30, 2
  11              		.eabi_attribute 34, 1
  12              		.eabi_attribute 18, 4
  13              		.file	"mpu_config.c"
  14              		.text
  15              	.Ltext0:
  16              		.cfi_sections	.debug_frame
  17              		.section	.text.mpu_config_init_once,"ax",%progbits
  18              		.align	1
  19              		.p2align 4,,15
  20              		.global	mpu_config_init_once
  21              		.syntax unified
  22              		.thumb
  23              		.thumb_func
  24              		.type	mpu_config_init_once, %function
  25              	mpu_config_init_once:
  26              	.LFB432:
  27              		.file 1 "mpu/mpu_config.c"
  28              		.loc 1 16 33 view -0
  29              		.cfi_startproc
  30              		@ args = 0, pretend = 0, frame = 0
  31              		@ frame_needed = 0, uses_anonymous_args = 0
  32              		@ link register save eliminated.
  33              		.loc 1 18 3 view .LVU1
  34              		.loc 1 18 7 is_stmt 0 view .LVU2
  35 0000 184B     		ldr	r3, .L12
  36 0002 1878     		ldrb	r0, [r3]	@ zero_extendqisi2
  37              		.loc 1 18 6 view .LVU3
  38 0004 50BB     		cbnz	r0, .L8
  39              		.loc 1 21 3 is_stmt 1 view .LVU4
  40              		.loc 1 26 46 is_stmt 0 view .LVU5
  41 0006 1849     		ldr	r1, .L12+4
  42              		.loc 1 21 15 view .LVU6
  43 0008 0122     		movs	r2, #1
  44              		.loc 1 16 33 view .LVU7
  45 000a 30B4     		push	{r4, r5}
  46              		.cfi_def_cfa_offset 8
  47              		.cfi_offset 4, -8
  48              		.cfi_offset 5, -4
  49              		.loc 1 26 46 view .LVU8
  50 000c 174C     		ldr	r4, .L12+8
  51              		.loc 1 21 15 view .LVU9
  52 000e 1A70     		strb	r2, [r3]
  53              		.loc 1 25 3 is_stmt 1 view .LVU10
  54              	.LVL0:
  55              		.loc 1 26 3 view .LVU11
  56              		.loc 1 26 46 is_stmt 0 view .LVU12
  57 0010 091B     		subs	r1, r1, r4
ARM GAS  C:\Users\DEVELO~1\AppData\Local\Temp\ccR1ESDW.s 			page 2


  58              	.LVL1:
  59              		.loc 1 29 3 is_stmt 1 view .LVU13
  60              		.loc 1 29 6 is_stmt 0 view .LVU14
  61 0012 1F29     		cmp	r1, #31
  62 0014 20D9     		bls	.L2
  63              	.LVL2:
  64              		.loc 1 37 22 is_stmt 1 view .LVU15
  65 0016 2029     		cmp	r1, #32
  66 0018 21D0     		beq	.L5
  67              		.loc 1 35 12 is_stmt 0 view .LVU16
  68 001a 0822     		movs	r2, #8
  69              		.loc 1 34 10 view .LVU17
  70 001c 2023     		movs	r3, #32
  71              	.LVL3:
  72              	.L4:
  73              		.loc 1 38 5 is_stmt 1 view .LVU18
  74              		.loc 1 38 17 is_stmt 0 view .LVU19
  75 001e 5B00     		lsls	r3, r3, #1
  76              	.LVL4:
  77              		.loc 1 39 5 is_stmt 1 view .LVU20
  78              		.loc 1 39 14 is_stmt 0 view .LVU21
  79 0020 0132     		adds	r2, r2, #1
  80              	.LVL5:
  81              		.loc 1 37 22 is_stmt 1 view .LVU22
  82 0022 9942     		cmp	r1, r3
  83 0024 FBD8     		bhi	.L4
  84              		.loc 1 50 3 is_stmt 0 view .LVU23
  85 0026 42F40022 		orr	r2, r2, #524288
  86              	.LVL6:
  87              	.L3:
  88              		.loc 1 43 3 is_stmt 1 view .LVU24
  89 002a 114B     		ldr	r3, .L12+12
  90              		.loc 1 50 3 is_stmt 0 view .LVU25
  91 002c 0320     		movs	r0, #3
  92              		.loc 1 43 3 view .LVU26
  93 002e 0025     		movs	r5, #0
  94 0030 596A     		ldr	r1, [r3, #36]
  95              	.LVL7:
  96              		.loc 1 43 3 view .LVU27
  97 0032 21F48031 		bic	r1, r1, #65536
  98 0036 5962     		str	r1, [r3, #36]
  99              		.loc 1 43 3 is_stmt 1 view .LVU28
 100              		.loc 1 58 3 is_stmt 0 view .LVU29
 101 0038 0521     		movs	r1, #5
 102              		.loc 1 43 3 view .LVU30
 103 003a C3F89450 		str	r5, [r3, #148]
 104              		.loc 1 43 15 is_stmt 1 view .LVU31
 105              		.loc 1 50 3 view .LVU32
 106 003e C3F89800 		str	r0, [r3, #152]
 107              		.loc 1 50 3 view .LVU33
 108              		.loc 1 62 10 is_stmt 0 view .LVU34
 109 0042 0120     		movs	r0, #1
 110              		.loc 1 50 3 view .LVU35
 111 0044 C3F89C40 		str	r4, [r3, #156]
 112              		.loc 1 50 3 is_stmt 1 view .LVU36
 113 0048 C3F8A020 		str	r2, [r3, #160]
 114              		.loc 1 55 4 view .LVU37
ARM GAS  C:\Users\DEVELO~1\AppData\Local\Temp\ccR1ESDW.s 			page 3


 115              		.loc 1 58 3 view .LVU38
 116 004c C3F89410 		str	r1, [r3, #148]
 117              		.loc 1 58 3 view .LVU39
 118 0050 5A6A     		ldr	r2, [r3, #36]
 119 0052 42F48032 		orr	r2, r2, #65536
 120 0056 5A62     		str	r2, [r3, #36]
 121              		.loc 1 58 37 view .LVU40
 122              		.loc 1 62 3 view .LVU41
 123              	.L2:
 124              		.loc 1 63 1 is_stmt 0 view .LVU42
 125 0058 30BC     		pop	{r4, r5}
 126              		.cfi_restore 5
 127              		.cfi_restore 4
 128              		.cfi_def_cfa_offset 0
 129              	.LVL8:
 130              		.loc 1 63 1 view .LVU43
 131 005a 7047     		bx	lr
 132              	.LVL9:
 133              	.L8:
 134              		.loc 1 63 1 view .LVU44
 135 005c 7047     		bx	lr
 136              	.LVL10:
 137              	.L5:
 138              		.cfi_def_cfa_offset 8
 139              		.cfi_offset 4, -8
 140              		.cfi_offset 5, -4
 141              		.loc 1 37 22 view .LVU45
 142 005e 4FF00812 		mov	r2, #524296
 143 0062 E2E7     		b	.L3
 144              	.L13:
 145              		.align	2
 146              	.L12:
 147 0064 00000000 		.word	.LANCHOR0
 148 0068 00000000 		.word	__nocache_end__
 149 006c 00000000 		.word	__nocache_base__
 150 0070 00ED00E0 		.word	-536810240
 151              		.cfi_endproc
 152              	.LFE432:
 153              		.size	mpu_config_init_once, .-mpu_config_init_once
 154              		.section	.bss.initialized,"aw",%nobits
 155              		.set	.LANCHOR0,. + 0
 156              		.type	initialized, %object
 157              		.size	initialized, 1
 158              	initialized:
 159 0000 00       		.space	1
 160              		.text
 161              	.Letext0:
 162              		.file 2 "c:\\chibistudio\\tools\\gnu tools arm embedded\\11.3 2022.08\\arm-none-eabi\\include\\mac
 163              		.file 3 "c:\\chibistudio\\tools\\gnu tools arm embedded\\11.3 2022.08\\arm-none-eabi\\include\\sys
 164              		.file 4 "mpu/mpu_config.h"
 165              		.file 5 "c:\\chibistudio\\tools\\gnu tools arm embedded\\11.3 2022.08\\lib\\gcc\\arm-none-eabi\\11
 166              		.file 6 "../../../os/common/ext/ARM/CMSIS/Core/Include/core_cm7.h"
 167              		.section	.debug_info,"",%progbits
 168              	.Ldebug_info0:
 169 0000 27050000 		.4byte	0x527
 170 0004 0500     		.2byte	0x5
 171 0006 01       		.byte	0x1
ARM GAS  C:\Users\DEVELO~1\AppData\Local\Temp\ccR1ESDW.s 			page 4


 172 0007 04       		.byte	0x4
 173 0008 00000000 		.4byte	.Ldebug_abbrev0
 174 000c 0D       		.uleb128 0xd
 175 000d 53000000 		.4byte	.LASF83
 176 0011 1D       		.byte	0x1d
 177 0012 06000000 		.4byte	.LASF84
 178 0016 3E020000 		.4byte	.LASF85
 179 001a 0C000000 		.4byte	.LLRL3
 180 001e 00000000 		.4byte	0
 181 0022 00000000 		.4byte	.Ldebug_line0
 182 0026 03       		.uleb128 0x3
 183 0027 01       		.byte	0x1
 184 0028 06       		.byte	0x6
 185 0029 FC010000 		.4byte	.LASF0
 186 002d 06       		.uleb128 0x6
 187 002e AD010000 		.4byte	.LASF5
 188 0032 02       		.byte	0x2
 189 0033 2B       		.byte	0x2b
 190 0034 18       		.byte	0x18
 191 0035 39000000 		.4byte	0x39
 192 0039 03       		.uleb128 0x3
 193 003a 01       		.byte	0x1
 194 003b 08       		.byte	0x8
 195 003c E9010000 		.4byte	.LASF1
 196 0040 03       		.uleb128 0x3
 197 0041 02       		.byte	0x2
 198 0042 05       		.byte	0x5
 199 0043 1C000000 		.4byte	.LASF2
 200 0047 03       		.uleb128 0x3
 201 0048 02       		.byte	0x2
 202 0049 07       		.byte	0x7
 203 004a B3020000 		.4byte	.LASF3
 204 004e 03       		.uleb128 0x3
 205 004f 04       		.byte	0x4
 206 0050 05       		.byte	0x5
 207 0051 8C010000 		.4byte	.LASF4
 208 0055 06       		.uleb128 0x6
 209 0056 3F000000 		.4byte	.LASF6
 210 005a 02       		.byte	0x2
 211 005b 4F       		.byte	0x4f
 212 005c 19       		.byte	0x19
 213 005d 61000000 		.4byte	0x61
 214 0061 03       		.uleb128 0x3
 215 0062 04       		.byte	0x4
 216 0063 07       		.byte	0x7
 217 0064 36030000 		.4byte	.LASF7
 218 0068 03       		.uleb128 0x3
 219 0069 08       		.byte	0x8
 220 006a 05       		.byte	0x5
 221 006b 79010000 		.4byte	.LASF8
 222 006f 03       		.uleb128 0x3
 223 0070 08       		.byte	0x8
 224 0071 07       		.byte	0x7
 225 0072 0D020000 		.4byte	.LASF9
 226 0076 0E       		.uleb128 0xe
 227 0077 04       		.byte	0x4
 228 0078 05       		.byte	0x5
ARM GAS  C:\Users\DEVELO~1\AppData\Local\Temp\ccR1ESDW.s 			page 5


 229 0079 696E7400 		.ascii	"int\000"
 230 007d 06       		.uleb128 0x6
 231 007e 5C030000 		.4byte	.LASF10
 232 0082 02       		.byte	0x2
 233 0083 E8       		.byte	0xe8
 234 0084 1A       		.byte	0x1a
 235 0085 89000000 		.4byte	0x89
 236 0089 03       		.uleb128 0x3
 237 008a 04       		.byte	0x4
 238 008b 07       		.byte	0x7
 239 008c 31020000 		.4byte	.LASF11
 240 0090 06       		.uleb128 0x6
 241 0091 1B010000 		.4byte	.LASF12
 242 0095 03       		.byte	0x3
 243 0096 18       		.byte	0x18
 244 0097 13       		.byte	0x13
 245 0098 2D000000 		.4byte	0x2d
 246 009c 07       		.uleb128 0x7
 247 009d 90000000 		.4byte	0x90
 248 00a1 06       		.uleb128 0x6
 249 00a2 0F030000 		.4byte	.LASF13
 250 00a6 03       		.byte	0x3
 251 00a7 30       		.byte	0x30
 252 00a8 14       		.byte	0x14
 253 00a9 55000000 		.4byte	0x55
 254 00ad 07       		.uleb128 0x7
 255 00ae A1000000 		.4byte	0xa1
 256 00b2 08       		.uleb128 0x8
 257 00b3 AD000000 		.4byte	0xad
 258 00b7 06       		.uleb128 0x6
 259 00b8 2C010000 		.4byte	.LASF14
 260 00bc 03       		.byte	0x3
 261 00bd 52       		.byte	0x52
 262 00be 15       		.byte	0x15
 263 00bf 7D000000 		.4byte	0x7d
 264 00c3 0B       		.uleb128 0xb
 265 00c4 B4030000 		.4byte	.LASF15
 266 00c8 12       		.byte	0x12
 267 00c9 90000000 		.4byte	0x90
 268 00cd 0B       		.uleb128 0xb
 269 00ce 52010000 		.4byte	.LASF16
 270 00d2 13       		.byte	0x13
 271 00d3 90000000 		.4byte	0x90
 272 00d7 06       		.uleb128 0x6
 273 00d8 26000000 		.4byte	.LASF17
 274 00dc 05       		.byte	0x5
 275 00dd D1       		.byte	0xd1
 276 00de 17       		.byte	0x17
 277 00df 89000000 		.4byte	0x89
 278 00e3 03       		.uleb128 0x3
 279 00e4 08       		.byte	0x8
 280 00e5 04       		.byte	0x4
 281 00e6 33000000 		.4byte	.LASF18
 282 00ea 03       		.uleb128 0x3
 283 00eb 01       		.byte	0x1
 284 00ec 08       		.byte	0x8
 285 00ed C6020000 		.4byte	.LASF19
ARM GAS  C:\Users\DEVELO~1\AppData\Local\Temp\ccR1ESDW.s 			page 6


 286 00f1 0F       		.uleb128 0xf
 287 00f2 AC02     		.2byte	0x2ac
 288 00f4 06       		.byte	0x6
 289 00f5 C701     		.2byte	0x1c7
 290 00f7 09       		.byte	0x9
 291 00f8 6D030000 		.4byte	0x36d
 292 00fc 01       		.uleb128 0x1
 293 00fd 0F010000 		.4byte	.LASF20
 294 0101 C901     		.2byte	0x1c9
 295 0103 B2000000 		.4byte	0xb2
 296 0107 00       		.byte	0
 297 0108 01       		.uleb128 0x1
 298 0109 68010000 		.4byte	.LASF21
 299 010d CA01     		.2byte	0x1ca
 300 010f AD000000 		.4byte	0xad
 301 0113 04       		.byte	0x4
 302 0114 01       		.uleb128 0x1
 303 0115 D3020000 		.4byte	.LASF22
 304 0119 CB01     		.2byte	0x1cb
 305 011b AD000000 		.4byte	0xad
 306 011f 08       		.byte	0x8
 307 0120 01       		.uleb128 0x1
 308 0121 E3010000 		.4byte	.LASF23
 309 0125 CC01     		.2byte	0x1cc
 310 0127 AD000000 		.4byte	0xad
 311 012b 0C       		.byte	0xc
 312 012c 09       		.uleb128 0x9
 313 012d 53435200 		.ascii	"SCR\000"
 314 0131 CD01     		.2byte	0x1cd
 315 0133 AD000000 		.4byte	0xad
 316 0137 10       		.byte	0x10
 317 0138 09       		.uleb128 0x9
 318 0139 43435200 		.ascii	"CCR\000"
 319 013d CE01     		.2byte	0x1ce
 320 013f AD000000 		.4byte	0xad
 321 0143 14       		.byte	0x14
 322 0144 01       		.uleb128 0x1
 323 0145 08020000 		.4byte	.LASF24
 324 0149 CF01     		.2byte	0x1cf
 325 014b 7D030000 		.4byte	0x37d
 326 014f 18       		.byte	0x18
 327 0150 01       		.uleb128 0x1
 328 0151 24020000 		.4byte	.LASF25
 329 0155 D001     		.2byte	0x1d0
 330 0157 AD000000 		.4byte	0xad
 331 015b 24       		.byte	0x24
 332 015c 01       		.uleb128 0x1
 333 015d B7010000 		.4byte	.LASF26
 334 0161 D101     		.2byte	0x1d1
 335 0163 AD000000 		.4byte	0xad
 336 0167 28       		.byte	0x28
 337 0168 01       		.uleb128 0x1
 338 0169 FB020000 		.4byte	.LASF27
 339 016d D201     		.2byte	0x1d2
 340 016f AD000000 		.4byte	0xad
 341 0173 2C       		.byte	0x2c
 342 0174 01       		.uleb128 0x1
ARM GAS  C:\Users\DEVELO~1\AppData\Local\Temp\ccR1ESDW.s 			page 7


 343 0175 F0020000 		.4byte	.LASF28
 344 0179 D301     		.2byte	0x1d3
 345 017b AD000000 		.4byte	0xad
 346 017f 30       		.byte	0x30
 347 0180 01       		.uleb128 0x1
 348 0181 9C020000 		.4byte	.LASF29
 349 0185 D401     		.2byte	0x1d4
 350 0187 AD000000 		.4byte	0xad
 351 018b 34       		.byte	0x34
 352 018c 01       		.uleb128 0x1
 353 018d 87010000 		.4byte	.LASF30
 354 0191 D501     		.2byte	0x1d5
 355 0193 AD000000 		.4byte	0xad
 356 0197 38       		.byte	0x38
 357 0198 01       		.uleb128 0x1
 358 0199 A1030000 		.4byte	.LASF31
 359 019d D601     		.2byte	0x1d6
 360 019f AD000000 		.4byte	0xad
 361 01a3 3C       		.byte	0x3c
 362 01a4 01       		.uleb128 0x1
 363 01a5 2A020000 		.4byte	.LASF32
 364 01a9 D701     		.2byte	0x1d7
 365 01ab 97030000 		.4byte	0x397
 366 01af 40       		.byte	0x40
 367 01b0 01       		.uleb128 0x1
 368 01b1 AD030000 		.4byte	.LASF33
 369 01b5 D801     		.2byte	0x1d8
 370 01b7 B2000000 		.4byte	0xb2
 371 01bb 48       		.byte	0x48
 372 01bc 01       		.uleb128 0x1
 373 01bd 4B010000 		.4byte	.LASF34
 374 01c1 D901     		.2byte	0x1d9
 375 01c3 B2000000 		.4byte	0xb2
 376 01c7 4C       		.byte	0x4c
 377 01c8 01       		.uleb128 0x1
 378 01c9 9A030000 		.4byte	.LASF35
 379 01cd DA01     		.2byte	0x1da
 380 01cf B1030000 		.4byte	0x3b1
 381 01d3 50       		.byte	0x50
 382 01d4 01       		.uleb128 0x1
 383 01d5 DB010000 		.4byte	.LASF36
 384 01d9 DB01     		.2byte	0x1db
 385 01db CB030000 		.4byte	0x3cb
 386 01df 60       		.byte	0x60
 387 01e0 01       		.uleb128 0x1
 388 01e1 05030000 		.4byte	.LASF37
 389 01e5 DC01     		.2byte	0x1dc
 390 01e7 D0030000 		.4byte	0x3d0
 391 01eb 74       		.byte	0x74
 392 01ec 01       		.uleb128 0x1
 393 01ed 40010000 		.4byte	.LASF38
 394 01f1 DD01     		.2byte	0x1dd
 395 01f3 B2000000 		.4byte	0xb2
 396 01f7 78       		.byte	0x78
 397 01f8 09       		.uleb128 0x9
 398 01f9 43545200 		.ascii	"CTR\000"
 399 01fd DE01     		.2byte	0x1de
ARM GAS  C:\Users\DEVELO~1\AppData\Local\Temp\ccR1ESDW.s 			page 8


 400 01ff B2000000 		.4byte	0xb2
 401 0203 7C       		.byte	0x7c
 402 0204 01       		.uleb128 0x1
 403 0205 A6010000 		.4byte	.LASF39
 404 0209 DF01     		.2byte	0x1df
 405 020b B2000000 		.4byte	0xb2
 406 020f 80       		.byte	0x80
 407 0210 01       		.uleb128 0x1
 408 0211 AC020000 		.4byte	.LASF40
 409 0215 E001     		.2byte	0x1e0
 410 0217 AD000000 		.4byte	0xad
 411 021b 84       		.byte	0x84
 412 021c 01       		.uleb128 0x1
 413 021d D1030000 		.4byte	.LASF41
 414 0221 E101     		.2byte	0x1e1
 415 0223 AD000000 		.4byte	0xad
 416 0227 88       		.byte	0x88
 417 0228 01       		.uleb128 0x1
 418 0229 18030000 		.4byte	.LASF42
 419 022d E201     		.2byte	0x1e2
 420 022f E0030000 		.4byte	0x3e0
 421 0233 8C       		.byte	0x8c
 422 0234 02       		.uleb128 0x2
 423 0235 46010000 		.4byte	.LASF43
 424 0239 E301     		.2byte	0x1e3
 425 023b AD000000 		.4byte	0xad
 426 023f 0002     		.2byte	0x200
 427 0241 02       		.uleb128 0x2
 428 0242 22030000 		.4byte	.LASF44
 429 0246 E401     		.2byte	0x1e4
 430 0248 F0030000 		.4byte	0x3f0
 431 024c 0402     		.2byte	0x204
 432 024e 02       		.uleb128 0x2
 433 024f 62010000 		.4byte	.LASF45
 434 0253 E501     		.2byte	0x1e5
 435 0255 B2000000 		.4byte	0xb2
 436 0259 4002     		.2byte	0x240
 437 025b 02       		.uleb128 0x2
 438 025c 15010000 		.4byte	.LASF46
 439 0260 E601     		.2byte	0x1e6
 440 0262 B2000000 		.4byte	0xb2
 441 0266 4402     		.2byte	0x244
 442 0268 02       		.uleb128 0x2
 443 0269 6D010000 		.4byte	.LASF47
 444 026d E701     		.2byte	0x1e7
 445 026f B2000000 		.4byte	0xb2
 446 0273 4802     		.2byte	0x248
 447 0275 02       		.uleb128 0x2
 448 0276 2C030000 		.4byte	.LASF48
 449 027a E801     		.2byte	0x1e8
 450 027c D0030000 		.4byte	0x3d0
 451 0280 4C02     		.2byte	0x24c
 452 0282 02       		.uleb128 0x2
 453 0283 BC010000 		.4byte	.LASF49
 454 0287 E901     		.2byte	0x1e9
 455 0289 AD000000 		.4byte	0xad
 456 028d 5002     		.2byte	0x250
ARM GAS  C:\Users\DEVELO~1\AppData\Local\Temp\ccR1ESDW.s 			page 9


 457 028f 02       		.uleb128 0x2
 458 0290 48030000 		.4byte	.LASF50
 459 0294 EA01     		.2byte	0x1ea
 460 0296 D0030000 		.4byte	0x3d0
 461 029a 5402     		.2byte	0x254
 462 029c 02       		.uleb128 0x2
 463 029d D3010000 		.4byte	.LASF51
 464 02a1 EB01     		.2byte	0x1eb
 465 02a3 AD000000 		.4byte	0xad
 466 02a7 5802     		.2byte	0x258
 467 02a9 02       		.uleb128 0x2
 468 02aa C4010000 		.4byte	.LASF52
 469 02ae EC01     		.2byte	0x1ec
 470 02b0 AD000000 		.4byte	0xad
 471 02b4 5C02     		.2byte	0x25c
 472 02b6 02       		.uleb128 0x2
 473 02b7 2D000000 		.4byte	.LASF53
 474 02bb ED01     		.2byte	0x1ed
 475 02bd AD000000 		.4byte	0xad
 476 02c1 6002     		.2byte	0x260
 477 02c3 02       		.uleb128 0x2
 478 02c4 CB020000 		.4byte	.LASF54
 479 02c8 EE01     		.2byte	0x1ee
 480 02ca AD000000 		.4byte	0xad
 481 02ce 6402     		.2byte	0x264
 482 02d0 02       		.uleb128 0x2
 483 02d1 94020000 		.4byte	.LASF55
 484 02d5 EF01     		.2byte	0x1ef
 485 02d7 AD000000 		.4byte	0xad
 486 02db 6802     		.2byte	0x268
 487 02dd 02       		.uleb128 0x2
 488 02de 00000000 		.4byte	.LASF56
 489 02e2 F001     		.2byte	0x1f0
 490 02e4 AD000000 		.4byte	0xad
 491 02e8 6C02     		.2byte	0x26c
 492 02ea 02       		.uleb128 0x2
 493 02eb 4A000000 		.4byte	.LASF57
 494 02ef F101     		.2byte	0x1f1
 495 02f1 AD000000 		.4byte	0xad
 496 02f5 7002     		.2byte	0x270
 497 02f7 02       		.uleb128 0x2
 498 02f8 68030000 		.4byte	.LASF58
 499 02fc F201     		.2byte	0x1f2
 500 02fe AD000000 		.4byte	0xad
 501 0302 7402     		.2byte	0x274
 502 0304 02       		.uleb128 0x2
 503 0305 36010000 		.4byte	.LASF59
 504 0309 F301     		.2byte	0x1f3
 505 030b 00040000 		.4byte	0x400
 506 030f 7802     		.2byte	0x278
 507 0311 02       		.uleb128 0x2
 508 0312 CC010000 		.4byte	.LASF60
 509 0316 F401     		.2byte	0x1f4
 510 0318 AD000000 		.4byte	0xad
 511 031c 9002     		.2byte	0x290
 512 031e 02       		.uleb128 0x2
 513 031f A6030000 		.4byte	.LASF61
ARM GAS  C:\Users\DEVELO~1\AppData\Local\Temp\ccR1ESDW.s 			page 10


 514 0323 F501     		.2byte	0x1f5
 515 0325 AD000000 		.4byte	0xad
 516 0329 9402     		.2byte	0x294
 517 032b 02       		.uleb128 0x2
 518 032c 08010000 		.4byte	.LASF62
 519 0330 F601     		.2byte	0x1f6
 520 0332 AD000000 		.4byte	0xad
 521 0336 9802     		.2byte	0x298
 522 0338 02       		.uleb128 0x2
 523 0339 00030000 		.4byte	.LASF63
 524 033d F701     		.2byte	0x1f7
 525 033f AD000000 		.4byte	0xad
 526 0343 9C02     		.2byte	0x29c
 527 0345 02       		.uleb128 0x2
 528 0346 89030000 		.4byte	.LASF64
 529 034a F801     		.2byte	0x1f8
 530 034c AD000000 		.4byte	0xad
 531 0350 A002     		.2byte	0x2a0
 532 0352 02       		.uleb128 0x2
 533 0353 52030000 		.4byte	.LASF65
 534 0357 F901     		.2byte	0x1f9
 535 0359 D0030000 		.4byte	0x3d0
 536 035d A402     		.2byte	0x2a4
 537 035f 02       		.uleb128 0x2
 538 0360 73010000 		.4byte	.LASF66
 539 0364 FA01     		.2byte	0x1fa
 540 0366 AD000000 		.4byte	0xad
 541 036a A802     		.2byte	0x2a8
 542 036c 00       		.byte	0
 543 036d 04       		.uleb128 0x4
 544 036e 9C000000 		.4byte	0x9c
 545 0372 7D030000 		.4byte	0x37d
 546 0376 05       		.uleb128 0x5
 547 0377 89000000 		.4byte	0x89
 548 037b 0B       		.byte	0xb
 549 037c 00       		.byte	0
 550 037d 07       		.uleb128 0x7
 551 037e 6D030000 		.4byte	0x36d
 552 0382 04       		.uleb128 0x4
 553 0383 B2000000 		.4byte	0xb2
 554 0387 92030000 		.4byte	0x392
 555 038b 05       		.uleb128 0x5
 556 038c 89000000 		.4byte	0x89
 557 0390 01       		.byte	0x1
 558 0391 00       		.byte	0
 559 0392 08       		.uleb128 0x8
 560 0393 82030000 		.4byte	0x382
 561 0397 07       		.uleb128 0x7
 562 0398 92030000 		.4byte	0x392
 563 039c 04       		.uleb128 0x4
 564 039d B2000000 		.4byte	0xb2
 565 03a1 AC030000 		.4byte	0x3ac
 566 03a5 05       		.uleb128 0x5
 567 03a6 89000000 		.4byte	0x89
 568 03aa 03       		.byte	0x3
 569 03ab 00       		.byte	0
 570 03ac 08       		.uleb128 0x8
ARM GAS  C:\Users\DEVELO~1\AppData\Local\Temp\ccR1ESDW.s 			page 11


 571 03ad 9C030000 		.4byte	0x39c
 572 03b1 07       		.uleb128 0x7
 573 03b2 AC030000 		.4byte	0x3ac
 574 03b6 04       		.uleb128 0x4
 575 03b7 B2000000 		.4byte	0xb2
 576 03bb C6030000 		.4byte	0x3c6
 577 03bf 05       		.uleb128 0x5
 578 03c0 89000000 		.4byte	0x89
 579 03c4 04       		.byte	0x4
 580 03c5 00       		.byte	0
 581 03c6 08       		.uleb128 0x8
 582 03c7 B6030000 		.4byte	0x3b6
 583 03cb 07       		.uleb128 0x7
 584 03cc C6030000 		.4byte	0x3c6
 585 03d0 04       		.uleb128 0x4
 586 03d1 A1000000 		.4byte	0xa1
 587 03d5 E0030000 		.4byte	0x3e0
 588 03d9 05       		.uleb128 0x5
 589 03da 89000000 		.4byte	0x89
 590 03de 00       		.byte	0
 591 03df 00       		.byte	0
 592 03e0 04       		.uleb128 0x4
 593 03e1 A1000000 		.4byte	0xa1
 594 03e5 F0030000 		.4byte	0x3f0
 595 03e9 05       		.uleb128 0x5
 596 03ea 89000000 		.4byte	0x89
 597 03ee 5C       		.byte	0x5c
 598 03ef 00       		.byte	0
 599 03f0 04       		.uleb128 0x4
 600 03f1 A1000000 		.4byte	0xa1
 601 03f5 00040000 		.4byte	0x400
 602 03f9 05       		.uleb128 0x5
 603 03fa 89000000 		.4byte	0x89
 604 03fe 0E       		.byte	0xe
 605 03ff 00       		.byte	0
 606 0400 04       		.uleb128 0x4
 607 0401 A1000000 		.4byte	0xa1
 608 0405 10040000 		.4byte	0x410
 609 0409 05       		.uleb128 0x5
 610 040a 89000000 		.4byte	0x89
 611 040e 05       		.byte	0x5
 612 040f 00       		.byte	0
 613 0410 0C       		.uleb128 0xc
 614 0411 23010000 		.4byte	.LASF67
 615 0415 FB01     		.2byte	0x1fb
 616 0417 F1000000 		.4byte	0xf1
 617 041b 10       		.uleb128 0x10
 618 041c 2C       		.byte	0x2c
 619 041d 06       		.byte	0x6
 620 041e 9405     		.2byte	0x594
 621 0420 09       		.byte	0x9
 622 0421 AA040000 		.4byte	0x4aa
 623 0425 01       		.uleb128 0x1
 624 0426 17000000 		.4byte	.LASF68
 625 042a 9605     		.2byte	0x596
 626 042c B2000000 		.4byte	0xb2
 627 0430 00       		.byte	0
ARM GAS  C:\Users\DEVELO~1\AppData\Local\Temp\ccR1ESDW.s 			page 12


 628 0431 01       		.uleb128 0x1
 629 0432 F7010000 		.4byte	.LASF69
 630 0436 9705     		.2byte	0x597
 631 0438 AD000000 		.4byte	0xad
 632 043c 04       		.byte	0x4
 633 043d 09       		.uleb128 0x9
 634 043e 524E5200 		.ascii	"RNR\000"
 635 0442 9805     		.2byte	0x598
 636 0444 AD000000 		.4byte	0xad
 637 0448 08       		.byte	0x8
 638 0449 01       		.uleb128 0x1
 639 044a 90030000 		.4byte	.LASF70
 640 044e 9905     		.2byte	0x599
 641 0450 AD000000 		.4byte	0xad
 642 0454 0C       		.byte	0xc
 643 0455 01       		.uleb128 0x1
 644 0456 95030000 		.4byte	.LASF71
 645 045a 9A05     		.2byte	0x59a
 646 045c AD000000 		.4byte	0xad
 647 0460 10       		.byte	0x10
 648 0461 01       		.uleb128 0x1
 649 0462 D8020000 		.4byte	.LASF72
 650 0466 9B05     		.2byte	0x59b
 651 0468 AD000000 		.4byte	0xad
 652 046c 14       		.byte	0x14
 653 046d 01       		.uleb128 0x1
 654 046e D7030000 		.4byte	.LASF73
 655 0472 9C05     		.2byte	0x59c
 656 0474 AD000000 		.4byte	0xad
 657 0478 18       		.byte	0x18
 658 0479 01       		.uleb128 0x1
 659 047a E0020000 		.4byte	.LASF74
 660 047e 9D05     		.2byte	0x59d
 661 0480 AD000000 		.4byte	0xad
 662 0484 1C       		.byte	0x1c
 663 0485 01       		.uleb128 0x1
 664 0486 DF030000 		.4byte	.LASF75
 665 048a 9E05     		.2byte	0x59e
 666 048c AD000000 		.4byte	0xad
 667 0490 20       		.byte	0x20
 668 0491 01       		.uleb128 0x1
 669 0492 E8020000 		.4byte	.LASF76
 670 0496 9F05     		.2byte	0x59f
 671 0498 AD000000 		.4byte	0xad
 672 049c 24       		.byte	0x24
 673 049d 01       		.uleb128 0x1
 674 049e E7030000 		.4byte	.LASF77
 675 04a2 A005     		.2byte	0x5a0
 676 04a4 AD000000 		.4byte	0xad
 677 04a8 28       		.byte	0x28
 678 04a9 00       		.byte	0
 679 04aa 0C       		.uleb128 0xc
 680 04ab EF030000 		.4byte	.LASF78
 681 04af A105     		.2byte	0x5a1
 682 04b1 1B040000 		.4byte	0x41b
 683 04b5 03       		.uleb128 0x3
 684 04b6 01       		.byte	0x1
ARM GAS  C:\Users\DEVELO~1\AppData\Local\Temp\ccR1ESDW.s 			page 13


 685 04b7 02       		.byte	0x2
 686 04b8 F5020000 		.4byte	.LASF79
 687 04bc 11       		.uleb128 0x11
 688 04bd C5030000 		.4byte	.LASF86
 689 04c1 01       		.byte	0x1
 690 04c2 0E       		.byte	0xe
 691 04c3 0D       		.byte	0xd
 692 04c4 B5040000 		.4byte	0x4b5
 693 04c8 05       		.uleb128 0x5
 694 04c9 03       		.byte	0x3
 695 04ca 00000000 		.4byte	initialized
 696 04ce 12       		.uleb128 0x12
 697 04cf 6F030000 		.4byte	.LASF87
 698 04d3 01       		.byte	0x1
 699 04d4 10       		.byte	0x10
 700 04d5 06       		.byte	0x6
 701 04d6 B5040000 		.4byte	0x4b5
 702 04da 00000000 		.4byte	.LFB432
 703 04de 74000000 		.4byte	.LFE432-.LFB432
 704 04e2 01       		.uleb128 0x1
 705 04e3 9C       		.byte	0x9c
 706 04e4 13       		.uleb128 0x13
 707 04e5 95010000 		.4byte	.LASF88
 708 04e9 01       		.byte	0x1
 709 04ea 19       		.byte	0x19
 710 04eb 0D       		.byte	0xd
 711 04ec B7000000 		.4byte	0xb7
 712 04f0 0A       		.uleb128 0xa
 713 04f1 84030000 		.4byte	.LASF80
 714 04f5 1A       		.byte	0x1a
 715 04f6 0A       		.byte	0xa
 716 04f7 D7000000 		.4byte	0xd7
 717 04fb 10000000 		.4byte	.LLST0
 718 04ff 0C000000 		.4byte	.LVUS0
 719 0503 0A       		.uleb128 0xa
 720 0504 9A010000 		.4byte	.LASF81
 721 0508 22       		.byte	0x22
 722 0509 0A       		.byte	0xa
 723 050a D7000000 		.4byte	0xd7
 724 050e 26000000 		.4byte	.LLST1
 725 0512 20000000 		.4byte	.LVUS1
 726 0516 0A       		.uleb128 0xa
 727 0517 A2020000 		.4byte	.LASF82
 728 051b 23       		.byte	0x23
 729 051c 0C       		.byte	0xc
 730 051d A1000000 		.4byte	0xa1
 731 0521 45000000 		.4byte	.LLST2
 732 0525 3F000000 		.4byte	.LVUS2
 733 0529 00       		.byte	0
 734 052a 00       		.byte	0
 735              		.section	.debug_abbrev,"",%progbits
 736              	.Ldebug_abbrev0:
 737 0000 01       		.uleb128 0x1
 738 0001 0D       		.uleb128 0xd
 739 0002 00       		.byte	0
 740 0003 03       		.uleb128 0x3
 741 0004 0E       		.uleb128 0xe
ARM GAS  C:\Users\DEVELO~1\AppData\Local\Temp\ccR1ESDW.s 			page 14


 742 0005 3A       		.uleb128 0x3a
 743 0006 21       		.uleb128 0x21
 744 0007 06       		.sleb128 6
 745 0008 3B       		.uleb128 0x3b
 746 0009 05       		.uleb128 0x5
 747 000a 39       		.uleb128 0x39
 748 000b 21       		.uleb128 0x21
 749 000c 12       		.sleb128 18
 750 000d 49       		.uleb128 0x49
 751 000e 13       		.uleb128 0x13
 752 000f 38       		.uleb128 0x38
 753 0010 0B       		.uleb128 0xb
 754 0011 00       		.byte	0
 755 0012 00       		.byte	0
 756 0013 02       		.uleb128 0x2
 757 0014 0D       		.uleb128 0xd
 758 0015 00       		.byte	0
 759 0016 03       		.uleb128 0x3
 760 0017 0E       		.uleb128 0xe
 761 0018 3A       		.uleb128 0x3a
 762 0019 21       		.uleb128 0x21
 763 001a 06       		.sleb128 6
 764 001b 3B       		.uleb128 0x3b
 765 001c 05       		.uleb128 0x5
 766 001d 39       		.uleb128 0x39
 767 001e 21       		.uleb128 0x21
 768 001f 12       		.sleb128 18
 769 0020 49       		.uleb128 0x49
 770 0021 13       		.uleb128 0x13
 771 0022 38       		.uleb128 0x38
 772 0023 05       		.uleb128 0x5
 773 0024 00       		.byte	0
 774 0025 00       		.byte	0
 775 0026 03       		.uleb128 0x3
 776 0027 24       		.uleb128 0x24
 777 0028 00       		.byte	0
 778 0029 0B       		.uleb128 0xb
 779 002a 0B       		.uleb128 0xb
 780 002b 3E       		.uleb128 0x3e
 781 002c 0B       		.uleb128 0xb
 782 002d 03       		.uleb128 0x3
 783 002e 0E       		.uleb128 0xe
 784 002f 00       		.byte	0
 785 0030 00       		.byte	0
 786 0031 04       		.uleb128 0x4
 787 0032 01       		.uleb128 0x1
 788 0033 01       		.byte	0x1
 789 0034 49       		.uleb128 0x49
 790 0035 13       		.uleb128 0x13
 791 0036 01       		.uleb128 0x1
 792 0037 13       		.uleb128 0x13
 793 0038 00       		.byte	0
 794 0039 00       		.byte	0
 795 003a 05       		.uleb128 0x5
 796 003b 21       		.uleb128 0x21
 797 003c 00       		.byte	0
 798 003d 49       		.uleb128 0x49
ARM GAS  C:\Users\DEVELO~1\AppData\Local\Temp\ccR1ESDW.s 			page 15


 799 003e 13       		.uleb128 0x13
 800 003f 2F       		.uleb128 0x2f
 801 0040 0B       		.uleb128 0xb
 802 0041 00       		.byte	0
 803 0042 00       		.byte	0
 804 0043 06       		.uleb128 0x6
 805 0044 16       		.uleb128 0x16
 806 0045 00       		.byte	0
 807 0046 03       		.uleb128 0x3
 808 0047 0E       		.uleb128 0xe
 809 0048 3A       		.uleb128 0x3a
 810 0049 0B       		.uleb128 0xb
 811 004a 3B       		.uleb128 0x3b
 812 004b 0B       		.uleb128 0xb
 813 004c 39       		.uleb128 0x39
 814 004d 0B       		.uleb128 0xb
 815 004e 49       		.uleb128 0x49
 816 004f 13       		.uleb128 0x13
 817 0050 00       		.byte	0
 818 0051 00       		.byte	0
 819 0052 07       		.uleb128 0x7
 820 0053 35       		.uleb128 0x35
 821 0054 00       		.byte	0
 822 0055 49       		.uleb128 0x49
 823 0056 13       		.uleb128 0x13
 824 0057 00       		.byte	0
 825 0058 00       		.byte	0
 826 0059 08       		.uleb128 0x8
 827 005a 26       		.uleb128 0x26
 828 005b 00       		.byte	0
 829 005c 49       		.uleb128 0x49
 830 005d 13       		.uleb128 0x13
 831 005e 00       		.byte	0
 832 005f 00       		.byte	0
 833 0060 09       		.uleb128 0x9
 834 0061 0D       		.uleb128 0xd
 835 0062 00       		.byte	0
 836 0063 03       		.uleb128 0x3
 837 0064 08       		.uleb128 0x8
 838 0065 3A       		.uleb128 0x3a
 839 0066 21       		.uleb128 0x21
 840 0067 06       		.sleb128 6
 841 0068 3B       		.uleb128 0x3b
 842 0069 05       		.uleb128 0x5
 843 006a 39       		.uleb128 0x39
 844 006b 21       		.uleb128 0x21
 845 006c 12       		.sleb128 18
 846 006d 49       		.uleb128 0x49
 847 006e 13       		.uleb128 0x13
 848 006f 38       		.uleb128 0x38
 849 0070 0B       		.uleb128 0xb
 850 0071 00       		.byte	0
 851 0072 00       		.byte	0
 852 0073 0A       		.uleb128 0xa
 853 0074 34       		.uleb128 0x34
 854 0075 00       		.byte	0
 855 0076 03       		.uleb128 0x3
ARM GAS  C:\Users\DEVELO~1\AppData\Local\Temp\ccR1ESDW.s 			page 16


 856 0077 0E       		.uleb128 0xe
 857 0078 3A       		.uleb128 0x3a
 858 0079 21       		.uleb128 0x21
 859 007a 01       		.sleb128 1
 860 007b 3B       		.uleb128 0x3b
 861 007c 0B       		.uleb128 0xb
 862 007d 39       		.uleb128 0x39
 863 007e 0B       		.uleb128 0xb
 864 007f 49       		.uleb128 0x49
 865 0080 13       		.uleb128 0x13
 866 0081 02       		.uleb128 0x2
 867 0082 17       		.uleb128 0x17
 868 0083 B742     		.uleb128 0x2137
 869 0085 17       		.uleb128 0x17
 870 0086 00       		.byte	0
 871 0087 00       		.byte	0
 872 0088 0B       		.uleb128 0xb
 873 0089 34       		.uleb128 0x34
 874 008a 00       		.byte	0
 875 008b 03       		.uleb128 0x3
 876 008c 0E       		.uleb128 0xe
 877 008d 3A       		.uleb128 0x3a
 878 008e 21       		.uleb128 0x21
 879 008f 04       		.sleb128 4
 880 0090 3B       		.uleb128 0x3b
 881 0091 0B       		.uleb128 0xb
 882 0092 39       		.uleb128 0x39
 883 0093 21       		.uleb128 0x21
 884 0094 10       		.sleb128 16
 885 0095 49       		.uleb128 0x49
 886 0096 13       		.uleb128 0x13
 887 0097 3F       		.uleb128 0x3f
 888 0098 19       		.uleb128 0x19
 889 0099 3C       		.uleb128 0x3c
 890 009a 19       		.uleb128 0x19
 891 009b 00       		.byte	0
 892 009c 00       		.byte	0
 893 009d 0C       		.uleb128 0xc
 894 009e 16       		.uleb128 0x16
 895 009f 00       		.byte	0
 896 00a0 03       		.uleb128 0x3
 897 00a1 0E       		.uleb128 0xe
 898 00a2 3A       		.uleb128 0x3a
 899 00a3 21       		.uleb128 0x21
 900 00a4 06       		.sleb128 6
 901 00a5 3B       		.uleb128 0x3b
 902 00a6 05       		.uleb128 0x5
 903 00a7 39       		.uleb128 0x39
 904 00a8 21       		.uleb128 0x21
 905 00a9 03       		.sleb128 3
 906 00aa 49       		.uleb128 0x49
 907 00ab 13       		.uleb128 0x13
 908 00ac 00       		.byte	0
 909 00ad 00       		.byte	0
 910 00ae 0D       		.uleb128 0xd
 911 00af 11       		.uleb128 0x11
 912 00b0 01       		.byte	0x1
ARM GAS  C:\Users\DEVELO~1\AppData\Local\Temp\ccR1ESDW.s 			page 17


 913 00b1 25       		.uleb128 0x25
 914 00b2 0E       		.uleb128 0xe
 915 00b3 13       		.uleb128 0x13
 916 00b4 0B       		.uleb128 0xb
 917 00b5 03       		.uleb128 0x3
 918 00b6 0E       		.uleb128 0xe
 919 00b7 1B       		.uleb128 0x1b
 920 00b8 0E       		.uleb128 0xe
 921 00b9 55       		.uleb128 0x55
 922 00ba 17       		.uleb128 0x17
 923 00bb 11       		.uleb128 0x11
 924 00bc 01       		.uleb128 0x1
 925 00bd 10       		.uleb128 0x10
 926 00be 17       		.uleb128 0x17
 927 00bf 00       		.byte	0
 928 00c0 00       		.byte	0
 929 00c1 0E       		.uleb128 0xe
 930 00c2 24       		.uleb128 0x24
 931 00c3 00       		.byte	0
 932 00c4 0B       		.uleb128 0xb
 933 00c5 0B       		.uleb128 0xb
 934 00c6 3E       		.uleb128 0x3e
 935 00c7 0B       		.uleb128 0xb
 936 00c8 03       		.uleb128 0x3
 937 00c9 08       		.uleb128 0x8
 938 00ca 00       		.byte	0
 939 00cb 00       		.byte	0
 940 00cc 0F       		.uleb128 0xf
 941 00cd 13       		.uleb128 0x13
 942 00ce 01       		.byte	0x1
 943 00cf 0B       		.uleb128 0xb
 944 00d0 05       		.uleb128 0x5
 945 00d1 3A       		.uleb128 0x3a
 946 00d2 0B       		.uleb128 0xb
 947 00d3 3B       		.uleb128 0x3b
 948 00d4 05       		.uleb128 0x5
 949 00d5 39       		.uleb128 0x39
 950 00d6 0B       		.uleb128 0xb
 951 00d7 01       		.uleb128 0x1
 952 00d8 13       		.uleb128 0x13
 953 00d9 00       		.byte	0
 954 00da 00       		.byte	0
 955 00db 10       		.uleb128 0x10
 956 00dc 13       		.uleb128 0x13
 957 00dd 01       		.byte	0x1
 958 00de 0B       		.uleb128 0xb
 959 00df 0B       		.uleb128 0xb
 960 00e0 3A       		.uleb128 0x3a
 961 00e1 0B       		.uleb128 0xb
 962 00e2 3B       		.uleb128 0x3b
 963 00e3 05       		.uleb128 0x5
 964 00e4 39       		.uleb128 0x39
 965 00e5 0B       		.uleb128 0xb
 966 00e6 01       		.uleb128 0x1
 967 00e7 13       		.uleb128 0x13
 968 00e8 00       		.byte	0
 969 00e9 00       		.byte	0
ARM GAS  C:\Users\DEVELO~1\AppData\Local\Temp\ccR1ESDW.s 			page 18


 970 00ea 11       		.uleb128 0x11
 971 00eb 34       		.uleb128 0x34
 972 00ec 00       		.byte	0
 973 00ed 03       		.uleb128 0x3
 974 00ee 0E       		.uleb128 0xe
 975 00ef 3A       		.uleb128 0x3a
 976 00f0 0B       		.uleb128 0xb
 977 00f1 3B       		.uleb128 0x3b
 978 00f2 0B       		.uleb128 0xb
 979 00f3 39       		.uleb128 0x39
 980 00f4 0B       		.uleb128 0xb
 981 00f5 49       		.uleb128 0x49
 982 00f6 13       		.uleb128 0x13
 983 00f7 02       		.uleb128 0x2
 984 00f8 18       		.uleb128 0x18
 985 00f9 00       		.byte	0
 986 00fa 00       		.byte	0
 987 00fb 12       		.uleb128 0x12
 988 00fc 2E       		.uleb128 0x2e
 989 00fd 01       		.byte	0x1
 990 00fe 3F       		.uleb128 0x3f
 991 00ff 19       		.uleb128 0x19
 992 0100 03       		.uleb128 0x3
 993 0101 0E       		.uleb128 0xe
 994 0102 3A       		.uleb128 0x3a
 995 0103 0B       		.uleb128 0xb
 996 0104 3B       		.uleb128 0x3b
 997 0105 0B       		.uleb128 0xb
 998 0106 39       		.uleb128 0x39
 999 0107 0B       		.uleb128 0xb
 1000 0108 27       		.uleb128 0x27
 1001 0109 19       		.uleb128 0x19
 1002 010a 49       		.uleb128 0x49
 1003 010b 13       		.uleb128 0x13
 1004 010c 11       		.uleb128 0x11
 1005 010d 01       		.uleb128 0x1
 1006 010e 12       		.uleb128 0x12
 1007 010f 06       		.uleb128 0x6
 1008 0110 40       		.uleb128 0x40
 1009 0111 18       		.uleb128 0x18
 1010 0112 7A       		.uleb128 0x7a
 1011 0113 19       		.uleb128 0x19
 1012 0114 00       		.byte	0
 1013 0115 00       		.byte	0
 1014 0116 13       		.uleb128 0x13
 1015 0117 34       		.uleb128 0x34
 1016 0118 00       		.byte	0
 1017 0119 03       		.uleb128 0x3
 1018 011a 0E       		.uleb128 0xe
 1019 011b 3A       		.uleb128 0x3a
 1020 011c 0B       		.uleb128 0xb
 1021 011d 3B       		.uleb128 0x3b
 1022 011e 0B       		.uleb128 0xb
 1023 011f 39       		.uleb128 0x39
 1024 0120 0B       		.uleb128 0xb
 1025 0121 49       		.uleb128 0x49
 1026 0122 13       		.uleb128 0x13
ARM GAS  C:\Users\DEVELO~1\AppData\Local\Temp\ccR1ESDW.s 			page 19


 1027 0123 00       		.byte	0
 1028 0124 00       		.byte	0
 1029 0125 00       		.byte	0
 1030              		.section	.debug_loclists,"",%progbits
 1031 0000 58000000 		.4byte	.Ldebug_loc3-.Ldebug_loc2
 1032              	.Ldebug_loc2:
 1033 0004 0500     		.2byte	0x5
 1034 0006 04       		.byte	0x4
 1035 0007 00       		.byte	0
 1036 0008 00000000 		.4byte	0
 1037              	.Ldebug_loc0:
 1038              	.LVUS0:
 1039 000c 00       		.uleb128 .LVU13
 1040 000d 00       		.uleb128 .LVU27
 1041 000e 00       		.uleb128 .LVU45
 1042 000f 00       		.uleb128 0
 1043              	.LLST0:
 1044 0010 06       		.byte	0x6
 1045 0011 12000000 		.4byte	.LVL1
 1046 0015 04       		.byte	0x4
 1047 0016 00       		.uleb128 .LVL1-.LVL1
 1048 0017 20       		.uleb128 .LVL7-.LVL1
 1049 0018 01       		.uleb128 0x1
 1050 0019 51       		.byte	0x51
 1051 001a 04       		.byte	0x4
 1052 001b 4C       		.uleb128 .LVL10-.LVL1
 1053 001c 62       		.uleb128 .LFE432-.LVL1
 1054 001d 01       		.uleb128 0x1
 1055 001e 51       		.byte	0x51
 1056 001f 00       		.byte	0
 1057              	.LVUS1:
 1058 0020 00       		.uleb128 .LVU15
 1059 0021 00       		.uleb128 .LVU18
 1060 0022 00       		.uleb128 .LVU18
 1061 0023 00       		.uleb128 .LVU24
 1062 0024 00       		.uleb128 .LVU45
 1063 0025 00       		.uleb128 0
 1064              	.LLST1:
 1065 0026 06       		.byte	0x6
 1066 0027 16000000 		.4byte	.LVL2
 1067 002b 04       		.byte	0x4
 1068 002c 00       		.uleb128 .LVL2-.LVL2
 1069 002d 08       		.uleb128 .LVL3-.LVL2
 1070 002e 03       		.uleb128 0x3
 1071 002f 08       		.byte	0x8
 1072 0030 20       		.byte	0x20
 1073 0031 9F       		.byte	0x9f
 1074 0032 04       		.byte	0x4
 1075 0033 08       		.uleb128 .LVL3-.LVL2
 1076 0034 14       		.uleb128 .LVL6-.LVL2
 1077 0035 01       		.uleb128 0x1
 1078 0036 53       		.byte	0x53
 1079 0037 04       		.byte	0x4
 1080 0038 48       		.uleb128 .LVL10-.LVL2
 1081 0039 5E       		.uleb128 .LFE432-.LVL2
 1082 003a 03       		.uleb128 0x3
 1083 003b 08       		.byte	0x8
ARM GAS  C:\Users\DEVELO~1\AppData\Local\Temp\ccR1ESDW.s 			page 20


 1084 003c 20       		.byte	0x20
 1085 003d 9F       		.byte	0x9f
 1086 003e 00       		.byte	0
 1087              	.LVUS2:
 1088 003f 00       		.uleb128 .LVU15
 1089 0040 00       		.uleb128 .LVU18
 1090 0041 00       		.uleb128 .LVU18
 1091 0042 00       		.uleb128 .LVU24
 1092 0043 00       		.uleb128 .LVU45
 1093 0044 00       		.uleb128 0
 1094              	.LLST2:
 1095 0045 06       		.byte	0x6
 1096 0046 16000000 		.4byte	.LVL2
 1097 004a 04       		.byte	0x4
 1098 004b 00       		.uleb128 .LVL2-.LVL2
 1099 004c 08       		.uleb128 .LVL3-.LVL2
 1100 004d 02       		.uleb128 0x2
 1101 004e 38       		.byte	0x38
 1102 004f 9F       		.byte	0x9f
 1103 0050 04       		.byte	0x4
 1104 0051 08       		.uleb128 .LVL3-.LVL2
 1105 0052 14       		.uleb128 .LVL6-.LVL2
 1106 0053 01       		.uleb128 0x1
 1107 0054 52       		.byte	0x52
 1108 0055 04       		.byte	0x4
 1109 0056 48       		.uleb128 .LVL10-.LVL2
 1110 0057 5E       		.uleb128 .LFE432-.LVL2
 1111 0058 02       		.uleb128 0x2
 1112 0059 38       		.byte	0x38
 1113 005a 9F       		.byte	0x9f
 1114 005b 00       		.byte	0
 1115              	.Ldebug_loc3:
 1116              		.section	.debug_aranges,"",%progbits
 1117 0000 1C000000 		.4byte	0x1c
 1118 0004 0200     		.2byte	0x2
 1119 0006 00000000 		.4byte	.Ldebug_info0
 1120 000a 04       		.byte	0x4
 1121 000b 00       		.byte	0
 1122 000c 0000     		.2byte	0
 1123 000e 0000     		.2byte	0
 1124 0010 00000000 		.4byte	.LFB432
 1125 0014 74000000 		.4byte	.LFE432-.LFB432
 1126 0018 00000000 		.4byte	0
 1127 001c 00000000 		.4byte	0
 1128              		.section	.debug_rnglists,"",%progbits
 1129              	.Ldebug_ranges0:
 1130 0000 0F000000 		.4byte	.Ldebug_ranges3-.Ldebug_ranges2
 1131              	.Ldebug_ranges2:
 1132 0004 0500     		.2byte	0x5
 1133 0006 04       		.byte	0x4
 1134 0007 00       		.byte	0
 1135 0008 00000000 		.4byte	0
 1136              	.LLRL3:
 1137 000c 07       		.byte	0x7
 1138 000d 00000000 		.4byte	.LFB432
 1139 0011 74       		.uleb128 .LFE432-.LFB432
 1140 0012 00       		.byte	0
ARM GAS  C:\Users\DEVELO~1\AppData\Local\Temp\ccR1ESDW.s 			page 21


 1141              	.Ldebug_ranges3:
 1142              		.section	.debug_line,"",%progbits
 1143              	.Ldebug_line0:
 1144 0000 55020000 		.section	.debug_str,"MS",%progbits,1
 1144      0300A801 
 1144      00000201 
 1144      FB0E0D00 
 1144      01010101 
 1145              	.LASF56:
 1146 0000 44434353 		.ascii	"DCCSW\000"
 1146      5700
 1147              	.LASF84:
 1148 0006 6D70752F 		.ascii	"mpu/mpu_config.c\000"
 1148      6D70755F 
 1148      636F6E66 
 1148      69672E63 
 1148      00
 1149              	.LASF68:
 1150 0017 54595045 		.ascii	"TYPE\000"
 1150      00
 1151              	.LASF2:
 1152 001c 73686F72 		.ascii	"short int\000"
 1152      7420696E 
 1152      7400
 1153              	.LASF17:
 1154 0026 73697A65 		.ascii	"size_t\000"
 1154      5F7400
 1155              	.LASF53:
 1156 002d 44434953 		.ascii	"DCISW\000"
 1156      5700
 1157              	.LASF18:
 1158 0033 6C6F6E67 		.ascii	"long double\000"
 1158      20646F75 
 1158      626C6500 
 1159              	.LASF6:
 1160 003f 5F5F7569 		.ascii	"__uint32_t\000"
 1160      6E743332 
 1160      5F7400
 1161              	.LASF57:
 1162 004a 44434349 		.ascii	"DCCIMVAC\000"
 1162      4D564143 
 1162      00
 1163              	.LASF83:
 1164 0053 474E5520 		.ascii	"GNU C17 11.3.1 20220712 -mcpu=cortex-m7 -mthumb -mf"
 1164      43313720 
 1164      31312E33 
 1164      2E312032 
 1164      30323230 
 1165 0086 6C6F6174 		.ascii	"loat-abi=soft -march=armv7e-m -ggdb -O2 -fomit-fram"
 1165      2D616269 
 1165      3D736F66 
 1165      74202D6D 
 1165      61726368 
 1166 00b9 652D706F 		.ascii	"e-pointer -falign-functions=16 -ffunction-sections "
 1166      696E7465 
 1166      72202D66 
 1166      616C6967 
ARM GAS  C:\Users\DEVELO~1\AppData\Local\Temp\ccR1ESDW.s 			page 22


 1166      6E2D6675 
 1167 00ec 2D666461 		.ascii	"-fdata-sections -fno-common\000"
 1167      74612D73 
 1167      65637469 
 1167      6F6E7320 
 1167      2D666E6F 
 1168              	.LASF62:
 1169 0108 41484250 		.ascii	"AHBPCR\000"
 1169      435200
 1170              	.LASF20:
 1171 010f 43505549 		.ascii	"CPUID\000"
 1171      4400
 1172              	.LASF46:
 1173 0115 4D564652 		.ascii	"MVFR1\000"
 1173      3100
 1174              	.LASF12:
 1175 011b 75696E74 		.ascii	"uint8_t\000"
 1175      385F7400 
 1176              	.LASF67:
 1177 0123 5343425F 		.ascii	"SCB_Type\000"
 1177      54797065 
 1177      00
 1178              	.LASF14:
 1179 012c 75696E74 		.ascii	"uintptr_t\000"
 1179      7074725F 
 1179      7400
 1180              	.LASF59:
 1181 0136 52455345 		.ascii	"RESERVED7\000"
 1181      52564544 
 1181      3700
 1182              	.LASF38:
 1183 0140 434C4944 		.ascii	"CLIDR\000"
 1183      5200
 1184              	.LASF43:
 1185 0146 53544952 		.ascii	"STIR\000"
 1185      00
 1186              	.LASF34:
 1187 014b 49445F41 		.ascii	"ID_AFR\000"
 1187      465200
 1188              	.LASF16:
 1189 0152 5F5F6E6F 		.ascii	"__nocache_end__\000"
 1189      63616368 
 1189      655F656E 
 1189      645F5F00 
 1190              	.LASF45:
 1191 0162 4D564652 		.ascii	"MVFR0\000"
 1191      3000
 1192              	.LASF21:
 1193 0168 49435352 		.ascii	"ICSR\000"
 1193      00
 1194              	.LASF47:
 1195 016d 4D564652 		.ascii	"MVFR2\000"
 1195      3200
 1196              	.LASF66:
 1197 0173 41424653 		.ascii	"ABFSR\000"
 1197      5200
 1198              	.LASF8:
ARM GAS  C:\Users\DEVELO~1\AppData\Local\Temp\ccR1ESDW.s 			page 23


 1199 0179 6C6F6E67 		.ascii	"long long int\000"
 1199      206C6F6E 
 1199      6720696E 
 1199      7400
 1200              	.LASF30:
 1201 0187 42464152 		.ascii	"BFAR\000"
 1201      00
 1202              	.LASF4:
 1203 018c 6C6F6E67 		.ascii	"long int\000"
 1203      20696E74 
 1203      00
 1204              	.LASF88:
 1205 0195 62617365 		.ascii	"base\000"
 1205      00
 1206              	.LASF81:
 1207 019a 72656769 		.ascii	"region_size\000"
 1207      6F6E5F73 
 1207      697A6500 
 1208              	.LASF39:
 1209 01a6 43435349 		.ascii	"CCSIDR\000"
 1209      445200
 1210              	.LASF5:
 1211 01ad 5F5F7569 		.ascii	"__uint8_t\000"
 1211      6E74385F 
 1211      7400
 1212              	.LASF26:
 1213 01b7 43465352 		.ascii	"CFSR\000"
 1213      00
 1214              	.LASF49:
 1215 01bc 49434941 		.ascii	"ICIALLU\000"
 1215      4C4C5500 
 1216              	.LASF52:
 1217 01c4 4443494D 		.ascii	"DCIMVAC\000"
 1217      56414300 
 1218              	.LASF60:
 1219 01cc 4954434D 		.ascii	"ITCMCR\000"
 1219      435200
 1220              	.LASF51:
 1221 01d3 4943494D 		.ascii	"ICIMVAU\000"
 1221      56415500 
 1222              	.LASF36:
 1223 01db 49445F49 		.ascii	"ID_ISAR\000"
 1223      53415200 
 1224              	.LASF23:
 1225 01e3 41495243 		.ascii	"AIRCR\000"
 1225      5200
 1226              	.LASF1:
 1227 01e9 756E7369 		.ascii	"unsigned char\000"
 1227      676E6564 
 1227      20636861 
 1227      7200
 1228              	.LASF69:
 1229 01f7 4354524C 		.ascii	"CTRL\000"
 1229      00
 1230              	.LASF0:
 1231 01fc 7369676E 		.ascii	"signed char\000"
 1231      65642063 
ARM GAS  C:\Users\DEVELO~1\AppData\Local\Temp\ccR1ESDW.s 			page 24


 1231      68617200 
 1232              	.LASF24:
 1233 0208 53485052 		.ascii	"SHPR\000"
 1233      00
 1234              	.LASF9:
 1235 020d 6C6F6E67 		.ascii	"long long unsigned int\000"
 1235      206C6F6E 
 1235      6720756E 
 1235      7369676E 
 1235      65642069 
 1236              	.LASF25:
 1237 0224 53484353 		.ascii	"SHCSR\000"
 1237      5200
 1238              	.LASF32:
 1239 022a 49445F50 		.ascii	"ID_PFR\000"
 1239      465200
 1240              	.LASF11:
 1241 0231 756E7369 		.ascii	"unsigned int\000"
 1241      676E6564 
 1241      20696E74 
 1241      00
 1242              	.LASF85:
 1243 023e 433A5C50 		.ascii	"C:\\PROJET\\ChibiOS project\\ChibiOS_21.11.4\\demos"
 1243      524F4A45 
 1243      545C4368 
 1243      6962694F 
 1243      53207072 
 1244 026d 5C53544D 		.ascii	"\\STM32\\RT-STM32H743ZI_REV_XY-NUCLEO144\000"
 1244      33325C52 
 1244      542D5354 
 1244      4D333248 
 1244      3734335A 
 1245              	.LASF55:
 1246 0294 4443434D 		.ascii	"DCCMVAC\000"
 1246      56414300 
 1247              	.LASF29:
 1248 029c 4D4D4641 		.ascii	"MMFAR\000"
 1248      5200
 1249              	.LASF82:
 1250 02a2 72617372 		.ascii	"rasr_size\000"
 1250      5F73697A 
 1250      6500
 1251              	.LASF40:
 1252 02ac 43535345 		.ascii	"CSSELR\000"
 1252      4C5200
 1253              	.LASF3:
 1254 02b3 73686F72 		.ascii	"short unsigned int\000"
 1254      7420756E 
 1254      7369676E 
 1254      65642069 
 1254      6E7400
 1255              	.LASF19:
 1256 02c6 63686172 		.ascii	"char\000"
 1256      00
 1257              	.LASF54:
 1258 02cb 4443434D 		.ascii	"DCCMVAU\000"
 1258      56415500 
ARM GAS  C:\Users\DEVELO~1\AppData\Local\Temp\ccR1ESDW.s 			page 25


 1259              	.LASF22:
 1260 02d3 56544F52 		.ascii	"VTOR\000"
 1260      00
 1261              	.LASF72:
 1262 02d8 52424152 		.ascii	"RBAR_A1\000"
 1262      5F413100 
 1263              	.LASF74:
 1264 02e0 52424152 		.ascii	"RBAR_A2\000"
 1264      5F413200 
 1265              	.LASF76:
 1266 02e8 52424152 		.ascii	"RBAR_A3\000"
 1266      5F413300 
 1267              	.LASF28:
 1268 02f0 44465352 		.ascii	"DFSR\000"
 1268      00
 1269              	.LASF79:
 1270 02f5 5F426F6F 		.ascii	"_Bool\000"
 1270      6C00
 1271              	.LASF27:
 1272 02fb 48465352 		.ascii	"HFSR\000"
 1272      00
 1273              	.LASF63:
 1274 0300 43414352 		.ascii	"CACR\000"
 1274      00
 1275              	.LASF37:
 1276 0305 52455345 		.ascii	"RESERVED0\000"
 1276      52564544 
 1276      3000
 1277              	.LASF13:
 1278 030f 75696E74 		.ascii	"uint32_t\000"
 1278      33325F74 
 1278      00
 1279              	.LASF42:
 1280 0318 52455345 		.ascii	"RESERVED3\000"
 1280      52564544 
 1280      3300
 1281              	.LASF44:
 1282 0322 52455345 		.ascii	"RESERVED4\000"
 1282      52564544 
 1282      3400
 1283              	.LASF48:
 1284 032c 52455345 		.ascii	"RESERVED5\000"
 1284      52564544 
 1284      3500
 1285              	.LASF7:
 1286 0336 6C6F6E67 		.ascii	"long unsigned int\000"
 1286      20756E73 
 1286      69676E65 
 1286      6420696E 
 1286      7400
 1287              	.LASF50:
 1288 0348 52455345 		.ascii	"RESERVED6\000"
 1288      52564544 
 1288      3600
 1289              	.LASF65:
 1290 0352 52455345 		.ascii	"RESERVED8\000"
 1290      52564544 
ARM GAS  C:\Users\DEVELO~1\AppData\Local\Temp\ccR1ESDW.s 			page 26


 1290      3800
 1291              	.LASF10:
 1292 035c 5F5F7569 		.ascii	"__uintptr_t\000"
 1292      6E747074 
 1292      725F7400 
 1293              	.LASF58:
 1294 0368 44434349 		.ascii	"DCCISW\000"
 1294      535700
 1295              	.LASF87:
 1296 036f 6D70755F 		.ascii	"mpu_config_init_once\000"
 1296      636F6E66 
 1296      69675F69 
 1296      6E69745F 
 1296      6F6E6365 
 1297              	.LASF80:
 1298 0384 73697A65 		.ascii	"size\000"
 1298      00
 1299              	.LASF64:
 1300 0389 41484253 		.ascii	"AHBSCR\000"
 1300      435200
 1301              	.LASF70:
 1302 0390 52424152 		.ascii	"RBAR\000"
 1302      00
 1303              	.LASF71:
 1304 0395 52415352 		.ascii	"RASR\000"
 1304      00
 1305              	.LASF35:
 1306 039a 49445F4D 		.ascii	"ID_MFR\000"
 1306      465200
 1307              	.LASF31:
 1308 03a1 41465352 		.ascii	"AFSR\000"
 1308      00
 1309              	.LASF61:
 1310 03a6 4454434D 		.ascii	"DTCMCR\000"
 1310      435200
 1311              	.LASF33:
 1312 03ad 49445F44 		.ascii	"ID_DFR\000"
 1312      465200
 1313              	.LASF15:
 1314 03b4 5F5F6E6F 		.ascii	"__nocache_base__\000"
 1314      63616368 
 1314      655F6261 
 1314      73655F5F 
 1314      00
 1315              	.LASF86:
 1316 03c5 696E6974 		.ascii	"initialized\000"
 1316      69616C69 
 1316      7A656400 
 1317              	.LASF41:
 1318 03d1 43504143 		.ascii	"CPACR\000"
 1318      5200
 1319              	.LASF73:
 1320 03d7 52415352 		.ascii	"RASR_A1\000"
 1320      5F413100 
 1321              	.LASF75:
 1322 03df 52415352 		.ascii	"RASR_A2\000"
 1322      5F413200 
ARM GAS  C:\Users\DEVELO~1\AppData\Local\Temp\ccR1ESDW.s 			page 27


 1323              	.LASF77:
 1324 03e7 52415352 		.ascii	"RASR_A3\000"
 1324      5F413300 
 1325              	.LASF78:
 1326 03ef 4D50555F 		.ascii	"MPU_Type\000"
 1326      54797065 
 1326      00
 1327              		.ident	"GCC: (Arm GNU Toolchain 11.3.Rel1) 11.3.1 20220712"
ARM GAS  C:\Users\DEVELO~1\AppData\Local\Temp\ccR1ESDW.s 			page 28


DEFINED SYMBOLS
                            *ABS*:00000000 mpu_config.c
C:\Users\DEVELO~1\AppData\Local\Temp\ccR1ESDW.s:18     .text.mpu_config_init_once:00000000 $t
C:\Users\DEVELO~1\AppData\Local\Temp\ccR1ESDW.s:25     .text.mpu_config_init_once:00000000 mpu_config_init_once
C:\Users\DEVELO~1\AppData\Local\Temp\ccR1ESDW.s:147    .text.mpu_config_init_once:00000064 $d
C:\Users\DEVELO~1\AppData\Local\Temp\ccR1ESDW.s:158    .bss.initialized:00000000 initialized
C:\Users\DEVELO~1\AppData\Local\Temp\ccR1ESDW.s:159    .bss.initialized:00000000 $d

UNDEFINED SYMBOLS
__nocache_end__
__nocache_base__
