ARM GAS  C:\Users\DEVELO~1\AppData\Local\Temp\ccovQorn.s 			page 1


   1              		.cpu cortex-m7
   2              		.arch armv7e-m
   3              		.fpu softvfp
   4              		.eabi_attribute 20, 1
   5              		.eabi_attribute 21, 1
   6              		.eabi_attribute 23, 3
   7              		.eabi_attribute 24, 1
   8              		.eabi_attribute 25, 1
   9              		.eabi_attribute 26, 1
  10              		.eabi_attribute 30, 2
  11              		.eabi_attribute 34, 1
  12              		.eabi_attribute 18, 4
  13              		.file	"mpu_config.c"
  14              		.text
  15              	.Ltext0:
  16              		.cfi_sections	.debug_frame
  17              		.section	.text.mpu_config_init_once,"ax",%progbits
  18              		.align	1
  19              		.p2align 4,,15
  20              		.global	mpu_config_init_once
  21              		.syntax unified
  22              		.thumb
  23              		.thumb_func
  24              		.type	mpu_config_init_once, %function
  25              	mpu_config_init_once:
  26              	.LFB142:
  27              		.file 1 "mpu/mpu_config.c"
  28              		.loc 1 44 33 view -0
  29              		.cfi_startproc
  30              		@ args = 0, pretend = 0, frame = 0
  31              		@ frame_needed = 0, uses_anonymous_args = 0
  32              		.loc 1 45 5 view .LVU1
  33              		.loc 1 46 5 view .LVU2
  34              	.LVL0:
  35              		.loc 1 47 5 view .LVU3
  36              		.loc 1 48 5 view .LVU4
  37              		.loc 1 49 5 view .LVU5
  38              		.loc 1 50 5 view .LVU6
  39              		.loc 1 52 5 view .LVU7
  40              		.loc 1 44 33 is_stmt 0 view .LVU8
  41 0000 30B5     		push	{r4, r5, lr}
  42              		.cfi_def_cfa_offset 12
  43              		.cfi_offset 4, -12
  44              		.cfi_offset 5, -8
  45              		.cfi_offset 14, -4
  46              		.loc 1 52 9 view .LVU9
  47 0002 424D     		ldr	r5, .L21
  48 0004 2878     		ldrb	r0, [r5]	@ zero_extendqisi2
  49              		.loc 1 52 8 view .LVU10
  50 0006 78B9     		cbnz	r0, .L2
  51              		.loc 1 56 5 is_stmt 1 view .LVU11
  52              		.loc 1 60 5 view .LVU12
  53              	.LVL1:
  54              	.LBB96:
  55              	.LBI96:
  56              		.loc 1 15 13 view .LVU13
  57              	.LBB97:
ARM GAS  C:\Users\DEVELO~1\AppData\Local\Temp\ccovQorn.s 			page 2


  58              		.loc 1 19 5 view .LVU14
  59              		.loc 1 20 5 view .LVU15
  60              		.loc 1 22 5 view .LVU16
  61              	.LBE97:
  62              	.LBE96:
  63              		.loc 1 46 21 is_stmt 0 view .LVU17
  64 0008 414C     		ldr	r4, .L21+4
  65              		.loc 1 47 21 view .LVU18
  66 000a 424A     		ldr	r2, .L21+8
  67              		.loc 1 56 8 view .LVU19
  68 000c 14F01F03 		ands	r3, r4, #31
  69 0010 18BF     		it	ne
  70 0012 0123     		movne	r3, #1
  71              	.LBB102:
  72              	.LBB98:
  73              		.loc 1 22 8 view .LVU20
  74 0014 B2EB040C 		subs	ip, r2, r4
  75 0018 08BF     		it	eq
  76 001a 43F00103 		orreq	r3, r3, #1
  77 001e 9442     		cmp	r4, r2
  78 0020 08BF     		it	eq
  79 0022 43F00103 		orreq	r3, r3, #1
  80 0026 03B1     		cbz	r3, .L19
  81              	.LVL2:
  82              	.L2:
  83              		.loc 1 22 8 view .LVU21
  84              	.LBE98:
  85              	.LBE102:
  86              		.loc 1 99 1 view .LVU22
  87 0028 30BD     		pop	{r4, r5, pc}
  88              	.LVL3:
  89              	.L19:
  90              	.LBB103:
  91              	.LBB99:
  92              		.loc 1 26 37 is_stmt 1 view .LVU23
  93 002a BCF1200F 		cmp	ip, #32
  94 002e 69D9     		bls	.L8
  95              		.loc 1 19 14 is_stmt 0 view .LVU24
  96 0030 0421     		movs	r1, #4
  97              		.loc 1 20 15 view .LVU25
  98 0032 2022     		movs	r2, #32
  99              	.LVL4:
 100              	.L4:
 101              		.loc 1 27 9 is_stmt 1 view .LVU26
 102              		.loc 1 27 25 is_stmt 0 view .LVU27
 103 0034 5200     		lsls	r2, r2, #1
 104              	.LVL5:
 105              		.loc 1 28 9 is_stmt 1 view .LVU28
 106              		.loc 1 28 18 is_stmt 0 view .LVU29
 107 0036 0131     		adds	r1, r1, #1
 108              	.LVL6:
 109              		.loc 1 26 37 is_stmt 1 view .LVU30
 110              		.loc 1 26 29 is_stmt 0 view .LVU31
 111 0038 9445     		cmp	ip, r2
 112 003a 94BF     		ite	ls
 113 003c 0023     		movls	r3, #0
 114 003e 0123     		movhi	r3, #1
ARM GAS  C:\Users\DEVELO~1\AppData\Local\Temp\ccovQorn.s 			page 3


 115              		.loc 1 26 37 view .LVU32
 116 0040 1E29     		cmp	r1, #30
 117 0042 01D8     		bhi	.L10
 118 0044 002B     		cmp	r3, #0
 119 0046 F5D1     		bne	.L4
 120              	.L10:
 121              		.loc 1 31 45 view .LVU33
 122 0048 511E     		subs	r1, r2, #1
 123              	.LVL7:
 124              	.L3:
 125              		.loc 1 31 5 is_stmt 1 view .LVU34
 126              		.loc 1 35 5 view .LVU35
 127              		.loc 1 39 5 view .LVU36
 128              		.loc 1 40 5 view .LVU37
 129              		.loc 1 41 5 view .LVU38
 130              		.loc 1 41 5 is_stmt 0 view .LVU39
 131              	.LBE99:
 132              	.LBE103:
 133              		.loc 1 65 5 is_stmt 1 view .LVU40
 134              	.LBB104:
 135              	.LBB100:
 136              		.loc 1 35 8 is_stmt 0 view .LVU41
 137 004a 2243     		orrs	r2, r2, r4
 138              	.LVL8:
 139              		.loc 1 35 8 view .LVU42
 140              	.LBE100:
 141              	.LBE104:
 142              		.loc 1 65 8 view .LVU43
 143 004c 0A42     		tst	r2, r1
 144 004e 00D1     		bne	.L9
 145 0050 0BB1     		cbz	r3, .L20
 146              	.L9:
 147              		.loc 1 62 16 view .LVU44
 148 0052 0020     		movs	r0, #0
 149              	.LVL9:
 150              		.loc 1 99 1 view .LVU45
 151 0054 30BD     		pop	{r4, r5, pc}
 152              	.LVL10:
 153              	.L20:
 154              		.loc 1 69 5 is_stmt 1 view .LVU46
 155              	.LBB105:
 156              	.LBI105:
 157              		.file 2 "../../../os/common/ext/ARM/CMSIS/Core/Include/mpu_armv7.h"
 158              		.loc 2 200 22 view .LVU47
 159              	.LBB106:
 160              		.loc 2 202 3 view .LVU48
 161              	.LBB107:
 162              	.LBI107:
 163              		.file 3 "../../../os/common/ext/ARM/CMSIS/Core/Include/cmsis_gcc.h"
 164              		.loc 3 877 27 view .LVU49
 165              	.LBB108:
 166              		.loc 3 879 3 view .LVU50
 167              		.syntax unified
 168              	@ 879 "../../../os/common/ext/ARM/CMSIS/Core/Include/cmsis_gcc.h" 1
 169 0056 BFF34F8F 		dsb 0xF
 170              	@ 0 "" 2
 171              		.thumb
ARM GAS  C:\Users\DEVELO~1\AppData\Local\Temp\ccovQorn.s 			page 4


 172              		.syntax unified
 173              	.LBE108:
 174              	.LBE107:
 175              		.loc 2 203 3 view .LVU51
 176              	.LBB109:
 177              	.LBI109:
 178              		.loc 3 866 27 view .LVU52
 179              	.LBB110:
 180              		.loc 3 868 3 view .LVU53
 181              		.syntax unified
 182              	@ 868 "../../../os/common/ext/ARM/CMSIS/Core/Include/cmsis_gcc.h" 1
 183 005a BFF36F8F 		isb 0xF
 184              	@ 0 "" 2
 185              		.thumb
 186              		.syntax unified
 187              	.LBE110:
 188              	.LBE109:
 189              		.loc 2 205 3 view .LVU54
 190              		.loc 2 205 14 is_stmt 0 view .LVU55
 191 005e 2E49     		ldr	r1, .L21+12
 192 0060 4A6A     		ldr	r2, [r1, #36]
 193 0062 22F48032 		bic	r2, r2, #65536
 194 0066 4A62     		str	r2, [r1, #36]
 195              		.loc 2 207 3 is_stmt 1 view .LVU56
 196              		.loc 2 207 14 is_stmt 0 view .LVU57
 197 0068 D1F89420 		ldr	r2, [r1, #148]
 198 006c 22F00102 		bic	r2, r2, #1
 199 0070 C1F89420 		str	r2, [r1, #148]
 200              	.LBE106:
 201              	.LBE105:
 202              		.loc 1 70 5 is_stmt 1 view .LVU58
 203              	.LBB111:
 204              	.LBI111:
 205              		.loc 3 877 27 view .LVU59
 206              	.LBB112:
 207              		.loc 3 879 3 view .LVU60
 208              		.syntax unified
 209              	@ 879 "../../../os/common/ext/ARM/CMSIS/Core/Include/cmsis_gcc.h" 1
 210 0074 BFF34F8F 		dsb 0xF
 211              	@ 0 "" 2
 212              		.thumb
 213              		.syntax unified
 214              	.LBE112:
 215              	.LBE111:
 216              		.loc 1 71 5 view .LVU61
 217              	.LBB113:
 218              	.LBI113:
 219              		.loc 3 866 27 view .LVU62
 220              	.LBB114:
 221              		.loc 3 868 3 view .LVU63
 222              		.syntax unified
 223              	@ 868 "../../../os/common/ext/ARM/CMSIS/Core/Include/cmsis_gcc.h" 1
 224 0078 BFF36F8F 		isb 0xF
 225              	@ 0 "" 2
 226              		.thumb
 227              		.syntax unified
 228              	.LBE114:
ARM GAS  C:\Users\DEVELO~1\AppData\Local\Temp\ccovQorn.s 			page 5


 229              	.LBE113:
 230              		.loc 1 77 5 view .LVU64
 231              		.loc 1 77 23 is_stmt 0 view .LVU65
 232 007c 24F01F02 		bic	r2, r4, #31
 233              	.LBB115:
 234              	.LBB116:
 235              		.loc 2 226 13 view .LVU66
 236 0080 4FF04370 		mov	r0, #51118080
 237              	.LBE116:
 238              	.LBE115:
 239              		.loc 1 77 5 view .LVU67
 240 0084 42F01302 		orr	r2, r2, #19
 241              	.LVL11:
 242              	.LBB118:
 243              	.LBI115:
 244              		.loc 2 223 22 is_stmt 1 view .LVU68
 245              	.LBB117:
 246              		.loc 2 225 3 view .LVU69
 247              		.loc 2 225 13 is_stmt 0 view .LVU70
 248 0088 C1F89C20 		str	r2, [r1, #156]
 249              		.loc 2 226 3 is_stmt 1 view .LVU71
 250              		.loc 2 226 13 is_stmt 0 view .LVU72
 251 008c C1F8A000 		str	r0, [r1, #160]
 252              	.LVL12:
 253              		.loc 2 226 13 view .LVU73
 254              	.LBE117:
 255              	.LBE118:
 256              		.loc 1 87 5 is_stmt 1 view .LVU74
 257              	.LBB119:
 258              	.LBI119:
 259              		.loc 3 877 27 view .LVU75
 260              	.LBB120:
 261              		.loc 3 879 3 view .LVU76
 262              		.syntax unified
 263              	@ 879 "../../../os/common/ext/ARM/CMSIS/Core/Include/cmsis_gcc.h" 1
 264 0090 BFF34F8F 		dsb 0xF
 265              	@ 0 "" 2
 266              		.thumb
 267              		.syntax unified
 268              	.LBE120:
 269              	.LBE119:
 270              		.loc 1 88 5 view .LVU77
 271              	.LBB121:
 272              	.LBI121:
 273              		.loc 3 866 27 view .LVU78
 274              	.LBB122:
 275              		.loc 3 868 3 view .LVU79
 276              		.syntax unified
 277              	@ 868 "../../../os/common/ext/ARM/CMSIS/Core/Include/cmsis_gcc.h" 1
 278 0094 BFF36F8F 		isb 0xF
 279              	@ 0 "" 2
 280              		.thumb
 281              		.syntax unified
 282              	.LBE122:
 283              	.LBE121:
 284              		.loc 1 90 5 view .LVU80
 285              	.LBB123:
ARM GAS  C:\Users\DEVELO~1\AppData\Local\Temp\ccovQorn.s 			page 6


 286              	.LBI123:
 287              		.file 4 "../../../os/common/ext/ARM/CMSIS/Core/Include/core_cm7.h"
 288              		.loc 4 2357 22 view .LVU81
 289              	.LBB124:
 290              		.loc 4 2360 5 view .LVU82
 291              		.loc 4 2361 5 view .LVU83
 292              		.loc 4 2362 5 view .LVU84
 293              		.loc 4 2364 5 view .LVU85
 294              		.loc 4 2364 17 is_stmt 0 view .LVU86
 295 0098 C1F88430 		str	r3, [r1, #132]
 296              		.loc 4 2365 5 is_stmt 1 view .LVU87
 297              	.LBB125:
 298              	.LBI125:
 299              		.loc 3 877 27 view .LVU88
 300              	.LBB126:
 301              		.loc 3 879 3 view .LVU89
 302              		.syntax unified
 303              	@ 879 "../../../os/common/ext/ARM/CMSIS/Core/Include/cmsis_gcc.h" 1
 304 009c BFF34F8F 		dsb 0xF
 305              	@ 0 "" 2
 306              		.thumb
 307              		.syntax unified
 308              	.LBE126:
 309              	.LBE125:
 310              		.loc 4 2367 5 view .LVU90
 311              		.loc 4 2367 12 is_stmt 0 view .LVU91
 312 00a0 D1F88030 		ldr	r3, [r1, #128]
 313              	.LVL13:
 314              		.loc 4 2370 5 is_stmt 1 view .LVU92
 315              		.loc 4 2374 52 is_stmt 0 view .LVU93
 316 00a4 43F6E07E 		movw	lr, #16352
 317              		.loc 4 2370 10 view .LVU94
 318 00a8 C3F34E34 		ubfx	r4, r3, #13, #15
 319              		.loc 4 2372 12 view .LVU95
 320 00ac C3F3C90C 		ubfx	ip, r3, #3, #10
 321 00b0 6401     		lsls	r4, r4, #5
 322              	.LVL14:
 323              	.L7:
 324              		.loc 4 2371 5 is_stmt 1 view .LVU96
 325              		.loc 4 2372 7 view .LVU97
 326              		.loc 4 2374 52 is_stmt 0 view .LVU98
 327 00b2 04EA0E00 		and	r0, r4, lr
 328              		.loc 4 2372 12 view .LVU99
 329 00b6 6346     		mov	r3, ip
 330              	.L6:
 331              	.LVL15:
 332              		.loc 4 2373 7 is_stmt 1 view .LVU100
 333              		.loc 4 2374 9 view .LVU101
 334              		.loc 4 2374 73 is_stmt 0 view .LVU102
 335 00b8 40EA8372 		orr	r2, r0, r3, lsl #30
 336              		.loc 4 2379 20 view .LVU103
 337 00bc 013B     		subs	r3, r3, #1
 338              	.LVL16:
 339              		.loc 4 2374 20 view .LVU104
 340 00be C1F86022 		str	r2, [r1, #608]
 341              		.loc 4 2379 23 is_stmt 1 view .LVU105
 342              	.LVL17:
ARM GAS  C:\Users\DEVELO~1\AppData\Local\Temp\ccovQorn.s 			page 7


 343              		.loc 4 2379 23 is_stmt 0 view .LVU106
 344 00c2 5A1C     		adds	r2, r3, #1
 345 00c4 F8D1     		bne	.L6
 346              		.loc 4 2380 20 is_stmt 1 view .LVU107
 347 00c6 203C     		subs	r4, r4, #32
 348 00c8 14F1200F 		cmn	r4, #32
 349 00cc F1D1     		bne	.L7
 350              		.loc 4 2382 5 view .LVU108
 351              	.LBB127:
 352              	.LBI127:
 353              		.loc 3 877 27 view .LVU109
 354              	.LBB128:
 355              		.loc 3 879 3 view .LVU110
 356              		.syntax unified
 357              	@ 879 "../../../os/common/ext/ARM/CMSIS/Core/Include/cmsis_gcc.h" 1
 358 00ce BFF34F8F 		dsb 0xF
 359              	@ 0 "" 2
 360              		.thumb
 361              		.syntax unified
 362              	.LBE128:
 363              	.LBE127:
 364              		.loc 4 2383 5 view .LVU111
 365              	.LBB129:
 366              	.LBI129:
 367              		.loc 3 866 27 view .LVU112
 368              	.LBB130:
 369              		.loc 3 868 3 view .LVU113
 370              		.syntax unified
 371              	@ 868 "../../../os/common/ext/ARM/CMSIS/Core/Include/cmsis_gcc.h" 1
 372 00d2 BFF36F8F 		isb 0xF
 373              	@ 0 "" 2
 374              	.LVL18:
 375              		.loc 3 868 3 is_stmt 0 view .LVU114
 376              		.thumb
 377              		.syntax unified
 378              	.LBE130:
 379              	.LBE129:
 380              	.LBE124:
 381              	.LBE123:
 382              		.loc 1 91 5 is_stmt 1 view .LVU115
 383              	.LBB131:
 384              	.LBI131:
 385              		.loc 3 877 27 view .LVU116
 386              	.LBB132:
 387              		.loc 3 879 3 view .LVU117
 388              		.syntax unified
 389              	@ 879 "../../../os/common/ext/ARM/CMSIS/Core/Include/cmsis_gcc.h" 1
 390 00d6 BFF34F8F 		dsb 0xF
 391              	@ 0 "" 2
 392              		.thumb
 393              		.syntax unified
 394              	.LBE132:
 395              	.LBE131:
 396              		.loc 1 92 5 view .LVU118
 397              	.LBB133:
 398              	.LBI133:
 399              		.loc 3 866 27 view .LVU119
ARM GAS  C:\Users\DEVELO~1\AppData\Local\Temp\ccovQorn.s 			page 8


 400              	.LBB134:
 401              		.loc 3 868 3 view .LVU120
 402              		.syntax unified
 403              	@ 868 "../../../os/common/ext/ARM/CMSIS/Core/Include/cmsis_gcc.h" 1
 404 00da BFF36F8F 		isb 0xF
 405              	@ 0 "" 2
 406              		.thumb
 407              		.syntax unified
 408              	.LBE134:
 409              	.LBE133:
 410              		.loc 1 93 5 view .LVU121
 411              	.LVL19:
 412              	.LBB135:
 413              	.LBI135:
 414              		.loc 2 188 22 view .LVU122
 415              	.LBB136:
 416              		.loc 2 190 3 view .LVU123
 417              	.LBB137:
 418              	.LBI137:
 419              		.loc 3 877 27 view .LVU124
 420              	.LBB138:
 421              		.loc 3 879 3 view .LVU125
 422              		.syntax unified
 423              	@ 879 "../../../os/common/ext/ARM/CMSIS/Core/Include/cmsis_gcc.h" 1
 424 00de BFF34F8F 		dsb 0xF
 425              	@ 0 "" 2
 426              		.thumb
 427              		.syntax unified
 428              	.LBE138:
 429              	.LBE137:
 430              		.loc 2 191 3 view .LVU126
 431              	.LBB139:
 432              	.LBI139:
 433              		.loc 3 866 27 view .LVU127
 434              	.LBB140:
 435              		.loc 3 868 3 view .LVU128
 436              		.syntax unified
 437              	@ 868 "../../../os/common/ext/ARM/CMSIS/Core/Include/cmsis_gcc.h" 1
 438 00e2 BFF36F8F 		isb 0xF
 439              	@ 0 "" 2
 440              		.thumb
 441              		.syntax unified
 442              	.LBE140:
 443              	.LBE139:
 444              		.loc 2 192 3 view .LVU129
 445              		.loc 2 192 13 is_stmt 0 view .LVU130
 446 00e6 0523     		movs	r3, #5
 447 00e8 C1F89430 		str	r3, [r1, #148]
 448              		.loc 2 194 3 is_stmt 1 view .LVU131
 449              		.loc 2 194 14 is_stmt 0 view .LVU132
 450 00ec 4B6A     		ldr	r3, [r1, #36]
 451 00ee 43F48033 		orr	r3, r3, #65536
 452 00f2 4B62     		str	r3, [r1, #36]
 453              	.LVL20:
 454              		.loc 2 194 14 view .LVU133
 455              	.LBE136:
 456              	.LBE135:
ARM GAS  C:\Users\DEVELO~1\AppData\Local\Temp\ccovQorn.s 			page 9


 457              		.loc 1 94 5 is_stmt 1 view .LVU134
 458              	.LBB141:
 459              	.LBI141:
 460              		.loc 3 877 27 view .LVU135
 461              	.LBB142:
 462              		.loc 3 879 3 view .LVU136
 463              		.syntax unified
 464              	@ 879 "../../../os/common/ext/ARM/CMSIS/Core/Include/cmsis_gcc.h" 1
 465 00f4 BFF34F8F 		dsb 0xF
 466              	@ 0 "" 2
 467              		.thumb
 468              		.syntax unified
 469              	.LBE142:
 470              	.LBE141:
 471              		.loc 1 95 5 view .LVU137
 472              	.LBB143:
 473              	.LBI143:
 474              		.loc 3 866 27 view .LVU138
 475              	.LBB144:
 476              		.loc 3 868 3 view .LVU139
 477              		.syntax unified
 478              	@ 868 "../../../os/common/ext/ARM/CMSIS/Core/Include/cmsis_gcc.h" 1
 479 00f8 BFF36F8F 		isb 0xF
 480              	@ 0 "" 2
 481              		.thumb
 482              		.syntax unified
 483              	.LBE144:
 484              	.LBE143:
 485              		.loc 1 97 5 view .LVU140
 486              		.loc 1 97 17 is_stmt 0 view .LVU141
 487 00fc 0123     		movs	r3, #1
 488              		.loc 1 98 12 view .LVU142
 489 00fe 1846     		mov	r0, r3
 490              		.loc 1 97 17 view .LVU143
 491 0100 2B70     		strb	r3, [r5]
 492              		.loc 1 98 5 is_stmt 1 view .LVU144
 493              	.LVL21:
 494              		.loc 1 99 1 is_stmt 0 view .LVU145
 495 0102 30BD     		pop	{r4, r5, pc}
 496              	.LVL22:
 497              	.L8:
 498              	.LBB145:
 499              	.LBB101:
 500              		.loc 1 26 37 view .LVU146
 501 0104 1F21     		movs	r1, #31
 502              		.loc 1 20 15 view .LVU147
 503 0106 2022     		movs	r2, #32
 504 0108 9FE7     		b	.L3
 505              	.L22:
 506 010a 00BF     		.align	2
 507              	.L21:
 508 010c 00000000 		.word	.LANCHOR0
 509 0110 00000000 		.word	__ram_d2_start__
 510 0114 00000000 		.word	__ram_d2_end__
 511 0118 00ED00E0 		.word	-536810240
 512              	.LBE101:
 513              	.LBE145:
ARM GAS  C:\Users\DEVELO~1\AppData\Local\Temp\ccovQorn.s 			page 10


 514              		.cfi_endproc
 515              	.LFE142:
 516              		.size	mpu_config_init_once, .-mpu_config_init_once
 517              		.section	.bss.initialized.0,"aw",%nobits
 518              		.set	.LANCHOR0,. + 0
 519              		.type	initialized.0, %object
 520              		.size	initialized.0, 1
 521              	initialized.0:
 522 0000 00       		.space	1
 523              		.text
 524              	.Letext0:
 525              		.file 5 "c:\\chibistudio\\tools\\gnu tools arm embedded\\11.3 2022.08\\arm-none-eabi\\include\\mac
 526              		.file 6 "c:\\chibistudio\\tools\\gnu tools arm embedded\\11.3 2022.08\\arm-none-eabi\\include\\sys
 527              		.file 7 "mpu/mpu_config.h"
 528              		.section	.debug_info,"",%progbits
 529              	.Ldebug_info0:
 530 0000 3E080000 		.4byte	0x83e
 531 0004 0500     		.2byte	0x5
 532 0006 01       		.byte	0x1
 533 0007 04       		.byte	0x4
 534 0008 00000000 		.4byte	.Ldebug_abbrev0
 535 000c 1A       		.uleb128 0x1a
 536 000d B1000000 		.4byte	.LASF101
 537 0011 1D       		.byte	0x1d
 538 0012 29000000 		.4byte	.LASF102
 539 0016 59030000 		.4byte	.LASF103
 540 001a 2F000000 		.4byte	.LLRL14
 541 001e 00000000 		.4byte	0
 542 0022 00000000 		.4byte	.Ldebug_line0
 543 0026 04       		.uleb128 0x4
 544 0027 01       		.byte	0x1
 545 0028 06       		.byte	0x6
 546 0029 85020000 		.4byte	.LASF0
 547 002d 08       		.uleb128 0x8
 548 002e 26020000 		.4byte	.LASF5
 549 0032 05       		.byte	0x5
 550 0033 2B       		.byte	0x2b
 551 0034 18       		.byte	0x18
 552 0035 39000000 		.4byte	0x39
 553 0039 04       		.uleb128 0x4
 554 003a 01       		.byte	0x1
 555 003b 08       		.byte	0x8
 556 003c 66020000 		.4byte	.LASF1
 557 0040 04       		.uleb128 0x4
 558 0041 02       		.byte	0x2
 559 0042 05       		.byte	0x5
 560 0043 3A000000 		.4byte	.LASF2
 561 0047 04       		.uleb128 0x4
 562 0048 02       		.byte	0x2
 563 0049 07       		.byte	0x7
 564 004a 19030000 		.4byte	.LASF3
 565 004e 04       		.uleb128 0x4
 566 004f 04       		.byte	0x4
 567 0050 05       		.byte	0x5
 568 0051 11020000 		.4byte	.LASF4
 569 0055 08       		.uleb128 0x8
 570 0056 8B000000 		.4byte	.LASF6
ARM GAS  C:\Users\DEVELO~1\AppData\Local\Temp\ccovQorn.s 			page 11


 571 005a 05       		.byte	0x5
 572 005b 4F       		.byte	0x4f
 573 005c 19       		.byte	0x19
 574 005d 61000000 		.4byte	0x61
 575 0061 04       		.uleb128 0x4
 576 0062 04       		.byte	0x4
 577 0063 07       		.byte	0x7
 578 0064 D1020000 		.4byte	.LASF7
 579 0068 04       		.uleb128 0x4
 580 0069 08       		.byte	0x8
 581 006a 05       		.byte	0x5
 582 006b F6010000 		.4byte	.LASF8
 583 006f 04       		.uleb128 0x4
 584 0070 08       		.byte	0x8
 585 0071 07       		.byte	0x7
 586 0072 96020000 		.4byte	.LASF9
 587 0076 1B       		.uleb128 0x1b
 588 0077 04       		.byte	0x4
 589 0078 05       		.byte	0x5
 590 0079 696E7400 		.ascii	"int\000"
 591 007d 08       		.uleb128 0x8
 592 007e 40040000 		.4byte	.LASF10
 593 0082 05       		.byte	0x5
 594 0083 E8       		.byte	0xe8
 595 0084 1A       		.byte	0x1a
 596 0085 89000000 		.4byte	0x89
 597 0089 04       		.uleb128 0x4
 598 008a 04       		.byte	0x4
 599 008b 07       		.byte	0x7
 600 008c BE020000 		.4byte	.LASF11
 601 0090 08       		.uleb128 0x8
 602 0091 85010000 		.4byte	.LASF12
 603 0095 06       		.byte	0x6
 604 0096 18       		.byte	0x18
 605 0097 13       		.byte	0x13
 606 0098 2D000000 		.4byte	0x2d
 607 009c 09       		.uleb128 0x9
 608 009d 90000000 		.4byte	0x90
 609 00a1 08       		.uleb128 0x8
 610 00a2 E7030000 		.4byte	.LASF13
 611 00a6 06       		.byte	0x6
 612 00a7 30       		.byte	0x30
 613 00a8 14       		.byte	0x14
 614 00a9 55000000 		.4byte	0x55
 615 00ad 09       		.uleb128 0x9
 616 00ae A1000000 		.4byte	0xa1
 617 00b2 0A       		.uleb128 0xa
 618 00b3 AD000000 		.4byte	0xad
 619 00b7 08       		.uleb128 0x8
 620 00b8 96010000 		.4byte	.LASF14
 621 00bc 06       		.byte	0x6
 622 00bd 52       		.byte	0x52
 623 00be 15       		.byte	0x15
 624 00bf 7D000000 		.4byte	0x7d
 625 00c3 0A       		.uleb128 0xa
 626 00c4 B7000000 		.4byte	0xb7
 627 00c8 12       		.uleb128 0x12
ARM GAS  C:\Users\DEVELO~1\AppData\Local\Temp\ccovQorn.s 			page 12


 628 00c9 18000000 		.4byte	.LASF15
 629 00cd 12       		.byte	0x12
 630 00ce 90000000 		.4byte	0x90
 631 00d2 12       		.uleb128 0x12
 632 00d3 2C040000 		.4byte	.LASF16
 633 00d7 13       		.byte	0x13
 634 00d8 90000000 		.4byte	0x90
 635 00dc 04       		.uleb128 0x4
 636 00dd 08       		.byte	0x8
 637 00de 04       		.byte	0x4
 638 00df 54020000 		.4byte	.LASF17
 639 00e3 1C       		.uleb128 0x1c
 640 00e4 AC02     		.2byte	0x2ac
 641 00e6 04       		.byte	0x4
 642 00e7 C701     		.2byte	0x1c7
 643 00e9 09       		.byte	0x9
 644 00ea 5F030000 		.4byte	0x35f
 645 00ee 01       		.uleb128 0x1
 646 00ef 73010000 		.4byte	.LASF18
 647 00f3 C901     		.2byte	0x1c9
 648 00f5 B2000000 		.4byte	0xb2
 649 00f9 00       		.byte	0
 650 00fa 01       		.uleb128 0x1
 651 00fb E5010000 		.4byte	.LASF19
 652 00ff CA01     		.2byte	0x1ca
 653 0101 AD000000 		.4byte	0xad
 654 0105 04       		.byte	0x4
 655 0106 01       		.uleb128 0x1
 656 0107 37030000 		.4byte	.LASF20
 657 010b CB01     		.2byte	0x1cb
 658 010d AD000000 		.4byte	0xad
 659 0111 08       		.byte	0x8
 660 0112 01       		.uleb128 0x1
 661 0113 60020000 		.4byte	.LASF21
 662 0117 CC01     		.2byte	0x1cc
 663 0119 AD000000 		.4byte	0xad
 664 011d 0C       		.byte	0xc
 665 011e 0E       		.uleb128 0xe
 666 011f 53435200 		.ascii	"SCR\000"
 667 0123 CD01     		.2byte	0x1cd
 668 0125 AD000000 		.4byte	0xad
 669 0129 10       		.byte	0x10
 670 012a 0E       		.uleb128 0xe
 671 012b 43435200 		.ascii	"CCR\000"
 672 012f CE01     		.2byte	0x1ce
 673 0131 AD000000 		.4byte	0xad
 674 0135 14       		.byte	0x14
 675 0136 01       		.uleb128 0x1
 676 0137 91020000 		.4byte	.LASF22
 677 013b CF01     		.2byte	0x1cf
 678 013d 6F030000 		.4byte	0x36f
 679 0141 18       		.byte	0x18
 680 0142 01       		.uleb128 0x1
 681 0143 AD020000 		.4byte	.LASF23
 682 0147 D001     		.2byte	0x1d0
 683 0149 AD000000 		.4byte	0xad
 684 014d 24       		.byte	0x24
ARM GAS  C:\Users\DEVELO~1\AppData\Local\Temp\ccovQorn.s 			page 13


 685 014e 01       		.uleb128 0x1
 686 014f 30020000 		.4byte	.LASF24
 687 0153 D101     		.2byte	0x1d1
 688 0155 AD000000 		.4byte	0xad
 689 0159 28       		.byte	0x28
 690 015a 01       		.uleb128 0x1
 691 015b C4030000 		.4byte	.LASF25
 692 015f D201     		.2byte	0x1d2
 693 0161 AD000000 		.4byte	0xad
 694 0165 2C       		.byte	0x2c
 695 0166 01       		.uleb128 0x1
 696 0167 54030000 		.4byte	.LASF26
 697 016b D301     		.2byte	0x1d3
 698 016d AD000000 		.4byte	0xad
 699 0171 30       		.byte	0x30
 700 0172 01       		.uleb128 0x1
 701 0173 EA020000 		.4byte	.LASF27
 702 0177 D401     		.2byte	0x1d4
 703 0179 AD000000 		.4byte	0xad
 704 017d 34       		.byte	0x34
 705 017e 01       		.uleb128 0x1
 706 017f 0C020000 		.4byte	.LASF28
 707 0183 D501     		.2byte	0x1d5
 708 0185 AD000000 		.4byte	0xad
 709 0189 38       		.byte	0x38
 710 018a 01       		.uleb128 0x1
 711 018b 66040000 		.4byte	.LASF29
 712 018f D601     		.2byte	0x1d6
 713 0191 AD000000 		.4byte	0xad
 714 0195 3C       		.byte	0x3c
 715 0196 01       		.uleb128 0x1
 716 0197 4B000000 		.4byte	.LASF30
 717 019b D701     		.2byte	0x1d7
 718 019d 89030000 		.4byte	0x389
 719 01a1 40       		.byte	0x40
 720 01a2 01       		.uleb128 0x1
 721 01a3 97040000 		.4byte	.LASF31
 722 01a7 D801     		.2byte	0x1d8
 723 01a9 B2000000 		.4byte	0xb2
 724 01ad 48       		.byte	0x48
 725 01ae 01       		.uleb128 0x1
 726 01af AB010000 		.4byte	.LASF32
 727 01b3 D901     		.2byte	0x1d9
 728 01b5 B2000000 		.4byte	0xb2
 729 01b9 4C       		.byte	0x4c
 730 01ba 01       		.uleb128 0x1
 731 01bb 5F040000 		.4byte	.LASF33
 732 01bf DA01     		.2byte	0x1da
 733 01c1 A3030000 		.4byte	0x3a3
 734 01c5 50       		.byte	0x50
 735 01c6 01       		.uleb128 0x1
 736 01c7 CC040000 		.4byte	.LASF34
 737 01cb DB01     		.2byte	0x1db
 738 01cd BD030000 		.4byte	0x3bd
 739 01d1 60       		.byte	0x60
 740 01d2 01       		.uleb128 0x1
 741 01d3 D8030000 		.4byte	.LASF35
ARM GAS  C:\Users\DEVELO~1\AppData\Local\Temp\ccovQorn.s 			page 14


 742 01d7 DC01     		.2byte	0x1dc
 743 01d9 C2030000 		.4byte	0x3c2
 744 01dd 74       		.byte	0x74
 745 01de 01       		.uleb128 0x1
 746 01df A0010000 		.4byte	.LASF36
 747 01e3 DD01     		.2byte	0x1dd
 748 01e5 B2000000 		.4byte	0xb2
 749 01e9 78       		.byte	0x78
 750 01ea 0E       		.uleb128 0xe
 751 01eb 43545200 		.ascii	"CTR\000"
 752 01ef DE01     		.2byte	0x1de
 753 01f1 B2000000 		.4byte	0xb2
 754 01f5 7C       		.byte	0x7c
 755 01f6 01       		.uleb128 0x1
 756 01f7 1F020000 		.4byte	.LASF37
 757 01fb DF01     		.2byte	0x1df
 758 01fd B2000000 		.4byte	0xb2
 759 0201 80       		.byte	0x80
 760 0202 01       		.uleb128 0x1
 761 0203 12030000 		.4byte	.LASF38
 762 0207 E001     		.2byte	0x1e0
 763 0209 AD000000 		.4byte	0xad
 764 020d 84       		.byte	0x84
 765 020e 01       		.uleb128 0x1
 766 020f B3020000 		.4byte	.LASF39
 767 0213 E101     		.2byte	0x1e1
 768 0215 AD000000 		.4byte	0xad
 769 0219 88       		.byte	0x88
 770 021a 01       		.uleb128 0x1
 771 021b F0030000 		.4byte	.LASF40
 772 021f E201     		.2byte	0x1e2
 773 0221 D2030000 		.4byte	0x3d2
 774 0225 8C       		.byte	0x8c
 775 0226 02       		.uleb128 0x2
 776 0227 A6010000 		.4byte	.LASF41
 777 022b E301     		.2byte	0x1e3
 778 022d AD000000 		.4byte	0xad
 779 0231 0002     		.2byte	0x200
 780 0233 02       		.uleb128 0x2
 781 0234 FA030000 		.4byte	.LASF42
 782 0238 E401     		.2byte	0x1e4
 783 023a E2030000 		.4byte	0x3e2
 784 023e 0402     		.2byte	0x204
 785 0240 02       		.uleb128 0x2
 786 0241 79010000 		.4byte	.LASF43
 787 0245 E501     		.2byte	0x1e5
 788 0247 B2000000 		.4byte	0xb2
 789 024b 4002     		.2byte	0x240
 790 024d 02       		.uleb128 0x2
 791 024e 7F010000 		.4byte	.LASF44
 792 0252 E601     		.2byte	0x1e6
 793 0254 B2000000 		.4byte	0xb2
 794 0258 4402     		.2byte	0x244
 795 025a 02       		.uleb128 0x2
 796 025b EA010000 		.4byte	.LASF45
 797 025f E701     		.2byte	0x1e7
 798 0261 B2000000 		.4byte	0xb2
ARM GAS  C:\Users\DEVELO~1\AppData\Local\Temp\ccovQorn.s 			page 15


 799 0265 4802     		.2byte	0x248
 800 0267 02       		.uleb128 0x2
 801 0268 04040000 		.4byte	.LASF46
 802 026c E801     		.2byte	0x1e8
 803 026e C2030000 		.4byte	0x3c2
 804 0272 4C02     		.2byte	0x24c
 805 0274 02       		.uleb128 0x2
 806 0275 35020000 		.4byte	.LASF47
 807 0279 E901     		.2byte	0x1e9
 808 027b AD000000 		.4byte	0xad
 809 027f 5002     		.2byte	0x250
 810 0281 02       		.uleb128 0x2
 811 0282 0E040000 		.4byte	.LASF48
 812 0286 EA01     		.2byte	0x1ea
 813 0288 C2030000 		.4byte	0x3c2
 814 028c 5402     		.2byte	0x254
 815 028e 02       		.uleb128 0x2
 816 028f 4C020000 		.4byte	.LASF49
 817 0293 EB01     		.2byte	0x1eb
 818 0295 AD000000 		.4byte	0xad
 819 0299 5802     		.2byte	0x258
 820 029b 02       		.uleb128 0x2
 821 029c 3D020000 		.4byte	.LASF50
 822 02a0 EC01     		.2byte	0x1ec
 823 02a2 AD000000 		.4byte	0xad
 824 02a6 5C02     		.2byte	0x25c
 825 02a8 02       		.uleb128 0x2
 826 02a9 79000000 		.4byte	.LASF51
 827 02ad ED01     		.2byte	0x1ed
 828 02af AD000000 		.4byte	0xad
 829 02b3 6002     		.2byte	0x260
 830 02b5 02       		.uleb128 0x2
 831 02b6 CE010000 		.4byte	.LASF52
 832 02ba EE01     		.2byte	0x1ee
 833 02bc AD000000 		.4byte	0xad
 834 02c0 6402     		.2byte	0x264
 835 02c2 02       		.uleb128 0x2
 836 02c3 04020000 		.4byte	.LASF53
 837 02c7 EF01     		.2byte	0x1ef
 838 02c9 AD000000 		.4byte	0xad
 839 02cd 6802     		.2byte	0x268
 840 02cf 02       		.uleb128 0x2
 841 02d0 00000000 		.4byte	.LASF54
 842 02d4 F001     		.2byte	0x1f0
 843 02d6 AD000000 		.4byte	0xad
 844 02da 6C02     		.2byte	0x26c
 845 02dc 02       		.uleb128 0x2
 846 02dd 96000000 		.4byte	.LASF55
 847 02e1 F101     		.2byte	0x1f1
 848 02e3 AD000000 		.4byte	0xad
 849 02e7 7002     		.2byte	0x270
 850 02e9 02       		.uleb128 0x2
 851 02ea 44000000 		.4byte	.LASF56
 852 02ee F201     		.2byte	0x1f2
 853 02f0 AD000000 		.4byte	0xad
 854 02f4 7402     		.2byte	0x274
 855 02f6 02       		.uleb128 0x2
ARM GAS  C:\Users\DEVELO~1\AppData\Local\Temp\ccovQorn.s 			page 16


 856 02f7 18040000 		.4byte	.LASF57
 857 02fb F301     		.2byte	0x1f3
 858 02fd F2030000 		.4byte	0x3f2
 859 0301 7802     		.2byte	0x278
 860 0303 02       		.uleb128 0x2
 861 0304 45020000 		.4byte	.LASF58
 862 0308 F401     		.2byte	0x1f4
 863 030a AD000000 		.4byte	0xad
 864 030e 9002     		.2byte	0x290
 865 0310 02       		.uleb128 0x2
 866 0311 6B040000 		.4byte	.LASF59
 867 0315 F501     		.2byte	0x1f5
 868 0317 AD000000 		.4byte	0xad
 869 031b 9402     		.2byte	0x294
 870 031d 02       		.uleb128 0x2
 871 031e 66010000 		.4byte	.LASF60
 872 0322 F601     		.2byte	0x1f6
 873 0324 AD000000 		.4byte	0xad
 874 0328 9802     		.2byte	0x298
 875 032a 02       		.uleb128 0x2
 876 032b CE030000 		.4byte	.LASF61
 877 032f F701     		.2byte	0x1f7
 878 0331 AD000000 		.4byte	0xad
 879 0335 9C02     		.2byte	0x29c
 880 0337 02       		.uleb128 0x2
 881 0338 DE010000 		.4byte	.LASF62
 882 033c F801     		.2byte	0x1f8
 883 033e AD000000 		.4byte	0xad
 884 0342 A002     		.2byte	0x2a0
 885 0344 02       		.uleb128 0x2
 886 0345 22040000 		.4byte	.LASF63
 887 0349 F901     		.2byte	0x1f9
 888 034b C2030000 		.4byte	0x3c2
 889 034f A402     		.2byte	0x2a4
 890 0351 02       		.uleb128 0x2
 891 0352 F0010000 		.4byte	.LASF64
 892 0356 FA01     		.2byte	0x1fa
 893 0358 AD000000 		.4byte	0xad
 894 035c A802     		.2byte	0x2a8
 895 035e 00       		.byte	0
 896 035f 05       		.uleb128 0x5
 897 0360 9C000000 		.4byte	0x9c
 898 0364 6F030000 		.4byte	0x36f
 899 0368 06       		.uleb128 0x6
 900 0369 89000000 		.4byte	0x89
 901 036d 0B       		.byte	0xb
 902 036e 00       		.byte	0
 903 036f 09       		.uleb128 0x9
 904 0370 5F030000 		.4byte	0x35f
 905 0374 05       		.uleb128 0x5
 906 0375 B2000000 		.4byte	0xb2
 907 0379 84030000 		.4byte	0x384
 908 037d 06       		.uleb128 0x6
 909 037e 89000000 		.4byte	0x89
 910 0382 01       		.byte	0x1
 911 0383 00       		.byte	0
 912 0384 0A       		.uleb128 0xa
ARM GAS  C:\Users\DEVELO~1\AppData\Local\Temp\ccovQorn.s 			page 17


 913 0385 74030000 		.4byte	0x374
 914 0389 09       		.uleb128 0x9
 915 038a 84030000 		.4byte	0x384
 916 038e 05       		.uleb128 0x5
 917 038f B2000000 		.4byte	0xb2
 918 0393 9E030000 		.4byte	0x39e
 919 0397 06       		.uleb128 0x6
 920 0398 89000000 		.4byte	0x89
 921 039c 03       		.byte	0x3
 922 039d 00       		.byte	0
 923 039e 0A       		.uleb128 0xa
 924 039f 8E030000 		.4byte	0x38e
 925 03a3 09       		.uleb128 0x9
 926 03a4 9E030000 		.4byte	0x39e
 927 03a8 05       		.uleb128 0x5
 928 03a9 B2000000 		.4byte	0xb2
 929 03ad B8030000 		.4byte	0x3b8
 930 03b1 06       		.uleb128 0x6
 931 03b2 89000000 		.4byte	0x89
 932 03b6 04       		.byte	0x4
 933 03b7 00       		.byte	0
 934 03b8 0A       		.uleb128 0xa
 935 03b9 A8030000 		.4byte	0x3a8
 936 03bd 09       		.uleb128 0x9
 937 03be B8030000 		.4byte	0x3b8
 938 03c2 05       		.uleb128 0x5
 939 03c3 A1000000 		.4byte	0xa1
 940 03c7 D2030000 		.4byte	0x3d2
 941 03cb 06       		.uleb128 0x6
 942 03cc 89000000 		.4byte	0x89
 943 03d0 00       		.byte	0
 944 03d1 00       		.byte	0
 945 03d2 05       		.uleb128 0x5
 946 03d3 A1000000 		.4byte	0xa1
 947 03d7 E2030000 		.4byte	0x3e2
 948 03db 06       		.uleb128 0x6
 949 03dc 89000000 		.4byte	0x89
 950 03e0 5C       		.byte	0x5c
 951 03e1 00       		.byte	0
 952 03e2 05       		.uleb128 0x5
 953 03e3 A1000000 		.4byte	0xa1
 954 03e7 F2030000 		.4byte	0x3f2
 955 03eb 06       		.uleb128 0x6
 956 03ec 89000000 		.4byte	0x89
 957 03f0 0E       		.byte	0xe
 958 03f1 00       		.byte	0
 959 03f2 05       		.uleb128 0x5
 960 03f3 A1000000 		.4byte	0xa1
 961 03f7 02040000 		.4byte	0x402
 962 03fb 06       		.uleb128 0x6
 963 03fc 89000000 		.4byte	0x89
 964 0400 05       		.byte	0x5
 965 0401 00       		.byte	0
 966 0402 13       		.uleb128 0x13
 967 0403 8D010000 		.4byte	.LASF65
 968 0407 FB01     		.2byte	0x1fb
 969 0409 E3000000 		.4byte	0xe3
ARM GAS  C:\Users\DEVELO~1\AppData\Local\Temp\ccovQorn.s 			page 18


 970 040d 1D       		.uleb128 0x1d
 971 040e 2C       		.byte	0x2c
 972 040f 04       		.byte	0x4
 973 0410 9405     		.2byte	0x594
 974 0412 09       		.byte	0x9
 975 0413 9C040000 		.4byte	0x49c
 976 0417 01       		.uleb128 0x1
 977 0418 3B040000 		.4byte	.LASF66
 978 041c 9605     		.2byte	0x596
 979 041e B2000000 		.4byte	0xb2
 980 0422 00       		.byte	0
 981 0423 01       		.uleb128 0x1
 982 0424 80020000 		.4byte	.LASF67
 983 0428 9705     		.2byte	0x597
 984 042a AD000000 		.4byte	0xad
 985 042e 04       		.byte	0x4
 986 042f 0E       		.uleb128 0xe
 987 0430 524E5200 		.ascii	"RNR\000"
 988 0434 9805     		.2byte	0x598
 989 0436 AD000000 		.4byte	0xad
 990 043a 08       		.byte	0x8
 991 043b 01       		.uleb128 0x1
 992 043c E2030000 		.4byte	.LASF68
 993 0440 9905     		.2byte	0x599
 994 0442 AD000000 		.4byte	0xad
 995 0446 0C       		.byte	0xc
 996 0447 01       		.uleb128 0x1
 997 0448 5A040000 		.4byte	.LASF69
 998 044c 9A05     		.2byte	0x59a
 999 044e AD000000 		.4byte	0xad
 1000 0452 10       		.byte	0x10
 1001 0453 01       		.uleb128 0x1
 1002 0454 3C030000 		.4byte	.LASF70
 1003 0458 9B05     		.2byte	0x59b
 1004 045a AD000000 		.4byte	0xad
 1005 045e 14       		.byte	0x14
 1006 045f 01       		.uleb128 0x1
 1007 0460 D6010000 		.4byte	.LASF71
 1008 0464 9C05     		.2byte	0x59c
 1009 0466 AD000000 		.4byte	0xad
 1010 046a 18       		.byte	0x18
 1011 046b 01       		.uleb128 0x1
 1012 046c 44030000 		.4byte	.LASF72
 1013 0470 9D05     		.2byte	0x59d
 1014 0472 AD000000 		.4byte	0xad
 1015 0476 1C       		.byte	0x1c
 1016 0477 01       		.uleb128 0x1
 1017 0478 D4040000 		.4byte	.LASF73
 1018 047c 9E05     		.2byte	0x59e
 1019 047e AD000000 		.4byte	0xad
 1020 0482 20       		.byte	0x20
 1021 0483 01       		.uleb128 0x1
 1022 0484 4C030000 		.4byte	.LASF74
 1023 0488 9F05     		.2byte	0x59f
 1024 048a AD000000 		.4byte	0xad
 1025 048e 24       		.byte	0x24
 1026 048f 01       		.uleb128 0x1
ARM GAS  C:\Users\DEVELO~1\AppData\Local\Temp\ccovQorn.s 			page 19


 1027 0490 DC040000 		.4byte	.LASF75
 1028 0494 A005     		.2byte	0x5a0
 1029 0496 AD000000 		.4byte	0xad
 1030 049a 28       		.byte	0x28
 1031 049b 00       		.byte	0
 1032 049c 13       		.uleb128 0x13
 1033 049d 51040000 		.4byte	.LASF76
 1034 04a1 A105     		.2byte	0x5a1
 1035 04a3 0D040000 		.4byte	0x40d
 1036 04a7 1E       		.uleb128 0x1e
 1037 04a8 9E040000 		.4byte	.LASF104
 1038 04ac 01       		.byte	0x1
 1039 04ad 2C       		.byte	0x2c
 1040 04ae 06       		.byte	0x6
 1041 04af 57070000 		.4byte	0x757
 1042 04b3 00000000 		.4byte	.LFB142
 1043 04b7 1C010000 		.4byte	.LFE142-.LFB142
 1044 04bb 01       		.uleb128 0x1
 1045 04bc 9C       		.byte	0x9c
 1046 04bd 57070000 		.4byte	0x757
 1047 04c1 1F       		.uleb128 0x1f
 1048 04c2 B3040000 		.4byte	.LASF105
 1049 04c6 01       		.byte	0x1
 1050 04c7 2D       		.byte	0x2d
 1051 04c8 11       		.byte	0x11
 1052 04c9 57070000 		.4byte	0x757
 1053 04cd 05       		.uleb128 0x5
 1054 04ce 03       		.byte	0x3
 1055 04cf 00000000 		.4byte	initialized.0
 1056 04d3 0B       		.uleb128 0xb
 1057 04d4 7F000000 		.4byte	.LASF77
 1058 04d8 2E       		.byte	0x2e
 1059 04d9 15       		.byte	0x15
 1060 04da C3000000 		.4byte	0xc3
 1061 04de 0B       		.uleb128 0xb
 1062 04df 52000000 		.4byte	.LASF78
 1063 04e3 2F       		.byte	0x2f
 1064 04e4 15       		.byte	0x15
 1065 04e5 C3000000 		.4byte	0xc3
 1066 04e9 0B       		.uleb128 0xb
 1067 04ea 74020000 		.4byte	.LASF79
 1068 04ee 30       		.byte	0x30
 1069 04ef 15       		.byte	0x15
 1070 04f0 C3000000 		.4byte	0xc3
 1071 04f4 14       		.uleb128 0x14
 1072 04f5 AF030000 		.4byte	.LASF80
 1073 04f9 31       		.byte	0x31
 1074 04fa 0E       		.byte	0xe
 1075 04fb A1000000 		.4byte	0xa1
 1076 04ff 16000000 		.4byte	.LLST0
 1077 0503 0C000000 		.4byte	.LVUS0
 1078 0507 14       		.uleb128 0x14
 1079 0508 9F000000 		.4byte	.LASF81
 1080 050c 32       		.byte	0x32
 1081 050d 0F       		.byte	0xf
 1082 050e B7000000 		.4byte	0xb7
 1083 0512 45000000 		.4byte	.LLST1
ARM GAS  C:\Users\DEVELO~1\AppData\Local\Temp\ccovQorn.s 			page 20


 1084 0516 3D000000 		.4byte	.LVUS1
 1085 051a 15       		.uleb128 0x15
 1086 051b 5E070000 		.4byte	0x75e
 1087 051f 08000000 		.4byte	.LBI96
 1088 0523 02       		.byte	.LVU13
 1089 0524 0C000000 		.4byte	.LLRL2
 1090 0528 3C       		.byte	0x3c
 1091 0529 0A       		.byte	0xa
 1092 052a 73050000 		.4byte	0x573
 1093 052e 0C       		.uleb128 0xc
 1094 052f 93070000 		.4byte	0x793
 1095 0533 6A000000 		.4byte	.LLST3
 1096 0537 64000000 		.4byte	.LVUS3
 1097 053b 0C       		.uleb128 0xc
 1098 053c 87070000 		.4byte	0x787
 1099 0540 96000000 		.4byte	.LLST4
 1100 0544 90000000 		.4byte	.LVUS4
 1101 0548 16       		.uleb128 0x16
 1102 0549 7B070000 		.4byte	0x77b
 1103 054d 16       		.uleb128 0x16
 1104 054e 6F070000 		.4byte	0x76f
 1105 0552 20       		.uleb128 0x20
 1106 0553 0C000000 		.4byte	.LLRL2
 1107 0557 0D       		.uleb128 0xd
 1108 0558 9F070000 		.4byte	0x79f
 1109 055c C4000000 		.4byte	.LLST5
 1110 0560 BC000000 		.4byte	.LVUS5
 1111 0564 0D       		.uleb128 0xd
 1112 0565 AA070000 		.4byte	0x7aa
 1113 0569 EB000000 		.4byte	.LLST6
 1114 056d E3000000 		.4byte	.LVUS6
 1115 0571 00       		.byte	0
 1116 0572 00       		.byte	0
 1117 0573 0F       		.uleb128 0xf
 1118 0574 13080000 		.4byte	0x813
 1119 0578 56000000 		.4byte	.LBI105
 1120 057c 01       		.byte	.LVU47
 1121 057d 56000000 		.4byte	.LBB105
 1122 0581 1E000000 		.4byte	.LBE105-.LBB105
 1123 0585 45       		.byte	0x45
 1124 0586 B5050000 		.4byte	0x5b5
 1125 058a 03       		.uleb128 0x3
 1126 058b 33080000 		.4byte	0x833
 1127 058f 56000000 		.4byte	.LBI107
 1128 0593 03       		.byte	.LVU49
 1129 0594 56000000 		.4byte	.LBB107
 1130 0598 04000000 		.4byte	.LBE107-.LBB107
 1131 059c 02       		.byte	0x2
 1132 059d CA       		.byte	0xca
 1133 059e 03       		.byte	0x3
 1134 059f 03       		.uleb128 0x3
 1135 05a0 3A080000 		.4byte	0x83a
 1136 05a4 5A000000 		.4byte	.LBI109
 1137 05a8 01       		.byte	.LVU52
 1138 05a9 5A000000 		.4byte	.LBB109
 1139 05ad 04000000 		.4byte	.LBE109-.LBB109
 1140 05b1 02       		.byte	0x2
ARM GAS  C:\Users\DEVELO~1\AppData\Local\Temp\ccovQorn.s 			page 21


 1141 05b2 CB       		.byte	0xcb
 1142 05b3 03       		.byte	0x3
 1143 05b4 00       		.byte	0
 1144 05b5 03       		.uleb128 0x3
 1145 05b6 33080000 		.4byte	0x833
 1146 05ba 74000000 		.4byte	.LBI111
 1147 05be 01       		.byte	.LVU59
 1148 05bf 74000000 		.4byte	.LBB111
 1149 05c3 04000000 		.4byte	.LBE111-.LBB111
 1150 05c7 01       		.byte	0x1
 1151 05c8 46       		.byte	0x46
 1152 05c9 05       		.byte	0x5
 1153 05ca 03       		.uleb128 0x3
 1154 05cb 3A080000 		.4byte	0x83a
 1155 05cf 78000000 		.4byte	.LBI113
 1156 05d3 01       		.byte	.LVU62
 1157 05d4 78000000 		.4byte	.LBB113
 1158 05d8 04000000 		.4byte	.LBE113-.LBB113
 1159 05dc 01       		.byte	0x1
 1160 05dd 47       		.byte	0x47
 1161 05de 05       		.byte	0x5
 1162 05df 15       		.uleb128 0x15
 1163 05e0 F0070000 		.4byte	0x7f0
 1164 05e4 88000000 		.4byte	.LBI115
 1165 05e8 00       		.byte	.LVU68
 1166 05e9 23000000 		.4byte	.LLRL7
 1167 05ed 4D       		.byte	0x4d
 1168 05ee 05       		.byte	0x5
 1169 05ef 0E060000 		.4byte	0x60e
 1170 05f3 0C       		.uleb128 0xc
 1171 05f4 06080000 		.4byte	0x806
 1172 05f8 0F010000 		.4byte	.LLST8
 1173 05fc 0D010000 		.4byte	.LVUS8
 1174 0600 0C       		.uleb128 0xc
 1175 0601 FA070000 		.4byte	0x7fa
 1176 0605 1E010000 		.4byte	.LLST9
 1177 0609 1C010000 		.4byte	.LVUS9
 1178 060d 00       		.byte	0
 1179 060e 03       		.uleb128 0x3
 1180 060f 33080000 		.4byte	0x833
 1181 0613 90000000 		.4byte	.LBI119
 1182 0617 02       		.byte	.LVU75
 1183 0618 90000000 		.4byte	.LBB119
 1184 061c 04000000 		.4byte	.LBE119-.LBB119
 1185 0620 01       		.byte	0x1
 1186 0621 57       		.byte	0x57
 1187 0622 05       		.byte	0x5
 1188 0623 03       		.uleb128 0x3
 1189 0624 3A080000 		.4byte	0x83a
 1190 0628 94000000 		.4byte	.LBI121
 1191 062c 01       		.byte	.LVU78
 1192 062d 94000000 		.4byte	.LBB121
 1193 0631 04000000 		.4byte	.LBE121-.LBB121
 1194 0635 01       		.byte	0x1
 1195 0636 58       		.byte	0x58
 1196 0637 05       		.byte	0x5
 1197 0638 0F       		.uleb128 0xf
ARM GAS  C:\Users\DEVELO~1\AppData\Local\Temp\ccovQorn.s 			page 22


 1198 0639 C0070000 		.4byte	0x7c0
 1199 063d 98000000 		.4byte	.LBI123
 1200 0641 01       		.byte	.LVU81
 1201 0642 98000000 		.4byte	.LBB123
 1202 0646 3E000000 		.4byte	.LBE123-.LBB123
 1203 064a 5A       		.byte	0x5a
 1204 064b B3060000 		.4byte	0x6b3
 1205 064f 0D       		.uleb128 0xd
 1206 0650 CE070000 		.4byte	0x7ce
 1207 0654 29010000 		.4byte	.LLST10
 1208 0658 27010000 		.4byte	.LVUS10
 1209 065c 0D       		.uleb128 0xd
 1210 065d D9070000 		.4byte	0x7d9
 1211 0661 34010000 		.4byte	.LLST11
 1212 0665 32010000 		.4byte	.LVUS11
 1213 0669 0D       		.uleb128 0xd
 1214 066a E4070000 		.4byte	0x7e4
 1215 066e 4B010000 		.4byte	.LLST12
 1216 0672 45010000 		.4byte	.LVUS12
 1217 0676 10       		.uleb128 0x10
 1218 0677 33080000 		.4byte	0x833
 1219 067b 9C000000 		.4byte	.LBI125
 1220 067f 01       		.byte	.LVU88
 1221 0680 9C000000 		.4byte	.LBB125
 1222 0684 04000000 		.4byte	.LBE125-.LBB125
 1223 0688 3D09     		.2byte	0x93d
 1224 068a 10       		.uleb128 0x10
 1225 068b 33080000 		.4byte	0x833
 1226 068f CE000000 		.4byte	.LBI127
 1227 0693 01       		.byte	.LVU109
 1228 0694 CE000000 		.4byte	.LBB127
 1229 0698 04000000 		.4byte	.LBE127-.LBB127
 1230 069c 4E09     		.2byte	0x94e
 1231 069e 10       		.uleb128 0x10
 1232 069f 3A080000 		.4byte	0x83a
 1233 06a3 D2000000 		.4byte	.LBI129
 1234 06a7 01       		.byte	.LVU112
 1235 06a8 D2000000 		.4byte	.LBB129
 1236 06ac 04000000 		.4byte	.LBE129-.LBB129
 1237 06b0 4F09     		.2byte	0x94f
 1238 06b2 00       		.byte	0
 1239 06b3 03       		.uleb128 0x3
 1240 06b4 33080000 		.4byte	0x833
 1241 06b8 D6000000 		.4byte	.LBI131
 1242 06bc 02       		.byte	.LVU116
 1243 06bd D6000000 		.4byte	.LBB131
 1244 06c1 04000000 		.4byte	.LBE131-.LBB131
 1245 06c5 01       		.byte	0x1
 1246 06c6 5B       		.byte	0x5b
 1247 06c7 05       		.byte	0x5
 1248 06c8 03       		.uleb128 0x3
 1249 06c9 3A080000 		.4byte	0x83a
 1250 06cd DA000000 		.4byte	.LBI133
 1251 06d1 01       		.byte	.LVU119
 1252 06d2 DA000000 		.4byte	.LBB133
 1253 06d6 04000000 		.4byte	.LBE133-.LBB133
 1254 06da 01       		.byte	0x1
ARM GAS  C:\Users\DEVELO~1\AppData\Local\Temp\ccovQorn.s 			page 23


 1255 06db 5C       		.byte	0x5c
 1256 06dc 05       		.byte	0x5
 1257 06dd 0F       		.uleb128 0xf
 1258 06de 1C080000 		.4byte	0x81c
 1259 06e2 DE000000 		.4byte	.LBI135
 1260 06e6 01       		.byte	.LVU122
 1261 06e7 DE000000 		.4byte	.LBB135
 1262 06eb 16000000 		.4byte	.LBE135-.LBB135
 1263 06ef 5D       		.byte	0x5d
 1264 06f0 2C070000 		.4byte	0x72c
 1265 06f4 0C       		.uleb128 0xc
 1266 06f5 26080000 		.4byte	0x826
 1267 06f9 64010000 		.4byte	.LLST13
 1268 06fd 62010000 		.4byte	.LVUS13
 1269 0701 03       		.uleb128 0x3
 1270 0702 33080000 		.4byte	0x833
 1271 0706 DE000000 		.4byte	.LBI137
 1272 070a 03       		.byte	.LVU124
 1273 070b DE000000 		.4byte	.LBB137
 1274 070f 04000000 		.4byte	.LBE137-.LBB137
 1275 0713 02       		.byte	0x2
 1276 0714 BE       		.byte	0xbe
 1277 0715 03       		.byte	0x3
 1278 0716 03       		.uleb128 0x3
 1279 0717 3A080000 		.4byte	0x83a
 1280 071b E2000000 		.4byte	.LBI139
 1281 071f 01       		.byte	.LVU127
 1282 0720 E2000000 		.4byte	.LBB139
 1283 0724 04000000 		.4byte	.LBE139-.LBB139
 1284 0728 02       		.byte	0x2
 1285 0729 BF       		.byte	0xbf
 1286 072a 03       		.byte	0x3
 1287 072b 00       		.byte	0
 1288 072c 03       		.uleb128 0x3
 1289 072d 33080000 		.4byte	0x833
 1290 0731 F4000000 		.4byte	.LBI141
 1291 0735 02       		.byte	.LVU135
 1292 0736 F4000000 		.4byte	.LBB141
 1293 073a 04000000 		.4byte	.LBE141-.LBB141
 1294 073e 01       		.byte	0x1
 1295 073f 5E       		.byte	0x5e
 1296 0740 05       		.byte	0x5
 1297 0741 03       		.uleb128 0x3
 1298 0742 3A080000 		.4byte	0x83a
 1299 0746 F8000000 		.4byte	.LBI143
 1300 074a 01       		.byte	.LVU138
 1301 074b F8000000 		.4byte	.LBB143
 1302 074f 04000000 		.4byte	.LBE143-.LBB143
 1303 0753 01       		.byte	0x1
 1304 0754 5F       		.byte	0x5f
 1305 0755 05       		.byte	0x5
 1306 0756 00       		.byte	0
 1307 0757 04       		.uleb128 0x4
 1308 0758 01       		.byte	0x1
 1309 0759 02       		.byte	0x2
 1310 075a 2C030000 		.4byte	.LASF82
 1311 075e 21       		.uleb128 0x21
ARM GAS  C:\Users\DEVELO~1\AppData\Local\Temp\ccovQorn.s 			page 24


 1312 075f FA020000 		.4byte	.LASF106
 1313 0763 01       		.byte	0x1
 1314 0764 0F       		.byte	0xf
 1315 0765 0D       		.byte	0xd
 1316 0766 57070000 		.4byte	0x757
 1317 076a 01       		.byte	0x1
 1318 076b B6070000 		.4byte	0x7b6
 1319 076f 07       		.uleb128 0x7
 1320 0770 1A020000 		.4byte	.LASF83
 1321 0774 01       		.byte	0x1
 1322 0775 0F       		.byte	0xf
 1323 0776 2F       		.byte	0x2f
 1324 0777 B7000000 		.4byte	0xb7
 1325 077b 07       		.uleb128 0x7
 1326 077c 4C040000 		.4byte	.LASF84
 1327 0780 01       		.byte	0x1
 1328 0781 10       		.byte	0x10
 1329 0782 2F       		.byte	0x2f
 1330 0783 B7000000 		.4byte	0xb7
 1331 0787 07       		.uleb128 0x7
 1332 0788 C1010000 		.4byte	.LASF85
 1333 078c 01       		.byte	0x1
 1334 078d 11       		.byte	0x11
 1335 078e 2F       		.byte	0x2f
 1336 078f B6070000 		.4byte	0x7b6
 1337 0793 07       		.uleb128 0x7
 1338 0794 BF040000 		.4byte	.LASF86
 1339 0798 01       		.byte	0x1
 1340 0799 12       		.byte	0x12
 1341 079a 30       		.byte	0x30
 1342 079b BB070000 		.4byte	0x7bb
 1343 079f 0B       		.uleb128 0xb
 1344 07a0 F0020000 		.4byte	.LASF87
 1345 07a4 13       		.byte	0x13
 1346 07a5 0E       		.byte	0xe
 1347 07a6 A1000000 		.4byte	0xa1
 1348 07aa 0B       		.uleb128 0xb
 1349 07ab 72040000 		.4byte	.LASF88
 1350 07af 14       		.byte	0x14
 1351 07b0 0F       		.byte	0xf
 1352 07b1 B7000000 		.4byte	0xb7
 1353 07b5 00       		.byte	0
 1354 07b6 17       		.uleb128 0x17
 1355 07b7 A1000000 		.4byte	0xa1
 1356 07bb 17       		.uleb128 0x17
 1357 07bc B7000000 		.4byte	0xb7
 1358 07c0 22       		.uleb128 0x22
 1359 07c1 82040000 		.4byte	.LASF92
 1360 07c5 04       		.byte	0x4
 1361 07c6 3509     		.2byte	0x935
 1362 07c8 16       		.byte	0x16
 1363 07c9 03       		.byte	0x3
 1364 07ca F0070000 		.4byte	0x7f0
 1365 07ce 11       		.uleb128 0x11
 1366 07cf E3020000 		.4byte	.LASF89
 1367 07d3 3809     		.2byte	0x938
 1368 07d5 A1000000 		.4byte	0xa1
ARM GAS  C:\Users\DEVELO~1\AppData\Local\Temp\ccovQorn.s 			page 25


 1369 07d9 11       		.uleb128 0x11
 1370 07da C9030000 		.4byte	.LASF90
 1371 07de 3909     		.2byte	0x939
 1372 07e0 A1000000 		.4byte	0xa1
 1373 07e4 11       		.uleb128 0x11
 1374 07e5 B9020000 		.4byte	.LASF91
 1375 07e9 3A09     		.2byte	0x93a
 1376 07eb A1000000 		.4byte	0xa1
 1377 07ef 00       		.byte	0
 1378 07f0 18       		.uleb128 0x18
 1379 07f1 06000000 		.4byte	.LASF93
 1380 07f5 DF       		.byte	0xdf
 1381 07f6 13080000 		.4byte	0x813
 1382 07fa 07       		.uleb128 0x7
 1383 07fb D3030000 		.4byte	.LASF94
 1384 07ff 02       		.byte	0x2
 1385 0800 DF       		.byte	0xdf
 1386 0801 31       		.byte	0x31
 1387 0802 A1000000 		.4byte	0xa1
 1388 0806 07       		.uleb128 0x7
 1389 0807 32030000 		.4byte	.LASF95
 1390 080b 02       		.byte	0x2
 1391 080c DF       		.byte	0xdf
 1392 080d 40       		.byte	0x40
 1393 080e A1000000 		.4byte	0xa1
 1394 0812 00       		.byte	0
 1395 0813 23       		.uleb128 0x23
 1396 0814 5D000000 		.4byte	.LASF98
 1397 0818 02       		.byte	0x2
 1398 0819 C8       		.byte	0xc8
 1399 081a 16       		.byte	0x16
 1400 081b 03       		.byte	0x3
 1401 081c 18       		.uleb128 0x18
 1402 081d B2010000 		.4byte	.LASF96
 1403 0821 BC       		.byte	0xbc
 1404 0822 33080000 		.4byte	0x833
 1405 0826 07       		.uleb128 0x7
 1406 0827 6D000000 		.4byte	.LASF97
 1407 082b 02       		.byte	0x2
 1408 082c BC       		.byte	0xbc
 1409 082d 2E       		.byte	0x2e
 1410 082e A1000000 		.4byte	0xa1
 1411 0832 00       		.byte	0
 1412 0833 19       		.uleb128 0x19
 1413 0834 6D010000 		.4byte	.LASF99
 1414 0838 6D03     		.2byte	0x36d
 1415 083a 19       		.uleb128 0x19
 1416 083b CB020000 		.4byte	.LASF100
 1417 083f 6203     		.2byte	0x362
 1418 0841 00       		.byte	0
 1419              		.section	.debug_abbrev,"",%progbits
 1420              	.Ldebug_abbrev0:
 1421 0000 01       		.uleb128 0x1
 1422 0001 0D       		.uleb128 0xd
 1423 0002 00       		.byte	0
 1424 0003 03       		.uleb128 0x3
 1425 0004 0E       		.uleb128 0xe
ARM GAS  C:\Users\DEVELO~1\AppData\Local\Temp\ccovQorn.s 			page 26


 1426 0005 3A       		.uleb128 0x3a
 1427 0006 21       		.uleb128 0x21
 1428 0007 04       		.sleb128 4
 1429 0008 3B       		.uleb128 0x3b
 1430 0009 05       		.uleb128 0x5
 1431 000a 39       		.uleb128 0x39
 1432 000b 21       		.uleb128 0x21
 1433 000c 12       		.sleb128 18
 1434 000d 49       		.uleb128 0x49
 1435 000e 13       		.uleb128 0x13
 1436 000f 38       		.uleb128 0x38
 1437 0010 0B       		.uleb128 0xb
 1438 0011 00       		.byte	0
 1439 0012 00       		.byte	0
 1440 0013 02       		.uleb128 0x2
 1441 0014 0D       		.uleb128 0xd
 1442 0015 00       		.byte	0
 1443 0016 03       		.uleb128 0x3
 1444 0017 0E       		.uleb128 0xe
 1445 0018 3A       		.uleb128 0x3a
 1446 0019 21       		.uleb128 0x21
 1447 001a 04       		.sleb128 4
 1448 001b 3B       		.uleb128 0x3b
 1449 001c 05       		.uleb128 0x5
 1450 001d 39       		.uleb128 0x39
 1451 001e 21       		.uleb128 0x21
 1452 001f 12       		.sleb128 18
 1453 0020 49       		.uleb128 0x49
 1454 0021 13       		.uleb128 0x13
 1455 0022 38       		.uleb128 0x38
 1456 0023 05       		.uleb128 0x5
 1457 0024 00       		.byte	0
 1458 0025 00       		.byte	0
 1459 0026 03       		.uleb128 0x3
 1460 0027 1D       		.uleb128 0x1d
 1461 0028 00       		.byte	0
 1462 0029 31       		.uleb128 0x31
 1463 002a 13       		.uleb128 0x13
 1464 002b 52       		.uleb128 0x52
 1465 002c 01       		.uleb128 0x1
 1466 002d B842     		.uleb128 0x2138
 1467 002f 0B       		.uleb128 0xb
 1468 0030 11       		.uleb128 0x11
 1469 0031 01       		.uleb128 0x1
 1470 0032 12       		.uleb128 0x12
 1471 0033 06       		.uleb128 0x6
 1472 0034 58       		.uleb128 0x58
 1473 0035 0B       		.uleb128 0xb
 1474 0036 59       		.uleb128 0x59
 1475 0037 0B       		.uleb128 0xb
 1476 0038 57       		.uleb128 0x57
 1477 0039 0B       		.uleb128 0xb
 1478 003a 00       		.byte	0
 1479 003b 00       		.byte	0
 1480 003c 04       		.uleb128 0x4
 1481 003d 24       		.uleb128 0x24
 1482 003e 00       		.byte	0
ARM GAS  C:\Users\DEVELO~1\AppData\Local\Temp\ccovQorn.s 			page 27


 1483 003f 0B       		.uleb128 0xb
 1484 0040 0B       		.uleb128 0xb
 1485 0041 3E       		.uleb128 0x3e
 1486 0042 0B       		.uleb128 0xb
 1487 0043 03       		.uleb128 0x3
 1488 0044 0E       		.uleb128 0xe
 1489 0045 00       		.byte	0
 1490 0046 00       		.byte	0
 1491 0047 05       		.uleb128 0x5
 1492 0048 01       		.uleb128 0x1
 1493 0049 01       		.byte	0x1
 1494 004a 49       		.uleb128 0x49
 1495 004b 13       		.uleb128 0x13
 1496 004c 01       		.uleb128 0x1
 1497 004d 13       		.uleb128 0x13
 1498 004e 00       		.byte	0
 1499 004f 00       		.byte	0
 1500 0050 06       		.uleb128 0x6
 1501 0051 21       		.uleb128 0x21
 1502 0052 00       		.byte	0
 1503 0053 49       		.uleb128 0x49
 1504 0054 13       		.uleb128 0x13
 1505 0055 2F       		.uleb128 0x2f
 1506 0056 0B       		.uleb128 0xb
 1507 0057 00       		.byte	0
 1508 0058 00       		.byte	0
 1509 0059 07       		.uleb128 0x7
 1510 005a 05       		.uleb128 0x5
 1511 005b 00       		.byte	0
 1512 005c 03       		.uleb128 0x3
 1513 005d 0E       		.uleb128 0xe
 1514 005e 3A       		.uleb128 0x3a
 1515 005f 0B       		.uleb128 0xb
 1516 0060 3B       		.uleb128 0x3b
 1517 0061 0B       		.uleb128 0xb
 1518 0062 39       		.uleb128 0x39
 1519 0063 0B       		.uleb128 0xb
 1520 0064 49       		.uleb128 0x49
 1521 0065 13       		.uleb128 0x13
 1522 0066 00       		.byte	0
 1523 0067 00       		.byte	0
 1524 0068 08       		.uleb128 0x8
 1525 0069 16       		.uleb128 0x16
 1526 006a 00       		.byte	0
 1527 006b 03       		.uleb128 0x3
 1528 006c 0E       		.uleb128 0xe
 1529 006d 3A       		.uleb128 0x3a
 1530 006e 0B       		.uleb128 0xb
 1531 006f 3B       		.uleb128 0x3b
 1532 0070 0B       		.uleb128 0xb
 1533 0071 39       		.uleb128 0x39
 1534 0072 0B       		.uleb128 0xb
 1535 0073 49       		.uleb128 0x49
 1536 0074 13       		.uleb128 0x13
 1537 0075 00       		.byte	0
 1538 0076 00       		.byte	0
 1539 0077 09       		.uleb128 0x9
ARM GAS  C:\Users\DEVELO~1\AppData\Local\Temp\ccovQorn.s 			page 28


 1540 0078 35       		.uleb128 0x35
 1541 0079 00       		.byte	0
 1542 007a 49       		.uleb128 0x49
 1543 007b 13       		.uleb128 0x13
 1544 007c 00       		.byte	0
 1545 007d 00       		.byte	0
 1546 007e 0A       		.uleb128 0xa
 1547 007f 26       		.uleb128 0x26
 1548 0080 00       		.byte	0
 1549 0081 49       		.uleb128 0x49
 1550 0082 13       		.uleb128 0x13
 1551 0083 00       		.byte	0
 1552 0084 00       		.byte	0
 1553 0085 0B       		.uleb128 0xb
 1554 0086 34       		.uleb128 0x34
 1555 0087 00       		.byte	0
 1556 0088 03       		.uleb128 0x3
 1557 0089 0E       		.uleb128 0xe
 1558 008a 3A       		.uleb128 0x3a
 1559 008b 21       		.uleb128 0x21
 1560 008c 01       		.sleb128 1
 1561 008d 3B       		.uleb128 0x3b
 1562 008e 0B       		.uleb128 0xb
 1563 008f 39       		.uleb128 0x39
 1564 0090 0B       		.uleb128 0xb
 1565 0091 49       		.uleb128 0x49
 1566 0092 13       		.uleb128 0x13
 1567 0093 00       		.byte	0
 1568 0094 00       		.byte	0
 1569 0095 0C       		.uleb128 0xc
 1570 0096 05       		.uleb128 0x5
 1571 0097 00       		.byte	0
 1572 0098 31       		.uleb128 0x31
 1573 0099 13       		.uleb128 0x13
 1574 009a 02       		.uleb128 0x2
 1575 009b 17       		.uleb128 0x17
 1576 009c B742     		.uleb128 0x2137
 1577 009e 17       		.uleb128 0x17
 1578 009f 00       		.byte	0
 1579 00a0 00       		.byte	0
 1580 00a1 0D       		.uleb128 0xd
 1581 00a2 34       		.uleb128 0x34
 1582 00a3 00       		.byte	0
 1583 00a4 31       		.uleb128 0x31
 1584 00a5 13       		.uleb128 0x13
 1585 00a6 02       		.uleb128 0x2
 1586 00a7 17       		.uleb128 0x17
 1587 00a8 B742     		.uleb128 0x2137
 1588 00aa 17       		.uleb128 0x17
 1589 00ab 00       		.byte	0
 1590 00ac 00       		.byte	0
 1591 00ad 0E       		.uleb128 0xe
 1592 00ae 0D       		.uleb128 0xd
 1593 00af 00       		.byte	0
 1594 00b0 03       		.uleb128 0x3
 1595 00b1 08       		.uleb128 0x8
 1596 00b2 3A       		.uleb128 0x3a
ARM GAS  C:\Users\DEVELO~1\AppData\Local\Temp\ccovQorn.s 			page 29


 1597 00b3 21       		.uleb128 0x21
 1598 00b4 04       		.sleb128 4
 1599 00b5 3B       		.uleb128 0x3b
 1600 00b6 05       		.uleb128 0x5
 1601 00b7 39       		.uleb128 0x39
 1602 00b8 21       		.uleb128 0x21
 1603 00b9 12       		.sleb128 18
 1604 00ba 49       		.uleb128 0x49
 1605 00bb 13       		.uleb128 0x13
 1606 00bc 38       		.uleb128 0x38
 1607 00bd 0B       		.uleb128 0xb
 1608 00be 00       		.byte	0
 1609 00bf 00       		.byte	0
 1610 00c0 0F       		.uleb128 0xf
 1611 00c1 1D       		.uleb128 0x1d
 1612 00c2 01       		.byte	0x1
 1613 00c3 31       		.uleb128 0x31
 1614 00c4 13       		.uleb128 0x13
 1615 00c5 52       		.uleb128 0x52
 1616 00c6 01       		.uleb128 0x1
 1617 00c7 B842     		.uleb128 0x2138
 1618 00c9 0B       		.uleb128 0xb
 1619 00ca 11       		.uleb128 0x11
 1620 00cb 01       		.uleb128 0x1
 1621 00cc 12       		.uleb128 0x12
 1622 00cd 06       		.uleb128 0x6
 1623 00ce 58       		.uleb128 0x58
 1624 00cf 21       		.uleb128 0x21
 1625 00d0 01       		.sleb128 1
 1626 00d1 59       		.uleb128 0x59
 1627 00d2 0B       		.uleb128 0xb
 1628 00d3 57       		.uleb128 0x57
 1629 00d4 21       		.uleb128 0x21
 1630 00d5 05       		.sleb128 5
 1631 00d6 01       		.uleb128 0x1
 1632 00d7 13       		.uleb128 0x13
 1633 00d8 00       		.byte	0
 1634 00d9 00       		.byte	0
 1635 00da 10       		.uleb128 0x10
 1636 00db 1D       		.uleb128 0x1d
 1637 00dc 00       		.byte	0
 1638 00dd 31       		.uleb128 0x31
 1639 00de 13       		.uleb128 0x13
 1640 00df 52       		.uleb128 0x52
 1641 00e0 01       		.uleb128 0x1
 1642 00e1 B842     		.uleb128 0x2138
 1643 00e3 0B       		.uleb128 0xb
 1644 00e4 11       		.uleb128 0x11
 1645 00e5 01       		.uleb128 0x1
 1646 00e6 12       		.uleb128 0x12
 1647 00e7 06       		.uleb128 0x6
 1648 00e8 58       		.uleb128 0x58
 1649 00e9 21       		.uleb128 0x21
 1650 00ea 04       		.sleb128 4
 1651 00eb 59       		.uleb128 0x59
 1652 00ec 05       		.uleb128 0x5
 1653 00ed 57       		.uleb128 0x57
ARM GAS  C:\Users\DEVELO~1\AppData\Local\Temp\ccovQorn.s 			page 30


 1654 00ee 21       		.uleb128 0x21
 1655 00ef 05       		.sleb128 5
 1656 00f0 00       		.byte	0
 1657 00f1 00       		.byte	0
 1658 00f2 11       		.uleb128 0x11
 1659 00f3 34       		.uleb128 0x34
 1660 00f4 00       		.byte	0
 1661 00f5 03       		.uleb128 0x3
 1662 00f6 0E       		.uleb128 0xe
 1663 00f7 3A       		.uleb128 0x3a
 1664 00f8 21       		.uleb128 0x21
 1665 00f9 04       		.sleb128 4
 1666 00fa 3B       		.uleb128 0x3b
 1667 00fb 05       		.uleb128 0x5
 1668 00fc 39       		.uleb128 0x39
 1669 00fd 21       		.uleb128 0x21
 1670 00fe 0E       		.sleb128 14
 1671 00ff 49       		.uleb128 0x49
 1672 0100 13       		.uleb128 0x13
 1673 0101 00       		.byte	0
 1674 0102 00       		.byte	0
 1675 0103 12       		.uleb128 0x12
 1676 0104 34       		.uleb128 0x34
 1677 0105 00       		.byte	0
 1678 0106 03       		.uleb128 0x3
 1679 0107 0E       		.uleb128 0xe
 1680 0108 3A       		.uleb128 0x3a
 1681 0109 21       		.uleb128 0x21
 1682 010a 07       		.sleb128 7
 1683 010b 3B       		.uleb128 0x3b
 1684 010c 0B       		.uleb128 0xb
 1685 010d 39       		.uleb128 0x39
 1686 010e 21       		.uleb128 0x21
 1687 010f 10       		.sleb128 16
 1688 0110 49       		.uleb128 0x49
 1689 0111 13       		.uleb128 0x13
 1690 0112 3F       		.uleb128 0x3f
 1691 0113 19       		.uleb128 0x19
 1692 0114 3C       		.uleb128 0x3c
 1693 0115 19       		.uleb128 0x19
 1694 0116 00       		.byte	0
 1695 0117 00       		.byte	0
 1696 0118 13       		.uleb128 0x13
 1697 0119 16       		.uleb128 0x16
 1698 011a 00       		.byte	0
 1699 011b 03       		.uleb128 0x3
 1700 011c 0E       		.uleb128 0xe
 1701 011d 3A       		.uleb128 0x3a
 1702 011e 21       		.uleb128 0x21
 1703 011f 04       		.sleb128 4
 1704 0120 3B       		.uleb128 0x3b
 1705 0121 05       		.uleb128 0x5
 1706 0122 39       		.uleb128 0x39
 1707 0123 21       		.uleb128 0x21
 1708 0124 03       		.sleb128 3
 1709 0125 49       		.uleb128 0x49
 1710 0126 13       		.uleb128 0x13
ARM GAS  C:\Users\DEVELO~1\AppData\Local\Temp\ccovQorn.s 			page 31


 1711 0127 00       		.byte	0
 1712 0128 00       		.byte	0
 1713 0129 14       		.uleb128 0x14
 1714 012a 34       		.uleb128 0x34
 1715 012b 00       		.byte	0
 1716 012c 03       		.uleb128 0x3
 1717 012d 0E       		.uleb128 0xe
 1718 012e 3A       		.uleb128 0x3a
 1719 012f 21       		.uleb128 0x21
 1720 0130 01       		.sleb128 1
 1721 0131 3B       		.uleb128 0x3b
 1722 0132 0B       		.uleb128 0xb
 1723 0133 39       		.uleb128 0x39
 1724 0134 0B       		.uleb128 0xb
 1725 0135 49       		.uleb128 0x49
 1726 0136 13       		.uleb128 0x13
 1727 0137 02       		.uleb128 0x2
 1728 0138 17       		.uleb128 0x17
 1729 0139 B742     		.uleb128 0x2137
 1730 013b 17       		.uleb128 0x17
 1731 013c 00       		.byte	0
 1732 013d 00       		.byte	0
 1733 013e 15       		.uleb128 0x15
 1734 013f 1D       		.uleb128 0x1d
 1735 0140 01       		.byte	0x1
 1736 0141 31       		.uleb128 0x31
 1737 0142 13       		.uleb128 0x13
 1738 0143 52       		.uleb128 0x52
 1739 0144 01       		.uleb128 0x1
 1740 0145 B842     		.uleb128 0x2138
 1741 0147 0B       		.uleb128 0xb
 1742 0148 55       		.uleb128 0x55
 1743 0149 17       		.uleb128 0x17
 1744 014a 58       		.uleb128 0x58
 1745 014b 21       		.uleb128 0x21
 1746 014c 01       		.sleb128 1
 1747 014d 59       		.uleb128 0x59
 1748 014e 0B       		.uleb128 0xb
 1749 014f 57       		.uleb128 0x57
 1750 0150 0B       		.uleb128 0xb
 1751 0151 01       		.uleb128 0x1
 1752 0152 13       		.uleb128 0x13
 1753 0153 00       		.byte	0
 1754 0154 00       		.byte	0
 1755 0155 16       		.uleb128 0x16
 1756 0156 05       		.uleb128 0x5
 1757 0157 00       		.byte	0
 1758 0158 31       		.uleb128 0x31
 1759 0159 13       		.uleb128 0x13
 1760 015a 00       		.byte	0
 1761 015b 00       		.byte	0
 1762 015c 17       		.uleb128 0x17
 1763 015d 0F       		.uleb128 0xf
 1764 015e 00       		.byte	0
 1765 015f 0B       		.uleb128 0xb
 1766 0160 21       		.uleb128 0x21
 1767 0161 04       		.sleb128 4
ARM GAS  C:\Users\DEVELO~1\AppData\Local\Temp\ccovQorn.s 			page 32


 1768 0162 49       		.uleb128 0x49
 1769 0163 13       		.uleb128 0x13
 1770 0164 00       		.byte	0
 1771 0165 00       		.byte	0
 1772 0166 18       		.uleb128 0x18
 1773 0167 2E       		.uleb128 0x2e
 1774 0168 01       		.byte	0x1
 1775 0169 03       		.uleb128 0x3
 1776 016a 0E       		.uleb128 0xe
 1777 016b 3A       		.uleb128 0x3a
 1778 016c 21       		.uleb128 0x21
 1779 016d 02       		.sleb128 2
 1780 016e 3B       		.uleb128 0x3b
 1781 016f 0B       		.uleb128 0xb
 1782 0170 39       		.uleb128 0x39
 1783 0171 21       		.uleb128 0x21
 1784 0172 16       		.sleb128 22
 1785 0173 27       		.uleb128 0x27
 1786 0174 19       		.uleb128 0x19
 1787 0175 20       		.uleb128 0x20
 1788 0176 21       		.uleb128 0x21
 1789 0177 03       		.sleb128 3
 1790 0178 01       		.uleb128 0x1
 1791 0179 13       		.uleb128 0x13
 1792 017a 00       		.byte	0
 1793 017b 00       		.byte	0
 1794 017c 19       		.uleb128 0x19
 1795 017d 2E       		.uleb128 0x2e
 1796 017e 00       		.byte	0
 1797 017f 03       		.uleb128 0x3
 1798 0180 0E       		.uleb128 0xe
 1799 0181 3A       		.uleb128 0x3a
 1800 0182 21       		.uleb128 0x21
 1801 0183 03       		.sleb128 3
 1802 0184 3B       		.uleb128 0x3b
 1803 0185 05       		.uleb128 0x5
 1804 0186 39       		.uleb128 0x39
 1805 0187 21       		.uleb128 0x21
 1806 0188 1B       		.sleb128 27
 1807 0189 27       		.uleb128 0x27
 1808 018a 19       		.uleb128 0x19
 1809 018b 20       		.uleb128 0x20
 1810 018c 21       		.uleb128 0x21
 1811 018d 03       		.sleb128 3
 1812 018e 00       		.byte	0
 1813 018f 00       		.byte	0
 1814 0190 1A       		.uleb128 0x1a
 1815 0191 11       		.uleb128 0x11
 1816 0192 01       		.byte	0x1
 1817 0193 25       		.uleb128 0x25
 1818 0194 0E       		.uleb128 0xe
 1819 0195 13       		.uleb128 0x13
 1820 0196 0B       		.uleb128 0xb
 1821 0197 03       		.uleb128 0x3
 1822 0198 0E       		.uleb128 0xe
 1823 0199 1B       		.uleb128 0x1b
 1824 019a 0E       		.uleb128 0xe
ARM GAS  C:\Users\DEVELO~1\AppData\Local\Temp\ccovQorn.s 			page 33


 1825 019b 55       		.uleb128 0x55
 1826 019c 17       		.uleb128 0x17
 1827 019d 11       		.uleb128 0x11
 1828 019e 01       		.uleb128 0x1
 1829 019f 10       		.uleb128 0x10
 1830 01a0 17       		.uleb128 0x17
 1831 01a1 00       		.byte	0
 1832 01a2 00       		.byte	0
 1833 01a3 1B       		.uleb128 0x1b
 1834 01a4 24       		.uleb128 0x24
 1835 01a5 00       		.byte	0
 1836 01a6 0B       		.uleb128 0xb
 1837 01a7 0B       		.uleb128 0xb
 1838 01a8 3E       		.uleb128 0x3e
 1839 01a9 0B       		.uleb128 0xb
 1840 01aa 03       		.uleb128 0x3
 1841 01ab 08       		.uleb128 0x8
 1842 01ac 00       		.byte	0
 1843 01ad 00       		.byte	0
 1844 01ae 1C       		.uleb128 0x1c
 1845 01af 13       		.uleb128 0x13
 1846 01b0 01       		.byte	0x1
 1847 01b1 0B       		.uleb128 0xb
 1848 01b2 05       		.uleb128 0x5
 1849 01b3 3A       		.uleb128 0x3a
 1850 01b4 0B       		.uleb128 0xb
 1851 01b5 3B       		.uleb128 0x3b
 1852 01b6 05       		.uleb128 0x5
 1853 01b7 39       		.uleb128 0x39
 1854 01b8 0B       		.uleb128 0xb
 1855 01b9 01       		.uleb128 0x1
 1856 01ba 13       		.uleb128 0x13
 1857 01bb 00       		.byte	0
 1858 01bc 00       		.byte	0
 1859 01bd 1D       		.uleb128 0x1d
 1860 01be 13       		.uleb128 0x13
 1861 01bf 01       		.byte	0x1
 1862 01c0 0B       		.uleb128 0xb
 1863 01c1 0B       		.uleb128 0xb
 1864 01c2 3A       		.uleb128 0x3a
 1865 01c3 0B       		.uleb128 0xb
 1866 01c4 3B       		.uleb128 0x3b
 1867 01c5 05       		.uleb128 0x5
 1868 01c6 39       		.uleb128 0x39
 1869 01c7 0B       		.uleb128 0xb
 1870 01c8 01       		.uleb128 0x1
 1871 01c9 13       		.uleb128 0x13
 1872 01ca 00       		.byte	0
 1873 01cb 00       		.byte	0
 1874 01cc 1E       		.uleb128 0x1e
 1875 01cd 2E       		.uleb128 0x2e
 1876 01ce 01       		.byte	0x1
 1877 01cf 3F       		.uleb128 0x3f
 1878 01d0 19       		.uleb128 0x19
 1879 01d1 03       		.uleb128 0x3
 1880 01d2 0E       		.uleb128 0xe
 1881 01d3 3A       		.uleb128 0x3a
ARM GAS  C:\Users\DEVELO~1\AppData\Local\Temp\ccovQorn.s 			page 34


 1882 01d4 0B       		.uleb128 0xb
 1883 01d5 3B       		.uleb128 0x3b
 1884 01d6 0B       		.uleb128 0xb
 1885 01d7 39       		.uleb128 0x39
 1886 01d8 0B       		.uleb128 0xb
 1887 01d9 27       		.uleb128 0x27
 1888 01da 19       		.uleb128 0x19
 1889 01db 49       		.uleb128 0x49
 1890 01dc 13       		.uleb128 0x13
 1891 01dd 11       		.uleb128 0x11
 1892 01de 01       		.uleb128 0x1
 1893 01df 12       		.uleb128 0x12
 1894 01e0 06       		.uleb128 0x6
 1895 01e1 40       		.uleb128 0x40
 1896 01e2 18       		.uleb128 0x18
 1897 01e3 7A       		.uleb128 0x7a
 1898 01e4 19       		.uleb128 0x19
 1899 01e5 01       		.uleb128 0x1
 1900 01e6 13       		.uleb128 0x13
 1901 01e7 00       		.byte	0
 1902 01e8 00       		.byte	0
 1903 01e9 1F       		.uleb128 0x1f
 1904 01ea 34       		.uleb128 0x34
 1905 01eb 00       		.byte	0
 1906 01ec 03       		.uleb128 0x3
 1907 01ed 0E       		.uleb128 0xe
 1908 01ee 3A       		.uleb128 0x3a
 1909 01ef 0B       		.uleb128 0xb
 1910 01f0 3B       		.uleb128 0x3b
 1911 01f1 0B       		.uleb128 0xb
 1912 01f2 39       		.uleb128 0x39
 1913 01f3 0B       		.uleb128 0xb
 1914 01f4 49       		.uleb128 0x49
 1915 01f5 13       		.uleb128 0x13
 1916 01f6 02       		.uleb128 0x2
 1917 01f7 18       		.uleb128 0x18
 1918 01f8 00       		.byte	0
 1919 01f9 00       		.byte	0
 1920 01fa 20       		.uleb128 0x20
 1921 01fb 0B       		.uleb128 0xb
 1922 01fc 01       		.byte	0x1
 1923 01fd 55       		.uleb128 0x55
 1924 01fe 17       		.uleb128 0x17
 1925 01ff 00       		.byte	0
 1926 0200 00       		.byte	0
 1927 0201 21       		.uleb128 0x21
 1928 0202 2E       		.uleb128 0x2e
 1929 0203 01       		.byte	0x1
 1930 0204 03       		.uleb128 0x3
 1931 0205 0E       		.uleb128 0xe
 1932 0206 3A       		.uleb128 0x3a
 1933 0207 0B       		.uleb128 0xb
 1934 0208 3B       		.uleb128 0x3b
 1935 0209 0B       		.uleb128 0xb
 1936 020a 39       		.uleb128 0x39
 1937 020b 0B       		.uleb128 0xb
 1938 020c 27       		.uleb128 0x27
ARM GAS  C:\Users\DEVELO~1\AppData\Local\Temp\ccovQorn.s 			page 35


 1939 020d 19       		.uleb128 0x19
 1940 020e 49       		.uleb128 0x49
 1941 020f 13       		.uleb128 0x13
 1942 0210 20       		.uleb128 0x20
 1943 0211 0B       		.uleb128 0xb
 1944 0212 01       		.uleb128 0x1
 1945 0213 13       		.uleb128 0x13
 1946 0214 00       		.byte	0
 1947 0215 00       		.byte	0
 1948 0216 22       		.uleb128 0x22
 1949 0217 2E       		.uleb128 0x2e
 1950 0218 01       		.byte	0x1
 1951 0219 03       		.uleb128 0x3
 1952 021a 0E       		.uleb128 0xe
 1953 021b 3A       		.uleb128 0x3a
 1954 021c 0B       		.uleb128 0xb
 1955 021d 3B       		.uleb128 0x3b
 1956 021e 05       		.uleb128 0x5
 1957 021f 39       		.uleb128 0x39
 1958 0220 0B       		.uleb128 0xb
 1959 0221 27       		.uleb128 0x27
 1960 0222 19       		.uleb128 0x19
 1961 0223 20       		.uleb128 0x20
 1962 0224 0B       		.uleb128 0xb
 1963 0225 01       		.uleb128 0x1
 1964 0226 13       		.uleb128 0x13
 1965 0227 00       		.byte	0
 1966 0228 00       		.byte	0
 1967 0229 23       		.uleb128 0x23
 1968 022a 2E       		.uleb128 0x2e
 1969 022b 00       		.byte	0
 1970 022c 03       		.uleb128 0x3
 1971 022d 0E       		.uleb128 0xe
 1972 022e 3A       		.uleb128 0x3a
 1973 022f 0B       		.uleb128 0xb
 1974 0230 3B       		.uleb128 0x3b
 1975 0231 0B       		.uleb128 0xb
 1976 0232 39       		.uleb128 0x39
 1977 0233 0B       		.uleb128 0xb
 1978 0234 27       		.uleb128 0x27
 1979 0235 19       		.uleb128 0x19
 1980 0236 20       		.uleb128 0x20
 1981 0237 0B       		.uleb128 0xb
 1982 0238 00       		.byte	0
 1983 0239 00       		.byte	0
 1984 023a 00       		.byte	0
 1985              		.section	.debug_loclists,"",%progbits
 1986 0000 6A010000 		.4byte	.Ldebug_loc3-.Ldebug_loc2
 1987              	.Ldebug_loc2:
 1988 0004 0500     		.2byte	0x5
 1989 0006 04       		.byte	0x4
 1990 0007 00       		.byte	0
 1991 0008 00000000 		.4byte	0
 1992              	.Ldebug_loc0:
 1993              	.LVUS0:
 1994 000c 06       		.uleb128 .LVU6
 1995 000d 00       		.uleb128 .LVU21
ARM GAS  C:\Users\DEVELO~1\AppData\Local\Temp\ccovQorn.s 			page 36


 1996 000e 00       		.uleb128 .LVU23
 1997 000f 03       		.uleb128 .LVU37
 1998 0010 03       		.uleb128 .LVU37
 1999 0011 00       		.uleb128 .LVU45
 2000 0012 00       		.uleb128 .LVU46
 2001 0013 01       		.uleb128 .LVU145
 2002 0014 00       		.uleb128 .LVU146
 2003 0015 00       		.uleb128 0
 2004              	.LLST0:
 2005 0016 06       		.byte	0x6
 2006 0017 00000000 		.4byte	.LVL0
 2007 001b 04       		.byte	0x4
 2008 001c 00       		.uleb128 .LVL0-.LVL0
 2009 001d 28       		.uleb128 .LVL2-.LVL0
 2010 001e 02       		.uleb128 0x2
 2011 001f 30       		.byte	0x30
 2012 0020 9F       		.byte	0x9f
 2013 0021 04       		.byte	0x4
 2014 0022 2A       		.uleb128 .LVL3-.LVL0
 2015 0023 4A       		.uleb128 .LVL7-.LVL0
 2016 0024 02       		.uleb128 0x2
 2017 0025 30       		.byte	0x30
 2018 0026 9F       		.byte	0x9f
 2019 0027 04       		.byte	0x4
 2020 0028 4A       		.uleb128 .LVL7-.LVL0
 2021 0029 54       		.uleb128 .LVL9-.LVL0
 2022 002a 02       		.uleb128 0x2
 2023 002b 34       		.byte	0x34
 2024 002c 9F       		.byte	0x9f
 2025 002d 04       		.byte	0x4
 2026 002e 56       		.uleb128 .LVL10-.LVL0
 2027 002f 8202     		.uleb128 .LVL21-.LVL0
 2028 0031 02       		.uleb128 0x2
 2029 0032 34       		.byte	0x34
 2030 0033 9F       		.byte	0x9f
 2031 0034 04       		.byte	0x4
 2032 0035 8402     		.uleb128 .LVL22-.LVL0
 2033 0037 9C02     		.uleb128 .LFE142-.LVL0
 2034 0039 02       		.uleb128 0x2
 2035 003a 30       		.byte	0x30
 2036 003b 9F       		.byte	0x9f
 2037 003c 00       		.byte	0
 2038              	.LVUS1:
 2039 003d 07       		.uleb128 .LVU7
 2040 003e 00       		.uleb128 .LVU21
 2041 003f 00       		.uleb128 .LVU23
 2042 0040 04       		.uleb128 .LVU38
 2043 0041 04       		.uleb128 .LVU38
 2044 0042 00       		.uleb128 .LVU42
 2045 0043 00       		.uleb128 .LVU146
 2046 0044 00       		.uleb128 0
 2047              	.LLST1:
 2048 0045 06       		.byte	0x6
 2049 0046 00000000 		.4byte	.LVL0
 2050 004a 04       		.byte	0x4
 2051 004b 00       		.uleb128 .LVL0-.LVL0
 2052 004c 28       		.uleb128 .LVL2-.LVL0
ARM GAS  C:\Users\DEVELO~1\AppData\Local\Temp\ccovQorn.s 			page 37


 2053 004d 02       		.uleb128 0x2
 2054 004e 30       		.byte	0x30
 2055 004f 9F       		.byte	0x9f
 2056 0050 04       		.byte	0x4
 2057 0051 2A       		.uleb128 .LVL3-.LVL0
 2058 0052 4A       		.uleb128 .LVL7-.LVL0
 2059 0053 02       		.uleb128 0x2
 2060 0054 30       		.byte	0x30
 2061 0055 9F       		.byte	0x9f
 2062 0056 04       		.byte	0x4
 2063 0057 4A       		.uleb128 .LVL7-.LVL0
 2064 0058 4C       		.uleb128 .LVL8-.LVL0
 2065 0059 01       		.uleb128 0x1
 2066 005a 52       		.byte	0x52
 2067 005b 04       		.byte	0x4
 2068 005c 8402     		.uleb128 .LVL22-.LVL0
 2069 005e 9C02     		.uleb128 .LFE142-.LVL0
 2070 0060 02       		.uleb128 0x2
 2071 0061 30       		.byte	0x30
 2072 0062 9F       		.byte	0x9f
 2073 0063 00       		.byte	0
 2074              	.LVUS3:
 2075 0064 02       		.uleb128 .LVU13
 2076 0065 00       		.uleb128 .LVU21
 2077 0066 00       		.uleb128 .LVU23
 2078 0067 05       		.uleb128 .LVU39
 2079 0068 00       		.uleb128 .LVU146
 2080 0069 00       		.uleb128 0
 2081              	.LLST3:
 2082 006a 06       		.byte	0x6
 2083 006b 08000000 		.4byte	.LVL1
 2084 006f 04       		.byte	0x4
 2085 0070 00       		.uleb128 .LVL1-.LVL1
 2086 0071 20       		.uleb128 .LVL2-.LVL1
 2087 0072 06       		.uleb128 0x6
 2088 0073 A0       		.byte	0xa0
 2089 0074 07050000 		.4byte	.Ldebug_info0+1287
 2090 0078 00       		.sleb128 0
 2091 0079 04       		.byte	0x4
 2092 007a 22       		.uleb128 .LVL3-.LVL1
 2093 007b 42       		.uleb128 .LVL7-.LVL1
 2094 007c 06       		.uleb128 0x6
 2095 007d A0       		.byte	0xa0
 2096 007e 07050000 		.4byte	.Ldebug_info0+1287
 2097 0082 00       		.sleb128 0
 2098 0083 04       		.byte	0x4
 2099 0084 FC01     		.uleb128 .LVL22-.LVL1
 2100 0086 9402     		.uleb128 .LFE142-.LVL1
 2101 0088 06       		.uleb128 0x6
 2102 0089 A0       		.byte	0xa0
 2103 008a 07050000 		.4byte	.Ldebug_info0+1287
 2104 008e 00       		.sleb128 0
 2105 008f 00       		.byte	0
 2106              	.LVUS4:
 2107 0090 02       		.uleb128 .LVU13
 2108 0091 00       		.uleb128 .LVU21
 2109 0092 00       		.uleb128 .LVU23
ARM GAS  C:\Users\DEVELO~1\AppData\Local\Temp\ccovQorn.s 			page 38


 2110 0093 05       		.uleb128 .LVU39
 2111 0094 00       		.uleb128 .LVU146
 2112 0095 00       		.uleb128 0
 2113              	.LLST4:
 2114 0096 06       		.byte	0x6
 2115 0097 08000000 		.4byte	.LVL1
 2116 009b 04       		.byte	0x4
 2117 009c 00       		.uleb128 .LVL1-.LVL1
 2118 009d 20       		.uleb128 .LVL2-.LVL1
 2119 009e 06       		.uleb128 0x6
 2120 009f A0       		.byte	0xa0
 2121 00a0 F4040000 		.4byte	.Ldebug_info0+1268
 2122 00a4 00       		.sleb128 0
 2123 00a5 04       		.byte	0x4
 2124 00a6 22       		.uleb128 .LVL3-.LVL1
 2125 00a7 42       		.uleb128 .LVL7-.LVL1
 2126 00a8 06       		.uleb128 0x6
 2127 00a9 A0       		.byte	0xa0
 2128 00aa F4040000 		.4byte	.Ldebug_info0+1268
 2129 00ae 00       		.sleb128 0
 2130 00af 04       		.byte	0x4
 2131 00b0 FC01     		.uleb128 .LVL22-.LVL1
 2132 00b2 9402     		.uleb128 .LFE142-.LVL1
 2133 00b4 06       		.uleb128 0x6
 2134 00b5 A0       		.byte	0xa0
 2135 00b6 F4040000 		.4byte	.Ldebug_info0+1268
 2136 00ba 00       		.sleb128 0
 2137 00bb 00       		.byte	0
 2138              	.LVUS5:
 2139 00bc 04       		.uleb128 .LVU15
 2140 00bd 00       		.uleb128 .LVU21
 2141 00be 00       		.uleb128 .LVU23
 2142 00bf 00       		.uleb128 .LVU26
 2143 00c0 00       		.uleb128 .LVU26
 2144 00c1 00       		.uleb128 .LVU34
 2145 00c2 00       		.uleb128 .LVU146
 2146 00c3 00       		.uleb128 0
 2147              	.LLST5:
 2148 00c4 06       		.byte	0x6
 2149 00c5 08000000 		.4byte	.LVL1
 2150 00c9 04       		.byte	0x4
 2151 00ca 00       		.uleb128 .LVL1-.LVL1
 2152 00cb 20       		.uleb128 .LVL2-.LVL1
 2153 00cc 02       		.uleb128 0x2
 2154 00cd 34       		.byte	0x34
 2155 00ce 9F       		.byte	0x9f
 2156 00cf 04       		.byte	0x4
 2157 00d0 22       		.uleb128 .LVL3-.LVL1
 2158 00d1 2C       		.uleb128 .LVL4-.LVL1
 2159 00d2 02       		.uleb128 0x2
 2160 00d3 34       		.byte	0x34
 2161 00d4 9F       		.byte	0x9f
 2162 00d5 04       		.byte	0x4
 2163 00d6 2C       		.uleb128 .LVL4-.LVL1
 2164 00d7 42       		.uleb128 .LVL7-.LVL1
 2165 00d8 01       		.uleb128 0x1
 2166 00d9 51       		.byte	0x51
ARM GAS  C:\Users\DEVELO~1\AppData\Local\Temp\ccovQorn.s 			page 39


 2167 00da 04       		.byte	0x4
 2168 00db FC01     		.uleb128 .LVL22-.LVL1
 2169 00dd 9402     		.uleb128 .LFE142-.LVL1
 2170 00df 02       		.uleb128 0x2
 2171 00e0 34       		.byte	0x34
 2172 00e1 9F       		.byte	0x9f
 2173 00e2 00       		.byte	0
 2174              	.LVUS6:
 2175 00e3 05       		.uleb128 .LVU16
 2176 00e4 00       		.uleb128 .LVU21
 2177 00e5 00       		.uleb128 .LVU23
 2178 00e6 00       		.uleb128 .LVU26
 2179 00e7 00       		.uleb128 .LVU26
 2180 00e8 00       		.uleb128 .LVU34
 2181 00e9 00       		.uleb128 .LVU146
 2182 00ea 00       		.uleb128 0
 2183              	.LLST6:
 2184 00eb 06       		.byte	0x6
 2185 00ec 08000000 		.4byte	.LVL1
 2186 00f0 04       		.byte	0x4
 2187 00f1 00       		.uleb128 .LVL1-.LVL1
 2188 00f2 20       		.uleb128 .LVL2-.LVL1
 2189 00f3 03       		.uleb128 0x3
 2190 00f4 08       		.byte	0x8
 2191 00f5 20       		.byte	0x20
 2192 00f6 9F       		.byte	0x9f
 2193 00f7 04       		.byte	0x4
 2194 00f8 22       		.uleb128 .LVL3-.LVL1
 2195 00f9 2C       		.uleb128 .LVL4-.LVL1
 2196 00fa 03       		.uleb128 0x3
 2197 00fb 08       		.byte	0x8
 2198 00fc 20       		.byte	0x20
 2199 00fd 9F       		.byte	0x9f
 2200 00fe 04       		.byte	0x4
 2201 00ff 2C       		.uleb128 .LVL4-.LVL1
 2202 0100 42       		.uleb128 .LVL7-.LVL1
 2203 0101 01       		.uleb128 0x1
 2204 0102 52       		.byte	0x52
 2205 0103 04       		.byte	0x4
 2206 0104 FC01     		.uleb128 .LVL22-.LVL1
 2207 0106 9402     		.uleb128 .LFE142-.LVL1
 2208 0108 03       		.uleb128 0x3
 2209 0109 08       		.byte	0x8
 2210 010a 20       		.byte	0x20
 2211 010b 9F       		.byte	0x9f
 2212 010c 00       		.byte	0
 2213              	.LVUS8:
 2214 010d 00       		.uleb128 .LVU68
 2215 010e 00       		.uleb128 .LVU73
 2216              	.LLST8:
 2217 010f 08       		.byte	0x8
 2218 0110 88000000 		.4byte	.LVL11
 2219 0114 08       		.uleb128 .LVL12-.LVL11
 2220 0115 05       		.uleb128 0x5
 2221 0116 08       		.byte	0x8
 2222 0117 C3       		.byte	0xc3
 2223 0118 42       		.byte	0x42
ARM GAS  C:\Users\DEVELO~1\AppData\Local\Temp\ccovQorn.s 			page 40


 2224 0119 24       		.byte	0x24
 2225 011a 9F       		.byte	0x9f
 2226 011b 00       		.byte	0
 2227              	.LVUS9:
 2228 011c 00       		.uleb128 .LVU68
 2229 011d 00       		.uleb128 .LVU73
 2230              	.LLST9:
 2231 011e 08       		.byte	0x8
 2232 011f 88000000 		.4byte	.LVL11
 2233 0123 08       		.uleb128 .LVL12-.LVL11
 2234 0124 01       		.uleb128 0x1
 2235 0125 52       		.byte	0x52
 2236 0126 00       		.byte	0
 2237              	.LVUS10:
 2238 0127 00       		.uleb128 .LVU92
 2239 0128 00       		.uleb128 .LVU96
 2240              	.LLST10:
 2241 0129 08       		.byte	0x8
 2242 012a A4000000 		.4byte	.LVL13
 2243 012e 0E       		.uleb128 .LVL14-.LVL13
 2244 012f 01       		.uleb128 0x1
 2245 0130 53       		.byte	0x53
 2246 0131 00       		.byte	0
 2247              	.LVUS11:
 2248 0132 01       		.uleb128 .LVU93
 2249 0133 00       		.uleb128 .LVU96
 2250              	.LLST11:
 2251 0134 08       		.byte	0x8
 2252 0135 A4000000 		.4byte	.LVL13
 2253 0139 0E       		.uleb128 .LVL14-.LVL13
 2254 013a 09       		.uleb128 0x9
 2255 013b 73       		.byte	0x73
 2256 013c 00       		.sleb128 0
 2257 013d 3D       		.byte	0x3d
 2258 013e 25       		.byte	0x25
 2259 013f 0A       		.byte	0xa
 2260 0140 FF7F     		.2byte	0x7fff
 2261 0142 1A       		.byte	0x1a
 2262 0143 9F       		.byte	0x9f
 2263 0144 00       		.byte	0
 2264              	.LVUS12:
 2265 0145 00       		.uleb128 .LVU100
 2266 0146 00       		.uleb128 .LVU104
 2267 0147 00       		.uleb128 .LVU104
 2268 0148 01       		.uleb128 .LVU106
 2269 0149 01       		.uleb128 .LVU106
 2270 014a 00       		.uleb128 .LVU114
 2271              	.LLST12:
 2272 014b 06       		.byte	0x6
 2273 014c B8000000 		.4byte	.LVL15
 2274 0150 04       		.byte	0x4
 2275 0151 00       		.uleb128 .LVL15-.LVL15
 2276 0152 06       		.uleb128 .LVL16-.LVL15
 2277 0153 01       		.uleb128 0x1
 2278 0154 53       		.byte	0x53
 2279 0155 04       		.byte	0x4
 2280 0156 06       		.uleb128 .LVL16-.LVL15
ARM GAS  C:\Users\DEVELO~1\AppData\Local\Temp\ccovQorn.s 			page 41


 2281 0157 0A       		.uleb128 .LVL17-.LVL15
 2282 0158 03       		.uleb128 0x3
 2283 0159 73       		.byte	0x73
 2284 015a 01       		.sleb128 1
 2285 015b 9F       		.byte	0x9f
 2286 015c 04       		.byte	0x4
 2287 015d 0A       		.uleb128 .LVL17-.LVL15
 2288 015e 1E       		.uleb128 .LVL18-.LVL15
 2289 015f 01       		.uleb128 0x1
 2290 0160 53       		.byte	0x53
 2291 0161 00       		.byte	0
 2292              	.LVUS13:
 2293 0162 01       		.uleb128 .LVU122
 2294 0163 00       		.uleb128 .LVU133
 2295              	.LLST13:
 2296 0164 08       		.byte	0x8
 2297 0165 DE000000 		.4byte	.LVL19
 2298 0169 16       		.uleb128 .LVL20-.LVL19
 2299 016a 02       		.uleb128 0x2
 2300 016b 34       		.byte	0x34
 2301 016c 9F       		.byte	0x9f
 2302 016d 00       		.byte	0
 2303              	.Ldebug_loc3:
 2304              		.section	.debug_aranges,"",%progbits
 2305 0000 1C000000 		.4byte	0x1c
 2306 0004 0200     		.2byte	0x2
 2307 0006 00000000 		.4byte	.Ldebug_info0
 2308 000a 04       		.byte	0x4
 2309 000b 00       		.byte	0
 2310 000c 0000     		.2byte	0
 2311 000e 0000     		.2byte	0
 2312 0010 00000000 		.4byte	.LFB142
 2313 0014 1C010000 		.4byte	.LFE142-.LFB142
 2314 0018 00000000 		.4byte	0
 2315 001c 00000000 		.4byte	0
 2316              		.section	.debug_rnglists,"",%progbits
 2317              	.Ldebug_ranges0:
 2318 0000 33000000 		.4byte	.Ldebug_ranges3-.Ldebug_ranges2
 2319              	.Ldebug_ranges2:
 2320 0004 0500     		.2byte	0x5
 2321 0006 04       		.byte	0x4
 2322 0007 00       		.byte	0
 2323 0008 00000000 		.4byte	0
 2324              	.LLRL2:
 2325 000c 05       		.byte	0x5
 2326 000d 08000000 		.4byte	.LBB96
 2327 0011 04       		.byte	0x4
 2328 0012 00       		.uleb128 .LBB96-.LBB96
 2329 0013 00       		.uleb128 .LBE96-.LBB96
 2330 0014 04       		.byte	0x4
 2331 0015 0C       		.uleb128 .LBB102-.LBB96
 2332 0016 20       		.uleb128 .LBE102-.LBB96
 2333 0017 04       		.byte	0x4
 2334 0018 22       		.uleb128 .LBB103-.LBB96
 2335 0019 42       		.uleb128 .LBE103-.LBB96
 2336 001a 04       		.byte	0x4
 2337 001b 42       		.uleb128 .LBB104-.LBB96
ARM GAS  C:\Users\DEVELO~1\AppData\Local\Temp\ccovQorn.s 			page 42


 2338 001c 44       		.uleb128 .LBE104-.LBB96
 2339 001d 04       		.byte	0x4
 2340 001e FC01     		.uleb128 .LBB145-.LBB96
 2341 0020 9402     		.uleb128 .LBE145-.LBB96
 2342 0022 00       		.byte	0
 2343              	.LLRL7:
 2344 0023 05       		.byte	0x5
 2345 0024 80000000 		.4byte	.LBB115
 2346 0028 04       		.byte	0x4
 2347 0029 00       		.uleb128 .LBB115-.LBB115
 2348 002a 04       		.uleb128 .LBE115-.LBB115
 2349 002b 04       		.byte	0x4
 2350 002c 08       		.uleb128 .LBB118-.LBB115
 2351 002d 10       		.uleb128 .LBE118-.LBB115
 2352 002e 00       		.byte	0
 2353              	.LLRL14:
 2354 002f 07       		.byte	0x7
 2355 0030 00000000 		.4byte	.LFB142
 2356 0034 9C02     		.uleb128 .LFE142-.LFB142
 2357 0036 00       		.byte	0
 2358              	.Ldebug_ranges3:
 2359              		.section	.debug_line,"",%progbits
 2360              	.Ldebug_line0:
 2361 0000 FF030000 		.section	.debug_str,"MS",%progbits,1
 2361      03005C01 
 2361      00000201 
 2361      FB0E0D00 
 2361      01010101 
 2362              	.LASF54:
 2363 0000 44434353 		.ascii	"DCCSW\000"
 2363      5700
 2364              	.LASF93:
 2365 0006 41524D5F 		.ascii	"ARM_MPU_SetRegion\000"
 2365      4D50555F 
 2365      53657452 
 2365      6567696F 
 2365      6E00
 2366              	.LASF15:
 2367 0018 5F5F7261 		.ascii	"__ram_d2_start__\000"
 2367      6D5F6432 
 2367      5F737461 
 2367      72745F5F 
 2367      00
 2368              	.LASF102:
 2369 0029 6D70752F 		.ascii	"mpu/mpu_config.c\000"
 2369      6D70755F 
 2369      636F6E66 
 2369      69672E63 
 2369      00
 2370              	.LASF2:
 2371 003a 73686F72 		.ascii	"short int\000"
 2371      7420696E 
 2371      7400
 2372              	.LASF56:
 2373 0044 44434349 		.ascii	"DCCISW\000"
 2373      535700
 2374              	.LASF30:
ARM GAS  C:\Users\DEVELO~1\AppData\Local\Temp\ccovQorn.s 			page 43


 2375 004b 49445F50 		.ascii	"ID_PFR\000"
 2375      465200
 2376              	.LASF78:
 2377 0052 72616D5F 		.ascii	"ram_d2_end\000"
 2377      64325F65 
 2377      6E6400
 2378              	.LASF98:
 2379 005d 41524D5F 		.ascii	"ARM_MPU_Disable\000"
 2379      4D50555F 
 2379      44697361 
 2379      626C6500 
 2380              	.LASF97:
 2381 006d 4D50555F 		.ascii	"MPU_Control\000"
 2381      436F6E74 
 2381      726F6C00 
 2382              	.LASF51:
 2383 0079 44434953 		.ascii	"DCISW\000"
 2383      5700
 2384              	.LASF77:
 2385 007f 72616D5F 		.ascii	"ram_d2_base\000"
 2385      64325F62 
 2385      61736500 
 2386              	.LASF6:
 2387 008b 5F5F7569 		.ascii	"__uint32_t\000"
 2387      6E743332 
 2387      5F7400
 2388              	.LASF55:
 2389 0096 44434349 		.ascii	"DCCIMVAC\000"
 2389      4D564143 
 2389      00
 2390              	.LASF81:
 2391 009f 72656769 		.ascii	"region_size_bytes\000"
 2391      6F6E5F73 
 2391      697A655F 
 2391      62797465 
 2391      7300
 2392              	.LASF101:
 2393 00b1 474E5520 		.ascii	"GNU C17 11.3.1 20220712 -mcpu=cortex-m7 -mthumb -mf"
 2393      43313720 
 2393      31312E33 
 2393      2E312032 
 2393      30323230 
 2394 00e4 6C6F6174 		.ascii	"loat-abi=soft -march=armv7e-m -ggdb -O2 -fomit-fram"
 2394      2D616269 
 2394      3D736F66 
 2394      74202D6D 
 2394      61726368 
 2395 0117 652D706F 		.ascii	"e-pointer -falign-functions=16 -ffunction-sections "
 2395      696E7465 
 2395      72202D66 
 2395      616C6967 
 2395      6E2D6675 
 2396 014a 2D666461 		.ascii	"-fdata-sections -fno-common\000"
 2396      74612D73 
 2396      65637469 
 2396      6F6E7320 
 2396      2D666E6F 
ARM GAS  C:\Users\DEVELO~1\AppData\Local\Temp\ccovQorn.s 			page 44


 2397              	.LASF60:
 2398 0166 41484250 		.ascii	"AHBPCR\000"
 2398      435200
 2399              	.LASF99:
 2400 016d 5F5F4453 		.ascii	"__DSB\000"
 2400      4200
 2401              	.LASF18:
 2402 0173 43505549 		.ascii	"CPUID\000"
 2402      4400
 2403              	.LASF43:
 2404 0179 4D564652 		.ascii	"MVFR0\000"
 2404      3000
 2405              	.LASF44:
 2406 017f 4D564652 		.ascii	"MVFR1\000"
 2406      3100
 2407              	.LASF12:
 2408 0185 75696E74 		.ascii	"uint8_t\000"
 2408      385F7400 
 2409              	.LASF65:
 2410 018d 5343425F 		.ascii	"SCB_Type\000"
 2410      54797065 
 2410      00
 2411              	.LASF14:
 2412 0196 75696E74 		.ascii	"uintptr_t\000"
 2412      7074725F 
 2412      7400
 2413              	.LASF36:
 2414 01a0 434C4944 		.ascii	"CLIDR\000"
 2414      5200
 2415              	.LASF41:
 2416 01a6 53544952 		.ascii	"STIR\000"
 2416      00
 2417              	.LASF32:
 2418 01ab 49445F41 		.ascii	"ID_AFR\000"
 2418      465200
 2419              	.LASF96:
 2420 01b2 41524D5F 		.ascii	"ARM_MPU_Enable\000"
 2420      4D50555F 
 2420      456E6162 
 2420      6C6500
 2421              	.LASF85:
 2422 01c1 656E636F 		.ascii	"encoded_size\000"
 2422      6465645F 
 2422      73697A65 
 2422      00
 2423              	.LASF52:
 2424 01ce 4443434D 		.ascii	"DCCMVAU\000"
 2424      56415500 
 2425              	.LASF71:
 2426 01d6 52415352 		.ascii	"RASR_A1\000"
 2426      5F413100 
 2427              	.LASF62:
 2428 01de 41484253 		.ascii	"AHBSCR\000"
 2428      435200
 2429              	.LASF19:
 2430 01e5 49435352 		.ascii	"ICSR\000"
 2430      00
ARM GAS  C:\Users\DEVELO~1\AppData\Local\Temp\ccovQorn.s 			page 45


 2431              	.LASF45:
 2432 01ea 4D564652 		.ascii	"MVFR2\000"
 2432      3200
 2433              	.LASF64:
 2434 01f0 41424653 		.ascii	"ABFSR\000"
 2434      5200
 2435              	.LASF8:
 2436 01f6 6C6F6E67 		.ascii	"long long int\000"
 2436      206C6F6E 
 2436      6720696E 
 2436      7400
 2437              	.LASF53:
 2438 0204 4443434D 		.ascii	"DCCMVAC\000"
 2438      56414300 
 2439              	.LASF28:
 2440 020c 42464152 		.ascii	"BFAR\000"
 2440      00
 2441              	.LASF4:
 2442 0211 6C6F6E67 		.ascii	"long int\000"
 2442      20696E74 
 2442      00
 2443              	.LASF83:
 2444 021a 62617365 		.ascii	"base\000"
 2444      00
 2445              	.LASF37:
 2446 021f 43435349 		.ascii	"CCSIDR\000"
 2446      445200
 2447              	.LASF5:
 2448 0226 5F5F7569 		.ascii	"__uint8_t\000"
 2448      6E74385F 
 2448      7400
 2449              	.LASF24:
 2450 0230 43465352 		.ascii	"CFSR\000"
 2450      00
 2451              	.LASF47:
 2452 0235 49434941 		.ascii	"ICIALLU\000"
 2452      4C4C5500 
 2453              	.LASF50:
 2454 023d 4443494D 		.ascii	"DCIMVAC\000"
 2454      56414300 
 2455              	.LASF58:
 2456 0245 4954434D 		.ascii	"ITCMCR\000"
 2456      435200
 2457              	.LASF49:
 2458 024c 4943494D 		.ascii	"ICIMVAU\000"
 2458      56415500 
 2459              	.LASF17:
 2460 0254 6C6F6E67 		.ascii	"long double\000"
 2460      20646F75 
 2460      626C6500 
 2461              	.LASF21:
 2462 0260 41495243 		.ascii	"AIRCR\000"
 2462      5200
 2463              	.LASF1:
 2464 0266 756E7369 		.ascii	"unsigned char\000"
 2464      676E6564 
 2464      20636861 
ARM GAS  C:\Users\DEVELO~1\AppData\Local\Temp\ccovQorn.s 			page 46


 2464      7200
 2465              	.LASF79:
 2466 0274 72616D5F 		.ascii	"ram_d2_size\000"
 2466      64325F73 
 2466      697A6500 
 2467              	.LASF67:
 2468 0280 4354524C 		.ascii	"CTRL\000"
 2468      00
 2469              	.LASF0:
 2470 0285 7369676E 		.ascii	"signed char\000"
 2470      65642063 
 2470      68617200 
 2471              	.LASF22:
 2472 0291 53485052 		.ascii	"SHPR\000"
 2472      00
 2473              	.LASF9:
 2474 0296 6C6F6E67 		.ascii	"long long unsigned int\000"
 2474      206C6F6E 
 2474      6720756E 
 2474      7369676E 
 2474      65642069 
 2475              	.LASF23:
 2476 02ad 53484353 		.ascii	"SHCSR\000"
 2476      5200
 2477              	.LASF39:
 2478 02b3 43504143 		.ascii	"CPACR\000"
 2478      5200
 2479              	.LASF91:
 2480 02b9 77617973 		.ascii	"ways\000"
 2480      00
 2481              	.LASF11:
 2482 02be 756E7369 		.ascii	"unsigned int\000"
 2482      676E6564 
 2482      20696E74 
 2482      00
 2483              	.LASF100:
 2484 02cb 5F5F4953 		.ascii	"__ISB\000"
 2484      4200
 2485              	.LASF7:
 2486 02d1 6C6F6E67 		.ascii	"long unsigned int\000"
 2486      20756E73 
 2486      69676E65 
 2486      6420696E 
 2486      7400
 2487              	.LASF89:
 2488 02e3 63637369 		.ascii	"ccsidr\000"
 2488      647200
 2489              	.LASF27:
 2490 02ea 4D4D4641 		.ascii	"MMFAR\000"
 2490      5200
 2491              	.LASF87:
 2492 02f0 72617372 		.ascii	"rasr_size\000"
 2492      5F73697A 
 2492      6500
 2493              	.LASF106:
 2494 02fa 6D70755F 		.ascii	"mpu_compute_region_size\000"
 2494      636F6D70 
ARM GAS  C:\Users\DEVELO~1\AppData\Local\Temp\ccovQorn.s 			page 47


 2494      7574655F 
 2494      72656769 
 2494      6F6E5F73 
 2495              	.LASF38:
 2496 0312 43535345 		.ascii	"CSSELR\000"
 2496      4C5200
 2497              	.LASF3:
 2498 0319 73686F72 		.ascii	"short unsigned int\000"
 2498      7420756E 
 2498      7369676E 
 2498      65642069 
 2498      6E7400
 2499              	.LASF82:
 2500 032c 5F426F6F 		.ascii	"_Bool\000"
 2500      6C00
 2501              	.LASF95:
 2502 0332 72617372 		.ascii	"rasr\000"
 2502      00
 2503              	.LASF20:
 2504 0337 56544F52 		.ascii	"VTOR\000"
 2504      00
 2505              	.LASF70:
 2506 033c 52424152 		.ascii	"RBAR_A1\000"
 2506      5F413100 
 2507              	.LASF72:
 2508 0344 52424152 		.ascii	"RBAR_A2\000"
 2508      5F413200 
 2509              	.LASF74:
 2510 034c 52424152 		.ascii	"RBAR_A3\000"
 2510      5F413300 
 2511              	.LASF26:
 2512 0354 44465352 		.ascii	"DFSR\000"
 2512      00
 2513              	.LASF103:
 2514 0359 433A5C50 		.ascii	"C:\\PROJET\\ChibiOS project\\ChibiOS_21.11.4\\demos"
 2514      524F4A45 
 2514      545C4368 
 2514      6962694F 
 2514      53207072 
 2515 0388 5C53544D 		.ascii	"\\STM32\\RT-STM32H743ZI_REV_XY-NUCLEO144\000"
 2515      33325C52 
 2515      542D5354 
 2515      4D333248 
 2515      3734335A 
 2516              	.LASF80:
 2517 03af 72656769 		.ascii	"region_size_encoding\000"
 2517      6F6E5F73 
 2517      697A655F 
 2517      656E636F 
 2517      64696E67 
 2518              	.LASF25:
 2519 03c4 48465352 		.ascii	"HFSR\000"
 2519      00
 2520              	.LASF90:
 2521 03c9 73657473 		.ascii	"sets\000"
 2521      00
 2522              	.LASF61:
ARM GAS  C:\Users\DEVELO~1\AppData\Local\Temp\ccovQorn.s 			page 48


 2523 03ce 43414352 		.ascii	"CACR\000"
 2523      00
 2524              	.LASF94:
 2525 03d3 72626172 		.ascii	"rbar\000"
 2525      00
 2526              	.LASF35:
 2527 03d8 52455345 		.ascii	"RESERVED0\000"
 2527      52564544 
 2527      3000
 2528              	.LASF68:
 2529 03e2 52424152 		.ascii	"RBAR\000"
 2529      00
 2530              	.LASF13:
 2531 03e7 75696E74 		.ascii	"uint32_t\000"
 2531      33325F74 
 2531      00
 2532              	.LASF40:
 2533 03f0 52455345 		.ascii	"RESERVED3\000"
 2533      52564544 
 2533      3300
 2534              	.LASF42:
 2535 03fa 52455345 		.ascii	"RESERVED4\000"
 2535      52564544 
 2535      3400
 2536              	.LASF46:
 2537 0404 52455345 		.ascii	"RESERVED5\000"
 2537      52564544 
 2537      3500
 2538              	.LASF48:
 2539 040e 52455345 		.ascii	"RESERVED6\000"
 2539      52564544 
 2539      3600
 2540              	.LASF57:
 2541 0418 52455345 		.ascii	"RESERVED7\000"
 2541      52564544 
 2541      3700
 2542              	.LASF63:
 2543 0422 52455345 		.ascii	"RESERVED8\000"
 2543      52564544 
 2543      3800
 2544              	.LASF16:
 2545 042c 5F5F7261 		.ascii	"__ram_d2_end__\000"
 2545      6D5F6432 
 2545      5F656E64 
 2545      5F5F00
 2546              	.LASF66:
 2547 043b 54595045 		.ascii	"TYPE\000"
 2547      00
 2548              	.LASF10:
 2549 0440 5F5F7569 		.ascii	"__uintptr_t\000"
 2549      6E747074 
 2549      725F7400 
 2550              	.LASF84:
 2551 044c 73697A65 		.ascii	"size\000"
 2551      00
 2552              	.LASF76:
 2553 0451 4D50555F 		.ascii	"MPU_Type\000"
ARM GAS  C:\Users\DEVELO~1\AppData\Local\Temp\ccovQorn.s 			page 49


 2553      54797065 
 2553      00
 2554              	.LASF69:
 2555 045a 52415352 		.ascii	"RASR\000"
 2555      00
 2556              	.LASF33:
 2557 045f 49445F4D 		.ascii	"ID_MFR\000"
 2557      465200
 2558              	.LASF29:
 2559 0466 41465352 		.ascii	"AFSR\000"
 2559      00
 2560              	.LASF59:
 2561 046b 4454434D 		.ascii	"DTCMCR\000"
 2561      435200
 2562              	.LASF88:
 2563 0472 63616E64 		.ascii	"candidate_bytes\000"
 2563      69646174 
 2563      655F6279 
 2563      74657300 
 2564              	.LASF92:
 2565 0482 5343425F 		.ascii	"SCB_InvalidateDCache\000"
 2565      496E7661 
 2565      6C696461 
 2565      74654443 
 2565      61636865 
 2566              	.LASF31:
 2567 0497 49445F44 		.ascii	"ID_DFR\000"
 2567      465200
 2568              	.LASF104:
 2569 049e 6D70755F 		.ascii	"mpu_config_init_once\000"
 2569      636F6E66 
 2569      69675F69 
 2569      6E69745F 
 2569      6F6E6365 
 2570              	.LASF105:
 2571 04b3 696E6974 		.ascii	"initialized\000"
 2571      69616C69 
 2571      7A656400 
 2572              	.LASF86:
 2573 04bf 72656769 		.ascii	"region_bytes\000"
 2573      6F6E5F62 
 2573      79746573 
 2573      00
 2574              	.LASF34:
 2575 04cc 49445F49 		.ascii	"ID_ISAR\000"
 2575      53415200 
 2576              	.LASF73:
 2577 04d4 52415352 		.ascii	"RASR_A2\000"
 2577      5F413200 
 2578              	.LASF75:
 2579 04dc 52415352 		.ascii	"RASR_A3\000"
 2579      5F413300 
 2580              		.ident	"GCC: (Arm GNU Toolchain 11.3.Rel1) 11.3.1 20220712"
ARM GAS  C:\Users\DEVELO~1\AppData\Local\Temp\ccovQorn.s 			page 50


DEFINED SYMBOLS
                            *ABS*:00000000 mpu_config.c
C:\Users\DEVELO~1\AppData\Local\Temp\ccovQorn.s:18     .text.mpu_config_init_once:00000000 $t
C:\Users\DEVELO~1\AppData\Local\Temp\ccovQorn.s:25     .text.mpu_config_init_once:00000000 mpu_config_init_once
C:\Users\DEVELO~1\AppData\Local\Temp\ccovQorn.s:508    .text.mpu_config_init_once:0000010c $d
C:\Users\DEVELO~1\AppData\Local\Temp\ccovQorn.s:521    .bss.initialized.0:00000000 initialized.0
C:\Users\DEVELO~1\AppData\Local\Temp\ccovQorn.s:522    .bss.initialized.0:00000000 $d

UNDEFINED SYMBOLS
__ram_d2_start__
__ram_d2_end__
