ARM GAS  C:\Users\DEVELO~1\AppData\Local\Temp\ccEY2fKp.s 			page 1


   1              		.cpu cortex-m7
   2              		.arch armv7e-m
   3              		.fpu softvfp
   4              		.eabi_attribute 20, 1
   5              		.eabi_attribute 21, 1
   6              		.eabi_attribute 23, 3
   7              		.eabi_attribute 24, 1
   8              		.eabi_attribute 25, 1
   9              		.eabi_attribute 26, 1
  10              		.eabi_attribute 30, 2
  11              		.eabi_attribute 34, 1
  12              		.eabi_attribute 18, 4
  13              		.file	"nullstreams.c"
  14              		.text
  15              	.Ltext0:
  16              		.cfi_sections	.debug_frame
  17              		.section	.text.writes,"ax",%progbits
  18              		.align	1
  19              		.p2align 4,,15
  20              		.syntax unified
  21              		.thumb
  22              		.thumb_func
  23              		.type	writes, %function
  24              	writes:
  25              	.LVL0:
  26              	.LFB432:
  27              		.file 1 "../../../os/hal/lib/streams/nullstreams.c"
  28              		.loc 1 45 61 view -0
  29              		.cfi_startproc
  30              		@ args = 0, pretend = 0, frame = 0
  31              		@ frame_needed = 0, uses_anonymous_args = 0
  32              		@ link register save eliminated.
  33              		.loc 1 47 3 view .LVU1
  34              		.loc 1 48 3 view .LVU2
  35              		.loc 1 50 3 view .LVU3
  36              		.loc 1 51 1 is_stmt 0 view .LVU4
  37 0000 1046     		mov	r0, r2
  38              	.LVL1:
  39              		.loc 1 51 1 view .LVU5
  40 0002 7047     		bx	lr
  41              		.cfi_endproc
  42              	.LFE432:
  43              		.size	writes, .-writes
  44              		.section	.text.reads,"ax",%progbits
  45              		.align	1
  46              		.p2align 4,,15
  47              		.syntax unified
  48              		.thumb
  49              		.thumb_func
  50              		.type	reads, %function
  51              	reads:
  52              	.LVL2:
  53              	.LFB433:
  54              		.loc 1 53 54 is_stmt 1 view -0
  55              		.cfi_startproc
  56              		@ args = 0, pretend = 0, frame = 0
  57              		@ frame_needed = 0, uses_anonymous_args = 0
ARM GAS  C:\Users\DEVELO~1\AppData\Local\Temp\ccEY2fKp.s 			page 2


  58              		@ link register save eliminated.
  59              		.loc 1 55 3 view .LVU7
  60              		.loc 1 56 3 view .LVU8
  61              		.loc 1 57 3 view .LVU9
  62              		.loc 1 59 3 view .LVU10
  63              		.loc 1 60 1 is_stmt 0 view .LVU11
  64 0000 0020     		movs	r0, #0
  65              	.LVL3:
  66              		.loc 1 60 1 view .LVU12
  67 0002 7047     		bx	lr
  68              		.cfi_endproc
  69              	.LFE433:
  70              		.size	reads, .-reads
  71              		.section	.text.put,"ax",%progbits
  72              		.align	1
  73              		.p2align 4,,15
  74              		.syntax unified
  75              		.thumb
  76              		.thumb_func
  77              		.type	put, %function
  78              	put:
  79              	.LVL4:
  80              	.LFB434:
  81              		.loc 1 62 39 is_stmt 1 view -0
  82              		.cfi_startproc
  83              		@ args = 0, pretend = 0, frame = 0
  84              		@ frame_needed = 0, uses_anonymous_args = 0
  85              		@ link register save eliminated.
  86              		.loc 1 64 3 view .LVU14
  87              		.loc 1 65 3 view .LVU15
  88              		.loc 1 67 3 view .LVU16
  89              		.loc 1 68 1 is_stmt 0 view .LVU17
  90 0000 0020     		movs	r0, #0
  91              	.LVL5:
  92              		.loc 1 68 1 view .LVU18
  93 0002 7047     		bx	lr
  94              		.cfi_endproc
  95              	.LFE434:
  96              		.size	put, .-put
  97              		.section	.text.get,"ax",%progbits
  98              		.align	1
  99              		.p2align 4,,15
 100              		.syntax unified
 101              		.thumb
 102              		.thumb_func
 103              		.type	get, %function
 104              	get:
 105              	.LVL6:
 106              	.LFB435:
 107              		.loc 1 70 28 is_stmt 1 view -0
 108              		.cfi_startproc
 109              		@ args = 0, pretend = 0, frame = 0
 110              		@ frame_needed = 0, uses_anonymous_args = 0
 111              		@ link register save eliminated.
 112              		.loc 1 72 3 view .LVU20
 113              		.loc 1 74 3 view .LVU21
 114              		.loc 1 75 1 is_stmt 0 view .LVU22
ARM GAS  C:\Users\DEVELO~1\AppData\Local\Temp\ccEY2fKp.s 			page 3


 115 0000 0420     		movs	r0, #4
 116              	.LVL7:
 117              		.loc 1 75 1 view .LVU23
 118 0002 7047     		bx	lr
 119              		.cfi_endproc
 120              	.LFE435:
 121              		.size	get, .-get
 122              		.section	.text.unget,"ax",%progbits
 123              		.align	1
 124              		.p2align 4,,15
 125              		.syntax unified
 126              		.thumb
 127              		.thumb_func
 128              		.type	unget, %function
 129              	unget:
 130              	.LFB439:
 131              		.cfi_startproc
 132              		@ args = 0, pretend = 0, frame = 0
 133              		@ frame_needed = 0, uses_anonymous_args = 0
 134              		@ link register save eliminated.
 135 0000 0020     		movs	r0, #0
 136 0002 7047     		bx	lr
 137              		.cfi_endproc
 138              	.LFE439:
 139              		.size	unget, .-unget
 140              		.section	.text.nullObjectInit,"ax",%progbits
 141              		.align	1
 142              		.p2align 4,,15
 143              		.global	nullObjectInit
 144              		.syntax unified
 145              		.thumb
 146              		.thumb_func
 147              		.type	nullObjectInit, %function
 148              	nullObjectInit:
 149              	.LVL8:
 150              	.LFB437:
 151              		.loc 1 97 38 is_stmt 1 view -0
 152              		.cfi_startproc
 153              		@ args = 0, pretend = 0, frame = 0
 154              		@ frame_needed = 0, uses_anonymous_args = 0
 155              		@ link register save eliminated.
 156              		.loc 1 99 3 view .LVU25
 157              		.loc 1 99 12 is_stmt 0 view .LVU26
 158 0000 014B     		ldr	r3, .L8
 159 0002 0360     		str	r3, [r0]
 160              		.loc 1 100 1 view .LVU27
 161 0004 7047     		bx	lr
 162              	.L9:
 163 0006 00BF     		.align	2
 164              	.L8:
 165 0008 00000000 		.word	.LANCHOR0
 166              		.cfi_endproc
 167              	.LFE437:
 168              		.size	nullObjectInit, .-nullObjectInit
 169              		.section	.rodata.vmt,"a"
 170              		.align	2
 171              		.set	.LANCHOR0,. + 0
ARM GAS  C:\Users\DEVELO~1\AppData\Local\Temp\ccEY2fKp.s 			page 4


 172              		.type	vmt, %object
 173              		.size	vmt, 24
 174              	vmt:
 175 0000 00000000 		.word	0
 176 0004 00000000 		.word	writes
 177 0008 00000000 		.word	reads
 178 000c 00000000 		.word	put
 179 0010 00000000 		.word	get
 180 0014 00000000 		.word	unget
 181              		.text
 182              	.Letext0:
 183              		.file 2 "c:\\chibistudio\\tools\\gnu tools arm embedded\\11.3 2022.08\\lib\\gcc\\arm-none-eabi\\11
 184              		.file 3 "c:\\chibistudio\\tools\\gnu tools arm embedded\\11.3 2022.08\\arm-none-eabi\\include\\mac
 185              		.file 4 "c:\\chibistudio\\tools\\gnu tools arm embedded\\11.3 2022.08\\arm-none-eabi\\include\\sys
 186              		.file 5 "../../../os/rt/include/chearly.h"
 187              		.file 6 "../../../os/hal/lib/streams/nullstreams.h"
 188              		.section	.debug_info,"",%progbits
 189              	.Ldebug_info0:
 190 0000 13030000 		.4byte	0x313
 191 0004 0500     		.2byte	0x5
 192 0006 01       		.byte	0x1
 193 0007 04       		.byte	0x4
 194 0008 00000000 		.4byte	.Ldebug_abbrev0
 195 000c 0D       		.uleb128 0xd
 196 000d 36000000 		.4byte	.LASF25
 197 0011 1D       		.byte	0x1d
 198 0012 C3010000 		.4byte	.LASF26
 199 0016 40010000 		.4byte	.LASF27
 200 001a 0C000000 		.4byte	.LLRL4
 201 001e 00000000 		.4byte	0
 202 0022 00000000 		.4byte	.Ldebug_line0
 203 0026 0E       		.uleb128 0xe
 204 0027 04       		.byte	0x4
 205 0028 05       		.byte	0x5
 206 0029 696E7400 		.ascii	"int\000"
 207 002d 04       		.uleb128 0x4
 208 002e 0A000000 		.4byte	.LASF4
 209 0032 02       		.byte	0x2
 210 0033 D1       		.byte	0xd1
 211 0034 17       		.byte	0x17
 212 0035 39000000 		.4byte	0x39
 213 0039 01       		.uleb128 0x1
 214 003a 04       		.byte	0x4
 215 003b 07       		.byte	0x7
 216 003c 29000000 		.4byte	.LASF0
 217 0040 01       		.uleb128 0x1
 218 0041 08       		.byte	0x8
 219 0042 05       		.byte	0x5
 220 0043 0E020000 		.4byte	.LASF1
 221 0047 01       		.uleb128 0x1
 222 0048 08       		.byte	0x8
 223 0049 04       		.byte	0x4
 224 004a EB000000 		.4byte	.LASF2
 225 004e 01       		.uleb128 0x1
 226 004f 01       		.byte	0x1
 227 0050 06       		.byte	0x6
 228 0051 0D010000 		.4byte	.LASF3
ARM GAS  C:\Users\DEVELO~1\AppData\Local\Temp\ccEY2fKp.s 			page 5


 229 0055 04       		.uleb128 0x4
 230 0056 00000000 		.4byte	.LASF5
 231 005a 03       		.byte	0x3
 232 005b 2B       		.byte	0x2b
 233 005c 18       		.byte	0x18
 234 005d 61000000 		.4byte	0x61
 235 0061 01       		.uleb128 0x1
 236 0062 01       		.byte	0x1
 237 0063 08       		.byte	0x8
 238 0064 19010000 		.4byte	.LASF6
 239 0068 01       		.uleb128 0x1
 240 0069 02       		.byte	0x2
 241 006a 05       		.byte	0x5
 242 006b 1C020000 		.4byte	.LASF7
 243 006f 01       		.uleb128 0x1
 244 0070 02       		.byte	0x2
 245 0071 07       		.byte	0x7
 246 0072 27010000 		.4byte	.LASF8
 247 0076 04       		.uleb128 0x4
 248 0077 1F000000 		.4byte	.LASF9
 249 007b 03       		.byte	0x3
 250 007c 4D       		.byte	0x4d
 251 007d 18       		.byte	0x18
 252 007e 82000000 		.4byte	0x82
 253 0082 01       		.uleb128 0x1
 254 0083 04       		.byte	0x4
 255 0084 05       		.byte	0x5
 256 0085 31020000 		.4byte	.LASF10
 257 0089 01       		.uleb128 0x1
 258 008a 04       		.byte	0x4
 259 008b 07       		.byte	0x7
 260 008c 96010000 		.4byte	.LASF11
 261 0090 01       		.uleb128 0x1
 262 0091 08       		.byte	0x8
 263 0092 07       		.byte	0x7
 264 0093 40020000 		.4byte	.LASF12
 265 0097 04       		.uleb128 0x4
 266 0098 F8010000 		.4byte	.LASF13
 267 009c 04       		.byte	0x4
 268 009d 18       		.byte	0x18
 269 009e 13       		.byte	0x13
 270 009f 55000000 		.4byte	0x55
 271 00a3 0B       		.uleb128 0xb
 272 00a4 97000000 		.4byte	0x97
 273 00a8 04       		.uleb128 0x4
 274 00a9 06020000 		.4byte	.LASF14
 275 00ad 04       		.byte	0x4
 276 00ae 2C       		.byte	0x2c
 277 00af 13       		.byte	0x13
 278 00b0 76000000 		.4byte	0x76
 279 00b4 04       		.uleb128 0x4
 280 00b5 00020000 		.4byte	.LASF15
 281 00b9 05       		.byte	0x5
 282 00ba 58       		.byte	0x58
 283 00bb 19       		.byte	0x19
 284 00bc A8000000 		.4byte	0xa8
 285 00c0 01       		.uleb128 0x1
ARM GAS  C:\Users\DEVELO~1\AppData\Local\Temp\ccEY2fKp.s 			page 6


 286 00c1 01       		.byte	0x1
 287 00c2 08       		.byte	0x8
 288 00c3 F3010000 		.4byte	.LASF16
 289 00c7 0F       		.uleb128 0xf
 290 00c8 04       		.byte	0x4
 291 00c9 01       		.uleb128 0x1
 292 00ca 01       		.byte	0x1
 293 00cb 02       		.byte	0x2
 294 00cc 3A020000 		.4byte	.LASF17
 295 00d0 03       		.uleb128 0x3
 296 00d1 97000000 		.4byte	0x97
 297 00d5 06       		.uleb128 0x6
 298 00d6 2D000000 		.4byte	0x2d
 299 00da EE000000 		.4byte	0xee
 300 00de 02       		.uleb128 0x2
 301 00df C7000000 		.4byte	0xc7
 302 00e3 02       		.uleb128 0x2
 303 00e4 EE000000 		.4byte	0xee
 304 00e8 02       		.uleb128 0x2
 305 00e9 2D000000 		.4byte	0x2d
 306 00ed 00       		.byte	0
 307 00ee 03       		.uleb128 0x3
 308 00ef A3000000 		.4byte	0xa3
 309 00f3 03       		.uleb128 0x3
 310 00f4 D5000000 		.4byte	0xd5
 311 00f8 06       		.uleb128 0x6
 312 00f9 2D000000 		.4byte	0x2d
 313 00fd 11010000 		.4byte	0x111
 314 0101 02       		.uleb128 0x2
 315 0102 C7000000 		.4byte	0xc7
 316 0106 02       		.uleb128 0x2
 317 0107 D0000000 		.4byte	0xd0
 318 010b 02       		.uleb128 0x2
 319 010c 2D000000 		.4byte	0x2d
 320 0110 00       		.byte	0
 321 0111 03       		.uleb128 0x3
 322 0112 F8000000 		.4byte	0xf8
 323 0116 06       		.uleb128 0x6
 324 0117 B4000000 		.4byte	0xb4
 325 011b 2A010000 		.4byte	0x12a
 326 011f 02       		.uleb128 0x2
 327 0120 C7000000 		.4byte	0xc7
 328 0124 02       		.uleb128 0x2
 329 0125 97000000 		.4byte	0x97
 330 0129 00       		.byte	0
 331 012a 03       		.uleb128 0x3
 332 012b 16010000 		.4byte	0x116
 333 012f 06       		.uleb128 0x6
 334 0130 B4000000 		.4byte	0xb4
 335 0134 3E010000 		.4byte	0x13e
 336 0138 02       		.uleb128 0x2
 337 0139 C7000000 		.4byte	0xc7
 338 013d 00       		.byte	0
 339 013e 03       		.uleb128 0x3
 340 013f 2F010000 		.4byte	0x12f
 341 0143 10       		.uleb128 0x10
 342 0144 11000000 		.4byte	.LASF28
ARM GAS  C:\Users\DEVELO~1\AppData\Local\Temp\ccEY2fKp.s 			page 7


 343 0148 18       		.byte	0x18
 344 0149 06       		.byte	0x6
 345 014a 35       		.byte	0x35
 346 014b 08       		.byte	0x8
 347 014c 91010000 		.4byte	0x191
 348 0150 07       		.uleb128 0x7
 349 0151 A8010000 		.4byte	.LASF18
 350 0155 2D000000 		.4byte	0x2d
 351 0159 00       		.byte	0
 352 015a 07       		.uleb128 0x7
 353 015b 3A010000 		.4byte	.LASF19
 354 015f F3000000 		.4byte	0xf3
 355 0163 04       		.byte	0x4
 356 0164 07       		.uleb128 0x7
 357 0165 BE010000 		.4byte	.LASF20
 358 0169 11010000 		.4byte	0x111
 359 016d 08       		.byte	0x8
 360 016e 09       		.uleb128 0x9
 361 016f 70757400 		.ascii	"put\000"
 362 0173 36       		.byte	0x36
 363 0174 03       		.byte	0x3
 364 0175 2A010000 		.4byte	0x12a
 365 0179 0C       		.byte	0xc
 366 017a 09       		.uleb128 0x9
 367 017b 67657400 		.ascii	"get\000"
 368 017f 36       		.byte	0x36
 369 0180 03       		.byte	0x3
 370 0181 3E010000 		.4byte	0x13e
 371 0185 10       		.byte	0x10
 372 0186 07       		.uleb128 0x7
 373 0187 ED010000 		.4byte	.LASF21
 374 018b 2A010000 		.4byte	0x12a
 375 018f 14       		.byte	0x14
 376 0190 00       		.byte	0
 377 0191 0B       		.uleb128 0xb
 378 0192 43010000 		.4byte	0x143
 379 0196 11       		.uleb128 0x11
 380 0197 04       		.byte	0x4
 381 0198 06       		.byte	0x6
 382 0199 3E       		.byte	0x3e
 383 019a 09       		.byte	0x9
 384 019b AC010000 		.4byte	0x1ac
 385 019f 09       		.uleb128 0x9
 386 01a0 766D7400 		.ascii	"vmt\000"
 387 01a4 40       		.byte	0x40
 388 01a5 1F       		.byte	0x1f
 389 01a6 AC010000 		.4byte	0x1ac
 390 01aa 00       		.byte	0
 391 01ab 00       		.byte	0
 392 01ac 03       		.uleb128 0x3
 393 01ad 91010000 		.4byte	0x191
 394 01b1 04       		.uleb128 0x4
 395 01b2 26020000 		.4byte	.LASF22
 396 01b6 06       		.byte	0x6
 397 01b7 42       		.byte	0x42
 398 01b8 03       		.byte	0x3
 399 01b9 96010000 		.4byte	0x196
ARM GAS  C:\Users\DEVELO~1\AppData\Local\Temp\ccEY2fKp.s 			page 8


 400 01bd 12       		.uleb128 0x12
 401 01be 766D7400 		.ascii	"vmt\000"
 402 01c2 01       		.byte	0x1
 403 01c3 56       		.byte	0x56
 404 01c4 23       		.byte	0x23
 405 01c5 91010000 		.4byte	0x191
 406 01c9 05       		.uleb128 0x5
 407 01ca 03       		.byte	0x3
 408 01cb 00000000 		.4byte	vmt
 409 01cf 13       		.uleb128 0x13
 410 01d0 FE000000 		.4byte	.LASF29
 411 01d4 01       		.byte	0x1
 412 01d5 61       		.byte	0x61
 413 01d6 06       		.byte	0x6
 414 01d7 00000000 		.4byte	.LFB437
 415 01db 0C000000 		.4byte	.LFE437-.LFB437
 416 01df 01       		.uleb128 0x1
 417 01e0 9C       		.byte	0x9c
 418 01e1 F3010000 		.4byte	0x1f3
 419 01e5 05       		.uleb128 0x5
 420 01e6 6E737000 		.ascii	"nsp\000"
 421 01ea 61       		.byte	0x61
 422 01eb 21       		.byte	0x21
 423 01ec F3010000 		.4byte	0x1f3
 424 01f0 01       		.uleb128 0x1
 425 01f1 50       		.byte	0x50
 426 01f2 00       		.byte	0
 427 01f3 03       		.uleb128 0x3
 428 01f4 B1010000 		.4byte	0x1b1
 429 01f8 14       		.uleb128 0x14
 430 01f9 ED010000 		.4byte	.LASF21
 431 01fd 01       		.byte	0x1
 432 01fe 4D       		.byte	0x4d
 433 01ff 0E       		.byte	0xe
 434 0200 B4000000 		.4byte	0xb4
 435 0204 1C020000 		.4byte	0x21c
 436 0208 08       		.uleb128 0x8
 437 0209 697000   		.ascii	"ip\000"
 438 020c 4D       		.byte	0x4d
 439 020d 1A       		.byte	0x1a
 440 020e C7000000 		.4byte	0xc7
 441 0212 08       		.uleb128 0x8
 442 0213 6200     		.ascii	"b\000"
 443 0215 4D       		.byte	0x4d
 444 0216 26       		.byte	0x26
 445 0217 97000000 		.4byte	0x97
 446 021b 00       		.byte	0
 447 021c 15       		.uleb128 0x15
 448 021d 67657400 		.ascii	"get\000"
 449 0221 01       		.byte	0x1
 450 0222 46       		.byte	0x46
 451 0223 0E       		.byte	0xe
 452 0224 B4000000 		.4byte	0xb4
 453 0228 00000000 		.4byte	.LFB435
 454 022c 04000000 		.4byte	.LFE435-.LFB435
 455 0230 01       		.uleb128 0x1
 456 0231 9C       		.byte	0x9c
ARM GAS  C:\Users\DEVELO~1\AppData\Local\Temp\ccEY2fKp.s 			page 9


 457 0232 49020000 		.4byte	0x249
 458 0236 0A       		.uleb128 0xa
 459 0237 697000   		.ascii	"ip\000"
 460 023a 46       		.byte	0x46
 461 023b 18       		.byte	0x18
 462 023c C7000000 		.4byte	0xc7
 463 0240 10000000 		.4byte	.LLST3
 464 0244 0C000000 		.4byte	.LVUS3
 465 0248 00       		.byte	0
 466 0249 16       		.uleb128 0x16
 467 024a 70757400 		.ascii	"put\000"
 468 024e 01       		.byte	0x1
 469 024f 3E       		.byte	0x3e
 470 0250 0E       		.byte	0xe
 471 0251 B4000000 		.4byte	0xb4
 472 0255 01       		.byte	0x1
 473 0256 6E020000 		.4byte	0x26e
 474 025a 08       		.uleb128 0x8
 475 025b 697000   		.ascii	"ip\000"
 476 025e 3E       		.byte	0x3e
 477 025f 18       		.byte	0x18
 478 0260 C7000000 		.4byte	0xc7
 479 0264 08       		.uleb128 0x8
 480 0265 6200     		.ascii	"b\000"
 481 0267 3E       		.byte	0x3e
 482 0268 24       		.byte	0x24
 483 0269 97000000 		.4byte	0x97
 484 026d 00       		.byte	0
 485 026e 0C       		.uleb128 0xc
 486 026f B8010000 		.4byte	.LASF23
 487 0273 35       		.byte	0x35
 488 0274 2D000000 		.4byte	0x2d
 489 0278 00000000 		.4byte	.LFB433
 490 027c 04000000 		.4byte	.LFE433-.LFB433
 491 0280 01       		.uleb128 0x1
 492 0281 9C       		.byte	0x9c
 493 0282 B0020000 		.4byte	0x2b0
 494 0286 0A       		.uleb128 0xa
 495 0287 697000   		.ascii	"ip\000"
 496 028a 35       		.byte	0x35
 497 028b 1B       		.byte	0x1b
 498 028c C7000000 		.4byte	0xc7
 499 0290 27000000 		.4byte	.LLST1
 500 0294 23000000 		.4byte	.LVUS1
 501 0298 05       		.uleb128 0x5
 502 0299 627000   		.ascii	"bp\000"
 503 029c 35       		.byte	0x35
 504 029d 28       		.byte	0x28
 505 029e D0000000 		.4byte	0xd0
 506 02a2 01       		.uleb128 0x1
 507 02a3 51       		.byte	0x51
 508 02a4 05       		.uleb128 0x5
 509 02a5 6E00     		.ascii	"n\000"
 510 02a7 35       		.byte	0x35
 511 02a8 33       		.byte	0x33
 512 02a9 2D000000 		.4byte	0x2d
 513 02ad 01       		.uleb128 0x1
ARM GAS  C:\Users\DEVELO~1\AppData\Local\Temp\ccEY2fKp.s 			page 10


 514 02ae 52       		.byte	0x52
 515 02af 00       		.byte	0
 516 02b0 0C       		.uleb128 0xc
 517 02b1 F7000000 		.4byte	.LASF24
 518 02b5 2D       		.byte	0x2d
 519 02b6 2D000000 		.4byte	0x2d
 520 02ba 00000000 		.4byte	.LFB432
 521 02be 04000000 		.4byte	.LFE432-.LFB432
 522 02c2 01       		.uleb128 0x1
 523 02c3 9C       		.byte	0x9c
 524 02c4 F2020000 		.4byte	0x2f2
 525 02c8 0A       		.uleb128 0xa
 526 02c9 697000   		.ascii	"ip\000"
 527 02cc 2D       		.byte	0x2d
 528 02cd 1C       		.byte	0x1c
 529 02ce C7000000 		.4byte	0xc7
 530 02d2 3E000000 		.4byte	.LLST0
 531 02d6 3A000000 		.4byte	.LVUS0
 532 02da 05       		.uleb128 0x5
 533 02db 627000   		.ascii	"bp\000"
 534 02de 2D       		.byte	0x2d
 535 02df 2F       		.byte	0x2f
 536 02e0 EE000000 		.4byte	0xee
 537 02e4 01       		.uleb128 0x1
 538 02e5 51       		.byte	0x51
 539 02e6 05       		.uleb128 0x5
 540 02e7 6E00     		.ascii	"n\000"
 541 02e9 2D       		.byte	0x2d
 542 02ea 3A       		.byte	0x3a
 543 02eb 2D000000 		.4byte	0x2d
 544 02ef 01       		.uleb128 0x1
 545 02f0 52       		.byte	0x52
 546 02f1 00       		.byte	0
 547 02f2 17       		.uleb128 0x17
 548 02f3 49020000 		.4byte	0x249
 549 02f7 00000000 		.4byte	.LFB434
 550 02fb 04000000 		.4byte	.LFE434-.LFB434
 551 02ff 01       		.uleb128 0x1
 552 0300 9C       		.byte	0x9c
 553 0301 18       		.uleb128 0x18
 554 0302 5A020000 		.4byte	0x25a
 555 0306 55000000 		.4byte	.LLST2
 556 030a 51000000 		.4byte	.LVUS2
 557 030e 19       		.uleb128 0x19
 558 030f 64020000 		.4byte	0x264
 559 0313 01       		.uleb128 0x1
 560 0314 51       		.byte	0x51
 561 0315 00       		.byte	0
 562 0316 00       		.byte	0
 563              		.section	.debug_abbrev,"",%progbits
 564              	.Ldebug_abbrev0:
 565 0000 01       		.uleb128 0x1
 566 0001 24       		.uleb128 0x24
 567 0002 00       		.byte	0
 568 0003 0B       		.uleb128 0xb
 569 0004 0B       		.uleb128 0xb
 570 0005 3E       		.uleb128 0x3e
ARM GAS  C:\Users\DEVELO~1\AppData\Local\Temp\ccEY2fKp.s 			page 11


 571 0006 0B       		.uleb128 0xb
 572 0007 03       		.uleb128 0x3
 573 0008 0E       		.uleb128 0xe
 574 0009 00       		.byte	0
 575 000a 00       		.byte	0
 576 000b 02       		.uleb128 0x2
 577 000c 05       		.uleb128 0x5
 578 000d 00       		.byte	0
 579 000e 49       		.uleb128 0x49
 580 000f 13       		.uleb128 0x13
 581 0010 00       		.byte	0
 582 0011 00       		.byte	0
 583 0012 03       		.uleb128 0x3
 584 0013 0F       		.uleb128 0xf
 585 0014 00       		.byte	0
 586 0015 0B       		.uleb128 0xb
 587 0016 21       		.uleb128 0x21
 588 0017 04       		.sleb128 4
 589 0018 49       		.uleb128 0x49
 590 0019 13       		.uleb128 0x13
 591 001a 00       		.byte	0
 592 001b 00       		.byte	0
 593 001c 04       		.uleb128 0x4
 594 001d 16       		.uleb128 0x16
 595 001e 00       		.byte	0
 596 001f 03       		.uleb128 0x3
 597 0020 0E       		.uleb128 0xe
 598 0021 3A       		.uleb128 0x3a
 599 0022 0B       		.uleb128 0xb
 600 0023 3B       		.uleb128 0x3b
 601 0024 0B       		.uleb128 0xb
 602 0025 39       		.uleb128 0x39
 603 0026 0B       		.uleb128 0xb
 604 0027 49       		.uleb128 0x49
 605 0028 13       		.uleb128 0x13
 606 0029 00       		.byte	0
 607 002a 00       		.byte	0
 608 002b 05       		.uleb128 0x5
 609 002c 05       		.uleb128 0x5
 610 002d 00       		.byte	0
 611 002e 03       		.uleb128 0x3
 612 002f 08       		.uleb128 0x8
 613 0030 3A       		.uleb128 0x3a
 614 0031 21       		.uleb128 0x21
 615 0032 01       		.sleb128 1
 616 0033 3B       		.uleb128 0x3b
 617 0034 0B       		.uleb128 0xb
 618 0035 39       		.uleb128 0x39
 619 0036 0B       		.uleb128 0xb
 620 0037 49       		.uleb128 0x49
 621 0038 13       		.uleb128 0x13
 622 0039 02       		.uleb128 0x2
 623 003a 18       		.uleb128 0x18
 624 003b 00       		.byte	0
 625 003c 00       		.byte	0
 626 003d 06       		.uleb128 0x6
 627 003e 15       		.uleb128 0x15
ARM GAS  C:\Users\DEVELO~1\AppData\Local\Temp\ccEY2fKp.s 			page 12


 628 003f 01       		.byte	0x1
 629 0040 27       		.uleb128 0x27
 630 0041 19       		.uleb128 0x19
 631 0042 49       		.uleb128 0x49
 632 0043 13       		.uleb128 0x13
 633 0044 01       		.uleb128 0x1
 634 0045 13       		.uleb128 0x13
 635 0046 00       		.byte	0
 636 0047 00       		.byte	0
 637 0048 07       		.uleb128 0x7
 638 0049 0D       		.uleb128 0xd
 639 004a 00       		.byte	0
 640 004b 03       		.uleb128 0x3
 641 004c 0E       		.uleb128 0xe
 642 004d 3A       		.uleb128 0x3a
 643 004e 21       		.uleb128 0x21
 644 004f 06       		.sleb128 6
 645 0050 3B       		.uleb128 0x3b
 646 0051 21       		.uleb128 0x21
 647 0052 36       		.sleb128 54
 648 0053 39       		.uleb128 0x39
 649 0054 21       		.uleb128 0x21
 650 0055 03       		.sleb128 3
 651 0056 49       		.uleb128 0x49
 652 0057 13       		.uleb128 0x13
 653 0058 38       		.uleb128 0x38
 654 0059 0B       		.uleb128 0xb
 655 005a 00       		.byte	0
 656 005b 00       		.byte	0
 657 005c 08       		.uleb128 0x8
 658 005d 05       		.uleb128 0x5
 659 005e 00       		.byte	0
 660 005f 03       		.uleb128 0x3
 661 0060 08       		.uleb128 0x8
 662 0061 3A       		.uleb128 0x3a
 663 0062 21       		.uleb128 0x21
 664 0063 01       		.sleb128 1
 665 0064 3B       		.uleb128 0x3b
 666 0065 0B       		.uleb128 0xb
 667 0066 39       		.uleb128 0x39
 668 0067 0B       		.uleb128 0xb
 669 0068 49       		.uleb128 0x49
 670 0069 13       		.uleb128 0x13
 671 006a 00       		.byte	0
 672 006b 00       		.byte	0
 673 006c 09       		.uleb128 0x9
 674 006d 0D       		.uleb128 0xd
 675 006e 00       		.byte	0
 676 006f 03       		.uleb128 0x3
 677 0070 08       		.uleb128 0x8
 678 0071 3A       		.uleb128 0x3a
 679 0072 21       		.uleb128 0x21
 680 0073 06       		.sleb128 6
 681 0074 3B       		.uleb128 0x3b
 682 0075 0B       		.uleb128 0xb
 683 0076 39       		.uleb128 0x39
 684 0077 0B       		.uleb128 0xb
ARM GAS  C:\Users\DEVELO~1\AppData\Local\Temp\ccEY2fKp.s 			page 13


 685 0078 49       		.uleb128 0x49
 686 0079 13       		.uleb128 0x13
 687 007a 38       		.uleb128 0x38
 688 007b 0B       		.uleb128 0xb
 689 007c 00       		.byte	0
 690 007d 00       		.byte	0
 691 007e 0A       		.uleb128 0xa
 692 007f 05       		.uleb128 0x5
 693 0080 00       		.byte	0
 694 0081 03       		.uleb128 0x3
 695 0082 08       		.uleb128 0x8
 696 0083 3A       		.uleb128 0x3a
 697 0084 21       		.uleb128 0x21
 698 0085 01       		.sleb128 1
 699 0086 3B       		.uleb128 0x3b
 700 0087 0B       		.uleb128 0xb
 701 0088 39       		.uleb128 0x39
 702 0089 0B       		.uleb128 0xb
 703 008a 49       		.uleb128 0x49
 704 008b 13       		.uleb128 0x13
 705 008c 02       		.uleb128 0x2
 706 008d 17       		.uleb128 0x17
 707 008e B742     		.uleb128 0x2137
 708 0090 17       		.uleb128 0x17
 709 0091 00       		.byte	0
 710 0092 00       		.byte	0
 711 0093 0B       		.uleb128 0xb
 712 0094 26       		.uleb128 0x26
 713 0095 00       		.byte	0
 714 0096 49       		.uleb128 0x49
 715 0097 13       		.uleb128 0x13
 716 0098 00       		.byte	0
 717 0099 00       		.byte	0
 718 009a 0C       		.uleb128 0xc
 719 009b 2E       		.uleb128 0x2e
 720 009c 01       		.byte	0x1
 721 009d 03       		.uleb128 0x3
 722 009e 0E       		.uleb128 0xe
 723 009f 3A       		.uleb128 0x3a
 724 00a0 21       		.uleb128 0x21
 725 00a1 01       		.sleb128 1
 726 00a2 3B       		.uleb128 0x3b
 727 00a3 0B       		.uleb128 0xb
 728 00a4 39       		.uleb128 0x39
 729 00a5 21       		.uleb128 0x21
 730 00a6 0F       		.sleb128 15
 731 00a7 27       		.uleb128 0x27
 732 00a8 19       		.uleb128 0x19
 733 00a9 49       		.uleb128 0x49
 734 00aa 13       		.uleb128 0x13
 735 00ab 11       		.uleb128 0x11
 736 00ac 01       		.uleb128 0x1
 737 00ad 12       		.uleb128 0x12
 738 00ae 06       		.uleb128 0x6
 739 00af 40       		.uleb128 0x40
 740 00b0 18       		.uleb128 0x18
 741 00b1 7A       		.uleb128 0x7a
ARM GAS  C:\Users\DEVELO~1\AppData\Local\Temp\ccEY2fKp.s 			page 14


 742 00b2 19       		.uleb128 0x19
 743 00b3 01       		.uleb128 0x1
 744 00b4 13       		.uleb128 0x13
 745 00b5 00       		.byte	0
 746 00b6 00       		.byte	0
 747 00b7 0D       		.uleb128 0xd
 748 00b8 11       		.uleb128 0x11
 749 00b9 01       		.byte	0x1
 750 00ba 25       		.uleb128 0x25
 751 00bb 0E       		.uleb128 0xe
 752 00bc 13       		.uleb128 0x13
 753 00bd 0B       		.uleb128 0xb
 754 00be 03       		.uleb128 0x3
 755 00bf 0E       		.uleb128 0xe
 756 00c0 1B       		.uleb128 0x1b
 757 00c1 0E       		.uleb128 0xe
 758 00c2 55       		.uleb128 0x55
 759 00c3 17       		.uleb128 0x17
 760 00c4 11       		.uleb128 0x11
 761 00c5 01       		.uleb128 0x1
 762 00c6 10       		.uleb128 0x10
 763 00c7 17       		.uleb128 0x17
 764 00c8 00       		.byte	0
 765 00c9 00       		.byte	0
 766 00ca 0E       		.uleb128 0xe
 767 00cb 24       		.uleb128 0x24
 768 00cc 00       		.byte	0
 769 00cd 0B       		.uleb128 0xb
 770 00ce 0B       		.uleb128 0xb
 771 00cf 3E       		.uleb128 0x3e
 772 00d0 0B       		.uleb128 0xb
 773 00d1 03       		.uleb128 0x3
 774 00d2 08       		.uleb128 0x8
 775 00d3 00       		.byte	0
 776 00d4 00       		.byte	0
 777 00d5 0F       		.uleb128 0xf
 778 00d6 0F       		.uleb128 0xf
 779 00d7 00       		.byte	0
 780 00d8 0B       		.uleb128 0xb
 781 00d9 0B       		.uleb128 0xb
 782 00da 00       		.byte	0
 783 00db 00       		.byte	0
 784 00dc 10       		.uleb128 0x10
 785 00dd 13       		.uleb128 0x13
 786 00de 01       		.byte	0x1
 787 00df 03       		.uleb128 0x3
 788 00e0 0E       		.uleb128 0xe
 789 00e1 0B       		.uleb128 0xb
 790 00e2 0B       		.uleb128 0xb
 791 00e3 3A       		.uleb128 0x3a
 792 00e4 0B       		.uleb128 0xb
 793 00e5 3B       		.uleb128 0x3b
 794 00e6 0B       		.uleb128 0xb
 795 00e7 39       		.uleb128 0x39
 796 00e8 0B       		.uleb128 0xb
 797 00e9 01       		.uleb128 0x1
 798 00ea 13       		.uleb128 0x13
ARM GAS  C:\Users\DEVELO~1\AppData\Local\Temp\ccEY2fKp.s 			page 15


 799 00eb 00       		.byte	0
 800 00ec 00       		.byte	0
 801 00ed 11       		.uleb128 0x11
 802 00ee 13       		.uleb128 0x13
 803 00ef 01       		.byte	0x1
 804 00f0 0B       		.uleb128 0xb
 805 00f1 0B       		.uleb128 0xb
 806 00f2 3A       		.uleb128 0x3a
 807 00f3 0B       		.uleb128 0xb
 808 00f4 3B       		.uleb128 0x3b
 809 00f5 0B       		.uleb128 0xb
 810 00f6 39       		.uleb128 0x39
 811 00f7 0B       		.uleb128 0xb
 812 00f8 01       		.uleb128 0x1
 813 00f9 13       		.uleb128 0x13
 814 00fa 00       		.byte	0
 815 00fb 00       		.byte	0
 816 00fc 12       		.uleb128 0x12
 817 00fd 34       		.uleb128 0x34
 818 00fe 00       		.byte	0
 819 00ff 03       		.uleb128 0x3
 820 0100 08       		.uleb128 0x8
 821 0101 3A       		.uleb128 0x3a
 822 0102 0B       		.uleb128 0xb
 823 0103 3B       		.uleb128 0x3b
 824 0104 0B       		.uleb128 0xb
 825 0105 39       		.uleb128 0x39
 826 0106 0B       		.uleb128 0xb
 827 0107 49       		.uleb128 0x49
 828 0108 13       		.uleb128 0x13
 829 0109 02       		.uleb128 0x2
 830 010a 18       		.uleb128 0x18
 831 010b 00       		.byte	0
 832 010c 00       		.byte	0
 833 010d 13       		.uleb128 0x13
 834 010e 2E       		.uleb128 0x2e
 835 010f 01       		.byte	0x1
 836 0110 3F       		.uleb128 0x3f
 837 0111 19       		.uleb128 0x19
 838 0112 03       		.uleb128 0x3
 839 0113 0E       		.uleb128 0xe
 840 0114 3A       		.uleb128 0x3a
 841 0115 0B       		.uleb128 0xb
 842 0116 3B       		.uleb128 0x3b
 843 0117 0B       		.uleb128 0xb
 844 0118 39       		.uleb128 0x39
 845 0119 0B       		.uleb128 0xb
 846 011a 27       		.uleb128 0x27
 847 011b 19       		.uleb128 0x19
 848 011c 11       		.uleb128 0x11
 849 011d 01       		.uleb128 0x1
 850 011e 12       		.uleb128 0x12
 851 011f 06       		.uleb128 0x6
 852 0120 40       		.uleb128 0x40
 853 0121 18       		.uleb128 0x18
 854 0122 7A       		.uleb128 0x7a
 855 0123 19       		.uleb128 0x19
ARM GAS  C:\Users\DEVELO~1\AppData\Local\Temp\ccEY2fKp.s 			page 16


 856 0124 01       		.uleb128 0x1
 857 0125 13       		.uleb128 0x13
 858 0126 00       		.byte	0
 859 0127 00       		.byte	0
 860 0128 14       		.uleb128 0x14
 861 0129 2E       		.uleb128 0x2e
 862 012a 01       		.byte	0x1
 863 012b 03       		.uleb128 0x3
 864 012c 0E       		.uleb128 0xe
 865 012d 3A       		.uleb128 0x3a
 866 012e 0B       		.uleb128 0xb
 867 012f 3B       		.uleb128 0x3b
 868 0130 0B       		.uleb128 0xb
 869 0131 39       		.uleb128 0x39
 870 0132 0B       		.uleb128 0xb
 871 0133 27       		.uleb128 0x27
 872 0134 19       		.uleb128 0x19
 873 0135 49       		.uleb128 0x49
 874 0136 13       		.uleb128 0x13
 875 0137 01       		.uleb128 0x1
 876 0138 13       		.uleb128 0x13
 877 0139 00       		.byte	0
 878 013a 00       		.byte	0
 879 013b 15       		.uleb128 0x15
 880 013c 2E       		.uleb128 0x2e
 881 013d 01       		.byte	0x1
 882 013e 03       		.uleb128 0x3
 883 013f 08       		.uleb128 0x8
 884 0140 3A       		.uleb128 0x3a
 885 0141 0B       		.uleb128 0xb
 886 0142 3B       		.uleb128 0x3b
 887 0143 0B       		.uleb128 0xb
 888 0144 39       		.uleb128 0x39
 889 0145 0B       		.uleb128 0xb
 890 0146 27       		.uleb128 0x27
 891 0147 19       		.uleb128 0x19
 892 0148 49       		.uleb128 0x49
 893 0149 13       		.uleb128 0x13
 894 014a 11       		.uleb128 0x11
 895 014b 01       		.uleb128 0x1
 896 014c 12       		.uleb128 0x12
 897 014d 06       		.uleb128 0x6
 898 014e 40       		.uleb128 0x40
 899 014f 18       		.uleb128 0x18
 900 0150 7A       		.uleb128 0x7a
 901 0151 19       		.uleb128 0x19
 902 0152 01       		.uleb128 0x1
 903 0153 13       		.uleb128 0x13
 904 0154 00       		.byte	0
 905 0155 00       		.byte	0
 906 0156 16       		.uleb128 0x16
 907 0157 2E       		.uleb128 0x2e
 908 0158 01       		.byte	0x1
 909 0159 03       		.uleb128 0x3
 910 015a 08       		.uleb128 0x8
 911 015b 3A       		.uleb128 0x3a
 912 015c 0B       		.uleb128 0xb
ARM GAS  C:\Users\DEVELO~1\AppData\Local\Temp\ccEY2fKp.s 			page 17


 913 015d 3B       		.uleb128 0x3b
 914 015e 0B       		.uleb128 0xb
 915 015f 39       		.uleb128 0x39
 916 0160 0B       		.uleb128 0xb
 917 0161 27       		.uleb128 0x27
 918 0162 19       		.uleb128 0x19
 919 0163 49       		.uleb128 0x49
 920 0164 13       		.uleb128 0x13
 921 0165 20       		.uleb128 0x20
 922 0166 0B       		.uleb128 0xb
 923 0167 01       		.uleb128 0x1
 924 0168 13       		.uleb128 0x13
 925 0169 00       		.byte	0
 926 016a 00       		.byte	0
 927 016b 17       		.uleb128 0x17
 928 016c 2E       		.uleb128 0x2e
 929 016d 01       		.byte	0x1
 930 016e 31       		.uleb128 0x31
 931 016f 13       		.uleb128 0x13
 932 0170 11       		.uleb128 0x11
 933 0171 01       		.uleb128 0x1
 934 0172 12       		.uleb128 0x12
 935 0173 06       		.uleb128 0x6
 936 0174 40       		.uleb128 0x40
 937 0175 18       		.uleb128 0x18
 938 0176 7A       		.uleb128 0x7a
 939 0177 19       		.uleb128 0x19
 940 0178 00       		.byte	0
 941 0179 00       		.byte	0
 942 017a 18       		.uleb128 0x18
 943 017b 05       		.uleb128 0x5
 944 017c 00       		.byte	0
 945 017d 31       		.uleb128 0x31
 946 017e 13       		.uleb128 0x13
 947 017f 02       		.uleb128 0x2
 948 0180 17       		.uleb128 0x17
 949 0181 B742     		.uleb128 0x2137
 950 0183 17       		.uleb128 0x17
 951 0184 00       		.byte	0
 952 0185 00       		.byte	0
 953 0186 19       		.uleb128 0x19
 954 0187 05       		.uleb128 0x5
 955 0188 00       		.byte	0
 956 0189 31       		.uleb128 0x31
 957 018a 13       		.uleb128 0x13
 958 018b 02       		.uleb128 0x2
 959 018c 18       		.uleb128 0x18
 960 018d 00       		.byte	0
 961 018e 00       		.byte	0
 962 018f 00       		.byte	0
 963              		.section	.debug_loclists,"",%progbits
 964 0000 64000000 		.4byte	.Ldebug_loc3-.Ldebug_loc2
 965              	.Ldebug_loc2:
 966 0004 0500     		.2byte	0x5
 967 0006 04       		.byte	0x4
 968 0007 00       		.byte	0
 969 0008 00000000 		.4byte	0
ARM GAS  C:\Users\DEVELO~1\AppData\Local\Temp\ccEY2fKp.s 			page 18


 970              	.Ldebug_loc0:
 971              	.LVUS3:
 972 000c 00       		.uleb128 0
 973 000d 00       		.uleb128 .LVU23
 974 000e 00       		.uleb128 .LVU23
 975 000f 00       		.uleb128 0
 976              	.LLST3:
 977 0010 06       		.byte	0x6
 978 0011 00000000 		.4byte	.LVL6
 979 0015 04       		.byte	0x4
 980 0016 00       		.uleb128 .LVL6-.LVL6
 981 0017 02       		.uleb128 .LVL7-.LVL6
 982 0018 01       		.uleb128 0x1
 983 0019 50       		.byte	0x50
 984 001a 04       		.byte	0x4
 985 001b 02       		.uleb128 .LVL7-.LVL6
 986 001c 04       		.uleb128 .LFE435-.LVL6
 987 001d 04       		.uleb128 0x4
 988 001e A3       		.byte	0xa3
 989 001f 01       		.uleb128 0x1
 990 0020 50       		.byte	0x50
 991 0021 9F       		.byte	0x9f
 992 0022 00       		.byte	0
 993              	.LVUS1:
 994 0023 00       		.uleb128 0
 995 0024 00       		.uleb128 .LVU12
 996 0025 00       		.uleb128 .LVU12
 997 0026 00       		.uleb128 0
 998              	.LLST1:
 999 0027 06       		.byte	0x6
 1000 0028 00000000 		.4byte	.LVL2
 1001 002c 04       		.byte	0x4
 1002 002d 00       		.uleb128 .LVL2-.LVL2
 1003 002e 02       		.uleb128 .LVL3-.LVL2
 1004 002f 01       		.uleb128 0x1
 1005 0030 50       		.byte	0x50
 1006 0031 04       		.byte	0x4
 1007 0032 02       		.uleb128 .LVL3-.LVL2
 1008 0033 04       		.uleb128 .LFE433-.LVL2
 1009 0034 04       		.uleb128 0x4
 1010 0035 A3       		.byte	0xa3
 1011 0036 01       		.uleb128 0x1
 1012 0037 50       		.byte	0x50
 1013 0038 9F       		.byte	0x9f
 1014 0039 00       		.byte	0
 1015              	.LVUS0:
 1016 003a 00       		.uleb128 0
 1017 003b 00       		.uleb128 .LVU5
 1018 003c 00       		.uleb128 .LVU5
 1019 003d 00       		.uleb128 0
 1020              	.LLST0:
 1021 003e 06       		.byte	0x6
 1022 003f 00000000 		.4byte	.LVL0
 1023 0043 04       		.byte	0x4
 1024 0044 00       		.uleb128 .LVL0-.LVL0
 1025 0045 02       		.uleb128 .LVL1-.LVL0
 1026 0046 01       		.uleb128 0x1
ARM GAS  C:\Users\DEVELO~1\AppData\Local\Temp\ccEY2fKp.s 			page 19


 1027 0047 50       		.byte	0x50
 1028 0048 04       		.byte	0x4
 1029 0049 02       		.uleb128 .LVL1-.LVL0
 1030 004a 04       		.uleb128 .LFE432-.LVL0
 1031 004b 04       		.uleb128 0x4
 1032 004c A3       		.byte	0xa3
 1033 004d 01       		.uleb128 0x1
 1034 004e 50       		.byte	0x50
 1035 004f 9F       		.byte	0x9f
 1036 0050 00       		.byte	0
 1037              	.LVUS2:
 1038 0051 00       		.uleb128 0
 1039 0052 00       		.uleb128 .LVU18
 1040 0053 00       		.uleb128 .LVU18
 1041 0054 00       		.uleb128 0
 1042              	.LLST2:
 1043 0055 06       		.byte	0x6
 1044 0056 00000000 		.4byte	.LVL4
 1045 005a 04       		.byte	0x4
 1046 005b 00       		.uleb128 .LVL4-.LVL4
 1047 005c 02       		.uleb128 .LVL5-.LVL4
 1048 005d 01       		.uleb128 0x1
 1049 005e 50       		.byte	0x50
 1050 005f 04       		.byte	0x4
 1051 0060 02       		.uleb128 .LVL5-.LVL4
 1052 0061 04       		.uleb128 .LFE434-.LVL4
 1053 0062 04       		.uleb128 0x4
 1054 0063 A3       		.byte	0xa3
 1055 0064 01       		.uleb128 0x1
 1056 0065 50       		.byte	0x50
 1057 0066 9F       		.byte	0x9f
 1058 0067 00       		.byte	0
 1059              	.Ldebug_loc3:
 1060              		.section	.debug_aranges,"",%progbits
 1061 0000 3C000000 		.4byte	0x3c
 1062 0004 0200     		.2byte	0x2
 1063 0006 00000000 		.4byte	.Ldebug_info0
 1064 000a 04       		.byte	0x4
 1065 000b 00       		.byte	0
 1066 000c 0000     		.2byte	0
 1067 000e 0000     		.2byte	0
 1068 0010 00000000 		.4byte	.LFB432
 1069 0014 04000000 		.4byte	.LFE432-.LFB432
 1070 0018 00000000 		.4byte	.LFB433
 1071 001c 04000000 		.4byte	.LFE433-.LFB433
 1072 0020 00000000 		.4byte	.LFB434
 1073 0024 04000000 		.4byte	.LFE434-.LFB434
 1074 0028 00000000 		.4byte	.LFB435
 1075 002c 04000000 		.4byte	.LFE435-.LFB435
 1076 0030 00000000 		.4byte	.LFB437
 1077 0034 0C000000 		.4byte	.LFE437-.LFB437
 1078 0038 00000000 		.4byte	0
 1079 003c 00000000 		.4byte	0
 1080              		.section	.debug_rnglists,"",%progbits
 1081              	.Ldebug_ranges0:
 1082 0000 27000000 		.4byte	.Ldebug_ranges3-.Ldebug_ranges2
 1083              	.Ldebug_ranges2:
ARM GAS  C:\Users\DEVELO~1\AppData\Local\Temp\ccEY2fKp.s 			page 20


 1084 0004 0500     		.2byte	0x5
 1085 0006 04       		.byte	0x4
 1086 0007 00       		.byte	0
 1087 0008 00000000 		.4byte	0
 1088              	.LLRL4:
 1089 000c 07       		.byte	0x7
 1090 000d 00000000 		.4byte	.LFB432
 1091 0011 04       		.uleb128 .LFE432-.LFB432
 1092 0012 07       		.byte	0x7
 1093 0013 00000000 		.4byte	.LFB433
 1094 0017 04       		.uleb128 .LFE433-.LFB433
 1095 0018 07       		.byte	0x7
 1096 0019 00000000 		.4byte	.LFB434
 1097 001d 04       		.uleb128 .LFE434-.LFB434
 1098 001e 07       		.byte	0x7
 1099 001f 00000000 		.4byte	.LFB435
 1100 0023 04       		.uleb128 .LFE435-.LFB435
 1101 0024 07       		.byte	0x7
 1102 0025 00000000 		.4byte	.LFB437
 1103 0029 0C       		.uleb128 .LFE437-.LFB437
 1104 002a 00       		.byte	0
 1105              	.Ldebug_ranges3:
 1106              		.section	.debug_line,"",%progbits
 1107              	.Ldebug_line0:
 1108 0000 39020000 		.section	.debug_str,"MS",%progbits,1
 1108      0300AA01 
 1108      00000201 
 1108      FB0E0D00 
 1108      01010101 
 1109              	.LASF5:
 1110 0000 5F5F7569 		.ascii	"__uint8_t\000"
 1110      6E74385F 
 1110      7400
 1111              	.LASF4:
 1112 000a 73697A65 		.ascii	"size_t\000"
 1112      5F7400
 1113              	.LASF28:
 1114 0011 4E756C6C 		.ascii	"NullStreamVMT\000"
 1114      53747265 
 1114      616D564D 
 1114      5400
 1115              	.LASF9:
 1116 001f 5F5F696E 		.ascii	"__int32_t\000"
 1116      7433325F 
 1116      7400
 1117              	.LASF0:
 1118 0029 756E7369 		.ascii	"unsigned int\000"
 1118      676E6564 
 1118      20696E74 
 1118      00
 1119              	.LASF25:
 1120 0036 474E5520 		.ascii	"GNU C17 11.3.1 20220712 -mcpu=cortex-m7 -mthumb -mf"
 1120      43313720 
 1120      31312E33 
 1120      2E312032 
 1120      30323230 
 1121 0069 6C6F6174 		.ascii	"loat-abi=soft -march=armv7e-m -ggdb -O2 -fomit-fram"
ARM GAS  C:\Users\DEVELO~1\AppData\Local\Temp\ccEY2fKp.s 			page 21


 1121      2D616269 
 1121      3D736F66 
 1121      74202D6D 
 1121      61726368 
 1122 009c 652D706F 		.ascii	"e-pointer -falign-functions=16 -ffunction-sections "
 1122      696E7465 
 1122      72202D66 
 1122      616C6967 
 1122      6E2D6675 
 1123 00cf 2D666461 		.ascii	"-fdata-sections -fno-common\000"
 1123      74612D73 
 1123      65637469 
 1123      6F6E7320 
 1123      2D666E6F 
 1124              	.LASF2:
 1125 00eb 6C6F6E67 		.ascii	"long double\000"
 1125      20646F75 
 1125      626C6500 
 1126              	.LASF24:
 1127 00f7 77726974 		.ascii	"writes\000"
 1127      657300
 1128              	.LASF29:
 1129 00fe 6E756C6C 		.ascii	"nullObjectInit\000"
 1129      4F626A65 
 1129      6374496E 
 1129      697400
 1130              	.LASF3:
 1131 010d 7369676E 		.ascii	"signed char\000"
 1131      65642063 
 1131      68617200 
 1132              	.LASF6:
 1133 0119 756E7369 		.ascii	"unsigned char\000"
 1133      676E6564 
 1133      20636861 
 1133      7200
 1134              	.LASF8:
 1135 0127 73686F72 		.ascii	"short unsigned int\000"
 1135      7420756E 
 1135      7369676E 
 1135      65642069 
 1135      6E7400
 1136              	.LASF19:
 1137 013a 77726974 		.ascii	"write\000"
 1137      6500
 1138              	.LASF27:
 1139 0140 433A5C50 		.ascii	"C:\\PROJET\\ChibiOS project\\ChibiOS_21.11.4\\demos"
 1139      524F4A45 
 1139      545C4368 
 1139      6962694F 
 1139      53207072 
 1140 016f 5C53544D 		.ascii	"\\STM32\\RT-STM32H743ZI_REV_XY-NUCLEO144\000"
 1140      33325C52 
 1140      542D5354 
 1140      4D333248 
 1140      3734335A 
 1141              	.LASF11:
 1142 0196 6C6F6E67 		.ascii	"long unsigned int\000"
ARM GAS  C:\Users\DEVELO~1\AppData\Local\Temp\ccEY2fKp.s 			page 22


 1142      20756E73 
 1142      69676E65 
 1142      6420696E 
 1142      7400
 1143              	.LASF18:
 1144 01a8 696E7374 		.ascii	"instance_offset\000"
 1144      616E6365 
 1144      5F6F6666 
 1144      73657400 
 1145              	.LASF23:
 1146 01b8 72656164 		.ascii	"reads\000"
 1146      7300
 1147              	.LASF20:
 1148 01be 72656164 		.ascii	"read\000"
 1148      00
 1149              	.LASF26:
 1150 01c3 2E2E2F2E 		.ascii	"../../../os/hal/lib/streams/nullstreams.c\000"
 1150      2E2F2E2E 
 1150      2F6F732F 
 1150      68616C2F 
 1150      6C69622F 
 1151              	.LASF21:
 1152 01ed 756E6765 		.ascii	"unget\000"
 1152      7400
 1153              	.LASF16:
 1154 01f3 63686172 		.ascii	"char\000"
 1154      00
 1155              	.LASF13:
 1156 01f8 75696E74 		.ascii	"uint8_t\000"
 1156      385F7400 
 1157              	.LASF15:
 1158 0200 6D73675F 		.ascii	"msg_t\000"
 1158      7400
 1159              	.LASF14:
 1160 0206 696E7433 		.ascii	"int32_t\000"
 1160      325F7400 
 1161              	.LASF1:
 1162 020e 6C6F6E67 		.ascii	"long long int\000"
 1162      206C6F6E 
 1162      6720696E 
 1162      7400
 1163              	.LASF7:
 1164 021c 73686F72 		.ascii	"short int\000"
 1164      7420696E 
 1164      7400
 1165              	.LASF22:
 1166 0226 4E756C6C 		.ascii	"NullStream\000"
 1166      53747265 
 1166      616D00
 1167              	.LASF10:
 1168 0231 6C6F6E67 		.ascii	"long int\000"
 1168      20696E74 
 1168      00
 1169              	.LASF17:
 1170 023a 5F426F6F 		.ascii	"_Bool\000"
 1170      6C00
 1171              	.LASF12:
ARM GAS  C:\Users\DEVELO~1\AppData\Local\Temp\ccEY2fKp.s 			page 23


 1172 0240 6C6F6E67 		.ascii	"long long unsigned int\000"
 1172      206C6F6E 
 1172      6720756E 
 1172      7369676E 
 1172      65642069 
 1173              		.ident	"GCC: (Arm GNU Toolchain 11.3.Rel1) 11.3.1 20220712"
ARM GAS  C:\Users\DEVELO~1\AppData\Local\Temp\ccEY2fKp.s 			page 24


DEFINED SYMBOLS
                            *ABS*:00000000 nullstreams.c
C:\Users\DEVELO~1\AppData\Local\Temp\ccEY2fKp.s:18     .text.writes:00000000 $t
C:\Users\DEVELO~1\AppData\Local\Temp\ccEY2fKp.s:24     .text.writes:00000000 writes
C:\Users\DEVELO~1\AppData\Local\Temp\ccEY2fKp.s:45     .text.reads:00000000 $t
C:\Users\DEVELO~1\AppData\Local\Temp\ccEY2fKp.s:51     .text.reads:00000000 reads
C:\Users\DEVELO~1\AppData\Local\Temp\ccEY2fKp.s:72     .text.put:00000000 $t
C:\Users\DEVELO~1\AppData\Local\Temp\ccEY2fKp.s:78     .text.put:00000000 put
C:\Users\DEVELO~1\AppData\Local\Temp\ccEY2fKp.s:98     .text.get:00000000 $t
C:\Users\DEVELO~1\AppData\Local\Temp\ccEY2fKp.s:104    .text.get:00000000 get
C:\Users\DEVELO~1\AppData\Local\Temp\ccEY2fKp.s:123    .text.unget:00000000 $t
C:\Users\DEVELO~1\AppData\Local\Temp\ccEY2fKp.s:129    .text.unget:00000000 unget
C:\Users\DEVELO~1\AppData\Local\Temp\ccEY2fKp.s:141    .text.nullObjectInit:00000000 $t
C:\Users\DEVELO~1\AppData\Local\Temp\ccEY2fKp.s:148    .text.nullObjectInit:00000000 nullObjectInit
C:\Users\DEVELO~1\AppData\Local\Temp\ccEY2fKp.s:165    .text.nullObjectInit:00000008 $d
C:\Users\DEVELO~1\AppData\Local\Temp\ccEY2fKp.s:170    .rodata.vmt:00000000 $d
C:\Users\DEVELO~1\AppData\Local\Temp\ccEY2fKp.s:174    .rodata.vmt:00000000 vmt

NO UNDEFINED SYMBOLS
