ARM GAS  C:\Users\DEVELO~1\AppData\Local\Temp\ccEY2fKp.s 			page 1


   1              		.cpu cortex-m7
   2              		.arch armv7e-m
   3              		.fpu softvfp
   4              		.eabi_attribute 20, 1
   5              		.eabi_attribute 21, 1
   6              		.eabi_attribute 23, 3
   7              		.eabi_attribute 24, 1
   8              		.eabi_attribute 25, 1
   9              		.eabi_attribute 26, 1
  10              		.eabi_attribute 30, 2
  11              		.eabi_attribute 34, 1
  12              		.eabi_attribute 18, 4
  13              		.file	"nullstreams.c"
  14              		.text
  15              	.Ltext0:
  16              		.cfi_sections	.debug_frame
  17              		.section	.text.writes,"ax",%progbits
  18              		.align	1
  19              		.p2align 4,,15
  20              		.syntax unified
  21              		.thumb
  22              		.thumb_func
  23              		.type	writes, %function
  24              	writes:
  25              	.LVL0:
  26              	.LFB432:
  27              		.file 1 "../../../os/hal/lib/streams/nullstreams.c"
  28              		.loc 1 45 61 view -0
  29              		.cfi_startproc
  30              		@ args = 0, pretend = 0, frame = 0
  31              		@ frame_needed = 0, uses_anonymous_args = 0
  32              		@ link register save eliminated.
  33              		.loc 1 47 3 view .LVU1
  34              		.loc 1 48 3 view .LVU2
  35              		.loc 1 50 3 view .LVU3
  36              		.loc 1 51 1 is_stmt 0 view .LVU4
  37 0000 1046     		mov	r0, r2
  38              	.LVL1:
  39              		.loc 1 51 1 view .LVU5
  40 0002 7047     		bx	lr
  41              		.cfi_endproc
  42              	.LFE432:
  43              		.size	writes, .-writes
  44              		.section	.text.reads,"ax",%progbits
  45              		.align	1
  46              		.p2align 4,,15
  47              		.syntax unified
  48              		.thumb
  49              		.thumb_func
  50              		.type	reads, %function
  51              	reads:
  52              	.LVL2:
  53              	.LFB433:
  54              		.loc 1 53 54 is_stmt 1 view -0
  55              		.cfi_startproc
  56              		@ args = 0, pretend = 0, frame = 0
  57              		@ frame_needed = 0, uses_anonymous_args = 0
ARM GAS  C:\Users\DEVELO~1\AppData\Local\Temp\ccEY2fKp.s 			page 2


  58              		@ link register save eliminated.
  59              		.loc 1 55 3 view .LVU7
  60              		.loc 1 56 3 view .LVU8
  61              		.loc 1 57 3 view .LVU9
  62              		.loc 1 59 3 view .LVU10
  63              		.loc 1 60 1 is_stmt 0 view .LVU11
  64 0000 0020     		movs	r0, #0
  65              	.LVL3:
  66              		.loc 1 60 1 view .LVU12
  67 0002 7047     		bx	lr
  68              		.cfi_endproc
  69              	.LFE433:
  70              		.size	reads, .-reads
  71              		.section	.text.put,"ax",%progbits
  72              		.align	1
  73              		.p2align 4,,15
  74              		.syntax unified
  75              		.thumb
  76              		.thumb_func
  77              		.type	put, %function
  78              	put:
  79              	.LVL4:
  80              	.LFB434:
  81              		.loc 1 62 39 is_stmt 1 view -0
  82              		.cfi_startproc
  83              		@ args = 0, pretend = 0, frame = 0
  84              		@ frame_needed = 0, uses_anonymous_args = 0
  85              		@ link register save eliminated.
  86              		.loc 1 64 3 view .LVU14
  87              		.loc 1 65 3 view .LVU15
  88              		.loc 1 67 3 view .LVU16
  89              		.loc 1 68 1 is_stmt 0 view .LVU17
  90 0000 0020     		movs	r0, #0
  91              	.LVL5:
  92              		.loc 1 68 1 view .LVU18
  93 0002 7047     		bx	lr
  94              		.cfi_endproc
  95              	.LFE434:
  96              		.size	put, .-put
  97              		.section	.text.get,"ax",%progbits
  98              		.align	1
  99              		.p2align 4,,15
 100              		.syntax unified
 101              		.thumb
 102              		.thumb_func
 103              		.type	get, %function
 104              	get:
 105              	.LVL6:
 106              	.LFB435:
 107              		.loc 1 70 28 is_stmt 1 view -0
 108              		.cfi_startproc
 109              		@ args = 0, pretend = 0, frame = 0
 110              		@ frame_needed = 0, uses_anonymous_args = 0
 111              		@ link register save eliminated.
 112              		.loc 1 72 3 view .LVU20
 113              		.loc 1 74 3 view .LVU21
 114              		.loc 1 75 1 is_stmt 0 view .LVU22
ARM GAS  C:\Users\DEVELO~1\AppData\Local\Temp\ccEY2fKp.s 			page 3


 115 0000 0420     		movs	r0, #4
 116              	.LVL7:
 117              		.loc 1 75 1 view .LVU23
 118 0002 7047     		bx	lr
 119              		.cfi_endproc
 120              	.LFE435:
 121              		.size	get, .-get
 122              		.section	.text.unget,"ax",%progbits
 123              		.align	1
 124              		.p2align 4,,15
 125              		.syntax unified
 126              		.thumb
 127              		.thumb_func
 128              		.type	unget, %function
 129              	unget:
 130              	.LFB439:
 131              		.cfi_startproc
 132              		@ args = 0, pretend = 0, frame = 0
 133              		@ frame_needed = 0, uses_anonymous_args = 0
 134              		@ link register save eliminated.
 135 0000 0020     		movs	r0, #0
 136 0002 7047     		bx	lr
 137              		.cfi_endproc
 138              	.LFE439:
 139              		.size	unget, .-unget
 140              		.section	.text.nullObjectInit,"ax",%progbits
 141              		.align	1
 142              		.p2align 4,,15
 143              		.global	nullObjectInit
 144              		.syntax unified
 145              		.thumb
 146              		.thumb_func
 147              		.type	nullObjectInit, %function
 148              	nullObjectInit:
 149              	.LVL8:
 150              	.LFB437:
 151              		.loc 1 97 38 is_stmt 1 view -0
 152              		.cfi_startproc
 153              		@ args = 0, pretend = 0, frame = 0
 154              		@ frame_needed = 0, uses_anonymous_args = 0
 155              		@ link register save eliminated.
 156              		.loc 1 99 3 view .LVU25
 157              		.loc 1 99 12 is_stmt 0 view .LVU26
 158 0000 014B     		ldr	r3, .L8
 159 0002 0360     		str	r3, [r0]
 160              		.loc 1 100 1 view .LVU27
 161 0004 7047     		bx	lr
 162              	.L9:
 163 0006 00BF     		.align	2
 164              	.L8:
 165 0008 00000000 		.word	.LANCHOR0
 166              		.cfi_endproc
 167              	.LFE437:
 168              		.size	nullObjectInit, .-nullObjectInit
 169              		.section	.rodata.vmt,"a"
 170              		.align	2
 171              		.set	.LANCHOR0,. + 0
ARM GAS  C:\Users\DEVELO~1\AppData\Local\Temp\ccEY2fKp.s 			page 4


 172              		.type	vmt, %object
 173              		.size	vmt, 24
 174              	vmt:
 175 0000 00000000 		.word	0
 176 0004 00000000 		.word	writes
 177 0008 00000000 		.word	reads
 178 000c 00000000 		.word	put
 179 0010 00000000 		.word	get
 180 0014 00000000 		.word	unget
 181              		.text
 182              	.Letext0:
 183              		.file 2 "c:\\chibistudio\\tools\\gnu tools arm embedded\\11.3 2022.08\\lib\\gcc\\arm-none-eabi\\11
 184              		.file 3 "c:\\chibistudio\\tools\\gnu tools arm embedded\\11.3 2022.08\\arm-none-eabi\\include\\mac
 185              		.file 4 "c:\\chibistudio\\tools\\gnu tools arm embedded\\11.3 2022.08\\arm-none-eabi\\include\\sys
 186              		.file 5 "../../../os/rt/include/chearly.h"
 187              		.file 6 "../../../os/hal/lib/streams/nullstreams.h"