ARM GAS  C:\Users\DEVELO~1\AppData\Local\Temp\ccoAoKKe.s 			page 1


   1              		.cpu cortex-m7
   2              		.arch armv7e-m
   3              		.fpu softvfp
   4              		.eabi_attribute 20, 1
   5              		.eabi_attribute 21, 1
   6              		.eabi_attribute 23, 3
   7              		.eabi_attribute 24, 1
   8              		.eabi_attribute 25, 1
   9              		.eabi_attribute 26, 1
  10              		.eabi_attribute 30, 2
  11              		.eabi_attribute 34, 1
  12              		.eabi_attribute 18, 4
  13              		.file	"oslib_test_sequence_005.c"
  14              		.text
  15              	.Ltext0:
  16              		.cfi_sections	.debug_frame
  17              		.section	.text.dis_func_end,"ax",%progbits
  18              		.align	1
  19              		.p2align 4,,15
  20              		.syntax unified
  21              		.thumb
  22              		.thumb_func
  23              		.type	dis_func_end, %function
  24              	dis_func_end:
  25              	.LFB441:
  26              		.file 1 "../../../test/oslib/source/test/oslib_test_sequence_005.c"
  27              		.loc 1 92 31 view -0
  28              		.cfi_startproc
  29              		@ args = 0, pretend = 0, frame = 0
  30              		@ frame_needed = 0, uses_anonymous_args = 0
  31              		.loc 1 94 3 view .LVU1
  32              		.loc 1 92 31 is_stmt 0 view .LVU2
  33 0000 08B5     		push	{r3, lr}
  34              		.cfi_def_cfa_offset 8
  35              		.cfi_offset 3, -8
  36              		.cfi_offset 14, -4
  37              		.loc 1 94 3 view .LVU3
  38 0002 5A20     		movs	r0, #90
  39 0004 FFF7FEFF 		bl	test_emit_token
  40              	.LVL0:
  41              		.loc 1 95 3 is_stmt 1 view .LVU4
  42              		.loc 1 95 13 is_stmt 0 view .LVU5
  43 0008 024B     		ldr	r3, .L4
  44 000a 0122     		movs	r2, #1
  45              		.loc 1 98 1 view .LVU6
  46 000c 4AF65520 		movw	r0, #43605
  47              		.loc 1 95 13 view .LVU7
  48 0010 1A70     		strb	r2, [r3]
  49              		.loc 1 97 3 is_stmt 1 view .LVU8
  50              		.loc 1 98 1 is_stmt 0 view .LVU9
  51 0012 08BD     		pop	{r3, pc}
  52              	.L5:
  53              		.align	2
  54              	.L4:
  55 0014 00000000 		.word	.LANCHOR0
  56              		.cfi_endproc
  57              	.LFE441:
ARM GAS  C:\Users\DEVELO~1\AppData\Local\Temp\ccoAoKKe.s 			page 2


  58              		.size	dis_func_end, .-dis_func_end
  59              		.section	.text.dis_func4,"ax",%progbits
  60              		.align	1
  61              		.p2align 4,,15
  62              		.syntax unified
  63              		.thumb
  64              		.thumb_func
  65              		.type	dis_func4, %function
  66              	dis_func4:
  67              	.LVL1:
  68              	.LFB440:
  69              		.loc 1 82 60 is_stmt 1 view -0
  70              		.cfi_startproc
  71              		@ args = 0, pretend = 0, frame = 0
  72              		@ frame_needed = 0, uses_anonymous_args = 0
  73              		.loc 1 84 3 view .LVU11
  74              		.loc 1 82 60 is_stmt 0 view .LVU12
  75 0000 F8B5     		push	{r3, r4, r5, r6, r7, lr}
  76              		.cfi_def_cfa_offset 24
  77              		.cfi_offset 3, -24
  78              		.cfi_offset 4, -20
  79              		.cfi_offset 5, -16
  80              		.cfi_offset 6, -12
  81              		.cfi_offset 7, -8
  82              		.cfi_offset 14, -4
  83              		.loc 1 82 60 view .LVU13
  84 0002 0F46     		mov	r7, r1
  85 0004 1646     		mov	r6, r2
  86 0006 0446     		mov	r4, r0
  87              		.loc 1 84 3 view .LVU14
  88 0008 C0B2     		uxtb	r0, r0
  89              	.LVL2:
  90              		.loc 1 82 60 view .LVU15
  91 000a 1D46     		mov	r5, r3
  92              		.loc 1 84 3 view .LVU16
  93 000c FFF7FEFF 		bl	test_emit_token
  94              	.LVL3:
  95              		.loc 1 85 3 is_stmt 1 view .LVU17
  96 0010 F8B2     		uxtb	r0, r7
  97 0012 FFF7FEFF 		bl	test_emit_token
  98              	.LVL4:
  99              		.loc 1 86 3 view .LVU18
 100 0016 F0B2     		uxtb	r0, r6
 101 0018 FFF7FEFF 		bl	test_emit_token
 102              	.LVL5:
 103              		.loc 1 87 3 view .LVU19
 104 001c E8B2     		uxtb	r0, r5
 105 001e FFF7FEFF 		bl	test_emit_token
 106              	.LVL6:
 107              		.loc 1 89 3 view .LVU20
 108              		.loc 1 90 1 is_stmt 0 view .LVU21
 109 0022 2046     		mov	r0, r4
 110 0024 F8BD     		pop	{r3, r4, r5, r6, r7, pc}
 111              		.loc 1 90 1 view .LVU22
 112              		.cfi_endproc
 113              	.LFE440:
 114              		.size	dis_func4, .-dis_func4
ARM GAS  C:\Users\DEVELO~1\AppData\Local\Temp\ccoAoKKe.s 			page 3


 115 0026 00BF     		.section	.text.dis_func3,"ax",%progbits
 116              		.align	1
 117              		.p2align 4,,15
 118              		.syntax unified
 119              		.thumb
 120              		.thumb_func
 121              		.type	dis_func3, %function
 122              	dis_func3:
 123              	.LVL7:
 124              	.LFB439:
 125              		.loc 1 73 51 is_stmt 1 view -0
 126              		.cfi_startproc
 127              		@ args = 0, pretend = 0, frame = 0
 128              		@ frame_needed = 0, uses_anonymous_args = 0
 129              		.loc 1 75 3 view .LVU24
 130              		.loc 1 73 51 is_stmt 0 view .LVU25
 131 0000 70B5     		push	{r4, r5, r6, lr}
 132              		.cfi_def_cfa_offset 16
 133              		.cfi_offset 4, -16
 134              		.cfi_offset 5, -12
 135              		.cfi_offset 6, -8
 136              		.cfi_offset 14, -4
 137              		.loc 1 73 51 view .LVU26
 138 0002 0E46     		mov	r6, r1
 139 0004 1546     		mov	r5, r2
 140 0006 0446     		mov	r4, r0
 141              		.loc 1 75 3 view .LVU27
 142 0008 C0B2     		uxtb	r0, r0
 143              	.LVL8:
 144              		.loc 1 75 3 view .LVU28
 145 000a FFF7FEFF 		bl	test_emit_token
 146              	.LVL9:
 147              		.loc 1 76 3 is_stmt 1 view .LVU29
 148 000e F0B2     		uxtb	r0, r6
 149 0010 FFF7FEFF 		bl	test_emit_token
 150              	.LVL10:
 151              		.loc 1 77 3 view .LVU30
 152 0014 E8B2     		uxtb	r0, r5
 153 0016 FFF7FEFF 		bl	test_emit_token
 154              	.LVL11:
 155              		.loc 1 79 3 view .LVU31
 156              		.loc 1 80 1 is_stmt 0 view .LVU32
 157 001a 2046     		mov	r0, r4
 158 001c 70BD     		pop	{r4, r5, r6, pc}
 159              		.loc 1 80 1 view .LVU33
 160              		.cfi_endproc
 161              	.LFE439:
 162              		.size	dis_func3, .-dis_func3
 163 001e 00BF     		.section	.text.dis_func2,"ax",%progbits
 164              		.align	1
 165              		.p2align 4,,15
 166              		.syntax unified
 167              		.thumb
 168              		.thumb_func
 169              		.type	dis_func2, %function
 170              	dis_func2:
 171              	.LVL12:
ARM GAS  C:\Users\DEVELO~1\AppData\Local\Temp\ccoAoKKe.s 			page 4


 172              	.LFB438:
 173              		.loc 1 65 42 is_stmt 1 view -0
 174              		.cfi_startproc
 175              		@ args = 0, pretend = 0, frame = 0
 176              		@ frame_needed = 0, uses_anonymous_args = 0
 177              		.loc 1 67 3 view .LVU35
 178              		.loc 1 65 42 is_stmt 0 view .LVU36
 179 0000 38B5     		push	{r3, r4, r5, lr}
 180              		.cfi_def_cfa_offset 16
 181              		.cfi_offset 3, -16
 182              		.cfi_offset 4, -12
 183              		.cfi_offset 5, -8
 184              		.cfi_offset 14, -4
 185              		.loc 1 65 42 view .LVU37
 186 0002 0D46     		mov	r5, r1
 187 0004 0446     		mov	r4, r0
 188              		.loc 1 67 3 view .LVU38
 189 0006 C0B2     		uxtb	r0, r0
 190              	.LVL13:
 191              		.loc 1 67 3 view .LVU39
 192 0008 FFF7FEFF 		bl	test_emit_token
 193              	.LVL14:
 194              		.loc 1 68 3 is_stmt 1 view .LVU40
 195 000c E8B2     		uxtb	r0, r5
 196 000e FFF7FEFF 		bl	test_emit_token
 197              	.LVL15:
 198              		.loc 1 70 3 view .LVU41
 199              		.loc 1 71 1 is_stmt 0 view .LVU42
 200 0012 2046     		mov	r0, r4
 201 0014 38BD     		pop	{r3, r4, r5, pc}
 202              		.loc 1 71 1 view .LVU43
 203              		.cfi_endproc
 204              	.LFE438:
 205              		.size	dis_func2, .-dis_func2
 206 0016 00BF     		.section	.text.dis_func1,"ax",%progbits
 207              		.align	1
 208              		.p2align 4,,15
 209              		.syntax unified
 210              		.thumb
 211              		.thumb_func
 212              		.type	dis_func1, %function
 213              	dis_func1:
 214              	.LVL16:
 215              	.LFB437:
 216              		.loc 1 58 33 is_stmt 1 view -0
 217              		.cfi_startproc
 218              		@ args = 0, pretend = 0, frame = 0
 219              		@ frame_needed = 0, uses_anonymous_args = 0
 220              		.loc 1 60 3 view .LVU45
 221              		.loc 1 58 33 is_stmt 0 view .LVU46
 222 0000 10B5     		push	{r4, lr}
 223              		.cfi_def_cfa_offset 8
 224              		.cfi_offset 4, -8
 225              		.cfi_offset 14, -4
 226              		.loc 1 58 33 view .LVU47
 227 0002 0446     		mov	r4, r0
 228              		.loc 1 60 3 view .LVU48
ARM GAS  C:\Users\DEVELO~1\AppData\Local\Temp\ccoAoKKe.s 			page 5


 229 0004 C0B2     		uxtb	r0, r0
 230              	.LVL17:
 231              		.loc 1 60 3 view .LVU49
 232 0006 FFF7FEFF 		bl	test_emit_token
 233              	.LVL18:
 234              		.loc 1 62 3 is_stmt 1 view .LVU50
 235              		.loc 1 63 1 is_stmt 0 view .LVU51
 236 000a 2046     		mov	r0, r4
 237 000c 10BD     		pop	{r4, pc}
 238              		.loc 1 63 1 view .LVU52
 239              		.cfi_endproc
 240              	.LFE437:
 241              		.size	dis_func1, .-dis_func1
 242 000e 00BF     		.section	.text.dis_func0,"ax",%progbits
 243              		.align	1
 244              		.p2align 4,,15
 245              		.syntax unified
 246              		.thumb
 247              		.thumb_func
 248              		.type	dis_func0, %function
 249              	dis_func0:
 250              	.LFB436:
 251              		.loc 1 51 28 is_stmt 1 view -0
 252              		.cfi_startproc
 253              		@ args = 0, pretend = 0, frame = 0
 254              		@ frame_needed = 0, uses_anonymous_args = 0
 255              		.loc 1 53 3 view .LVU54
 256 0000 3020     		movs	r0, #48
 257              		.loc 1 51 28 is_stmt 0 view .LVU55
 258 0002 08B5     		push	{r3, lr}
 259              		.cfi_def_cfa_offset 8
 260              		.cfi_offset 3, -8
 261              		.cfi_offset 14, -4
 262              		.loc 1 53 3 view .LVU56
 263 0004 FFF7FEFF 		bl	test_emit_token
 264              	.LVL19:
 265              		.loc 1 55 3 is_stmt 1 view .LVU57
 266              		.loc 1 56 1 is_stmt 0 view .LVU58
 267 0008 45F2AA50 		movw	r0, #21930
 268 000c 08BD     		pop	{r3, pc}
 269              		.cfi_endproc
 270              	.LFE436:
 271              		.size	dis_func0, .-dis_func0
 272 000e 00BF     		.section	.text.Thread1,"ax",%progbits
 273              		.align	1
 274              		.p2align 4,,15
 275              		.syntax unified
 276              		.thumb
 277              		.thumb_func
 278              		.type	Thread1, %function
 279              	Thread1:
 280              	.LVL20:
 281              	.LFB442:
 282              		.loc 1 101 35 is_stmt 1 view -0
 283              		.cfi_startproc
 284              		@ args = 0, pretend = 0, frame = 0
 285              		@ frame_needed = 0, uses_anonymous_args = 0
ARM GAS  C:\Users\DEVELO~1\AppData\Local\Temp\ccoAoKKe.s 			page 6


 286              		.loc 1 103 3 view .LVU60
 287              		.loc 1 105 3 view .LVU61
 288              		.loc 1 105 13 is_stmt 0 view .LVU62
 289 0000 0023     		movs	r3, #0
 290              		.loc 1 101 35 view .LVU63
 291 0002 10B5     		push	{r4, lr}
 292              		.cfi_def_cfa_offset 8
 293              		.cfi_offset 4, -8
 294              		.cfi_offset 14, -4
 295              		.loc 1 105 13 view .LVU64
 296 0004 064C     		ldr	r4, .L21
 297 0006 2370     		strb	r3, [r4]
 298              	.LVL21:
 299              	.L17:
 300              		.loc 1 106 3 is_stmt 1 discriminator 1 view .LVU65
 301              		.loc 1 107 5 discriminator 1 view .LVU66
 302 0008 FFF7FEFF 		bl	chDelegateDispatch
 303              	.LVL22:
 304              		.loc 1 108 12 discriminator 1 view .LVU67
 305 000c 2378     		ldrb	r3, [r4]	@ zero_extendqisi2
 306 000e 002B     		cmp	r3, #0
 307 0010 FAD0     		beq	.L17
 308              		.loc 1 110 3 view .LVU68
 309 0012 40F6A570 		movw	r0, #4005
 310              		.loc 1 111 1 is_stmt 0 view .LVU69
 311 0016 BDE81040 		pop	{r4, lr}
 312              		.cfi_restore 14
 313              		.cfi_restore 4
 314              		.cfi_def_cfa_offset 0
 315              		.loc 1 110 3 view .LVU70
 316 001a FFF7FEBF 		b	chThdExit
 317              	.LVL23:
 318              	.L22:
 319 001e 00BF     		.align	2
 320              	.L21:
 321 0020 00000000 		.word	.LANCHOR0
 322              		.cfi_endproc
 323              	.LFE442:
 324              		.size	Thread1, .-Thread1
 325              		.section	.rodata.oslib_test_005_001_execute.str1.4,"aMS",%progbits,1
 326              		.align	2
 327              	.LC0:
 328 0000 64697370 		.ascii	"dispatcher\000"
 328      61746368 
 328      657200
 329 000b 00       		.align	2
 330              	.LC1:
 331 000c 696E7661 		.ascii	"invalid return value\000"
 331      6C696420 
 331      72657475 
 331      726E2076 
 331      616C7565 
 332 0021 000000   		.align	2
 333              	.LC2:
 334 0024 756E6578 		.ascii	"unexpected tokens\000"
 334      70656374 
 334      65642074 
ARM GAS  C:\Users\DEVELO~1\AppData\Local\Temp\ccoAoKKe.s 			page 7


 334      6F6B656E 
 334      7300
 335 0036 0000     		.align	2
 336              	.LC3:
 337 0038 30414243 		.ascii	"0ABCDEFGHIJZ\000"
 337      44454647 
 337      48494A5A 
 337      00
 338 0045 000000   		.align	2
 339              	.LC4:
 340 0048 696E7661 		.ascii	"invalid exit code\000"
 340      6C696420 
 340      65786974 
 340      20636F64 
 340      6500
 341              		.section	.text.oslib_test_005_001_execute,"ax",%progbits
 342              		.align	1
 343              		.p2align 4,,15
 344              		.syntax unified
 345              		.thumb
 346              		.thumb_func
 347              		.type	oslib_test_005_001_execute, %function
 348              	oslib_test_005_001_execute:
 349              	.LFB443:
 350              		.loc 1 131 46 is_stmt 1 view -0
 351              		.cfi_startproc
 352              		@ args = 0, pretend = 0, frame = 24
 353              		@ frame_needed = 0, uses_anonymous_args = 0
 354              		.loc 1 132 3 view .LVU72
 355              		.loc 1 135 3 view .LVU73
 356              	.LBB23:
 357              	.LBB24:
 358              	.LBB25:
 359              	.LBB26:
 360              	.LBB27:
 361              		.file 2 "../../../os/rt/include/chthreads.h"
 362              		.loc 2 343 10 is_stmt 0 view .LVU74
 363 0000 4E4A     		ldr	r2, .L29
 364              	.LBE27:
 365              	.LBE26:
 366              	.LBE25:
 367              	.LBE24:
 368              	.LBE23:
 369              		.loc 1 135 3 view .LVU75
 370 0002 0121     		movs	r1, #1
 371              	.LBB34:
 372              		.loc 1 137 25 view .LVU76
 373 0004 4E4B     		ldr	r3, .L29+4
 374              	.LBB32:
 375              	.LBB30:
 376              		.loc 2 356 37 view .LVU77
 377 0006 D068     		ldr	r0, [r2, #12]
 378              	.LBE30:
 379              	.LBE32:
 380              		.loc 1 137 25 view .LVU78
 381 0008 03F5F872 		add	r2, r3, #496
 382              	.LBE34:
ARM GAS  C:\Users\DEVELO~1\AppData\Local\Temp\ccoAoKKe.s 			page 8


 383              		.loc 1 131 46 view .LVU79
 384 000c 30B5     		push	{r4, r5, lr}
 385              		.cfi_def_cfa_offset 12
 386              		.cfi_offset 4, -12
 387              		.cfi_offset 5, -8
 388              		.cfi_offset 14, -4
 389              	.LBB35:
 390              		.loc 1 137 25 view .LVU80
 391 000e 4D4D     		ldr	r5, .L29+8
 392              	.LBE35:
 393              		.loc 1 131 46 view .LVU81
 394 0010 8BB0     		sub	sp, sp, #44
 395              		.cfi_def_cfa_offset 56
 396              		.loc 1 135 3 view .LVU82
 397 0012 4D4C     		ldr	r4, .L29+12
 398              	.LBB36:
 399              		.loc 1 137 25 view .LVU83
 400 0014 CDE90453 		strd	r5, r3, [sp, #16]
 401              		.loc 1 141 36 view .LVU84
 402 0018 8368     		ldr	r3, [r0, #8]
 403              		.loc 1 145 10 view .LVU85
 404 001a 04A8     		add	r0, sp, #16
 405              	.LBE36:
 406              		.loc 1 135 3 view .LVU86
 407 001c 2160     		str	r1, [r4]
 408              	.LBB37:
 409              		.loc 1 137 5 is_stmt 1 view .LVU87
 410              		.loc 1 141 36 is_stmt 0 view .LVU88
 411 001e 0B44     		add	r3, r3, r1
 412              		.loc 1 137 25 view .LVU89
 413 0020 0692     		str	r2, [sp, #24]
 414              	.LBB33:
 415              	.LBI24:
 416              		.loc 2 354 23 is_stmt 1 view .LVU90
 417              	.LBB31:
 418              		.loc 2 356 3 view .LVU91
 419              	.LBB29:
 420              	.LBI26:
 421              		.loc 2 341 25 view .LVU92
 422              	.LBB28:
 423              		.loc 2 343 3 view .LVU93
 424              	.LBE28:
 425              	.LBE29:
 426              	.LBE31:
 427              	.LBE33:
 428              		.loc 1 137 25 is_stmt 0 view .LVU94
 429 0022 4A49     		ldr	r1, .L29+16
 430 0024 0022     		movs	r2, #0
 431 0026 CDE90731 		strd	r3, r1, [sp, #28]
 432 002a 0992     		str	r2, [sp, #36]
 433              		.loc 1 145 5 is_stmt 1 view .LVU95
 434              		.loc 1 145 10 is_stmt 0 view .LVU96
 435 002c FFF7FEFF 		bl	chThdCreate
 436              	.LVL24:
 437              	.LBE37:
 438              		.loc 1 151 3 view .LVU97
 439 0030 0223     		movs	r3, #2
ARM GAS  C:\Users\DEVELO~1\AppData\Local\Temp\ccoAoKKe.s 			page 9


 440              	.LBB38:
 441              	.LBB39:
 442              	.LBB40:
 443              		.file 3 "../../../os/oslib/include/chdelegates.h"
 444              		.loc 3 126 10 view .LVU98
 445 0032 4749     		ldr	r1, .L29+20
 446 0034 474A     		ldr	r2, .L29+24
 447              	.LBE40:
 448              	.LBE39:
 449              	.LBE38:
 450              	.LBB53:
 451              		.loc 1 145 10 view .LVU99
 452 0036 0546     		mov	r5, r0
 453              	.LVL25:
 454              		.loc 1 145 10 view .LVU100
 455              	.LBE53:
 456              		.loc 1 147 3 is_stmt 1 view .LVU101
 457              		.loc 1 147 19 view .LVU102
 458              		.loc 1 151 3 view .LVU103
 459 0038 2360     		str	r3, [r4]
 460              	.LBB54:
 461              		.loc 1 153 5 view .LVU104
 462              		.loc 1 155 5 view .LVU105
 463              	.LVL26:
 464              	.LBB42:
 465              	.LBI39:
 466              		.loc 3 124 21 view .LVU106
 467              	.LBB41:
 468              		.loc 3 126 3 view .LVU107
 469              		.loc 3 126 10 is_stmt 0 view .LVU108
 470 003a FFF7FEFF 		bl	chDelegateCallVeneer
 471              	.LVL27:
 472              		.loc 3 126 10 view .LVU109
 473              	.LBE41:
 474              	.LBE42:
 475              		.loc 1 156 5 is_stmt 1 view .LVU110
 476 003e 45F2AA53 		movw	r3, #21930
 477 0042 4549     		ldr	r1, .L29+28
 478 0044 C01A     		subs	r0, r0, r3
 479              	.LVL28:
 480              		.loc 1 156 5 is_stmt 0 view .LVU111
 481 0046 B0FA80F0 		clz	r0, r0
 482              	.LVL29:
 483              		.loc 1 156 5 view .LVU112
 484 004a 4009     		lsrs	r0, r0, #5
 485 004c FFF7FEFF 		bl	__test_assert
 486              	.LVL30:
 487 0050 08B1     		cbz	r0, .L28
 488              	.L23:
 489              		.loc 1 156 5 view .LVU113
 490              	.LBE54:
 491              		.loc 1 184 1 view .LVU114
 492 0052 0BB0     		add	sp, sp, #44
 493              		.cfi_remember_state
 494              		.cfi_def_cfa_offset 12
 495              		@ sp needed
 496 0054 30BD     		pop	{r4, r5, pc}
ARM GAS  C:\Users\DEVELO~1\AppData\Local\Temp\ccoAoKKe.s 			page 10


 497              	.LVL31:
 498              	.L28:
 499              		.cfi_restore_state
 500              	.LBB55:
 501              		.loc 1 156 58 is_stmt 1 view .LVU115
 502              		.loc 1 158 5 view .LVU116
 503              	.LBB43:
 504              	.LBI43:
 505              		.loc 3 140 21 view .LVU117
 506              	.LBB44:
 507              		.loc 3 143 3 view .LVU118
 508              		.loc 3 143 10 is_stmt 0 view .LVU119
 509 0056 4149     		ldr	r1, .L29+32
 510 0058 4123     		movs	r3, #65
 511 005a 414A     		ldr	r2, .L29+36
 512 005c 2846     		mov	r0, r5
 513 005e FFF7FEFF 		bl	chDelegateCallVeneer
 514              	.LVL32:
 515              		.loc 3 143 10 view .LVU120
 516              	.LBE44:
 517              	.LBE43:
 518              		.loc 1 159 5 is_stmt 1 view .LVU121
 519 0062 A0F14100 		sub	r0, #65
 520              	.LVL33:
 521              		.loc 1 159 5 is_stmt 0 view .LVU122
 522 0066 3C49     		ldr	r1, .L29+28
 523 0068 B0FA80F0 		clz	r0, r0
 524              	.LVL34:
 525              		.loc 1 159 5 view .LVU123
 526 006c 4009     		lsrs	r0, r0, #5
 527 006e FFF7FEFF 		bl	__test_assert
 528              	.LVL35:
 529 0072 0028     		cmp	r0, #0
 530 0074 EDD1     		bne	.L23
 531              		.loc 1 159 60 is_stmt 1 view .LVU124
 532              		.loc 1 161 5 view .LVU125
 533              	.LVL36:
 534              	.LBB45:
 535              	.LBI45:
 536              		.loc 3 158 21 view .LVU126
 537              	.LBB46:
 538              		.loc 3 161 3 view .LVU127
 539              		.loc 3 161 10 is_stmt 0 view .LVU128
 540 0076 4321     		movs	r1, #67
 541 0078 4223     		movs	r3, #66
 542 007a 3A4A     		ldr	r2, .L29+40
 543 007c 2846     		mov	r0, r5
 544 007e 0091     		str	r1, [sp]
 545 0080 3949     		ldr	r1, .L29+44
 546 0082 FFF7FEFF 		bl	chDelegateCallVeneer
 547              	.LVL37:
 548              		.loc 3 161 10 view .LVU129
 549              	.LBE46:
 550              	.LBE45:
 551              		.loc 1 162 5 is_stmt 1 view .LVU130
 552 0086 A0F14200 		sub	r0, #66
 553              	.LVL38:
ARM GAS  C:\Users\DEVELO~1\AppData\Local\Temp\ccoAoKKe.s 			page 11


 554              		.loc 1 162 5 is_stmt 0 view .LVU131
 555 008a 3349     		ldr	r1, .L29+28
 556 008c B0FA80F0 		clz	r0, r0
 557              	.LVL39:
 558              		.loc 1 162 5 view .LVU132
 559 0090 4009     		lsrs	r0, r0, #5
 560 0092 FFF7FEFF 		bl	__test_assert
 561              	.LVL40:
 562 0096 0028     		cmp	r0, #0
 563 0098 DBD1     		bne	.L23
 564              		.loc 1 162 60 is_stmt 1 view .LVU133
 565              		.loc 1 164 5 view .LVU134
 566              	.LVL41:
 567              	.LBB47:
 568              	.LBI47:
 569              		.loc 3 177 21 view .LVU135
 570              	.LBB48:
 571              		.loc 3 180 3 view .LVU136
 572              		.loc 3 180 10 is_stmt 0 view .LVU137
 573 009a 4621     		movs	r1, #70
 574 009c 4522     		movs	r2, #69
 575 009e 4423     		movs	r3, #68
 576 00a0 2846     		mov	r0, r5
 577 00a2 CDE90021 		strd	r2, r1, [sp]
 578 00a6 3149     		ldr	r1, .L29+48
 579 00a8 314A     		ldr	r2, .L29+52
 580 00aa FFF7FEFF 		bl	chDelegateCallVeneer
 581              	.LVL42:
 582              		.loc 3 180 10 view .LVU138
 583              	.LBE48:
 584              	.LBE47:
 585              		.loc 1 165 5 is_stmt 1 view .LVU139
 586 00ae A0F14400 		sub	r0, #68
 587              	.LVL43:
 588              		.loc 1 165 5 is_stmt 0 view .LVU140
 589 00b2 2949     		ldr	r1, .L29+28
 590 00b4 B0FA80F0 		clz	r0, r0
 591              	.LVL44:
 592              		.loc 1 165 5 view .LVU141
 593 00b8 4009     		lsrs	r0, r0, #5
 594 00ba FFF7FEFF 		bl	__test_assert
 595              	.LVL45:
 596 00be 0028     		cmp	r0, #0
 597 00c0 C7D1     		bne	.L23
 598              		.loc 1 165 60 is_stmt 1 view .LVU142
 599              		.loc 1 167 5 view .LVU143
 600              	.LVL46:
 601              	.LBB49:
 602              	.LBI49:
 603              		.loc 3 197 21 view .LVU144
 604              	.LBB50:
 605              		.loc 3 201 3 view .LVU145
 606              		.loc 3 201 10 is_stmt 0 view .LVU146
 607 00c2 4A22     		movs	r2, #74
 608 00c4 4923     		movs	r3, #73
 609 00c6 4821     		movs	r1, #72
 610 00c8 2846     		mov	r0, r5
ARM GAS  C:\Users\DEVELO~1\AppData\Local\Temp\ccoAoKKe.s 			page 12


 611 00ca CDE90132 		strd	r3, r2, [sp, #4]
 612 00ce 0091     		str	r1, [sp]
 613 00d0 4723     		movs	r3, #71
 614 00d2 2849     		ldr	r1, .L29+56
 615 00d4 284A     		ldr	r2, .L29+60
 616 00d6 FFF7FEFF 		bl	chDelegateCallVeneer
 617              	.LVL47:
 618              		.loc 3 201 10 view .LVU147
 619              	.LBE50:
 620              	.LBE49:
 621              		.loc 1 168 5 is_stmt 1 view .LVU148
 622 00da A0F14700 		sub	r0, #71
 623              	.LVL48:
 624              		.loc 1 168 5 is_stmt 0 view .LVU149
 625 00de 1E49     		ldr	r1, .L29+28
 626 00e0 B0FA80F0 		clz	r0, r0
 627              	.LVL49:
 628              		.loc 1 168 5 view .LVU150
 629 00e4 4009     		lsrs	r0, r0, #5
 630 00e6 FFF7FEFF 		bl	__test_assert
 631              	.LVL50:
 632 00ea 0028     		cmp	r0, #0
 633 00ec B1D1     		bne	.L23
 634              		.loc 1 168 60 is_stmt 1 view .LVU151
 635              		.loc 1 170 5 view .LVU152
 636              	.LVL51:
 637              	.LBB51:
 638              	.LBI51:
 639              		.loc 3 124 21 view .LVU153
 640              	.LBB52:
 641              		.loc 3 126 3 view .LVU154
 642              		.loc 3 126 10 is_stmt 0 view .LVU155
 643 00ee 1849     		ldr	r1, .L29+20
 644 00f0 2846     		mov	r0, r5
 645 00f2 224A     		ldr	r2, .L29+64
 646 00f4 FFF7FEFF 		bl	chDelegateCallVeneer
 647              	.LVL52:
 648              		.loc 3 126 10 view .LVU156
 649              	.LBE52:
 650              	.LBE51:
 651              		.loc 1 171 5 is_stmt 1 view .LVU157
 652 00f8 4AF65523 		movw	r3, #43605
 653 00fc 1649     		ldr	r1, .L29+28
 654 00fe C01A     		subs	r0, r0, r3
 655              	.LVL53:
 656              		.loc 1 171 5 is_stmt 0 view .LVU158
 657 0100 B0FA80F0 		clz	r0, r0
 658              	.LVL54:
 659              		.loc 1 171 5 view .LVU159
 660 0104 4009     		lsrs	r0, r0, #5
 661 0106 FFF7FEFF 		bl	__test_assert
 662              	.LVL55:
 663 010a 0028     		cmp	r0, #0
 664 010c A1D1     		bne	.L23
 665              		.loc 1 171 58 is_stmt 1 discriminator 2 view .LVU160
 666              		.loc 1 173 5 discriminator 2 view .LVU161
 667 010e 1C49     		ldr	r1, .L29+68
ARM GAS  C:\Users\DEVELO~1\AppData\Local\Temp\ccoAoKKe.s 			page 13


 668 0110 1C48     		ldr	r0, .L29+72
 669 0112 FFF7FEFF 		bl	__test_assert_sequence
 670              	.LVL56:
 671 0116 0028     		cmp	r0, #0
 672 0118 9BD1     		bne	.L23
 673              		.loc 1 173 62 discriminator 2 view .LVU162
 674              	.LBE55:
 675              		.loc 1 175 3 discriminator 2 view .LVU163
 676              		.loc 1 175 19 discriminator 2 view .LVU164
 677              		.loc 1 178 3 discriminator 2 view .LVU165
 678 011a 0323     		movs	r3, #3
 679              	.LBB56:
 680              		.loc 1 180 17 is_stmt 0 discriminator 2 view .LVU166
 681 011c 2846     		mov	r0, r5
 682              	.LBE56:
 683              		.loc 1 178 3 discriminator 2 view .LVU167
 684 011e 2360     		str	r3, [r4]
 685              	.LBB57:
 686              		.loc 1 180 5 is_stmt 1 discriminator 2 view .LVU168
 687              		.loc 1 180 17 is_stmt 0 discriminator 2 view .LVU169
 688 0120 FFF7FEFF 		bl	chThdWait
 689              	.LVL57:
 690              		.loc 1 181 5 is_stmt 1 discriminator 2 view .LVU170
 691 0124 40F6A573 		movw	r3, #4005
 692 0128 1749     		ldr	r1, .L29+76
 693 012a C01A     		subs	r0, r0, r3
 694              	.LVL58:
 695              		.loc 1 181 5 is_stmt 0 discriminator 2 view .LVU171
 696 012c B0FA80F0 		clz	r0, r0
 697              	.LVL59:
 698              		.loc 1 181 5 discriminator 2 view .LVU172
 699 0130 4009     		lsrs	r0, r0, #5
 700              	.LBE57:
 701              		.loc 1 184 1 discriminator 2 view .LVU173
 702 0132 0BB0     		add	sp, sp, #44
 703              		.cfi_def_cfa_offset 12
 704              		@ sp needed
 705 0134 BDE83040 		pop	{r4, r5, lr}
 706              		.cfi_restore 14
 707              		.cfi_restore 5
 708              		.cfi_restore 4
 709              		.cfi_def_cfa_offset 0
 710              	.LVL60:
 711              	.LBB58:
 712              		.loc 1 181 5 discriminator 2 view .LVU174
 713 0138 FFF7FEBF 		b	__test_assert
 714              	.LVL61:
 715              	.L30:
 716              		.align	2
 717              	.L29:
 718 013c 00000000 		.word	ch0
 719 0140 00000000 		.word	.LANCHOR1
 720 0144 00000000 		.word	.LC0
 721 0148 00000000 		.word	chtest
 722 014c 00000000 		.word	Thread1
 723 0150 00000000 		.word	__ch_delegate_fn0
 724 0154 00000000 		.word	dis_func0
ARM GAS  C:\Users\DEVELO~1\AppData\Local\Temp\ccoAoKKe.s 			page 14


 725 0158 0C000000 		.word	.LC1
 726 015c 00000000 		.word	__ch_delegate_fn1
 727 0160 00000000 		.word	dis_func1
 728 0164 00000000 		.word	dis_func2
 729 0168 00000000 		.word	__ch_delegate_fn2
 730 016c 00000000 		.word	__ch_delegate_fn3
 731 0170 00000000 		.word	dis_func3
 732 0174 00000000 		.word	__ch_delegate_fn4
 733 0178 00000000 		.word	dis_func4
 734 017c 00000000 		.word	dis_func_end
 735 0180 24000000 		.word	.LC2
 736 0184 38000000 		.word	.LC3
 737 0188 48000000 		.word	.LC4
 738              	.LBE58:
 739              		.cfi_endproc
 740              	.LFE443:
 741              		.size	oslib_test_005_001_execute, .-oslib_test_005_001_execute
 742              		.global	oslib_test_sequence_005
 743              		.section	.rodata.str1.4,"aMS",%progbits,1
 744              		.align	2
 745              	.LC5:
 746 0000 54687265 		.ascii	"Thread Delegates\000"
 746      61642044 
 746      656C6567 
 746      61746573 
 746      00
 747              		.global	oslib_test_sequence_005_array
 748 0011 000000   		.align	2
 749              	.LC6:
 750 0014 44697370 		.ascii	"Dispatcher test\000"
 750      61746368 
 750      65722074 
 750      65737400 
 751              		.section	.bss.exit_flag,"aw",%nobits
 752              		.set	.LANCHOR0,. + 0
 753              		.type	exit_flag, %object
 754              		.size	exit_flag, 1
 755              	exit_flag:
 756 0000 00       		.space	1
 757              		.section	.bss.waThread1,"aw",%nobits
 758              		.align	3
 759              		.set	.LANCHOR1,. + 0
 760              		.type	waThread1, %object
 761              		.size	waThread1, 496
 762              	waThread1:
 763 0000 00000000 		.space	496
 763      00000000 
 763      00000000 
 763      00000000 
 763      00000000 
 764              		.section	.rodata.oslib_test_005_001,"a"
 765              		.align	2
 766              		.type	oslib_test_005_001, %object
 767              		.size	oslib_test_005_001, 16
 768              	oslib_test_005_001:
 769 0000 14000000 		.word	.LC6
 770 0004 00000000 		.word	0
ARM GAS  C:\Users\DEVELO~1\AppData\Local\Temp\ccoAoKKe.s 			page 15


 771 0008 00000000 		.word	0
 772 000c 00000000 		.word	oslib_test_005_001_execute
 773              		.section	.rodata.oslib_test_sequence_005,"a"
 774              		.align	2
 775              		.type	oslib_test_sequence_005, %object
 776              		.size	oslib_test_sequence_005, 8
 777              	oslib_test_sequence_005:
 778 0000 00000000 		.word	.LC5
 779 0004 00000000 		.word	oslib_test_sequence_005_array
 780              		.section	.rodata.oslib_test_sequence_005_array,"a"
 781              		.align	2
 782              		.type	oslib_test_sequence_005_array, %object
 783              		.size	oslib_test_sequence_005_array, 8
 784              	oslib_test_sequence_005_array:
 785 0000 00000000 		.word	oslib_test_005_001
 786 0004 00000000 		.word	0
 787              		.text
 788              	.Letext0:
 789              		.file 4 "c:\\chibistudio\\tools\\gnu tools arm embedded\\11.3 2022.08\\lib\\gcc\\arm-none-eabi\\11
 790              		.file 5 "c:\\chibistudio\\tools\\gnu tools arm embedded\\11.3 2022.08\\arm-none-eabi\\include\\mac
 791              		.file 6 "c:\\chibistudio\\tools\\gnu tools arm embedded\\11.3 2022.08\\arm-none-eabi\\include\\sys
 792              		.file 7 "../../../os/common/ports/ARM-common/chtypes.h"
 793              		.file 8 "../../../os/rt/include/chearly.h"
 794              		.file 9 "../../../os/rt/include/chobjects.h"
 795              		.file 10 "../../../os/rt/include/chrfcu.h"
 796              		.file 11 "../../../os/rt/include/chdebug.h"
 797              		.file 12 "../../../os/rt/include/chtime.h"
 798              		.file 13 "../../../os/rt/include/chlists.h"
 799              		.file 14 "../../../os/rt/include/chtrace.h"
 800              		.file 15 "../../../os/common/ports/ARMv7-M/chcore.h"
 801              		.file 16 "../../../os/rt/include/chsem.h"
 802              		.file 17 "../../../os/rt/include/chmtx.h"
 803              		.file 18 "c:\\chibistudio\\tools\\gnu tools arm embedded\\11.3 2022.08\\lib\\gcc\\arm-none-eabi\\1
 804              		.file 19 "../../../os/hal/include/hal_streams.h"
 805              		.file 20 "../../../os/test/include/ch_test.h"
 806              		.file 21 "../../../test/oslib/source/test/oslib_test_sequence_005.h"
 807              		.file 22 "../../../os/rt/include/chsys.h"
 808              		.file 23 "<built-in>"