ARM GAS  C:\Users\DEVELO~1\AppData\Local\Temp\ccTB0HEa.s 			page 1


   1              		.cpu cortex-m7
   2              		.arch armv7e-m
   3              		.fpu softvfp
   4              		.eabi_attribute 20, 1
   5              		.eabi_attribute 21, 1
   6              		.eabi_attribute 23, 3
   7              		.eabi_attribute 24, 1
   8              		.eabi_attribute 25, 1
   9              		.eabi_attribute 26, 1
  10              		.eabi_attribute 30, 2
  11              		.eabi_attribute 34, 1
  12              		.eabi_attribute 18, 4
  13              		.file	"oslib_test_sequence_004.c"
  14              		.text
  15              	.Ltext0:
  16              		.cfi_sections	.debug_frame
  17              		.section	.text.job_slow,"ax",%progbits
  18              		.align	1
  19              		.p2align 4,,15
  20              		.syntax unified
  21              		.thumb
  22              		.thumb_func
  23              		.type	job_slow, %function
  24              	job_slow:
  25              	.LVL0:
  26              	.LFB436:
  27              		.file 1 "../../../test/oslib/source/test/oslib_test_sequence_004.c"
  28              		.loc 1 55 33 view -0
  29              		.cfi_startproc
  30              		@ args = 0, pretend = 0, frame = 0
  31              		@ frame_needed = 0, uses_anonymous_args = 0
  32              		.loc 1 57 3 view .LVU1
  33 0000 C0B2     		uxtb	r0, r0
  34              	.LVL1:
  35              		.loc 1 55 33 is_stmt 0 view .LVU2
  36 0002 08B5     		push	{r3, lr}
  37              		.cfi_def_cfa_offset 8
  38              		.cfi_offset 3, -8
  39              		.cfi_offset 14, -4
  40              		.loc 1 57 3 view .LVU3
  41 0004 FFF7FEFF 		bl	test_emit_token
  42              	.LVL2:
  43              		.loc 1 58 3 is_stmt 1 view .LVU4
  44 0008 6420     		movs	r0, #100
  45              		.loc 1 59 1 is_stmt 0 view .LVU5
  46 000a BDE80840 		pop	{r3, lr}
  47              		.cfi_restore 14
  48              		.cfi_restore 3
  49              		.cfi_def_cfa_offset 0
  50              		.loc 1 58 3 view .LVU6
  51 000e FFF7FEBF 		b	chThdSleep
  52              	.LVL3:
  53              		.cfi_endproc
  54              	.LFE436:
  55              		.size	job_slow, .-job_slow
  56 0012 00BF     		.section	.text.Thread1,"ax",%progbits
  57              		.align	1
ARM GAS  C:\Users\DEVELO~1\AppData\Local\Temp\ccTB0HEa.s 			page 2


  58              		.p2align 4,,15
  59              		.syntax unified
  60              		.thumb
  61              		.thumb_func
  62              		.type	Thread1, %function
  63              	Thread1:
  64              	.LVL4:
  65              	.LFB437:
  66              		.loc 1 63 35 is_stmt 1 view -0
  67              		.cfi_startproc
  68              		@ args = 0, pretend = 0, frame = 8
  69              		@ frame_needed = 0, uses_anonymous_args = 0
  70              		.loc 1 63 35 is_stmt 0 view .LVU8
  71 0000 70B5     		push	{r4, r5, r6, lr}
  72              		.cfi_def_cfa_offset 16
  73              		.cfi_offset 4, -16
  74              		.cfi_offset 5, -12
  75              		.cfi_offset 6, -8
  76              		.cfi_offset 14, -4
  77              	.LBB33:
  78              	.LBB34:
  79              		.file 2 "../../../os/oslib/include/chjobs.h"
  80              		.loc 2 329 9 view .LVU9
  81 0002 0C4D     		ldr	r5, .L10
  82              	.LBE34:
  83              	.LBE33:
  84              		.loc 1 63 35 view .LVU10
  85 0004 82B0     		sub	sp, sp, #8
  86              		.cfi_def_cfa_offset 24
  87              	.LBB41:
  88              	.LBB38:
  89              	.LBB35:
  90              		.loc 2 341 7 view .LVU11
  91 0006 A5F11C06 		sub	r6, r5, #28
  92              	.LVL5:
  93              	.L7:
  94              		.loc 2 341 7 view .LVU12
  95              	.LBE35:
  96              	.LBE38:
  97              	.LBE41:
  98              		.loc 1 64 3 is_stmt 1 discriminator 1 view .LVU13
  99              		.loc 1 66 3 discriminator 1 view .LVU14
 100              		.loc 1 68 3 discriminator 1 view .LVU15
 101              		.loc 1 69 5 discriminator 1 view .LVU16
 102              	.LBB42:
 103              	.LBI33:
 104              		.loc 2 325 21 discriminator 1 view .LVU17
 105              	.LBB39:
 106              		.loc 2 326 3 discriminator 1 view .LVU18
 107              		.loc 2 329 3 discriminator 1 view .LVU19
 108              		.loc 2 329 9 is_stmt 0 discriminator 1 view .LVU20
 109 000a 4FF0FF32 		mov	r2, #-1
 110 000e 01A9     		add	r1, sp, #4
 111 0010 2846     		mov	r0, r5
 112 0012 FFF7FEFF 		bl	chMBFetchTimeout
 113              	.LVL6:
 114              	.LBB36:
ARM GAS  C:\Users\DEVELO~1\AppData\Local\Temp\ccTB0HEa.s 			page 3


 115              		.loc 2 331 5 is_stmt 1 discriminator 1 view .LVU21
 116              		.loc 2 338 7 discriminator 1 view .LVU22
 117              		.loc 2 338 7 is_stmt 0 discriminator 1 view .LVU23
 118              	.LBE36:
 119              		.loc 2 330 3 is_stmt 1 discriminator 1 view .LVU24
 120              		.loc 2 330 6 is_stmt 0 discriminator 1 view .LVU25
 121 0016 08B1     		cbz	r0, .L9
 122              	.L4:
 123              	.LBE39:
 124              	.LBE42:
 125              		.loc 1 71 1 view .LVU26
 126 0018 02B0     		add	sp, sp, #8
 127              		.cfi_remember_state
 128              		.cfi_def_cfa_offset 16
 129              		@ sp needed
 130 001a 70BD     		pop	{r4, r5, r6, pc}
 131              	.L9:
 132              		.cfi_restore_state
 133              	.LBB43:
 134              	.LBB40:
 135              	.LBB37:
 136              		.loc 2 331 23 view .LVU27
 137 001c 019C     		ldr	r4, [sp, #4]
 138              	.LVL7:
 139              		.loc 2 333 5 is_stmt 1 view .LVU28
 140              		.loc 2 333 5 view .LVU29
 141              		.loc 2 333 5 view .LVU30
 142              		.loc 2 335 5 view .LVU31
 143              		.loc 2 335 11 is_stmt 0 view .LVU32
 144 001e 2368     		ldr	r3, [r4]
 145              		.loc 2 335 8 view .LVU33
 146 0020 002B     		cmp	r3, #0
 147 0022 F9D0     		beq	.L4
 148              		.loc 2 338 7 view .LVU34
 149 0024 6068     		ldr	r0, [r4, #4]
 150              	.LVL8:
 151              		.loc 2 338 7 view .LVU35
 152 0026 9847     		blx	r3
 153              	.LVL9:
 154              		.loc 2 341 7 is_stmt 1 view .LVU36
 155 0028 2146     		mov	r1, r4
 156 002a 3046     		mov	r0, r6
 157 002c FFF7FEFF 		bl	chGuardedPoolFree
 158              	.LVL10:
 159              		.loc 2 341 7 is_stmt 0 view .LVU37
 160              	.LBE37:
 161              		.loc 2 348 3 is_stmt 1 view .LVU38
 162              		.loc 2 348 3 is_stmt 0 view .LVU39
 163              	.LBE40:
 164              	.LBE43:
 165              		.loc 1 70 16 is_stmt 1 view .LVU40
 166 0030 EBE7     		b	.L7
 167              	.L11:
 168 0032 00BF     		.align	2
 169              	.L10:
 170 0034 1C000000 		.word	.LANCHOR0+28
 171              		.cfi_endproc
ARM GAS  C:\Users\DEVELO~1\AppData\Local\Temp\ccTB0HEa.s 			page 4


 172              	.LFE437:
 173              		.size	Thread1, .-Thread1
 174              		.section	.rodata.oslib_test_004_001_execute.str1.4,"aMS",%progbits,1
 175              		.align	2
 176              	.LC0:
 177 0000 64697370 		.ascii	"dispatcher1\000"
 177      61746368 
 177      65723100 
 178              		.align	2
 179              	.LC1:
 180 000c 64697370 		.ascii	"dispatcher2\000"
 180      61746368 
 180      65723200 
 181              		.align	2
 182              	.LC2:
 183 0018 756E6578 		.ascii	"unexpected tokens\000"
 183      70656374 
 183      65642074 
 183      6F6B656E 
 183      7300
 184 002a 0000     		.align	2
 185              	.LC3:
 186 002c 61626364 		.ascii	"abcdefgh\000"
 186      65666768 
 186      00
 187              		.section	.text.oslib_test_004_001_execute,"ax",%progbits
 188              		.align	1
 189              		.p2align 4,,15
 190              		.syntax unified
 191              		.thumb
 192              		.thumb_func
 193              		.type	oslib_test_004_001_execute, %function
 194              	oslib_test_004_001_execute:
 195              	.LFB438:
 196              		.loc 1 91 46 view -0
 197              		.cfi_startproc
 198              		@ args = 0, pretend = 0, frame = 48
 199              		@ frame_needed = 0, uses_anonymous_args = 0
 200              		.loc 1 92 3 view .LVU42
 201              		.loc 1 95 3 view .LVU43
 202              		.loc 1 91 46 is_stmt 0 view .LVU44
 203 0000 2DE9F047 		push	{r4, r5, r6, r7, r8, r9, r10, lr}
 204              		.cfi_def_cfa_offset 32
 205              		.cfi_offset 4, -32
 206              		.cfi_offset 5, -28
 207              		.cfi_offset 6, -24
 208              		.cfi_offset 7, -20
 209              		.cfi_offset 8, -16
 210              		.cfi_offset 9, -12
 211              		.cfi_offset 10, -8
 212              		.cfi_offset 14, -4
 213              		.loc 1 95 3 view .LVU45
 214 0004 0123     		movs	r3, #1
 215 0006 3C4F     		ldr	r7, .L16
 216              		.loc 1 91 46 view .LVU46
 217 0008 8CB0     		sub	sp, sp, #48
 218              		.cfi_def_cfa_offset 80
ARM GAS  C:\Users\DEVELO~1\AppData\Local\Temp\ccTB0HEa.s 			page 5


 219              	.LBB73:
 220              	.LBB74:
 221              	.LBB75:
 222              	.LBB76:
 223              		.file 3 "../../../os/oslib/include/chmempools.h"
 224              		.loc 3 248 3 view .LVU47
 225 000a 0422     		movs	r2, #4
 226 000c 0821     		movs	r1, #8
 227 000e 3B48     		ldr	r0, .L16+4
 228              	.LBE76:
 229              	.LBE75:
 230              	.LBE74:
 231              	.LBE73:
 232              		.loc 1 95 3 view .LVU48
 233 0010 3B60     		str	r3, [r7]
 234              		.loc 1 97 5 is_stmt 1 view .LVU49
 235              	.LBB82:
 236              	.LBI73:
 237              		.loc 2 139 20 view .LVU50
 238              	.LVL11:
 239              	.LBB79:
 240              		.loc 2 144 3 view .LVU51
 241              		.loc 2 144 3 view .LVU52
 242              		.loc 2 144 3 view .LVU53
 243              		.loc 2 146 3 view .LVU54
 244              	.LBB78:
 245              	.LBI75:
 246              		.loc 3 245 20 view .LVU55
 247              	.LBB77:
 248              		.loc 3 248 3 view .LVU56
 249 0012 FFF7FEFF 		bl	chGuardedPoolObjectInitAligned
 250              	.LVL12:
 251              		.loc 3 248 3 is_stmt 0 view .LVU57
 252              	.LBE77:
 253              	.LBE78:
 254              		.loc 2 147 3 is_stmt 1 view .LVU58
 255              	.LBE79:
 256              	.LBE82:
 257              	.LBB83:
 258              	.LBB84:
 259              	.LBB85:
 260              	.LBB86:
 261              	.LBB87:
 262              		.file 4 "../../../os/rt/include/chthreads.h"
 263              		.loc 4 343 10 is_stmt 0 view .LVU59
 264 0016 3A4E     		ldr	r6, .L16+8
 265              	.LBE87:
 266              	.LBE86:
 267              	.LBE85:
 268              	.LBE84:
 269              	.LBE83:
 270              	.LBB100:
 271              	.LBB80:
 272              		.loc 2 147 3 view .LVU60
 273 0018 0422     		movs	r2, #4
 274 001a 3A49     		ldr	r1, .L16+12
 275              	.LBE80:
ARM GAS  C:\Users\DEVELO~1\AppData\Local\Temp\ccTB0HEa.s 			page 6


 276              	.LBE100:
 277              	.LBB101:
 278              		.loc 1 104 25 view .LVU61
 279 001c 0024     		movs	r4, #0
 280              	.LBE101:
 281              	.LBB102:
 282              	.LBB81:
 283              		.loc 2 147 3 view .LVU62
 284 001e 3748     		ldr	r0, .L16+4
 285 0020 FFF7FEFF 		bl	chGuardedPoolLoadArray
 286              	.LVL13:
 287              		.loc 2 148 3 is_stmt 1 view .LVU63
 288 0024 0422     		movs	r2, #4
 289 0026 3849     		ldr	r1, .L16+16
 290 0028 3848     		ldr	r0, .L16+20
 291 002a FFF7FEFF 		bl	chMBObjectInit
 292              	.LVL14:
 293              		.loc 2 148 3 is_stmt 0 view .LVU64
 294              	.LBE81:
 295              	.LBE102:
 296              		.loc 1 99 3 is_stmt 1 view .LVU65
 297              		.loc 1 99 19 view .LVU66
 298              		.loc 1 102 3 view .LVU67
 299              	.LBB103:
 300              	.LBB92:
 301              	.LBB90:
 302              		.loc 4 356 37 is_stmt 0 view .LVU68
 303 002e F268     		ldr	r2, [r6, #12]
 304              	.LBE90:
 305              	.LBE92:
 306              		.loc 1 104 25 view .LVU69
 307 0030 374B     		ldr	r3, .L16+24
 308              	.LBE103:
 309              		.loc 1 102 3 view .LVU70
 310 0032 0221     		movs	r1, #2
 311              	.LBB104:
 312              		.loc 1 108 36 view .LVU71
 313 0034 9268     		ldr	r2, [r2, #8]
 314              		.loc 1 112 11 view .LVU72
 315 0036 6846     		mov	r0, sp
 316              		.loc 1 104 25 view .LVU73
 317 0038 364D     		ldr	r5, .L16+28
 318              		.loc 1 108 36 view .LVU74
 319 003a 013A     		subs	r2, r2, #1
 320              	.LBE104:
 321              		.loc 1 102 3 view .LVU75
 322 003c 3960     		str	r1, [r7]
 323              	.LBB105:
 324              		.loc 1 104 5 is_stmt 1 view .LVU76
 325              		.loc 1 104 25 is_stmt 0 view .LVU77
 326 003e 0193     		str	r3, [sp, #4]
 327 0040 03F5F873 		add	r3, r3, #496
 328 0044 3449     		ldr	r1, .L16+32
 329 0046 0392     		str	r2, [sp, #12]
 330 0048 0091     		str	r1, [sp]
 331 004a 0293     		str	r3, [sp, #8]
 332              	.LBB93:
ARM GAS  C:\Users\DEVELO~1\AppData\Local\Temp\ccTB0HEa.s 			page 7


 333              	.LBI84:
 334              		.loc 4 354 23 is_stmt 1 view .LVU78
 335              	.LBB91:
 336              		.loc 4 356 3 view .LVU79
 337              	.LBB89:
 338              	.LBI86:
 339              		.loc 4 341 25 view .LVU80
 340              	.LBB88:
 341              		.loc 4 343 3 view .LVU81
 342              	.LBE88:
 343              	.LBE89:
 344              	.LBE91:
 345              	.LBE93:
 346              	.LBE105:
 347              	.LBB106:
 348              	.LBB107:
 349              	.LBB108:
 350              		.loc 2 161 30 is_stmt 0 view .LVU82
 351 004c DFF8ACA0 		ldr	r10, .L16+4
 352              	.LBE108:
 353              	.LBE107:
 354              	.LBE106:
 355              	.LBB117:
 356              		.loc 1 104 25 view .LVU83
 357 0050 CDE90454 		strd	r5, r4, [sp, #16]
 358              		.loc 1 112 5 is_stmt 1 view .LVU84
 359              		.loc 1 112 11 is_stmt 0 view .LVU85
 360 0054 FFF7FEFF 		bl	chThdCreate
 361              	.LVL15:
 362              	.LBB94:
 363              	.LBB95:
 364              		.loc 4 356 37 view .LVU86
 365 0058 F368     		ldr	r3, [r6, #12]
 366              	.LBE95:
 367              	.LBE94:
 368              		.loc 1 112 11 view .LVU87
 369 005a 8146     		mov	r9, r0
 370              	.LVL16:
 371              		.loc 1 114 5 is_stmt 1 view .LVU88
 372              		.loc 1 122 11 is_stmt 0 view .LVU89
 373 005c 06A8     		add	r0, sp, #24
 374              	.LVL17:
 375              		.loc 1 118 36 view .LVU90
 376 005e 9B68     		ldr	r3, [r3, #8]
 377 0060 2E4E     		ldr	r6, .L16+36
 378 0062 023B     		subs	r3, r3, #2
 379              		.loc 1 114 25 view .LVU91
 380 0064 0A95     		str	r5, [sp, #40]
 381 0066 0B94     		str	r4, [sp, #44]
 382              	.LBE117:
 383              	.LBB118:
 384              	.LBB110:
 385              	.LBB111:
 386              		.loc 2 264 9 view .LVU92
 387 0068 0AF11C05 		add	r5, r10, #28
 388              	.LBE111:
 389              	.LBE110:
ARM GAS  C:\Users\DEVELO~1\AppData\Local\Temp\ccTB0HEa.s 			page 8


 390              	.LBE118:
 391              	.LBB119:
 392              		.loc 1 114 25 view .LVU93
 393 006c 0993     		str	r3, [sp, #36]
 394              	.LBE119:
 395              		.loc 1 127 3 view .LVU94
 396 006e 6124     		movs	r4, #97
 397              	.LBB120:
 398              		.loc 1 114 25 view .LVU95
 399 0070 2B4B     		ldr	r3, .L16+40
 400 0072 0793     		str	r3, [sp, #28]
 401 0074 03F5F873 		add	r3, r3, #496
 402 0078 0893     		str	r3, [sp, #32]
 403              	.LBB99:
 404              	.LBI94:
 405              		.loc 4 354 23 is_stmt 1 view .LVU96
 406              	.LBB98:
 407              		.loc 4 356 3 view .LVU97
 408              	.LBB96:
 409              	.LBI96:
 410              		.loc 4 341 25 view .LVU98
 411              	.LBB97:
 412              		.loc 4 343 3 view .LVU99
 413              	.LBE97:
 414              	.LBE96:
 415              	.LBE98:
 416              	.LBE99:
 417              		.loc 1 122 5 view .LVU100
 418              		.loc 1 114 25 is_stmt 0 view .LVU101
 419 007a 2A4B     		ldr	r3, .L16+44
 420 007c 0693     		str	r3, [sp, #24]
 421              		.loc 1 122 11 view .LVU102
 422 007e FFF7FEFF 		bl	chThdCreate
 423              	.LVL18:
 424              	.LBE120:
 425              		.loc 1 127 3 view .LVU103
 426 0082 0323     		movs	r3, #3
 427              	.LBB121:
 428              		.loc 1 122 11 view .LVU104
 429 0084 8046     		mov	r8, r0
 430              	.LVL19:
 431              		.loc 1 122 11 view .LVU105
 432              	.LBE121:
 433              		.loc 1 124 3 is_stmt 1 view .LVU106
 434              		.loc 1 124 19 view .LVU107
 435              		.loc 1 127 3 view .LVU108
 436 0086 3B60     		str	r3, [r7]
 437              	.LBB122:
 438              		.loc 1 129 5 view .LVU109
 439              		.loc 1 130 5 view .LVU110
 440              		.loc 1 132 5 view .LVU111
 441              	.LVL20:
 442              		.loc 1 132 19 view .LVU112
 443              	.L13:
 444              		.loc 1 133 7 view .LVU113
 445              	.LBB114:
 446              	.LBI107:
ARM GAS  C:\Users\DEVELO~1\AppData\Local\Temp\ccTB0HEa.s 			page 9


 447              		.loc 2 159 33 view .LVU114
 448              	.LBB109:
 449              		.loc 2 161 3 view .LVU115
 450              		.loc 2 161 30 is_stmt 0 view .LVU116
 451 0088 4FF0FF31 		mov	r1, #-1
 452 008c 5046     		mov	r0, r10
 453 008e FFF7FEFF 		bl	chGuardedPoolAllocTimeout
 454              	.LVL21:
 455 0092 0146     		mov	r1, r0
 456              	.LBE109:
 457              	.LBE114:
 458              	.LBB115:
 459              	.LBB112:
 460              		.loc 2 264 9 view .LVU117
 461 0094 0022     		movs	r2, #0
 462 0096 2846     		mov	r0, r5
 463              	.LVL22:
 464              		.loc 2 264 9 view .LVU118
 465              	.LBE112:
 466              	.LBE115:
 467              		.loc 1 134 7 is_stmt 1 view .LVU119
 468              		.loc 1 135 20 is_stmt 0 view .LVU120
 469 0098 4C60     		str	r4, [r1, #4]
 470              		.loc 1 132 19 view .LVU121
 471 009a 0134     		adds	r4, r4, #1
 472              	.LVL23:
 473              		.loc 1 134 20 view .LVU122
 474 009c 0E60     		str	r6, [r1]
 475              		.loc 1 135 7 is_stmt 1 view .LVU123
 476              		.loc 1 136 7 view .LVU124
 477              	.LVL24:
 478              	.LBB116:
 479              	.LBI110:
 480              		.loc 2 261 20 view .LVU125
 481              	.LBB113:
 482              		.loc 2 262 3 view .LVU126
 483              		.loc 2 264 3 view .LVU127
 484              		.loc 2 264 9 is_stmt 0 view .LVU128
 485 009e FFF7FEFF 		bl	chMBPostTimeout
 486              	.LVL25:
 487              		.loc 2 265 3 is_stmt 1 view .LVU129
 488              		.loc 2 265 3 view .LVU130
 489              		.loc 2 265 3 view .LVU131
 490              		.loc 2 265 3 is_stmt 0 view .LVU132
 491              	.LBE113:
 492              	.LBE116:
 493              		.loc 1 132 25 is_stmt 1 view .LVU133
 494              		.loc 1 132 19 view .LVU134
 495 00a2 692C     		cmp	r4, #105
 496 00a4 F0D1     		bne	.L13
 497              	.LBE122:
 498              		.loc 1 139 3 view .LVU135
 499              		.loc 1 139 19 view .LVU136
 500              		.loc 1 142 3 view .LVU137
 501 00a6 0423     		movs	r3, #4
 502              	.LBB123:
 503              		.loc 1 147 18 is_stmt 0 view .LVU138
ARM GAS  C:\Users\DEVELO~1\AppData\Local\Temp\ccTB0HEa.s 			page 10


 504 00a8 0024     		movs	r4, #0
 505              	.LBB124:
 506              	.LBB125:
 507              		.loc 2 161 30 view .LVU139
 508 00aa 4FF0FF31 		mov	r1, #-1
 509 00ae 1348     		ldr	r0, .L16+4
 510              	.LBE125:
 511              	.LBE124:
 512              	.LBE123:
 513              		.loc 1 142 3 view .LVU140
 514 00b0 3B60     		str	r3, [r7]
 515              	.LBB142:
 516              		.loc 1 144 5 is_stmt 1 view .LVU141
 517              		.loc 1 146 5 view .LVU142
 518              	.LVL26:
 519              	.LBB128:
 520              	.LBI124:
 521              		.loc 2 159 33 view .LVU143
 522              	.LBB126:
 523              		.loc 2 161 3 view .LVU144
 524              		.loc 2 161 30 is_stmt 0 view .LVU145
 525 00b2 FFF7FEFF 		bl	chGuardedPoolAllocTimeout
 526              	.LVL27:
 527              	.LBE126:
 528              	.LBE128:
 529              	.LBB129:
 530              	.LBB130:
 531              		.loc 2 264 9 view .LVU146
 532 00b6 2246     		mov	r2, r4
 533              	.LBE130:
 534              	.LBE129:
 535              	.LBB132:
 536              	.LBB127:
 537              		.loc 2 161 30 view .LVU147
 538 00b8 0146     		mov	r1, r0
 539              	.LVL28:
 540              		.loc 2 161 30 view .LVU148
 541              	.LBE127:
 542              	.LBE132:
 543              		.loc 1 147 5 is_stmt 1 view .LVU149
 544              		.loc 1 148 18 is_stmt 0 view .LVU150
 545 00ba C0E90044 		strd	r4, r4, [r0]
 546              		.loc 1 149 5 is_stmt 1 view .LVU151
 547              	.LVL29:
 548              	.LBB133:
 549              	.LBI129:
 550              		.loc 2 261 20 view .LVU152
 551              	.LBB131:
 552              		.loc 2 262 3 view .LVU153
 553              		.loc 2 264 3 view .LVU154
 554              		.loc 2 264 9 is_stmt 0 view .LVU155
 555 00be 1348     		ldr	r0, .L16+20
 556              	.LVL30:
 557              		.loc 2 264 9 view .LVU156
 558 00c0 FFF7FEFF 		bl	chMBPostTimeout
 559              	.LVL31:
 560              		.loc 2 265 3 is_stmt 1 view .LVU157
ARM GAS  C:\Users\DEVELO~1\AppData\Local\Temp\ccTB0HEa.s 			page 11


 561              		.loc 2 265 3 view .LVU158
 562              		.loc 2 265 3 view .LVU159
 563              		.loc 2 265 3 is_stmt 0 view .LVU160
 564              	.LBE131:
 565              	.LBE133:
 566              		.loc 1 150 5 is_stmt 1 view .LVU161
 567              	.LBB134:
 568              	.LBI134:
 569              		.loc 2 159 33 view .LVU162
 570              	.LBB135:
 571              		.loc 2 161 3 view .LVU163
 572              		.loc 2 161 30 is_stmt 0 view .LVU164
 573 00c4 4FF0FF31 		mov	r1, #-1
 574 00c8 0C48     		ldr	r0, .L16+4
 575 00ca FFF7FEFF 		bl	chGuardedPoolAllocTimeout
 576              	.LVL32:
 577              	.LBE135:
 578              	.LBE134:
 579              	.LBB137:
 580              	.LBB138:
 581              		.loc 2 264 9 view .LVU165
 582 00ce 2246     		mov	r2, r4
 583              	.LBE138:
 584              	.LBE137:
 585              	.LBB140:
 586              	.LBB136:
 587              		.loc 2 161 30 view .LVU166
 588 00d0 0146     		mov	r1, r0
 589              	.LVL33:
 590              		.loc 2 161 30 view .LVU167
 591              	.LBE136:
 592              	.LBE140:
 593              		.loc 1 151 5 is_stmt 1 view .LVU168
 594              		.loc 1 152 18 is_stmt 0 view .LVU169
 595 00d2 C0E90044 		strd	r4, r4, [r0]
 596              		.loc 1 153 5 is_stmt 1 view .LVU170
 597              	.LVL34:
 598              	.LBB141:
 599              	.LBI137:
 600              		.loc 2 261 20 view .LVU171
 601              	.LBB139:
 602              		.loc 2 262 3 view .LVU172
 603              		.loc 2 264 3 view .LVU173
 604              		.loc 2 264 9 is_stmt 0 view .LVU174
 605 00d6 0D48     		ldr	r0, .L16+20
 606              	.LVL35:
 607              		.loc 2 264 9 view .LVU175
 608 00d8 FFF7FEFF 		bl	chMBPostTimeout
 609              	.LVL36:
 610              		.loc 2 265 3 is_stmt 1 view .LVU176
 611              		.loc 2 265 3 view .LVU177
 612              		.loc 2 265 3 view .LVU178
 613              		.loc 2 265 3 is_stmt 0 view .LVU179
 614              	.LBE139:
 615              	.LBE141:
 616              		.loc 1 154 5 is_stmt 1 view .LVU180
 617              		.loc 1 154 12 is_stmt 0 view .LVU181
ARM GAS  C:\Users\DEVELO~1\AppData\Local\Temp\ccTB0HEa.s 			page 12


 618 00dc 4846     		mov	r0, r9
 619 00de FFF7FEFF 		bl	chThdWait
 620              	.LVL37:
 621              		.loc 1 155 5 is_stmt 1 view .LVU182
 622              		.loc 1 155 12 is_stmt 0 view .LVU183
 623 00e2 4046     		mov	r0, r8
 624 00e4 FFF7FEFF 		bl	chThdWait
 625              	.LVL38:
 626              		.loc 1 156 5 is_stmt 1 view .LVU184
 627 00e8 0F49     		ldr	r1, .L16+48
 628 00ea 1048     		ldr	r0, .L16+52
 629              	.LBE142:
 630              		.loc 1 159 1 is_stmt 0 view .LVU185
 631 00ec 0CB0     		add	sp, sp, #48
 632              		.cfi_def_cfa_offset 32
 633              		@ sp needed
 634 00ee BDE8F047 		pop	{r4, r5, r6, r7, r8, r9, r10, lr}
 635              		.cfi_restore 14
 636              		.cfi_restore 10
 637              		.cfi_restore 9
 638              		.cfi_restore 8
 639              		.cfi_restore 7
 640              		.cfi_restore 6
 641              		.cfi_restore 5
 642              		.cfi_restore 4
 643              		.cfi_def_cfa_offset 0
 644              	.LVL39:
 645              	.LBB143:
 646              		.loc 1 156 5 view .LVU186
 647 00f2 FFF7FEBF 		b	__test_assert_sequence
 648              	.LVL40:
 649              	.L17:
 650 00f6 00BF     		.align	2
 651              	.L16:
 652 00f8 00000000 		.word	chtest
 653 00fc 00000000 		.word	.LANCHOR0
 654 0100 00000000 		.word	ch0
 655 0104 00000000 		.word	.LANCHOR1
 656 0108 00000000 		.word	.LANCHOR2
 657 010c 1C000000 		.word	.LANCHOR0+28
 658 0110 00000000 		.word	.LANCHOR3
 659 0114 00000000 		.word	Thread1
 660 0118 00000000 		.word	.LC0
 661 011c 00000000 		.word	job_slow
 662 0120 00000000 		.word	.LANCHOR4
 663 0124 0C000000 		.word	.LC1
 664 0128 18000000 		.word	.LC2
 665 012c 2C000000 		.word	.LC3
 666              	.LBE143:
 667              		.cfi_endproc
 668              	.LFE438:
 669              		.size	oslib_test_004_001_execute, .-oslib_test_004_001_execute
 670              		.global	oslib_test_sequence_004
 671              		.section	.rodata.str1.4,"aMS",%progbits,1
 672              		.align	2
 673              	.LC4:
 674 0000 4A6F6273 		.ascii	"Jobs Queues\000"
ARM GAS  C:\Users\DEVELO~1\AppData\Local\Temp\ccTB0HEa.s 			page 13


 674      20517565 
 674      75657300 
 675              		.global	oslib_test_sequence_004_array
 676              		.align	2
 677              	.LC5:
 678 000c 44697370 		.ascii	"Dispatcher test\000"
 678      61746368 
 678      65722074 
 678      65737400 
 679              		.section	.bss.jobs,"aw",%nobits
 680              		.align	2
 681              		.set	.LANCHOR1,. + 0
 682              		.type	jobs, %object
 683              		.size	jobs, 32
 684              	jobs:
 685 0000 00000000 		.space	32
 685      00000000 
 685      00000000 
 685      00000000 
 685      00000000 
 686              		.section	.bss.jq,"aw",%nobits
 687              		.align	2
 688              		.set	.LANCHOR0,. + 0
 689              		.type	jq, %object
 690              		.size	jq, 68
 691              	jq:
 692 0000 00000000 		.space	68
 692      00000000 
 692      00000000 
 692      00000000 
 692      00000000 
 693              		.section	.bss.msg_queue,"aw",%nobits
 694              		.align	2
 695              		.set	.LANCHOR2,. + 0
 696              		.type	msg_queue, %object
 697              		.size	msg_queue, 16
 698              	msg_queue:
 699 0000 00000000 		.space	16
 699      00000000 
 699      00000000 
 699      00000000 
 700              		.section	.bss.wa1Thread1,"aw",%nobits
 701              		.align	3
 702              		.set	.LANCHOR3,. + 0
 703              		.type	wa1Thread1, %object
 704              		.size	wa1Thread1, 496
 705              	wa1Thread1:
 706 0000 00000000 		.space	496
 706      00000000 
 706      00000000 
 706      00000000 
 706      00000000 
 707              		.section	.bss.wa2Thread1,"aw",%nobits
 708              		.align	3
 709              		.set	.LANCHOR4,. + 0
 710              		.type	wa2Thread1, %object
 711              		.size	wa2Thread1, 496
ARM GAS  C:\Users\DEVELO~1\AppData\Local\Temp\ccTB0HEa.s 			page 14


 712              	wa2Thread1:
 713 0000 00000000 		.space	496
 713      00000000 
 713      00000000 
 713      00000000 
 713      00000000 
 714              		.section	.rodata.oslib_test_004_001,"a"
 715              		.align	2
 716              		.type	oslib_test_004_001, %object
 717              		.size	oslib_test_004_001, 16
 718              	oslib_test_004_001:
 719 0000 0C000000 		.word	.LC5
 720 0004 00000000 		.word	0
 721 0008 00000000 		.word	0
 722 000c 00000000 		.word	oslib_test_004_001_execute
 723              		.section	.rodata.oslib_test_sequence_004,"a"
 724              		.align	2
 725              		.type	oslib_test_sequence_004, %object
 726              		.size	oslib_test_sequence_004, 8
 727              	oslib_test_sequence_004:
 728 0000 00000000 		.word	.LC4
 729 0004 00000000 		.word	oslib_test_sequence_004_array
 730              		.section	.rodata.oslib_test_sequence_004_array,"a"
 731              		.align	2
 732              		.type	oslib_test_sequence_004_array, %object
 733              		.size	oslib_test_sequence_004_array, 8
 734              	oslib_test_sequence_004_array:
 735 0000 00000000 		.word	oslib_test_004_001
 736 0004 00000000 		.word	0
 737              		.text
 738              	.Letext0:
 739              		.file 5 "c:\\chibistudio\\tools\\gnu tools arm embedded\\11.3 2022.08\\lib\\gcc\\arm-none-eabi\\11
 740              		.file 6 "c:\\chibistudio\\tools\\gnu tools arm embedded\\11.3 2022.08\\arm-none-eabi\\include\\mac
 741              		.file 7 "c:\\chibistudio\\tools\\gnu tools arm embedded\\11.3 2022.08\\arm-none-eabi\\include\\sys
 742              		.file 8 "../../../os/common/ports/ARM-common/chtypes.h"
 743              		.file 9 "../../../os/rt/include/chearly.h"
 744              		.file 10 "../../../os/rt/include/chobjects.h"
 745              		.file 11 "../../../os/rt/include/chrfcu.h"
 746              		.file 12 "../../../os/rt/include/chdebug.h"
 747              		.file 13 "../../../os/rt/include/chtime.h"
 748              		.file 14 "../../../os/rt/include/chlists.h"
 749              		.file 15 "../../../os/rt/include/chtrace.h"
 750              		.file 16 "../../../os/common/ports/ARMv7-M/chcore.h"
 751              		.file 17 "../../../os/rt/include/chsem.h"
 752              		.file 18 "../../../os/rt/include/chmtx.h"
 753              		.file 19 "../../../os/oslib/include/chmboxes.h"
 754              		.file 20 "../../../os/oslib/include/chmemcore.h"
 755              		.file 21 "../../../os/hal/include/hal_streams.h"
 756              		.file 22 "../../../os/test/include/ch_test.h"
 757              		.file 23 "../../../test/oslib/source/test/oslib_test_sequence_004.h"
 758              		.file 24 "../../../os/rt/include/chsys.h"