ARM GAS  C:\Users\DEVELO~1\AppData\Local\Temp\ccA2COIw.s 			page 1


   1              		.cpu cortex-m7
   2              		.arch armv7e-m
   3              		.fpu softvfp
   4              		.eabi_attribute 20, 1
   5              		.eabi_attribute 21, 1
   6              		.eabi_attribute 23, 3
   7              		.eabi_attribute 24, 1
   8              		.eabi_attribute 25, 1
   9              		.eabi_attribute 26, 1
  10              		.eabi_attribute 30, 2
  11              		.eabi_attribute 34, 1
  12              		.eabi_attribute 18, 4
  13              		.file	"oslib_test_sequence_009.c"
  14              		.text
  15              	.Ltext0:
  16              		.cfi_sections	.debug_frame
  17              		.section	.rodata.oslib_test_009_006_teardown.str1.4,"aMS",%progbits,1
  18              		.align	2
  19              	.LC0:
  20 0000 6D797069 		.ascii	"mypipe\000"
  20      706500
  21              		.section	.text.oslib_test_009_006_teardown,"ax",%progbits
  22              		.align	1
  23              		.p2align 4,,15
  24              		.syntax unified
  25              		.thumb
  26              		.thumb_func
  27              		.type	oslib_test_009_006_teardown, %function
  28              	oslib_test_009_006_teardown:
  29              	.LFB446:
  30              		.file 1 "../../../test/oslib/source/test/oslib_test_sequence_009.c"
  31              		.loc 1 689 47 view -0
  32              		.cfi_startproc
  33              		@ args = 0, pretend = 0, frame = 0
  34              		@ frame_needed = 0, uses_anonymous_args = 0
  35              		.loc 1 690 3 view .LVU1
  36              		.loc 1 692 3 view .LVU2
  37              		.loc 1 689 47 is_stmt 0 view .LVU3
  38 0000 10B5     		push	{r4, lr}
  39              		.cfi_def_cfa_offset 8
  40              		.cfi_offset 4, -8
  41              		.cfi_offset 14, -4
  42              		.loc 1 692 9 view .LVU4
  43 0002 0748     		ldr	r0, .L13
  44 0004 FFF7FEFF 		bl	chFactoryFindPipe
  45              	.LVL0:
  46              		.loc 1 693 3 is_stmt 1 view .LVU5
  47              		.loc 1 693 6 is_stmt 0 view .LVU6
  48 0008 40B1     		cbz	r0, .L1
  49              		.loc 1 694 30 is_stmt 1 view .LVU7
  50 000a 4368     		ldr	r3, [r0, #4]
  51 000c 0446     		mov	r4, r0
  52 000e 2BB1     		cbz	r3, .L1
  53              	.LVL1:
  54              	.L3:
  55              		.loc 1 695 7 view .LVU8
  56 0010 2046     		mov	r0, r4
ARM GAS  C:\Users\DEVELO~1\AppData\Local\Temp\ccA2COIw.s 			page 2


  57 0012 FFF7FEFF 		bl	chFactoryReleasePipe
  58              	.LVL2:
  59              		.loc 1 694 30 view .LVU9
  60 0016 6368     		ldr	r3, [r4, #4]
  61 0018 002B     		cmp	r3, #0
  62 001a F9D1     		bne	.L3
  63              	.LVL3:
  64              	.L1:
  65              		.loc 1 698 1 is_stmt 0 view .LVU10
  66 001c 10BD     		pop	{r4, pc}
  67              	.L14:
  68 001e 00BF     		.align	2
  69              	.L13:
  70 0020 00000000 		.word	.LC0
  71              		.cfi_endproc
  72              	.LFE446:
  73              		.size	oslib_test_009_006_teardown, .-oslib_test_009_006_teardown
  74              		.section	.rodata.oslib_test_009_005_teardown.str1.4,"aMS",%progbits,1
  75              		.align	2
  76              	.LC1:
  77 0000 6D796669 		.ascii	"myfifo\000"
  77      666F00
  78              		.section	.text.oslib_test_009_005_teardown,"ax",%progbits
  79              		.align	1
  80              		.p2align 4,,15
  81              		.syntax unified
  82              		.thumb
  83              		.thumb_func
  84              		.type	oslib_test_009_005_teardown, %function
  85              	oslib_test_009_005_teardown:
  86              	.LFB444:
  87              		.loc 1 570 47 is_stmt 1 view -0
  88              		.cfi_startproc
  89              		@ args = 0, pretend = 0, frame = 0
  90              		@ frame_needed = 0, uses_anonymous_args = 0
  91              		.loc 1 571 3 view .LVU12
  92              		.loc 1 573 3 view .LVU13
  93              		.loc 1 570 47 is_stmt 0 view .LVU14
  94 0000 10B5     		push	{r4, lr}
  95              		.cfi_def_cfa_offset 8
  96              		.cfi_offset 4, -8
  97              		.cfi_offset 14, -4
  98              		.loc 1 573 10 view .LVU15
  99 0002 0748     		ldr	r0, .L26
 100 0004 FFF7FEFF 		bl	chFactoryFindObjectsFIFO
 101              	.LVL4:
 102              		.loc 1 574 3 is_stmt 1 view .LVU16
 103              		.loc 1 574 6 is_stmt 0 view .LVU17
 104 0008 40B1     		cbz	r0, .L15
 105              		.loc 1 575 31 is_stmt 1 view .LVU18
 106 000a 4368     		ldr	r3, [r0, #4]
 107 000c 0446     		mov	r4, r0
 108 000e 2BB1     		cbz	r3, .L15
 109              	.LVL5:
 110              	.L17:
 111              		.loc 1 576 7 view .LVU19
 112 0010 2046     		mov	r0, r4
ARM GAS  C:\Users\DEVELO~1\AppData\Local\Temp\ccA2COIw.s 			page 3


 113 0012 FFF7FEFF 		bl	chFactoryReleaseObjectsFIFO
 114              	.LVL6:
 115              		.loc 1 575 31 view .LVU20
 116 0016 6368     		ldr	r3, [r4, #4]
 117 0018 002B     		cmp	r3, #0
 118 001a F9D1     		bne	.L17
 119              	.LVL7:
 120              	.L15:
 121              		.loc 1 579 1 is_stmt 0 view .LVU21
 122 001c 10BD     		pop	{r4, pc}
 123              	.L27:
 124 001e 00BF     		.align	2
 125              	.L26:
 126 0020 00000000 		.word	.LC1
 127              		.cfi_endproc
 128              	.LFE444:
 129              		.size	oslib_test_009_005_teardown, .-oslib_test_009_005_teardown
 130              		.section	.rodata.oslib_test_009_004_teardown.str1.4,"aMS",%progbits,1
 131              		.align	2
 132              	.LC2:
 133 0000 6D796D62 		.ascii	"mymbx\000"
 133      7800
 134              		.section	.text.oslib_test_009_004_teardown,"ax",%progbits
 135              		.align	1
 136              		.p2align 4,,15
 137              		.syntax unified
 138              		.thumb
 139              		.thumb_func
 140              		.type	oslib_test_009_004_teardown, %function
 141              	oslib_test_009_004_teardown:
 142              	.LFB442:
 143              		.loc 1 449 47 is_stmt 1 view -0
 144              		.cfi_startproc
 145              		@ args = 0, pretend = 0, frame = 0
 146              		@ frame_needed = 0, uses_anonymous_args = 0
 147              		.loc 1 450 3 view .LVU23
 148              		.loc 1 452 3 view .LVU24
 149              		.loc 1 449 47 is_stmt 0 view .LVU25
 150 0000 10B5     		push	{r4, lr}
 151              		.cfi_def_cfa_offset 8
 152              		.cfi_offset 4, -8
 153              		.cfi_offset 14, -4
 154              		.loc 1 452 9 view .LVU26
 155 0002 0748     		ldr	r0, .L39
 156 0004 FFF7FEFF 		bl	chFactoryFindMailbox
 157              	.LVL8:
 158              		.loc 1 453 3 is_stmt 1 view .LVU27
 159              		.loc 1 453 6 is_stmt 0 view .LVU28
 160 0008 40B1     		cbz	r0, .L28
 161              		.loc 1 454 30 is_stmt 1 view .LVU29
 162 000a 4368     		ldr	r3, [r0, #4]
 163 000c 0446     		mov	r4, r0
 164 000e 2BB1     		cbz	r3, .L28
 165              	.LVL9:
 166              	.L30:
 167              		.loc 1 455 7 view .LVU30
 168 0010 2046     		mov	r0, r4
ARM GAS  C:\Users\DEVELO~1\AppData\Local\Temp\ccA2COIw.s 			page 4


 169 0012 FFF7FEFF 		bl	chFactoryReleaseMailbox
 170              	.LVL10:
 171              		.loc 1 454 30 view .LVU31
 172 0016 6368     		ldr	r3, [r4, #4]
 173 0018 002B     		cmp	r3, #0
 174 001a F9D1     		bne	.L30
 175              	.LVL11:
 176              	.L28:
 177              		.loc 1 458 1 is_stmt 0 view .LVU32
 178 001c 10BD     		pop	{r4, pc}
 179              	.L40:
 180 001e 00BF     		.align	2
 181              	.L39:
 182 0020 00000000 		.word	.LC2
 183              		.cfi_endproc
 184              	.LFE442:
 185              		.size	oslib_test_009_004_teardown, .-oslib_test_009_004_teardown
 186              		.section	.rodata.oslib_test_009_003_teardown.str1.4,"aMS",%progbits,1
 187              		.align	2
 188              	.LC3:
 189 0000 6D797365 		.ascii	"mysem\000"
 189      6D00
 190              		.section	.text.oslib_test_009_003_teardown,"ax",%progbits
 191              		.align	1
 192              		.p2align 4,,15
 193              		.syntax unified
 194              		.thumb
 195              		.thumb_func
 196              		.type	oslib_test_009_003_teardown, %function
 197              	oslib_test_009_003_teardown:
 198              	.LFB440:
 199              		.loc 1 329 47 is_stmt 1 view -0
 200              		.cfi_startproc
 201              		@ args = 0, pretend = 0, frame = 0
 202              		@ frame_needed = 0, uses_anonymous_args = 0
 203              		.loc 1 330 3 view .LVU34
 204              		.loc 1 332 3 view .LVU35
 205              		.loc 1 329 47 is_stmt 0 view .LVU36
 206 0000 10B5     		push	{r4, lr}
 207              		.cfi_def_cfa_offset 8
 208              		.cfi_offset 4, -8
 209              		.cfi_offset 14, -4
 210              		.loc 1 332 9 view .LVU37
 211 0002 0748     		ldr	r0, .L52
 212 0004 FFF7FEFF 		bl	chFactoryFindSemaphore
 213              	.LVL12:
 214              		.loc 1 333 3 is_stmt 1 view .LVU38
 215              		.loc 1 333 6 is_stmt 0 view .LVU39
 216 0008 40B1     		cbz	r0, .L41
 217              		.loc 1 334 30 is_stmt 1 view .LVU40
 218 000a 4368     		ldr	r3, [r0, #4]
 219 000c 0446     		mov	r4, r0
 220 000e 2BB1     		cbz	r3, .L41
 221              	.LVL13:
 222              	.L43:
 223              		.loc 1 335 7 view .LVU41
 224 0010 2046     		mov	r0, r4
ARM GAS  C:\Users\DEVELO~1\AppData\Local\Temp\ccA2COIw.s 			page 5


 225 0012 FFF7FEFF 		bl	chFactoryReleaseSemaphore
 226              	.LVL14:
 227              		.loc 1 334 30 view .LVU42
 228 0016 6368     		ldr	r3, [r4, #4]
 229 0018 002B     		cmp	r3, #0
 230 001a F9D1     		bne	.L43
 231              	.LVL15:
 232              	.L41:
 233              		.loc 1 338 1 is_stmt 0 view .LVU43
 234 001c 10BD     		pop	{r4, pc}
 235              	.L53:
 236 001e 00BF     		.align	2
 237              	.L52:
 238 0020 00000000 		.word	.LC3
 239              		.cfi_endproc
 240              	.LFE440:
 241              		.size	oslib_test_009_003_teardown, .-oslib_test_009_003_teardown
 242              		.section	.rodata.oslib_test_009_002_teardown.str1.4,"aMS",%progbits,1
 243              		.align	2
 244              	.LC4:
 245 0000 6D796275 		.ascii	"mybuf\000"
 245      6600
 246              		.section	.text.oslib_test_009_002_teardown,"ax",%progbits
 247              		.align	1
 248              		.p2align 4,,15
 249              		.syntax unified
 250              		.thumb
 251              		.thumb_func
 252              		.type	oslib_test_009_002_teardown, %function
 253              	oslib_test_009_002_teardown:
 254              	.LFB438:
 255              		.loc 1 209 47 is_stmt 1 view -0
 256              		.cfi_startproc
 257              		@ args = 0, pretend = 0, frame = 0
 258              		@ frame_needed = 0, uses_anonymous_args = 0
 259              		.loc 1 210 3 view .LVU45
 260              		.loc 1 212 3 view .LVU46
 261              		.loc 1 209 47 is_stmt 0 view .LVU47
 262 0000 10B5     		push	{r4, lr}
 263              		.cfi_def_cfa_offset 8
 264              		.cfi_offset 4, -8
 265              		.cfi_offset 14, -4
 266              		.loc 1 212 9 view .LVU48
 267 0002 0748     		ldr	r0, .L65
 268 0004 FFF7FEFF 		bl	chFactoryFindBuffer
 269              	.LVL16:
 270              		.loc 1 213 3 is_stmt 1 view .LVU49
 271              		.loc 1 213 6 is_stmt 0 view .LVU50
 272 0008 40B1     		cbz	r0, .L54
 273              		.loc 1 214 30 is_stmt 1 view .LVU51
 274 000a 4368     		ldr	r3, [r0, #4]
 275 000c 0446     		mov	r4, r0
 276 000e 2BB1     		cbz	r3, .L54
 277              	.LVL17:
 278              	.L56:
 279              		.loc 1 215 7 view .LVU52
 280 0010 2046     		mov	r0, r4
ARM GAS  C:\Users\DEVELO~1\AppData\Local\Temp\ccA2COIw.s 			page 6


 281 0012 FFF7FEFF 		bl	chFactoryReleaseBuffer
 282              	.LVL18:
 283              		.loc 1 214 30 view .LVU53
 284 0016 6368     		ldr	r3, [r4, #4]
 285 0018 002B     		cmp	r3, #0
 286 001a F9D1     		bne	.L56
 287              	.LVL19:
 288              	.L54:
 289              		.loc 1 218 1 is_stmt 0 view .LVU54
 290 001c 10BD     		pop	{r4, pc}
 291              	.L66:
 292 001e 00BF     		.align	2
 293              	.L65:
 294 0020 00000000 		.word	.LC4
 295              		.cfi_endproc
 296              	.LFE438:
 297              		.size	oslib_test_009_002_teardown, .-oslib_test_009_002_teardown
 298              		.section	.rodata.oslib_test_009_001_teardown.str1.4,"aMS",%progbits,1
 299              		.align	2
 300              	.LC5:
 301 0000 6D796F62 		.ascii	"myobj\000"
 301      6A00
 302              		.section	.text.oslib_test_009_001_teardown,"ax",%progbits
 303              		.align	1
 304              		.p2align 4,,15
 305              		.syntax unified
 306              		.thumb
 307              		.thumb_func
 308              		.type	oslib_test_009_001_teardown, %function
 309              	oslib_test_009_001_teardown:
 310              	.LFB436:
 311              		.loc 1 86 47 is_stmt 1 view -0
 312              		.cfi_startproc
 313              		@ args = 0, pretend = 0, frame = 0
 314              		@ frame_needed = 0, uses_anonymous_args = 0
 315              		.loc 1 87 3 view .LVU56
 316              		.loc 1 89 3 view .LVU57
 317              		.loc 1 86 47 is_stmt 0 view .LVU58
 318 0000 10B5     		push	{r4, lr}
 319              		.cfi_def_cfa_offset 8
 320              		.cfi_offset 4, -8
 321              		.cfi_offset 14, -4
 322              		.loc 1 89 9 view .LVU59
 323 0002 0748     		ldr	r0, .L78
 324 0004 FFF7FEFF 		bl	chFactoryFindObject
 325              	.LVL20:
 326              		.loc 1 90 3 is_stmt 1 view .LVU60
 327              		.loc 1 90 6 is_stmt 0 view .LVU61
 328 0008 40B1     		cbz	r0, .L67
 329              		.loc 1 91 30 is_stmt 1 view .LVU62
 330 000a 4368     		ldr	r3, [r0, #4]
 331 000c 0446     		mov	r4, r0
 332 000e 2BB1     		cbz	r3, .L67
 333              	.LVL21:
 334              	.L69:
 335              		.loc 1 92 7 view .LVU63
 336 0010 2046     		mov	r0, r4
ARM GAS  C:\Users\DEVELO~1\AppData\Local\Temp\ccA2COIw.s 			page 7


 337 0012 FFF7FEFF 		bl	chFactoryReleaseObject
 338              	.LVL22:
 339              		.loc 1 91 30 view .LVU64
 340 0016 6368     		ldr	r3, [r4, #4]
 341 0018 002B     		cmp	r3, #0
 342 001a F9D1     		bne	.L69
 343              	.LVL23:
 344              	.L67:
 345              		.loc 1 95 1 is_stmt 0 view .LVU65
 346 001c 10BD     		pop	{r4, pc}
 347              	.L79:
 348 001e 00BF     		.align	2
 349              	.L78:
 350 0020 00000000 		.word	.LC5
 351              		.cfi_endproc
 352              	.LFE436:
 353              		.size	oslib_test_009_001_teardown, .-oslib_test_009_001_teardown
 354              		.section	.rodata.oslib_test_009_006_execute.str1.4,"aMS",%progbits,1
 355              		.align	2
 356              	.LC6:
 357 0000 666F756E 		.ascii	"found\000"
 357      6400
 358 0006 0000     		.align	2
 359              	.LC7:
 360 0008 63616E6E 		.ascii	"cannot create\000"
 360      6F742063 
 360      72656174 
 360      6500
 361 0016 0000     		.align	2
 362              	.LC8:
 363 0018 63616E20 		.ascii	"can create\000"
 363      63726561 
 363      746500
 364 0023 00       		.align	2
 365              	.LC9:
 366 0024 6E6F7420 		.ascii	"not found\000"
 366      666F756E 
 366      6400
 367 002e 0000     		.align	2
 368              	.LC10:
 369 0030 6F626A65 		.ascii	"object reference mismatch\000"
 369      63742072 
 369      65666572 
 369      656E6365 
 369      206D6973 
 370 004a 0000     		.align	2
 371              	.LC11:
 372 004c 72656665 		.ascii	"references mismatch\000"
 372      72656E63 
 372      6573206D 
 372      69736D61 
 372      74636800 
 373              		.section	.text.oslib_test_009_006_execute,"ax",%progbits
 374              		.align	1
 375              		.p2align 4,,15
 376              		.syntax unified
 377              		.thumb
ARM GAS  C:\Users\DEVELO~1\AppData\Local\Temp\ccA2COIw.s 			page 8


 378              		.thumb_func
 379              		.type	oslib_test_009_006_execute, %function
 380              	oslib_test_009_006_execute:
 381              	.LFB447:
 382              		.loc 1 700 46 is_stmt 1 view -0
 383              		.cfi_startproc
 384              		@ args = 0, pretend = 0, frame = 0
 385              		@ frame_needed = 0, uses_anonymous_args = 0
 386              		.loc 1 701 3 view .LVU67
 387              		.loc 1 704 3 view .LVU68
 388              		.loc 1 700 46 is_stmt 0 view .LVU69
 389 0000 F8B5     		push	{r3, r4, r5, r6, r7, lr}
 390              		.cfi_def_cfa_offset 24
 391              		.cfi_offset 3, -24
 392              		.cfi_offset 4, -20
 393              		.cfi_offset 5, -16
 394              		.cfi_offset 6, -12
 395              		.cfi_offset 7, -8
 396              		.cfi_offset 14, -4
 397              		.loc 1 704 3 view .LVU70
 398 0002 474C     		ldr	r4, .L86
 399 0004 0125     		movs	r5, #1
 400              		.loc 1 706 11 view .LVU71
 401 0006 4748     		ldr	r0, .L86+4
 402              		.loc 1 704 3 view .LVU72
 403 0008 2560     		str	r5, [r4]
 404              		.loc 1 706 5 is_stmt 1 view .LVU73
 405              		.loc 1 706 11 is_stmt 0 view .LVU74
 406 000a FFF7FEFF 		bl	chFactoryFindPipe
 407              	.LVL24:
 408              		.loc 1 707 5 is_stmt 1 view .LVU75
 409 000e B0FA80F0 		clz	r0, r0
 410              	.LVL25:
 411              		.loc 1 707 5 is_stmt 0 view .LVU76
 412 0012 4549     		ldr	r1, .L86+8
 413 0014 4009     		lsrs	r0, r0, #5
 414 0016 FFF7FEFF 		bl	__test_assert
 415              	.LVL26:
 416 001a 00B1     		cbz	r0, .L85
 417              	.L80:
 418              		.loc 1 770 1 view .LVU77
 419 001c F8BD     		pop	{r3, r4, r5, r6, r7, pc}
 420              	.L85:
 421              	.LBB58:
 422              	.LBI58:
 423              		.loc 1 700 13 is_stmt 1 view .LVU78
 424              	.LBB59:
 425              		.loc 1 707 38 view .LVU79
 426              		.loc 1 709 3 view .LVU80
 427              		.loc 1 709 19 view .LVU81
 428              		.loc 1 713 3 view .LVU82
 429 001e 0223     		movs	r3, #2
 430              		.loc 1 715 11 is_stmt 0 view .LVU83
 431 0020 1021     		movs	r1, #16
 432 0022 4048     		ldr	r0, .L86+4
 433              		.loc 1 713 3 view .LVU84
 434 0024 2360     		str	r3, [r4]
ARM GAS  C:\Users\DEVELO~1\AppData\Local\Temp\ccA2COIw.s 			page 9


 435              		.loc 1 715 5 is_stmt 1 view .LVU85
 436              		.loc 1 715 11 is_stmt 0 view .LVU86
 437 0026 FFF7FEFF 		bl	chFactoryCreatePipe
 438              	.LVL27:
 439 002a 0646     		mov	r6, r0
 440              	.LVL28:
 441              		.loc 1 716 5 is_stmt 1 view .LVU87
 442 002c 0038     		subs	r0, r0, #0
 443              	.LVL29:
 444              		.loc 1 716 5 is_stmt 0 view .LVU88
 445 002e 3F49     		ldr	r1, .L86+12
 446 0030 18BF     		it	ne
 447 0032 0120     		movne	r0, #1
 448 0034 FFF7FEFF 		bl	__test_assert
 449              	.LVL30:
 450 0038 0028     		cmp	r0, #0
 451 003a EFD1     		bne	.L80
 452              		.loc 1 716 46 is_stmt 1 view .LVU89
 453              		.loc 1 718 3 view .LVU90
 454              		.loc 1 718 19 view .LVU91
 455              		.loc 1 721 3 view .LVU92
 456 003c 0323     		movs	r3, #3
 457              	.LBB60:
 458              		.loc 1 725 12 is_stmt 0 view .LVU93
 459 003e 1021     		movs	r1, #16
 460 0040 3848     		ldr	r0, .L86+4
 461              	.LBE60:
 462              		.loc 1 721 3 view .LVU94
 463 0042 2360     		str	r3, [r4]
 464              	.LBB61:
 465              		.loc 1 723 5 is_stmt 1 view .LVU95
 466              		.loc 1 725 5 view .LVU96
 467              		.loc 1 725 12 is_stmt 0 view .LVU97
 468 0044 FFF7FEFF 		bl	chFactoryCreatePipe
 469              	.LVL31:
 470              		.loc 1 726 5 is_stmt 1 view .LVU98
 471 0048 B0FA80F0 		clz	r0, r0
 472              	.LVL32:
 473              		.loc 1 726 5 is_stmt 0 view .LVU99
 474 004c 3849     		ldr	r1, .L86+16
 475 004e 4009     		lsrs	r0, r0, #5
 476 0050 FFF7FEFF 		bl	__test_assert
 477              	.LVL33:
 478 0054 0028     		cmp	r0, #0
 479 0056 E1D1     		bne	.L80
 480              		.loc 1 726 44 is_stmt 1 view .LVU100
 481              	.LBE61:
 482              		.loc 1 728 3 view .LVU101
 483              		.loc 1 728 19 view .LVU102
 484              		.loc 1 733 3 view .LVU103
 485 0058 0423     		movs	r3, #4
 486              	.LBB62:
 487              		.loc 1 737 12 is_stmt 0 view .LVU104
 488 005a 3248     		ldr	r0, .L86+4
 489              	.LBE62:
 490              		.loc 1 733 3 view .LVU105
 491 005c 2360     		str	r3, [r4]
ARM GAS  C:\Users\DEVELO~1\AppData\Local\Temp\ccA2COIw.s 			page 10


 492              	.LBB67:
 493              		.loc 1 735 5 is_stmt 1 view .LVU106
 494              		.loc 1 737 5 view .LVU107
 495              		.loc 1 737 12 is_stmt 0 view .LVU108
 496 005e FFF7FEFF 		bl	chFactoryFindPipe
 497              	.LVL34:
 498 0062 0746     		mov	r7, r0
 499              	.LVL35:
 500              		.loc 1 738 5 is_stmt 1 view .LVU109
 501 0064 0038     		subs	r0, r0, #0
 502              	.LVL36:
 503              		.loc 1 738 5 is_stmt 0 view .LVU110
 504 0066 3349     		ldr	r1, .L86+20
 505 0068 18BF     		it	ne
 506 006a 0120     		movne	r0, #1
 507 006c FFF7FEFF 		bl	__test_assert
 508              	.LVL37:
 509 0070 0028     		cmp	r0, #0
 510 0072 D3D1     		bne	.L80
 511              		.loc 1 738 43 is_stmt 1 view .LVU111
 512              		.loc 1 739 5 view .LVU112
 513 0074 F01B     		subs	r0, r6, r7
 514 0076 3049     		ldr	r1, .L86+24
 515 0078 B0FA80F0 		clz	r0, r0
 516 007c 4009     		lsrs	r0, r0, #5
 517 007e FFF7FEFF 		bl	__test_assert
 518              	.LVL38:
 519 0082 0028     		cmp	r0, #0
 520 0084 CAD1     		bne	.L80
 521              		.loc 1 739 58 view .LVU113
 522              		.loc 1 740 5 view .LVU114
 523 0086 7868     		ldr	r0, [r7, #4]
 524 0088 2B49     		ldr	r1, .L86+24
 525 008a A0F10200 		sub	r0, #2
 526 008e B0FA80F0 		clz	r0, r0
 527 0092 4009     		lsrs	r0, r0, #5
 528 0094 FFF7FEFF 		bl	__test_assert
 529              	.LVL39:
 530 0098 0028     		cmp	r0, #0
 531 009a BFD1     		bne	.L80
 532              		.loc 1 740 70 view .LVU115
 533              		.loc 1 742 5 view .LVU116
 534              	.LVL40:
 535              	.LBB63:
 536              	.LBI63:
 537              		.file 2 "../../../os/oslib/include/chfactory.h"
 538              		.loc 2 409 30 view .LVU117
 539              	.LBB64:
 540              		.loc 2 411 3 view .LVU118
 541              		.loc 2 411 12 is_stmt 0 view .LVU119
 542 009c 7B68     		ldr	r3, [r7, #4]
 543              	.LBE64:
 544              	.LBE63:
 545              		.loc 1 743 5 view .LVU120
 546 009e 2846     		mov	r0, r5
 547 00a0 2549     		ldr	r1, .L86+24
 548              	.LBB66:
ARM GAS  C:\Users\DEVELO~1\AppData\Local\Temp\ccA2COIw.s 			page 11


 549              	.LBB65:
 550              		.loc 2 411 12 view .LVU121
 551 00a2 2B44     		add	r3, r3, r5
 552 00a4 7B60     		str	r3, [r7, #4]
 553              		.loc 2 413 3 is_stmt 1 view .LVU122
 554              	.LVL41:
 555              		.loc 2 413 3 is_stmt 0 view .LVU123
 556              	.LBE65:
 557              	.LBE66:
 558              		.loc 1 743 5 is_stmt 1 view .LVU124
 559 00a6 FFF7FEFF 		bl	__test_assert
 560              	.LVL42:
 561 00aa 0028     		cmp	r0, #0
 562 00ac B6D1     		bne	.L80
 563              		.loc 1 743 59 view .LVU125
 564              		.loc 1 744 5 view .LVU126
 565 00ae 7868     		ldr	r0, [r7, #4]
 566 00b0 2149     		ldr	r1, .L86+24
 567 00b2 A0F10300 		sub	r0, #3
 568 00b6 B0FA80F0 		clz	r0, r0
 569 00ba 4009     		lsrs	r0, r0, #5
 570 00bc FFF7FEFF 		bl	__test_assert
 571              	.LVL43:
 572 00c0 0028     		cmp	r0, #0
 573 00c2 ABD1     		bne	.L80
 574              		.loc 1 744 70 view .LVU127
 575              		.loc 1 746 5 view .LVU128
 576 00c4 3846     		mov	r0, r7
 577 00c6 FFF7FEFF 		bl	chFactoryReleasePipe
 578              	.LVL44:
 579              		.loc 1 747 5 view .LVU129
 580 00ca 7868     		ldr	r0, [r7, #4]
 581 00cc 1B49     		ldr	r1, .L86+28
 582 00ce A0F10200 		sub	r0, #2
 583 00d2 B0FA80F0 		clz	r0, r0
 584 00d6 4009     		lsrs	r0, r0, #5
 585 00d8 FFF7FEFF 		bl	__test_assert
 586              	.LVL45:
 587 00dc 0028     		cmp	r0, #0
 588 00de 9DD1     		bne	.L80
 589              		.loc 1 747 64 view .LVU130
 590              		.loc 1 749 5 view .LVU131
 591 00e0 3846     		mov	r0, r7
 592 00e2 FFF7FEFF 		bl	chFactoryReleasePipe
 593              	.LVL46:
 594              		.loc 1 750 5 view .LVU132
 595 00e6 7068     		ldr	r0, [r6, #4]
 596 00e8 1449     		ldr	r1, .L86+28
 597 00ea 401B     		subs	r0, r0, r5
 598 00ec B0FA80F0 		clz	r0, r0
 599 00f0 4009     		lsrs	r0, r0, #5
 600 00f2 FFF7FEFF 		bl	__test_assert
 601              	.LVL47:
 602 00f6 0028     		cmp	r0, #0
 603 00f8 90D1     		bne	.L80
 604              		.loc 1 750 63 view .LVU133
 605              	.LBE67:
ARM GAS  C:\Users\DEVELO~1\AppData\Local\Temp\ccA2COIw.s 			page 12


 606              		.loc 1 752 3 view .LVU134
 607              		.loc 1 752 19 view .LVU135
 608              		.loc 1 756 3 view .LVU136
 609 00fa 0523     		movs	r3, #5
 610              		.loc 1 758 5 is_stmt 0 view .LVU137
 611 00fc 3046     		mov	r0, r6
 612              		.loc 1 756 3 view .LVU138
 613 00fe 2360     		str	r3, [r4]
 614              		.loc 1 758 5 is_stmt 1 view .LVU139
 615 0100 FFF7FEFF 		bl	chFactoryReleasePipe
 616              	.LVL48:
 617              		.loc 1 760 3 view .LVU140
 618              		.loc 1 760 19 view .LVU141
 619              		.loc 1 764 3 view .LVU142
 620 0104 0623     		movs	r3, #6
 621              		.loc 1 766 11 is_stmt 0 view .LVU143
 622 0106 0748     		ldr	r0, .L86+4
 623              		.loc 1 764 3 view .LVU144
 624 0108 2360     		str	r3, [r4]
 625              		.loc 1 766 5 is_stmt 1 view .LVU145
 626              		.loc 1 766 11 is_stmt 0 view .LVU146
 627 010a FFF7FEFF 		bl	chFactoryFindPipe
 628              	.LVL49:
 629              		.loc 1 767 5 is_stmt 1 view .LVU147
 630 010e B0FA80F0 		clz	r0, r0
 631              	.LVL50:
 632              		.loc 1 767 5 is_stmt 0 view .LVU148
 633 0112 0549     		ldr	r1, .L86+8
 634 0114 4009     		lsrs	r0, r0, #5
 635              	.LBE59:
 636              	.LBE58:
 637              		.loc 1 770 1 view .LVU149
 638 0116 BDE8F840 		pop	{r3, r4, r5, r6, r7, lr}
 639              		.cfi_restore 14
 640              		.cfi_restore 7
 641              		.cfi_restore 6
 642              		.cfi_restore 5
 643              		.cfi_restore 4
 644              		.cfi_restore 3
 645              		.cfi_def_cfa_offset 0
 646              	.LVL51:
 647              	.LBB69:
 648              	.LBB68:
 649              		.loc 1 767 5 view .LVU150
 650 011a FFF7FEBF 		b	__test_assert
 651              	.LVL52:
 652              	.L87:
 653 011e 00BF     		.align	2
 654              	.L86:
 655 0120 00000000 		.word	chtest
 656 0124 00000000 		.word	.LC0
 657 0128 00000000 		.word	.LC6
 658 012c 08000000 		.word	.LC7
 659 0130 18000000 		.word	.LC8
 660 0134 24000000 		.word	.LC9
 661 0138 30000000 		.word	.LC10
 662 013c 4C000000 		.word	.LC11
ARM GAS  C:\Users\DEVELO~1\AppData\Local\Temp\ccA2COIw.s 			page 13


 663              	.LBE68:
 664              	.LBE69:
 665              		.cfi_endproc
 666              	.LFE447:
 667              		.size	oslib_test_009_006_execute, .-oslib_test_009_006_execute
 668              		.section	.text.oslib_test_009_005_execute,"ax",%progbits
 669              		.align	1
 670              		.p2align 4,,15
 671              		.syntax unified
 672              		.thumb
 673              		.thumb_func
 674              		.type	oslib_test_009_005_execute, %function
 675              	oslib_test_009_005_execute:
 676              	.LFB445:
 677              		.loc 1 581 46 is_stmt 1 view -0
 678              		.cfi_startproc
 679              		@ args = 0, pretend = 0, frame = 0
 680              		@ frame_needed = 0, uses_anonymous_args = 0
 681              		.loc 1 582 3 view .LVU152
 682              		.loc 1 586 3 view .LVU153
 683              		.loc 1 581 46 is_stmt 0 view .LVU154
 684 0000 F8B5     		push	{r3, r4, r5, r6, r7, lr}
 685              		.cfi_def_cfa_offset 24
 686              		.cfi_offset 3, -24
 687              		.cfi_offset 4, -20
 688              		.cfi_offset 5, -16
 689              		.cfi_offset 6, -12
 690              		.cfi_offset 7, -8
 691              		.cfi_offset 14, -4
 692              		.loc 1 586 3 view .LVU155
 693 0002 494C     		ldr	r4, .L94
 694 0004 0125     		movs	r5, #1
 695              		.loc 1 588 12 view .LVU156
 696 0006 4948     		ldr	r0, .L94+4
 697              		.loc 1 586 3 view .LVU157
 698 0008 2560     		str	r5, [r4]
 699              		.loc 1 588 5 is_stmt 1 view .LVU158
 700              		.loc 1 588 12 is_stmt 0 view .LVU159
 701 000a FFF7FEFF 		bl	chFactoryFindObjectsFIFO
 702              	.LVL53:
 703              		.loc 1 589 5 is_stmt 1 view .LVU160
 704 000e B0FA80F0 		clz	r0, r0
 705              	.LVL54:
 706              		.loc 1 589 5 is_stmt 0 view .LVU161
 707 0012 4749     		ldr	r1, .L94+8
 708 0014 4009     		lsrs	r0, r0, #5
 709 0016 FFF7FEFF 		bl	__test_assert
 710              	.LVL55:
 711 001a 00B1     		cbz	r0, .L93
 712              	.L88:
 713              		.loc 1 653 1 view .LVU162
 714 001c F8BD     		pop	{r3, r4, r5, r6, r7, pc}
 715              	.L93:
 716              	.LBB76:
 717              	.LBI76:
 718              		.loc 1 581 13 is_stmt 1 view .LVU163
 719              	.LBB77:
ARM GAS  C:\Users\DEVELO~1\AppData\Local\Temp\ccA2COIw.s 			page 14


 720              		.loc 1 589 39 view .LVU164
 721              		.loc 1 591 3 view .LVU165
 722              		.loc 1 591 19 view .LVU166
 723              		.loc 1 595 3 view .LVU167
 724              		.loc 1 597 12 is_stmt 0 view .LVU168
 725 001e 1022     		movs	r2, #16
 726              		.loc 1 595 3 view .LVU169
 727 0020 0221     		movs	r1, #2
 728              		.loc 1 597 12 view .LVU170
 729 0022 0423     		movs	r3, #4
 730 0024 4148     		ldr	r0, .L94+4
 731              		.loc 1 595 3 view .LVU171
 732 0026 2160     		str	r1, [r4]
 733              		.loc 1 597 5 is_stmt 1 view .LVU172
 734              		.loc 1 597 12 is_stmt 0 view .LVU173
 735 0028 1146     		mov	r1, r2
 736 002a FFF7FEFF 		bl	chFactoryCreateObjectsFIFO
 737              	.LVL56:
 738 002e 0646     		mov	r6, r0
 739              	.LVL57:
 740              		.loc 1 598 5 is_stmt 1 view .LVU174
 741 0030 0038     		subs	r0, r0, #0
 742              	.LVL58:
 743              		.loc 1 598 5 is_stmt 0 view .LVU175
 744 0032 4049     		ldr	r1, .L94+12
 745 0034 18BF     		it	ne
 746 0036 0120     		movne	r0, #1
 747 0038 FFF7FEFF 		bl	__test_assert
 748              	.LVL59:
 749 003c 0028     		cmp	r0, #0
 750 003e EDD1     		bne	.L88
 751              		.loc 1 598 47 is_stmt 1 view .LVU176
 752              		.loc 1 600 3 view .LVU177
 753              		.loc 1 600 19 view .LVU178
 754              		.loc 1 604 3 view .LVU179
 755              	.LBB78:
 756              		.loc 1 608 13 is_stmt 0 view .LVU180
 757 0040 1022     		movs	r2, #16
 758              	.LBE78:
 759              		.loc 1 604 3 view .LVU181
 760 0042 0323     		movs	r3, #3
 761              	.LBB79:
 762              		.loc 1 608 13 view .LVU182
 763 0044 3948     		ldr	r0, .L94+4
 764 0046 1146     		mov	r1, r2
 765              	.LBE79:
 766              		.loc 1 604 3 view .LVU183
 767 0048 2360     		str	r3, [r4]
 768              	.LBB80:
 769              		.loc 1 606 5 is_stmt 1 view .LVU184
 770              		.loc 1 608 5 view .LVU185
 771              		.loc 1 608 13 is_stmt 0 view .LVU186
 772 004a 0423     		movs	r3, #4
 773 004c FFF7FEFF 		bl	chFactoryCreateObjectsFIFO
 774              	.LVL60:
 775              		.loc 1 609 5 is_stmt 1 view .LVU187
 776 0050 B0FA80F0 		clz	r0, r0
ARM GAS  C:\Users\DEVELO~1\AppData\Local\Temp\ccA2COIw.s 			page 15


 777              	.LVL61:
 778              		.loc 1 609 5 is_stmt 0 view .LVU188
 779 0054 3849     		ldr	r1, .L94+16
 780 0056 4009     		lsrs	r0, r0, #5
 781 0058 FFF7FEFF 		bl	__test_assert
 782              	.LVL62:
 783 005c 0028     		cmp	r0, #0
 784 005e DDD1     		bne	.L88
 785              		.loc 1 609 45 is_stmt 1 view .LVU189
 786              	.LBE80:
 787              		.loc 1 611 3 view .LVU190
 788              		.loc 1 611 19 view .LVU191
 789              		.loc 1 616 3 view .LVU192
 790 0060 0423     		movs	r3, #4
 791              	.LBB81:
 792              		.loc 1 620 13 is_stmt 0 view .LVU193
 793 0062 3248     		ldr	r0, .L94+4
 794              	.LBE81:
 795              		.loc 1 616 3 view .LVU194
 796 0064 2360     		str	r3, [r4]
 797              	.LBB86:
 798              		.loc 1 618 5 is_stmt 1 view .LVU195
 799              		.loc 1 620 5 view .LVU196
 800              		.loc 1 620 13 is_stmt 0 view .LVU197
 801 0066 FFF7FEFF 		bl	chFactoryFindObjectsFIFO
 802              	.LVL63:
 803 006a 0746     		mov	r7, r0
 804              	.LVL64:
 805              		.loc 1 621 5 is_stmt 1 view .LVU198
 806 006c 0038     		subs	r0, r0, #0
 807              	.LVL65:
 808              		.loc 1 621 5 is_stmt 0 view .LVU199
 809 006e 3349     		ldr	r1, .L94+20
 810 0070 18BF     		it	ne
 811 0072 0120     		movne	r0, #1
 812 0074 FFF7FEFF 		bl	__test_assert
 813              	.LVL66:
 814 0078 0028     		cmp	r0, #0
 815 007a CFD1     		bne	.L88
 816              		.loc 1 621 44 is_stmt 1 view .LVU200
 817              		.loc 1 622 5 view .LVU201
 818 007c F01B     		subs	r0, r6, r7
 819 007e 3049     		ldr	r1, .L94+24
 820 0080 B0FA80F0 		clz	r0, r0
 821 0084 4009     		lsrs	r0, r0, #5
 822 0086 FFF7FEFF 		bl	__test_assert
 823              	.LVL67:
 824 008a 0028     		cmp	r0, #0
 825 008c C6D1     		bne	.L88
 826              		.loc 1 622 60 view .LVU202
 827              		.loc 1 623 5 view .LVU203
 828 008e 7868     		ldr	r0, [r7, #4]
 829 0090 2B49     		ldr	r1, .L94+24
 830 0092 A0F10200 		sub	r0, #2
 831 0096 B0FA80F0 		clz	r0, r0
 832 009a 4009     		lsrs	r0, r0, #5
 833 009c FFF7FEFF 		bl	__test_assert
ARM GAS  C:\Users\DEVELO~1\AppData\Local\Temp\ccA2COIw.s 			page 16


 834              	.LVL68:
 835 00a0 0028     		cmp	r0, #0
 836 00a2 BBD1     		bne	.L88
 837              		.loc 1 623 71 view .LVU204
 838              		.loc 1 625 5 view .LVU205
 839              	.LVL69:
 840              	.LBB82:
 841              	.LBI82:
 842              		.loc 2 409 30 view .LVU206
 843              	.LBB83:
 844              		.loc 2 411 3 view .LVU207
 845              		.loc 2 411 12 is_stmt 0 view .LVU208
 846 00a4 7B68     		ldr	r3, [r7, #4]
 847              	.LBE83:
 848              	.LBE82:
 849              		.loc 1 626 5 view .LVU209
 850 00a6 2846     		mov	r0, r5
 851 00a8 2549     		ldr	r1, .L94+24
 852              	.LBB85:
 853              	.LBB84:
 854              		.loc 2 411 12 view .LVU210
 855 00aa 2B44     		add	r3, r3, r5
 856 00ac 7B60     		str	r3, [r7, #4]
 857              		.loc 2 413 3 is_stmt 1 view .LVU211
 858              	.LVL70:
 859              		.loc 2 413 3 is_stmt 0 view .LVU212
 860              	.LBE84:
 861              	.LBE85:
 862              		.loc 1 626 5 is_stmt 1 view .LVU213
 863 00ae FFF7FEFF 		bl	__test_assert
 864              	.LVL71:
 865 00b2 0028     		cmp	r0, #0
 866 00b4 B2D1     		bne	.L88
 867              		.loc 1 626 61 view .LVU214
 868              		.loc 1 627 5 view .LVU215
 869 00b6 7868     		ldr	r0, [r7, #4]
 870 00b8 2149     		ldr	r1, .L94+24
 871 00ba A0F10300 		sub	r0, #3
 872 00be B0FA80F0 		clz	r0, r0
 873 00c2 4009     		lsrs	r0, r0, #5
 874 00c4 FFF7FEFF 		bl	__test_assert
 875              	.LVL72:
 876 00c8 0028     		cmp	r0, #0
 877 00ca A7D1     		bne	.L88
 878              		.loc 1 627 71 view .LVU216
 879              		.loc 1 629 5 view .LVU217
 880 00cc 3846     		mov	r0, r7
 881 00ce FFF7FEFF 		bl	chFactoryReleaseObjectsFIFO
 882              	.LVL73:
 883              		.loc 1 630 5 view .LVU218
 884 00d2 7868     		ldr	r0, [r7, #4]
 885 00d4 1B49     		ldr	r1, .L94+28
 886 00d6 A0F10200 		sub	r0, #2
 887 00da B0FA80F0 		clz	r0, r0
 888 00de 4009     		lsrs	r0, r0, #5
 889 00e0 FFF7FEFF 		bl	__test_assert
 890              	.LVL74:
ARM GAS  C:\Users\DEVELO~1\AppData\Local\Temp\ccA2COIw.s 			page 17


 891 00e4 0028     		cmp	r0, #0
 892 00e6 99D1     		bne	.L88
 893              		.loc 1 630 65 view .LVU219
 894              		.loc 1 632 5 view .LVU220
 895 00e8 3846     		mov	r0, r7
 896 00ea FFF7FEFF 		bl	chFactoryReleaseObjectsFIFO
 897              	.LVL75:
 898              		.loc 1 633 5 view .LVU221
 899 00ee 7068     		ldr	r0, [r6, #4]
 900 00f0 1449     		ldr	r1, .L94+28
 901 00f2 401B     		subs	r0, r0, r5
 902 00f4 B0FA80F0 		clz	r0, r0
 903 00f8 4009     		lsrs	r0, r0, #5
 904 00fa FFF7FEFF 		bl	__test_assert
 905              	.LVL76:
 906 00fe 0028     		cmp	r0, #0
 907 0100 8CD1     		bne	.L88
 908              		.loc 1 633 64 view .LVU222
 909              	.LBE86:
 910              		.loc 1 635 3 view .LVU223
 911              		.loc 1 635 19 view .LVU224
 912              		.loc 1 639 3 view .LVU225
 913 0102 0523     		movs	r3, #5
 914              		.loc 1 641 5 is_stmt 0 view .LVU226
 915 0104 3046     		mov	r0, r6
 916              		.loc 1 639 3 view .LVU227
 917 0106 2360     		str	r3, [r4]
 918              		.loc 1 641 5 is_stmt 1 view .LVU228
 919 0108 FFF7FEFF 		bl	chFactoryReleaseObjectsFIFO
 920              	.LVL77:
 921              		.loc 1 643 3 view .LVU229
 922              		.loc 1 643 19 view .LVU230
 923              		.loc 1 647 3 view .LVU231
 924 010c 0623     		movs	r3, #6
 925              		.loc 1 649 12 is_stmt 0 view .LVU232
 926 010e 0748     		ldr	r0, .L94+4
 927              		.loc 1 647 3 view .LVU233
 928 0110 2360     		str	r3, [r4]
 929              		.loc 1 649 5 is_stmt 1 view .LVU234
 930              		.loc 1 649 12 is_stmt 0 view .LVU235
 931 0112 FFF7FEFF 		bl	chFactoryFindObjectsFIFO
 932              	.LVL78:
 933              		.loc 1 650 5 is_stmt 1 view .LVU236
 934 0116 B0FA80F0 		clz	r0, r0
 935              	.LVL79:
 936              		.loc 1 650 5 is_stmt 0 view .LVU237
 937 011a 0549     		ldr	r1, .L94+8
 938 011c 4009     		lsrs	r0, r0, #5
 939              	.LBE77:
 940              	.LBE76:
 941              		.loc 1 653 1 view .LVU238
 942 011e BDE8F840 		pop	{r3, r4, r5, r6, r7, lr}
 943              		.cfi_restore 14
 944              		.cfi_restore 7
 945              		.cfi_restore 6
 946              		.cfi_restore 5
 947              		.cfi_restore 4
ARM GAS  C:\Users\DEVELO~1\AppData\Local\Temp\ccA2COIw.s 			page 18


 948              		.cfi_restore 3
 949              		.cfi_def_cfa_offset 0
 950              	.LVL80:
 951              	.LBB88:
 952              	.LBB87:
 953              		.loc 1 650 5 view .LVU239
 954 0122 FFF7FEBF 		b	__test_assert
 955              	.LVL81:
 956              	.L95:
 957 0126 00BF     		.align	2
 958              	.L94:
 959 0128 00000000 		.word	chtest
 960 012c 00000000 		.word	.LC1
 961 0130 00000000 		.word	.LC6
 962 0134 08000000 		.word	.LC7
 963 0138 18000000 		.word	.LC8
 964 013c 24000000 		.word	.LC9
 965 0140 30000000 		.word	.LC10
 966 0144 4C000000 		.word	.LC11
 967              	.LBE87:
 968              	.LBE88:
 969              		.cfi_endproc
 970              	.LFE445:
 971              		.size	oslib_test_009_005_execute, .-oslib_test_009_005_execute
 972              		.section	.text.oslib_test_009_004_execute,"ax",%progbits
 973              		.align	1
 974              		.p2align 4,,15
 975              		.syntax unified
 976              		.thumb
 977              		.thumb_func
 978              		.type	oslib_test_009_004_execute, %function
 979              	oslib_test_009_004_execute:
 980              	.LFB443:
 981              		.loc 1 460 46 is_stmt 1 view -0
 982              		.cfi_startproc
 983              		@ args = 0, pretend = 0, frame = 0
 984              		@ frame_needed = 0, uses_anonymous_args = 0
 985              		.loc 1 461 3 view .LVU241
 986              		.loc 1 464 3 view .LVU242
 987              		.loc 1 460 46 is_stmt 0 view .LVU243
 988 0000 F8B5     		push	{r3, r4, r5, r6, r7, lr}
 989              		.cfi_def_cfa_offset 24
 990              		.cfi_offset 3, -24
 991              		.cfi_offset 4, -20
 992              		.cfi_offset 5, -16
 993              		.cfi_offset 6, -12
 994              		.cfi_offset 7, -8
 995              		.cfi_offset 14, -4
 996              		.loc 1 464 3 view .LVU244
 997 0002 474C     		ldr	r4, .L102
 998 0004 0125     		movs	r5, #1
 999              		.loc 1 466 11 view .LVU245
 1000 0006 4748     		ldr	r0, .L102+4
 1001              		.loc 1 464 3 view .LVU246
 1002 0008 2560     		str	r5, [r4]
 1003              		.loc 1 466 5 is_stmt 1 view .LVU247
 1004              		.loc 1 466 11 is_stmt 0 view .LVU248
ARM GAS  C:\Users\DEVELO~1\AppData\Local\Temp\ccA2COIw.s 			page 19


 1005 000a FFF7FEFF 		bl	chFactoryFindMailbox
 1006              	.LVL82:
 1007              		.loc 1 467 5 is_stmt 1 view .LVU249
 1008 000e B0FA80F0 		clz	r0, r0
 1009              	.LVL83:
 1010              		.loc 1 467 5 is_stmt 0 view .LVU250
 1011 0012 4549     		ldr	r1, .L102+8
 1012 0014 4009     		lsrs	r0, r0, #5
 1013 0016 FFF7FEFF 		bl	__test_assert
 1014              	.LVL84:
 1015 001a 00B1     		cbz	r0, .L101
 1016              	.L96:
 1017              		.loc 1 531 1 view .LVU251
 1018 001c F8BD     		pop	{r3, r4, r5, r6, r7, pc}
 1019              	.L101:
 1020              	.LBB95:
 1021              	.LBI95:
 1022              		.loc 1 460 13 is_stmt 1 view .LVU252
 1023              	.LBB96:
 1024              		.loc 1 467 38 view .LVU253
 1025              		.loc 1 469 3 view .LVU254
 1026              		.loc 1 469 19 view .LVU255
 1027              		.loc 1 473 3 view .LVU256
 1028 001e 0223     		movs	r3, #2
 1029              		.loc 1 475 11 is_stmt 0 view .LVU257
 1030 0020 1021     		movs	r1, #16
 1031 0022 4048     		ldr	r0, .L102+4
 1032              		.loc 1 473 3 view .LVU258
 1033 0024 2360     		str	r3, [r4]
 1034              		.loc 1 475 5 is_stmt 1 view .LVU259
 1035              		.loc 1 475 11 is_stmt 0 view .LVU260
 1036 0026 FFF7FEFF 		bl	chFactoryCreateMailbox
 1037              	.LVL85:
 1038 002a 0646     		mov	r6, r0
 1039              	.LVL86:
 1040              		.loc 1 476 5 is_stmt 1 view .LVU261
 1041 002c 0038     		subs	r0, r0, #0
 1042              	.LVL87:
 1043              		.loc 1 476 5 is_stmt 0 view .LVU262
 1044 002e 3F49     		ldr	r1, .L102+12
 1045 0030 18BF     		it	ne
 1046 0032 0120     		movne	r0, #1
 1047 0034 FFF7FEFF 		bl	__test_assert
 1048              	.LVL88:
 1049 0038 0028     		cmp	r0, #0
 1050 003a EFD1     		bne	.L96
 1051              		.loc 1 476 46 is_stmt 1 view .LVU263
 1052              		.loc 1 478 3 view .LVU264
 1053              		.loc 1 478 19 view .LVU265
 1054              		.loc 1 482 3 view .LVU266
 1055 003c 0323     		movs	r3, #3
 1056              	.LBB97:
 1057              		.loc 1 486 12 is_stmt 0 view .LVU267
 1058 003e 1021     		movs	r1, #16
 1059 0040 3848     		ldr	r0, .L102+4
 1060              	.LBE97:
 1061              		.loc 1 482 3 view .LVU268
ARM GAS  C:\Users\DEVELO~1\AppData\Local\Temp\ccA2COIw.s 			page 20


 1062 0042 2360     		str	r3, [r4]
 1063              	.LBB98:
 1064              		.loc 1 484 5 is_stmt 1 view .LVU269
 1065              		.loc 1 486 5 view .LVU270
 1066              		.loc 1 486 12 is_stmt 0 view .LVU271
 1067 0044 FFF7FEFF 		bl	chFactoryCreateMailbox
 1068              	.LVL89:
 1069              		.loc 1 487 5 is_stmt 1 view .LVU272
 1070 0048 B0FA80F0 		clz	r0, r0
 1071              	.LVL90:
 1072              		.loc 1 487 5 is_stmt 0 view .LVU273
 1073 004c 3849     		ldr	r1, .L102+16
 1074 004e 4009     		lsrs	r0, r0, #5
 1075 0050 FFF7FEFF 		bl	__test_assert
 1076              	.LVL91:
 1077 0054 0028     		cmp	r0, #0
 1078 0056 E1D1     		bne	.L96
 1079              		.loc 1 487 44 is_stmt 1 view .LVU274
 1080              	.LBE98:
 1081              		.loc 1 489 3 view .LVU275
 1082              		.loc 1 489 19 view .LVU276
 1083              		.loc 1 494 3 view .LVU277
 1084 0058 0423     		movs	r3, #4
 1085              	.LBB99:
 1086              		.loc 1 498 12 is_stmt 0 view .LVU278
 1087 005a 3248     		ldr	r0, .L102+4
 1088              	.LBE99:
 1089              		.loc 1 494 3 view .LVU279
 1090 005c 2360     		str	r3, [r4]
 1091              	.LBB104:
 1092              		.loc 1 496 5 is_stmt 1 view .LVU280
 1093              		.loc 1 498 5 view .LVU281
 1094              		.loc 1 498 12 is_stmt 0 view .LVU282
 1095 005e FFF7FEFF 		bl	chFactoryFindMailbox
 1096              	.LVL92:
 1097 0062 0746     		mov	r7, r0
 1098              	.LVL93:
 1099              		.loc 1 499 5 is_stmt 1 view .LVU283
 1100 0064 0038     		subs	r0, r0, #0
 1101              	.LVL94:
 1102              		.loc 1 499 5 is_stmt 0 view .LVU284
 1103 0066 3349     		ldr	r1, .L102+20
 1104 0068 18BF     		it	ne
 1105 006a 0120     		movne	r0, #1
 1106 006c FFF7FEFF 		bl	__test_assert
 1107              	.LVL95:
 1108 0070 0028     		cmp	r0, #0
 1109 0072 D3D1     		bne	.L96
 1110              		.loc 1 499 43 is_stmt 1 view .LVU285
 1111              		.loc 1 500 5 view .LVU286
 1112 0074 F01B     		subs	r0, r6, r7
 1113 0076 3049     		ldr	r1, .L102+24
 1114 0078 B0FA80F0 		clz	r0, r0
 1115 007c 4009     		lsrs	r0, r0, #5
 1116 007e FFF7FEFF 		bl	__test_assert
 1117              	.LVL96:
 1118 0082 0028     		cmp	r0, #0
ARM GAS  C:\Users\DEVELO~1\AppData\Local\Temp\ccA2COIw.s 			page 21


 1119 0084 CAD1     		bne	.L96
 1120              		.loc 1 500 58 view .LVU287
 1121              		.loc 1 501 5 view .LVU288
 1122 0086 7868     		ldr	r0, [r7, #4]
 1123 0088 2B49     		ldr	r1, .L102+24
 1124 008a A0F10200 		sub	r0, #2
 1125 008e B0FA80F0 		clz	r0, r0
 1126 0092 4009     		lsrs	r0, r0, #5
 1127 0094 FFF7FEFF 		bl	__test_assert
 1128              	.LVL97:
 1129 0098 0028     		cmp	r0, #0
 1130 009a BFD1     		bne	.L96
 1131              		.loc 1 501 70 view .LVU289
 1132              		.loc 1 503 5 view .LVU290
 1133              	.LVL98:
 1134              	.LBB100:
 1135              	.LBI100:
 1136              		.loc 2 409 30 view .LVU291
 1137              	.LBB101:
 1138              		.loc 2 411 3 view .LVU292
 1139              		.loc 2 411 12 is_stmt 0 view .LVU293
 1140 009c 7B68     		ldr	r3, [r7, #4]
 1141              	.LBE101:
 1142              	.LBE100:
 1143              		.loc 1 504 5 view .LVU294
 1144 009e 2846     		mov	r0, r5
 1145 00a0 2549     		ldr	r1, .L102+24
 1146              	.LBB103:
 1147              	.LBB102:
 1148              		.loc 2 411 12 view .LVU295
 1149 00a2 2B44     		add	r3, r3, r5
 1150 00a4 7B60     		str	r3, [r7, #4]
 1151              		.loc 2 413 3 is_stmt 1 view .LVU296
 1152              	.LVL99:
 1153              		.loc 2 413 3 is_stmt 0 view .LVU297
 1154              	.LBE102:
 1155              	.LBE103:
 1156              		.loc 1 504 5 is_stmt 1 view .LVU298
 1157 00a6 FFF7FEFF 		bl	__test_assert
 1158              	.LVL100:
 1159 00aa 0028     		cmp	r0, #0
 1160 00ac B6D1     		bne	.L96
 1161              		.loc 1 504 59 view .LVU299
 1162              		.loc 1 505 5 view .LVU300
 1163 00ae 7868     		ldr	r0, [r7, #4]
 1164 00b0 2149     		ldr	r1, .L102+24
 1165 00b2 A0F10300 		sub	r0, #3
 1166 00b6 B0FA80F0 		clz	r0, r0
 1167 00ba 4009     		lsrs	r0, r0, #5
 1168 00bc FFF7FEFF 		bl	__test_assert
 1169              	.LVL101:
 1170 00c0 0028     		cmp	r0, #0
 1171 00c2 ABD1     		bne	.L96
 1172              		.loc 1 505 70 view .LVU301
 1173              		.loc 1 507 5 view .LVU302
 1174 00c4 3846     		mov	r0, r7
 1175 00c6 FFF7FEFF 		bl	chFactoryReleaseMailbox
ARM GAS  C:\Users\DEVELO~1\AppData\Local\Temp\ccA2COIw.s 			page 22


 1176              	.LVL102:
 1177              		.loc 1 508 5 view .LVU303
 1178 00ca 7868     		ldr	r0, [r7, #4]
 1179 00cc 1B49     		ldr	r1, .L102+28
 1180 00ce A0F10200 		sub	r0, #2
 1181 00d2 B0FA80F0 		clz	r0, r0
 1182 00d6 4009     		lsrs	r0, r0, #5
 1183 00d8 FFF7FEFF 		bl	__test_assert
 1184              	.LVL103:
 1185 00dc 0028     		cmp	r0, #0
 1186 00de 9DD1     		bne	.L96
 1187              		.loc 1 508 64 view .LVU304
 1188              		.loc 1 510 5 view .LVU305
 1189 00e0 3846     		mov	r0, r7
 1190 00e2 FFF7FEFF 		bl	chFactoryReleaseMailbox
 1191              	.LVL104:
 1192              		.loc 1 511 5 view .LVU306
 1193 00e6 7068     		ldr	r0, [r6, #4]
 1194 00e8 1449     		ldr	r1, .L102+28
 1195 00ea 401B     		subs	r0, r0, r5
 1196 00ec B0FA80F0 		clz	r0, r0
 1197 00f0 4009     		lsrs	r0, r0, #5
 1198 00f2 FFF7FEFF 		bl	__test_assert
 1199              	.LVL105:
 1200 00f6 0028     		cmp	r0, #0
 1201 00f8 90D1     		bne	.L96
 1202              		.loc 1 511 63 view .LVU307
 1203              	.LBE104:
 1204              		.loc 1 513 3 view .LVU308
 1205              		.loc 1 513 19 view .LVU309
 1206              		.loc 1 517 3 view .LVU310
 1207 00fa 0523     		movs	r3, #5
 1208              		.loc 1 519 5 is_stmt 0 view .LVU311
 1209 00fc 3046     		mov	r0, r6
 1210              		.loc 1 517 3 view .LVU312
 1211 00fe 2360     		str	r3, [r4]
 1212              		.loc 1 519 5 is_stmt 1 view .LVU313
 1213 0100 FFF7FEFF 		bl	chFactoryReleaseMailbox
 1214              	.LVL106:
 1215              		.loc 1 521 3 view .LVU314
 1216              		.loc 1 521 19 view .LVU315
 1217              		.loc 1 525 3 view .LVU316
 1218 0104 0623     		movs	r3, #6
 1219              		.loc 1 527 11 is_stmt 0 view .LVU317
 1220 0106 0748     		ldr	r0, .L102+4
 1221              		.loc 1 525 3 view .LVU318
 1222 0108 2360     		str	r3, [r4]
 1223              		.loc 1 527 5 is_stmt 1 view .LVU319
 1224              		.loc 1 527 11 is_stmt 0 view .LVU320
 1225 010a FFF7FEFF 		bl	chFactoryFindMailbox
 1226              	.LVL107:
 1227              		.loc 1 528 5 is_stmt 1 view .LVU321
 1228 010e B0FA80F0 		clz	r0, r0
 1229              	.LVL108:
 1230              		.loc 1 528 5 is_stmt 0 view .LVU322
 1231 0112 0549     		ldr	r1, .L102+8
 1232 0114 4009     		lsrs	r0, r0, #5
ARM GAS  C:\Users\DEVELO~1\AppData\Local\Temp\ccA2COIw.s 			page 23


 1233              	.LBE96:
 1234              	.LBE95:
 1235              		.loc 1 531 1 view .LVU323
 1236 0116 BDE8F840 		pop	{r3, r4, r5, r6, r7, lr}
 1237              		.cfi_restore 14
 1238              		.cfi_restore 7
 1239              		.cfi_restore 6
 1240              		.cfi_restore 5
 1241              		.cfi_restore 4
 1242              		.cfi_restore 3
 1243              		.cfi_def_cfa_offset 0
 1244              	.LVL109:
 1245              	.LBB106:
 1246              	.LBB105:
 1247              		.loc 1 528 5 view .LVU324
 1248 011a FFF7FEBF 		b	__test_assert
 1249              	.LVL110:
 1250              	.L103:
 1251 011e 00BF     		.align	2
 1252              	.L102:
 1253 0120 00000000 		.word	chtest
 1254 0124 00000000 		.word	.LC2
 1255 0128 00000000 		.word	.LC6
 1256 012c 08000000 		.word	.LC7
 1257 0130 18000000 		.word	.LC8
 1258 0134 24000000 		.word	.LC9
 1259 0138 30000000 		.word	.LC10
 1260 013c 4C000000 		.word	.LC11
 1261              	.LBE105:
 1262              	.LBE106:
 1263              		.cfi_endproc
 1264              	.LFE443:
 1265              		.size	oslib_test_009_004_execute, .-oslib_test_009_004_execute
 1266              		.section	.text.oslib_test_009_003_execute,"ax",%progbits
 1267              		.align	1
 1268              		.p2align 4,,15
 1269              		.syntax unified
 1270              		.thumb
 1271              		.thumb_func
 1272              		.type	oslib_test_009_003_execute, %function
 1273              	oslib_test_009_003_execute:
 1274              	.LFB441:
 1275              		.loc 1 340 46 is_stmt 1 view -0
 1276              		.cfi_startproc
 1277              		@ args = 0, pretend = 0, frame = 0
 1278              		@ frame_needed = 0, uses_anonymous_args = 0
 1279              		.loc 1 341 3 view .LVU326
 1280              		.loc 1 344 3 view .LVU327
 1281              		.loc 1 340 46 is_stmt 0 view .LVU328
 1282 0000 F8B5     		push	{r3, r4, r5, r6, r7, lr}
 1283              		.cfi_def_cfa_offset 24
 1284              		.cfi_offset 3, -24
 1285              		.cfi_offset 4, -20
 1286              		.cfi_offset 5, -16
 1287              		.cfi_offset 6, -12
 1288              		.cfi_offset 7, -8
 1289              		.cfi_offset 14, -4
ARM GAS  C:\Users\DEVELO~1\AppData\Local\Temp\ccA2COIw.s 			page 24


 1290              		.loc 1 344 3 view .LVU329
 1291 0002 474C     		ldr	r4, .L110
 1292 0004 0125     		movs	r5, #1
 1293              		.loc 1 346 11 view .LVU330
 1294 0006 4748     		ldr	r0, .L110+4
 1295              		.loc 1 344 3 view .LVU331
 1296 0008 2560     		str	r5, [r4]
 1297              		.loc 1 346 5 is_stmt 1 view .LVU332
 1298              		.loc 1 346 11 is_stmt 0 view .LVU333
 1299 000a FFF7FEFF 		bl	chFactoryFindSemaphore
 1300              	.LVL111:
 1301              		.loc 1 347 5 is_stmt 1 view .LVU334
 1302 000e B0FA80F0 		clz	r0, r0
 1303              	.LVL112:
 1304              		.loc 1 347 5 is_stmt 0 view .LVU335
 1305 0012 4549     		ldr	r1, .L110+8
 1306 0014 4009     		lsrs	r0, r0, #5
 1307 0016 FFF7FEFF 		bl	__test_assert
 1308              	.LVL113:
 1309 001a 00B1     		cbz	r0, .L109
 1310              	.L104:
 1311              		.loc 1 411 1 view .LVU336
 1312 001c F8BD     		pop	{r3, r4, r5, r6, r7, pc}
 1313              	.L109:
 1314              	.LBB113:
 1315              	.LBI113:
 1316              		.loc 1 340 13 is_stmt 1 view .LVU337
 1317              	.LBB114:
 1318              		.loc 1 347 38 view .LVU338
 1319              		.loc 1 349 3 view .LVU339
 1320              		.loc 1 349 19 view .LVU340
 1321              		.loc 1 353 3 view .LVU341
 1322 001e 0223     		movs	r3, #2
 1323              		.loc 1 355 11 is_stmt 0 view .LVU342
 1324 0020 0146     		mov	r1, r0
 1325 0022 4048     		ldr	r0, .L110+4
 1326              		.loc 1 353 3 view .LVU343
 1327 0024 2360     		str	r3, [r4]
 1328              		.loc 1 355 5 is_stmt 1 view .LVU344
 1329              		.loc 1 355 11 is_stmt 0 view .LVU345
 1330 0026 FFF7FEFF 		bl	chFactoryCreateSemaphore
 1331              	.LVL114:
 1332 002a 0646     		mov	r6, r0
 1333              	.LVL115:
 1334              		.loc 1 356 5 is_stmt 1 view .LVU346
 1335 002c 0038     		subs	r0, r0, #0
 1336              	.LVL116:
 1337              		.loc 1 356 5 is_stmt 0 view .LVU347
 1338 002e 3F49     		ldr	r1, .L110+12
 1339 0030 18BF     		it	ne
 1340 0032 0120     		movne	r0, #1
 1341 0034 FFF7FEFF 		bl	__test_assert
 1342              	.LVL117:
 1343 0038 0028     		cmp	r0, #0
 1344 003a EFD1     		bne	.L104
 1345              		.loc 1 356 46 is_stmt 1 view .LVU348
 1346              		.loc 1 358 3 view .LVU349
ARM GAS  C:\Users\DEVELO~1\AppData\Local\Temp\ccA2COIw.s 			page 25


 1347              		.loc 1 358 19 view .LVU350
 1348              		.loc 1 362 3 view .LVU351
 1349 003c 0323     		movs	r3, #3
 1350              	.LBB115:
 1351              		.loc 1 366 12 is_stmt 0 view .LVU352
 1352 003e 0146     		mov	r1, r0
 1353 0040 3848     		ldr	r0, .L110+4
 1354              	.LBE115:
 1355              		.loc 1 362 3 view .LVU353
 1356 0042 2360     		str	r3, [r4]
 1357              	.LBB116:
 1358              		.loc 1 364 5 is_stmt 1 view .LVU354
 1359              		.loc 1 366 5 view .LVU355
 1360              		.loc 1 366 12 is_stmt 0 view .LVU356
 1361 0044 FFF7FEFF 		bl	chFactoryCreateSemaphore
 1362              	.LVL118:
 1363              		.loc 1 367 5 is_stmt 1 view .LVU357
 1364 0048 B0FA80F0 		clz	r0, r0
 1365              	.LVL119:
 1366              		.loc 1 367 5 is_stmt 0 view .LVU358
 1367 004c 3849     		ldr	r1, .L110+16
 1368 004e 4009     		lsrs	r0, r0, #5
 1369 0050 FFF7FEFF 		bl	__test_assert
 1370              	.LVL120:
 1371 0054 0028     		cmp	r0, #0
 1372 0056 E1D1     		bne	.L104
 1373              		.loc 1 367 44 is_stmt 1 view .LVU359
 1374              	.LBE116:
 1375              		.loc 1 369 3 view .LVU360
 1376              		.loc 1 369 19 view .LVU361
 1377              		.loc 1 374 3 view .LVU362
 1378 0058 0423     		movs	r3, #4
 1379              	.LBB117:
 1380              		.loc 1 378 12 is_stmt 0 view .LVU363
 1381 005a 3248     		ldr	r0, .L110+4
 1382              	.LBE117:
 1383              		.loc 1 374 3 view .LVU364
 1384 005c 2360     		str	r3, [r4]
 1385              	.LBB122:
 1386              		.loc 1 376 5 is_stmt 1 view .LVU365
 1387              		.loc 1 378 5 view .LVU366
 1388              		.loc 1 378 12 is_stmt 0 view .LVU367
 1389 005e FFF7FEFF 		bl	chFactoryFindSemaphore
 1390              	.LVL121:
 1391 0062 0746     		mov	r7, r0
 1392              	.LVL122:
 1393              		.loc 1 379 5 is_stmt 1 view .LVU368
 1394 0064 0038     		subs	r0, r0, #0
 1395              	.LVL123:
 1396              		.loc 1 379 5 is_stmt 0 view .LVU369
 1397 0066 3349     		ldr	r1, .L110+20
 1398 0068 18BF     		it	ne
 1399 006a 0120     		movne	r0, #1
 1400 006c FFF7FEFF 		bl	__test_assert
 1401              	.LVL124:
 1402 0070 0028     		cmp	r0, #0
 1403 0072 D3D1     		bne	.L104
ARM GAS  C:\Users\DEVELO~1\AppData\Local\Temp\ccA2COIw.s 			page 26


 1404              		.loc 1 379 43 is_stmt 1 view .LVU370
 1405              		.loc 1 380 5 view .LVU371
 1406 0074 F01B     		subs	r0, r6, r7
 1407 0076 3049     		ldr	r1, .L110+24
 1408 0078 B0FA80F0 		clz	r0, r0
 1409 007c 4009     		lsrs	r0, r0, #5
 1410 007e FFF7FEFF 		bl	__test_assert
 1411              	.LVL125:
 1412 0082 0028     		cmp	r0, #0
 1413 0084 CAD1     		bne	.L104
 1414              		.loc 1 380 58 view .LVU372
 1415              		.loc 1 381 5 view .LVU373
 1416 0086 7868     		ldr	r0, [r7, #4]
 1417 0088 2B49     		ldr	r1, .L110+24
 1418 008a A0F10200 		sub	r0, #2
 1419 008e B0FA80F0 		clz	r0, r0
 1420 0092 4009     		lsrs	r0, r0, #5
 1421 0094 FFF7FEFF 		bl	__test_assert
 1422              	.LVL126:
 1423 0098 0028     		cmp	r0, #0
 1424 009a BFD1     		bne	.L104
 1425              		.loc 1 381 70 view .LVU374
 1426              		.loc 1 383 5 view .LVU375
 1427              	.LVL127:
 1428              	.LBB118:
 1429              	.LBI118:
 1430              		.loc 2 409 30 view .LVU376
 1431              	.LBB119:
 1432              		.loc 2 411 3 view .LVU377
 1433              		.loc 2 411 12 is_stmt 0 view .LVU378
 1434 009c 7B68     		ldr	r3, [r7, #4]
 1435              	.LBE119:
 1436              	.LBE118:
 1437              		.loc 1 384 5 view .LVU379
 1438 009e 2846     		mov	r0, r5
 1439 00a0 2549     		ldr	r1, .L110+24
 1440              	.LBB121:
 1441              	.LBB120:
 1442              		.loc 2 411 12 view .LVU380
 1443 00a2 2B44     		add	r3, r3, r5
 1444 00a4 7B60     		str	r3, [r7, #4]
 1445              		.loc 2 413 3 is_stmt 1 view .LVU381
 1446              	.LVL128:
 1447              		.loc 2 413 3 is_stmt 0 view .LVU382
 1448              	.LBE120:
 1449              	.LBE121:
 1450              		.loc 1 384 5 is_stmt 1 view .LVU383
 1451 00a6 FFF7FEFF 		bl	__test_assert
 1452              	.LVL129:
 1453 00aa 0028     		cmp	r0, #0
 1454 00ac B6D1     		bne	.L104
 1455              		.loc 1 384 59 view .LVU384
 1456              		.loc 1 385 5 view .LVU385
 1457 00ae 7868     		ldr	r0, [r7, #4]
 1458 00b0 2149     		ldr	r1, .L110+24
 1459 00b2 A0F10300 		sub	r0, #3
 1460 00b6 B0FA80F0 		clz	r0, r0
ARM GAS  C:\Users\DEVELO~1\AppData\Local\Temp\ccA2COIw.s 			page 27


 1461 00ba 4009     		lsrs	r0, r0, #5
 1462 00bc FFF7FEFF 		bl	__test_assert
 1463              	.LVL130:
 1464 00c0 0028     		cmp	r0, #0
 1465 00c2 ABD1     		bne	.L104
 1466              		.loc 1 385 70 view .LVU386
 1467              		.loc 1 387 5 view .LVU387
 1468 00c4 3846     		mov	r0, r7
 1469 00c6 FFF7FEFF 		bl	chFactoryReleaseSemaphore
 1470              	.LVL131:
 1471              		.loc 1 388 5 view .LVU388
 1472 00ca 7868     		ldr	r0, [r7, #4]
 1473 00cc 1B49     		ldr	r1, .L110+28
 1474 00ce A0F10200 		sub	r0, #2
 1475 00d2 B0FA80F0 		clz	r0, r0
 1476 00d6 4009     		lsrs	r0, r0, #5
 1477 00d8 FFF7FEFF 		bl	__test_assert
 1478              	.LVL132:
 1479 00dc 0028     		cmp	r0, #0
 1480 00de 9DD1     		bne	.L104
 1481              		.loc 1 388 64 view .LVU389
 1482              		.loc 1 390 5 view .LVU390
 1483 00e0 3846     		mov	r0, r7
 1484 00e2 FFF7FEFF 		bl	chFactoryReleaseSemaphore
 1485              	.LVL133:
 1486              		.loc 1 391 5 view .LVU391
 1487 00e6 7068     		ldr	r0, [r6, #4]
 1488 00e8 1449     		ldr	r1, .L110+28
 1489 00ea 401B     		subs	r0, r0, r5
 1490 00ec B0FA80F0 		clz	r0, r0
 1491 00f0 4009     		lsrs	r0, r0, #5
 1492 00f2 FFF7FEFF 		bl	__test_assert
 1493              	.LVL134:
 1494 00f6 0028     		cmp	r0, #0
 1495 00f8 90D1     		bne	.L104
 1496              		.loc 1 391 63 view .LVU392
 1497              	.LBE122:
 1498              		.loc 1 393 3 view .LVU393
 1499              		.loc 1 393 19 view .LVU394
 1500              		.loc 1 397 3 view .LVU395
 1501 00fa 0523     		movs	r3, #5
 1502              		.loc 1 399 5 is_stmt 0 view .LVU396
 1503 00fc 3046     		mov	r0, r6
 1504              		.loc 1 397 3 view .LVU397
 1505 00fe 2360     		str	r3, [r4]
 1506              		.loc 1 399 5 is_stmt 1 view .LVU398
 1507 0100 FFF7FEFF 		bl	chFactoryReleaseSemaphore
 1508              	.LVL135:
 1509              		.loc 1 401 3 view .LVU399
 1510              		.loc 1 401 19 view .LVU400
 1511              		.loc 1 405 3 view .LVU401
 1512 0104 0623     		movs	r3, #6
 1513              		.loc 1 407 11 is_stmt 0 view .LVU402
 1514 0106 0748     		ldr	r0, .L110+4
 1515              		.loc 1 405 3 view .LVU403
 1516 0108 2360     		str	r3, [r4]
 1517              		.loc 1 407 5 is_stmt 1 view .LVU404
ARM GAS  C:\Users\DEVELO~1\AppData\Local\Temp\ccA2COIw.s 			page 28


 1518              		.loc 1 407 11 is_stmt 0 view .LVU405
 1519 010a FFF7FEFF 		bl	chFactoryFindSemaphore
 1520              	.LVL136:
 1521              		.loc 1 408 5 is_stmt 1 view .LVU406
 1522 010e B0FA80F0 		clz	r0, r0
 1523              	.LVL137:
 1524              		.loc 1 408 5 is_stmt 0 view .LVU407
 1525 0112 0549     		ldr	r1, .L110+8
 1526 0114 4009     		lsrs	r0, r0, #5
 1527              	.LBE114:
 1528              	.LBE113:
 1529              		.loc 1 411 1 view .LVU408
 1530 0116 BDE8F840 		pop	{r3, r4, r5, r6, r7, lr}
 1531              		.cfi_restore 14
 1532              		.cfi_restore 7
 1533              		.cfi_restore 6
 1534              		.cfi_restore 5
 1535              		.cfi_restore 4
 1536              		.cfi_restore 3
 1537              		.cfi_def_cfa_offset 0
 1538              	.LVL138:
 1539              	.LBB124:
 1540              	.LBB123:
 1541              		.loc 1 408 5 view .LVU409
 1542 011a FFF7FEBF 		b	__test_assert
 1543              	.LVL139:
 1544              	.L111:
 1545 011e 00BF     		.align	2
 1546              	.L110:
 1547 0120 00000000 		.word	chtest
 1548 0124 00000000 		.word	.LC3
 1549 0128 00000000 		.word	.LC6
 1550 012c 08000000 		.word	.LC7
 1551 0130 18000000 		.word	.LC8
 1552 0134 24000000 		.word	.LC9
 1553 0138 30000000 		.word	.LC10
 1554 013c 4C000000 		.word	.LC11
 1555              	.LBE123:
 1556              	.LBE124:
 1557              		.cfi_endproc
 1558              	.LFE441:
 1559              		.size	oslib_test_009_003_execute, .-oslib_test_009_003_execute
 1560              		.section	.text.oslib_test_009_002_execute,"ax",%progbits
 1561              		.align	1
 1562              		.p2align 4,,15
 1563              		.syntax unified
 1564              		.thumb
 1565              		.thumb_func
 1566              		.type	oslib_test_009_002_execute, %function
 1567              	oslib_test_009_002_execute:
 1568              	.LFB439:
 1569              		.loc 1 220 46 is_stmt 1 view -0
 1570              		.cfi_startproc
 1571              		@ args = 0, pretend = 0, frame = 0
 1572              		@ frame_needed = 0, uses_anonymous_args = 0
 1573              		.loc 1 221 3 view .LVU411
 1574              		.loc 1 224 3 view .LVU412
ARM GAS  C:\Users\DEVELO~1\AppData\Local\Temp\ccA2COIw.s 			page 29


 1575              		.loc 1 220 46 is_stmt 0 view .LVU413
 1576 0000 F8B5     		push	{r3, r4, r5, r6, r7, lr}
 1577              		.cfi_def_cfa_offset 24
 1578              		.cfi_offset 3, -24
 1579              		.cfi_offset 4, -20
 1580              		.cfi_offset 5, -16
 1581              		.cfi_offset 6, -12
 1582              		.cfi_offset 7, -8
 1583              		.cfi_offset 14, -4
 1584              		.loc 1 224 3 view .LVU414
 1585 0002 474C     		ldr	r4, .L118
 1586 0004 0125     		movs	r5, #1
 1587              		.loc 1 226 11 view .LVU415
 1588 0006 4748     		ldr	r0, .L118+4
 1589              		.loc 1 224 3 view .LVU416
 1590 0008 2560     		str	r5, [r4]
 1591              		.loc 1 226 5 is_stmt 1 view .LVU417
 1592              		.loc 1 226 11 is_stmt 0 view .LVU418
 1593 000a FFF7FEFF 		bl	chFactoryFindBuffer
 1594              	.LVL140:
 1595              		.loc 1 227 5 is_stmt 1 view .LVU419
 1596 000e B0FA80F0 		clz	r0, r0
 1597              	.LVL141:
 1598              		.loc 1 227 5 is_stmt 0 view .LVU420
 1599 0012 4549     		ldr	r1, .L118+8
 1600 0014 4009     		lsrs	r0, r0, #5
 1601 0016 FFF7FEFF 		bl	__test_assert
 1602              	.LVL142:
 1603 001a 00B1     		cbz	r0, .L117
 1604              	.L112:
 1605              		.loc 1 290 1 view .LVU421
 1606 001c F8BD     		pop	{r3, r4, r5, r6, r7, pc}
 1607              	.L117:
 1608              	.LBB131:
 1609              	.LBI131:
 1610              		.loc 1 220 13 is_stmt 1 view .LVU422
 1611              	.LBB132:
 1612              		.loc 1 227 38 view .LVU423
 1613              		.loc 1 229 3 view .LVU424
 1614              		.loc 1 229 19 view .LVU425
 1615              		.loc 1 233 3 view .LVU426
 1616 001e 0223     		movs	r3, #2
 1617              		.loc 1 235 11 is_stmt 0 view .LVU427
 1618 0020 8021     		movs	r1, #128
 1619 0022 4048     		ldr	r0, .L118+4
 1620              		.loc 1 233 3 view .LVU428
 1621 0024 2360     		str	r3, [r4]
 1622              		.loc 1 235 5 is_stmt 1 view .LVU429
 1623              		.loc 1 235 11 is_stmt 0 view .LVU430
 1624 0026 FFF7FEFF 		bl	chFactoryCreateBuffer
 1625              	.LVL143:
 1626 002a 0646     		mov	r6, r0
 1627              	.LVL144:
 1628              		.loc 1 236 5 is_stmt 1 view .LVU431
 1629 002c 0038     		subs	r0, r0, #0
 1630              	.LVL145:
 1631              		.loc 1 236 5 is_stmt 0 view .LVU432
ARM GAS  C:\Users\DEVELO~1\AppData\Local\Temp\ccA2COIw.s 			page 30


 1632 002e 3F49     		ldr	r1, .L118+12
 1633 0030 18BF     		it	ne
 1634 0032 0120     		movne	r0, #1
 1635 0034 FFF7FEFF 		bl	__test_assert
 1636              	.LVL146:
 1637 0038 0028     		cmp	r0, #0
 1638 003a EFD1     		bne	.L112
 1639              		.loc 1 236 46 is_stmt 1 view .LVU433
 1640              		.loc 1 238 3 view .LVU434
 1641              		.loc 1 238 19 view .LVU435
 1642              		.loc 1 241 3 view .LVU436
 1643 003c 0323     		movs	r3, #3
 1644              	.LBB133:
 1645              		.loc 1 245 12 is_stmt 0 view .LVU437
 1646 003e 8021     		movs	r1, #128
 1647 0040 3848     		ldr	r0, .L118+4
 1648              	.LBE133:
 1649              		.loc 1 241 3 view .LVU438
 1650 0042 2360     		str	r3, [r4]
 1651              	.LBB134:
 1652              		.loc 1 243 5 is_stmt 1 view .LVU439
 1653              		.loc 1 245 5 view .LVU440
 1654              		.loc 1 245 12 is_stmt 0 view .LVU441
 1655 0044 FFF7FEFF 		bl	chFactoryCreateBuffer
 1656              	.LVL147:
 1657              		.loc 1 246 5 is_stmt 1 view .LVU442
 1658 0048 B0FA80F0 		clz	r0, r0
 1659              	.LVL148:
 1660              		.loc 1 246 5 is_stmt 0 view .LVU443
 1661 004c 3849     		ldr	r1, .L118+16
 1662 004e 4009     		lsrs	r0, r0, #5
 1663 0050 FFF7FEFF 		bl	__test_assert
 1664              	.LVL149:
 1665 0054 0028     		cmp	r0, #0
 1666 0056 E1D1     		bne	.L112
 1667              		.loc 1 246 44 is_stmt 1 view .LVU444
 1668              	.LBE134:
 1669              		.loc 1 248 3 view .LVU445
 1670              		.loc 1 248 19 view .LVU446
 1671              		.loc 1 253 3 view .LVU447
 1672 0058 0423     		movs	r3, #4
 1673              	.LBB135:
 1674              		.loc 1 257 12 is_stmt 0 view .LVU448
 1675 005a 3248     		ldr	r0, .L118+4
 1676              	.LBE135:
 1677              		.loc 1 253 3 view .LVU449
 1678 005c 2360     		str	r3, [r4]
 1679              	.LBB140:
 1680              		.loc 1 255 5 is_stmt 1 view .LVU450
 1681              		.loc 1 257 5 view .LVU451
 1682              		.loc 1 257 12 is_stmt 0 view .LVU452
 1683 005e FFF7FEFF 		bl	chFactoryFindBuffer
 1684              	.LVL150:
 1685 0062 0746     		mov	r7, r0
 1686              	.LVL151:
 1687              		.loc 1 258 5 is_stmt 1 view .LVU453
 1688 0064 0038     		subs	r0, r0, #0
ARM GAS  C:\Users\DEVELO~1\AppData\Local\Temp\ccA2COIw.s 			page 31


 1689              	.LVL152:
 1690              		.loc 1 258 5 is_stmt 0 view .LVU454
 1691 0066 3349     		ldr	r1, .L118+20
 1692 0068 18BF     		it	ne
 1693 006a 0120     		movne	r0, #1
 1694 006c FFF7FEFF 		bl	__test_assert
 1695              	.LVL153:
 1696 0070 0028     		cmp	r0, #0
 1697 0072 D3D1     		bne	.L112
 1698              		.loc 1 258 43 is_stmt 1 view .LVU455
 1699              		.loc 1 259 5 view .LVU456
 1700 0074 F01B     		subs	r0, r6, r7
 1701 0076 3049     		ldr	r1, .L118+24
 1702 0078 B0FA80F0 		clz	r0, r0
 1703 007c 4009     		lsrs	r0, r0, #5
 1704 007e FFF7FEFF 		bl	__test_assert
 1705              	.LVL154:
 1706 0082 0028     		cmp	r0, #0
 1707 0084 CAD1     		bne	.L112
 1708              		.loc 1 259 58 view .LVU457
 1709              		.loc 1 260 5 view .LVU458
 1710 0086 7868     		ldr	r0, [r7, #4]
 1711 0088 2B49     		ldr	r1, .L118+24
 1712 008a A0F10200 		sub	r0, #2
 1713 008e B0FA80F0 		clz	r0, r0
 1714 0092 4009     		lsrs	r0, r0, #5
 1715 0094 FFF7FEFF 		bl	__test_assert
 1716              	.LVL155:
 1717 0098 0028     		cmp	r0, #0
 1718 009a BFD1     		bne	.L112
 1719              		.loc 1 260 70 view .LVU459
 1720              		.loc 1 262 5 view .LVU460
 1721              	.LVL156:
 1722              	.LBB136:
 1723              	.LBI136:
 1724              		.loc 2 409 30 view .LVU461
 1725              	.LBB137:
 1726              		.loc 2 411 3 view .LVU462
 1727              		.loc 2 411 12 is_stmt 0 view .LVU463
 1728 009c 7B68     		ldr	r3, [r7, #4]
 1729              	.LBE137:
 1730              	.LBE136:
 1731              		.loc 1 263 5 view .LVU464
 1732 009e 2846     		mov	r0, r5
 1733 00a0 2549     		ldr	r1, .L118+24
 1734              	.LBB139:
 1735              	.LBB138:
 1736              		.loc 2 411 12 view .LVU465
 1737 00a2 2B44     		add	r3, r3, r5
 1738 00a4 7B60     		str	r3, [r7, #4]
 1739              		.loc 2 413 3 is_stmt 1 view .LVU466
 1740              	.LVL157:
 1741              		.loc 2 413 3 is_stmt 0 view .LVU467
 1742              	.LBE138:
 1743              	.LBE139:
 1744              		.loc 1 263 5 is_stmt 1 view .LVU468
 1745 00a6 FFF7FEFF 		bl	__test_assert
ARM GAS  C:\Users\DEVELO~1\AppData\Local\Temp\ccA2COIw.s 			page 32


 1746              	.LVL158:
 1747 00aa 0028     		cmp	r0, #0
 1748 00ac B6D1     		bne	.L112
 1749              		.loc 1 263 59 view .LVU469
 1750              		.loc 1 264 5 view .LVU470
 1751 00ae 7868     		ldr	r0, [r7, #4]
 1752 00b0 2149     		ldr	r1, .L118+24
 1753 00b2 A0F10300 		sub	r0, #3
 1754 00b6 B0FA80F0 		clz	r0, r0
 1755 00ba 4009     		lsrs	r0, r0, #5
 1756 00bc FFF7FEFF 		bl	__test_assert
 1757              	.LVL159:
 1758 00c0 0028     		cmp	r0, #0
 1759 00c2 ABD1     		bne	.L112
 1760              		.loc 1 264 70 view .LVU471
 1761              		.loc 1 266 5 view .LVU472
 1762 00c4 3846     		mov	r0, r7
 1763 00c6 FFF7FEFF 		bl	chFactoryReleaseBuffer
 1764              	.LVL160:
 1765              		.loc 1 267 5 view .LVU473
 1766 00ca 7868     		ldr	r0, [r7, #4]
 1767 00cc 1B49     		ldr	r1, .L118+28
 1768 00ce A0F10200 		sub	r0, #2
 1769 00d2 B0FA80F0 		clz	r0, r0
 1770 00d6 4009     		lsrs	r0, r0, #5
 1771 00d8 FFF7FEFF 		bl	__test_assert
 1772              	.LVL161:
 1773 00dc 0028     		cmp	r0, #0
 1774 00de 9DD1     		bne	.L112
 1775              		.loc 1 267 64 view .LVU474
 1776              		.loc 1 269 5 view .LVU475
 1777 00e0 3846     		mov	r0, r7
 1778 00e2 FFF7FEFF 		bl	chFactoryReleaseBuffer
 1779              	.LVL162:
 1780              		.loc 1 270 5 view .LVU476
 1781 00e6 7068     		ldr	r0, [r6, #4]
 1782 00e8 1449     		ldr	r1, .L118+28
 1783 00ea 401B     		subs	r0, r0, r5
 1784 00ec B0FA80F0 		clz	r0, r0
 1785 00f0 4009     		lsrs	r0, r0, #5
 1786 00f2 FFF7FEFF 		bl	__test_assert
 1787              	.LVL163:
 1788 00f6 0028     		cmp	r0, #0
 1789 00f8 90D1     		bne	.L112
 1790              		.loc 1 270 63 view .LVU477
 1791              	.LBE140:
 1792              		.loc 1 272 3 view .LVU478
 1793              		.loc 1 272 19 view .LVU479
 1794              		.loc 1 276 3 view .LVU480
 1795 00fa 0523     		movs	r3, #5
 1796              		.loc 1 278 5 is_stmt 0 view .LVU481
 1797 00fc 3046     		mov	r0, r6
 1798              		.loc 1 276 3 view .LVU482
 1799 00fe 2360     		str	r3, [r4]
 1800              		.loc 1 278 5 is_stmt 1 view .LVU483
 1801 0100 FFF7FEFF 		bl	chFactoryReleaseBuffer
 1802              	.LVL164:
ARM GAS  C:\Users\DEVELO~1\AppData\Local\Temp\ccA2COIw.s 			page 33


 1803              		.loc 1 280 3 view .LVU484
 1804              		.loc 1 280 19 view .LVU485
 1805              		.loc 1 284 3 view .LVU486
 1806 0104 0623     		movs	r3, #6
 1807              		.loc 1 286 11 is_stmt 0 view .LVU487
 1808 0106 0748     		ldr	r0, .L118+4
 1809              		.loc 1 284 3 view .LVU488
 1810 0108 2360     		str	r3, [r4]
 1811              		.loc 1 286 5 is_stmt 1 view .LVU489
 1812              		.loc 1 286 11 is_stmt 0 view .LVU490
 1813 010a FFF7FEFF 		bl	chFactoryFindBuffer
 1814              	.LVL165:
 1815              		.loc 1 287 5 is_stmt 1 view .LVU491
 1816 010e B0FA80F0 		clz	r0, r0
 1817              	.LVL166:
 1818              		.loc 1 287 5 is_stmt 0 view .LVU492
 1819 0112 0549     		ldr	r1, .L118+8
 1820 0114 4009     		lsrs	r0, r0, #5
 1821              	.LBE132:
 1822              	.LBE131:
 1823              		.loc 1 290 1 view .LVU493
 1824 0116 BDE8F840 		pop	{r3, r4, r5, r6, r7, lr}
 1825              		.cfi_restore 14
 1826              		.cfi_restore 7
 1827              		.cfi_restore 6
 1828              		.cfi_restore 5
 1829              		.cfi_restore 4
 1830              		.cfi_restore 3
 1831              		.cfi_def_cfa_offset 0
 1832              	.LVL167:
 1833              	.LBB142:
 1834              	.LBB141:
 1835              		.loc 1 287 5 view .LVU494
 1836 011a FFF7FEBF 		b	__test_assert
 1837              	.LVL168:
 1838              	.L119:
 1839 011e 00BF     		.align	2
 1840              	.L118:
 1841 0120 00000000 		.word	chtest
 1842 0124 00000000 		.word	.LC4
 1843 0128 00000000 		.word	.LC6
 1844 012c 08000000 		.word	.LC7
 1845 0130 18000000 		.word	.LC8
 1846 0134 24000000 		.word	.LC9
 1847 0138 30000000 		.word	.LC10
 1848 013c 4C000000 		.word	.LC11
 1849              	.LBE141:
 1850              	.LBE142:
 1851              		.cfi_endproc
 1852              	.LFE439:
 1853              		.size	oslib_test_009_002_execute, .-oslib_test_009_002_execute
 1854              		.section	.rodata.oslib_test_009_001_execute.str1.4,"aMS",%progbits,1
 1855              		.align	2
 1856              	.LC12:
 1857 0000 63616E6E 		.ascii	"cannot register\000"
 1857      6F742072 
 1857      65676973 
ARM GAS  C:\Users\DEVELO~1\AppData\Local\Temp\ccA2COIw.s 			page 34


 1857      74657200 
 1858              		.align	2
 1859              	.LC13:
 1860 0010 63616E20 		.ascii	"can register\000"
 1860      72656769 
 1860      73746572 
 1860      00
 1861 001d 000000   		.align	2
 1862              	.LC14:
 1863 0020 6F626A65 		.ascii	"object mismatch\000"
 1863      6374206D 
 1863      69736D61 
 1863      74636800 
 1864              		.section	.text.oslib_test_009_001_execute,"ax",%progbits
 1865              		.align	1
 1866              		.p2align 4,,15
 1867              		.syntax unified
 1868              		.thumb
 1869              		.thumb_func
 1870              		.type	oslib_test_009_001_execute, %function
 1871              	oslib_test_009_001_execute:
 1872              	.LFB437:
 1873              		.loc 1 97 46 is_stmt 1 view -0
 1874              		.cfi_startproc
 1875              		@ args = 0, pretend = 0, frame = 0
 1876              		@ frame_needed = 0, uses_anonymous_args = 0
 1877              		.loc 1 98 3 view .LVU496
 1878              		.loc 1 101 3 view .LVU497
 1879              		.loc 1 97 46 is_stmt 0 view .LVU498
 1880 0000 2DE9F041 		push	{r4, r5, r6, r7, r8, lr}
 1881              		.cfi_def_cfa_offset 24
 1882              		.cfi_offset 4, -24
 1883              		.cfi_offset 5, -20
 1884              		.cfi_offset 6, -16
 1885              		.cfi_offset 7, -12
 1886              		.cfi_offset 8, -8
 1887              		.cfi_offset 14, -4
 1888              		.loc 1 101 3 view .LVU499
 1889 0004 534C     		ldr	r4, .L126
 1890 0006 0125     		movs	r5, #1
 1891              		.loc 1 103 11 view .LVU500
 1892 0008 5348     		ldr	r0, .L126+4
 1893              		.loc 1 101 3 view .LVU501
 1894 000a 2560     		str	r5, [r4]
 1895              		.loc 1 103 5 is_stmt 1 view .LVU502
 1896              		.loc 1 103 11 is_stmt 0 view .LVU503
 1897 000c FFF7FEFF 		bl	chFactoryFindObject
 1898              	.LVL169:
 1899              		.loc 1 104 5 is_stmt 1 view .LVU504
 1900 0010 B0FA80F0 		clz	r0, r0
 1901              	.LVL170:
 1902              		.loc 1 104 5 is_stmt 0 view .LVU505
 1903 0014 5149     		ldr	r1, .L126+8
 1904 0016 4009     		lsrs	r0, r0, #5
 1905 0018 FFF7FEFF 		bl	__test_assert
 1906              	.LVL171:
 1907 001c 08B1     		cbz	r0, .L125
ARM GAS  C:\Users\DEVELO~1\AppData\Local\Temp\ccA2COIw.s 			page 35


 1908              	.L120:
 1909              		.loc 1 171 1 view .LVU506
 1910 001e BDE8F081 		pop	{r4, r5, r6, r7, r8, pc}
 1911              	.L125:
 1912              	.LBB150:
 1913              	.LBI150:
 1914              		.loc 1 97 13 is_stmt 1 view .LVU507
 1915              	.LBB151:
 1916              		.loc 1 104 38 view .LVU508
 1917              		.loc 1 106 3 view .LVU509
 1918              		.loc 1 106 19 view .LVU510
 1919              		.loc 1 109 3 view .LVU511
 1920 0022 0223     		movs	r3, #2
 1921              	.LBB152:
 1922              		.loc 1 113 11 is_stmt 0 view .LVU512
 1923 0024 4E49     		ldr	r1, .L126+12
 1924 0026 4C48     		ldr	r0, .L126+4
 1925              	.LBE152:
 1926              		.loc 1 109 3 view .LVU513
 1927 0028 2360     		str	r3, [r4]
 1928              	.LBB153:
 1929              		.loc 1 111 5 is_stmt 1 view .LVU514
 1930              		.loc 1 113 5 view .LVU515
 1931              		.loc 1 113 11 is_stmt 0 view .LVU516
 1932 002a FFF7FEFF 		bl	chFactoryRegisterObject
 1933              	.LVL172:
 1934 002e 0646     		mov	r6, r0
 1935              	.LVL173:
 1936              		.loc 1 114 5 is_stmt 1 view .LVU517
 1937 0030 0038     		subs	r0, r0, #0
 1938              	.LVL174:
 1939              		.loc 1 114 5 is_stmt 0 view .LVU518
 1940 0032 4C49     		ldr	r1, .L126+16
 1941 0034 18BF     		it	ne
 1942 0036 0120     		movne	r0, #1
 1943 0038 FFF7FEFF 		bl	__test_assert
 1944              	.LVL175:
 1945 003c 0028     		cmp	r0, #0
 1946 003e EED1     		bne	.L120
 1947              		.loc 1 114 48 is_stmt 1 view .LVU519
 1948              	.LBE153:
 1949              		.loc 1 116 3 view .LVU520
 1950              		.loc 1 116 19 view .LVU521
 1951              		.loc 1 119 3 view .LVU522
 1952 0040 0323     		movs	r3, #3
 1953              	.LBB154:
 1954              		.loc 1 124 12 is_stmt 0 view .LVU523
 1955 0042 4949     		ldr	r1, .L126+20
 1956 0044 4448     		ldr	r0, .L126+4
 1957              	.LBE154:
 1958              		.loc 1 119 3 view .LVU524
 1959 0046 2360     		str	r3, [r4]
 1960              	.LBB155:
 1961              		.loc 1 121 5 is_stmt 1 view .LVU525
 1962              		.loc 1 122 5 view .LVU526
 1963              		.loc 1 124 5 view .LVU527
 1964              		.loc 1 124 12 is_stmt 0 view .LVU528
ARM GAS  C:\Users\DEVELO~1\AppData\Local\Temp\ccA2COIw.s 			page 36


 1965 0048 FFF7FEFF 		bl	chFactoryRegisterObject
 1966              	.LVL176:
 1967              		.loc 1 125 5 is_stmt 1 view .LVU529
 1968 004c B0FA80F0 		clz	r0, r0
 1969              	.LVL177:
 1970              		.loc 1 125 5 is_stmt 0 view .LVU530
 1971 0050 4649     		ldr	r1, .L126+24
 1972 0052 4009     		lsrs	r0, r0, #5
 1973 0054 FFF7FEFF 		bl	__test_assert
 1974              	.LVL178:
 1975 0058 0028     		cmp	r0, #0
 1976 005a E0D1     		bne	.L120
 1977              		.loc 1 125 46 is_stmt 1 view .LVU531
 1978              	.LBE155:
 1979              		.loc 1 127 3 view .LVU532
 1980              		.loc 1 127 19 view .LVU533
 1981              		.loc 1 132 3 view .LVU534
 1982 005c 0423     		movs	r3, #4
 1983              	.LBB156:
 1984              		.loc 1 136 12 is_stmt 0 view .LVU535
 1985 005e 3E48     		ldr	r0, .L126+4
 1986              	.LBE156:
 1987              		.loc 1 132 3 view .LVU536
 1988 0060 2360     		str	r3, [r4]
 1989              	.LBB161:
 1990              		.loc 1 134 5 is_stmt 1 view .LVU537
 1991              		.loc 1 136 5 view .LVU538
 1992              		.loc 1 136 12 is_stmt 0 view .LVU539
 1993 0062 FFF7FEFF 		bl	chFactoryFindObject
 1994              	.LVL179:
 1995 0066 0746     		mov	r7, r0
 1996              	.LVL180:
 1997              		.loc 1 137 5 is_stmt 1 view .LVU540
 1998 0068 0038     		subs	r0, r0, #0
 1999              	.LVL181:
 2000              		.loc 1 137 5 is_stmt 0 view .LVU541
 2001 006a 4149     		ldr	r1, .L126+28
 2002 006c 18BF     		it	ne
 2003 006e 0120     		movne	r0, #1
 2004 0070 FFF7FEFF 		bl	__test_assert
 2005              	.LVL182:
 2006 0074 0028     		cmp	r0, #0
 2007 0076 D2D1     		bne	.L120
 2008              		.loc 1 137 43 is_stmt 1 view .LVU542
 2009              		.loc 1 138 5 view .LVU543
 2010 0078 3B69     		ldr	r3, [r7, #16]
 2011 007a 45F2AA58 		movw	r8, #21930
 2012 007e 3D49     		ldr	r1, .L126+32
 2013 0080 1868     		ldr	r0, [r3]
 2014 0082 A0EB0800 		sub	r0, r0, r8
 2015 0086 B0FA80F0 		clz	r0, r0
 2016 008a 4009     		lsrs	r0, r0, #5
 2017 008c FFF7FEFF 		bl	__test_assert
 2018              	.LVL183:
 2019 0090 0028     		cmp	r0, #0
 2020 0092 C4D1     		bne	.L120
 2021              		.loc 1 138 72 view .LVU544
ARM GAS  C:\Users\DEVELO~1\AppData\Local\Temp\ccA2COIw.s 			page 37


 2022              		.loc 1 139 5 view .LVU545
 2023 0094 F01B     		subs	r0, r6, r7
 2024 0096 3849     		ldr	r1, .L126+36
 2025 0098 B0FA80F0 		clz	r0, r0
 2026 009c 4009     		lsrs	r0, r0, #5
 2027 009e FFF7FEFF 		bl	__test_assert
 2028              	.LVL184:
 2029 00a2 0028     		cmp	r0, #0
 2030 00a4 BBD1     		bne	.L120
 2031              		.loc 1 139 58 view .LVU546
 2032              		.loc 1 140 5 view .LVU547
 2033 00a6 7868     		ldr	r0, [r7, #4]
 2034 00a8 3349     		ldr	r1, .L126+36
 2035 00aa A0F10200 		sub	r0, #2
 2036 00ae B0FA80F0 		clz	r0, r0
 2037 00b2 4009     		lsrs	r0, r0, #5
 2038 00b4 FFF7FEFF 		bl	__test_assert
 2039              	.LVL185:
 2040 00b8 0028     		cmp	r0, #0
 2041 00ba B0D1     		bne	.L120
 2042              		.loc 1 140 70 view .LVU548
 2043              		.loc 1 142 5 view .LVU549
 2044              	.LVL186:
 2045              	.LBB157:
 2046              	.LBI157:
 2047              		.loc 2 409 30 view .LVU550
 2048              	.LBB158:
 2049              		.loc 2 411 3 view .LVU551
 2050              		.loc 2 411 12 is_stmt 0 view .LVU552
 2051 00bc 7B68     		ldr	r3, [r7, #4]
 2052              	.LBE158:
 2053              	.LBE157:
 2054              		.loc 1 143 5 view .LVU553
 2055 00be 2846     		mov	r0, r5
 2056 00c0 2D49     		ldr	r1, .L126+36
 2057              	.LBB160:
 2058              	.LBB159:
 2059              		.loc 2 411 12 view .LVU554
 2060 00c2 2B44     		add	r3, r3, r5
 2061 00c4 7B60     		str	r3, [r7, #4]
 2062              		.loc 2 413 3 is_stmt 1 view .LVU555
 2063              	.LVL187:
 2064              		.loc 2 413 3 is_stmt 0 view .LVU556
 2065              	.LBE159:
 2066              	.LBE160:
 2067              		.loc 1 143 5 is_stmt 1 view .LVU557
 2068 00c6 FFF7FEFF 		bl	__test_assert
 2069              	.LVL188:
 2070 00ca 0028     		cmp	r0, #0
 2071 00cc A7D1     		bne	.L120
 2072              		.loc 1 143 59 view .LVU558
 2073              		.loc 1 144 5 view .LVU559
 2074 00ce 3B69     		ldr	r3, [r7, #16]
 2075 00d0 2849     		ldr	r1, .L126+32
 2076 00d2 1868     		ldr	r0, [r3]
 2077 00d4 A0EB0800 		sub	r0, r0, r8
 2078 00d8 B0FA80F0 		clz	r0, r0
ARM GAS  C:\Users\DEVELO~1\AppData\Local\Temp\ccA2COIw.s 			page 38


 2079 00dc 4009     		lsrs	r0, r0, #5
 2080 00de FFF7FEFF 		bl	__test_assert
 2081              	.LVL189:
 2082 00e2 0028     		cmp	r0, #0
 2083 00e4 9BD1     		bne	.L120
 2084              		.loc 1 144 72 view .LVU560
 2085              		.loc 1 145 5 view .LVU561
 2086 00e6 7868     		ldr	r0, [r7, #4]
 2087 00e8 2349     		ldr	r1, .L126+36
 2088 00ea A0F10300 		sub	r0, #3
 2089 00ee B0FA80F0 		clz	r0, r0
 2090 00f2 4009     		lsrs	r0, r0, #5
 2091 00f4 FFF7FEFF 		bl	__test_assert
 2092              	.LVL190:
 2093 00f8 0028     		cmp	r0, #0
 2094 00fa 90D1     		bne	.L120
 2095              		.loc 1 145 70 view .LVU562
 2096              		.loc 1 147 5 view .LVU563
 2097 00fc 3846     		mov	r0, r7
 2098 00fe FFF7FEFF 		bl	chFactoryReleaseObject
 2099              	.LVL191:
 2100              		.loc 1 148 5 view .LVU564
 2101 0102 7868     		ldr	r0, [r7, #4]
 2102 0104 1D49     		ldr	r1, .L126+40
 2103 0106 821E     		subs	r2, r0, #2
 2104 0108 5042     		rsbs	r0, r2, #0
 2105 010a 5041     		adcs	r0, r0, r2
 2106 010c FFF7FEFF 		bl	__test_assert
 2107              	.LVL192:
 2108 0110 0028     		cmp	r0, #0
 2109 0112 84D1     		bne	.L120
 2110              		.loc 1 148 64 view .LVU565
 2111              		.loc 1 150 5 view .LVU566
 2112 0114 3846     		mov	r0, r7
 2113 0116 FFF7FEFF 		bl	chFactoryReleaseObject
 2114              	.LVL193:
 2115              		.loc 1 151 5 view .LVU567
 2116 011a 7068     		ldr	r0, [r6, #4]
 2117 011c 1749     		ldr	r1, .L126+40
 2118 011e 431B     		subs	r3, r0, r5
 2119 0120 5842     		rsbs	r0, r3, #0
 2120 0122 5841     		adcs	r0, r0, r3
 2121 0124 FFF7FEFF 		bl	__test_assert
 2122              	.LVL194:
 2123 0128 0028     		cmp	r0, #0
 2124 012a 7FF478AF 		bne	.L120
 2125              		.loc 1 151 63 view .LVU568
 2126              	.LBE161:
 2127              		.loc 1 153 3 view .LVU569
 2128              		.loc 1 153 19 view .LVU570
 2129              		.loc 1 157 3 view .LVU571
 2130 012e 0523     		movs	r3, #5
 2131              		.loc 1 159 5 is_stmt 0 view .LVU572
 2132 0130 3046     		mov	r0, r6
 2133              		.loc 1 157 3 view .LVU573
 2134 0132 2360     		str	r3, [r4]
 2135              		.loc 1 159 5 is_stmt 1 view .LVU574
ARM GAS  C:\Users\DEVELO~1\AppData\Local\Temp\ccA2COIw.s 			page 39


 2136 0134 FFF7FEFF 		bl	chFactoryReleaseObject
 2137              	.LVL195:
 2138              		.loc 1 161 3 view .LVU575
 2139              		.loc 1 161 19 view .LVU576
 2140              		.loc 1 165 3 view .LVU577
 2141 0138 0623     		movs	r3, #6
 2142              		.loc 1 167 11 is_stmt 0 view .LVU578
 2143 013a 0748     		ldr	r0, .L126+4
 2144              		.loc 1 165 3 view .LVU579
 2145 013c 2360     		str	r3, [r4]
 2146              		.loc 1 167 5 is_stmt 1 view .LVU580
 2147              		.loc 1 167 11 is_stmt 0 view .LVU581
 2148 013e FFF7FEFF 		bl	chFactoryFindObject
 2149              	.LVL196:
 2150              		.loc 1 168 5 is_stmt 1 view .LVU582
 2151 0142 B0FA80F0 		clz	r0, r0
 2152              	.LVL197:
 2153              		.loc 1 168 5 is_stmt 0 view .LVU583
 2154 0146 0549     		ldr	r1, .L126+8
 2155 0148 4009     		lsrs	r0, r0, #5
 2156              	.LBE151:
 2157              	.LBE150:
 2158              		.loc 1 171 1 view .LVU584
 2159 014a BDE8F041 		pop	{r4, r5, r6, r7, r8, lr}
 2160              		.cfi_restore 14
 2161              		.cfi_restore 8
 2162              		.cfi_restore 7
 2163              		.cfi_restore 6
 2164              		.cfi_restore 5
 2165              		.cfi_restore 4
 2166              		.cfi_def_cfa_offset 0
 2167              	.LVL198:
 2168              	.LBB163:
 2169              	.LBB162:
 2170              		.loc 1 168 5 view .LVU585
 2171 014e FFF7FEBF 		b	__test_assert
 2172              	.LVL199:
 2173              	.L127:
 2174 0152 00BF     		.align	2
 2175              	.L126:
 2176 0154 00000000 		.word	chtest
 2177 0158 00000000 		.word	.LC5
 2178 015c 00000000 		.word	.LC6
 2179 0160 00000000 		.word	.LANCHOR0
 2180 0164 00000000 		.word	.LC12
 2181 0168 00000000 		.word	.LANCHOR1
 2182 016c 10000000 		.word	.LC13
 2183 0170 24000000 		.word	.LC9
 2184 0174 20000000 		.word	.LC14
 2185 0178 30000000 		.word	.LC10
 2186 017c 4C000000 		.word	.LC11
 2187              	.LBE162:
 2188              	.LBE163:
 2189              		.cfi_endproc
 2190              	.LFE437:
 2191              		.size	oslib_test_009_001_execute, .-oslib_test_009_001_execute
 2192              		.global	oslib_test_sequence_009
ARM GAS  C:\Users\DEVELO~1\AppData\Local\Temp\ccA2COIw.s 			page 40


 2193              		.section	.rodata.str1.4,"aMS",%progbits,1
 2194              		.align	2
 2195              	.LC15:
 2196 0000 4F626A65 		.ascii	"Objects Factory\000"
 2196      63747320 
 2196      46616374 
 2196      6F727900 
 2197              		.global	oslib_test_sequence_009_array
 2198              		.align	2
 2199              	.LC16:
 2200 0010 44796E61 		.ascii	"Dynamic Pipes Factory\000"
 2200      6D696320 
 2200      50697065 
 2200      73204661 
 2200      63746F72 
 2201 0026 0000     		.align	2
 2202              	.LC17:
 2203 0028 44796E61 		.ascii	"Dynamic Objects FIFOs Factory\000"
 2203      6D696320 
 2203      4F626A65 
 2203      63747320 
 2203      4649464F 
 2204 0046 0000     		.align	2
 2205              	.LC18:
 2206 0048 44796E61 		.ascii	"Dynamic Mailboxes Factory\000"
 2206      6D696320 
 2206      4D61696C 
 2206      626F7865 
 2206      73204661 
 2207 0062 0000     		.align	2
 2208              	.LC19:
 2209 0064 44796E61 		.ascii	"Dynamic Semaphores Factory\000"
 2209      6D696320 
 2209      53656D61 
 2209      70686F72 
 2209      65732046 
 2210 007f 00       		.align	2
 2211              	.LC20:
 2212 0080 44796E61 		.ascii	"Dynamic Buffers Factory\000"
 2212      6D696320 
 2212      42756666 
 2212      65727320 
 2212      46616374 
 2213              		.align	2
 2214              	.LC21:
 2215 0098 4F626A65 		.ascii	"Objects Registry\000"
 2215      63747320 
 2215      52656769 
 2215      73747279 
 2215      00
 2216              		.section	.data.myobj.0,"aw"
 2217              		.align	2
 2218              		.set	.LANCHOR1,. + 0
 2219              		.type	myobj.0, %object
 2220              		.size	myobj.0, 4
 2221              	myobj.0:
 2222 0000 AA550000 		.word	21930
ARM GAS  C:\Users\DEVELO~1\AppData\Local\Temp\ccA2COIw.s 			page 41


 2223              		.section	.data.myobj.1,"aw"
 2224              		.align	2
 2225              		.set	.LANCHOR0,. + 0
 2226              		.type	myobj.1, %object
 2227              		.size	myobj.1, 4
 2228              	myobj.1:
 2229 0000 AA550000 		.word	21930
 2230              		.section	.rodata.oslib_test_009_001,"a"
 2231              		.align	2
 2232              		.type	oslib_test_009_001, %object
 2233              		.size	oslib_test_009_001, 16
 2234              	oslib_test_009_001:
 2235 0000 98000000 		.word	.LC21
 2236 0004 00000000 		.word	0
 2237 0008 00000000 		.word	oslib_test_009_001_teardown
 2238 000c 00000000 		.word	oslib_test_009_001_execute
 2239              		.section	.rodata.oslib_test_009_002,"a"
 2240              		.align	2
 2241              		.type	oslib_test_009_002, %object
 2242              		.size	oslib_test_009_002, 16
 2243              	oslib_test_009_002:
 2244 0000 80000000 		.word	.LC20
 2245 0004 00000000 		.word	0
 2246 0008 00000000 		.word	oslib_test_009_002_teardown
 2247 000c 00000000 		.word	oslib_test_009_002_execute
 2248              		.section	.rodata.oslib_test_009_003,"a"
 2249              		.align	2
 2250              		.type	oslib_test_009_003, %object
 2251              		.size	oslib_test_009_003, 16
 2252              	oslib_test_009_003:
 2253 0000 64000000 		.word	.LC19
 2254 0004 00000000 		.word	0
 2255 0008 00000000 		.word	oslib_test_009_003_teardown
 2256 000c 00000000 		.word	oslib_test_009_003_execute
 2257              		.section	.rodata.oslib_test_009_004,"a"
 2258              		.align	2
 2259              		.type	oslib_test_009_004, %object
 2260              		.size	oslib_test_009_004, 16
 2261              	oslib_test_009_004:
 2262 0000 48000000 		.word	.LC18
 2263 0004 00000000 		.word	0
 2264 0008 00000000 		.word	oslib_test_009_004_teardown
 2265 000c 00000000 		.word	oslib_test_009_004_execute
 2266              		.section	.rodata.oslib_test_009_005,"a"
 2267              		.align	2
 2268              		.type	oslib_test_009_005, %object
 2269              		.size	oslib_test_009_005, 16
 2270              	oslib_test_009_005:
 2271 0000 28000000 		.word	.LC17
 2272 0004 00000000 		.word	0
 2273 0008 00000000 		.word	oslib_test_009_005_teardown
 2274 000c 00000000 		.word	oslib_test_009_005_execute
 2275              		.section	.rodata.oslib_test_009_006,"a"
 2276              		.align	2
 2277              		.type	oslib_test_009_006, %object
 2278              		.size	oslib_test_009_006, 16
 2279              	oslib_test_009_006:
ARM GAS  C:\Users\DEVELO~1\AppData\Local\Temp\ccA2COIw.s 			page 42


 2280 0000 10000000 		.word	.LC16
 2281 0004 00000000 		.word	0
 2282 0008 00000000 		.word	oslib_test_009_006_teardown
 2283 000c 00000000 		.word	oslib_test_009_006_execute
 2284              		.section	.rodata.oslib_test_sequence_009,"a"
 2285              		.align	2
 2286              		.type	oslib_test_sequence_009, %object
 2287              		.size	oslib_test_sequence_009, 8
 2288              	oslib_test_sequence_009:
 2289 0000 00000000 		.word	.LC15
 2290 0004 00000000 		.word	oslib_test_sequence_009_array
 2291              		.section	.rodata.oslib_test_sequence_009_array,"a"
 2292              		.align	2
 2293              		.type	oslib_test_sequence_009_array, %object
 2294              		.size	oslib_test_sequence_009_array, 28
 2295              	oslib_test_sequence_009_array:
 2296 0000 00000000 		.word	oslib_test_009_001
 2297 0004 00000000 		.word	oslib_test_009_002
 2298 0008 00000000 		.word	oslib_test_009_003
 2299 000c 00000000 		.word	oslib_test_009_004
 2300 0010 00000000 		.word	oslib_test_009_005
 2301 0014 00000000 		.word	oslib_test_009_006
 2302 0018 00000000 		.word	0
 2303              		.text
 2304              	.Letext0:
 2305              		.file 3 "c:\\chibistudio\\tools\\gnu tools arm embedded\\11.3 2022.08\\lib\\gcc\\arm-none-eabi\\11
 2306              		.file 4 "c:\\chibistudio\\tools\\gnu tools arm embedded\\11.3 2022.08\\arm-none-eabi\\include\\mac
 2307              		.file 5 "c:\\chibistudio\\tools\\gnu tools arm embedded\\11.3 2022.08\\arm-none-eabi\\include\\sys
 2308              		.file 6 "../../../os/common/ports/ARM-common/chtypes.h"
 2309              		.file 7 "../../../os/rt/include/chearly.h"
 2310              		.file 8 "../../../os/rt/include/chobjects.h"
 2311              		.file 9 "../../../os/rt/include/chrfcu.h"
 2312              		.file 10 "../../../os/rt/include/chdebug.h"
 2313              		.file 11 "../../../os/rt/include/chtime.h"
 2314              		.file 12 "../../../os/rt/include/chlists.h"
 2315              		.file 13 "../../../os/rt/include/chtrace.h"
 2316              		.file 14 "../../../os/common/ports/ARMv7-M/chcore.h"
 2317              		.file 15 "../../../os/rt/include/chsem.h"
 2318              		.file 16 "../../../os/rt/include/chmtx.h"
 2319              		.file 17 "../../../os/oslib/include/chmboxes.h"
 2320              		.file 18 "../../../os/oslib/include/chmemcore.h"
 2321              		.file 19 "../../../os/oslib/include/chmempools.h"
 2322              		.file 20 "../../../os/oslib/include/chobjfifos.h"
 2323              		.file 21 "../../../os/oslib/include/chpipes.h"
 2324              		.file 22 "../../../os/hal/include/hal_streams.h"
 2325              		.file 23 "../../../os/test/include/ch_test.h"
 2326              		.file 24 "../../../test/oslib/source/test/oslib_test_sequence_009.h"