ARM GAS  C:\Users\DEVELO~1\AppData\Local\Temp\ccwxDZZb.s 			page 1


   1              		.cpu cortex-m7
   2              		.arch armv7e-m
   3              		.fpu softvfp
   4              		.eabi_attribute 20, 1
   5              		.eabi_attribute 21, 1
   6              		.eabi_attribute 23, 3
   7              		.eabi_attribute 24, 1
   8              		.eabi_attribute 25, 1
   9              		.eabi_attribute 26, 1
  10              		.eabi_attribute 30, 2
  11              		.eabi_attribute 34, 1
  12              		.eabi_attribute 18, 4
  13              		.file	"oslib_test_sequence_008.c"
  14              		.text
  15              	.Ltext0:
  16              		.cfi_sections	.debug_frame
  17              		.section	.rodata.oslib_test_008_002_execute.str1.4,"aMS",%progbits,1
  18              		.align	2
  19              	.LC0:
  20 0000 616C6C6F 		.ascii	"allocation failed\000"
  20      63617469 
  20      6F6E2066 
  20      61696C65 
  20      6400
  21 0012 0000     		.align	2
  22              	.LC1:
  23 0014 616C6C6F 		.ascii	"allocation not failed\000"
  23      63617469 
  23      6F6E206E 
  23      6F742066 
  23      61696C65 
  24              		.section	.text.oslib_test_008_002_execute,"ax",%progbits
  25              		.align	1
  26              		.p2align 4,,15
  27              		.syntax unified
  28              		.thumb
  29              		.thumb_func
  30              		.type	oslib_test_008_002_execute, %function
  31              	oslib_test_008_002_execute:
  32              	.LFB438:
  33              		.file 1 "../../../test/oslib/source/test/oslib_test_sequence_008.c"
  34              		.loc 1 240 46 view -0
  35              		.cfi_startproc
  36              		@ args = 0, pretend = 0, frame = 8
  37              		@ frame_needed = 0, uses_anonymous_args = 0
  38              		.loc 1 241 3 view .LVU1
  39              		.loc 1 242 3 view .LVU2
  40              		.loc 1 246 3 view .LVU3
  41              		.loc 1 240 46 is_stmt 0 view .LVU4
  42 0000 70B5     		push	{r4, r5, r6, lr}
  43              		.cfi_def_cfa_offset 16
  44              		.cfi_offset 4, -16
  45              		.cfi_offset 5, -12
  46              		.cfi_offset 6, -8
  47              		.cfi_offset 14, -4
  48 0002 82B0     		sub	sp, sp, #8
  49              		.cfi_def_cfa_offset 24
ARM GAS  C:\Users\DEVELO~1\AppData\Local\Temp\ccwxDZZb.s 			page 2


  50              		.loc 1 246 3 view .LVU5
  51 0004 0123     		movs	r3, #1
  52 0006 154E     		ldr	r6, .L6
  53              		.loc 1 248 11 view .LVU6
  54 0008 0020     		movs	r0, #0
  55 000a 01AA     		add	r2, sp, #4
  56 000c 6946     		mov	r1, sp
  57              		.loc 1 246 3 view .LVU7
  58 000e 3360     		str	r3, [r6]
  59              		.loc 1 248 5 is_stmt 1 view .LVU8
  60              		.loc 1 248 11 is_stmt 0 view .LVU9
  61 0010 FFF7FEFF 		bl	chHeapStatus
  62              	.LVL0:
  63              		.loc 1 249 5 is_stmt 1 view .LVU10
  64              	.LBB37:
  65              	.LBI37:
  66              		.file 2 "../../../os/oslib/include/chmemheaps.h"
  67              		.loc 2 154 21 view .LVU11
  68              	.LBB38:
  69              		.loc 2 156 3 view .LVU12
  70              		.loc 2 156 10 is_stmt 0 view .LVU13
  71 0014 1021     		movs	r1, #16
  72 0016 0822     		movs	r2, #8
  73 0018 1148     		ldr	r0, .L6+4
  74 001a FFF7FEFF 		bl	chHeapAllocAligned
  75              	.LVL1:
  76              		.loc 2 156 10 view .LVU14
  77 001e 0546     		mov	r5, r0
  78              	.LVL2:
  79              		.loc 2 156 10 view .LVU15
  80              	.LBE38:
  81              	.LBE37:
  82              		.loc 1 250 5 is_stmt 1 view .LVU16
  83 0020 0038     		subs	r0, r0, #0
  84              	.LVL3:
  85              		.loc 1 250 5 is_stmt 0 view .LVU17
  86 0022 1049     		ldr	r1, .L6+8
  87 0024 18BF     		it	ne
  88 0026 0120     		movne	r0, #1
  89 0028 FFF7FEFF 		bl	__test_assert
  90              	.LVL4:
  91 002c 08B1     		cbz	r0, .L5
  92              		.loc 1 262 1 view .LVU18
  93 002e 02B0     		add	sp, sp, #8
  94              		.cfi_remember_state
  95              		.cfi_def_cfa_offset 16
  96              		@ sp needed
  97 0030 70BD     		pop	{r4, r5, r6, pc}
  98              	.LVL5:
  99              	.L5:
 100              		.cfi_restore_state
 101              		.loc 1 250 49 is_stmt 1 discriminator 2 view .LVU19
 102              		.loc 1 251 5 discriminator 2 view .LVU20
 103 0032 0446     		mov	r4, r0
 104 0034 2846     		mov	r0, r5
 105 0036 FFF7FEFF 		bl	chHeapFree
 106              	.LVL6:
ARM GAS  C:\Users\DEVELO~1\AppData\Local\Temp\ccwxDZZb.s 			page 3


 107              		.loc 1 253 3 discriminator 2 view .LVU21
 108              		.loc 1 253 19 discriminator 2 view .LVU22
 109              		.loc 1 256 3 discriminator 2 view .LVU23
 110 003a 0223     		movs	r3, #2
 111              	.LBB39:
 112              	.LBB40:
 113              		.loc 2 156 10 is_stmt 0 discriminator 2 view .LVU24
 114 003c 0822     		movs	r2, #8
 115 003e 6FF0FF01 		mvn	r1, #255
 116 0042 2046     		mov	r0, r4
 117              	.LBE40:
 118              	.LBE39:
 119              		.loc 1 256 3 discriminator 2 view .LVU25
 120 0044 3360     		str	r3, [r6]
 121              		.loc 1 258 5 is_stmt 1 discriminator 2 view .LVU26
 122              	.LVL7:
 123              	.LBB42:
 124              	.LBI39:
 125              		.loc 2 154 21 discriminator 2 view .LVU27
 126              	.LBB41:
 127              		.loc 2 156 3 discriminator 2 view .LVU28
 128              		.loc 2 156 10 is_stmt 0 discriminator 2 view .LVU29
 129 0046 FFF7FEFF 		bl	chHeapAllocAligned
 130              	.LVL8:
 131              		.loc 2 156 10 discriminator 2 view .LVU30
 132              	.LBE41:
 133              	.LBE42:
 134              		.loc 1 259 5 is_stmt 1 discriminator 2 view .LVU31
 135 004a B0FA80F0 		clz	r0, r0
 136              	.LVL9:
 137              		.loc 1 259 5 is_stmt 0 discriminator 2 view .LVU32
 138 004e 0649     		ldr	r1, .L6+12
 139 0050 4009     		lsrs	r0, r0, #5
 140 0052 FFF7FEFF 		bl	__test_assert
 141              	.LVL10:
 142              		.loc 1 259 5 is_stmt 1 discriminator 2 view .LVU33
 143              		.loc 1 262 1 is_stmt 0 discriminator 2 view .LVU34
 144 0056 02B0     		add	sp, sp, #8
 145              		.cfi_def_cfa_offset 16
 146              		@ sp needed
 147 0058 70BD     		pop	{r4, r5, r6, pc}
 148              	.L7:
 149 005a 00BF     		.align	2
 150              	.L6:
 151 005c 00000000 		.word	chtest
 152 0060 00000000 		.word	.LANCHOR0
 153 0064 00000000 		.word	.LC0
 154 0068 14000000 		.word	.LC1
 155              		.cfi_endproc
 156              	.LFE438:
 157              		.size	oslib_test_008_002_execute, .-oslib_test_008_002_execute
 158              		.section	.rodata.oslib_test_008_001_execute.str1.4,"aMS",%progbits,1
 159              		.align	2
 160              	.LC2:
 161 0000 68656170 		.ascii	"heap fragmented\000"
 161      20667261 
 161      676D656E 
ARM GAS  C:\Users\DEVELO~1\AppData\Local\Temp\ccwxDZZb.s 			page 4


 161      74656400 
 162              		.align	2
 163              	.LC3:
 164 0010 6D697373 		.ascii	"missing free block\000"
 164      696E6720 
 164      66726565 
 164      20626C6F 
 164      636B00
 165 0023 00       		.align	2
 166              	.LC4:
 167 0024 756E6578 		.ascii	"unexpected heap state\000"
 167      70656374 
 167      65642068 
 167      65617020 
 167      73746174 
 168 003a 0000     		.align	2
 169              	.LC5:
 170 003c 696E7661 		.ascii	"invalid state\000"
 170      6C696420 
 170      73746174 
 170      6500
 171 004a 0000     		.align	2
 172              	.LC6:
 173 004c 6E6F7420 		.ascii	"not empty\000"
 173      656D7074 
 173      7900
 174 0056 0000     		.align	2
 175              	.LC7:
 176 0058 73697A65 		.ascii	"size changed\000"
 176      20636861 
 176      6E676564 
 176      00
 177              		.section	.text.oslib_test_008_001_execute,"ax",%progbits
 178              		.align	1
 179              		.p2align 4,,15
 180              		.syntax unified
 181              		.thumb
 182              		.thumb_func
 183              		.type	oslib_test_008_001_execute, %function
 184              	oslib_test_008_001_execute:
 185              	.LFB437:
 186              		.loc 1 94 46 is_stmt 1 view -0
 187              		.cfi_startproc
 188              		@ args = 0, pretend = 0, frame = 16
 189              		@ frame_needed = 0, uses_anonymous_args = 0
 190              		.loc 1 95 3 view .LVU36
 191              		.loc 1 96 3 view .LVU37
 192              		.loc 1 100 3 view .LVU38
 193              		.loc 1 94 46 is_stmt 0 view .LVU39
 194 0000 2DE9F041 		push	{r4, r5, r6, r7, r8, lr}
 195              		.cfi_def_cfa_offset 24
 196              		.cfi_offset 4, -24
 197              		.cfi_offset 5, -20
 198              		.cfi_offset 6, -16
 199              		.cfi_offset 7, -12
 200              		.cfi_offset 8, -8
 201              		.cfi_offset 14, -4
ARM GAS  C:\Users\DEVELO~1\AppData\Local\Temp\ccwxDZZb.s 			page 5


 202 0004 84B0     		sub	sp, sp, #16
 203              		.cfi_def_cfa_offset 40
 204              		.loc 1 100 3 view .LVU40
 205 0006 0123     		movs	r3, #1
 206 0008 C84C     		ldr	r4, .L18
 207              		.loc 1 102 5 view .LVU41
 208 000a 0022     		movs	r2, #0
 209 000c 01A9     		add	r1, sp, #4
 210 000e C848     		ldr	r0, .L18+4
 211              		.loc 1 100 3 view .LVU42
 212 0010 2360     		str	r3, [r4]
 213              		.loc 1 102 5 is_stmt 1 view .LVU43
 214 0012 FFF7FEFF 		bl	chHeapStatus
 215              	.LVL11:
 216 0016 A0F10100 		sub	r0, #1
 217 001a C649     		ldr	r1, .L18+8
 218 001c B0FA80F0 		clz	r0, r0
 219 0020 4009     		lsrs	r0, r0, #5
 220 0022 FFF7FEFF 		bl	__test_assert
 221              	.LVL12:
 222 0026 10B1     		cbz	r0, .L17
 223              	.L8:
 224              		.loc 1 217 1 is_stmt 0 view .LVU44
 225 0028 04B0     		add	sp, sp, #16
 226              		.cfi_remember_state
 227              		.cfi_def_cfa_offset 24
 228              		@ sp needed
 229 002a BDE8F081 		pop	{r4, r5, r6, r7, r8, pc}
 230              	.L17:
 231              		.cfi_restore_state
 232              		.loc 1 102 77 is_stmt 1 discriminator 2 view .LVU45
 233              		.loc 1 104 3 discriminator 2 view .LVU46
 234              		.loc 1 104 19 discriminator 2 view .LVU47
 235              		.loc 1 108 3 discriminator 2 view .LVU48
 236 002e 0223     		movs	r3, #2
 237              	.LBB43:
 238              	.LBB44:
 239              		.loc 2 156 10 is_stmt 0 discriminator 2 view .LVU49
 240 0030 4FF48071 		mov	r1, #256
 241 0034 0822     		movs	r2, #8
 242 0036 BE48     		ldr	r0, .L18+4
 243              	.LBE44:
 244              	.LBE43:
 245              		.loc 1 108 3 discriminator 2 view .LVU50
 246 0038 2360     		str	r3, [r4]
 247              		.loc 1 110 5 is_stmt 1 discriminator 2 view .LVU51
 248              	.LVL13:
 249              	.LBB46:
 250              	.LBI43:
 251              		.loc 2 154 21 discriminator 2 view .LVU52
 252              	.LBB45:
 253              		.loc 2 156 3 discriminator 2 view .LVU53
 254              		.loc 2 156 10 is_stmt 0 discriminator 2 view .LVU54
 255 003a FFF7FEFF 		bl	chHeapAllocAligned
 256              	.LVL14:
 257              		.loc 2 156 10 discriminator 2 view .LVU55
 258              	.LBE45:
ARM GAS  C:\Users\DEVELO~1\AppData\Local\Temp\ccwxDZZb.s 			page 6


 259              	.LBE46:
 260              		.loc 1 111 5 is_stmt 1 discriminator 2 view .LVU56
 261 003e B0FA80F0 		clz	r0, r0
 262              	.LVL15:
 263              		.loc 1 111 5 is_stmt 0 discriminator 2 view .LVU57
 264 0042 BD49     		ldr	r1, .L18+12
 265 0044 4009     		lsrs	r0, r0, #5
 266 0046 FFF7FEFF 		bl	__test_assert
 267              	.LVL16:
 268 004a 0028     		cmp	r0, #0
 269 004c ECD1     		bne	.L8
 270              		.loc 1 111 53 is_stmt 1 discriminator 2 view .LVU58
 271              		.loc 1 113 3 discriminator 2 view .LVU59
 272              		.loc 1 113 19 discriminator 2 view .LVU60
 273              		.loc 1 117 3 discriminator 2 view .LVU61
 274 004e 0323     		movs	r3, #3
 275              	.LBB47:
 276              	.LBB48:
 277              		.loc 2 156 10 is_stmt 0 discriminator 2 view .LVU62
 278 0050 1021     		movs	r1, #16
 279 0052 0822     		movs	r2, #8
 280 0054 B648     		ldr	r0, .L18+4
 281              	.LBE48:
 282              	.LBE47:
 283              		.loc 1 117 3 discriminator 2 view .LVU63
 284 0056 2360     		str	r3, [r4]
 285              		.loc 1 119 5 is_stmt 1 discriminator 2 view .LVU64
 286              	.LVL17:
 287              	.LBB50:
 288              	.LBI47:
 289              		.loc 2 154 21 discriminator 2 view .LVU65
 290              	.LBB49:
 291              		.loc 2 156 3 discriminator 2 view .LVU66
 292              		.loc 2 156 10 is_stmt 0 discriminator 2 view .LVU67
 293 0058 FFF7FEFF 		bl	chHeapAllocAligned
 294              	.LVL18:
 295              		.loc 2 156 10 discriminator 2 view .LVU68
 296 005c 0546     		mov	r5, r0
 297              	.LVL19:
 298              		.loc 2 156 10 discriminator 2 view .LVU69
 299              	.LBE49:
 300              	.LBE50:
 301              		.loc 1 120 5 is_stmt 1 discriminator 2 view .LVU70
 302 005e 0038     		subs	r0, r0, #0
 303              	.LVL20:
 304              		.loc 1 120 5 is_stmt 0 discriminator 2 view .LVU71
 305 0060 B649     		ldr	r1, .L18+16
 306 0062 18BF     		it	ne
 307 0064 0120     		movne	r0, #1
 308 0066 FFF7FEFF 		bl	__test_assert
 309              	.LVL21:
 310 006a 0028     		cmp	r0, #0
 311 006c DCD1     		bne	.L8
 312              		.loc 1 120 49 is_stmt 1 discriminator 2 view .LVU72
 313              		.loc 1 121 5 discriminator 2 view .LVU73
 314 006e 2846     		mov	r0, r5
 315 0070 FFF7FEFF 		bl	chHeapFree
ARM GAS  C:\Users\DEVELO~1\AppData\Local\Temp\ccwxDZZb.s 			page 7


 316              	.LVL22:
 317              		.loc 1 123 3 discriminator 2 view .LVU74
 318              		.loc 1 123 19 discriminator 2 view .LVU75
 319              		.loc 1 127 3 discriminator 2 view .LVU76
 320 0074 0423     		movs	r3, #4
 321              	.LBB51:
 322              		.loc 1 131 9 is_stmt 0 discriminator 2 view .LVU77
 323 0076 02A9     		add	r1, sp, #8
 324 0078 03AA     		add	r2, sp, #12
 325 007a AD48     		ldr	r0, .L18+4
 326              	.LBE51:
 327              		.loc 1 127 3 discriminator 2 view .LVU78
 328 007c 2360     		str	r3, [r4]
 329              	.LBB52:
 330              		.loc 1 129 5 is_stmt 1 discriminator 2 view .LVU79
 331              		.loc 1 131 5 discriminator 2 view .LVU80
 332              		.loc 1 131 9 is_stmt 0 discriminator 2 view .LVU81
 333 007e FFF7FEFF 		bl	chHeapStatus
 334              	.LVL23:
 335 0082 0346     		mov	r3, r0
 336              		.loc 1 132 5 discriminator 2 view .LVU82
 337 0084 A0F10100 		sub	r0, #1
 338 0088 AD49     		ldr	r1, .L18+20
 339 008a B0FA80F0 		clz	r0, r0
 340              		.loc 1 131 7 discriminator 2 view .LVU83
 341 008e 0093     		str	r3, [sp]
 342              		.loc 1 132 5 is_stmt 1 discriminator 2 view .LVU84
 343 0090 4009     		lsrs	r0, r0, #5
 344 0092 FFF7FEFF 		bl	__test_assert
 345              	.LVL24:
 346 0096 0028     		cmp	r0, #0
 347 0098 C6D1     		bne	.L8
 348              		.loc 1 132 46 discriminator 2 view .LVU85
 349              		.loc 1 133 5 discriminator 2 view .LVU86
 350 009a 0298     		ldr	r0, [sp, #8]
 351 009c A949     		ldr	r1, .L18+24
 352 009e 0F28     		cmp	r0, #15
 353 00a0 94BF     		ite	ls
 354 00a2 0020     		movls	r0, #0
 355 00a4 0120     		movhi	r0, #1
 356 00a6 FFF7FEFF 		bl	__test_assert
 357              	.LVL25:
 358 00aa 0028     		cmp	r0, #0
 359 00ac BCD1     		bne	.L8
 360              		.loc 1 133 67 discriminator 2 view .LVU87
 361              		.loc 1 134 5 discriminator 2 view .LVU88
 362 00ae A549     		ldr	r1, .L18+24
 363 00b0 DDE90203 		ldrd	r0, r3, [sp, #8]
 364 00b4 C01A     		subs	r0, r0, r3
 365 00b6 B0FA80F0 		clz	r0, r0
 366 00ba 4009     		lsrs	r0, r0, #5
 367 00bc FFF7FEFF 		bl	__test_assert
 368              	.LVL26:
 369 00c0 0546     		mov	r5, r0
 370              	.LVL27:
 371              		.loc 1 134 5 is_stmt 0 discriminator 2 view .LVU89
 372 00c2 0028     		cmp	r0, #0
ARM GAS  C:\Users\DEVELO~1\AppData\Local\Temp\ccwxDZZb.s 			page 8


 373 00c4 B0D1     		bne	.L8
 374              		.loc 1 134 69 is_stmt 1 discriminator 2 view .LVU90
 375              	.LBE52:
 376              		.loc 1 136 3 discriminator 2 view .LVU91
 377              		.loc 1 136 19 discriminator 2 view .LVU92
 378              		.loc 1 139 3 discriminator 2 view .LVU93
 379 00c6 0523     		movs	r3, #5
 380              	.LBB53:
 381              	.LBB54:
 382              		.loc 2 156 10 is_stmt 0 discriminator 2 view .LVU94
 383 00c8 0822     		movs	r2, #8
 384 00ca 1021     		movs	r1, #16
 385 00cc 9848     		ldr	r0, .L18+4
 386              	.LBE54:
 387              	.LBE53:
 388              		.loc 1 139 3 discriminator 2 view .LVU95
 389 00ce 2360     		str	r3, [r4]
 390              		.loc 1 141 5 is_stmt 1 discriminator 2 view .LVU96
 391              	.LVL28:
 392              	.LBB57:
 393              	.LBI53:
 394              		.loc 2 154 21 discriminator 2 view .LVU97
 395              	.LBB55:
 396              		.loc 2 156 3 discriminator 2 view .LVU98
 397              		.loc 2 156 10 is_stmt 0 discriminator 2 view .LVU99
 398 00d0 FFF7FEFF 		bl	chHeapAllocAligned
 399              	.LVL29:
 400              	.LBE55:
 401              	.LBE57:
 402              	.LBB58:
 403              	.LBB59:
 404 00d4 0822     		movs	r2, #8
 405 00d6 1021     		movs	r1, #16
 406              	.LBE59:
 407              	.LBE58:
 408              	.LBB62:
 409              	.LBB56:
 410 00d8 8046     		mov	r8, r0
 411              	.LVL30:
 412              		.loc 2 156 10 discriminator 2 view .LVU100
 413              	.LBE56:
 414              	.LBE62:
 415              		.loc 1 142 5 is_stmt 1 discriminator 2 view .LVU101
 416              	.LBB63:
 417              	.LBI58:
 418              		.loc 2 154 21 discriminator 2 view .LVU102
 419              	.LBB60:
 420              		.loc 2 156 3 discriminator 2 view .LVU103
 421              		.loc 2 156 10 is_stmt 0 discriminator 2 view .LVU104
 422 00da 9548     		ldr	r0, .L18+4
 423              	.LVL31:
 424              		.loc 2 156 10 discriminator 2 view .LVU105
 425 00dc FFF7FEFF 		bl	chHeapAllocAligned
 426              	.LVL32:
 427              	.LBE60:
 428              	.LBE63:
 429              	.LBB64:
ARM GAS  C:\Users\DEVELO~1\AppData\Local\Temp\ccwxDZZb.s 			page 9


 430              	.LBB65:
 431 00e0 0822     		movs	r2, #8
 432 00e2 1021     		movs	r1, #16
 433              	.LBE65:
 434              	.LBE64:
 435              	.LBB67:
 436              	.LBB61:
 437 00e4 0746     		mov	r7, r0
 438              	.LVL33:
 439              		.loc 2 156 10 discriminator 2 view .LVU106
 440              	.LBE61:
 441              	.LBE67:
 442              		.loc 1 143 5 is_stmt 1 discriminator 2 view .LVU107
 443              	.LBB68:
 444              	.LBI64:
 445              		.loc 2 154 21 discriminator 2 view .LVU108
 446              	.LBB66:
 447              		.loc 2 156 3 discriminator 2 view .LVU109
 448              		.loc 2 156 10 is_stmt 0 discriminator 2 view .LVU110
 449 00e6 9248     		ldr	r0, .L18+4
 450              	.LVL34:
 451              		.loc 2 156 10 discriminator 2 view .LVU111
 452 00e8 FFF7FEFF 		bl	chHeapAllocAligned
 453              	.LVL35:
 454 00ec 0646     		mov	r6, r0
 455              	.LBE66:
 456              	.LBE68:
 457              		.loc 1 144 5 discriminator 2 view .LVU112
 458 00ee 4046     		mov	r0, r8
 459              	.LVL36:
 460              		.loc 1 144 5 is_stmt 1 discriminator 2 view .LVU113
 461 00f0 FFF7FEFF 		bl	chHeapFree
 462              	.LVL37:
 463              		.loc 1 145 5 discriminator 2 view .LVU114
 464 00f4 3846     		mov	r0, r7
 465 00f6 FFF7FEFF 		bl	chHeapFree
 466              	.LVL38:
 467              		.loc 1 146 5 discriminator 2 view .LVU115
 468 00fa 3046     		mov	r0, r6
 469 00fc FFF7FEFF 		bl	chHeapFree
 470              	.LVL39:
 471              		.loc 1 147 5 discriminator 2 view .LVU116
 472 0100 2A46     		mov	r2, r5
 473 0102 6946     		mov	r1, sp
 474 0104 8A48     		ldr	r0, .L18+4
 475 0106 FFF7FEFF 		bl	chHeapStatus
 476              	.LVL40:
 477 010a A0F10100 		sub	r0, #1
 478 010e 8949     		ldr	r1, .L18+8
 479 0110 B0FA80F0 		clz	r0, r0
 480 0114 4009     		lsrs	r0, r0, #5
 481 0116 FFF7FEFF 		bl	__test_assert
 482              	.LVL41:
 483 011a 0546     		mov	r5, r0
 484 011c 0028     		cmp	r0, #0
 485 011e 83D1     		bne	.L8
 486              		.loc 1 147 76 view .LVU117
ARM GAS  C:\Users\DEVELO~1\AppData\Local\Temp\ccwxDZZb.s 			page 10


 487              		.loc 1 149 3 view .LVU118
 488              		.loc 1 149 19 view .LVU119
 489              		.loc 1 152 3 view .LVU120
 490 0120 0623     		movs	r3, #6
 491              	.LBB69:
 492              	.LBB70:
 493              		.loc 2 156 10 is_stmt 0 view .LVU121
 494 0122 0822     		movs	r2, #8
 495 0124 1021     		movs	r1, #16
 496 0126 8248     		ldr	r0, .L18+4
 497              	.LBE70:
 498              	.LBE69:
 499              		.loc 1 152 3 view .LVU122
 500 0128 2360     		str	r3, [r4]
 501              		.loc 1 154 5 is_stmt 1 view .LVU123
 502              	.LVL42:
 503              	.LBB73:
 504              	.LBI69:
 505              		.loc 2 154 21 view .LVU124
 506              	.LBB71:
 507              		.loc 2 156 3 view .LVU125
 508              		.loc 2 156 10 is_stmt 0 view .LVU126
 509 012a FFF7FEFF 		bl	chHeapAllocAligned
 510              	.LVL43:
 511              	.LBE71:
 512              	.LBE73:
 513              	.LBB74:
 514              	.LBB75:
 515 012e 0822     		movs	r2, #8
 516              	.LBE75:
 517              	.LBE74:
 518              	.LBB78:
 519              	.LBB72:
 520 0130 0646     		mov	r6, r0
 521              	.LVL44:
 522              		.loc 2 156 10 view .LVU127
 523              	.LBE72:
 524              	.LBE78:
 525              		.loc 1 155 5 is_stmt 1 view .LVU128
 526              	.LBB79:
 527              	.LBI74:
 528              		.loc 2 154 21 view .LVU129
 529              	.LBB76:
 530              		.loc 2 156 3 view .LVU130
 531              		.loc 2 156 10 is_stmt 0 view .LVU131
 532 0132 1021     		movs	r1, #16
 533 0134 7E48     		ldr	r0, .L18+4
 534              	.LVL45:
 535              		.loc 2 156 10 view .LVU132
 536 0136 FFF7FEFF 		bl	chHeapAllocAligned
 537              	.LVL46:
 538              	.LBE76:
 539              	.LBE79:
 540              	.LBB80:
 541              	.LBB81:
 542 013a 0822     		movs	r2, #8
 543 013c 1021     		movs	r1, #16
ARM GAS  C:\Users\DEVELO~1\AppData\Local\Temp\ccwxDZZb.s 			page 11


 544              	.LBE81:
 545              	.LBE80:
 546              	.LBB83:
 547              	.LBB77:
 548 013e 0746     		mov	r7, r0
 549              	.LVL47:
 550              		.loc 2 156 10 view .LVU133
 551              	.LBE77:
 552              	.LBE83:
 553              		.loc 1 156 5 is_stmt 1 view .LVU134
 554              	.LBB84:
 555              	.LBI80:
 556              		.loc 2 154 21 view .LVU135
 557              	.LBB82:
 558              		.loc 2 156 3 view .LVU136
 559              		.loc 2 156 10 is_stmt 0 view .LVU137
 560 0140 7B48     		ldr	r0, .L18+4
 561              	.LVL48:
 562              		.loc 2 156 10 view .LVU138
 563 0142 FFF7FEFF 		bl	chHeapAllocAligned
 564              	.LVL49:
 565              		.loc 2 156 10 view .LVU139
 566              	.LBE82:
 567              	.LBE84:
 568              		.loc 1 157 5 is_stmt 1 view .LVU140
 569 0146 FFF7FEFF 		bl	chHeapFree
 570              	.LVL50:
 571              		.loc 1 158 5 view .LVU141
 572 014a 3846     		mov	r0, r7
 573 014c FFF7FEFF 		bl	chHeapFree
 574              	.LVL51:
 575              		.loc 1 159 5 view .LVU142
 576 0150 3046     		mov	r0, r6
 577 0152 FFF7FEFF 		bl	chHeapFree
 578              	.LVL52:
 579              		.loc 1 160 5 view .LVU143
 580 0156 2A46     		mov	r2, r5
 581 0158 6946     		mov	r1, sp
 582 015a 7548     		ldr	r0, .L18+4
 583 015c FFF7FEFF 		bl	chHeapStatus
 584              	.LVL53:
 585 0160 A0F10100 		sub	r0, #1
 586 0164 7349     		ldr	r1, .L18+8
 587 0166 B0FA80F0 		clz	r0, r0
 588 016a 4009     		lsrs	r0, r0, #5
 589 016c FFF7FEFF 		bl	__test_assert
 590              	.LVL54:
 591 0170 0546     		mov	r5, r0
 592 0172 0028     		cmp	r0, #0
 593 0174 7FF458AF 		bne	.L8
 594              		.loc 1 160 76 discriminator 2 view .LVU144
 595              		.loc 1 162 3 discriminator 2 view .LVU145
 596              		.loc 1 162 19 discriminator 2 view .LVU146
 597              		.loc 1 166 3 discriminator 2 view .LVU147
 598 0178 0723     		movs	r3, #7
 599              	.LBB85:
 600              	.LBB86:
ARM GAS  C:\Users\DEVELO~1\AppData\Local\Temp\ccwxDZZb.s 			page 12


 601              		.loc 2 156 10 is_stmt 0 discriminator 2 view .LVU148
 602 017a 0822     		movs	r2, #8
 603 017c 1121     		movs	r1, #17
 604 017e 6C48     		ldr	r0, .L18+4
 605              	.LBE86:
 606              	.LBE85:
 607              		.loc 1 166 3 discriminator 2 view .LVU149
 608 0180 2360     		str	r3, [r4]
 609              		.loc 1 168 5 is_stmt 1 discriminator 2 view .LVU150
 610              	.LVL55:
 611              	.LBB89:
 612              	.LBI85:
 613              		.loc 2 154 21 discriminator 2 view .LVU151
 614              	.LBB87:
 615              		.loc 2 156 3 discriminator 2 view .LVU152
 616              		.loc 2 156 10 is_stmt 0 discriminator 2 view .LVU153
 617 0182 FFF7FEFF 		bl	chHeapAllocAligned
 618              	.LVL56:
 619              	.LBE87:
 620              	.LBE89:
 621              	.LBB90:
 622              	.LBB91:
 623 0186 0822     		movs	r2, #8
 624              	.LBE91:
 625              	.LBE90:
 626              	.LBB94:
 627              	.LBB88:
 628 0188 0646     		mov	r6, r0
 629              	.LVL57:
 630              		.loc 2 156 10 discriminator 2 view .LVU154
 631              	.LBE88:
 632              	.LBE94:
 633              		.loc 1 169 5 is_stmt 1 discriminator 2 view .LVU155
 634              	.LBB95:
 635              	.LBI90:
 636              		.loc 2 154 21 discriminator 2 view .LVU156
 637              	.LBB92:
 638              		.loc 2 156 3 discriminator 2 view .LVU157
 639              		.loc 2 156 10 is_stmt 0 discriminator 2 view .LVU158
 640 018a 1021     		movs	r1, #16
 641 018c 6848     		ldr	r0, .L18+4
 642              	.LVL58:
 643              		.loc 2 156 10 discriminator 2 view .LVU159
 644 018e FFF7FEFF 		bl	chHeapAllocAligned
 645              	.LVL59:
 646 0192 0346     		mov	r3, r0
 647              	.LBE92:
 648              	.LBE95:
 649              		.loc 1 170 5 discriminator 2 view .LVU160
 650 0194 3046     		mov	r0, r6
 651              	.LBB96:
 652              	.LBB93:
 653              		.loc 2 156 10 discriminator 2 view .LVU161
 654 0196 1E46     		mov	r6, r3
 655              	.LVL60:
 656              		.loc 2 156 10 discriminator 2 view .LVU162
 657              	.LBE93:
ARM GAS  C:\Users\DEVELO~1\AppData\Local\Temp\ccwxDZZb.s 			page 13


 658              	.LBE96:
 659              		.loc 1 170 5 is_stmt 1 discriminator 2 view .LVU163
 660 0198 FFF7FEFF 		bl	chHeapFree
 661              	.LVL61:
 662              		.loc 1 171 5 discriminator 2 view .LVU164
 663 019c 2A46     		mov	r2, r5
 664 019e 6946     		mov	r1, sp
 665 01a0 6348     		ldr	r0, .L18+4
 666 01a2 FFF7FEFF 		bl	chHeapStatus
 667              	.LVL62:
 668 01a6 A0F10200 		sub	r0, #2
 669 01aa 6749     		ldr	r1, .L18+28
 670 01ac B0FA80F0 		clz	r0, r0
 671 01b0 4009     		lsrs	r0, r0, #5
 672 01b2 FFF7FEFF 		bl	__test_assert
 673              	.LVL63:
 674 01b6 0546     		mov	r5, r0
 675 01b8 0028     		cmp	r0, #0
 676 01ba 7FF435AF 		bne	.L8
 677              		.loc 1 171 74 view .LVU165
 678              		.loc 1 172 5 view .LVU166
 679              	.LVL64:
 680              	.LBB97:
 681              	.LBI97:
 682              		.loc 2 154 21 view .LVU167
 683              	.LBB98:
 684              		.loc 2 156 3 view .LVU168
 685              		.loc 2 156 10 is_stmt 0 view .LVU169
 686 01be 0822     		movs	r2, #8
 687 01c0 1021     		movs	r1, #16
 688 01c2 5B48     		ldr	r0, .L18+4
 689 01c4 FFF7FEFF 		bl	chHeapAllocAligned
 690              	.LVL65:
 691              	.LBE98:
 692              	.LBE97:
 693              		.loc 1 175 5 view .LVU170
 694 01c8 2A46     		mov	r2, r5
 695              	.LBB100:
 696              	.LBB99:
 697              		.loc 2 156 10 view .LVU171
 698 01ca 0746     		mov	r7, r0
 699              	.LVL66:
 700              		.loc 2 156 10 view .LVU172
 701              	.LBE99:
 702              	.LBE100:
 703              		.loc 1 175 5 is_stmt 1 view .LVU173
 704 01cc 6946     		mov	r1, sp
 705 01ce 5848     		ldr	r0, .L18+4
 706              	.LVL67:
 707              		.loc 1 175 5 is_stmt 0 view .LVU174
 708 01d0 FFF7FEFF 		bl	chHeapStatus
 709              	.LVL68:
 710 01d4 0128     		cmp	r0, #1
 711 01d6 00F0A680 		beq	.L15
 712              		.loc 1 175 5 discriminator 2 view .LVU175
 713 01da 0022     		movs	r2, #0
 714 01dc 6946     		mov	r1, sp
ARM GAS  C:\Users\DEVELO~1\AppData\Local\Temp\ccwxDZZb.s 			page 14


 715 01de 5448     		ldr	r0, .L18+4
 716 01e0 FFF7FEFF 		bl	chHeapStatus
 717              	.LVL69:
 718 01e4 A0F10208 		sub	r8, r0, #2
 719 01e8 D8F10000 		rsbs	r0, r8, #0
 720 01ec 40EB0800 		adc	r0, r0, r8
 721              	.L14:
 722              		.loc 1 175 5 discriminator 6 view .LVU176
 723 01f0 5049     		ldr	r1, .L18+8
 724 01f2 FFF7FEFF 		bl	__test_assert
 725              	.LVL70:
 726 01f6 0546     		mov	r5, r0
 727 01f8 0028     		cmp	r0, #0
 728 01fa 7FF415AF 		bne	.L8
 729              		.loc 1 176 78 is_stmt 1 view .LVU177
 730              		.loc 1 177 5 view .LVU178
 731 01fe 3046     		mov	r0, r6
 732 0200 FFF7FEFF 		bl	chHeapFree
 733              	.LVL71:
 734              		.loc 1 178 5 view .LVU179
 735 0204 3846     		mov	r0, r7
 736 0206 FFF7FEFF 		bl	chHeapFree
 737              	.LVL72:
 738              		.loc 1 179 5 view .LVU180
 739 020a 2A46     		mov	r2, r5
 740 020c 6946     		mov	r1, sp
 741 020e 4848     		ldr	r0, .L18+4
 742 0210 FFF7FEFF 		bl	chHeapStatus
 743              	.LVL73:
 744 0214 00F1FF3E 		add	lr, r0, #-1
 745 0218 4649     		ldr	r1, .L18+8
 746 021a DEF10000 		rsbs	r0, lr, #0
 747 021e 40EB0E00 		adc	r0, r0, lr
 748 0222 FFF7FEFF 		bl	__test_assert
 749              	.LVL74:
 750 0226 0646     		mov	r6, r0
 751              	.LVL75:
 752              		.loc 1 179 5 is_stmt 0 view .LVU181
 753 0228 0028     		cmp	r0, #0
 754 022a 7FF4FDAE 		bne	.L8
 755              		.loc 1 179 76 is_stmt 1 discriminator 2 view .LVU182
 756              		.loc 1 181 3 discriminator 2 view .LVU183
 757              		.loc 1 181 19 discriminator 2 view .LVU184
 758              		.loc 1 185 3 discriminator 2 view .LVU185
 759 022e 0825     		movs	r5, #8
 760              	.LBB101:
 761              	.LBB102:
 762              		.loc 2 156 10 is_stmt 0 discriminator 2 view .LVU186
 763 0230 1021     		movs	r1, #16
 764 0232 3F48     		ldr	r0, .L18+4
 765 0234 2A46     		mov	r2, r5
 766              	.LBE102:
 767              	.LBE101:
 768              		.loc 1 185 3 discriminator 2 view .LVU187
 769 0236 2560     		str	r5, [r4]
 770              		.loc 1 187 5 is_stmt 1 discriminator 2 view .LVU188
 771              	.LVL76:
ARM GAS  C:\Users\DEVELO~1\AppData\Local\Temp\ccwxDZZb.s 			page 15


 772              	.LBB104:
 773              	.LBI101:
 774              		.loc 2 154 21 discriminator 2 view .LVU189
 775              	.LBB103:
 776              		.loc 2 156 3 discriminator 2 view .LVU190
 777              		.loc 2 156 10 is_stmt 0 discriminator 2 view .LVU191
 778 0238 FFF7FEFF 		bl	chHeapAllocAligned
 779              	.LVL77:
 780 023c 8046     		mov	r8, r0
 781              	.LVL78:
 782              		.loc 2 156 10 discriminator 2 view .LVU192
 783              	.LBE103:
 784              	.LBE104:
 785              		.loc 1 188 5 is_stmt 1 discriminator 2 view .LVU193
 786              	.LBB105:
 787              	.LBI105:
 788              		.loc 2 154 21 discriminator 2 view .LVU194
 789              	.LBB106:
 790              		.loc 2 156 3 discriminator 2 view .LVU195
 791              		.loc 2 156 10 is_stmt 0 discriminator 2 view .LVU196
 792 023e 2A46     		mov	r2, r5
 793 0240 1021     		movs	r1, #16
 794 0242 3B48     		ldr	r0, .L18+4
 795              	.LVL79:
 796              		.loc 2 156 10 discriminator 2 view .LVU197
 797 0244 FFF7FEFF 		bl	chHeapAllocAligned
 798              	.LVL80:
 799 0248 0746     		mov	r7, r0
 800              	.LBE106:
 801              	.LBE105:
 802              		.loc 1 189 5 discriminator 2 view .LVU198
 803 024a 4046     		mov	r0, r8
 804              	.LVL81:
 805              		.loc 1 189 5 is_stmt 1 discriminator 2 view .LVU199
 806 024c FFF7FEFF 		bl	chHeapFree
 807              	.LVL82:
 808              		.loc 1 190 5 discriminator 2 view .LVU200
 809 0250 3246     		mov	r2, r6
 810 0252 6946     		mov	r1, sp
 811 0254 3648     		ldr	r0, .L18+4
 812 0256 FFF7FEFF 		bl	chHeapStatus
 813              	.LVL83:
 814 025a A0F1020C 		sub	ip, r0, #2
 815 025e 3A49     		ldr	r1, .L18+28
 816 0260 DCF10000 		rsbs	r0, ip, #0
 817 0264 40EB0C00 		adc	r0, r0, ip
 818 0268 FFF7FEFF 		bl	__test_assert
 819              	.LVL84:
 820 026c 0646     		mov	r6, r0
 821 026e 0028     		cmp	r0, #0
 822 0270 7FF4DAAE 		bne	.L8
 823              		.loc 1 190 75 view .LVU201
 824              		.loc 1 191 5 view .LVU202
 825              	.LVL85:
 826              	.LBB107:
 827              	.LBI107:
 828              		.loc 2 154 21 view .LVU203
ARM GAS  C:\Users\DEVELO~1\AppData\Local\Temp\ccwxDZZb.s 			page 16


 829              	.LBB108:
 830              		.loc 2 156 3 view .LVU204
 831              		.loc 2 156 10 is_stmt 0 view .LVU205
 832 0274 2A46     		mov	r2, r5
 833 0276 2021     		movs	r1, #32
 834 0278 2D48     		ldr	r0, .L18+4
 835 027a FFF7FEFF 		bl	chHeapAllocAligned
 836              	.LVL86:
 837              		.loc 2 156 10 view .LVU206
 838              	.LBE108:
 839              	.LBE107:
 840              		.loc 1 192 5 is_stmt 1 view .LVU207
 841 027e FFF7FEFF 		bl	chHeapFree
 842              	.LVL87:
 843              		.loc 1 193 5 view .LVU208
 844 0282 3846     		mov	r0, r7
 845 0284 FFF7FEFF 		bl	chHeapFree
 846              	.LVL88:
 847              		.loc 1 194 5 view .LVU209
 848 0288 3246     		mov	r2, r6
 849 028a 6946     		mov	r1, sp
 850 028c 2848     		ldr	r0, .L18+4
 851 028e FFF7FEFF 		bl	chHeapStatus
 852              	.LVL89:
 853 0292 461E     		subs	r6, r0, #1
 854 0294 2749     		ldr	r1, .L18+8
 855 0296 7042     		rsbs	r0, r6, #0
 856 0298 7041     		adcs	r0, r0, r6
 857 029a FFF7FEFF 		bl	__test_assert
 858              	.LVL90:
 859 029e 0246     		mov	r2, r0
 860 02a0 0028     		cmp	r0, #0
 861 02a2 7FF4C1AE 		bne	.L8
 862              		.loc 1 194 76 discriminator 2 view .LVU210
 863              		.loc 1 196 3 discriminator 2 view .LVU211
 864              		.loc 1 196 19 discriminator 2 view .LVU212
 865              		.loc 1 199 3 discriminator 2 view .LVU213
 866 02a6 0923     		movs	r3, #9
 867              		.loc 1 201 11 is_stmt 0 discriminator 2 view .LVU214
 868 02a8 6946     		mov	r1, sp
 869 02aa 2148     		ldr	r0, .L18+4
 870              		.loc 1 199 3 discriminator 2 view .LVU215
 871 02ac 2360     		str	r3, [r4]
 872              		.loc 1 201 5 is_stmt 1 discriminator 2 view .LVU216
 873              		.loc 1 201 11 is_stmt 0 discriminator 2 view .LVU217
 874 02ae FFF7FEFF 		bl	chHeapStatus
 875              	.LVL91:
 876              		.loc 1 202 5 is_stmt 1 discriminator 2 view .LVU218
 877              	.LBB109:
 878              	.LBI109:
 879              		.loc 2 154 21 discriminator 2 view .LVU219
 880              	.LBB110:
 881              		.loc 2 156 3 discriminator 2 view .LVU220
 882              		.loc 2 156 10 is_stmt 0 discriminator 2 view .LVU221
 883 02b2 2A46     		mov	r2, r5
 884 02b4 0099     		ldr	r1, [sp]
 885 02b6 1E48     		ldr	r0, .L18+4
ARM GAS  C:\Users\DEVELO~1\AppData\Local\Temp\ccwxDZZb.s 			page 17


 886 02b8 FFF7FEFF 		bl	chHeapAllocAligned
 887              	.LVL92:
 888              		.loc 2 156 10 discriminator 2 view .LVU222
 889 02bc 0646     		mov	r6, r0
 890              	.LVL93:
 891              		.loc 2 156 10 discriminator 2 view .LVU223
 892              	.LBE110:
 893              	.LBE109:
 894              		.loc 1 203 5 is_stmt 1 discriminator 2 view .LVU224
 895 02be 0038     		subs	r0, r0, #0
 896              	.LVL94:
 897              		.loc 1 203 5 is_stmt 0 discriminator 2 view .LVU225
 898 02c0 1E49     		ldr	r1, .L18+16
 899 02c2 18BF     		it	ne
 900 02c4 0120     		movne	r0, #1
 901 02c6 FFF7FEFF 		bl	__test_assert
 902              	.LVL95:
 903 02ca 0246     		mov	r2, r0
 904 02cc 0028     		cmp	r0, #0
 905 02ce 7FF4ABAE 		bne	.L8
 906              		.loc 1 203 49 is_stmt 1 discriminator 2 view .LVU226
 907              		.loc 1 204 5 discriminator 2 view .LVU227
 908 02d2 0146     		mov	r1, r0
 909 02d4 1648     		ldr	r0, .L18+4
 910 02d6 FFF7FEFF 		bl	chHeapStatus
 911              	.LVL96:
 912 02da B0FA80F0 		clz	r0, r0
 913 02de 1B49     		ldr	r1, .L18+32
 914 02e0 4009     		lsrs	r0, r0, #5
 915 02e2 FFF7FEFF 		bl	__test_assert
 916              	.LVL97:
 917 02e6 0546     		mov	r5, r0
 918 02e8 0028     		cmp	r0, #0
 919 02ea 7FF49DAE 		bne	.L8
 920              		.loc 1 204 72 discriminator 2 view .LVU228
 921              		.loc 1 205 5 discriminator 2 view .LVU229
 922 02ee 3046     		mov	r0, r6
 923 02f0 FFF7FEFF 		bl	chHeapFree
 924              	.LVL98:
 925              		.loc 1 207 3 discriminator 2 view .LVU230
 926              		.loc 1 207 19 discriminator 2 view .LVU231
 927              		.loc 1 211 3 discriminator 2 view .LVU232
 928 02f4 0A23     		movs	r3, #10
 929              		.loc 1 213 5 is_stmt 0 discriminator 2 view .LVU233
 930 02f6 2A46     		mov	r2, r5
 931 02f8 6946     		mov	r1, sp
 932 02fa 0D48     		ldr	r0, .L18+4
 933              		.loc 1 211 3 discriminator 2 view .LVU234
 934 02fc 2360     		str	r3, [r4]
 935              		.loc 1 213 5 is_stmt 1 discriminator 2 view .LVU235
 936 02fe FFF7FEFF 		bl	chHeapStatus
 937              	.LVL99:
 938 0302 421E     		subs	r2, r0, #1
 939 0304 0B49     		ldr	r1, .L18+8
 940 0306 5042     		rsbs	r0, r2, #0
 941 0308 5041     		adcs	r0, r0, r2
 942 030a FFF7FEFF 		bl	__test_assert
ARM GAS  C:\Users\DEVELO~1\AppData\Local\Temp\ccwxDZZb.s 			page 18


 943              	.LVL100:
 944 030e 0028     		cmp	r0, #0
 945 0310 7FF48AAE 		bne	.L8
 946              		.loc 1 213 76 discriminator 2 view .LVU236
 947              		.loc 1 214 5 discriminator 2 view .LVU237
 948 0314 0E49     		ldr	r1, .L18+36
 949 0316 DDE90003 		ldrd	r0, r3, [sp]
 950 031a C31A     		subs	r3, r0, r3
 951 031c 5842     		rsbs	r0, r3, #0
 952 031e 5841     		adcs	r0, r0, r3
 953 0320 FFF7FEFF 		bl	__test_assert
 954              	.LVL101:
 955              		.loc 1 214 5 discriminator 2 view .LVU238
 956 0324 80E6     		b	.L8
 957              	.LVL102:
 958              	.L15:
 959              		.loc 1 175 5 is_stmt 0 view .LVU239
 960 0326 0120     		movs	r0, #1
 961 0328 62E7     		b	.L14
 962              	.L19:
 963 032a 00BF     		.align	2
 964              	.L18:
 965 032c 00000000 		.word	chtest
 966 0330 00000000 		.word	.LANCHOR0
 967 0334 00000000 		.word	.LC2
 968 0338 14000000 		.word	.LC1
 969 033c 00000000 		.word	.LC0
 970 0340 10000000 		.word	.LC3
 971 0344 24000000 		.word	.LC4
 972 0348 3C000000 		.word	.LC5
 973 034c 4C000000 		.word	.LC6
 974 0350 58000000 		.word	.LC7
 975              		.cfi_endproc
 976              	.LFE437:
 977              		.size	oslib_test_008_001_execute, .-oslib_test_008_001_execute
 978              		.section	.text.oslib_test_008_001_setup,"ax",%progbits
 979              		.align	1
 980              		.p2align 4,,15
 981              		.syntax unified
 982              		.thumb
 983              		.thumb_func
 984              		.type	oslib_test_008_001_setup, %function
 985              	oslib_test_008_001_setup:
 986              	.LFB436:
 987              		.loc 1 90 44 is_stmt 1 view -0
 988              		.cfi_startproc
 989              		@ args = 0, pretend = 0, frame = 0
 990              		@ frame_needed = 0, uses_anonymous_args = 0
 991              		@ link register save eliminated.
 992              		.loc 1 91 3 view .LVU241
 993 0000 8022     		movs	r2, #128
 994 0002 0249     		ldr	r1, .L21
 995 0004 0248     		ldr	r0, .L21+4
 996 0006 FFF7FEBF 		b	chHeapObjectInit
 997              	.LVL103:
 998              	.L22:
 999 000a 00BF     		.align	2
ARM GAS  C:\Users\DEVELO~1\AppData\Local\Temp\ccwxDZZb.s 			page 19


 1000              	.L21:
 1001 000c 00000000 		.word	.LANCHOR1
 1002 0010 00000000 		.word	.LANCHOR0
 1003              		.cfi_endproc
 1004              	.LFE436:
 1005              		.size	oslib_test_008_001_setup, .-oslib_test_008_001_setup
 1006              		.global	oslib_test_sequence_008
 1007              		.section	.rodata.str1.4,"aMS",%progbits,1
 1008              		.align	2
 1009              	.LC8:
 1010 0000 4D656D6F 		.ascii	"Memory Heaps\000"
 1010      72792048 
 1010      65617073 
 1010      00
 1011              		.global	oslib_test_sequence_008_array
 1012 000d 000000   		.align	2
 1013              	.LC9:
 1014 0010 44656661 		.ascii	"Default Heap\000"
 1014      756C7420 
 1014      48656170 
 1014      00
 1015 001d 000000   		.align	2
 1016              	.LC10:
 1017 0020 416C6C6F 		.ascii	"Allocation and fragmentation\000"
 1017      63617469 
 1017      6F6E2061 
 1017      6E642066 
 1017      7261676D 
 1018              		.section	.bss.test_heap,"aw",%nobits
 1019              		.align	2
 1020              		.set	.LANCHOR0,. + 0
 1021              		.type	test_heap, %object
 1022              		.size	test_heap, 28
 1023              	test_heap:
 1024 0000 00000000 		.space	28
 1024      00000000 
 1024      00000000 
 1024      00000000 
 1024      00000000 
 1025              		.section	.bss.test_heap_buffer,"aw",%nobits
 1026              		.align	2
 1027              		.set	.LANCHOR1,. + 0
 1028              		.type	test_heap_buffer, %object
 1029              		.size	test_heap_buffer, 128
 1030              	test_heap_buffer:
 1031 0000 00000000 		.space	128
 1031      00000000 
 1031      00000000 
 1031      00000000 
 1031      00000000 
 1032              		.section	.rodata.oslib_test_008_001,"a"
 1033              		.align	2
 1034              		.type	oslib_test_008_001, %object
 1035              		.size	oslib_test_008_001, 16
 1036              	oslib_test_008_001:
 1037 0000 20000000 		.word	.LC10
 1038 0004 00000000 		.word	oslib_test_008_001_setup
ARM GAS  C:\Users\DEVELO~1\AppData\Local\Temp\ccwxDZZb.s 			page 20


 1039 0008 00000000 		.word	0
 1040 000c 00000000 		.word	oslib_test_008_001_execute
 1041              		.section	.rodata.oslib_test_008_002,"a"
 1042              		.align	2
 1043              		.type	oslib_test_008_002, %object
 1044              		.size	oslib_test_008_002, 16
 1045              	oslib_test_008_002:
 1046 0000 10000000 		.word	.LC9
 1047 0004 00000000 		.word	0
 1048 0008 00000000 		.word	0
 1049 000c 00000000 		.word	oslib_test_008_002_execute
 1050              		.section	.rodata.oslib_test_sequence_008,"a"
 1051              		.align	2
 1052              		.type	oslib_test_sequence_008, %object
 1053              		.size	oslib_test_sequence_008, 8
 1054              	oslib_test_sequence_008:
 1055 0000 00000000 		.word	.LC8
 1056 0004 00000000 		.word	oslib_test_sequence_008_array
 1057              		.section	.rodata.oslib_test_sequence_008_array,"a"
 1058              		.align	2
 1059              		.type	oslib_test_sequence_008_array, %object
 1060              		.size	oslib_test_sequence_008_array, 12
 1061              	oslib_test_sequence_008_array:
 1062 0000 00000000 		.word	oslib_test_008_001
 1063 0004 00000000 		.word	oslib_test_008_002
 1064 0008 00000000 		.word	0
 1065              		.text
 1066              	.Letext0:
 1067              		.file 3 "c:\\chibistudio\\tools\\gnu tools arm embedded\\11.3 2022.08\\lib\\gcc\\arm-none-eabi\\11
 1068              		.file 4 "c:\\chibistudio\\tools\\gnu tools arm embedded\\11.3 2022.08\\arm-none-eabi\\include\\mac
 1069              		.file 5 "c:\\chibistudio\\tools\\gnu tools arm embedded\\11.3 2022.08\\arm-none-eabi\\include\\sys
 1070              		.file 6 "../../../os/common/ports/ARM-common/chtypes.h"
 1071              		.file 7 "../../../os/rt/include/chearly.h"
 1072              		.file 8 "../../../os/rt/include/chobjects.h"
 1073              		.file 9 "../../../os/rt/include/chrfcu.h"
 1074              		.file 10 "../../../os/rt/include/chdebug.h"
 1075              		.file 11 "../../../os/rt/include/chtime.h"
 1076              		.file 12 "../../../os/rt/include/chlists.h"
 1077              		.file 13 "../../../os/rt/include/chtrace.h"
 1078              		.file 14 "../../../os/common/ports/ARMv7-M/chcore.h"
 1079              		.file 15 "../../../os/rt/include/chsem.h"
 1080              		.file 16 "../../../os/rt/include/chmtx.h"
 1081              		.file 17 "../../../os/oslib/include/chmemcore.h"
 1082              		.file 18 "../../../os/hal/include/hal_streams.h"
 1083              		.file 19 "../../../os/test/include/ch_test.h"
 1084              		.file 20 "../../../test/oslib/source/test/oslib_test_sequence_008.h"