ARM GAS  C:\Users\DEVELO~1\AppData\Local\Temp\cciogy9W.s 			page 1


   1              		.cpu cortex-m7
   2              		.arch armv7e-m
   3              		.fpu softvfp
   4              		.eabi_attribute 20, 1
   5              		.eabi_attribute 21, 1
   6              		.eabi_attribute 23, 3
   7              		.eabi_attribute 24, 1
   8              		.eabi_attribute 25, 1
   9              		.eabi_attribute 26, 1
  10              		.eabi_attribute 30, 2
  11              		.eabi_attribute 34, 1
  12              		.eabi_attribute 18, 4
  13              		.file	"oslib_test_sequence_001.c"
  14              		.text
  15              	.Ltext0:
  16              		.cfi_sections	.debug_frame
  17              		.section	.rodata.oslib_test_001_003_execute.str1.4,"aMS",%progbits,1
  18              		.align	2
  19              	.LC0:
  20 0000 2D2D2D20 		.ascii	"--- CH_CFG_USE_MAILBOXES:               \000"
  20      43485F43 
  20      46475F55 
  20      53455F4D 
  20      41494C42 
  21 0029 000000   		.align	2
  22              	.LC1:
  23 002c 257300   		.ascii	"%s\000"
  24 002f 00       		.align	2
  25              	.LC2:
  26 0030 257500   		.ascii	"%u\000"
  27 0033 00       		.align	2
  28              	.LC3:
  29 0034 00       		.ascii	"\000"
  30 0035 000000   		.align	2
  31              	.LC4:
  32 0038 25730D0A 		.ascii	"%s\015\012\000"
  32      00
  33 003d 000000   		.align	2
  34              	.LC5:
  35 0040 2D2D2D20 		.ascii	"--- CH_CFG_USE_MEMCORE:                 \000"
  35      43485F43 
  35      46475F55 
  35      53455F4D 
  35      454D434F 
  36 0069 000000   		.align	2
  37              	.LC6:
  38 006c 2D2D2D20 		.ascii	"--- CH_CFG_USE_HEAP:                    \000"
  38      43485F43 
  38      46475F55 
  38      53455F48 
  38      4541503A 
  39 0095 000000   		.align	2
  40              	.LC7:
  41 0098 2D2D2D20 		.ascii	"--- CH_CFG_USE_MEMPOOLS:                \000"
  41      43485F43 
  41      46475F55 
  41      53455F4D 
ARM GAS  C:\Users\DEVELO~1\AppData\Local\Temp\cciogy9W.s 			page 2


  41      454D504F 
  42 00c1 000000   		.align	2
  43              	.LC8:
  44 00c4 2D2D2D20 		.ascii	"--- CH_CFG_USE_OBJ_FIFOS:               \000"
  44      43485F43 
  44      46475F55 
  44      53455F4F 
  44      424A5F46 
  45 00ed 000000   		.align	2
  46              	.LC9:
  47 00f0 2D2D2D20 		.ascii	"--- CH_CFG_USE_PIPES:                   \000"
  47      43485F43 
  47      46475F55 
  47      53455F50 
  47      49504553 
  48 0119 000000   		.align	2
  49              	.LC10:
  50 011c 2D2D2D20 		.ascii	"--- CH_CFG_USE_OBJ_CACHES:              \000"
  50      43485F43 
  50      46475F55 
  50      53455F4F 
  50      424A5F43 
  51 0145 000000   		.align	2
  52              	.LC11:
  53 0148 2D2D2D20 		.ascii	"--- CH_CFG_USE_DELEGATES:               \000"
  53      43485F43 
  53      46475F55 
  53      53455F44 
  53      454C4547 
  54 0171 000000   		.align	2
  55              	.LC12:
  56 0174 2D2D2D20 		.ascii	"--- CH_CFG_USE_FACTORY:                 \000"
  56      43485F43 
  56      46475F55 
  56      53455F46 
  56      4143544F 
  57 019d 000000   		.align	2
  58              	.LC13:
  59 01a0 2D2D2D20 		.ascii	"--- CH_CFG_FACTORY_MAX_NAMES_LENGTH:    \000"
  59      43485F43 
  59      46475F46 
  59      4143544F 
  59      52595F4D 
  60 01c9 000000   		.align	2
  61              	.LC14:
  62 01cc 2D2D2D20 		.ascii	"--- CH_CFG_FACTORY_OBJECTS_REGISTRY:    \000"
  62      43485F43 
  62      46475F46 
  62      4143544F 
  62      52595F4F 
  63 01f5 000000   		.align	2
  64              	.LC15:
  65 01f8 2D2D2D20 		.ascii	"--- CH_CFG_FACTORY_GENERIC_BUFFERS:     \000"
  65      43485F43 
  65      46475F46 
  65      4143544F 
  65      52595F47 
ARM GAS  C:\Users\DEVELO~1\AppData\Local\Temp\cciogy9W.s 			page 3


  66 0221 000000   		.align	2
  67              	.LC16:
  68 0224 2D2D2D20 		.ascii	"--- CH_CFG_FACTORY_SEMAPHORES:          \000"
  68      43485F43 
  68      46475F46 
  68      4143544F 
  68      52595F53 
  69 024d 000000   		.align	2
  70              	.LC17:
  71 0250 2D2D2D20 		.ascii	"--- CH_CFG_FACTORY_MAILBOXES:           \000"
  71      43485F43 
  71      46475F46 
  71      4143544F 
  71      52595F4D 
  72 0279 000000   		.align	2
  73              	.LC18:
  74 027c 2D2D2D20 		.ascii	"--- CH_CFG_FACTORY_OBJ_FIFOS:           \000"
  74      43485F43 
  74      46475F46 
  74      4143544F 
  74      52595F4F 
  75 02a5 000000   		.align	2
  76              	.LC19:
  77 02a8 2D2D2D20 		.ascii	"--- CH_CFG_FACTORY_PIPES:               \000"
  77      43485F43 
  77      46475F46 
  77      4143544F 
  77      52595F50 
  78              		.section	.text.oslib_test_001_003_execute,"ax",%progbits
  79              		.align	1
  80              		.p2align 4,,15
  81              		.syntax unified
  82              		.thumb
  83              		.thumb_func
  84              		.type	oslib_test_001_003_execute, %function
  85              	oslib_test_001_003_execute:
  86              	.LFB438:
  87              		.file 1 "../../../test/oslib/source/test/oslib_test_sequence_001.c"
  88              		.loc 1 160 46 view -0
  89              		.cfi_startproc
  90              		@ args = 0, pretend = 0, frame = 0
  91              		@ frame_needed = 0, uses_anonymous_args = 0
  92              		.loc 1 163 3 view .LVU1
  93              		.loc 1 160 46 is_stmt 0 view .LVU2
  94 0000 2DE9F041 		push	{r4, r5, r6, r7, r8, lr}
  95              		.cfi_def_cfa_offset 24
  96              		.cfi_offset 4, -24
  97              		.cfi_offset 5, -20
  98              		.cfi_offset 6, -16
  99              		.cfi_offset 7, -12
 100              		.cfi_offset 8, -8
 101              		.cfi_offset 14, -4
 102              	.LBB162:
 103              	.LBB163:
 104              		.file 2 "../../../os/test/include/ch_test.h"
 105              		.loc 2 371 3 view .LVU3
 106 0004 DFF89081 		ldr	r8, .L4
ARM GAS  C:\Users\DEVELO~1\AppData\Local\Temp\cciogy9W.s 			page 4


 107              	.LBE163:
 108              	.LBE162:
 109              		.loc 1 163 3 view .LVU4
 110 0008 0127     		movs	r7, #1
 111 000a 644B     		ldr	r3, .L4+4
 112              	.LBB167:
 113              	.LBB168:
 114              		.loc 2 359 3 view .LVU5
 115 000c 644E     		ldr	r6, .L4+8
 116              	.LBE168:
 117              	.LBE167:
 118              	.LBB170:
 119              	.LBB164:
 120              		.loc 2 371 3 view .LVU6
 121 000e 4046     		mov	r0, r8
 122              	.LBE164:
 123              	.LBE170:
 124              	.LBB171:
 125              	.LBB172:
 126              		.loc 2 383 3 view .LVU7
 127 0010 644D     		ldr	r5, .L4+12
 128 0012 654C     		ldr	r4, .L4+16
 129              	.LBE172:
 130              	.LBE171:
 131              	.LBB174:
 132              	.LBB165:
 133              		.loc 2 371 3 view .LVU8
 134 0014 6549     		ldr	r1, .L4+20
 135              	.LBE165:
 136              	.LBE174:
 137              		.loc 1 163 3 view .LVU9
 138 0016 1F60     		str	r7, [r3]
 139              		.loc 1 165 5 is_stmt 1 view .LVU10
 140              	.LVL0:
 141              	.LBB175:
 142              	.LBI162:
 143              		.loc 2 369 20 view .LVU11
 144              	.LBB166:
 145              		.loc 2 371 3 view .LVU12
 146 0018 FFF7FEFF 		bl	test_printf
 147              	.LVL1:
 148              		.loc 2 371 3 is_stmt 0 view .LVU13
 149              	.LBE166:
 150              	.LBE175:
 151              		.loc 1 166 5 is_stmt 1 view .LVU14
 152              	.LBB176:
 153              	.LBI167:
 154              		.loc 2 357 20 view .LVU15
 155              	.LBB169:
 156              		.loc 2 359 3 view .LVU16
 157 001c 3946     		mov	r1, r7
 158 001e 3046     		mov	r0, r6
 159 0020 FFF7FEFF 		bl	test_printf
 160              	.LVL2:
 161              		.loc 2 359 3 is_stmt 0 view .LVU17
 162              	.LBE169:
 163              	.LBE176:
ARM GAS  C:\Users\DEVELO~1\AppData\Local\Temp\cciogy9W.s 			page 5


 164              		.loc 1 167 5 is_stmt 1 view .LVU18
 165              	.LBB177:
 166              	.LBI171:
 167              		.loc 2 381 20 view .LVU19
 168              	.LBB173:
 169              		.loc 2 383 3 view .LVU20
 170 0024 2946     		mov	r1, r5
 171 0026 2046     		mov	r0, r4
 172 0028 FFF7FEFF 		bl	test_printf
 173              	.LVL3:
 174              		.loc 2 383 3 is_stmt 0 view .LVU21
 175              	.LBE173:
 176              	.LBE177:
 177              		.loc 1 168 5 is_stmt 1 view .LVU22
 178              	.LBB178:
 179              	.LBI178:
 180              		.loc 2 369 20 view .LVU23
 181              	.LBB179:
 182              		.loc 2 371 3 view .LVU24
 183 002c 6049     		ldr	r1, .L4+24
 184 002e 4046     		mov	r0, r8
 185 0030 FFF7FEFF 		bl	test_printf
 186              	.LVL4:
 187              		.loc 2 371 3 is_stmt 0 view .LVU25
 188              	.LBE179:
 189              	.LBE178:
 190              		.loc 1 169 5 is_stmt 1 view .LVU26
 191              	.LBB180:
 192              	.LBI180:
 193              		.loc 2 357 20 view .LVU27
 194              	.LBB181:
 195              		.loc 2 359 3 view .LVU28
 196 0034 3946     		mov	r1, r7
 197 0036 3046     		mov	r0, r6
 198 0038 FFF7FEFF 		bl	test_printf
 199              	.LVL5:
 200              		.loc 2 359 3 is_stmt 0 view .LVU29
 201              	.LBE181:
 202              	.LBE180:
 203              		.loc 1 170 5 is_stmt 1 view .LVU30
 204              	.LBB182:
 205              	.LBI182:
 206              		.loc 2 381 20 view .LVU31
 207              	.LBB183:
 208              		.loc 2 383 3 view .LVU32
 209 003c 2946     		mov	r1, r5
 210 003e 2046     		mov	r0, r4
 211 0040 FFF7FEFF 		bl	test_printf
 212              	.LVL6:
 213              		.loc 2 383 3 is_stmt 0 view .LVU33
 214              	.LBE183:
 215              	.LBE182:
 216              		.loc 1 171 5 is_stmt 1 view .LVU34
 217              	.LBB184:
 218              	.LBI184:
 219              		.loc 2 369 20 view .LVU35
 220              	.LBB185:
ARM GAS  C:\Users\DEVELO~1\AppData\Local\Temp\cciogy9W.s 			page 6


 221              		.loc 2 371 3 view .LVU36
 222 0044 5B49     		ldr	r1, .L4+28
 223 0046 4046     		mov	r0, r8
 224 0048 FFF7FEFF 		bl	test_printf
 225              	.LVL7:
 226              		.loc 2 371 3 is_stmt 0 view .LVU37
 227              	.LBE185:
 228              	.LBE184:
 229              		.loc 1 172 5 is_stmt 1 view .LVU38
 230              	.LBB186:
 231              	.LBI186:
 232              		.loc 2 357 20 view .LVU39
 233              	.LBB187:
 234              		.loc 2 359 3 view .LVU40
 235 004c 3946     		mov	r1, r7
 236 004e 3046     		mov	r0, r6
 237 0050 FFF7FEFF 		bl	test_printf
 238              	.LVL8:
 239              		.loc 2 359 3 is_stmt 0 view .LVU41
 240              	.LBE187:
 241              	.LBE186:
 242              		.loc 1 173 5 is_stmt 1 view .LVU42
 243              	.LBB188:
 244              	.LBI188:
 245              		.loc 2 381 20 view .LVU43
 246              	.LBB189:
 247              		.loc 2 383 3 view .LVU44
 248 0054 2946     		mov	r1, r5
 249 0056 2046     		mov	r0, r4
 250 0058 FFF7FEFF 		bl	test_printf
 251              	.LVL9:
 252              		.loc 2 383 3 is_stmt 0 view .LVU45
 253              	.LBE189:
 254              	.LBE188:
 255              		.loc 1 174 5 is_stmt 1 view .LVU46
 256              	.LBB190:
 257              	.LBI190:
 258              		.loc 2 369 20 view .LVU47
 259              	.LBB191:
 260              		.loc 2 371 3 view .LVU48
 261 005c 5649     		ldr	r1, .L4+32
 262 005e 4046     		mov	r0, r8
 263 0060 FFF7FEFF 		bl	test_printf
 264              	.LVL10:
 265              		.loc 2 371 3 is_stmt 0 view .LVU49
 266              	.LBE191:
 267              	.LBE190:
 268              		.loc 1 175 5 is_stmt 1 view .LVU50
 269              	.LBB192:
 270              	.LBI192:
 271              		.loc 2 357 20 view .LVU51
 272              	.LBB193:
 273              		.loc 2 359 3 view .LVU52
 274 0064 3946     		mov	r1, r7
 275 0066 3046     		mov	r0, r6
 276 0068 FFF7FEFF 		bl	test_printf
 277              	.LVL11:
ARM GAS  C:\Users\DEVELO~1\AppData\Local\Temp\cciogy9W.s 			page 7


 278              		.loc 2 359 3 is_stmt 0 view .LVU53
 279              	.LBE193:
 280              	.LBE192:
 281              		.loc 1 176 5 is_stmt 1 view .LVU54
 282              	.LBB194:
 283              	.LBI194:
 284              		.loc 2 381 20 view .LVU55
 285              	.LBB195:
 286              		.loc 2 383 3 view .LVU56
 287 006c 2946     		mov	r1, r5
 288 006e 2046     		mov	r0, r4
 289 0070 FFF7FEFF 		bl	test_printf
 290              	.LVL12:
 291              		.loc 2 383 3 is_stmt 0 view .LVU57
 292              	.LBE195:
 293              	.LBE194:
 294              		.loc 1 177 5 is_stmt 1 view .LVU58
 295              	.LBB196:
 296              	.LBI196:
 297              		.loc 2 369 20 view .LVU59
 298              	.LBB197:
 299              		.loc 2 371 3 view .LVU60
 300 0074 5149     		ldr	r1, .L4+36
 301 0076 4046     		mov	r0, r8
 302 0078 FFF7FEFF 		bl	test_printf
 303              	.LVL13:
 304              		.loc 2 371 3 is_stmt 0 view .LVU61
 305              	.LBE197:
 306              	.LBE196:
 307              		.loc 1 178 5 is_stmt 1 view .LVU62
 308              	.LBB198:
 309              	.LBI198:
 310              		.loc 2 357 20 view .LVU63
 311              	.LBB199:
 312              		.loc 2 359 3 view .LVU64
 313 007c 3946     		mov	r1, r7
 314 007e 3046     		mov	r0, r6
 315 0080 FFF7FEFF 		bl	test_printf
 316              	.LVL14:
 317              		.loc 2 359 3 is_stmt 0 view .LVU65
 318              	.LBE199:
 319              	.LBE198:
 320              		.loc 1 179 5 is_stmt 1 view .LVU66
 321              	.LBB200:
 322              	.LBI200:
 323              		.loc 2 381 20 view .LVU67
 324              	.LBB201:
 325              		.loc 2 383 3 view .LVU68
 326 0084 2946     		mov	r1, r5
 327 0086 2046     		mov	r0, r4
 328 0088 FFF7FEFF 		bl	test_printf
 329              	.LVL15:
 330              		.loc 2 383 3 is_stmt 0 view .LVU69
 331              	.LBE201:
 332              	.LBE200:
 333              		.loc 1 180 5 is_stmt 1 view .LVU70
 334              	.LBB202:
ARM GAS  C:\Users\DEVELO~1\AppData\Local\Temp\cciogy9W.s 			page 8


 335              	.LBI202:
 336              		.loc 2 369 20 view .LVU71
 337              	.LBB203:
 338              		.loc 2 371 3 view .LVU72
 339 008c 4C49     		ldr	r1, .L4+40
 340 008e 4046     		mov	r0, r8
 341 0090 FFF7FEFF 		bl	test_printf
 342              	.LVL16:
 343              		.loc 2 371 3 is_stmt 0 view .LVU73
 344              	.LBE203:
 345              	.LBE202:
 346              		.loc 1 181 5 is_stmt 1 view .LVU74
 347              	.LBB204:
 348              	.LBI204:
 349              		.loc 2 357 20 view .LVU75
 350              	.LBB205:
 351              		.loc 2 359 3 view .LVU76
 352 0094 3946     		mov	r1, r7
 353 0096 3046     		mov	r0, r6
 354 0098 FFF7FEFF 		bl	test_printf
 355              	.LVL17:
 356              		.loc 2 359 3 is_stmt 0 view .LVU77
 357              	.LBE205:
 358              	.LBE204:
 359              		.loc 1 182 5 is_stmt 1 view .LVU78
 360              	.LBB206:
 361              	.LBI206:
 362              		.loc 2 381 20 view .LVU79
 363              	.LBB207:
 364              		.loc 2 383 3 view .LVU80
 365 009c 2946     		mov	r1, r5
 366 009e 2046     		mov	r0, r4
 367 00a0 FFF7FEFF 		bl	test_printf
 368              	.LVL18:
 369              		.loc 2 383 3 is_stmt 0 view .LVU81
 370              	.LBE207:
 371              	.LBE206:
 372              		.loc 1 183 5 is_stmt 1 view .LVU82
 373              	.LBB208:
 374              	.LBI208:
 375              		.loc 2 369 20 view .LVU83
 376              	.LBB209:
 377              		.loc 2 371 3 view .LVU84
 378 00a4 4749     		ldr	r1, .L4+44
 379 00a6 4046     		mov	r0, r8
 380 00a8 FFF7FEFF 		bl	test_printf
 381              	.LVL19:
 382              		.loc 2 371 3 is_stmt 0 view .LVU85
 383              	.LBE209:
 384              	.LBE208:
 385              		.loc 1 184 5 is_stmt 1 view .LVU86
 386              	.LBB210:
 387              	.LBI210:
 388              		.loc 2 357 20 view .LVU87
 389              	.LBB211:
 390              		.loc 2 359 3 view .LVU88
 391 00ac 3946     		mov	r1, r7
ARM GAS  C:\Users\DEVELO~1\AppData\Local\Temp\cciogy9W.s 			page 9


 392 00ae 3046     		mov	r0, r6
 393 00b0 FFF7FEFF 		bl	test_printf
 394              	.LVL20:
 395              		.loc 2 359 3 is_stmt 0 view .LVU89
 396              	.LBE211:
 397              	.LBE210:
 398              		.loc 1 185 5 is_stmt 1 view .LVU90
 399              	.LBB212:
 400              	.LBI212:
 401              		.loc 2 381 20 view .LVU91
 402              	.LBB213:
 403              		.loc 2 383 3 view .LVU92
 404 00b4 2946     		mov	r1, r5
 405 00b6 2046     		mov	r0, r4
 406 00b8 FFF7FEFF 		bl	test_printf
 407              	.LVL21:
 408              		.loc 2 383 3 is_stmt 0 view .LVU93
 409              	.LBE213:
 410              	.LBE212:
 411              		.loc 1 186 5 is_stmt 1 view .LVU94
 412              	.LBB214:
 413              	.LBI214:
 414              		.loc 2 369 20 view .LVU95
 415              	.LBB215:
 416              		.loc 2 371 3 view .LVU96
 417 00bc 4249     		ldr	r1, .L4+48
 418 00be 4046     		mov	r0, r8
 419 00c0 FFF7FEFF 		bl	test_printf
 420              	.LVL22:
 421              		.loc 2 371 3 is_stmt 0 view .LVU97
 422              	.LBE215:
 423              	.LBE214:
 424              		.loc 1 187 5 is_stmt 1 view .LVU98
 425              	.LBB216:
 426              	.LBI216:
 427              		.loc 2 357 20 view .LVU99
 428              	.LBB217:
 429              		.loc 2 359 3 view .LVU100
 430 00c4 3946     		mov	r1, r7
 431 00c6 3046     		mov	r0, r6
 432 00c8 FFF7FEFF 		bl	test_printf
 433              	.LVL23:
 434              		.loc 2 359 3 is_stmt 0 view .LVU101
 435              	.LBE217:
 436              	.LBE216:
 437              		.loc 1 188 5 is_stmt 1 view .LVU102
 438              	.LBB218:
 439              	.LBI218:
 440              		.loc 2 381 20 view .LVU103
 441              	.LBB219:
 442              		.loc 2 383 3 view .LVU104
 443 00cc 2946     		mov	r1, r5
 444 00ce 2046     		mov	r0, r4
 445 00d0 FFF7FEFF 		bl	test_printf
 446              	.LVL24:
 447              		.loc 2 383 3 is_stmt 0 view .LVU105
 448              	.LBE219:
ARM GAS  C:\Users\DEVELO~1\AppData\Local\Temp\cciogy9W.s 			page 10


 449              	.LBE218:
 450              		.loc 1 189 5 is_stmt 1 view .LVU106
 451              	.LBB220:
 452              	.LBI220:
 453              		.loc 2 369 20 view .LVU107
 454              	.LBB221:
 455              		.loc 2 371 3 view .LVU108
 456 00d4 3D49     		ldr	r1, .L4+52
 457 00d6 4046     		mov	r0, r8
 458 00d8 FFF7FEFF 		bl	test_printf
 459              	.LVL25:
 460              		.loc 2 371 3 is_stmt 0 view .LVU109
 461              	.LBE221:
 462              	.LBE220:
 463              		.loc 1 190 5 is_stmt 1 view .LVU110
 464              	.LBB222:
 465              	.LBI222:
 466              		.loc 2 357 20 view .LVU111
 467              	.LBB223:
 468              		.loc 2 359 3 view .LVU112
 469 00dc 3946     		mov	r1, r7
 470 00de 3046     		mov	r0, r6
 471 00e0 FFF7FEFF 		bl	test_printf
 472              	.LVL26:
 473              		.loc 2 359 3 is_stmt 0 view .LVU113
 474              	.LBE223:
 475              	.LBE222:
 476              		.loc 1 191 5 is_stmt 1 view .LVU114
 477              	.LBB224:
 478              	.LBI224:
 479              		.loc 2 381 20 view .LVU115
 480              	.LBB225:
 481              		.loc 2 383 3 view .LVU116
 482 00e4 2946     		mov	r1, r5
 483 00e6 2046     		mov	r0, r4
 484 00e8 FFF7FEFF 		bl	test_printf
 485              	.LVL27:
 486              		.loc 2 383 3 is_stmt 0 view .LVU117
 487              	.LBE225:
 488              	.LBE224:
 489              		.loc 1 192 5 is_stmt 1 view .LVU118
 490              	.LBB226:
 491              	.LBI226:
 492              		.loc 2 369 20 view .LVU119
 493              	.LBB227:
 494              		.loc 2 371 3 view .LVU120
 495 00ec 3849     		ldr	r1, .L4+56
 496 00ee 4046     		mov	r0, r8
 497 00f0 FFF7FEFF 		bl	test_printf
 498              	.LVL28:
 499              		.loc 2 371 3 is_stmt 0 view .LVU121
 500              	.LBE227:
 501              	.LBE226:
 502              		.loc 1 193 5 is_stmt 1 view .LVU122
 503              	.LBB228:
 504              	.LBI228:
 505              		.loc 2 357 20 view .LVU123
ARM GAS  C:\Users\DEVELO~1\AppData\Local\Temp\cciogy9W.s 			page 11


 506              	.LBB229:
 507              		.loc 2 359 3 view .LVU124
 508 00f4 0821     		movs	r1, #8
 509 00f6 3046     		mov	r0, r6
 510 00f8 FFF7FEFF 		bl	test_printf
 511              	.LVL29:
 512              		.loc 2 359 3 is_stmt 0 view .LVU125
 513              	.LBE229:
 514              	.LBE228:
 515              		.loc 1 194 5 is_stmt 1 view .LVU126
 516              	.LBB230:
 517              	.LBI230:
 518              		.loc 2 381 20 view .LVU127
 519              	.LBB231:
 520              		.loc 2 383 3 view .LVU128
 521 00fc 2946     		mov	r1, r5
 522 00fe 2046     		mov	r0, r4
 523 0100 FFF7FEFF 		bl	test_printf
 524              	.LVL30:
 525              		.loc 2 383 3 is_stmt 0 view .LVU129
 526              	.LBE231:
 527              	.LBE230:
 528              		.loc 1 195 5 is_stmt 1 view .LVU130
 529              	.LBB232:
 530              	.LBI232:
 531              		.loc 2 369 20 view .LVU131
 532              	.LBB233:
 533              		.loc 2 371 3 view .LVU132
 534 0104 3349     		ldr	r1, .L4+60
 535 0106 4046     		mov	r0, r8
 536 0108 FFF7FEFF 		bl	test_printf
 537              	.LVL31:
 538              		.loc 2 371 3 is_stmt 0 view .LVU133
 539              	.LBE233:
 540              	.LBE232:
 541              		.loc 1 196 5 is_stmt 1 view .LVU134
 542              	.LBB234:
 543              	.LBI234:
 544              		.loc 2 357 20 view .LVU135
 545              	.LBB235:
 546              		.loc 2 359 3 view .LVU136
 547 010c 3946     		mov	r1, r7
 548 010e 3046     		mov	r0, r6
 549 0110 FFF7FEFF 		bl	test_printf
 550              	.LVL32:
 551              		.loc 2 359 3 is_stmt 0 view .LVU137
 552              	.LBE235:
 553              	.LBE234:
 554              		.loc 1 197 5 is_stmt 1 view .LVU138
 555              	.LBB236:
 556              	.LBI236:
 557              		.loc 2 381 20 view .LVU139
 558              	.LBB237:
 559              		.loc 2 383 3 view .LVU140
 560 0114 2946     		mov	r1, r5
 561 0116 2046     		mov	r0, r4
 562 0118 FFF7FEFF 		bl	test_printf
ARM GAS  C:\Users\DEVELO~1\AppData\Local\Temp\cciogy9W.s 			page 12


 563              	.LVL33:
 564              		.loc 2 383 3 is_stmt 0 view .LVU141
 565              	.LBE237:
 566              	.LBE236:
 567              		.loc 1 198 5 is_stmt 1 view .LVU142
 568              	.LBB238:
 569              	.LBI238:
 570              		.loc 2 369 20 view .LVU143
 571              	.LBB239:
 572              		.loc 2 371 3 view .LVU144
 573 011c 2E49     		ldr	r1, .L4+64
 574 011e 4046     		mov	r0, r8
 575 0120 FFF7FEFF 		bl	test_printf
 576              	.LVL34:
 577              		.loc 2 371 3 is_stmt 0 view .LVU145
 578              	.LBE239:
 579              	.LBE238:
 580              		.loc 1 199 5 is_stmt 1 view .LVU146
 581              	.LBB240:
 582              	.LBI240:
 583              		.loc 2 357 20 view .LVU147
 584              	.LBB241:
 585              		.loc 2 359 3 view .LVU148
 586 0124 3946     		mov	r1, r7
 587 0126 3046     		mov	r0, r6
 588 0128 FFF7FEFF 		bl	test_printf
 589              	.LVL35:
 590              		.loc 2 359 3 is_stmt 0 view .LVU149
 591              	.LBE241:
 592              	.LBE240:
 593              		.loc 1 200 5 is_stmt 1 view .LVU150
 594              	.LBB242:
 595              	.LBI242:
 596              		.loc 2 381 20 view .LVU151
 597              	.LBB243:
 598              		.loc 2 383 3 view .LVU152
 599 012c 2946     		mov	r1, r5
 600 012e 2046     		mov	r0, r4
 601 0130 FFF7FEFF 		bl	test_printf
 602              	.LVL36:
 603              		.loc 2 383 3 is_stmt 0 view .LVU153
 604              	.LBE243:
 605              	.LBE242:
 606              		.loc 1 201 5 is_stmt 1 view .LVU154
 607              	.LBB244:
 608              	.LBI244:
 609              		.loc 2 369 20 view .LVU155
 610              	.LBB245:
 611              		.loc 2 371 3 view .LVU156
 612 0134 2949     		ldr	r1, .L4+68
 613 0136 4046     		mov	r0, r8
 614 0138 FFF7FEFF 		bl	test_printf
 615              	.LVL37:
 616              		.loc 2 371 3 is_stmt 0 view .LVU157
 617              	.LBE245:
 618              	.LBE244:
 619              		.loc 1 202 5 is_stmt 1 view .LVU158
ARM GAS  C:\Users\DEVELO~1\AppData\Local\Temp\cciogy9W.s 			page 13


 620              	.LBB246:
 621              	.LBI246:
 622              		.loc 2 357 20 view .LVU159
 623              	.LBB247:
 624              		.loc 2 359 3 view .LVU160
 625 013c 3946     		mov	r1, r7
 626 013e 3046     		mov	r0, r6
 627 0140 FFF7FEFF 		bl	test_printf
 628              	.LVL38:
 629              		.loc 2 359 3 is_stmt 0 view .LVU161
 630              	.LBE247:
 631              	.LBE246:
 632              		.loc 1 203 5 is_stmt 1 view .LVU162
 633              	.LBB248:
 634              	.LBI248:
 635              		.loc 2 381 20 view .LVU163
 636              	.LBB249:
 637              		.loc 2 383 3 view .LVU164
 638 0144 2946     		mov	r1, r5
 639 0146 2046     		mov	r0, r4
 640 0148 FFF7FEFF 		bl	test_printf
 641              	.LVL39:
 642              		.loc 2 383 3 is_stmt 0 view .LVU165
 643              	.LBE249:
 644              	.LBE248:
 645              		.loc 1 204 5 is_stmt 1 view .LVU166
 646              	.LBB250:
 647              	.LBI250:
 648              		.loc 2 369 20 view .LVU167
 649              	.LBB251:
 650              		.loc 2 371 3 view .LVU168
 651 014c 2449     		ldr	r1, .L4+72
 652 014e 4046     		mov	r0, r8
 653 0150 FFF7FEFF 		bl	test_printf
 654              	.LVL40:
 655              		.loc 2 371 3 is_stmt 0 view .LVU169
 656              	.LBE251:
 657              	.LBE250:
 658              		.loc 1 205 5 is_stmt 1 view .LVU170
 659              	.LBB252:
 660              	.LBI252:
 661              		.loc 2 357 20 view .LVU171
 662              	.LBB253:
 663              		.loc 2 359 3 view .LVU172
 664 0154 3946     		mov	r1, r7
 665 0156 3046     		mov	r0, r6
 666 0158 FFF7FEFF 		bl	test_printf
 667              	.LVL41:
 668              		.loc 2 359 3 is_stmt 0 view .LVU173
 669              	.LBE253:
 670              	.LBE252:
 671              		.loc 1 206 5 is_stmt 1 view .LVU174
 672              	.LBB254:
 673              	.LBI254:
 674              		.loc 2 381 20 view .LVU175
 675              	.LBB255:
 676              		.loc 2 383 3 view .LVU176
ARM GAS  C:\Users\DEVELO~1\AppData\Local\Temp\cciogy9W.s 			page 14


 677 015c 2946     		mov	r1, r5
 678 015e 2046     		mov	r0, r4
 679 0160 FFF7FEFF 		bl	test_printf
 680              	.LVL42:
 681              		.loc 2 383 3 is_stmt 0 view .LVU177
 682              	.LBE255:
 683              	.LBE254:
 684              		.loc 1 207 5 is_stmt 1 view .LVU178
 685              	.LBB256:
 686              	.LBI256:
 687              		.loc 2 369 20 view .LVU179
 688              	.LBB257:
 689              		.loc 2 371 3 view .LVU180
 690 0164 1F49     		ldr	r1, .L4+76
 691 0166 4046     		mov	r0, r8
 692 0168 FFF7FEFF 		bl	test_printf
 693              	.LVL43:
 694              		.loc 2 371 3 is_stmt 0 view .LVU181
 695              	.LBE257:
 696              	.LBE256:
 697              		.loc 1 208 5 is_stmt 1 view .LVU182
 698              	.LBB258:
 699              	.LBI258:
 700              		.loc 2 357 20 view .LVU183
 701              	.LBB259:
 702              		.loc 2 359 3 view .LVU184
 703 016c 3946     		mov	r1, r7
 704 016e 3046     		mov	r0, r6
 705 0170 FFF7FEFF 		bl	test_printf
 706              	.LVL44:
 707              		.loc 2 359 3 is_stmt 0 view .LVU185
 708              	.LBE259:
 709              	.LBE258:
 710              		.loc 1 209 5 is_stmt 1 view .LVU186
 711              	.LBB260:
 712              	.LBI260:
 713              		.loc 2 381 20 view .LVU187
 714              	.LBB261:
 715              		.loc 2 383 3 view .LVU188
 716 0174 2946     		mov	r1, r5
 717 0176 2046     		mov	r0, r4
 718 0178 FFF7FEFF 		bl	test_printf
 719              	.LVL45:
 720              		.loc 2 383 3 is_stmt 0 view .LVU189
 721              	.LBE261:
 722              	.LBE260:
 723              		.loc 1 210 5 is_stmt 1 view .LVU190
 724              	.LBB262:
 725              	.LBI262:
 726              		.loc 2 369 20 view .LVU191
 727              	.LBB263:
 728              		.loc 2 371 3 view .LVU192
 729 017c 4046     		mov	r0, r8
 730 017e 1A49     		ldr	r1, .L4+80
 731 0180 FFF7FEFF 		bl	test_printf
 732              	.LVL46:
 733              		.loc 2 371 3 is_stmt 0 view .LVU193
ARM GAS  C:\Users\DEVELO~1\AppData\Local\Temp\cciogy9W.s 			page 15


 734              	.LBE263:
 735              	.LBE262:
 736              		.loc 1 211 5 is_stmt 1 view .LVU194
 737              	.LBB264:
 738              	.LBI264:
 739              		.loc 2 357 20 view .LVU195
 740              	.LBB265:
 741              		.loc 2 359 3 view .LVU196
 742 0184 3946     		mov	r1, r7
 743 0186 3046     		mov	r0, r6
 744 0188 FFF7FEFF 		bl	test_printf
 745              	.LVL47:
 746              		.loc 2 359 3 is_stmt 0 view .LVU197
 747              	.LBE265:
 748              	.LBE264:
 749              		.loc 1 212 5 is_stmt 1 view .LVU198
 750              	.LBB266:
 751              	.LBI266:
 752              		.loc 2 381 20 view .LVU199
 753              	.LBB267:
 754              		.loc 2 383 3 view .LVU200
 755 018c 2946     		mov	r1, r5
 756 018e 2046     		mov	r0, r4
 757              	.LBE267:
 758              	.LBE266:
 759              		.loc 1 215 1 is_stmt 0 view .LVU201
 760 0190 BDE8F041 		pop	{r4, r5, r6, r7, r8, lr}
 761              		.cfi_restore 14
 762              		.cfi_restore 8
 763              		.cfi_restore 7
 764              		.cfi_restore 6
 765              		.cfi_restore 5
 766              		.cfi_restore 4
 767              		.cfi_def_cfa_offset 0
 768              	.LBB269:
 769              	.LBB268:
 770              		.loc 2 383 3 view .LVU202
 771 0194 FFF7FEBF 		b	test_printf
 772              	.LVL48:
 773              	.L5:
 774              		.align	2
 775              	.L4:
 776 0198 2C000000 		.word	.LC1
 777 019c 00000000 		.word	chtest
 778 01a0 30000000 		.word	.LC2
 779 01a4 34000000 		.word	.LC3
 780 01a8 38000000 		.word	.LC4
 781 01ac 00000000 		.word	.LC0
 782 01b0 40000000 		.word	.LC5
 783 01b4 6C000000 		.word	.LC6
 784 01b8 98000000 		.word	.LC7
 785 01bc C4000000 		.word	.LC8
 786 01c0 F0000000 		.word	.LC9
 787 01c4 1C010000 		.word	.LC10
 788 01c8 48010000 		.word	.LC11
 789 01cc 74010000 		.word	.LC12
 790 01d0 A0010000 		.word	.LC13
ARM GAS  C:\Users\DEVELO~1\AppData\Local\Temp\cciogy9W.s 			page 16


 791 01d4 CC010000 		.word	.LC14
 792 01d8 F8010000 		.word	.LC15
 793 01dc 24020000 		.word	.LC16
 794 01e0 50020000 		.word	.LC17
 795 01e4 7C020000 		.word	.LC18
 796 01e8 A8020000 		.word	.LC19
 797              	.LBE268:
 798              	.LBE269:
 799              		.cfi_endproc
 800              	.LFE438:
 801              		.size	oslib_test_001_003_execute, .-oslib_test_001_003_execute
 802              		.section	.rodata.oslib_test_001_002_execute.str1.4,"aMS",%progbits,1
 803              		.align	2
 804              	.LC20:
 805 0000 2D2D2D20 		.ascii	"--- Product:                            ChibiOS/LIB"
 805      50726F64 
 805      7563743A 
 805      20202020 
 805      20202020 
 806 0033 00       		.ascii	"\000"
 807              		.align	2
 808              	.LC21:
 809 0034 2D2D2D20 		.ascii	"--- Stable Flag:                        \000"
 809      53746162 
 809      6C652046 
 809      6C61673A 
 809      20202020 
 810 005d 000000   		.align	2
 811              	.LC22:
 812 0060 2D2D2D20 		.ascii	"--- Version String:                     \000"
 812      56657273 
 812      696F6E20 
 812      53747269 
 812      6E673A20 
 813 0089 000000   		.align	2
 814              	.LC23:
 815 008c 312E332E 		.ascii	"1.3.2\000"
 815      3200
 816 0092 0000     		.align	2
 817              	.LC24:
 818 0094 2D2D2D20 		.ascii	"--- Major Number:                       \000"
 818      4D616A6F 
 818      72204E75 
 818      6D626572 
 818      3A202020 
 819 00bd 000000   		.align	2
 820              	.LC25:
 821 00c0 2D2D2D20 		.ascii	"--- Minor Number:                       \000"
 821      4D696E6F 
 821      72204E75 
 821      6D626572 
 821      3A202020 
 822 00e9 000000   		.align	2
 823              	.LC26:
 824 00ec 2D2D2D20 		.ascii	"--- Patch Number:                       \000"
 824      50617463 
 824      68204E75 
ARM GAS  C:\Users\DEVELO~1\AppData\Local\Temp\cciogy9W.s 			page 17


 824      6D626572 
 824      3A202020 
 825              		.section	.text.oslib_test_001_002_execute,"ax",%progbits
 826              		.align	1
 827              		.p2align 4,,15
 828              		.syntax unified
 829              		.thumb
 830              		.thumb_func
 831              		.type	oslib_test_001_002_execute, %function
 832              	oslib_test_001_002_execute:
 833              	.LFB437:
 834              		.loc 1 118 46 is_stmt 1 view -0
 835              		.cfi_startproc
 836              		@ args = 0, pretend = 0, frame = 0
 837              		@ frame_needed = 0, uses_anonymous_args = 0
 838              		.loc 1 121 3 view .LVU204
 839              		.loc 1 118 46 is_stmt 0 view .LVU205
 840 0000 2DE9F041 		push	{r4, r5, r6, r7, r8, lr}
 841              		.cfi_def_cfa_offset 24
 842              		.cfi_offset 4, -24
 843              		.cfi_offset 5, -20
 844              		.cfi_offset 6, -16
 845              		.cfi_offset 7, -12
 846              		.cfi_offset 8, -8
 847              		.cfi_offset 14, -4
 848              	.LBB270:
 849              	.LBB271:
 850              		.loc 2 383 3 view .LVU206
 851 0004 234C     		ldr	r4, .L8
 852              	.LBE271:
 853              	.LBE270:
 854              		.loc 1 121 3 view .LVU207
 855 0006 4FF00108 		mov	r8, #1
 856 000a 234B     		ldr	r3, .L8+4
 857              	.LBB275:
 858              	.LBB276:
 859              		.loc 2 371 3 view .LVU208
 860 000c 234D     		ldr	r5, .L8+8
 861              	.LBE276:
 862              	.LBE275:
 863              	.LBB279:
 864              	.LBB272:
 865              		.loc 2 383 3 view .LVU209
 866 000e 2046     		mov	r0, r4
 867              	.LBE272:
 868              	.LBE279:
 869              	.LBB280:
 870              	.LBB281:
 871              		.loc 2 359 3 view .LVU210
 872 0010 234F     		ldr	r7, .L8+12
 873              	.LBE281:
 874              	.LBE280:
 875              	.LBB283:
 876              	.LBB273:
 877              		.loc 2 383 3 view .LVU211
 878 0012 2449     		ldr	r1, .L8+16
 879              	.LBE273:
ARM GAS  C:\Users\DEVELO~1\AppData\Local\Temp\cciogy9W.s 			page 18


 880              	.LBE283:
 881              		.loc 1 121 3 view .LVU212
 882 0014 C3F80080 		str	r8, [r3]
 883              		.loc 1 123 5 is_stmt 1 view .LVU213
 884              	.LVL49:
 885              	.LBB284:
 886              	.LBI270:
 887              		.loc 2 381 20 view .LVU214
 888              	.LBB274:
 889              		.loc 2 383 3 view .LVU215
 890 0018 FFF7FEFF 		bl	test_printf
 891              	.LVL50:
 892              		.loc 2 383 3 is_stmt 0 view .LVU216
 893              	.LBE274:
 894              	.LBE284:
 895              		.loc 1 124 5 is_stmt 1 view .LVU217
 896              	.LBB285:
 897              	.LBI275:
 898              		.loc 2 369 20 view .LVU218
 899              	.LBB277:
 900              		.loc 2 371 3 view .LVU219
 901              	.LBE277:
 902              	.LBE285:
 903              	.LBB286:
 904              	.LBB287:
 905              		.loc 2 383 3 is_stmt 0 view .LVU220
 906 001c 224E     		ldr	r6, .L8+20
 907              	.LBE287:
 908              	.LBE286:
 909              	.LBB289:
 910              	.LBB278:
 911              		.loc 2 371 3 view .LVU221
 912 001e 2846     		mov	r0, r5
 913 0020 2249     		ldr	r1, .L8+24
 914 0022 FFF7FEFF 		bl	test_printf
 915              	.LVL51:
 916              		.loc 2 371 3 view .LVU222
 917              	.LBE278:
 918              	.LBE289:
 919              		.loc 1 125 5 is_stmt 1 view .LVU223
 920              	.LBB290:
 921              	.LBI280:
 922              		.loc 2 357 20 view .LVU224
 923              	.LBB282:
 924              		.loc 2 359 3 view .LVU225
 925 0026 4146     		mov	r1, r8
 926 0028 3846     		mov	r0, r7
 927 002a FFF7FEFF 		bl	test_printf
 928              	.LVL52:
 929              		.loc 2 359 3 is_stmt 0 view .LVU226
 930              	.LBE282:
 931              	.LBE290:
 932              		.loc 1 126 5 is_stmt 1 view .LVU227
 933              	.LBB291:
 934              	.LBI286:
 935              		.loc 2 381 20 view .LVU228
 936              	.LBB288:
ARM GAS  C:\Users\DEVELO~1\AppData\Local\Temp\cciogy9W.s 			page 19


 937              		.loc 2 383 3 view .LVU229
 938 002e 3146     		mov	r1, r6
 939 0030 2046     		mov	r0, r4
 940 0032 FFF7FEFF 		bl	test_printf
 941              	.LVL53:
 942              		.loc 2 383 3 is_stmt 0 view .LVU230
 943              	.LBE288:
 944              	.LBE291:
 945              		.loc 1 127 5 is_stmt 1 view .LVU231
 946              	.LBB292:
 947              	.LBI292:
 948              		.loc 2 369 20 view .LVU232
 949              	.LBB293:
 950              		.loc 2 371 3 view .LVU233
 951 0036 1E49     		ldr	r1, .L8+28
 952 0038 2846     		mov	r0, r5
 953 003a FFF7FEFF 		bl	test_printf
 954              	.LVL54:
 955              		.loc 2 371 3 is_stmt 0 view .LVU234
 956              	.LBE293:
 957              	.LBE292:
 958              		.loc 1 128 5 is_stmt 1 view .LVU235
 959              	.LBB294:
 960              	.LBI294:
 961              		.loc 2 381 20 view .LVU236
 962              	.LBB295:
 963              		.loc 2 383 3 view .LVU237
 964 003e 1D49     		ldr	r1, .L8+32
 965 0040 2046     		mov	r0, r4
 966 0042 FFF7FEFF 		bl	test_printf
 967              	.LVL55:
 968              		.loc 2 383 3 is_stmt 0 view .LVU238
 969              	.LBE295:
 970              	.LBE294:
 971              		.loc 1 129 5 is_stmt 1 view .LVU239
 972              	.LBB296:
 973              	.LBI296:
 974              		.loc 2 369 20 view .LVU240
 975              	.LBB297:
 976              		.loc 2 371 3 view .LVU241
 977 0046 1C49     		ldr	r1, .L8+36
 978 0048 2846     		mov	r0, r5
 979 004a FFF7FEFF 		bl	test_printf
 980              	.LVL56:
 981              		.loc 2 371 3 is_stmt 0 view .LVU242
 982              	.LBE297:
 983              	.LBE296:
 984              		.loc 1 130 5 is_stmt 1 view .LVU243
 985              	.LBB298:
 986              	.LBI298:
 987              		.loc 2 357 20 view .LVU244
 988              	.LBB299:
 989              		.loc 2 359 3 view .LVU245
 990 004e 4146     		mov	r1, r8
 991 0050 3846     		mov	r0, r7
 992 0052 FFF7FEFF 		bl	test_printf
 993              	.LVL57:
ARM GAS  C:\Users\DEVELO~1\AppData\Local\Temp\cciogy9W.s 			page 20


 994              		.loc 2 359 3 is_stmt 0 view .LVU246
 995              	.LBE299:
 996              	.LBE298:
 997              		.loc 1 131 5 is_stmt 1 view .LVU247
 998              	.LBB300:
 999              	.LBI300:
 1000              		.loc 2 381 20 view .LVU248
 1001              	.LBB301:
 1002              		.loc 2 383 3 view .LVU249
 1003 0056 3146     		mov	r1, r6
 1004 0058 2046     		mov	r0, r4
 1005 005a FFF7FEFF 		bl	test_printf
 1006              	.LVL58:
 1007              		.loc 2 383 3 is_stmt 0 view .LVU250
 1008              	.LBE301:
 1009              	.LBE300:
 1010              		.loc 1 132 5 is_stmt 1 view .LVU251
 1011              	.LBB302:
 1012              	.LBI302:
 1013              		.loc 2 369 20 view .LVU252
 1014              	.LBB303:
 1015              		.loc 2 371 3 view .LVU253
 1016 005e 1749     		ldr	r1, .L8+40
 1017 0060 2846     		mov	r0, r5
 1018 0062 FFF7FEFF 		bl	test_printf
 1019              	.LVL59:
 1020              		.loc 2 371 3 is_stmt 0 view .LVU254
 1021              	.LBE303:
 1022              	.LBE302:
 1023              		.loc 1 133 5 is_stmt 1 view .LVU255
 1024              	.LBB304:
 1025              	.LBI304:
 1026              		.loc 2 357 20 view .LVU256
 1027              	.LBB305:
 1028              		.loc 2 359 3 view .LVU257
 1029 0066 0321     		movs	r1, #3
 1030 0068 3846     		mov	r0, r7
 1031 006a FFF7FEFF 		bl	test_printf
 1032              	.LVL60:
 1033              		.loc 2 359 3 is_stmt 0 view .LVU258
 1034              	.LBE305:
 1035              	.LBE304:
 1036              		.loc 1 134 5 is_stmt 1 view .LVU259
 1037              	.LBB306:
 1038              	.LBI306:
 1039              		.loc 2 381 20 view .LVU260
 1040              	.LBB307:
 1041              		.loc 2 383 3 view .LVU261
 1042 006e 3146     		mov	r1, r6
 1043 0070 2046     		mov	r0, r4
 1044 0072 FFF7FEFF 		bl	test_printf
 1045              	.LVL61:
 1046              		.loc 2 383 3 is_stmt 0 view .LVU262
 1047              	.LBE307:
 1048              	.LBE306:
 1049              		.loc 1 135 5 is_stmt 1 view .LVU263
 1050              	.LBB308:
ARM GAS  C:\Users\DEVELO~1\AppData\Local\Temp\cciogy9W.s 			page 21


 1051              	.LBI308:
 1052              		.loc 2 369 20 view .LVU264
 1053              	.LBB309:
 1054              		.loc 2 371 3 view .LVU265
 1055 0076 1249     		ldr	r1, .L8+44
 1056 0078 2846     		mov	r0, r5
 1057 007a FFF7FEFF 		bl	test_printf
 1058              	.LVL62:
 1059              		.loc 2 371 3 is_stmt 0 view .LVU266
 1060              	.LBE309:
 1061              	.LBE308:
 1062              		.loc 1 136 5 is_stmt 1 view .LVU267
 1063              	.LBB310:
 1064              	.LBI310:
 1065              		.loc 2 357 20 view .LVU268
 1066              	.LBB311:
 1067              		.loc 2 359 3 view .LVU269
 1068 007e 0221     		movs	r1, #2
 1069 0080 3846     		mov	r0, r7
 1070 0082 FFF7FEFF 		bl	test_printf
 1071              	.LVL63:
 1072              		.loc 2 359 3 is_stmt 0 view .LVU270
 1073              	.LBE311:
 1074              	.LBE310:
 1075              		.loc 1 137 5 is_stmt 1 view .LVU271
 1076              	.LBB312:
 1077              	.LBI312:
 1078              		.loc 2 381 20 view .LVU272
 1079              	.LBB313:
 1080              		.loc 2 383 3 view .LVU273
 1081 0086 3146     		mov	r1, r6
 1082 0088 2046     		mov	r0, r4
 1083              	.LBE313:
 1084              	.LBE312:
 1085              		.loc 1 140 1 is_stmt 0 view .LVU274
 1086 008a BDE8F041 		pop	{r4, r5, r6, r7, r8, lr}
 1087              		.cfi_restore 14
 1088              		.cfi_restore 8
 1089              		.cfi_restore 7
 1090              		.cfi_restore 6
 1091              		.cfi_restore 5
 1092              		.cfi_restore 4
 1093              		.cfi_def_cfa_offset 0
 1094              	.LBB315:
 1095              	.LBB314:
 1096              		.loc 2 383 3 view .LVU275
 1097 008e FFF7FEBF 		b	test_printf
 1098              	.LVL64:
 1099              	.L9:
 1100 0092 00BF     		.align	2
 1101              	.L8:
 1102 0094 38000000 		.word	.LC4
 1103 0098 00000000 		.word	chtest
 1104 009c 2C000000 		.word	.LC1
 1105 00a0 30000000 		.word	.LC2
 1106 00a4 00000000 		.word	.LC20
 1107 00a8 34000000 		.word	.LC3
ARM GAS  C:\Users\DEVELO~1\AppData\Local\Temp\cciogy9W.s 			page 22


 1108 00ac 34000000 		.word	.LC21
 1109 00b0 60000000 		.word	.LC22
 1110 00b4 8C000000 		.word	.LC23
 1111 00b8 94000000 		.word	.LC24
 1112 00bc C0000000 		.word	.LC25
 1113 00c0 EC000000 		.word	.LC26
 1114              	.LBE314:
 1115              	.LBE315:
 1116              		.cfi_endproc
 1117              	.LFE437:
 1118              		.size	oslib_test_001_002_execute, .-oslib_test_001_002_execute
 1119              		.section	.rodata.oslib_test_001_001_execute.str1.4,"aMS",%progbits,1
 1120              		.align	2
 1121              	.LC27:
 1122 0000 2D2D2D20 		.ascii	"--- Architecture:                       \000"
 1122      41726368 
 1122      69746563 
 1122      74757265 
 1122      3A202020 
 1123 0029 000000   		.align	2
 1124              	.LC28:
 1125 002c 41524D76 		.ascii	"ARMv7E-M\000"
 1125      37452D4D 
 1125      00
 1126 0035 000000   		.align	2
 1127              	.LC29:
 1128 0038 2D2D2D20 		.ascii	"--- Core Variant:                       \000"
 1128      436F7265 
 1128      20566172 
 1128      69616E74 
 1128      3A202020 
 1129 0061 000000   		.align	2
 1130              	.LC30:
 1131 0064 436F7274 		.ascii	"Cortex-M7\000"
 1131      65782D4D 
 1131      3700
 1132 006e 0000     		.align	2
 1133              	.LC31:
 1134 0070 2D2D2D20 		.ascii	"--- Compiler:                           \000"
 1134      436F6D70 
 1134      696C6572 
 1134      3A202020 
 1134      20202020 
 1135 0099 000000   		.align	2
 1136              	.LC32:
 1137 009c 47434320 		.ascii	"GCC 11.3.1 20220712\000"
 1137      31312E33 
 1137      2E312032 
 1137      30323230 
 1137      37313200 
 1138              		.align	2
 1139              	.LC33:
 1140 00b0 2D2D2D20 		.ascii	"--- Port Info:                          \000"
 1140      506F7274 
 1140      20496E66 
 1140      6F3A2020 
 1140      20202020 
ARM GAS  C:\Users\DEVELO~1\AppData\Local\Temp\cciogy9W.s 			page 23


 1141 00d9 000000   		.align	2
 1142              	.LC34:
 1143 00dc 41647661 		.ascii	"Advanced kernel mode\000"
 1143      6E636564 
 1143      206B6572 
 1143      6E656C20 
 1143      6D6F6465 
 1144 00f1 000000   		.align	2
 1145              	.LC35:
 1146 00f4 2D2D2D20 		.ascii	"--- Natural alignment:                  \000"
 1146      4E617475 
 1146      72616C20 
 1146      616C6967 
 1146      6E6D656E 
 1147 011d 000000   		.align	2
 1148              	.LC36:
 1149 0120 2D2D2D20 		.ascii	"--- Stack alignment:                    \000"
 1149      53746163 
 1149      6B20616C 
 1149      69676E6D 
 1149      656E743A 
 1150 0149 000000   		.align	2
 1151              	.LC37:
 1152 014c 2D2D2D20 		.ascii	"--- Working area alignment:             \000"
 1152      576F726B 
 1152      696E6720 
 1152      61726561 
 1152      20616C69 
 1153              		.section	.text.oslib_test_001_001_execute,"ax",%progbits
 1154              		.align	1
 1155              		.p2align 4,,15
 1156              		.syntax unified
 1157              		.thumb
 1158              		.thumb_func
 1159              		.type	oslib_test_001_001_execute, %function
 1160              	oslib_test_001_001_execute:
 1161              	.LFB436:
 1162              		.loc 1 60 46 is_stmt 1 view -0
 1163              		.cfi_startproc
 1164              		@ args = 0, pretend = 0, frame = 0
 1165              		@ frame_needed = 0, uses_anonymous_args = 0
 1166              		.loc 1 63 3 view .LVU277
 1167              		.loc 1 60 46 is_stmt 0 view .LVU278
 1168 0000 F8B5     		push	{r3, r4, r5, r6, r7, lr}
 1169              		.cfi_def_cfa_offset 24
 1170              		.cfi_offset 3, -24
 1171              		.cfi_offset 4, -20
 1172              		.cfi_offset 5, -16
 1173              		.cfi_offset 6, -12
 1174              		.cfi_offset 7, -8
 1175              		.cfi_offset 14, -4
 1176              	.LBB316:
 1177              	.LBB317:
 1178              		.loc 2 371 3 view .LVU279
 1179 0002 264D     		ldr	r5, .L12
 1180              	.LBE317:
 1181              	.LBE316:
ARM GAS  C:\Users\DEVELO~1\AppData\Local\Temp\cciogy9W.s 			page 24


 1182              		.loc 1 63 3 view .LVU280
 1183 0004 0122     		movs	r2, #1
 1184 0006 264B     		ldr	r3, .L12+4
 1185              	.LBB320:
 1186              	.LBB321:
 1187              		.loc 2 383 3 view .LVU281
 1188 0008 264C     		ldr	r4, .L12+8
 1189              	.LBE321:
 1190              	.LBE320:
 1191              	.LBB323:
 1192              	.LBB318:
 1193              		.loc 2 371 3 view .LVU282
 1194 000a 2846     		mov	r0, r5
 1195 000c 2649     		ldr	r1, .L12+12
 1196              	.LBE318:
 1197              	.LBE323:
 1198              		.loc 1 63 3 view .LVU283
 1199 000e 1A60     		str	r2, [r3]
 1200              		.loc 1 66 5 is_stmt 1 view .LVU284
 1201              	.LVL65:
 1202              	.LBB324:
 1203              	.LBI316:
 1204              		.loc 2 369 20 view .LVU285
 1205              	.LBB319:
 1206              		.loc 2 371 3 view .LVU286
 1207 0010 FFF7FEFF 		bl	test_printf
 1208              	.LVL66:
 1209              		.loc 2 371 3 is_stmt 0 view .LVU287
 1210              	.LBE319:
 1211              	.LBE324:
 1212              		.loc 1 67 5 is_stmt 1 view .LVU288
 1213              	.LBB325:
 1214              	.LBI320:
 1215              		.loc 2 381 20 view .LVU289
 1216              	.LBB322:
 1217              		.loc 2 383 3 view .LVU290
 1218 0014 2549     		ldr	r1, .L12+16
 1219 0016 2046     		mov	r0, r4
 1220 0018 FFF7FEFF 		bl	test_printf
 1221              	.LVL67:
 1222              		.loc 2 383 3 is_stmt 0 view .LVU291
 1223              	.LBE322:
 1224              	.LBE325:
 1225              		.loc 1 70 5 is_stmt 1 view .LVU292
 1226              	.LBB326:
 1227              	.LBI326:
 1228              		.loc 2 369 20 view .LVU293
 1229              	.LBB327:
 1230              		.loc 2 371 3 view .LVU294
 1231 001c 2449     		ldr	r1, .L12+20
 1232 001e 2846     		mov	r0, r5
 1233              	.LBE327:
 1234              	.LBE326:
 1235              	.LBB329:
 1236              	.LBB330:
 1237              		.loc 2 359 3 is_stmt 0 view .LVU295
 1238 0020 244F     		ldr	r7, .L12+24
ARM GAS  C:\Users\DEVELO~1\AppData\Local\Temp\cciogy9W.s 			page 25


 1239              	.LBE330:
 1240              	.LBE329:
 1241              	.LBB332:
 1242              	.LBB328:
 1243              		.loc 2 371 3 view .LVU296
 1244 0022 FFF7FEFF 		bl	test_printf
 1245              	.LVL68:
 1246              		.loc 2 371 3 view .LVU297
 1247              	.LBE328:
 1248              	.LBE332:
 1249              		.loc 1 71 5 is_stmt 1 view .LVU298
 1250              	.LBB333:
 1251              	.LBI333:
 1252              		.loc 2 381 20 view .LVU299
 1253              	.LBB334:
 1254              		.loc 2 383 3 view .LVU300
 1255 0026 2449     		ldr	r1, .L12+28
 1256 0028 2046     		mov	r0, r4
 1257              	.LBE334:
 1258              	.LBE333:
 1259              	.LBB336:
 1260              	.LBB337:
 1261 002a 244E     		ldr	r6, .L12+32
 1262              	.LBE337:
 1263              	.LBE336:
 1264              	.LBB339:
 1265              	.LBB335:
 1266 002c FFF7FEFF 		bl	test_printf
 1267              	.LVL69:
 1268              		.loc 2 383 3 is_stmt 0 view .LVU301
 1269              	.LBE335:
 1270              	.LBE339:
 1271              		.loc 1 74 5 is_stmt 1 view .LVU302
 1272              	.LBB340:
 1273              	.LBI340:
 1274              		.loc 2 369 20 view .LVU303
 1275              	.LBB341:
 1276              		.loc 2 371 3 view .LVU304
 1277 0030 2349     		ldr	r1, .L12+36
 1278 0032 2846     		mov	r0, r5
 1279 0034 FFF7FEFF 		bl	test_printf
 1280              	.LVL70:
 1281              		.loc 2 371 3 is_stmt 0 view .LVU305
 1282              	.LBE341:
 1283              	.LBE340:
 1284              		.loc 1 75 5 is_stmt 1 view .LVU306
 1285              	.LBB342:
 1286              	.LBI342:
 1287              		.loc 2 381 20 view .LVU307
 1288              	.LBB343:
 1289              		.loc 2 383 3 view .LVU308
 1290 0038 2249     		ldr	r1, .L12+40
 1291 003a 2046     		mov	r0, r4
 1292 003c FFF7FEFF 		bl	test_printf
 1293              	.LVL71:
 1294              		.loc 2 383 3 is_stmt 0 view .LVU309
 1295              	.LBE343:
ARM GAS  C:\Users\DEVELO~1\AppData\Local\Temp\cciogy9W.s 			page 26


 1296              	.LBE342:
 1297              		.loc 1 78 5 is_stmt 1 view .LVU310
 1298              	.LBB344:
 1299              	.LBI344:
 1300              		.loc 2 369 20 view .LVU311
 1301              	.LBB345:
 1302              		.loc 2 371 3 view .LVU312
 1303 0040 2149     		ldr	r1, .L12+44
 1304 0042 2846     		mov	r0, r5
 1305 0044 FFF7FEFF 		bl	test_printf
 1306              	.LVL72:
 1307              		.loc 2 371 3 is_stmt 0 view .LVU313
 1308              	.LBE345:
 1309              	.LBE344:
 1310              		.loc 1 79 5 is_stmt 1 view .LVU314
 1311              	.LBB346:
 1312              	.LBI346:
 1313              		.loc 2 381 20 view .LVU315
 1314              	.LBB347:
 1315              		.loc 2 383 3 view .LVU316
 1316 0048 2049     		ldr	r1, .L12+48
 1317 004a 2046     		mov	r0, r4
 1318 004c FFF7FEFF 		bl	test_printf
 1319              	.LVL73:
 1320              		.loc 2 383 3 is_stmt 0 view .LVU317
 1321              	.LBE347:
 1322              	.LBE346:
 1323              		.loc 1 82 5 is_stmt 1 view .LVU318
 1324              	.LBB348:
 1325              	.LBI348:
 1326              		.loc 2 369 20 view .LVU319
 1327              	.LBB349:
 1328              		.loc 2 371 3 view .LVU320
 1329 0050 1F49     		ldr	r1, .L12+52
 1330 0052 2846     		mov	r0, r5
 1331 0054 FFF7FEFF 		bl	test_printf
 1332              	.LVL74:
 1333              		.loc 2 371 3 is_stmt 0 view .LVU321
 1334              	.LBE349:
 1335              	.LBE348:
 1336              		.loc 1 83 5 is_stmt 1 view .LVU322
 1337              	.LBB350:
 1338              	.LBI329:
 1339              		.loc 2 357 20 view .LVU323
 1340              	.LBB331:
 1341              		.loc 2 359 3 view .LVU324
 1342 0058 0421     		movs	r1, #4
 1343 005a 3846     		mov	r0, r7
 1344 005c FFF7FEFF 		bl	test_printf
 1345              	.LVL75:
 1346              		.loc 2 359 3 is_stmt 0 view .LVU325
 1347              	.LBE331:
 1348              	.LBE350:
 1349              		.loc 1 84 5 is_stmt 1 view .LVU326
 1350              	.LBB351:
 1351              	.LBI336:
 1352              		.loc 2 381 20 view .LVU327
ARM GAS  C:\Users\DEVELO~1\AppData\Local\Temp\cciogy9W.s 			page 27


 1353              	.LBB338:
 1354              		.loc 2 383 3 view .LVU328
 1355 0060 3146     		mov	r1, r6
 1356 0062 2046     		mov	r0, r4
 1357 0064 FFF7FEFF 		bl	test_printf
 1358              	.LVL76:
 1359              		.loc 2 383 3 is_stmt 0 view .LVU329
 1360              	.LBE338:
 1361              	.LBE351:
 1362              		.loc 1 87 5 is_stmt 1 view .LVU330
 1363              	.LBB352:
 1364              	.LBI352:
 1365              		.loc 2 369 20 view .LVU331
 1366              	.LBB353:
 1367              		.loc 2 371 3 view .LVU332
 1368 0068 1A49     		ldr	r1, .L12+56
 1369 006a 2846     		mov	r0, r5
 1370 006c FFF7FEFF 		bl	test_printf
 1371              	.LVL77:
 1372              		.loc 2 371 3 is_stmt 0 view .LVU333
 1373              	.LBE353:
 1374              	.LBE352:
 1375              		.loc 1 88 5 is_stmt 1 view .LVU334
 1376              	.LBB354:
 1377              	.LBI354:
 1378              		.loc 2 357 20 view .LVU335
 1379              	.LBB355:
 1380              		.loc 2 359 3 view .LVU336
 1381 0070 0821     		movs	r1, #8
 1382 0072 3846     		mov	r0, r7
 1383 0074 FFF7FEFF 		bl	test_printf
 1384              	.LVL78:
 1385              		.loc 2 359 3 is_stmt 0 view .LVU337
 1386              	.LBE355:
 1387              	.LBE354:
 1388              		.loc 1 89 5 is_stmt 1 view .LVU338
 1389              	.LBB356:
 1390              	.LBI356:
 1391              		.loc 2 381 20 view .LVU339
 1392              	.LBB357:
 1393              		.loc 2 383 3 view .LVU340
 1394 0078 3146     		mov	r1, r6
 1395 007a 2046     		mov	r0, r4
 1396 007c FFF7FEFF 		bl	test_printf
 1397              	.LVL79:
 1398              		.loc 2 383 3 is_stmt 0 view .LVU341
 1399              	.LBE357:
 1400              	.LBE356:
 1401              		.loc 1 92 5 is_stmt 1 view .LVU342
 1402              	.LBB358:
 1403              	.LBI358:
 1404              		.loc 2 369 20 view .LVU343
 1405              	.LBB359:
 1406              		.loc 2 371 3 view .LVU344
 1407 0080 1549     		ldr	r1, .L12+60
 1408 0082 2846     		mov	r0, r5
 1409 0084 FFF7FEFF 		bl	test_printf
ARM GAS  C:\Users\DEVELO~1\AppData\Local\Temp\cciogy9W.s 			page 28


 1410              	.LVL80:
 1411              		.loc 2 371 3 is_stmt 0 view .LVU345
 1412              	.LBE359:
 1413              	.LBE358:
 1414              		.loc 1 93 5 is_stmt 1 view .LVU346
 1415              	.LBB360:
 1416              	.LBI360:
 1417              		.loc 2 357 20 view .LVU347
 1418              	.LBB361:
 1419              		.loc 2 359 3 view .LVU348
 1420 0088 0821     		movs	r1, #8
 1421 008a 3846     		mov	r0, r7
 1422 008c FFF7FEFF 		bl	test_printf
 1423              	.LVL81:
 1424              		.loc 2 359 3 is_stmt 0 view .LVU349
 1425              	.LBE361:
 1426              	.LBE360:
 1427              		.loc 1 94 5 is_stmt 1 view .LVU350
 1428              	.LBB362:
 1429              	.LBI362:
 1430              		.loc 2 381 20 view .LVU351
 1431              	.LBB363:
 1432              		.loc 2 383 3 view .LVU352
 1433 0090 3146     		mov	r1, r6
 1434 0092 2046     		mov	r0, r4
 1435              	.LBE363:
 1436              	.LBE362:
 1437              		.loc 1 98 1 is_stmt 0 view .LVU353
 1438 0094 BDE8F840 		pop	{r3, r4, r5, r6, r7, lr}
 1439              		.cfi_restore 14
 1440              		.cfi_restore 7
 1441              		.cfi_restore 6
 1442              		.cfi_restore 5
 1443              		.cfi_restore 4
 1444              		.cfi_restore 3
 1445              		.cfi_def_cfa_offset 0
 1446              	.LBB365:
 1447              	.LBB364:
 1448              		.loc 2 383 3 view .LVU354
 1449 0098 FFF7FEBF 		b	test_printf
 1450              	.LVL82:
 1451              	.L13:
 1452              		.align	2
 1453              	.L12:
 1454 009c 2C000000 		.word	.LC1
 1455 00a0 00000000 		.word	chtest
 1456 00a4 38000000 		.word	.LC4
 1457 00a8 00000000 		.word	.LC27
 1458 00ac 2C000000 		.word	.LC28
 1459 00b0 38000000 		.word	.LC29
 1460 00b4 30000000 		.word	.LC2
 1461 00b8 64000000 		.word	.LC30
 1462 00bc 34000000 		.word	.LC3
 1463 00c0 70000000 		.word	.LC31
 1464 00c4 9C000000 		.word	.LC32
 1465 00c8 B0000000 		.word	.LC33
 1466 00cc DC000000 		.word	.LC34
ARM GAS  C:\Users\DEVELO~1\AppData\Local\Temp\cciogy9W.s 			page 29


 1467 00d0 F4000000 		.word	.LC35
 1468 00d4 20010000 		.word	.LC36
 1469 00d8 4C010000 		.word	.LC37
 1470              	.LBE364:
 1471              	.LBE365:
 1472              		.cfi_endproc
 1473              	.LFE436:
 1474              		.size	oslib_test_001_001_execute, .-oslib_test_001_001_execute
 1475              		.global	oslib_test_sequence_001
 1476              		.section	.rodata.str1.4,"aMS",%progbits,1
 1477              		.align	2
 1478              	.LC38:
 1479 0000 496E666F 		.ascii	"Information\000"
 1479      726D6174 
 1479      696F6E00 
 1480              		.global	oslib_test_sequence_001_array
 1481              		.align	2
 1482              	.LC39:
 1483 000c 4F53204C 		.ascii	"OS Library Settings\000"
 1483      69627261 
 1483      72792053 
 1483      65747469 
 1483      6E677300 
 1484              		.align	2
 1485              	.LC40:
 1486 0020 4F53204C 		.ascii	"OS Library Info\000"
 1486      69627261 
 1486      72792049 
 1486      6E666F00 
 1487              		.align	2
 1488              	.LC41:
 1489 0030 506F7274 		.ascii	"Port Info\000"
 1489      20496E66 
 1489      6F00
 1490              		.section	.rodata.oslib_test_001_001,"a"
 1491              		.align	2
 1492              		.type	oslib_test_001_001, %object
 1493              		.size	oslib_test_001_001, 16
 1494              	oslib_test_001_001:
 1495 0000 30000000 		.word	.LC41
 1496 0004 00000000 		.word	0
 1497 0008 00000000 		.word	0
 1498 000c 00000000 		.word	oslib_test_001_001_execute
 1499              		.section	.rodata.oslib_test_001_002,"a"
 1500              		.align	2
 1501              		.type	oslib_test_001_002, %object
 1502              		.size	oslib_test_001_002, 16
 1503              	oslib_test_001_002:
 1504 0000 20000000 		.word	.LC40
 1505 0004 00000000 		.word	0
 1506 0008 00000000 		.word	0
 1507 000c 00000000 		.word	oslib_test_001_002_execute
 1508              		.section	.rodata.oslib_test_001_003,"a"
 1509              		.align	2
 1510              		.type	oslib_test_001_003, %object
 1511              		.size	oslib_test_001_003, 16
 1512              	oslib_test_001_003:
ARM GAS  C:\Users\DEVELO~1\AppData\Local\Temp\cciogy9W.s 			page 30


 1513 0000 0C000000 		.word	.LC39
 1514 0004 00000000 		.word	0
 1515 0008 00000000 		.word	0
 1516 000c 00000000 		.word	oslib_test_001_003_execute
 1517              		.section	.rodata.oslib_test_sequence_001,"a"
 1518              		.align	2
 1519              		.type	oslib_test_sequence_001, %object
 1520              		.size	oslib_test_sequence_001, 8
 1521              	oslib_test_sequence_001:
 1522 0000 00000000 		.word	.LC38
 1523 0004 00000000 		.word	oslib_test_sequence_001_array
 1524              		.section	.rodata.oslib_test_sequence_001_array,"a"
 1525              		.align	2
 1526              		.type	oslib_test_sequence_001_array, %object
 1527              		.size	oslib_test_sequence_001_array, 16
 1528              	oslib_test_sequence_001_array:
 1529 0000 00000000 		.word	oslib_test_001_001
 1530 0004 00000000 		.word	oslib_test_001_002
 1531 0008 00000000 		.word	oslib_test_001_003
 1532 000c 00000000 		.word	0
 1533              		.text
 1534              	.Letext0:
 1535              		.file 3 "c:\\chibistudio\\tools\\gnu tools arm embedded\\11.3 2022.08\\lib\\gcc\\arm-none-eabi\\11
 1536              		.file 4 "c:\\chibistudio\\tools\\gnu tools arm embedded\\11.3 2022.08\\arm-none-eabi\\include\\mac
 1537              		.file 5 "c:\\chibistudio\\tools\\gnu tools arm embedded\\11.3 2022.08\\arm-none-eabi\\include\\sys
 1538              		.file 6 "../../../os/rt/include/chearly.h"
 1539              		.file 7 "../../../os/hal/include/hal_streams.h"
 1540              		.file 8 "../../../test/oslib/source/test/oslib_test_sequence_001.h"