ARM GAS  C:\Users\DEVELO~1\AppData\Local\Temp\ccsydC44.s 			page 1


   1              		.cpu cortex-m7
   2              		.arch armv7e-m
   3              		.fpu softvfp
   4              		.eabi_attribute 20, 1
   5              		.eabi_attribute 21, 1
   6              		.eabi_attribute 23, 3
   7              		.eabi_attribute 24, 1
   8              		.eabi_attribute 25, 1
   9              		.eabi_attribute 26, 1
  10              		.eabi_attribute 30, 6
  11              		.eabi_attribute 34, 1
  12              		.eabi_attribute 18, 4
  13              		.file	"rt_test_sequence_010.c"
  14              		.text
  15              	.Ltext0:
  16              		.cfi_sections	.debug_frame
  17              		.section	.text.chTimeAddX,"ax",%progbits
  18              		.align	1
  19              		.syntax unified
  20              		.thumb
  21              		.thumb_func
  22              		.type	chTimeAddX, %function
  23              	chTimeAddX:
  24              	.LFB8:
  25              		.file 1 "../../../os/rt/include/chtime.h"
  26              		.loc 1 443 60
  27              		.cfi_startproc
  28              		@ args = 0, pretend = 0, frame = 8
  29              		@ frame_needed = 1, uses_anonymous_args = 0
  30              		@ link register save eliminated.
  31 0000 80B4     		push	{r7}
  32              		.cfi_def_cfa_offset 4
  33              		.cfi_offset 7, -4
  34 0002 83B0     		sub	sp, sp, #12
  35              		.cfi_def_cfa_offset 16
  36 0004 00AF     		add	r7, sp, #0
  37              		.cfi_def_cfa_register 7
  38 0006 7860     		str	r0, [r7, #4]
  39 0008 3960     		str	r1, [r7]
  40              		.loc 1 449 18
  41 000a 7A68     		ldr	r2, [r7, #4]
  42 000c 3B68     		ldr	r3, [r7]
  43 000e 1344     		add	r3, r3, r2
  44              		.loc 1 450 1
  45 0010 1846     		mov	r0, r3
  46 0012 0C37     		adds	r7, r7, #12
  47              		.cfi_def_cfa_offset 4
  48 0014 BD46     		mov	sp, r7
  49              		.cfi_def_cfa_register 13
  50              		@ sp needed
  51 0016 80BC     		pop	{r7}
  52              		.cfi_restore 7
  53              		.cfi_def_cfa_offset 0
  54 0018 7047     		bx	lr
  55              		.cfi_endproc
  56              	.LFE8:
  57              		.size	chTimeAddX, .-chTimeAddX
ARM GAS  C:\Users\DEVELO~1\AppData\Local\Temp\ccsydC44.s 			page 2


  58              		.section	.text.chSysLock,"ax",%progbits
  59              		.align	1
  60              		.syntax unified
  61              		.thumb
  62              		.thumb_func
  63              		.type	chSysLock, %function
  64              	chSysLock:
  65              	.LFB202:
  66              		.file 2 "../../../os/rt/include/chsys.h"
  67              		.loc 2 407 36
  68              		.cfi_startproc
  69              		@ args = 0, pretend = 0, frame = 8
  70              		@ frame_needed = 1, uses_anonymous_args = 0
  71              		@ link register save eliminated.
  72 0000 80B4     		push	{r7}
  73              		.cfi_def_cfa_offset 4
  74              		.cfi_offset 7, -4
  75 0002 83B0     		sub	sp, sp, #12
  76              		.cfi_def_cfa_offset 16
  77 0004 00AF     		add	r7, sp, #0
  78              		.cfi_def_cfa_register 7
  79 0006 3023     		movs	r3, #48
  80 0008 7B60     		str	r3, [r7, #4]
  81              	.LBB14:
  82              	.LBB15:
  83              	.LBB16:
  84              	.LBB17:
  85              		.file 3 "../../../os/common/ext/ARM/CMSIS/Core/Include/cmsis_gcc.h"
  86              		.loc 3 493 3
  87 000a 7B68     		ldr	r3, [r7, #4]
  88              		.syntax unified
  89              	@ 493 "../../../os/common/ext/ARM/CMSIS/Core/Include/cmsis_gcc.h" 1
  90 000c 83F31188 		MSR basepri, r3
  91              	@ 0 "" 2
  92              		.loc 3 494 1
  93              		.thumb
  94              		.syntax unified
  95 0010 00BF     		nop
  96              	.LBE17:
  97              	.LBE16:
  98              		.file 4 "../../../os/common/ports/ARMv7-M/chcore.h"
  99              		.loc 4 840 1
 100 0012 00BF     		nop
 101              	.LBE15:
 102              	.LBE14:
 103              		.loc 2 412 1
 104 0014 00BF     		nop
 105 0016 0C37     		adds	r7, r7, #12
 106              		.cfi_def_cfa_offset 4
 107 0018 BD46     		mov	sp, r7
 108              		.cfi_def_cfa_register 13
 109              		@ sp needed
 110 001a 80BC     		pop	{r7}
 111              		.cfi_restore 7
 112              		.cfi_def_cfa_offset 0
 113 001c 7047     		bx	lr
 114              		.cfi_endproc
ARM GAS  C:\Users\DEVELO~1\AppData\Local\Temp\ccsydC44.s 			page 3


 115              	.LFE202:
 116              		.size	chSysLock, .-chSysLock
 117              		.section	.text.chSysUnlock,"ax",%progbits
 118              		.align	1
 119              		.syntax unified
 120              		.thumb
 121              		.thumb_func
 122              		.type	chSysUnlock, %function
 123              	chSysUnlock:
 124              	.LFB203:
 125              		.loc 2 421 38
 126              		.cfi_startproc
 127              		@ args = 0, pretend = 0, frame = 8
 128              		@ frame_needed = 1, uses_anonymous_args = 0
 129              		@ link register save eliminated.
 130 0000 80B4     		push	{r7}
 131              		.cfi_def_cfa_offset 4
 132              		.cfi_offset 7, -4
 133 0002 83B0     		sub	sp, sp, #12
 134              		.cfi_def_cfa_offset 16
 135 0004 00AF     		add	r7, sp, #0
 136              		.cfi_def_cfa_register 7
 137 0006 0023     		movs	r3, #0
 138 0008 7B60     		str	r3, [r7, #4]
 139              	.LBB18:
 140              	.LBB19:
 141              	.LBB20:
 142              	.LBB21:
 143              		.loc 3 493 3
 144 000a 7B68     		ldr	r3, [r7, #4]
 145              		.syntax unified
 146              	@ 493 "../../../os/common/ext/ARM/CMSIS/Core/Include/cmsis_gcc.h" 1
 147 000c 83F31188 		MSR basepri, r3
 148              	@ 0 "" 2
 149              		.loc 3 494 1
 150              		.thumb
 151              		.syntax unified
 152 0010 00BF     		nop
 153              	.LBE21:
 154              	.LBE20:
 155              		.loc 4 854 1
 156 0012 00BF     		nop
 157              	.LBE19:
 158              	.LBE18:
 159              		.loc 2 435 1
 160 0014 00BF     		nop
 161 0016 0C37     		adds	r7, r7, #12
 162              		.cfi_def_cfa_offset 4
 163 0018 BD46     		mov	sp, r7
 164              		.cfi_def_cfa_register 13
 165              		@ sp needed
 166 001a 80BC     		pop	{r7}
 167              		.cfi_restore 7
 168              		.cfi_def_cfa_offset 0
 169 001c 7047     		bx	lr
 170              		.cfi_endproc
 171              	.LFE203:
ARM GAS  C:\Users\DEVELO~1\AppData\Local\Temp\ccsydC44.s 			page 4


 172              		.size	chSysUnlock, .-chSysUnlock
 173              		.section	.text.chThdGetSelfX,"ax",%progbits
 174              		.align	1
 175              		.syntax unified
 176              		.thumb
 177              		.thumb_func
 178              		.type	chThdGetSelfX, %function
 179              	chThdGetSelfX:
 180              	.LFB229:
 181              		.file 5 "../../../os/rt/include/chthreads.h"
 182              		.loc 5 341 45
 183              		.cfi_startproc
 184              		@ args = 0, pretend = 0, frame = 0
 185              		@ frame_needed = 1, uses_anonymous_args = 0
 186              		@ link register save eliminated.
 187 0000 80B4     		push	{r7}
 188              		.cfi_def_cfa_offset 4
 189              		.cfi_offset 7, -4
 190 0002 00AF     		add	r7, sp, #0
 191              		.cfi_def_cfa_register 7
 192              		.loc 5 343 10
 193 0004 024B     		ldr	r3, .L7
 194 0006 DB68     		ldr	r3, [r3, #12]
 195              		.loc 5 344 1
 196 0008 1846     		mov	r0, r3
 197 000a BD46     		mov	sp, r7
 198              		.cfi_def_cfa_register 13
 199              		@ sp needed
 200 000c 80BC     		pop	{r7}
 201              		.cfi_restore 7
 202              		.cfi_def_cfa_offset 0
 203 000e 7047     		bx	lr
 204              	.L8:
 205              		.align	2
 206              	.L7:
 207 0010 00000000 		.word	ch0
 208              		.cfi_endproc
 209              	.LFE229:
 210              		.size	chThdGetSelfX, .-chThdGetSelfX
 211              		.section	.text.chThdGetPriorityX,"ax",%progbits
 212              		.align	1
 213              		.syntax unified
 214              		.thumb
 215              		.thumb_func
 216              		.type	chThdGetPriorityX, %function
 217              	chThdGetPriorityX:
 218              	.LFB230:
 219              		.loc 5 354 47
 220              		.cfi_startproc
 221              		@ args = 0, pretend = 0, frame = 0
 222              		@ frame_needed = 1, uses_anonymous_args = 0
 223 0000 80B5     		push	{r7, lr}
 224              		.cfi_def_cfa_offset 8
 225              		.cfi_offset 7, -8
 226              		.cfi_offset 14, -4
 227 0002 00AF     		add	r7, sp, #0
 228              		.cfi_def_cfa_register 7
ARM GAS  C:\Users\DEVELO~1\AppData\Local\Temp\ccsydC44.s 			page 5


 229              		.loc 5 356 10
 230 0004 FFF7FEFF 		bl	chThdGetSelfX
 231 0008 0346     		mov	r3, r0
 232              		.loc 5 356 37
 233 000a 9B68     		ldr	r3, [r3, #8]
 234              		.loc 5 357 1
 235 000c 1846     		mov	r0, r3
 236 000e 80BD     		pop	{r7, pc}
 237              		.cfi_endproc
 238              	.LFE230:
 239              		.size	chThdGetPriorityX, .-chThdGetPriorityX
 240              		.section	.text.chEvtObjectInit,"ax",%progbits
 241              		.align	1
 242              		.syntax unified
 243              		.thumb
 244              		.thumb_func
 245              		.type	chEvtObjectInit, %function
 246              	chEvtObjectInit:
 247              	.LFB251:
 248              		.file 6 "../../../os/rt/include/chevents.h"
 249              		.loc 6 175 57
 250              		.cfi_startproc
 251              		@ args = 0, pretend = 0, frame = 8
 252              		@ frame_needed = 1, uses_anonymous_args = 0
 253              		@ link register save eliminated.
 254 0000 80B4     		push	{r7}
 255              		.cfi_def_cfa_offset 4
 256              		.cfi_offset 7, -4
 257 0002 83B0     		sub	sp, sp, #12
 258              		.cfi_def_cfa_offset 16
 259 0004 00AF     		add	r7, sp, #0
 260              		.cfi_def_cfa_register 7
 261 0006 7860     		str	r0, [r7, #4]
 262              		.loc 6 177 13
 263 0008 7B68     		ldr	r3, [r7, #4]
 264 000a 7A68     		ldr	r2, [r7, #4]
 265 000c 1A60     		str	r2, [r3]
 266              		.loc 6 178 1
 267 000e 00BF     		nop
 268 0010 0C37     		adds	r7, r7, #12
 269              		.cfi_def_cfa_offset 4
 270 0012 BD46     		mov	sp, r7
 271              		.cfi_def_cfa_register 13
 272              		@ sp needed
 273 0014 80BC     		pop	{r7}
 274              		.cfi_restore 7
 275              		.cfi_def_cfa_offset 0
 276 0016 7047     		bx	lr
 277              		.cfi_endproc
 278              	.LFE251:
 279              		.size	chEvtObjectInit, .-chEvtObjectInit
 280              		.section	.text.chEvtRegisterMask,"ax",%progbits
 281              		.align	1
 282              		.syntax unified
 283              		.thumb
 284              		.thumb_func
 285              		.type	chEvtRegisterMask, %function
ARM GAS  C:\Users\DEVELO~1\AppData\Local\Temp\ccsydC44.s 			page 6


 286              	chEvtRegisterMask:
 287              	.LFB252:
 288              		.loc 6 196 58
 289              		.cfi_startproc
 290              		@ args = 0, pretend = 0, frame = 16
 291              		@ frame_needed = 1, uses_anonymous_args = 0
 292 0000 80B5     		push	{r7, lr}
 293              		.cfi_def_cfa_offset 8
 294              		.cfi_offset 7, -8
 295              		.cfi_offset 14, -4
 296 0002 84B0     		sub	sp, sp, #16
 297              		.cfi_def_cfa_offset 24
 298 0004 00AF     		add	r7, sp, #0
 299              		.cfi_def_cfa_register 7
 300 0006 F860     		str	r0, [r7, #12]
 301 0008 B960     		str	r1, [r7, #8]
 302 000a 7A60     		str	r2, [r7, #4]
 303              		.loc 6 198 3
 304 000c 4FF0FF33 		mov	r3, #-1
 305 0010 7A68     		ldr	r2, [r7, #4]
 306 0012 B968     		ldr	r1, [r7, #8]
 307 0014 F868     		ldr	r0, [r7, #12]
 308 0016 FFF7FEFF 		bl	chEvtRegisterMaskWithFlags
 309              		.loc 6 199 1
 310 001a 00BF     		nop
 311 001c 1037     		adds	r7, r7, #16
 312              		.cfi_def_cfa_offset 8
 313 001e BD46     		mov	sp, r7
 314              		.cfi_def_cfa_register 13
 315              		@ sp needed
 316 0020 80BD     		pop	{r7, pc}
 317              		.cfi_endproc
 318              	.LFE252:
 319              		.size	chEvtRegisterMask, .-chEvtRegisterMask
 320              		.section	.text.chEvtIsListeningI,"ax",%progbits
 321              		.align	1
 322              		.syntax unified
 323              		.thumb
 324              		.thumb_func
 325              		.type	chEvtIsListeningI, %function
 326              	chEvtIsListeningI:
 327              	.LFB254:
 328              		.loc 6 229 59
 329              		.cfi_startproc
 330              		@ args = 0, pretend = 0, frame = 8
 331              		@ frame_needed = 1, uses_anonymous_args = 0
 332              		@ link register save eliminated.
 333 0000 80B4     		push	{r7}
 334              		.cfi_def_cfa_offset 4
 335              		.cfi_offset 7, -4
 336 0002 83B0     		sub	sp, sp, #12
 337              		.cfi_def_cfa_offset 16
 338 0004 00AF     		add	r7, sp, #0
 339              		.cfi_def_cfa_register 7
 340 0006 7860     		str	r0, [r7, #4]
 341              		.loc 6 231 45
 342 0008 7B68     		ldr	r3, [r7, #4]
ARM GAS  C:\Users\DEVELO~1\AppData\Local\Temp\ccsydC44.s 			page 7


 343 000a 1B68     		ldr	r3, [r3]
 344              		.loc 6 231 10
 345 000c 7A68     		ldr	r2, [r7, #4]
 346 000e 9A42     		cmp	r2, r3
 347 0010 14BF     		ite	ne
 348 0012 0123     		movne	r3, #1
 349 0014 0023     		moveq	r3, #0
 350 0016 DBB2     		uxtb	r3, r3
 351              		.loc 6 232 1
 352 0018 1846     		mov	r0, r3
 353 001a 0C37     		adds	r7, r7, #12
 354              		.cfi_def_cfa_offset 4
 355 001c BD46     		mov	sp, r7
 356              		.cfi_def_cfa_register 13
 357              		@ sp needed
 358 001e 80BC     		pop	{r7}
 359              		.cfi_restore 7
 360              		.cfi_def_cfa_offset 0
 361 0020 7047     		bx	lr
 362              		.cfi_endproc
 363              	.LFE254:
 364              		.size	chEvtIsListeningI, .-chEvtIsListeningI
 365              		.section	.text.chEvtBroadcast,"ax",%progbits
 366              		.align	1
 367              		.syntax unified
 368              		.thumb
 369              		.thumb_func
 370              		.type	chEvtBroadcast, %function
 371              	chEvtBroadcast:
 372              	.LFB255:
 373              		.loc 6 242 56
 374              		.cfi_startproc
 375              		@ args = 0, pretend = 0, frame = 8
 376              		@ frame_needed = 1, uses_anonymous_args = 0
 377 0000 80B5     		push	{r7, lr}
 378              		.cfi_def_cfa_offset 8
 379              		.cfi_offset 7, -8
 380              		.cfi_offset 14, -4
 381 0002 82B0     		sub	sp, sp, #8
 382              		.cfi_def_cfa_offset 16
 383 0004 00AF     		add	r7, sp, #0
 384              		.cfi_def_cfa_register 7
 385 0006 7860     		str	r0, [r7, #4]
 386              		.loc 6 244 3
 387 0008 0021     		movs	r1, #0
 388 000a 7868     		ldr	r0, [r7, #4]
 389 000c FFF7FEFF 		bl	chEvtBroadcastFlags
 390              		.loc 6 245 1
 391 0010 00BF     		nop
 392 0012 0837     		adds	r7, r7, #8
 393              		.cfi_def_cfa_offset 8
 394 0014 BD46     		mov	sp, r7
 395              		.cfi_def_cfa_register 13
 396              		@ sp needed
 397 0016 80BD     		pop	{r7, pc}
 398              		.cfi_endproc
 399              	.LFE255:
ARM GAS  C:\Users\DEVELO~1\AppData\Local\Temp\ccsydC44.s 			page 8


 400              		.size	chEvtBroadcast, .-chEvtBroadcast
 401              		.section	.text.osalSysLock,"ax",%progbits
 402              		.align	1
 403              		.syntax unified
 404              		.thumb
 405              		.thumb_func
 406              		.type	osalSysLock, %function
 407              	osalSysLock:
 408              	.LFB350:
 409              		.file 7 "../../../os/hal/osal/rt-nil/osal.h"
 410              		.loc 7 573 38
 411              		.cfi_startproc
 412              		@ args = 0, pretend = 0, frame = 0
 413              		@ frame_needed = 1, uses_anonymous_args = 0
 414 0000 80B5     		push	{r7, lr}
 415              		.cfi_def_cfa_offset 8
 416              		.cfi_offset 7, -8
 417              		.cfi_offset 14, -4
 418 0002 00AF     		add	r7, sp, #0
 419              		.cfi_def_cfa_register 7
 420              		.loc 7 575 3
 421 0004 FFF7FEFF 		bl	chSysLock
 422              		.loc 7 576 1
 423 0008 00BF     		nop
 424 000a 80BD     		pop	{r7, pc}
 425              		.cfi_endproc
 426              	.LFE350:
 427              		.size	osalSysLock, .-osalSysLock
 428              		.section	.text.osalSysUnlock,"ax",%progbits
 429              		.align	1
 430              		.syntax unified
 431              		.thumb
 432              		.thumb_func
 433              		.type	osalSysUnlock, %function
 434              	osalSysUnlock:
 435              	.LFB351:
 436              		.loc 7 584 40
 437              		.cfi_startproc
 438              		@ args = 0, pretend = 0, frame = 0
 439              		@ frame_needed = 1, uses_anonymous_args = 0
 440 0000 80B5     		push	{r7, lr}
 441              		.cfi_def_cfa_offset 8
 442              		.cfi_offset 7, -8
 443              		.cfi_offset 14, -4
 444 0002 00AF     		add	r7, sp, #0
 445              		.cfi_def_cfa_register 7
 446              		.loc 7 586 3
 447 0004 FFF7FEFF 		bl	chSysUnlock
 448              		.loc 7 587 1
 449 0008 00BF     		nop
 450 000a 80BD     		pop	{r7, pc}
 451              		.cfi_endproc
 452              	.LFE351:
 453              		.size	osalSysUnlock, .-osalSysUnlock
 454              		.section	.data.es1,"aw"
 455              		.align	2
 456              		.type	es1, %object
ARM GAS  C:\Users\DEVELO~1\AppData\Local\Temp\ccsydC44.s 			page 9


 457              		.size	es1, 4
 458              	es1:
 459 0000 00000000 		.word	es1
 460              		.section	.data.es2,"aw"
 461              		.align	2
 462              		.type	es2, %object
 463              		.size	es2, 4
 464              	es2:
 465 0000 00000000 		.word	es2
 466              		.section	.text.h1,"ax",%progbits
 467              		.align	1
 468              		.syntax unified
 469              		.thumb
 470              		.thumb_func
 471              		.type	h1, %function
 472              	h1:
 473              	.LFB436:
 474              		.file 8 "../../../test/rt/source/test/rt_test_sequence_010.c"
 475              		.loc 8 57 30
 476              		.cfi_startproc
 477              		@ args = 0, pretend = 0, frame = 8
 478              		@ frame_needed = 1, uses_anonymous_args = 0
 479 0000 80B5     		push	{r7, lr}
 480              		.cfi_def_cfa_offset 8
 481              		.cfi_offset 7, -8
 482              		.cfi_offset 14, -4
 483 0002 82B0     		sub	sp, sp, #8
 484              		.cfi_def_cfa_offset 16
 485 0004 00AF     		add	r7, sp, #0
 486              		.cfi_def_cfa_register 7
 487 0006 7860     		str	r0, [r7, #4]
 488              		.loc 8 57 40
 489 0008 4120     		movs	r0, #65
 490 000a FFF7FEFF 		bl	test_emit_token
 491              		.loc 8 57 61
 492 000e 00BF     		nop
 493 0010 0837     		adds	r7, r7, #8
 494              		.cfi_def_cfa_offset 8
 495 0012 BD46     		mov	sp, r7
 496              		.cfi_def_cfa_register 13
 497              		@ sp needed
 498 0014 80BD     		pop	{r7, pc}
 499              		.cfi_endproc
 500              	.LFE436:
 501              		.size	h1, .-h1
 502              		.section	.text.h2,"ax",%progbits
 503              		.align	1
 504              		.syntax unified
 505              		.thumb
 506              		.thumb_func
 507              		.type	h2, %function
 508              	h2:
 509              	.LFB437:
 510              		.loc 8 58 30
 511              		.cfi_startproc
 512              		@ args = 0, pretend = 0, frame = 8
 513              		@ frame_needed = 1, uses_anonymous_args = 0
ARM GAS  C:\Users\DEVELO~1\AppData\Local\Temp\ccsydC44.s 			page 10


 514 0000 80B5     		push	{r7, lr}
 515              		.cfi_def_cfa_offset 8
 516              		.cfi_offset 7, -8
 517              		.cfi_offset 14, -4
 518 0002 82B0     		sub	sp, sp, #8
 519              		.cfi_def_cfa_offset 16
 520 0004 00AF     		add	r7, sp, #0
 521              		.cfi_def_cfa_register 7
 522 0006 7860     		str	r0, [r7, #4]
 523              		.loc 8 58 40
 524 0008 4220     		movs	r0, #66
 525 000a FFF7FEFF 		bl	test_emit_token
 526              		.loc 8 58 61
 527 000e 00BF     		nop
 528 0010 0837     		adds	r7, r7, #8
 529              		.cfi_def_cfa_offset 8
 530 0012 BD46     		mov	sp, r7
 531              		.cfi_def_cfa_register 13
 532              		@ sp needed
 533 0014 80BD     		pop	{r7, pc}
 534              		.cfi_endproc
 535              	.LFE437:
 536              		.size	h2, .-h2
 537              		.section	.text.h3,"ax",%progbits
 538              		.align	1
 539              		.syntax unified
 540              		.thumb
 541              		.thumb_func
 542              		.type	h3, %function
 543              	h3:
 544              	.LFB438:
 545              		.loc 8 59 30
 546              		.cfi_startproc
 547              		@ args = 0, pretend = 0, frame = 8
 548              		@ frame_needed = 1, uses_anonymous_args = 0
 549 0000 80B5     		push	{r7, lr}
 550              		.cfi_def_cfa_offset 8
 551              		.cfi_offset 7, -8
 552              		.cfi_offset 14, -4
 553 0002 82B0     		sub	sp, sp, #8
 554              		.cfi_def_cfa_offset 16
 555 0004 00AF     		add	r7, sp, #0
 556              		.cfi_def_cfa_register 7
 557 0006 7860     		str	r0, [r7, #4]
 558              		.loc 8 59 40
 559 0008 4320     		movs	r0, #67
 560 000a FFF7FEFF 		bl	test_emit_token
 561              		.loc 8 59 61
 562 000e 00BF     		nop
 563 0010 0837     		adds	r7, r7, #8
 564              		.cfi_def_cfa_offset 8
 565 0012 BD46     		mov	sp, r7
 566              		.cfi_def_cfa_register 13
 567              		@ sp needed
 568 0014 80BD     		pop	{r7, pc}
 569              		.cfi_endproc
 570              	.LFE438:
ARM GAS  C:\Users\DEVELO~1\AppData\Local\Temp\ccsydC44.s 			page 11


 571              		.size	h3, .-h3
 572              		.section	.rodata.evhndl,"a"
 573              		.align	2
 574              		.type	evhndl, %object
 575              		.size	evhndl, 12
 576              	evhndl:
 577 0000 00000000 		.word	h1
 578 0004 00000000 		.word	h2
 579 0008 00000000 		.word	h3
 580              		.section	.text.evt_thread3,"ax",%progbits
 581              		.align	1
 582              		.syntax unified
 583              		.thumb
 584              		.thumb_func
 585              		.type	evt_thread3, %function
 586              	evt_thread3:
 587              	.LFB439:
 588              		.loc 8 62 37
 589              		.cfi_startproc
 590              		@ args = 0, pretend = 0, frame = 8
 591              		@ frame_needed = 1, uses_anonymous_args = 0
 592 0000 80B5     		push	{r7, lr}
 593              		.cfi_def_cfa_offset 8
 594              		.cfi_offset 7, -8
 595              		.cfi_offset 14, -4
 596 0002 82B0     		sub	sp, sp, #8
 597              		.cfi_def_cfa_offset 16
 598 0004 00AF     		add	r7, sp, #0
 599              		.cfi_def_cfa_register 7
 600 0006 7860     		str	r0, [r7, #4]
 601              		.loc 8 64 3
 602 0008 4FF4FA70 		mov	r0, #500
 603 000c FFF7FEFF 		bl	chThdSleep
 604              		.loc 8 65 3
 605 0010 0121     		movs	r1, #1
 606 0012 7868     		ldr	r0, [r7, #4]
 607 0014 FFF7FEFF 		bl	chEvtSignal
 608              		.loc 8 66 1
 609 0018 00BF     		nop
 610 001a 0837     		adds	r7, r7, #8
 611              		.cfi_def_cfa_offset 8
 612 001c BD46     		mov	sp, r7
 613              		.cfi_def_cfa_register 13
 614              		@ sp needed
 615 001e 80BD     		pop	{r7, pc}
 616              		.cfi_endproc
 617              	.LFE439:
 618              		.size	evt_thread3, .-evt_thread3
 619              		.section	.text.evt_thread7,"ax",%progbits
 620              		.align	1
 621              		.syntax unified
 622              		.thumb
 623              		.thumb_func
 624              		.type	evt_thread7, %function
 625              	evt_thread7:
 626              	.LFB440:
 627              		.loc 8 68 37
ARM GAS  C:\Users\DEVELO~1\AppData\Local\Temp\ccsydC44.s 			page 12


 628              		.cfi_startproc
 629              		@ args = 0, pretend = 0, frame = 8
 630              		@ frame_needed = 1, uses_anonymous_args = 0
 631 0000 80B5     		push	{r7, lr}
 632              		.cfi_def_cfa_offset 8
 633              		.cfi_offset 7, -8
 634              		.cfi_offset 14, -4
 635 0002 82B0     		sub	sp, sp, #8
 636              		.cfi_def_cfa_offset 16
 637 0004 00AF     		add	r7, sp, #0
 638              		.cfi_def_cfa_register 7
 639 0006 7860     		str	r0, [r7, #4]
 640              		.loc 8 71 3
 641 0008 0648     		ldr	r0, .L23
 642 000a FFF7FEFF 		bl	chEvtBroadcast
 643              		.loc 8 72 3
 644 000e 4FF4FA70 		mov	r0, #500
 645 0012 FFF7FEFF 		bl	chThdSleep
 646              		.loc 8 73 3
 647 0016 0448     		ldr	r0, .L23+4
 648 0018 FFF7FEFF 		bl	chEvtBroadcast
 649              		.loc 8 74 1
 650 001c 00BF     		nop
 651 001e 0837     		adds	r7, r7, #8
 652              		.cfi_def_cfa_offset 8
 653 0020 BD46     		mov	sp, r7
 654              		.cfi_def_cfa_register 13
 655              		@ sp needed
 656 0022 80BD     		pop	{r7, pc}
 657              	.L24:
 658              		.align	2
 659              	.L23:
 660 0024 00000000 		.word	es1
 661 0028 00000000 		.word	es2
 662              		.cfi_endproc
 663              	.LFE440:
 664              		.size	evt_thread7, .-evt_thread7
 665              		.section	.rodata
 666              		.align	2
 667              	.LC0:
 668 0000 6E6F206C 		.ascii	"no listener\000"
 668      69737465 
 668      6E657200 
 669              		.align	2
 670              	.LC1:
 671 000c 73747563 		.ascii	"stuck listener\000"
 671      6B206C69 
 671      7374656E 
 671      657200
 672              		.section	.text.rt_test_010_001_execute,"ax",%progbits
 673              		.align	1
 674              		.syntax unified
 675              		.thumb
 676              		.thumb_func
 677              		.type	rt_test_010_001_execute, %function
 678              	rt_test_010_001_execute:
 679              	.LFB441:
ARM GAS  C:\Users\DEVELO~1\AppData\Local\Temp\ccsydC44.s 			page 13


 680              		.loc 8 101 43
 681              		.cfi_startproc
 682              		@ args = 0, pretend = 0, frame = 40
 683              		@ frame_needed = 1, uses_anonymous_args = 0
 684 0000 80B5     		push	{r7, lr}
 685              		.cfi_def_cfa_offset 8
 686              		.cfi_offset 7, -8
 687              		.cfi_offset 14, -4
 688 0002 8AB0     		sub	sp, sp, #40
 689              		.cfi_def_cfa_offset 48
 690 0004 00AF     		add	r7, sp, #0
 691              		.cfi_def_cfa_register 7
 692              		.loc 8 105 3
 693 0006 354B     		ldr	r3, .L31
 694 0008 0122     		movs	r2, #1
 695 000a 1A60     		str	r2, [r3]
 696              		.loc 8 107 5
 697 000c 3448     		ldr	r0, .L31+4
 698 000e FFF7FEFF 		bl	chEvtObjectInit
 699              		.loc 8 113 3
 700 0012 324B     		ldr	r3, .L31
 701 0014 0222     		movs	r2, #2
 702 0016 1A60     		str	r2, [r3]
 703              		.loc 8 115 5
 704 0018 07F11403 		add	r3, r7, #20
 705 001c 0122     		movs	r2, #1
 706 001e 1946     		mov	r1, r3
 707 0020 2F48     		ldr	r0, .L31+4
 708 0022 FFF7FEFF 		bl	chEvtRegisterMask
 709              		.loc 8 116 5
 710 0026 3B46     		mov	r3, r7
 711 0028 0222     		movs	r2, #2
 712 002a 1946     		mov	r1, r3
 713 002c 2C48     		ldr	r0, .L31+4
 714 002e FFF7FEFF 		bl	chEvtRegisterMask
 715              		.loc 8 117 5
 716 0032 FFF7FEFF 		bl	osalSysLock
 717 0036 2A48     		ldr	r0, .L31+4
 718 0038 FFF7FEFF 		bl	chEvtIsListeningI
 719 003c 0346     		mov	r3, r0
 720 003e 2949     		ldr	r1, .L31+8
 721 0040 1846     		mov	r0, r3
 722 0042 FFF7FEFF 		bl	__test_assert
 723 0046 0346     		mov	r3, r0
 724 0048 002B     		cmp	r3, #0
 725 004a 02D0     		beq	.L26
 726              		.loc 8 117 5 is_stmt 0 discriminator 1
 727 004c FFF7FEFF 		bl	osalSysUnlock
 728 0050 41E0     		b	.L25
 729              	.L26:
 730              		.loc 8 117 5 discriminator 2
 731 0052 FFF7FEFF 		bl	osalSysUnlock
 732              		.loc 8 123 3 is_stmt 1 discriminator 2
 733 0056 214B     		ldr	r3, .L31
 734 0058 0322     		movs	r2, #3
 735 005a 1A60     		str	r2, [r3]
 736              		.loc 8 125 5 discriminator 2
ARM GAS  C:\Users\DEVELO~1\AppData\Local\Temp\ccsydC44.s 			page 14


 737 005c 07F11403 		add	r3, r7, #20
 738 0060 1946     		mov	r1, r3
 739 0062 1F48     		ldr	r0, .L31+4
 740 0064 FFF7FEFF 		bl	chEvtUnregister
 741              		.loc 8 126 5 discriminator 2
 742 0068 FFF7FEFF 		bl	osalSysLock
 743 006c 1C48     		ldr	r0, .L31+4
 744 006e FFF7FEFF 		bl	chEvtIsListeningI
 745 0072 0346     		mov	r3, r0
 746 0074 1B49     		ldr	r1, .L31+8
 747 0076 1846     		mov	r0, r3
 748 0078 FFF7FEFF 		bl	__test_assert
 749 007c 0346     		mov	r3, r0
 750 007e 002B     		cmp	r3, #0
 751 0080 02D0     		beq	.L28
 752              		.loc 8 126 5 is_stmt 0 discriminator 1
 753 0082 FFF7FEFF 		bl	osalSysUnlock
 754 0086 26E0     		b	.L25
 755              	.L28:
 756              		.loc 8 126 5 discriminator 2
 757 0088 FFF7FEFF 		bl	osalSysUnlock
 758              		.loc 8 132 3 is_stmt 1 discriminator 2
 759 008c 134B     		ldr	r3, .L31
 760 008e 0422     		movs	r2, #4
 761 0090 1A60     		str	r2, [r3]
 762              		.loc 8 134 5 discriminator 2
 763 0092 3B46     		mov	r3, r7
 764 0094 1946     		mov	r1, r3
 765 0096 1248     		ldr	r0, .L31+4
 766 0098 FFF7FEFF 		bl	chEvtUnregister
 767              		.loc 8 135 5 discriminator 2
 768 009c FFF7FEFF 		bl	osalSysLock
 769 00a0 0F48     		ldr	r0, .L31+4
 770 00a2 FFF7FEFF 		bl	chEvtIsListeningI
 771 00a6 0346     		mov	r3, r0
 772 00a8 002B     		cmp	r3, #0
 773 00aa 14BF     		ite	ne
 774 00ac 0123     		movne	r3, #1
 775 00ae 0023     		moveq	r3, #0
 776 00b0 DBB2     		uxtb	r3, r3
 777 00b2 83F00103 		eor	r3, r3, #1
 778 00b6 DBB2     		uxtb	r3, r3
 779 00b8 03F00103 		and	r3, r3, #1
 780 00bc DBB2     		uxtb	r3, r3
 781 00be 0A49     		ldr	r1, .L31+12
 782 00c0 1846     		mov	r0, r3
 783 00c2 FFF7FEFF 		bl	__test_assert
 784 00c6 0346     		mov	r3, r0
 785 00c8 002B     		cmp	r3, #0
 786 00ca 02D0     		beq	.L29
 787              		.loc 8 135 5 is_stmt 0 discriminator 1
 788 00cc FFF7FEFF 		bl	osalSysUnlock
 789 00d0 01E0     		b	.L25
 790              	.L29:
 791              		.loc 8 135 5 discriminator 2
 792 00d2 FFF7FEFF 		bl	osalSysUnlock
 793              	.L25:
ARM GAS  C:\Users\DEVELO~1\AppData\Local\Temp\ccsydC44.s 			page 15


 794              		.loc 8 138 1 is_stmt 1
 795 00d6 2837     		adds	r7, r7, #40
 796              		.cfi_def_cfa_offset 8
 797 00d8 BD46     		mov	sp, r7
 798              		.cfi_def_cfa_register 13
 799              		@ sp needed
 800 00da 80BD     		pop	{r7, pc}
 801              	.L32:
 802              		.align	2
 803              	.L31:
 804 00dc 00000000 		.word	chtest
 805 00e0 00000000 		.word	es1
 806 00e4 00000000 		.word	.LC0
 807 00e8 0C000000 		.word	.LC1
 808              		.cfi_endproc
 809              	.LFE441:
 810              		.size	rt_test_010_001_execute, .-rt_test_010_001_execute
 811              		.section	.rodata
 812 001b 00       		.align	2
 813              	.LC2:
 814 001c 4576656E 		.ascii	"Events registration\000"
 814      74732072 
 814      65676973 
 814      74726174 
 814      696F6E00 
 815              		.section	.rodata.rt_test_010_001,"a"
 816              		.align	2
 817              		.type	rt_test_010_001, %object
 818              		.size	rt_test_010_001, 16
 819              	rt_test_010_001:
 820 0000 1C000000 		.word	.LC2
 821 0004 00000000 		.word	0
 822 0008 00000000 		.word	0
 823 000c 00000000 		.word	rt_test_010_001_execute
 824              		.section	.text.rt_test_010_002_setup,"ax",%progbits
 825              		.align	1
 826              		.syntax unified
 827              		.thumb
 828              		.thumb_func
 829              		.type	rt_test_010_002_setup, %function
 830              	rt_test_010_002_setup:
 831              	.LFB442:
 832              		.loc 8 160 41
 833              		.cfi_startproc
 834              		@ args = 0, pretend = 0, frame = 0
 835              		@ frame_needed = 1, uses_anonymous_args = 0
 836 0000 80B5     		push	{r7, lr}
 837              		.cfi_def_cfa_offset 8
 838              		.cfi_offset 7, -8
 839              		.cfi_offset 14, -4
 840 0002 00AF     		add	r7, sp, #0
 841              		.cfi_def_cfa_register 7
 842              		.loc 8 161 3
 843 0004 4FF0FF30 		mov	r0, #-1
 844 0008 FFF7FEFF 		bl	chEvtGetAndClearEvents
 845              		.loc 8 162 1
 846 000c 00BF     		nop
ARM GAS  C:\Users\DEVELO~1\AppData\Local\Temp\ccsydC44.s 			page 16


 847 000e 80BD     		pop	{r7, pc}
 848              		.cfi_endproc
 849              	.LFE442:
 850              		.size	rt_test_010_002_setup, .-rt_test_010_002_setup
 851              		.section	.rodata
 852              		.align	2
 853              	.LC3:
 854 0030 696E7661 		.ascii	"invalid sequence\000"
 854      6C696420 
 854      73657175 
 854      656E6365 
 854      00
 855 0041 000000   		.align	2
 856              	.LC4:
 857 0044 41424300 		.ascii	"ABC\000"
 858              		.section	.text.rt_test_010_002_execute,"ax",%progbits
 859              		.align	1
 860              		.syntax unified
 861              		.thumb
 862              		.thumb_func
 863              		.type	rt_test_010_002_execute, %function
 864              	rt_test_010_002_execute:
 865              	.LFB443:
 866              		.loc 8 164 43
 867              		.cfi_startproc
 868              		@ args = 0, pretend = 0, frame = 0
 869              		@ frame_needed = 1, uses_anonymous_args = 0
 870 0000 80B5     		push	{r7, lr}
 871              		.cfi_def_cfa_offset 8
 872              		.cfi_offset 7, -8
 873              		.cfi_offset 14, -4
 874 0002 00AF     		add	r7, sp, #0
 875              		.cfi_def_cfa_register 7
 876              		.loc 8 168 3
 877 0004 064B     		ldr	r3, .L36
 878 0006 0122     		movs	r2, #1
 879 0008 1A60     		str	r2, [r3]
 880              		.loc 8 170 5
 881 000a 0721     		movs	r1, #7
 882 000c 0548     		ldr	r0, .L36+4
 883 000e FFF7FEFF 		bl	chEvtDispatch
 884              		.loc 8 171 5
 885 0012 0549     		ldr	r1, .L36+8
 886 0014 0548     		ldr	r0, .L36+12
 887 0016 FFF7FEFF 		bl	__test_assert_sequence
 888 001a 0346     		mov	r3, r0
 889 001c 002B     		cmp	r3, #0
 890              		.loc 8 174 1
 891 001e 80BD     		pop	{r7, pc}
 892              	.L37:
 893              		.align	2
 894              	.L36:
 895 0020 00000000 		.word	chtest
 896 0024 00000000 		.word	evhndl
 897 0028 30000000 		.word	.LC3
 898 002c 44000000 		.word	.LC4
 899              		.cfi_endproc
ARM GAS  C:\Users\DEVELO~1\AppData\Local\Temp\ccsydC44.s 			page 17


 900              	.LFE443:
 901              		.size	rt_test_010_002_execute, .-rt_test_010_002_execute
 902              		.section	.rodata
 903              		.align	2
 904              	.LC5:
 905 0048 4576656E 		.ascii	"Event Flags dispatching\000"
 905      7420466C 
 905      61677320 
 905      64697370 
 905      61746368 
 906              		.section	.rodata.rt_test_010_002,"a"
 907              		.align	2
 908              		.type	rt_test_010_002, %object
 909              		.size	rt_test_010_002, 16
 910              	rt_test_010_002:
 911 0000 48000000 		.word	.LC5
 912 0004 00000000 		.word	rt_test_010_002_setup
 913 0008 00000000 		.word	0
 914 000c 00000000 		.word	rt_test_010_002_execute
 915              		.section	.text.rt_test_010_003_setup,"ax",%progbits
 916              		.align	1
 917              		.syntax unified
 918              		.thumb
 919              		.thumb_func
 920              		.type	rt_test_010_003_setup, %function
 921              	rt_test_010_003_setup:
 922              	.LFB444:
 923              		.loc 8 201 41
 924              		.cfi_startproc
 925              		@ args = 0, pretend = 0, frame = 0
 926              		@ frame_needed = 1, uses_anonymous_args = 0
 927 0000 80B5     		push	{r7, lr}
 928              		.cfi_def_cfa_offset 8
 929              		.cfi_offset 7, -8
 930              		.cfi_offset 14, -4
 931 0002 00AF     		add	r7, sp, #0
 932              		.cfi_def_cfa_register 7
 933              		.loc 8 202 3
 934 0004 4FF0FF30 		mov	r0, #-1
 935 0008 FFF7FEFF 		bl	chEvtGetAndClearEvents
 936              		.loc 8 203 1
 937 000c 00BF     		nop
 938 000e 80BD     		pop	{r7, pc}
 939              		.cfi_endproc
 940              	.LFE444:
 941              		.size	rt_test_010_003_setup, .-rt_test_010_003_setup
 942              		.section	.rodata
 943              		.align	2
 944              	.LC6:
 945 0060 73696E67 		.ascii	"single event error\000"
 945      6C652065 
 945      76656E74 
 945      20657272 
 945      6F7200
 946 0073 00       		.align	2
 947              	.LC7:
 948 0074 73747563 		.ascii	"stuck event\000"
ARM GAS  C:\Users\DEVELO~1\AppData\Local\Temp\ccsydC44.s 			page 18


 948      6B206576 
 948      656E7400 
 949              		.align	2
 950              	.LC8:
 951 0080 6F757420 		.ascii	"out of time window\000"
 951      6F662074 
 951      696D6520 
 951      77696E64 
 951      6F7700
 952 0093 00       		.align	2
 953              	.LC9:
 954 0094 6576656E 		.ascii	"event flag error\000"
 954      7420666C 
 954      61672065 
 954      72726F72 
 954      00
 955              		.section	.text.rt_test_010_003_execute,"ax",%progbits
 956              		.align	1
 957              		.syntax unified
 958              		.thumb
 959              		.thumb_func
 960              		.type	rt_test_010_003_execute, %function
 961              	rt_test_010_003_execute:
 962              	.LFB445:
 963              		.loc 8 205 43
 964              		.cfi_startproc
 965              		@ args = 0, pretend = 0, frame = 8
 966              		@ frame_needed = 1, uses_anonymous_args = 0
 967 0000 B0B5     		push	{r4, r5, r7, lr}
 968              		.cfi_def_cfa_offset 16
 969              		.cfi_offset 4, -16
 970              		.cfi_offset 5, -12
 971              		.cfi_offset 7, -8
 972              		.cfi_offset 14, -4
 973 0002 84B0     		sub	sp, sp, #16
 974              		.cfi_def_cfa_offset 32
 975 0004 02AF     		add	r7, sp, #8
 976              		.cfi_def_cfa 7, 24
 977              		.loc 8 210 3
 978 0006 554B     		ldr	r3, .L48
 979 0008 0122     		movs	r2, #1
 980 000a 1A60     		str	r2, [r3]
 981              		.loc 8 212 5
 982 000c 0720     		movs	r0, #7
 983 000e FFF7FEFF 		bl	chEvtAddEvents
 984              		.loc 8 218 3
 985 0012 524B     		ldr	r3, .L48
 986 0014 0222     		movs	r2, #2
 987 0016 1A60     		str	r2, [r3]
 988              		.loc 8 220 9
 989 0018 4FF0FF30 		mov	r0, #-1
 990 001c FFF7FEFF 		bl	chEvtWaitOne
 991 0020 7860     		str	r0, [r7, #4]
 992              		.loc 8 221 5
 993 0022 7B68     		ldr	r3, [r7, #4]
 994 0024 012B     		cmp	r3, #1
 995 0026 0CBF     		ite	eq
ARM GAS  C:\Users\DEVELO~1\AppData\Local\Temp\ccsydC44.s 			page 19


 996 0028 0123     		moveq	r3, #1
 997 002a 0023     		movne	r3, #0
 998 002c DBB2     		uxtb	r3, r3
 999 002e 4C49     		ldr	r1, .L48+4
 1000 0030 1846     		mov	r0, r3
 1001 0032 FFF7FEFF 		bl	__test_assert
 1002 0036 0346     		mov	r3, r0
 1003 0038 002B     		cmp	r3, #0
 1004 003a 40F08C80 		bne	.L39
 1005              		.loc 8 222 9
 1006 003e 4FF0FF30 		mov	r0, #-1
 1007 0042 FFF7FEFF 		bl	chEvtWaitOne
 1008 0046 7860     		str	r0, [r7, #4]
 1009              		.loc 8 223 5
 1010 0048 7B68     		ldr	r3, [r7, #4]
 1011 004a 022B     		cmp	r3, #2
 1012 004c 0CBF     		ite	eq
 1013 004e 0123     		moveq	r3, #1
 1014 0050 0023     		movne	r3, #0
 1015 0052 DBB2     		uxtb	r3, r3
 1016 0054 4249     		ldr	r1, .L48+4
 1017 0056 1846     		mov	r0, r3
 1018 0058 FFF7FEFF 		bl	__test_assert
 1019 005c 0346     		mov	r3, r0
 1020 005e 002B     		cmp	r3, #0
 1021 0060 79D1     		bne	.L39
 1022              		.loc 8 224 9
 1023 0062 4FF0FF30 		mov	r0, #-1
 1024 0066 FFF7FEFF 		bl	chEvtWaitOne
 1025 006a 7860     		str	r0, [r7, #4]
 1026              		.loc 8 225 5
 1027 006c 7B68     		ldr	r3, [r7, #4]
 1028 006e 042B     		cmp	r3, #4
 1029 0070 0CBF     		ite	eq
 1030 0072 0123     		moveq	r3, #1
 1031 0074 0023     		movne	r3, #0
 1032 0076 DBB2     		uxtb	r3, r3
 1033 0078 3949     		ldr	r1, .L48+4
 1034 007a 1846     		mov	r0, r3
 1035 007c FFF7FEFF 		bl	__test_assert
 1036 0080 0346     		mov	r3, r0
 1037 0082 002B     		cmp	r3, #0
 1038 0084 67D1     		bne	.L39
 1039              		.loc 8 226 9
 1040 0086 4FF0FF30 		mov	r0, #-1
 1041 008a FFF7FEFF 		bl	chEvtGetAndClearEvents
 1042 008e 7860     		str	r0, [r7, #4]
 1043              		.loc 8 227 5
 1044 0090 7B68     		ldr	r3, [r7, #4]
 1045 0092 002B     		cmp	r3, #0
 1046 0094 0CBF     		ite	eq
 1047 0096 0123     		moveq	r3, #1
 1048 0098 0023     		movne	r3, #0
 1049 009a DBB2     		uxtb	r3, r3
 1050 009c 3149     		ldr	r1, .L48+8
 1051 009e 1846     		mov	r0, r3
 1052 00a0 FFF7FEFF 		bl	__test_assert
ARM GAS  C:\Users\DEVELO~1\AppData\Local\Temp\ccsydC44.s 			page 20


 1053 00a4 0346     		mov	r3, r0
 1054 00a6 002B     		cmp	r3, #0
 1055 00a8 55D1     		bne	.L39
 1056              		.loc 8 233 3
 1057 00aa 2C4B     		ldr	r3, .L48
 1058 00ac 0322     		movs	r2, #3
 1059 00ae 1A60     		str	r2, [r3]
 1060              		.loc 8 235 19
 1061 00b0 FFF7FEFF 		bl	test_wait_tick
 1062 00b4 0346     		mov	r3, r0
 1063 00b6 4FF4FA71 		mov	r1, #500
 1064 00ba 1846     		mov	r0, r3
 1065 00bc FFF7FEFF 		bl	chTimeAddX
 1066 00c0 3860     		str	r0, [r7]
 1067              		.loc 8 236 38
 1068 00c2 294B     		ldr	r3, .L48+12
 1069 00c4 1C68     		ldr	r4, [r3]
 1070              		.loc 8 236 52
 1071 00c6 FFF7FEFF 		bl	chThdGetPriorityX
 1072 00ca 0346     		mov	r3, r0
 1073              		.loc 8 236 18
 1074 00cc 5D1E     		subs	r5, r3, #1
 1075              		.loc 8 237 49
 1076 00ce FFF7FEFF 		bl	chThdGetSelfX
 1077 00d2 0346     		mov	r3, r0
 1078              		.loc 8 236 18
 1079 00d4 0093     		str	r3, [sp]
 1080 00d6 254B     		ldr	r3, .L48+16
 1081 00d8 2A46     		mov	r2, r5
 1082 00da 4FF4D871 		mov	r1, #432
 1083 00de 2046     		mov	r0, r4
 1084 00e0 FFF7FEFF 		bl	chThdCreateStatic
 1085 00e4 0346     		mov	r3, r0
 1086              		.loc 8 236 16
 1087 00e6 224A     		ldr	r2, .L48+20
 1088 00e8 1360     		str	r3, [r2]
 1089              		.loc 8 244 3
 1090 00ea 1C4B     		ldr	r3, .L48
 1091 00ec 0422     		movs	r2, #4
 1092 00ee 1A60     		str	r2, [r3]
 1093              		.loc 8 246 9
 1094 00f0 4FF0FF30 		mov	r0, #-1
 1095 00f4 FFF7FEFF 		bl	chEvtWaitOne
 1096 00f8 7860     		str	r0, [r7, #4]
 1097              		.loc 8 247 5
 1098 00fa 1421     		movs	r1, #20
 1099 00fc 3868     		ldr	r0, [r7]
 1100 00fe FFF7FEFF 		bl	chTimeAddX
 1101 0102 0346     		mov	r3, r0
 1102 0104 1B4A     		ldr	r2, .L48+24
 1103 0106 1946     		mov	r1, r3
 1104 0108 3868     		ldr	r0, [r7]
 1105 010a FFF7FEFF 		bl	__test_assert_time_window
 1106 010e 0346     		mov	r3, r0
 1107 0110 002B     		cmp	r3, #0
 1108 0112 20D1     		bne	.L39
 1109              		.loc 8 250 5
ARM GAS  C:\Users\DEVELO~1\AppData\Local\Temp\ccsydC44.s 			page 21


 1110 0114 7B68     		ldr	r3, [r7, #4]
 1111 0116 012B     		cmp	r3, #1
 1112 0118 0CBF     		ite	eq
 1113 011a 0123     		moveq	r3, #1
 1114 011c 0023     		movne	r3, #0
 1115 011e DBB2     		uxtb	r3, r3
 1116 0120 1549     		ldr	r1, .L48+28
 1117 0122 1846     		mov	r0, r3
 1118 0124 FFF7FEFF 		bl	__test_assert
 1119 0128 0346     		mov	r3, r0
 1120 012a 002B     		cmp	r3, #0
 1121 012c 13D1     		bne	.L39
 1122              		.loc 8 251 9
 1123 012e 4FF0FF30 		mov	r0, #-1
 1124 0132 FFF7FEFF 		bl	chEvtGetAndClearEvents
 1125 0136 7860     		str	r0, [r7, #4]
 1126              		.loc 8 252 5
 1127 0138 7B68     		ldr	r3, [r7, #4]
 1128 013a 002B     		cmp	r3, #0
 1129 013c 0CBF     		ite	eq
 1130 013e 0123     		moveq	r3, #1
 1131 0140 0023     		movne	r3, #0
 1132 0142 DBB2     		uxtb	r3, r3
 1133 0144 0749     		ldr	r1, .L48+8
 1134 0146 1846     		mov	r0, r3
 1135 0148 FFF7FEFF 		bl	__test_assert
 1136 014c 0346     		mov	r3, r0
 1137 014e 002B     		cmp	r3, #0
 1138 0150 01D1     		bne	.L39
 1139              		.loc 8 253 5
 1140 0152 FFF7FEFF 		bl	test_wait_threads
 1141              	.L39:
 1142              		.loc 8 256 1
 1143 0156 0837     		adds	r7, r7, #8
 1144              		.cfi_def_cfa_offset 16
 1145 0158 BD46     		mov	sp, r7
 1146              		.cfi_def_cfa_register 13
 1147              		@ sp needed
 1148 015a B0BD     		pop	{r4, r5, r7, pc}
 1149              	.L49:
 1150              		.align	2
 1151              	.L48:
 1152 015c 00000000 		.word	chtest
 1153 0160 60000000 		.word	.LC6
 1154 0164 74000000 		.word	.LC7
 1155 0168 00000000 		.word	wa
 1156 016c 00000000 		.word	evt_thread3
 1157 0170 00000000 		.word	threads
 1158 0174 80000000 		.word	.LC8
 1159 0178 94000000 		.word	.LC9
 1160              		.cfi_endproc
 1161              	.LFE445:
 1162              		.size	rt_test_010_003_execute, .-rt_test_010_003_execute
 1163              		.section	.rodata
 1164 00a5 000000   		.align	2
 1165              	.LC10:
 1166 00a8 4576656E 		.ascii	"Events Flags wait using chEvtWaitOne()\000"
ARM GAS  C:\Users\DEVELO~1\AppData\Local\Temp\ccsydC44.s 			page 22


 1166      74732046 
 1166      6C616773 
 1166      20776169 
 1166      74207573 
 1167              		.section	.rodata.rt_test_010_003,"a"
 1168              		.align	2
 1169              		.type	rt_test_010_003, %object
 1170              		.size	rt_test_010_003, 16
 1171              	rt_test_010_003:
 1172 0000 A8000000 		.word	.LC10
 1173 0004 00000000 		.word	rt_test_010_003_setup
 1174 0008 00000000 		.word	0
 1175 000c 00000000 		.word	rt_test_010_003_execute
 1176              		.section	.text.rt_test_010_004_setup,"ax",%progbits
 1177              		.align	1
 1178              		.syntax unified
 1179              		.thumb
 1180              		.thumb_func
 1181              		.type	rt_test_010_004_setup, %function
 1182              	rt_test_010_004_setup:
 1183              	.LFB446:
 1184              		.loc 8 283 41
 1185              		.cfi_startproc
 1186              		@ args = 0, pretend = 0, frame = 0
 1187              		@ frame_needed = 1, uses_anonymous_args = 0
 1188 0000 80B5     		push	{r7, lr}
 1189              		.cfi_def_cfa_offset 8
 1190              		.cfi_offset 7, -8
 1191              		.cfi_offset 14, -4
 1192 0002 00AF     		add	r7, sp, #0
 1193              		.cfi_def_cfa_register 7
 1194              		.loc 8 284 3
 1195 0004 4FF0FF30 		mov	r0, #-1
 1196 0008 FFF7FEFF 		bl	chEvtGetAndClearEvents
 1197              		.loc 8 285 1
 1198 000c 00BF     		nop
 1199 000e 80BD     		pop	{r7, pc}
 1200              		.cfi_endproc
 1201              	.LFE446:
 1202              		.size	rt_test_010_004_setup, .-rt_test_010_004_setup
 1203              		.section	.rodata
 1204 00cf 00       		.align	2
 1205              	.LC11:
 1206 00d0 756E6578 		.ascii	"unexpected pending bit\000"
 1206      70656374 
 1206      65642070 
 1206      656E6469 
 1206      6E672062 
 1207              		.section	.text.rt_test_010_004_execute,"ax",%progbits
 1208              		.align	1
 1209              		.syntax unified
 1210              		.thumb
 1211              		.thumb_func
 1212              		.type	rt_test_010_004_execute, %function
 1213              	rt_test_010_004_execute:
 1214              	.LFB447:
 1215              		.loc 8 287 43
ARM GAS  C:\Users\DEVELO~1\AppData\Local\Temp\ccsydC44.s 			page 23


 1216              		.cfi_startproc
 1217              		@ args = 0, pretend = 0, frame = 8
 1218              		@ frame_needed = 1, uses_anonymous_args = 0
 1219 0000 B0B5     		push	{r4, r5, r7, lr}
 1220              		.cfi_def_cfa_offset 16
 1221              		.cfi_offset 4, -16
 1222              		.cfi_offset 5, -12
 1223              		.cfi_offset 7, -8
 1224              		.cfi_offset 14, -4
 1225 0002 84B0     		sub	sp, sp, #16
 1226              		.cfi_def_cfa_offset 32
 1227 0004 02AF     		add	r7, sp, #8
 1228              		.cfi_def_cfa 7, 24
 1229              		.loc 8 292 3
 1230 0006 434B     		ldr	r3, .L58
 1231 0008 0122     		movs	r2, #1
 1232 000a 1A60     		str	r2, [r3]
 1233              		.loc 8 294 5
 1234 000c 0520     		movs	r0, #5
 1235 000e FFF7FEFF 		bl	chEvtAddEvents
 1236              		.loc 8 300 3
 1237 0012 404B     		ldr	r3, .L58
 1238 0014 0222     		movs	r2, #2
 1239 0016 1A60     		str	r2, [r3]
 1240              		.loc 8 302 9
 1241 0018 4FF0FF30 		mov	r0, #-1
 1242 001c FFF7FEFF 		bl	chEvtWaitAny
 1243 0020 7860     		str	r0, [r7, #4]
 1244              		.loc 8 303 5
 1245 0022 7B68     		ldr	r3, [r7, #4]
 1246 0024 052B     		cmp	r3, #5
 1247 0026 0CBF     		ite	eq
 1248 0028 0123     		moveq	r3, #1
 1249 002a 0023     		movne	r3, #0
 1250 002c DBB2     		uxtb	r3, r3
 1251 002e 3A49     		ldr	r1, .L58+4
 1252 0030 1846     		mov	r0, r3
 1253 0032 FFF7FEFF 		bl	__test_assert
 1254 0036 0346     		mov	r3, r0
 1255 0038 002B     		cmp	r3, #0
 1256 003a 67D1     		bne	.L51
 1257              		.loc 8 304 9
 1258 003c 4FF0FF30 		mov	r0, #-1
 1259 0040 FFF7FEFF 		bl	chEvtGetAndClearEvents
 1260 0044 7860     		str	r0, [r7, #4]
 1261              		.loc 8 305 5
 1262 0046 7B68     		ldr	r3, [r7, #4]
 1263 0048 002B     		cmp	r3, #0
 1264 004a 0CBF     		ite	eq
 1265 004c 0123     		moveq	r3, #1
 1266 004e 0023     		movne	r3, #0
 1267 0050 DBB2     		uxtb	r3, r3
 1268 0052 3249     		ldr	r1, .L58+8
 1269 0054 1846     		mov	r0, r3
 1270 0056 FFF7FEFF 		bl	__test_assert
 1271 005a 0346     		mov	r3, r0
 1272 005c 002B     		cmp	r3, #0
ARM GAS  C:\Users\DEVELO~1\AppData\Local\Temp\ccsydC44.s 			page 24


 1273 005e 55D1     		bne	.L51
 1274              		.loc 8 311 3
 1275 0060 2C4B     		ldr	r3, .L58
 1276 0062 0322     		movs	r2, #3
 1277 0064 1A60     		str	r2, [r3]
 1278              		.loc 8 313 19
 1279 0066 FFF7FEFF 		bl	test_wait_tick
 1280 006a 0346     		mov	r3, r0
 1281 006c 4FF4FA71 		mov	r1, #500
 1282 0070 1846     		mov	r0, r3
 1283 0072 FFF7FEFF 		bl	chTimeAddX
 1284 0076 3860     		str	r0, [r7]
 1285              		.loc 8 314 38
 1286 0078 294B     		ldr	r3, .L58+12
 1287 007a 1C68     		ldr	r4, [r3]
 1288              		.loc 8 314 52
 1289 007c FFF7FEFF 		bl	chThdGetPriorityX
 1290 0080 0346     		mov	r3, r0
 1291              		.loc 8 314 18
 1292 0082 5D1E     		subs	r5, r3, #1
 1293              		.loc 8 315 49
 1294 0084 FFF7FEFF 		bl	chThdGetSelfX
 1295 0088 0346     		mov	r3, r0
 1296              		.loc 8 314 18
 1297 008a 0093     		str	r3, [sp]
 1298 008c 254B     		ldr	r3, .L58+16
 1299 008e 2A46     		mov	r2, r5
 1300 0090 4FF4D871 		mov	r1, #432
 1301 0094 2046     		mov	r0, r4
 1302 0096 FFF7FEFF 		bl	chThdCreateStatic
 1303 009a 0346     		mov	r3, r0
 1304              		.loc 8 314 16
 1305 009c 224A     		ldr	r2, .L58+20
 1306 009e 1360     		str	r3, [r2]
 1307              		.loc 8 322 3
 1308 00a0 1C4B     		ldr	r3, .L58
 1309 00a2 0422     		movs	r2, #4
 1310 00a4 1A60     		str	r2, [r3]
 1311              		.loc 8 324 9
 1312 00a6 4FF0FF30 		mov	r0, #-1
 1313 00aa FFF7FEFF 		bl	chEvtWaitAny
 1314 00ae 7860     		str	r0, [r7, #4]
 1315              		.loc 8 325 5
 1316 00b0 1421     		movs	r1, #20
 1317 00b2 3868     		ldr	r0, [r7]
 1318 00b4 FFF7FEFF 		bl	chTimeAddX
 1319 00b8 0346     		mov	r3, r0
 1320 00ba 1C4A     		ldr	r2, .L58+24
 1321 00bc 1946     		mov	r1, r3
 1322 00be 3868     		ldr	r0, [r7]
 1323 00c0 FFF7FEFF 		bl	__test_assert_time_window
 1324 00c4 0346     		mov	r3, r0
 1325 00c6 002B     		cmp	r3, #0
 1326 00c8 20D1     		bne	.L51
 1327              		.loc 8 328 5
 1328 00ca 7B68     		ldr	r3, [r7, #4]
 1329 00cc 012B     		cmp	r3, #1
ARM GAS  C:\Users\DEVELO~1\AppData\Local\Temp\ccsydC44.s 			page 25


 1330 00ce 0CBF     		ite	eq
 1331 00d0 0123     		moveq	r3, #1
 1332 00d2 0023     		movne	r3, #0
 1333 00d4 DBB2     		uxtb	r3, r3
 1334 00d6 1649     		ldr	r1, .L58+28
 1335 00d8 1846     		mov	r0, r3
 1336 00da FFF7FEFF 		bl	__test_assert
 1337 00de 0346     		mov	r3, r0
 1338 00e0 002B     		cmp	r3, #0
 1339 00e2 13D1     		bne	.L51
 1340              		.loc 8 329 9
 1341 00e4 4FF0FF30 		mov	r0, #-1
 1342 00e8 FFF7FEFF 		bl	chEvtGetAndClearEvents
 1343 00ec 7860     		str	r0, [r7, #4]
 1344              		.loc 8 330 5
 1345 00ee 7B68     		ldr	r3, [r7, #4]
 1346 00f0 002B     		cmp	r3, #0
 1347 00f2 0CBF     		ite	eq
 1348 00f4 0123     		moveq	r3, #1
 1349 00f6 0023     		movne	r3, #0
 1350 00f8 DBB2     		uxtb	r3, r3
 1351 00fa 0849     		ldr	r1, .L58+8
 1352 00fc 1846     		mov	r0, r3
 1353 00fe FFF7FEFF 		bl	__test_assert
 1354 0102 0346     		mov	r3, r0
 1355 0104 002B     		cmp	r3, #0
 1356 0106 01D1     		bne	.L51
 1357              		.loc 8 331 5
 1358 0108 FFF7FEFF 		bl	test_wait_threads
 1359              	.L51:
 1360              		.loc 8 334 1
 1361 010c 0837     		adds	r7, r7, #8
 1362              		.cfi_def_cfa_offset 16
 1363 010e BD46     		mov	sp, r7
 1364              		.cfi_def_cfa_register 13
 1365              		@ sp needed
 1366 0110 B0BD     		pop	{r4, r5, r7, pc}
 1367              	.L59:
 1368 0112 00BF     		.align	2
 1369              	.L58:
 1370 0114 00000000 		.word	chtest
 1371 0118 D0000000 		.word	.LC11
 1372 011c 74000000 		.word	.LC7
 1373 0120 00000000 		.word	wa
 1374 0124 00000000 		.word	evt_thread3
 1375 0128 00000000 		.word	threads
 1376 012c 80000000 		.word	.LC8
 1377 0130 94000000 		.word	.LC9
 1378              		.cfi_endproc
 1379              	.LFE447:
 1380              		.size	rt_test_010_004_execute, .-rt_test_010_004_execute
 1381              		.section	.rodata
 1382 00e7 00       		.align	2
 1383              	.LC12:
 1384 00e8 4576656E 		.ascii	"Events Flags wait using chEvtWaitAny()\000"
 1384      74732046 
 1384      6C616773 
ARM GAS  C:\Users\DEVELO~1\AppData\Local\Temp\ccsydC44.s 			page 26


 1384      20776169 
 1384      74207573 
 1385              		.section	.rodata.rt_test_010_004,"a"
 1386              		.align	2
 1387              		.type	rt_test_010_004, %object
 1388              		.size	rt_test_010_004, 16
 1389              	rt_test_010_004:
 1390 0000 E8000000 		.word	.LC12
 1391 0004 00000000 		.word	rt_test_010_004_setup
 1392 0008 00000000 		.word	0
 1393 000c 00000000 		.word	rt_test_010_004_execute
 1394              		.section	.text.rt_test_010_005_setup,"ax",%progbits
 1395              		.align	1
 1396              		.syntax unified
 1397              		.thumb
 1398              		.thumb_func
 1399              		.type	rt_test_010_005_setup, %function
 1400              	rt_test_010_005_setup:
 1401              	.LFB448:
 1402              		.loc 8 362 41
 1403              		.cfi_startproc
 1404              		@ args = 0, pretend = 0, frame = 0
 1405              		@ frame_needed = 1, uses_anonymous_args = 0
 1406 0000 80B5     		push	{r7, lr}
 1407              		.cfi_def_cfa_offset 8
 1408              		.cfi_offset 7, -8
 1409              		.cfi_offset 14, -4
 1410 0002 00AF     		add	r7, sp, #0
 1411              		.cfi_def_cfa_register 7
 1412              		.loc 8 363 3
 1413 0004 4FF0FF30 		mov	r0, #-1
 1414 0008 FFF7FEFF 		bl	chEvtGetAndClearEvents
 1415              		.loc 8 364 1
 1416 000c 00BF     		nop
 1417 000e 80BD     		pop	{r7, pc}
 1418              		.cfi_endproc
 1419              	.LFE448:
 1420              		.size	rt_test_010_005_setup, .-rt_test_010_005_setup
 1421              		.section	.rodata
 1422 010f 00       		.align	2
 1423              	.LC13:
 1424 0110 6576656E 		.ascii	"event flags error\000"
 1424      7420666C 
 1424      61677320 
 1424      6572726F 
 1424      7200
 1425              		.section	.text.rt_test_010_005_execute,"ax",%progbits
 1426              		.align	1
 1427              		.syntax unified
 1428              		.thumb
 1429              		.thumb_func
 1430              		.type	rt_test_010_005_execute, %function
 1431              	rt_test_010_005_execute:
 1432              	.LFB449:
 1433              		.loc 8 366 43
 1434              		.cfi_startproc
 1435              		@ args = 0, pretend = 0, frame = 8
ARM GAS  C:\Users\DEVELO~1\AppData\Local\Temp\ccsydC44.s 			page 27


 1436              		@ frame_needed = 1, uses_anonymous_args = 0
 1437 0000 B0B5     		push	{r4, r5, r7, lr}
 1438              		.cfi_def_cfa_offset 16
 1439              		.cfi_offset 4, -16
 1440              		.cfi_offset 5, -12
 1441              		.cfi_offset 7, -8
 1442              		.cfi_offset 14, -4
 1443 0002 84B0     		sub	sp, sp, #16
 1444              		.cfi_def_cfa_offset 32
 1445 0004 02AF     		add	r7, sp, #8
 1446              		.cfi_def_cfa 7, 24
 1447              		.loc 8 371 3
 1448 0006 454B     		ldr	r3, .L68
 1449 0008 0122     		movs	r2, #1
 1450 000a 1A60     		str	r2, [r3]
 1451              		.loc 8 373 5
 1452 000c 0520     		movs	r0, #5
 1453 000e FFF7FEFF 		bl	chEvtAddEvents
 1454              		.loc 8 379 3
 1455 0012 424B     		ldr	r3, .L68
 1456 0014 0222     		movs	r2, #2
 1457 0016 1A60     		str	r2, [r3]
 1458              		.loc 8 381 9
 1459 0018 0520     		movs	r0, #5
 1460 001a FFF7FEFF 		bl	chEvtWaitAll
 1461 001e 7860     		str	r0, [r7, #4]
 1462              		.loc 8 382 5
 1463 0020 7B68     		ldr	r3, [r7, #4]
 1464 0022 052B     		cmp	r3, #5
 1465 0024 0CBF     		ite	eq
 1466 0026 0123     		moveq	r3, #1
 1467 0028 0023     		movne	r3, #0
 1468 002a DBB2     		uxtb	r3, r3
 1469 002c 3C49     		ldr	r1, .L68+4
 1470 002e 1846     		mov	r0, r3
 1471 0030 FFF7FEFF 		bl	__test_assert
 1472 0034 0346     		mov	r3, r0
 1473 0036 002B     		cmp	r3, #0
 1474 0038 6CD1     		bne	.L61
 1475              		.loc 8 383 9
 1476 003a 4FF0FF30 		mov	r0, #-1
 1477 003e FFF7FEFF 		bl	chEvtGetAndClearEvents
 1478 0042 7860     		str	r0, [r7, #4]
 1479              		.loc 8 384 5
 1480 0044 7B68     		ldr	r3, [r7, #4]
 1481 0046 002B     		cmp	r3, #0
 1482 0048 0CBF     		ite	eq
 1483 004a 0123     		moveq	r3, #1
 1484 004c 0023     		movne	r3, #0
 1485 004e DBB2     		uxtb	r3, r3
 1486 0050 3449     		ldr	r1, .L68+8
 1487 0052 1846     		mov	r0, r3
 1488 0054 FFF7FEFF 		bl	__test_assert
 1489 0058 0346     		mov	r3, r0
 1490 005a 002B     		cmp	r3, #0
 1491 005c 5AD1     		bne	.L61
 1492              		.loc 8 389 3
ARM GAS  C:\Users\DEVELO~1\AppData\Local\Temp\ccsydC44.s 			page 28


 1493 005e 2F4B     		ldr	r3, .L68
 1494 0060 0322     		movs	r2, #3
 1495 0062 1A60     		str	r2, [r3]
 1496              		.loc 8 391 5
 1497 0064 0420     		movs	r0, #4
 1498 0066 FFF7FEFF 		bl	chEvtAddEvents
 1499              		.loc 8 397 3
 1500 006a 2C4B     		ldr	r3, .L68
 1501 006c 0422     		movs	r2, #4
 1502 006e 1A60     		str	r2, [r3]
 1503              		.loc 8 399 19
 1504 0070 FFF7FEFF 		bl	test_wait_tick
 1505 0074 0346     		mov	r3, r0
 1506 0076 4FF4FA71 		mov	r1, #500
 1507 007a 1846     		mov	r0, r3
 1508 007c FFF7FEFF 		bl	chTimeAddX
 1509 0080 3860     		str	r0, [r7]
 1510              		.loc 8 400 38
 1511 0082 294B     		ldr	r3, .L68+12
 1512 0084 1C68     		ldr	r4, [r3]
 1513              		.loc 8 400 52
 1514 0086 FFF7FEFF 		bl	chThdGetPriorityX
 1515 008a 0346     		mov	r3, r0
 1516              		.loc 8 400 18
 1517 008c 5D1E     		subs	r5, r3, #1
 1518              		.loc 8 401 49
 1519 008e FFF7FEFF 		bl	chThdGetSelfX
 1520 0092 0346     		mov	r3, r0
 1521              		.loc 8 400 18
 1522 0094 0093     		str	r3, [sp]
 1523 0096 254B     		ldr	r3, .L68+16
 1524 0098 2A46     		mov	r2, r5
 1525 009a 4FF4D871 		mov	r1, #432
 1526 009e 2046     		mov	r0, r4
 1527 00a0 FFF7FEFF 		bl	chThdCreateStatic
 1528 00a4 0346     		mov	r3, r0
 1529              		.loc 8 400 16
 1530 00a6 224A     		ldr	r2, .L68+20
 1531 00a8 1360     		str	r3, [r2]
 1532              		.loc 8 408 3
 1533 00aa 1C4B     		ldr	r3, .L68
 1534 00ac 0522     		movs	r2, #5
 1535 00ae 1A60     		str	r2, [r3]
 1536              		.loc 8 410 9
 1537 00b0 0520     		movs	r0, #5
 1538 00b2 FFF7FEFF 		bl	chEvtWaitAll
 1539 00b6 7860     		str	r0, [r7, #4]
 1540              		.loc 8 411 5
 1541 00b8 1421     		movs	r1, #20
 1542 00ba 3868     		ldr	r0, [r7]
 1543 00bc FFF7FEFF 		bl	chTimeAddX
 1544 00c0 0346     		mov	r3, r0
 1545 00c2 1C4A     		ldr	r2, .L68+24
 1546 00c4 1946     		mov	r1, r3
 1547 00c6 3868     		ldr	r0, [r7]
 1548 00c8 FFF7FEFF 		bl	__test_assert_time_window
 1549 00cc 0346     		mov	r3, r0
ARM GAS  C:\Users\DEVELO~1\AppData\Local\Temp\ccsydC44.s 			page 29


 1550 00ce 002B     		cmp	r3, #0
 1551 00d0 20D1     		bne	.L61
 1552              		.loc 8 414 5
 1553 00d2 7B68     		ldr	r3, [r7, #4]
 1554 00d4 052B     		cmp	r3, #5
 1555 00d6 0CBF     		ite	eq
 1556 00d8 0123     		moveq	r3, #1
 1557 00da 0023     		movne	r3, #0
 1558 00dc DBB2     		uxtb	r3, r3
 1559 00de 1649     		ldr	r1, .L68+28
 1560 00e0 1846     		mov	r0, r3
 1561 00e2 FFF7FEFF 		bl	__test_assert
 1562 00e6 0346     		mov	r3, r0
 1563 00e8 002B     		cmp	r3, #0
 1564 00ea 13D1     		bne	.L61
 1565              		.loc 8 415 9
 1566 00ec 4FF0FF30 		mov	r0, #-1
 1567 00f0 FFF7FEFF 		bl	chEvtGetAndClearEvents
 1568 00f4 7860     		str	r0, [r7, #4]
 1569              		.loc 8 416 5
 1570 00f6 7B68     		ldr	r3, [r7, #4]
 1571 00f8 002B     		cmp	r3, #0
 1572 00fa 0CBF     		ite	eq
 1573 00fc 0123     		moveq	r3, #1
 1574 00fe 0023     		movne	r3, #0
 1575 0100 DBB2     		uxtb	r3, r3
 1576 0102 0849     		ldr	r1, .L68+8
 1577 0104 1846     		mov	r0, r3
 1578 0106 FFF7FEFF 		bl	__test_assert
 1579 010a 0346     		mov	r3, r0
 1580 010c 002B     		cmp	r3, #0
 1581 010e 01D1     		bne	.L61
 1582              		.loc 8 417 5
 1583 0110 FFF7FEFF 		bl	test_wait_threads
 1584              	.L61:
 1585              		.loc 8 420 1
 1586 0114 0837     		adds	r7, r7, #8
 1587              		.cfi_def_cfa_offset 16
 1588 0116 BD46     		mov	sp, r7
 1589              		.cfi_def_cfa_register 13
 1590              		@ sp needed
 1591 0118 B0BD     		pop	{r4, r5, r7, pc}
 1592              	.L69:
 1593 011a 00BF     		.align	2
 1594              	.L68:
 1595 011c 00000000 		.word	chtest
 1596 0120 D0000000 		.word	.LC11
 1597 0124 74000000 		.word	.LC7
 1598 0128 00000000 		.word	wa
 1599 012c 00000000 		.word	evt_thread3
 1600 0130 00000000 		.word	threads
 1601 0134 80000000 		.word	.LC8
 1602 0138 10010000 		.word	.LC13
 1603              		.cfi_endproc
 1604              	.LFE449:
 1605              		.size	rt_test_010_005_execute, .-rt_test_010_005_execute
 1606              		.section	.rodata
ARM GAS  C:\Users\DEVELO~1\AppData\Local\Temp\ccsydC44.s 			page 30


 1607 0122 0000     		.align	2
 1608              	.LC14:
 1609 0124 4576656E 		.ascii	"Events Flags wait using chEvtWaitAll()\000"
 1609      74732046 
 1609      6C616773 
 1609      20776169 
 1609      74207573 
 1610              		.section	.rodata.rt_test_010_005,"a"
 1611              		.align	2
 1612              		.type	rt_test_010_005, %object
 1613              		.size	rt_test_010_005, 16
 1614              	rt_test_010_005:
 1615 0000 24010000 		.word	.LC14
 1616 0004 00000000 		.word	rt_test_010_005_setup
 1617 0008 00000000 		.word	0
 1618 000c 00000000 		.word	rt_test_010_005_execute
 1619              		.section	.text.rt_test_010_006_setup,"ax",%progbits
 1620              		.align	1
 1621              		.syntax unified
 1622              		.thumb
 1623              		.thumb_func
 1624              		.type	rt_test_010_006_setup, %function
 1625              	rt_test_010_006_setup:
 1626              	.LFB450:
 1627              		.loc 8 451 41
 1628              		.cfi_startproc
 1629              		@ args = 0, pretend = 0, frame = 0
 1630              		@ frame_needed = 1, uses_anonymous_args = 0
 1631 0000 80B5     		push	{r7, lr}
 1632              		.cfi_def_cfa_offset 8
 1633              		.cfi_offset 7, -8
 1634              		.cfi_offset 14, -4
 1635 0002 00AF     		add	r7, sp, #0
 1636              		.cfi_def_cfa_register 7
 1637              		.loc 8 452 3
 1638 0004 4FF0FF30 		mov	r0, #-1
 1639 0008 FFF7FEFF 		bl	chEvtGetAndClearEvents
 1640              		.loc 8 453 1
 1641 000c 00BF     		nop
 1642 000e 80BD     		pop	{r7, pc}
 1643              		.cfi_endproc
 1644              	.LFE450:
 1645              		.size	rt_test_010_006_setup, .-rt_test_010_006_setup
 1646              		.section	.rodata
 1647 014b 00       		.align	2
 1648              	.LC15:
 1649 014c 73707572 		.ascii	"spurious event\000"
 1649      696F7573 
 1649      20657665 
 1649      6E7400
 1650              		.section	.text.rt_test_010_006_execute,"ax",%progbits
 1651              		.align	1
 1652              		.syntax unified
 1653              		.thumb
 1654              		.thumb_func
 1655              		.type	rt_test_010_006_execute, %function
 1656              	rt_test_010_006_execute:
ARM GAS  C:\Users\DEVELO~1\AppData\Local\Temp\ccsydC44.s 			page 31


 1657              	.LFB451:
 1658              		.loc 8 455 43
 1659              		.cfi_startproc
 1660              		@ args = 0, pretend = 0, frame = 8
 1661              		@ frame_needed = 1, uses_anonymous_args = 0
 1662 0000 80B5     		push	{r7, lr}
 1663              		.cfi_def_cfa_offset 8
 1664              		.cfi_offset 7, -8
 1665              		.cfi_offset 14, -4
 1666 0002 82B0     		sub	sp, sp, #8
 1667              		.cfi_def_cfa_offset 16
 1668 0004 00AF     		add	r7, sp, #0
 1669              		.cfi_def_cfa_register 7
 1670              		.loc 8 460 3
 1671 0006 3E4B     		ldr	r3, .L78
 1672 0008 0122     		movs	r2, #1
 1673 000a 1A60     		str	r2, [r3]
 1674              		.loc 8 462 9
 1675 000c 0021     		movs	r1, #0
 1676 000e 4FF0FF30 		mov	r0, #-1
 1677 0012 FFF7FEFF 		bl	chEvtWaitOneTimeout
 1678 0016 7860     		str	r0, [r7, #4]
 1679              		.loc 8 463 5
 1680 0018 7B68     		ldr	r3, [r7, #4]
 1681 001a 002B     		cmp	r3, #0
 1682 001c 0CBF     		ite	eq
 1683 001e 0123     		moveq	r3, #1
 1684 0020 0023     		movne	r3, #0
 1685 0022 DBB2     		uxtb	r3, r3
 1686 0024 3749     		ldr	r1, .L78+4
 1687 0026 1846     		mov	r0, r3
 1688 0028 FFF7FEFF 		bl	__test_assert
 1689 002c 0346     		mov	r3, r0
 1690 002e 002B     		cmp	r3, #0
 1691 0030 63D1     		bne	.L71
 1692              		.loc 8 464 9
 1693 0032 0021     		movs	r1, #0
 1694 0034 4FF0FF30 		mov	r0, #-1
 1695 0038 FFF7FEFF 		bl	chEvtWaitAnyTimeout
 1696 003c 7860     		str	r0, [r7, #4]
 1697              		.loc 8 465 5
 1698 003e 7B68     		ldr	r3, [r7, #4]
 1699 0040 002B     		cmp	r3, #0
 1700 0042 0CBF     		ite	eq
 1701 0044 0123     		moveq	r3, #1
 1702 0046 0023     		movne	r3, #0
 1703 0048 DBB2     		uxtb	r3, r3
 1704 004a 2E49     		ldr	r1, .L78+4
 1705 004c 1846     		mov	r0, r3
 1706 004e FFF7FEFF 		bl	__test_assert
 1707 0052 0346     		mov	r3, r0
 1708 0054 002B     		cmp	r3, #0
 1709 0056 50D1     		bne	.L71
 1710              		.loc 8 466 9
 1711 0058 0021     		movs	r1, #0
 1712 005a 4FF0FF30 		mov	r0, #-1
 1713 005e FFF7FEFF 		bl	chEvtWaitAllTimeout
ARM GAS  C:\Users\DEVELO~1\AppData\Local\Temp\ccsydC44.s 			page 32


 1714 0062 7860     		str	r0, [r7, #4]
 1715              		.loc 8 467 5
 1716 0064 7B68     		ldr	r3, [r7, #4]
 1717 0066 002B     		cmp	r3, #0
 1718 0068 0CBF     		ite	eq
 1719 006a 0123     		moveq	r3, #1
 1720 006c 0023     		movne	r3, #0
 1721 006e DBB2     		uxtb	r3, r3
 1722 0070 2449     		ldr	r1, .L78+4
 1723 0072 1846     		mov	r0, r3
 1724 0074 FFF7FEFF 		bl	__test_assert
 1725 0078 0346     		mov	r3, r0
 1726 007a 002B     		cmp	r3, #0
 1727 007c 3DD1     		bne	.L71
 1728              		.loc 8 473 3
 1729 007e 204B     		ldr	r3, .L78
 1730 0080 0222     		movs	r2, #2
 1731 0082 1A60     		str	r2, [r3]
 1732              		.loc 8 475 9
 1733 0084 4FF4FA71 		mov	r1, #500
 1734 0088 4FF0FF30 		mov	r0, #-1
 1735 008c FFF7FEFF 		bl	chEvtWaitOneTimeout
 1736 0090 7860     		str	r0, [r7, #4]
 1737              		.loc 8 476 5
 1738 0092 7B68     		ldr	r3, [r7, #4]
 1739 0094 002B     		cmp	r3, #0
 1740 0096 0CBF     		ite	eq
 1741 0098 0123     		moveq	r3, #1
 1742 009a 0023     		movne	r3, #0
 1743 009c DBB2     		uxtb	r3, r3
 1744 009e 1949     		ldr	r1, .L78+4
 1745 00a0 1846     		mov	r0, r3
 1746 00a2 FFF7FEFF 		bl	__test_assert
 1747 00a6 0346     		mov	r3, r0
 1748 00a8 002B     		cmp	r3, #0
 1749 00aa 26D1     		bne	.L71
 1750              		.loc 8 477 9
 1751 00ac 4FF4FA71 		mov	r1, #500
 1752 00b0 4FF0FF30 		mov	r0, #-1
 1753 00b4 FFF7FEFF 		bl	chEvtWaitAnyTimeout
 1754 00b8 7860     		str	r0, [r7, #4]
 1755              		.loc 8 478 5
 1756 00ba 7B68     		ldr	r3, [r7, #4]
 1757 00bc 002B     		cmp	r3, #0
 1758 00be 0CBF     		ite	eq
 1759 00c0 0123     		moveq	r3, #1
 1760 00c2 0023     		movne	r3, #0
 1761 00c4 DBB2     		uxtb	r3, r3
 1762 00c6 0F49     		ldr	r1, .L78+4
 1763 00c8 1846     		mov	r0, r3
 1764 00ca FFF7FEFF 		bl	__test_assert
 1765 00ce 0346     		mov	r3, r0
 1766 00d0 002B     		cmp	r3, #0
 1767 00d2 12D1     		bne	.L71
 1768              		.loc 8 479 9
 1769 00d4 4FF4FA71 		mov	r1, #500
 1770 00d8 4FF0FF30 		mov	r0, #-1
ARM GAS  C:\Users\DEVELO~1\AppData\Local\Temp\ccsydC44.s 			page 33


 1771 00dc FFF7FEFF 		bl	chEvtWaitAllTimeout
 1772 00e0 7860     		str	r0, [r7, #4]
 1773              		.loc 8 480 5
 1774 00e2 7B68     		ldr	r3, [r7, #4]
 1775 00e4 002B     		cmp	r3, #0
 1776 00e6 0CBF     		ite	eq
 1777 00e8 0123     		moveq	r3, #1
 1778 00ea 0023     		movne	r3, #0
 1779 00ec DBB2     		uxtb	r3, r3
 1780 00ee 0549     		ldr	r1, .L78+4
 1781 00f0 1846     		mov	r0, r3
 1782 00f2 FFF7FEFF 		bl	__test_assert
 1783 00f6 0346     		mov	r3, r0
 1784 00f8 002B     		cmp	r3, #0
 1785              	.L71:
 1786              		.loc 8 483 1
 1787 00fa 0837     		adds	r7, r7, #8
 1788              		.cfi_def_cfa_offset 8
 1789 00fc BD46     		mov	sp, r7
 1790              		.cfi_def_cfa_register 13
 1791              		@ sp needed
 1792 00fe 80BD     		pop	{r7, pc}
 1793              	.L79:
 1794              		.align	2
 1795              	.L78:
 1796 0100 00000000 		.word	chtest
 1797 0104 4C010000 		.word	.LC15
 1798              		.cfi_endproc
 1799              	.LFE451:
 1800              		.size	rt_test_010_006_execute, .-rt_test_010_006_execute
 1801              		.section	.rodata
 1802 015b 00       		.align	2
 1803              	.LC16:
 1804 015c 4576656E 		.ascii	"Events Flags wait timeouts\000"
 1804      74732046 
 1804      6C616773 
 1804      20776169 
 1804      74207469 
 1805              		.section	.rodata.rt_test_010_006,"a"
 1806              		.align	2
 1807              		.type	rt_test_010_006, %object
 1808              		.size	rt_test_010_006, 16
 1809              	rt_test_010_006:
 1810 0000 5C010000 		.word	.LC16
 1811 0004 00000000 		.word	rt_test_010_006_setup
 1812 0008 00000000 		.word	0
 1813 000c 00000000 		.word	rt_test_010_006_execute
 1814              		.section	.text.rt_test_010_007_setup,"ax",%progbits
 1815              		.align	1
 1816              		.syntax unified
 1817              		.thumb
 1818              		.thumb_func
 1819              		.type	rt_test_010_007_setup, %function
 1820              	rt_test_010_007_setup:
 1821              	.LFB452:
 1822              		.loc 8 512 41
 1823              		.cfi_startproc
ARM GAS  C:\Users\DEVELO~1\AppData\Local\Temp\ccsydC44.s 			page 34


 1824              		@ args = 0, pretend = 0, frame = 0
 1825              		@ frame_needed = 1, uses_anonymous_args = 0
 1826 0000 80B5     		push	{r7, lr}
 1827              		.cfi_def_cfa_offset 8
 1828              		.cfi_offset 7, -8
 1829              		.cfi_offset 14, -4
 1830 0002 00AF     		add	r7, sp, #0
 1831              		.cfi_def_cfa_register 7
 1832              		.loc 8 513 3
 1833 0004 4FF0FF30 		mov	r0, #-1
 1834 0008 FFF7FEFF 		bl	chEvtGetAndClearEvents
 1835              		.loc 8 514 3
 1836 000c 0348     		ldr	r0, .L81
 1837 000e FFF7FEFF 		bl	chEvtObjectInit
 1838              		.loc 8 515 3
 1839 0012 0348     		ldr	r0, .L81+4
 1840 0014 FFF7FEFF 		bl	chEvtObjectInit
 1841              		.loc 8 516 1
 1842 0018 00BF     		nop
 1843 001a 80BD     		pop	{r7, pc}
 1844              	.L82:
 1845              		.align	2
 1846              	.L81:
 1847 001c 00000000 		.word	es1
 1848 0020 00000000 		.word	es2
 1849              		.cfi_endproc
 1850              	.LFE452:
 1851              		.size	rt_test_010_007_setup, .-rt_test_010_007_setup
 1852              		.section	.rodata
 1853 0177 00       		.align	2
 1854              	.LC17:
 1855 0178 4100     		.ascii	"A\000"
 1856              		.section	.text.rt_test_010_007_execute,"ax",%progbits
 1857              		.align	1
 1858              		.syntax unified
 1859              		.thumb
 1860              		.thumb_func
 1861              		.type	rt_test_010_007_execute, %function
 1862              	rt_test_010_007_execute:
 1863              	.LFB453:
 1864              		.loc 8 518 43
 1865              		.cfi_startproc
 1866              		@ args = 0, pretend = 0, frame = 48
 1867              		@ frame_needed = 1, uses_anonymous_args = 0
 1868 0000 90B5     		push	{r4, r7, lr}
 1869              		.cfi_def_cfa_offset 12
 1870              		.cfi_offset 4, -12
 1871              		.cfi_offset 7, -8
 1872              		.cfi_offset 14, -4
 1873 0002 8FB0     		sub	sp, sp, #60
 1874              		.cfi_def_cfa_offset 72
 1875 0004 02AF     		add	r7, sp, #8
 1876              		.cfi_def_cfa 7, 64
 1877              		.loc 8 525 3
 1878 0006 484B     		ldr	r3, .L90
 1879 0008 0122     		movs	r2, #1
 1880 000a 1A60     		str	r2, [r3]
ARM GAS  C:\Users\DEVELO~1\AppData\Local\Temp\ccsydC44.s 			page 35


 1881              		.loc 8 527 5
 1882 000c 07F11403 		add	r3, r7, #20
 1883 0010 0122     		movs	r2, #1
 1884 0012 1946     		mov	r1, r3
 1885 0014 4548     		ldr	r0, .L90+4
 1886 0016 FFF7FEFF 		bl	chEvtRegisterMask
 1887              		.loc 8 528 5
 1888 001a 3B46     		mov	r3, r7
 1889 001c 0422     		movs	r2, #4
 1890 001e 1946     		mov	r1, r3
 1891 0020 4348     		ldr	r0, .L90+8
 1892 0022 FFF7FEFF 		bl	chEvtRegisterMask
 1893              		.loc 8 535 3
 1894 0026 404B     		ldr	r3, .L90
 1895 0028 0222     		movs	r2, #2
 1896 002a 1A60     		str	r2, [r3]
 1897              		.loc 8 537 19
 1898 002c FFF7FEFF 		bl	test_wait_tick
 1899 0030 0346     		mov	r3, r0
 1900 0032 4FF4FA71 		mov	r1, #500
 1901 0036 1846     		mov	r0, r3
 1902 0038 FFF7FEFF 		bl	chTimeAddX
 1903 003c F862     		str	r0, [r7, #44]
 1904              		.loc 8 538 38
 1905 003e 3D4B     		ldr	r3, .L90+12
 1906 0040 1C68     		ldr	r4, [r3]
 1907              		.loc 8 538 52
 1908 0042 FFF7FEFF 		bl	chThdGetPriorityX
 1909 0046 0346     		mov	r3, r0
 1910              		.loc 8 538 18
 1911 0048 5A1E     		subs	r2, r3, #1
 1912 004a 3B4B     		ldr	r3, .L90+16
 1913 004c 0093     		str	r3, [sp]
 1914 004e 3B4B     		ldr	r3, .L90+20
 1915 0050 4FF4D871 		mov	r1, #432
 1916 0054 2046     		mov	r0, r4
 1917 0056 FFF7FEFF 		bl	chThdCreateStatic
 1918 005a 0346     		mov	r3, r0
 1919              		.loc 8 538 16
 1920 005c 384A     		ldr	r2, .L90+24
 1921 005e 1360     		str	r3, [r2]
 1922              		.loc 8 546 3
 1923 0060 314B     		ldr	r3, .L90
 1924 0062 0322     		movs	r2, #3
 1925 0064 1A60     		str	r2, [r3]
 1926              		.loc 8 548 9
 1927 0066 0520     		movs	r0, #5
 1928 0068 FFF7FEFF 		bl	chEvtWaitAll
 1929 006c B862     		str	r0, [r7, #40]
 1930              		.loc 8 549 5
 1931 006e 1421     		movs	r1, #20
 1932 0070 F86A     		ldr	r0, [r7, #44]
 1933 0072 FFF7FEFF 		bl	chTimeAddX
 1934 0076 0346     		mov	r3, r0
 1935 0078 324A     		ldr	r2, .L90+28
 1936 007a 1946     		mov	r1, r3
 1937 007c F86A     		ldr	r0, [r7, #44]
ARM GAS  C:\Users\DEVELO~1\AppData\Local\Temp\ccsydC44.s 			page 36


 1938 007e FFF7FEFF 		bl	__test_assert_time_window
 1939 0082 0346     		mov	r3, r0
 1940 0084 002B     		cmp	r3, #0
 1941 0086 4CD1     		bne	.L83
 1942              		.loc 8 552 9
 1943 0088 4FF0FF30 		mov	r0, #-1
 1944 008c FFF7FEFF 		bl	chEvtGetAndClearEvents
 1945 0090 B862     		str	r0, [r7, #40]
 1946              		.loc 8 553 5
 1947 0092 BB6A     		ldr	r3, [r7, #40]
 1948 0094 002B     		cmp	r3, #0
 1949 0096 0CBF     		ite	eq
 1950 0098 0123     		moveq	r3, #1
 1951 009a 0023     		movne	r3, #0
 1952 009c DBB2     		uxtb	r3, r3
 1953 009e 2A49     		ldr	r1, .L90+32
 1954 00a0 1846     		mov	r0, r3
 1955 00a2 FFF7FEFF 		bl	__test_assert
 1956 00a6 0346     		mov	r3, r0
 1957 00a8 002B     		cmp	r3, #0
 1958 00aa 3AD1     		bne	.L83
 1959              		.loc 8 554 5
 1960 00ac FFF7FEFF 		bl	test_wait_threads
 1961              		.loc 8 559 3
 1962 00b0 1D4B     		ldr	r3, .L90
 1963 00b2 0422     		movs	r2, #4
 1964 00b4 1A60     		str	r2, [r3]
 1965              		.loc 8 561 5
 1966 00b6 07F11403 		add	r3, r7, #20
 1967 00ba 1946     		mov	r1, r3
 1968 00bc 1B48     		ldr	r0, .L90+4
 1969 00be FFF7FEFF 		bl	chEvtUnregister
 1970              		.loc 8 562 5
 1971 00c2 3B46     		mov	r3, r7
 1972 00c4 1946     		mov	r1, r3
 1973 00c6 1A48     		ldr	r0, .L90+8
 1974 00c8 FFF7FEFF 		bl	chEvtUnregister
 1975              		.loc 8 563 5
 1976 00cc 1748     		ldr	r0, .L90+4
 1977 00ce FFF7FEFF 		bl	chEvtIsListeningI
 1978 00d2 0346     		mov	r3, r0
 1979 00d4 002B     		cmp	r3, #0
 1980 00d6 14BF     		ite	ne
 1981 00d8 0123     		movne	r3, #1
 1982 00da 0023     		moveq	r3, #0
 1983 00dc DBB2     		uxtb	r3, r3
 1984 00de 83F00103 		eor	r3, r3, #1
 1985 00e2 DBB2     		uxtb	r3, r3
 1986 00e4 03F00103 		and	r3, r3, #1
 1987 00e8 DBB2     		uxtb	r3, r3
 1988 00ea 1849     		ldr	r1, .L90+36
 1989 00ec 1846     		mov	r0, r3
 1990 00ee FFF7FEFF 		bl	__test_assert
 1991 00f2 0346     		mov	r3, r0
 1992 00f4 002B     		cmp	r3, #0
 1993 00f6 14D1     		bne	.L83
 1994              		.loc 8 564 5
ARM GAS  C:\Users\DEVELO~1\AppData\Local\Temp\ccsydC44.s 			page 37


 1995 00f8 0D48     		ldr	r0, .L90+8
 1996 00fa FFF7FEFF 		bl	chEvtIsListeningI
 1997 00fe 0346     		mov	r3, r0
 1998 0100 002B     		cmp	r3, #0
 1999 0102 14BF     		ite	ne
 2000 0104 0123     		movne	r3, #1
 2001 0106 0023     		moveq	r3, #0
 2002 0108 DBB2     		uxtb	r3, r3
 2003 010a 83F00103 		eor	r3, r3, #1
 2004 010e DBB2     		uxtb	r3, r3
 2005 0110 03F00103 		and	r3, r3, #1
 2006 0114 DBB2     		uxtb	r3, r3
 2007 0116 0D49     		ldr	r1, .L90+36
 2008 0118 1846     		mov	r0, r3
 2009 011a FFF7FEFF 		bl	__test_assert
 2010 011e 0346     		mov	r3, r0
 2011 0120 002B     		cmp	r3, #0
 2012              	.L83:
 2013              		.loc 8 567 1
 2014 0122 3437     		adds	r7, r7, #52
 2015              		.cfi_def_cfa_offset 12
 2016 0124 BD46     		mov	sp, r7
 2017              		.cfi_def_cfa_register 13
 2018              		@ sp needed
 2019 0126 90BD     		pop	{r4, r7, pc}
 2020              	.L91:
 2021              		.align	2
 2022              	.L90:
 2023 0128 00000000 		.word	chtest
 2024 012c 00000000 		.word	es1
 2025 0130 00000000 		.word	es2
 2026 0134 00000000 		.word	wa
 2027 0138 78010000 		.word	.LC17
 2028 013c 00000000 		.word	evt_thread7
 2029 0140 00000000 		.word	threads
 2030 0144 80000000 		.word	.LC8
 2031 0148 74000000 		.word	.LC7
 2032 014c 0C000000 		.word	.LC1
 2033              		.cfi_endproc
 2034              	.LFE453:
 2035              		.size	rt_test_010_007_execute, .-rt_test_010_007_execute
 2036              		.section	.rodata
 2037 017a 0000     		.align	2
 2038              	.LC18:
 2039 017c 42726F61 		.ascii	"Broadcasting using chEvtBroadcast()\000"
 2039      64636173 
 2039      74696E67 
 2039      20757369 
 2039      6E672063 
 2040              		.section	.rodata.rt_test_010_007,"a"
 2041              		.align	2
 2042              		.type	rt_test_010_007, %object
 2043              		.size	rt_test_010_007, 16
 2044              	rt_test_010_007:
 2045 0000 7C010000 		.word	.LC18
 2046 0004 00000000 		.word	rt_test_010_007_setup
 2047 0008 00000000 		.word	0
ARM GAS  C:\Users\DEVELO~1\AppData\Local\Temp\ccsydC44.s 			page 38


 2048 000c 00000000 		.word	rt_test_010_007_execute
 2049              		.global	rt_test_sequence_010_array
 2050              		.section	.rodata.rt_test_sequence_010_array,"a"
 2051              		.align	2
 2052              		.type	rt_test_sequence_010_array, %object
 2053              		.size	rt_test_sequence_010_array, 32
 2054              	rt_test_sequence_010_array:
 2055 0000 00000000 		.word	rt_test_010_001
 2056 0004 00000000 		.word	rt_test_010_002
 2057 0008 00000000 		.word	rt_test_010_003
 2058 000c 00000000 		.word	rt_test_010_004
 2059 0010 00000000 		.word	rt_test_010_005
 2060 0014 00000000 		.word	rt_test_010_006
 2061 0018 00000000 		.word	rt_test_010_007
 2062 001c 00000000 		.word	0
 2063              		.global	rt_test_sequence_010
 2064              		.section	.rodata
 2065              		.align	2
 2066              	.LC19:
 2067 01a0 4576656E 		.ascii	"Event Sources and Event Flags\000"
 2067      7420536F 
 2067      75726365 
 2067      7320616E 
 2067      64204576 
 2068              		.section	.rodata.rt_test_sequence_010,"a"
 2069              		.align	2
 2070              		.type	rt_test_sequence_010, %object
 2071              		.size	rt_test_sequence_010, 8
 2072              	rt_test_sequence_010:
 2073 0000 A0010000 		.word	.LC19
 2074 0004 00000000 		.word	rt_test_sequence_010_array
 2075              		.text
 2076              	.Letext0:
 2077              		.file 9 "c:\\chibistudio\\tools\\gnu tools arm embedded\\11.3 2022.08\\lib\\gcc\\arm-none-eabi\\11
 2078              		.file 10 "c:\\chibistudio\\tools\\gnu tools arm embedded\\11.3 2022.08\\arm-none-eabi\\include\\ma
 2079              		.file 11 "c:\\chibistudio\\tools\\gnu tools arm embedded\\11.3 2022.08\\arm-none-eabi\\include\\sy
 2080              		.file 12 "../../../os/common/ports/ARM-common/chtypes.h"
 2081              		.file 13 "../../../os/rt/include/chearly.h"
 2082              		.file 14 "../../../os/rt/include/chobjects.h"
 2083              		.file 15 "../../../os/rt/include/chrfcu.h"
 2084              		.file 16 "../../../os/rt/include/chdebug.h"
 2085              		.file 17 "../../../os/rt/include/chlists.h"
 2086              		.file 18 "../../../os/rt/include/chtrace.h"
 2087              		.file 19 "../../../os/rt/include/chsem.h"
 2088              		.file 20 "../../../os/rt/include/chmtx.h"
 2089              		.file 21 "../../../os/hal/include/hal_streams.h"
 2090              		.file 22 "../../../os/test/include/ch_test.h"
 2091              		.file 23 "../../../test/rt/source/test/rt_test_sequence_010.h"
 2092              		.file 24 "../../../test/rt/source/test/rt_test_root.h"