ARM GAS  C:\Users\DEVELO~1\AppData\Local\Temp\ccHNMg6f.s 			page 1


   1              		.cpu cortex-m7
   2              		.arch armv7e-m
   3              		.fpu softvfp
   4              		.eabi_attribute 20, 1
   5              		.eabi_attribute 21, 1
   6              		.eabi_attribute 23, 3
   7              		.eabi_attribute 24, 1
   8              		.eabi_attribute 25, 1
   9              		.eabi_attribute 26, 1
  10              		.eabi_attribute 30, 2
  11              		.eabi_attribute 34, 1
  12              		.eabi_attribute 18, 4
  13              		.file	"rt_test_sequence_008.c"
  14              		.text
  15              	.Ltext0:
  16              		.cfi_sections	.debug_frame
  17              		.section	.text.rt_test_008_004_teardown,"ax",%progbits
  18              		.align	1
  19              		.p2align 4,,15
  20              		.syntax unified
  21              		.thumb
  22              		.thumb_func
  23              		.type	rt_test_008_004_teardown, %function
  24              	rt_test_008_004_teardown:
  25              	.LFB445:
  26              		.file 1 "../../../test/rt/source/test/rt_test_sequence_008.c"
  27              		.loc 1 495 44 view -0
  28              		.cfi_startproc
  29              		@ args = 0, pretend = 0, frame = 0
  30              		@ frame_needed = 0, uses_anonymous_args = 0
  31              		@ link register save eliminated.
  32              		.loc 1 496 3 view .LVU1
  33 0000 FFF7FEBF 		b	test_wait_threads
  34              	.LVL0:
  35              		.cfi_endproc
  36              	.LFE445:
  37              		.size	rt_test_008_004_teardown, .-rt_test_008_004_teardown
  38              		.section	.rodata.rt_test_008_009_execute.str1.4,"aMS",%progbits,1
  39              		.align	2
  40              	.LC0:
  41 0000 4100     		.ascii	"A\000"
  42 0002 0000     		.align	2
  43              	.LC1:
  44 0004 4300     		.ascii	"C\000"
  45 0006 0000     		.align	2
  46              	.LC2:
  47 0008 4200     		.ascii	"B\000"
  48 000a 0000     		.align	2
  49              	.LC3:
  50 000c 696E7661 		.ascii	"invalid sequence\000"
  50      6C696420 
  50      73657175 
  50      656E6365 
  50      00
  51 001d 000000   		.align	2
  52              	.LC4:
  53 0020 41424300 		.ascii	"ABC\000"
ARM GAS  C:\Users\DEVELO~1\AppData\Local\Temp\ccHNMg6f.s 			page 2


  54              		.section	.text.rt_test_008_009_execute,"ax",%progbits
  55              		.align	1
  56              		.p2align 4,,15
  57              		.syntax unified
  58              		.thumb
  59              		.thumb_func
  60              		.type	rt_test_008_009_execute, %function
  61              	rt_test_008_009_execute:
  62              	.LFB454:
  63              		.loc 1 1014 43 view -0
  64              		.cfi_startproc
  65              		@ args = 0, pretend = 0, frame = 0
  66              		@ frame_needed = 0, uses_anonymous_args = 0
  67              		.loc 1 1015 3 view .LVU3
  68              		.loc 1 1018 3 view .LVU4
  69              		.loc 1 1020 5 view .LVU5
  70              	.LBB102:
  71              	.LBI102:
  72              		.file 2 "../../../os/rt/include/chthreads.h"
  73              		.loc 2 354 23 view .LVU6
  74              	.LBB103:
  75              		.loc 2 356 3 view .LVU7
  76              	.LBB104:
  77              	.LBI104:
  78              		.loc 2 341 25 view .LVU8
  79              	.LBB105:
  80              		.loc 2 343 3 view .LVU9
  81              		.loc 2 343 10 is_stmt 0 view .LVU10
  82 0000 214A     		ldr	r2, .L5
  83              	.LBE105:
  84              	.LBE104:
  85              	.LBE103:
  86              	.LBE102:
  87              		.loc 1 1028 18 view .LVU11
  88 0002 224B     		ldr	r3, .L5+4
  89              	.LBB108:
  90              	.LBB106:
  91              		.loc 2 356 37 view .LVU12
  92 0004 D168     		ldr	r1, [r2, #12]
  93              	.LBE106:
  94              	.LBE108:
  95              		.loc 1 1026 3 view .LVU13
  96 0006 0222     		movs	r2, #2
  97              		.loc 1 1014 43 view .LVU14
  98 0008 F0B5     		push	{r4, r5, r6, r7, lr}
  99              		.cfi_def_cfa_offset 20
 100              		.cfi_offset 4, -20
 101              		.cfi_offset 5, -16
 102              		.cfi_offset 6, -12
 103              		.cfi_offset 7, -8
 104              		.cfi_offset 14, -4
 105              		.loc 1 1026 3 view .LVU15
 106 000a 214C     		ldr	r4, .L5+8
 107              		.loc 1 1014 43 view .LVU16
 108 000c 83B0     		sub	sp, sp, #12
 109              		.cfi_def_cfa_offset 32
 110              	.LBB109:
ARM GAS  C:\Users\DEVELO~1\AppData\Local\Temp\ccHNMg6f.s 			page 3


 111              	.LBB107:
 112              		.loc 2 356 37 view .LVU17
 113 000e 8F68     		ldr	r7, [r1, #8]
 114              	.LVL1:
 115              		.loc 2 356 37 view .LVU18
 116              	.LBE107:
 117              	.LBE109:
 118              		.loc 1 1022 3 is_stmt 1 view .LVU19
 119              		.loc 1 1022 19 view .LVU20
 120              		.loc 1 1026 3 view .LVU21
 121              		.loc 1 1028 18 is_stmt 0 view .LVU22
 122 0010 4FF4D871 		mov	r1, #432
 123              		.loc 1 1028 38 view .LVU23
 124 0014 1F4E     		ldr	r6, .L5+12
 125              		.loc 1 1028 18 view .LVU24
 126 0016 0093     		str	r3, [sp]
 127              		.loc 1 1026 3 view .LVU25
 128 0018 2260     		str	r2, [r4]
 129              		.loc 1 1028 5 is_stmt 1 view .LVU26
 130              		.loc 1 1028 18 is_stmt 0 view .LVU27
 131 001a 7A1C     		adds	r2, r7, #1
 132 001c 1E4B     		ldr	r3, .L5+16
 133 001e 3068     		ldr	r0, [r6]
 134 0020 FFF7FEFF 		bl	chThdCreateStatic
 135              	.LVL2:
 136              		.loc 1 1034 3 view .LVU28
 137 0024 0323     		movs	r3, #3
 138              		.loc 1 1028 16 view .LVU29
 139 0026 1D4D     		ldr	r5, .L5+20
 140              		.loc 1 1036 18 view .LVU30
 141 0028 BA1C     		adds	r2, r7, #2
 142              		.loc 1 1034 3 view .LVU31
 143 002a 2360     		str	r3, [r4]
 144              		.loc 1 1036 18 view .LVU32
 145 002c 4FF4D871 		mov	r1, #432
 146 0030 1B4B     		ldr	r3, .L5+24
 147              		.loc 1 1028 16 view .LVU33
 148 0032 2860     		str	r0, [r5]
 149              		.loc 1 1030 3 is_stmt 1 view .LVU34
 150              		.loc 1 1030 19 view .LVU35
 151              		.loc 1 1034 3 view .LVU36
 152              		.loc 1 1036 5 view .LVU37
 153              		.loc 1 1036 18 is_stmt 0 view .LVU38
 154 0034 0093     		str	r3, [sp]
 155 0036 7068     		ldr	r0, [r6, #4]
 156 0038 1A4B     		ldr	r3, .L5+28
 157 003a FFF7FEFF 		bl	chThdCreateStatic
 158              	.LVL3:
 159 003e 0346     		mov	r3, r0
 160              		.loc 1 1044 18 view .LVU39
 161 0040 FA1C     		adds	r2, r7, #3
 162 0042 4FF4D871 		mov	r1, #432
 163              		.loc 1 1036 16 view .LVU40
 164 0046 6B60     		str	r3, [r5, #4]
 165              		.loc 1 1038 3 is_stmt 1 view .LVU41
 166              		.loc 1 1038 19 view .LVU42
 167              		.loc 1 1042 3 view .LVU43
ARM GAS  C:\Users\DEVELO~1\AppData\Local\Temp\ccHNMg6f.s 			page 4


 168 0048 0423     		movs	r3, #4
 169              		.loc 1 1044 18 is_stmt 0 view .LVU44
 170 004a B068     		ldr	r0, [r6, #8]
 171              		.loc 1 1042 3 view .LVU45
 172 004c 2360     		str	r3, [r4]
 173              		.loc 1 1044 5 is_stmt 1 view .LVU46
 174              		.loc 1 1044 18 is_stmt 0 view .LVU47
 175 004e 164B     		ldr	r3, .L5+32
 176              		.loc 1 1053 5 view .LVU48
 177 0050 164E     		ldr	r6, .L5+36
 178              		.loc 1 1044 18 view .LVU49
 179 0052 0093     		str	r3, [sp]
 180 0054 164B     		ldr	r3, .L5+40
 181 0056 FFF7FEFF 		bl	chThdCreateStatic
 182              	.LVL4:
 183              		.loc 1 1051 3 view .LVU50
 184 005a 0523     		movs	r3, #5
 185              		.loc 1 1044 16 view .LVU51
 186 005c A860     		str	r0, [r5, #8]
 187              		.loc 1 1046 3 is_stmt 1 view .LVU52
 188              		.loc 1 1046 19 view .LVU53
 189              		.loc 1 1051 3 view .LVU54
 190              		.loc 1 1053 5 is_stmt 0 view .LVU55
 191 005e 3046     		mov	r0, r6
 192              		.loc 1 1051 3 view .LVU56
 193 0060 2360     		str	r3, [r4]
 194              		.loc 1 1053 5 is_stmt 1 view .LVU57
 195 0062 FFF7FEFF 		bl	chCondSignal
 196              	.LVL5:
 197              		.loc 1 1055 3 view .LVU58
 198              		.loc 1 1055 19 view .LVU59
 199              		.loc 1 1058 3 view .LVU60
 200 0066 0623     		movs	r3, #6
 201              		.loc 1 1060 5 is_stmt 0 view .LVU61
 202 0068 3046     		mov	r0, r6
 203              		.loc 1 1058 3 view .LVU62
 204 006a 2360     		str	r3, [r4]
 205              		.loc 1 1060 5 is_stmt 1 view .LVU63
 206 006c FFF7FEFF 		bl	chCondSignal
 207              	.LVL6:
 208              		.loc 1 1062 3 view .LVU64
 209              		.loc 1 1062 19 view .LVU65
 210              		.loc 1 1065 3 view .LVU66
 211 0070 0723     		movs	r3, #7
 212 0072 2360     		str	r3, [r4]
 213              		.loc 1 1067 5 view .LVU67
 214 0074 FFF7FEFF 		bl	test_wait_threads
 215              	.LVL7:
 216              		.loc 1 1068 5 view .LVU68
 217 0078 0E49     		ldr	r1, .L5+44
 218 007a 0F48     		ldr	r0, .L5+48
 219              		.loc 1 1071 1 is_stmt 0 view .LVU69
 220 007c 03B0     		add	sp, sp, #12
 221              		.cfi_def_cfa_offset 20
 222              		@ sp needed
 223 007e BDE8F040 		pop	{r4, r5, r6, r7, lr}
 224              		.cfi_restore 14
ARM GAS  C:\Users\DEVELO~1\AppData\Local\Temp\ccHNMg6f.s 			page 5


 225              		.cfi_restore 7
 226              		.cfi_restore 6
 227              		.cfi_restore 5
 228              		.cfi_restore 4
 229              		.cfi_def_cfa_offset 0
 230              	.LVL8:
 231              		.loc 1 1068 5 view .LVU70
 232 0082 FFF7FEBF 		b	__test_assert_sequence
 233              	.LVL9:
 234              	.L6:
 235 0086 00BF     		.align	2
 236              	.L5:
 237 0088 00000000 		.word	ch0
 238 008c 00000000 		.word	.LC0
 239 0090 00000000 		.word	chtest
 240 0094 00000000 		.word	wa
 241 0098 00000000 		.word	thread8
 242 009c 00000000 		.word	threads
 243 00a0 04000000 		.word	.LC1
 244 00a4 00000000 		.word	thread6
 245 00a8 08000000 		.word	.LC2
 246 00ac 00000000 		.word	.LANCHOR0
 247 00b0 00000000 		.word	thread9
 248 00b4 0C000000 		.word	.LC3
 249 00b8 20000000 		.word	.LC4
 250              		.cfi_endproc
 251              	.LFE454:
 252              		.size	rt_test_008_009_execute, .-rt_test_008_009_execute
 253              		.section	.text.thread9,"ax",%progbits
 254              		.align	1
 255              		.p2align 4,,15
 256              		.syntax unified
 257              		.thumb
 258              		.thumb_func
 259              		.type	thread9, %function
 260              	thread9:
 261              	.LVL10:
 262              	.LFB441:
 263              		.loc 1 223 33 is_stmt 1 view -0
 264              		.cfi_startproc
 265              		@ args = 0, pretend = 0, frame = 0
 266              		@ frame_needed = 0, uses_anonymous_args = 0
 267              		.loc 1 225 3 view .LVU72
 268              		.loc 1 223 33 is_stmt 0 view .LVU73
 269 0000 38B5     		push	{r3, r4, r5, lr}
 270              		.cfi_def_cfa_offset 16
 271              		.cfi_offset 3, -16
 272              		.cfi_offset 4, -12
 273              		.cfi_offset 5, -8
 274              		.cfi_offset 14, -4
 275              		.loc 1 225 3 view .LVU74
 276 0002 064D     		ldr	r5, .L9
 277              		.loc 1 223 33 view .LVU75
 278 0004 0446     		mov	r4, r0
 279              		.loc 1 225 3 view .LVU76
 280 0006 2846     		mov	r0, r5
 281              	.LVL11:
ARM GAS  C:\Users\DEVELO~1\AppData\Local\Temp\ccHNMg6f.s 			page 6


 282              		.loc 1 225 3 view .LVU77
 283 0008 FFF7FEFF 		bl	chMtxLock
 284              	.LVL12:
 285              		.loc 1 226 3 is_stmt 1 view .LVU78
 286 000c 2078     		ldrb	r0, [r4]	@ zero_extendqisi2
 287 000e FFF7FEFF 		bl	test_emit_token
 288              	.LVL13:
 289              		.loc 1 227 3 view .LVU79
 290 0012 2846     		mov	r0, r5
 291              		.loc 1 228 1 is_stmt 0 view .LVU80
 292 0014 BDE83840 		pop	{r3, r4, r5, lr}
 293              		.cfi_restore 14
 294              		.cfi_restore 5
 295              		.cfi_restore 4
 296              		.cfi_restore 3
 297              		.cfi_def_cfa_offset 0
 298              	.LVL14:
 299              		.loc 1 227 3 view .LVU81
 300 0018 FFF7FEBF 		b	chMtxUnlock
 301              	.LVL15:
 302              	.L10:
 303              		.align	2
 304              	.L9:
 305 001c 00000000 		.word	.LANCHOR1
 306              		.cfi_endproc
 307              	.LFE441:
 308              		.size	thread9, .-thread9
 309              		.section	.text.thread1,"ax",%progbits
 310              		.align	1
 311              		.p2align 4,,15
 312              		.syntax unified
 313              		.thumb
 314              		.thumb_func
 315              		.type	thread1, %function
 316              	thread1:
 317              	.LVL16:
 318              	.LFB436:
 319              		.loc 1 85 33 is_stmt 1 view -0
 320              		.cfi_startproc
 321              		@ args = 0, pretend = 0, frame = 0
 322              		@ frame_needed = 0, uses_anonymous_args = 0
 323              		.loc 1 87 3 view .LVU83
 324              		.loc 1 85 33 is_stmt 0 view .LVU84
 325 0000 38B5     		push	{r3, r4, r5, lr}
 326              		.cfi_def_cfa_offset 16
 327              		.cfi_offset 3, -16
 328              		.cfi_offset 4, -12
 329              		.cfi_offset 5, -8
 330              		.cfi_offset 14, -4
 331              		.loc 1 87 3 view .LVU85
 332 0002 064D     		ldr	r5, .L13
 333              		.loc 1 85 33 view .LVU86
 334 0004 0446     		mov	r4, r0
 335              		.loc 1 87 3 view .LVU87
 336 0006 2846     		mov	r0, r5
 337              	.LVL17:
 338              		.loc 1 87 3 view .LVU88
ARM GAS  C:\Users\DEVELO~1\AppData\Local\Temp\ccHNMg6f.s 			page 7


 339 0008 FFF7FEFF 		bl	chMtxLock
 340              	.LVL18:
 341              		.loc 1 88 3 is_stmt 1 view .LVU89
 342 000c 2078     		ldrb	r0, [r4]	@ zero_extendqisi2
 343 000e FFF7FEFF 		bl	test_emit_token
 344              	.LVL19:
 345              		.loc 1 89 3 view .LVU90
 346 0012 2846     		mov	r0, r5
 347              		.loc 1 90 1 is_stmt 0 view .LVU91
 348 0014 BDE83840 		pop	{r3, r4, r5, lr}
 349              		.cfi_restore 14
 350              		.cfi_restore 5
 351              		.cfi_restore 4
 352              		.cfi_restore 3
 353              		.cfi_def_cfa_offset 0
 354              	.LVL20:
 355              		.loc 1 89 3 view .LVU92
 356 0018 FFF7FEBF 		b	chMtxUnlock
 357              	.LVL21:
 358              	.L14:
 359              		.align	2
 360              	.L13:
 361 001c 00000000 		.word	.LANCHOR2
 362              		.cfi_endproc
 363              	.LFE436:
 364              		.size	thread1, .-thread1
 365              		.section	.text.thread6,"ax",%progbits
 366              		.align	1
 367              		.p2align 4,,15
 368              		.syntax unified
 369              		.thumb
 370              		.thumb_func
 371              		.type	thread6, %function
 372              	thread6:
 373              	.LVL22:
 374              	.LFB439:
 375              		.loc 1 201 33 is_stmt 1 view -0
 376              		.cfi_startproc
 377              		@ args = 0, pretend = 0, frame = 0
 378              		@ frame_needed = 0, uses_anonymous_args = 0
 379              		.loc 1 203 3 view .LVU94
 380              		.loc 1 201 33 is_stmt 0 view .LVU95
 381 0000 38B5     		push	{r3, r4, r5, lr}
 382              		.cfi_def_cfa_offset 16
 383              		.cfi_offset 3, -16
 384              		.cfi_offset 4, -12
 385              		.cfi_offset 5, -8
 386              		.cfi_offset 14, -4
 387              		.loc 1 203 3 view .LVU96
 388 0002 084D     		ldr	r5, .L17
 389              		.loc 1 201 33 view .LVU97
 390 0004 0446     		mov	r4, r0
 391              		.loc 1 203 3 view .LVU98
 392 0006 2846     		mov	r0, r5
 393              	.LVL23:
 394              		.loc 1 203 3 view .LVU99
 395 0008 FFF7FEFF 		bl	chMtxLock
ARM GAS  C:\Users\DEVELO~1\AppData\Local\Temp\ccHNMg6f.s 			page 8


 396              	.LVL24:
 397              		.loc 1 204 3 is_stmt 1 view .LVU100
 398 000c 0648     		ldr	r0, .L17+4
 399 000e FFF7FEFF 		bl	chCondWait
 400              	.LVL25:
 401              		.loc 1 205 3 view .LVU101
 402 0012 2078     		ldrb	r0, [r4]	@ zero_extendqisi2
 403 0014 FFF7FEFF 		bl	test_emit_token
 404              	.LVL26:
 405              		.loc 1 206 3 view .LVU102
 406 0018 2846     		mov	r0, r5
 407              		.loc 1 207 1 is_stmt 0 view .LVU103
 408 001a BDE83840 		pop	{r3, r4, r5, lr}
 409              		.cfi_restore 14
 410              		.cfi_restore 5
 411              		.cfi_restore 4
 412              		.cfi_restore 3
 413              		.cfi_def_cfa_offset 0
 414              	.LVL27:
 415              		.loc 1 206 3 view .LVU104
 416 001e FFF7FEBF 		b	chMtxUnlock
 417              	.LVL28:
 418              	.L18:
 419 0022 00BF     		.align	2
 420              	.L17:
 421 0024 00000000 		.word	.LANCHOR2
 422 0028 00000000 		.word	.LANCHOR0
 423              		.cfi_endproc
 424              	.LFE439:
 425              		.size	thread6, .-thread6
 426              		.section	.text.thread8,"ax",%progbits
 427              		.align	1
 428              		.p2align 4,,15
 429              		.syntax unified
 430              		.thumb
 431              		.thumb_func
 432              		.type	thread8, %function
 433              	thread8:
 434              	.LVL29:
 435              	.LFB440:
 436              		.loc 1 209 33 is_stmt 1 view -0
 437              		.cfi_startproc
 438              		@ args = 0, pretend = 0, frame = 0
 439              		@ frame_needed = 0, uses_anonymous_args = 0
 440              		.loc 1 211 3 view .LVU106
 441              		.loc 1 209 33 is_stmt 0 view .LVU107
 442 0000 70B5     		push	{r4, r5, r6, lr}
 443              		.cfi_def_cfa_offset 16
 444              		.cfi_offset 4, -16
 445              		.cfi_offset 5, -12
 446              		.cfi_offset 6, -8
 447              		.cfi_offset 14, -4
 448              		.loc 1 211 3 view .LVU108
 449 0002 0C4D     		ldr	r5, .L21
 450              		.loc 1 209 33 view .LVU109
 451 0004 0446     		mov	r4, r0
 452              		.loc 1 212 3 view .LVU110
ARM GAS  C:\Users\DEVELO~1\AppData\Local\Temp\ccHNMg6f.s 			page 9


 453 0006 0C4E     		ldr	r6, .L21+4
 454              		.loc 1 211 3 view .LVU111
 455 0008 2846     		mov	r0, r5
 456              	.LVL30:
 457              		.loc 1 211 3 view .LVU112
 458 000a FFF7FEFF 		bl	chMtxLock
 459              	.LVL31:
 460              		.loc 1 212 3 is_stmt 1 view .LVU113
 461 000e 3046     		mov	r0, r6
 462 0010 FFF7FEFF 		bl	chMtxLock
 463              	.LVL32:
 464              		.loc 1 214 3 view .LVU114
 465 0014 4FF0FF31 		mov	r1, #-1
 466 0018 0848     		ldr	r0, .L21+8
 467 001a FFF7FEFF 		bl	chCondWaitTimeout
 468              	.LVL33:
 469              		.loc 1 218 3 view .LVU115
 470 001e 2078     		ldrb	r0, [r4]	@ zero_extendqisi2
 471 0020 FFF7FEFF 		bl	test_emit_token
 472              	.LVL34:
 473              		.loc 1 219 3 view .LVU116
 474 0024 3046     		mov	r0, r6
 475 0026 FFF7FEFF 		bl	chMtxUnlock
 476              	.LVL35:
 477              		.loc 1 220 3 view .LVU117
 478 002a 2846     		mov	r0, r5
 479              		.loc 1 221 1 is_stmt 0 view .LVU118
 480 002c BDE87040 		pop	{r4, r5, r6, lr}
 481              		.cfi_restore 14
 482              		.cfi_restore 6
 483              		.cfi_restore 5
 484              		.cfi_restore 4
 485              		.cfi_def_cfa_offset 0
 486              	.LVL36:
 487              		.loc 1 220 3 view .LVU119
 488 0030 FFF7FEBF 		b	chMtxUnlock
 489              	.LVL37:
 490              	.L22:
 491              		.align	2
 492              	.L21:
 493 0034 00000000 		.word	.LANCHOR1
 494 0038 00000000 		.word	.LANCHOR2
 495 003c 00000000 		.word	.LANCHOR0
 496              		.cfi_endproc
 497              	.LFE440:
 498              		.size	thread8, .-thread8
 499              		.section	.text.rt_test_008_009_setup,"ax",%progbits
 500              		.align	1
 501              		.p2align 4,,15
 502              		.syntax unified
 503              		.thumb
 504              		.thumb_func
 505              		.type	rt_test_008_009_setup, %function
 506              	rt_test_008_009_setup:
 507              	.LFB453:
 508              		.loc 1 1008 41 is_stmt 1 view -0
 509              		.cfi_startproc
ARM GAS  C:\Users\DEVELO~1\AppData\Local\Temp\ccHNMg6f.s 			page 10


 510              		@ args = 0, pretend = 0, frame = 0
 511              		@ frame_needed = 0, uses_anonymous_args = 0
 512              		.loc 1 1009 3 view .LVU121
 513              		.loc 1 1008 41 is_stmt 0 view .LVU122
 514 0000 08B5     		push	{r3, lr}
 515              		.cfi_def_cfa_offset 8
 516              		.cfi_offset 3, -8
 517              		.cfi_offset 14, -4
 518              		.loc 1 1009 3 view .LVU123
 519 0002 0548     		ldr	r0, .L25
 520 0004 FFF7FEFF 		bl	chCondObjectInit
 521              	.LVL38:
 522              		.loc 1 1010 3 is_stmt 1 view .LVU124
 523 0008 0448     		ldr	r0, .L25+4
 524 000a FFF7FEFF 		bl	chMtxObjectInit
 525              	.LVL39:
 526              		.loc 1 1011 3 view .LVU125
 527 000e 0448     		ldr	r0, .L25+8
 528              		.loc 1 1012 1 is_stmt 0 view .LVU126
 529 0010 BDE80840 		pop	{r3, lr}
 530              		.cfi_restore 14
 531              		.cfi_restore 3
 532              		.cfi_def_cfa_offset 0
 533              		.loc 1 1011 3 view .LVU127
 534 0014 FFF7FEBF 		b	chMtxObjectInit
 535              	.LVL40:
 536              	.L26:
 537              		.align	2
 538              	.L25:
 539 0018 00000000 		.word	.LANCHOR0
 540 001c 00000000 		.word	.LANCHOR2
 541 0020 00000000 		.word	.LANCHOR1
 542              		.cfi_endproc
 543              	.LFE453:
 544              		.size	rt_test_008_009_setup, .-rt_test_008_009_setup
 545              		.section	.text.rt_test_008_007_setup,"ax",%progbits
 546              		.align	1
 547              		.p2align 4,,15
 548              		.syntax unified
 549              		.thumb
 550              		.thumb_func
 551              		.type	rt_test_008_007_setup, %function
 552              	rt_test_008_007_setup:
 553              	.LFB449:
 554              		.loc 1 864 41 is_stmt 1 view -0
 555              		.cfi_startproc
 556              		@ args = 0, pretend = 0, frame = 0
 557              		@ frame_needed = 0, uses_anonymous_args = 0
 558              		.loc 1 865 3 view .LVU129
 559 0000 0448     		ldr	r0, .L29
 560              		.loc 1 864 41 is_stmt 0 view .LVU130
 561 0002 08B5     		push	{r3, lr}
 562              		.cfi_def_cfa_offset 8
 563              		.cfi_offset 3, -8
 564              		.cfi_offset 14, -4
 565              		.loc 1 865 3 view .LVU131
 566 0004 FFF7FEFF 		bl	chCondObjectInit
ARM GAS  C:\Users\DEVELO~1\AppData\Local\Temp\ccHNMg6f.s 			page 11


 567              	.LVL41:
 568              		.loc 1 866 3 is_stmt 1 view .LVU132
 569 0008 0348     		ldr	r0, .L29+4
 570              		.loc 1 867 1 is_stmt 0 view .LVU133
 571 000a BDE80840 		pop	{r3, lr}
 572              		.cfi_restore 14
 573              		.cfi_restore 3
 574              		.cfi_def_cfa_offset 0
 575              		.loc 1 866 3 view .LVU134
 576 000e FFF7FEBF 		b	chMtxObjectInit
 577              	.LVL42:
 578              	.L30:
 579 0012 00BF     		.align	2
 580              	.L29:
 581 0014 00000000 		.word	.LANCHOR0
 582 0018 00000000 		.word	.LANCHOR2
 583              		.cfi_endproc
 584              	.LFE449:
 585              		.size	rt_test_008_007_setup, .-rt_test_008_007_setup
 586              		.section	.text.rt_test_008_004_setup,"ax",%progbits
 587              		.align	1
 588              		.p2align 4,,15
 589              		.syntax unified
 590              		.thumb
 591              		.thumb_func
 592              		.type	rt_test_008_004_setup, %function
 593              	rt_test_008_004_setup:
 594              	.LFB444:
 595              		.loc 1 490 41 is_stmt 1 view -0
 596              		.cfi_startproc
 597              		@ args = 0, pretend = 0, frame = 0
 598              		@ frame_needed = 0, uses_anonymous_args = 0
 599              		.loc 1 491 3 view .LVU136
 600 0000 0448     		ldr	r0, .L33
 601              		.loc 1 490 41 is_stmt 0 view .LVU137
 602 0002 08B5     		push	{r3, lr}
 603              		.cfi_def_cfa_offset 8
 604              		.cfi_offset 3, -8
 605              		.cfi_offset 14, -4
 606              		.loc 1 491 3 view .LVU138
 607 0004 FFF7FEFF 		bl	chMtxObjectInit
 608              	.LVL43:
 609              		.loc 1 492 3 is_stmt 1 view .LVU139
 610 0008 0348     		ldr	r0, .L33+4
 611              		.loc 1 493 1 is_stmt 0 view .LVU140
 612 000a BDE80840 		pop	{r3, lr}
 613              		.cfi_restore 14
 614              		.cfi_restore 3
 615              		.cfi_def_cfa_offset 0
 616              		.loc 1 492 3 view .LVU141
 617 000e FFF7FEBF 		b	chMtxObjectInit
 618              	.LVL44:
 619              	.L34:
 620 0012 00BF     		.align	2
 621              	.L33:
 622 0014 00000000 		.word	.LANCHOR2
 623 0018 00000000 		.word	.LANCHOR1
ARM GAS  C:\Users\DEVELO~1\AppData\Local\Temp\ccHNMg6f.s 			page 12


 624              		.cfi_endproc
 625              	.LFE444:
 626              		.size	rt_test_008_004_setup, .-rt_test_008_004_setup
 627              		.section	.text.rt_test_008_001_setup,"ax",%progbits
 628              		.align	1
 629              		.p2align 4,,15
 630              		.syntax unified
 631              		.thumb
 632              		.thumb_func
 633              		.type	rt_test_008_001_setup, %function
 634              	rt_test_008_001_setup:
 635              	.LFB442:
 636              		.loc 1 255 41 is_stmt 1 view -0
 637              		.cfi_startproc
 638              		@ args = 0, pretend = 0, frame = 0
 639              		@ frame_needed = 0, uses_anonymous_args = 0
 640              		@ link register save eliminated.
 641              		.loc 1 256 3 view .LVU143
 642 0000 0148     		ldr	r0, .L36
 643 0002 FFF7FEBF 		b	chMtxObjectInit
 644              	.LVL45:
 645              	.L37:
 646 0006 00BF     		.align	2
 647              	.L36:
 648 0008 00000000 		.word	.LANCHOR2
 649              		.cfi_endproc
 650              	.LFE442:
 651              		.size	rt_test_008_001_setup, .-rt_test_008_001_setup
 652              		.section	.rodata.rt_test_008_008_execute.str1.4,"aMS",%progbits,1
 653              		.align	2
 654              	.LC5:
 655 0000 4500     		.ascii	"E\000"
 656 0002 0000     		.align	2
 657              	.LC6:
 658 0004 4400     		.ascii	"D\000"
 659 0006 0000     		.align	2
 660              	.LC7:
 661 0008 41424344 		.ascii	"ABCDE\000"
 661      4500
 662              		.section	.text.rt_test_008_008_execute,"ax",%progbits
 663              		.align	1
 664              		.p2align 4,,15
 665              		.syntax unified
 666              		.thumb
 667              		.thumb_func
 668              		.type	rt_test_008_008_execute, %function
 669              	rt_test_008_008_execute:
 670              	.LFB452:
 671              		.loc 1 940 43 view -0
 672              		.cfi_startproc
 673              		@ args = 0, pretend = 0, frame = 0
 674              		@ frame_needed = 0, uses_anonymous_args = 0
 675              		.loc 1 944 3 view .LVU145
 676              	.LBB110:
 677              	.LBB111:
 678              	.LBB112:
 679              	.LBB113:
ARM GAS  C:\Users\DEVELO~1\AppData\Local\Temp\ccHNMg6f.s 			page 13


 680              	.LBB114:
 681              		.loc 2 343 10 is_stmt 0 view .LVU146
 682 0000 274A     		ldr	r2, .L40
 683              	.LBE114:
 684              	.LBE113:
 685              	.LBE112:
 686              	.LBE111:
 687              		.loc 1 947 18 view .LVU147
 688 0002 4FF4D871 		mov	r1, #432
 689 0006 274B     		ldr	r3, .L40+4
 690              	.LBB120:
 691              	.LBB117:
 692              		.loc 2 356 37 view .LVU148
 693 0008 D268     		ldr	r2, [r2, #12]
 694              	.LBE117:
 695              	.LBE120:
 696              	.LBE110:
 697              		.loc 1 940 43 view .LVU149
 698 000a 2DE9F041 		push	{r4, r5, r6, r7, r8, lr}
 699              		.cfi_def_cfa_offset 24
 700              		.cfi_offset 4, -24
 701              		.cfi_offset 5, -20
 702              		.cfi_offset 6, -16
 703              		.cfi_offset 7, -12
 704              		.cfi_offset 8, -8
 705              		.cfi_offset 14, -4
 706              	.LBB123:
 707              	.LBB121:
 708              	.LBB118:
 709              		.loc 2 356 37 view .LVU150
 710 000e 9668     		ldr	r6, [r2, #8]
 711              	.LBE118:
 712              	.LBE121:
 713              	.LBE123:
 714              		.loc 1 940 43 view .LVU151
 715 0010 82B0     		sub	sp, sp, #8
 716              		.cfi_def_cfa_offset 32
 717              	.LBB124:
 718              		.loc 1 947 18 view .LVU152
 719 0012 254F     		ldr	r7, .L40+8
 720              	.LBE124:
 721              		.loc 1 944 3 view .LVU153
 722 0014 0122     		movs	r2, #1
 723              	.LBB125:
 724              		.loc 1 947 38 view .LVU154
 725 0016 254D     		ldr	r5, .L40+12
 726              	.LBE125:
 727              		.loc 1 944 3 view .LVU155
 728 0018 DFF89480 		ldr	r8, .L40+16
 729              	.LBB126:
 730              		.loc 1 947 18 view .LVU156
 731 001c 0093     		str	r3, [sp]
 732 001e 3B46     		mov	r3, r7
 733              	.LBE126:
 734              		.loc 1 944 3 view .LVU157
 735 0020 C8F80020 		str	r2, [r8]
 736              	.LBB127:
ARM GAS  C:\Users\DEVELO~1\AppData\Local\Temp\ccHNMg6f.s 			page 14


 737              		.loc 1 946 5 is_stmt 1 view .LVU158
 738              	.LBB122:
 739              	.LBI111:
 740              		.loc 2 354 23 view .LVU159
 741              	.LBB119:
 742              		.loc 2 356 3 view .LVU160
 743              	.LBB116:
 744              	.LBI113:
 745              		.loc 2 341 25 view .LVU161
 746              	.LBB115:
 747              		.loc 2 343 3 view .LVU162
 748              	.LVL46:
 749              		.loc 2 343 3 is_stmt 0 view .LVU163
 750              	.LBE115:
 751              	.LBE116:
 752              	.LBE119:
 753              	.LBE122:
 754              		.loc 1 947 5 is_stmt 1 view .LVU164
 755              		.loc 1 947 18 is_stmt 0 view .LVU165
 756 0024 B218     		adds	r2, r6, r2
 757 0026 2868     		ldr	r0, [r5]
 758 0028 FFF7FEFF 		bl	chThdCreateStatic
 759              	.LVL47:
 760              		.loc 1 947 16 view .LVU166
 761 002c 214C     		ldr	r4, .L40+20
 762              		.loc 1 948 18 view .LVU167
 763 002e 224B     		ldr	r3, .L40+24
 764 0030 B21C     		adds	r2, r6, #2
 765              		.loc 1 947 16 view .LVU168
 766 0032 2060     		str	r0, [r4]
 767              		.loc 1 948 5 is_stmt 1 view .LVU169
 768              		.loc 1 948 18 is_stmt 0 view .LVU170
 769 0034 4FF4D871 		mov	r1, #432
 770 0038 0093     		str	r3, [sp]
 771 003a 3B46     		mov	r3, r7
 772 003c 6868     		ldr	r0, [r5, #4]
 773 003e FFF7FEFF 		bl	chThdCreateStatic
 774              	.LVL48:
 775              		.loc 1 949 18 view .LVU171
 776 0042 1E4B     		ldr	r3, .L40+28
 777 0044 F21C     		adds	r2, r6, #3
 778              		.loc 1 948 16 view .LVU172
 779 0046 6060     		str	r0, [r4, #4]
 780              		.loc 1 949 5 is_stmt 1 view .LVU173
 781              		.loc 1 949 18 is_stmt 0 view .LVU174
 782 0048 0093     		str	r3, [sp]
 783 004a 4FF4D871 		mov	r1, #432
 784 004e 3B46     		mov	r3, r7
 785 0050 A868     		ldr	r0, [r5, #8]
 786 0052 FFF7FEFF 		bl	chThdCreateStatic
 787              	.LVL49:
 788              		.loc 1 950 18 view .LVU175
 789 0056 1A4B     		ldr	r3, .L40+32
 790 0058 321D     		adds	r2, r6, #4
 791              		.loc 1 949 16 view .LVU176
 792 005a A060     		str	r0, [r4, #8]
 793              		.loc 1 950 5 is_stmt 1 view .LVU177
ARM GAS  C:\Users\DEVELO~1\AppData\Local\Temp\ccHNMg6f.s 			page 15


 794              		.loc 1 950 18 is_stmt 0 view .LVU178
 795 005c 0093     		str	r3, [sp]
 796 005e 4FF4D871 		mov	r1, #432
 797 0062 3B46     		mov	r3, r7
 798 0064 E868     		ldr	r0, [r5, #12]
 799 0066 FFF7FEFF 		bl	chThdCreateStatic
 800              	.LVL50:
 801              		.loc 1 951 18 view .LVU179
 802 006a 1649     		ldr	r1, .L40+36
 803 006c 3B46     		mov	r3, r7
 804 006e 721D     		adds	r2, r6, #5
 805              		.loc 1 950 16 view .LVU180
 806 0070 E060     		str	r0, [r4, #12]
 807              		.loc 1 951 5 is_stmt 1 view .LVU181
 808              		.loc 1 951 18 is_stmt 0 view .LVU182
 809 0072 0091     		str	r1, [sp]
 810 0074 4FF4D871 		mov	r1, #432
 811 0078 2869     		ldr	r0, [r5, #16]
 812 007a FFF7FEFF 		bl	chThdCreateStatic
 813              	.LVL51:
 814              	.LBE127:
 815              		.loc 1 957 3 view .LVU183
 816 007e 0223     		movs	r3, #2
 817              	.LBB128:
 818              		.loc 1 951 18 view .LVU184
 819 0080 0246     		mov	r2, r0
 820              	.LBE128:
 821              		.loc 1 959 5 view .LVU185
 822 0082 1148     		ldr	r0, .L40+40
 823              		.loc 1 957 3 view .LVU186
 824 0084 C8F80030 		str	r3, [r8]
 825              	.LBB129:
 826              		.loc 1 951 16 view .LVU187
 827 0088 2261     		str	r2, [r4, #16]
 828              	.LBE129:
 829              		.loc 1 953 3 is_stmt 1 view .LVU188
 830              		.loc 1 953 19 view .LVU189
 831              		.loc 1 957 3 view .LVU190
 832              		.loc 1 959 5 view .LVU191
 833 008a FFF7FEFF 		bl	chCondBroadcast
 834              	.LVL52:
 835              		.loc 1 960 5 view .LVU192
 836 008e FFF7FEFF 		bl	test_wait_threads
 837              	.LVL53:
 838              		.loc 1 961 5 view .LVU193
 839 0092 0E49     		ldr	r1, .L40+44
 840 0094 0E48     		ldr	r0, .L40+48
 841              		.loc 1 964 1 is_stmt 0 view .LVU194
 842 0096 02B0     		add	sp, sp, #8
 843              		.cfi_def_cfa_offset 24
 844              		@ sp needed
 845 0098 BDE8F041 		pop	{r4, r5, r6, r7, r8, lr}
 846              		.cfi_restore 14
 847              		.cfi_restore 8
 848              		.cfi_restore 7
 849              		.cfi_restore 6
 850              		.cfi_restore 5
ARM GAS  C:\Users\DEVELO~1\AppData\Local\Temp\ccHNMg6f.s 			page 16


 851              		.cfi_restore 4
 852              		.cfi_def_cfa_offset 0
 853              	.LVL54:
 854              		.loc 1 961 5 view .LVU195
 855 009c FFF7FEBF 		b	__test_assert_sequence
 856              	.LVL55:
 857              	.L41:
 858              		.align	2
 859              	.L40:
 860 00a0 00000000 		.word	ch0
 861 00a4 00000000 		.word	.LC5
 862 00a8 00000000 		.word	thread6
 863 00ac 00000000 		.word	wa
 864 00b0 00000000 		.word	chtest
 865 00b4 00000000 		.word	threads
 866 00b8 04000000 		.word	.LC6
 867 00bc 04000000 		.word	.LC1
 868 00c0 08000000 		.word	.LC2
 869 00c4 00000000 		.word	.LC0
 870 00c8 00000000 		.word	.LANCHOR0
 871 00cc 0C000000 		.word	.LC3
 872 00d0 08000000 		.word	.LC7
 873              		.cfi_endproc
 874              	.LFE452:
 875              		.size	rt_test_008_008_execute, .-rt_test_008_008_execute
 876              		.section	.text.rt_test_008_007_execute,"ax",%progbits
 877              		.align	1
 878              		.p2align 4,,15
 879              		.syntax unified
 880              		.thumb
 881              		.thumb_func
 882              		.type	rt_test_008_007_execute, %function
 883              	rt_test_008_007_execute:
 884              	.LFB450:
 885              		.loc 1 869 43 is_stmt 1 view -0
 886              		.cfi_startproc
 887              		@ args = 0, pretend = 0, frame = 0
 888              		@ frame_needed = 0, uses_anonymous_args = 0
 889              		.loc 1 873 3 view .LVU197
 890              	.LBB130:
 891              	.LBB131:
 892              	.LBB132:
 893              	.LBB133:
 894              	.LBB134:
 895              		.loc 2 343 10 is_stmt 0 view .LVU198
 896 0000 314A     		ldr	r2, .L44
 897              	.LBE134:
 898              	.LBE133:
 899              	.LBE132:
 900              	.LBE131:
 901              		.loc 1 876 18 view .LVU199
 902 0002 4FF4D871 		mov	r1, #432
 903 0006 314B     		ldr	r3, .L44+4
 904              	.LBB140:
 905              	.LBB137:
 906              		.loc 2 356 37 view .LVU200
 907 0008 D268     		ldr	r2, [r2, #12]
ARM GAS  C:\Users\DEVELO~1\AppData\Local\Temp\ccHNMg6f.s 			page 17


 908              	.LBE137:
 909              	.LBE140:
 910              	.LBE130:
 911              		.loc 1 869 43 view .LVU201
 912 000a 2DE9F041 		push	{r4, r5, r6, r7, r8, lr}
 913              		.cfi_def_cfa_offset 24
 914              		.cfi_offset 4, -24
 915              		.cfi_offset 5, -20
 916              		.cfi_offset 6, -16
 917              		.cfi_offset 7, -12
 918              		.cfi_offset 8, -8
 919              		.cfi_offset 14, -4
 920              	.LBB143:
 921              	.LBB141:
 922              	.LBB138:
 923              		.loc 2 356 37 view .LVU202
 924 000e 9668     		ldr	r6, [r2, #8]
 925              	.LBE138:
 926              	.LBE141:
 927              	.LBE143:
 928              		.loc 1 869 43 view .LVU203
 929 0010 82B0     		sub	sp, sp, #8
 930              		.cfi_def_cfa_offset 32
 931              	.LBB144:
 932              		.loc 1 876 18 view .LVU204
 933 0012 2F4F     		ldr	r7, .L44+8
 934              	.LBE144:
 935              		.loc 1 873 3 view .LVU205
 936 0014 0122     		movs	r2, #1
 937              	.LBB145:
 938              		.loc 1 876 38 view .LVU206
 939 0016 2F4D     		ldr	r5, .L44+12
 940              	.LBE145:
 941              		.loc 1 873 3 view .LVU207
 942 0018 DFF8BC80 		ldr	r8, .L44+16
 943              	.LBB146:
 944              		.loc 1 876 18 view .LVU208
 945 001c 0093     		str	r3, [sp]
 946 001e 3B46     		mov	r3, r7
 947              	.LBE146:
 948              		.loc 1 873 3 view .LVU209
 949 0020 C8F80020 		str	r2, [r8]
 950              	.LBB147:
 951              		.loc 1 875 5 is_stmt 1 view .LVU210
 952              	.LBB142:
 953              	.LBI131:
 954              		.loc 2 354 23 view .LVU211
 955              	.LBB139:
 956              		.loc 2 356 3 view .LVU212
 957              	.LBB136:
 958              	.LBI133:
 959              		.loc 2 341 25 view .LVU213
 960              	.LBB135:
 961              		.loc 2 343 3 view .LVU214
 962              	.LVL56:
 963              		.loc 2 343 3 is_stmt 0 view .LVU215
 964              	.LBE135:
ARM GAS  C:\Users\DEVELO~1\AppData\Local\Temp\ccHNMg6f.s 			page 18


 965              	.LBE136:
 966              	.LBE139:
 967              	.LBE142:
 968              		.loc 1 876 5 is_stmt 1 view .LVU216
 969              		.loc 1 876 18 is_stmt 0 view .LVU217
 970 0024 B218     		adds	r2, r6, r2
 971 0026 2868     		ldr	r0, [r5]
 972 0028 FFF7FEFF 		bl	chThdCreateStatic
 973              	.LVL57:
 974              		.loc 1 876 16 view .LVU218
 975 002c 2B4C     		ldr	r4, .L44+20
 976              		.loc 1 877 18 view .LVU219
 977 002e 2C4B     		ldr	r3, .L44+24
 978 0030 B21C     		adds	r2, r6, #2
 979 0032 4FF4D871 		mov	r1, #432
 980 0036 0093     		str	r3, [sp]
 981 0038 3B46     		mov	r3, r7
 982              		.loc 1 876 16 view .LVU220
 983 003a 2060     		str	r0, [r4]
 984              		.loc 1 877 5 is_stmt 1 view .LVU221
 985              		.loc 1 877 18 is_stmt 0 view .LVU222
 986 003c 6868     		ldr	r0, [r5, #4]
 987 003e FFF7FEFF 		bl	chThdCreateStatic
 988              	.LVL58:
 989              		.loc 1 878 18 view .LVU223
 990 0042 284B     		ldr	r3, .L44+28
 991              		.loc 1 877 16 view .LVU224
 992 0044 6060     		str	r0, [r4, #4]
 993              		.loc 1 878 5 is_stmt 1 view .LVU225
 994              		.loc 1 878 18 is_stmt 0 view .LVU226
 995 0046 F21C     		adds	r2, r6, #3
 996 0048 0093     		str	r3, [sp]
 997 004a 4FF4D871 		mov	r1, #432
 998 004e 3B46     		mov	r3, r7
 999 0050 A868     		ldr	r0, [r5, #8]
 1000 0052 FFF7FEFF 		bl	chThdCreateStatic
 1001              	.LVL59:
 1002              		.loc 1 879 18 view .LVU227
 1003 0056 244B     		ldr	r3, .L44+32
 1004              		.loc 1 878 16 view .LVU228
 1005 0058 A060     		str	r0, [r4, #8]
 1006              		.loc 1 879 5 is_stmt 1 view .LVU229
 1007              		.loc 1 879 18 is_stmt 0 view .LVU230
 1008 005a 321D     		adds	r2, r6, #4
 1009 005c 0093     		str	r3, [sp]
 1010 005e 4FF4D871 		mov	r1, #432
 1011 0062 3B46     		mov	r3, r7
 1012 0064 E868     		ldr	r0, [r5, #12]
 1013 0066 FFF7FEFF 		bl	chThdCreateStatic
 1014              	.LVL60:
 1015              		.loc 1 880 18 view .LVU231
 1016 006a 2049     		ldr	r1, .L44+36
 1017              		.loc 1 879 16 view .LVU232
 1018 006c E060     		str	r0, [r4, #12]
 1019              		.loc 1 880 5 is_stmt 1 view .LVU233
 1020              		.loc 1 880 18 is_stmt 0 view .LVU234
 1021 006e 3B46     		mov	r3, r7
ARM GAS  C:\Users\DEVELO~1\AppData\Local\Temp\ccHNMg6f.s 			page 19


 1022 0070 721D     		adds	r2, r6, #5
 1023 0072 0091     		str	r1, [sp]
 1024 0074 2869     		ldr	r0, [r5, #16]
 1025 0076 4FF4D871 		mov	r1, #432
 1026 007a FFF7FEFF 		bl	chThdCreateStatic
 1027              	.LVL61:
 1028              	.LBE147:
 1029              		.loc 1 887 3 view .LVU235
 1030 007e 0222     		movs	r2, #2
 1031              	.LBB148:
 1032              	.LBB149:
 1033              	.LBB150:
 1034              	.LBB151:
 1035              		.file 3 "../../../os/common/ext/ARM/CMSIS/Core/Include/cmsis_gcc.h"
 1036              		.loc 3 493 3 view .LVU236
 1037 0080 3023     		movs	r3, #48
 1038              	.LBE151:
 1039              	.LBE150:
 1040              	.LBE149:
 1041              	.LBE148:
 1042              	.LBB155:
 1043              		.loc 1 880 16 view .LVU237
 1044 0082 2061     		str	r0, [r4, #16]
 1045              	.LBE155:
 1046              		.loc 1 882 3 is_stmt 1 view .LVU238
 1047              		.loc 1 882 19 view .LVU239
 1048              		.loc 1 887 3 view .LVU240
 1049 0084 C8F80020 		str	r2, [r8]
 1050              		.loc 1 889 5 view .LVU241
 1051              	.LBB156:
 1052              	.LBI148:
 1053              		.file 4 "../../../os/rt/include/chsys.h"
 1054              		.loc 4 407 20 view .LVU242
 1055              		.loc 4 409 3 view .LVU243
 1056              	.LBB154:
 1057              	.LBI149:
 1058              		.file 5 "../../../os/common/ports/ARMv7-M/chcore.h"
 1059              		.loc 5 823 27 view .LVU244
 1060              		.loc 5 831 3 view .LVU245
 1061              	.LVL62:
 1062              	.LBB153:
 1063              	.LBI150:
 1064              		.loc 3 491 27 view .LVU246
 1065              	.LBB152:
 1066              		.loc 3 493 3 view .LVU247
 1067              		.syntax unified
 1068              	@ 493 "../../../os/common/ext/ARM/CMSIS/Core/Include/cmsis_gcc.h" 1
 1069 0088 83F31188 		MSR basepri, r3
 1070              	@ 0 "" 2
 1071              	.LVL63:
 1072              		.loc 3 493 3 is_stmt 0 view .LVU248
 1073              		.thumb
 1074              		.syntax unified
 1075              	.LBE152:
 1076              	.LBE153:
 1077              	.LBE154:
 1078              		.loc 4 410 35 is_stmt 1 view .LVU249
ARM GAS  C:\Users\DEVELO~1\AppData\Local\Temp\ccHNMg6f.s 			page 20


 1079              		.loc 4 411 21 view .LVU250
 1080              	.LBE156:
 1081              		.loc 1 890 5 view .LVU251
 1082 008c 184C     		ldr	r4, .L44+40
 1083 008e 2046     		mov	r0, r4
 1084 0090 FFF7FEFF 		bl	chCondSignalI
 1085              	.LVL64:
 1086              		.loc 1 891 5 view .LVU252
 1087 0094 2046     		mov	r0, r4
 1088 0096 FFF7FEFF 		bl	chCondSignalI
 1089              	.LVL65:
 1090              		.loc 1 892 5 view .LVU253
 1091 009a 2046     		mov	r0, r4
 1092 009c FFF7FEFF 		bl	chCondSignalI
 1093              	.LVL66:
 1094              		.loc 1 893 5 view .LVU254
 1095 00a0 2046     		mov	r0, r4
 1096 00a2 FFF7FEFF 		bl	chCondSignalI
 1097              	.LVL67:
 1098              		.loc 1 894 5 view .LVU255
 1099 00a6 2046     		mov	r0, r4
 1100 00a8 FFF7FEFF 		bl	chCondSignalI
 1101              	.LVL68:
 1102              		.loc 1 895 5 view .LVU256
 1103 00ac FFF7FEFF 		bl	chSchRescheduleS
 1104              	.LVL69:
 1105              		.loc 1 896 5 view .LVU257
 1106              	.LBB157:
 1107              	.LBI157:
 1108              		.loc 4 421 20 view .LVU258
 1109              	.LBB158:
 1110              		.loc 4 423 23 view .LVU259
 1111              		.loc 4 424 34 view .LVU260
 1112              		.loc 4 430 3 view .LVU261
 1113              		.loc 4 430 3 view .LVU262
 1114              		.loc 4 430 3 view .LVU263
 1115              		.loc 4 434 3 view .LVU264
 1116              	.LBB159:
 1117              	.LBI159:
 1118              		.loc 5 847 27 view .LVU265
 1119              		.loc 5 850 3 view .LVU266
 1120              	.LBB160:
 1121              	.LBI160:
 1122              		.loc 3 491 27 view .LVU267
 1123              	.LBB161:
 1124              		.loc 3 493 3 view .LVU268
 1125 00b0 0023     		movs	r3, #0
 1126              		.syntax unified
 1127              	@ 493 "../../../os/common/ext/ARM/CMSIS/Core/Include/cmsis_gcc.h" 1
 1128 00b2 83F31188 		MSR basepri, r3
 1129              	@ 0 "" 2
 1130              	.LVL70:
 1131              		.loc 3 493 3 is_stmt 0 view .LVU269
 1132              		.thumb
 1133              		.syntax unified
 1134              	.LBE161:
 1135              	.LBE160:
ARM GAS  C:\Users\DEVELO~1\AppData\Local\Temp\ccHNMg6f.s 			page 21


 1136              	.LBE159:
 1137              	.LBE158:
 1138              	.LBE157:
 1139              		.loc 1 897 5 is_stmt 1 view .LVU270
 1140 00b6 FFF7FEFF 		bl	test_wait_threads
 1141              	.LVL71:
 1142              		.loc 1 898 5 view .LVU271
 1143 00ba 0E49     		ldr	r1, .L44+44
 1144 00bc 0E48     		ldr	r0, .L44+48
 1145              		.loc 1 901 1 is_stmt 0 view .LVU272
 1146 00be 02B0     		add	sp, sp, #8
 1147              		.cfi_def_cfa_offset 24
 1148              		@ sp needed
 1149 00c0 BDE8F041 		pop	{r4, r5, r6, r7, r8, lr}
 1150              		.cfi_restore 14
 1151              		.cfi_restore 8
 1152              		.cfi_restore 7
 1153              		.cfi_restore 6
 1154              		.cfi_restore 5
 1155              		.cfi_restore 4
 1156              		.cfi_def_cfa_offset 0
 1157              	.LVL72:
 1158              		.loc 1 898 5 view .LVU273
 1159 00c4 FFF7FEBF 		b	__test_assert_sequence
 1160              	.LVL73:
 1161              	.L45:
 1162              		.align	2
 1163              	.L44:
 1164 00c8 00000000 		.word	ch0
 1165 00cc 00000000 		.word	.LC5
 1166 00d0 00000000 		.word	thread6
 1167 00d4 00000000 		.word	wa
 1168 00d8 00000000 		.word	chtest
 1169 00dc 00000000 		.word	threads
 1170 00e0 04000000 		.word	.LC6
 1171 00e4 04000000 		.word	.LC1
 1172 00e8 08000000 		.word	.LC2
 1173 00ec 00000000 		.word	.LC0
 1174 00f0 00000000 		.word	.LANCHOR0
 1175 00f4 0C000000 		.word	.LC3
 1176 00f8 08000000 		.word	.LC7
 1177              		.cfi_endproc
 1178              	.LFE450:
 1179              		.size	rt_test_008_007_execute, .-rt_test_008_007_execute
 1180              		.section	.rodata.rt_test_008_001_execute.str1.4,"aMS",%progbits,1
 1181              		.align	2
 1182              	.LC8:
 1183 0000 77726F6E 		.ascii	"wrong priority level\000"
 1183      67207072 
 1183      696F7269 
 1183      7479206C 
 1183      6576656C 
 1184              		.section	.text.rt_test_008_001_execute,"ax",%progbits
 1185              		.align	1
 1186              		.p2align 4,,15
 1187              		.syntax unified
 1188              		.thumb
ARM GAS  C:\Users\DEVELO~1\AppData\Local\Temp\ccHNMg6f.s 			page 22


 1189              		.thumb_func
 1190              		.type	rt_test_008_001_execute, %function
 1191              	rt_test_008_001_execute:
 1192              	.LFB443:
 1193              		.loc 1 259 43 is_stmt 1 view -0
 1194              		.cfi_startproc
 1195              		@ args = 0, pretend = 0, frame = 0
 1196              		@ frame_needed = 0, uses_anonymous_args = 0
 1197              		.loc 1 260 3 view .LVU275
 1198              		.loc 1 263 3 view .LVU276
 1199              		.loc 1 265 5 view .LVU277
 1200              	.LBB162:
 1201              	.LBI162:
 1202              		.loc 2 354 23 view .LVU278
 1203              	.LBB163:
 1204              		.loc 2 356 3 view .LVU279
 1205              	.LBB164:
 1206              	.LBI164:
 1207              		.loc 2 341 25 view .LVU280
 1208              	.LBB165:
 1209              		.loc 2 343 3 view .LVU281
 1210              	.LBE165:
 1211              	.LBE164:
 1212              	.LBE163:
 1213              	.LBE162:
 1214              		.loc 1 259 43 is_stmt 0 view .LVU282
 1215 0000 2DE9F041 		push	{r4, r5, r6, r7, r8, lr}
 1216              		.cfi_def_cfa_offset 24
 1217              		.cfi_offset 4, -24
 1218              		.cfi_offset 5, -20
 1219              		.cfi_offset 6, -16
 1220              		.cfi_offset 7, -12
 1221              		.cfi_offset 8, -8
 1222              		.cfi_offset 14, -4
 1223              	.LBB171:
 1224              	.LBB168:
 1225              	.LBB167:
 1226              	.LBB166:
 1227              		.loc 2 343 10 view .LVU283
 1228 0004 DFF8B880 		ldr	r8, .L50
 1229              	.LBE166:
 1230              	.LBE167:
 1231              	.LBE168:
 1232              	.LBE171:
 1233              		.loc 1 270 3 view .LVU284
 1234 0008 0222     		movs	r2, #2
 1235 000a 2E4F     		ldr	r7, .L50+4
 1236              		.loc 1 259 43 view .LVU285
 1237 000c 82B0     		sub	sp, sp, #8
 1238              		.cfi_def_cfa_offset 32
 1239              	.LBB172:
 1240              	.LBB169:
 1241              		.loc 2 356 37 view .LVU286
 1242 000e D8F80C30 		ldr	r3, [r8, #12]
 1243              	.LBE169:
 1244              	.LBE172:
 1245              		.loc 1 272 5 view .LVU287
ARM GAS  C:\Users\DEVELO~1\AppData\Local\Temp\ccHNMg6f.s 			page 23


 1246 0012 2D48     		ldr	r0, .L50+8
 1247              	.LBB173:
 1248              	.LBB170:
 1249              		.loc 2 356 37 view .LVU288
 1250 0014 9C68     		ldr	r4, [r3, #8]
 1251              	.LVL74:
 1252              		.loc 2 356 37 view .LVU289
 1253              	.LBE170:
 1254              	.LBE173:
 1255              		.loc 1 267 3 is_stmt 1 view .LVU290
 1256              		.loc 1 267 19 view .LVU291
 1257              		.loc 1 270 3 view .LVU292
 1258              		.loc 1 272 5 view .LVU293
 1259              		.loc 1 270 3 is_stmt 0 view .LVU294
 1260 0016 3A60     		str	r2, [r7]
 1261              		.loc 1 272 5 view .LVU295
 1262 0018 FFF7FEFF 		bl	chMtxLock
 1263              	.LVL75:
 1264              		.loc 1 274 3 is_stmt 1 view .LVU296
 1265              		.loc 1 274 19 view .LVU297
 1266              		.loc 1 279 3 view .LVU298
 1267 001c 0323     		movs	r3, #3
 1268              		.loc 1 281 38 is_stmt 0 view .LVU299
 1269 001e 2B4E     		ldr	r6, .L50+12
 1270              		.loc 1 281 18 view .LVU300
 1271 0020 621C     		adds	r2, r4, #1
 1272 0022 4FF4D871 		mov	r1, #432
 1273              		.loc 1 279 3 view .LVU301
 1274 0026 3B60     		str	r3, [r7]
 1275              		.loc 1 281 5 is_stmt 1 view .LVU302
 1276              		.loc 1 281 18 is_stmt 0 view .LVU303
 1277 0028 294B     		ldr	r3, .L50+16
 1278 002a 3068     		ldr	r0, [r6]
 1279 002c 0093     		str	r3, [sp]
 1280 002e 294B     		ldr	r3, .L50+20
 1281 0030 FFF7FEFF 		bl	chThdCreateStatic
 1282              	.LVL76:
 1283              		.loc 1 281 16 view .LVU304
 1284 0034 284D     		ldr	r5, .L50+24
 1285              		.loc 1 282 18 view .LVU305
 1286 0036 294B     		ldr	r3, .L50+28
 1287 0038 A21C     		adds	r2, r4, #2
 1288 003a 4FF4D871 		mov	r1, #432
 1289              		.loc 1 281 16 view .LVU306
 1290 003e 2860     		str	r0, [r5]
 1291              		.loc 1 282 5 is_stmt 1 view .LVU307
 1292              		.loc 1 282 18 is_stmt 0 view .LVU308
 1293 0040 0093     		str	r3, [sp]
 1294 0042 7068     		ldr	r0, [r6, #4]
 1295 0044 234B     		ldr	r3, .L50+20
 1296 0046 FFF7FEFF 		bl	chThdCreateStatic
 1297              	.LVL77:
 1298              		.loc 1 283 18 view .LVU309
 1299 004a 254B     		ldr	r3, .L50+32
 1300 004c E21C     		adds	r2, r4, #3
 1301 004e 4FF4D871 		mov	r1, #432
 1302              		.loc 1 282 16 view .LVU310
ARM GAS  C:\Users\DEVELO~1\AppData\Local\Temp\ccHNMg6f.s 			page 24


 1303 0052 6860     		str	r0, [r5, #4]
 1304              		.loc 1 283 5 is_stmt 1 view .LVU311
 1305              		.loc 1 283 18 is_stmt 0 view .LVU312
 1306 0054 0093     		str	r3, [sp]
 1307 0056 B068     		ldr	r0, [r6, #8]
 1308 0058 1E4B     		ldr	r3, .L50+20
 1309 005a FFF7FEFF 		bl	chThdCreateStatic
 1310              	.LVL78:
 1311              		.loc 1 284 18 view .LVU313
 1312 005e 214B     		ldr	r3, .L50+36
 1313 0060 221D     		adds	r2, r4, #4
 1314 0062 4FF4D871 		mov	r1, #432
 1315              		.loc 1 283 16 view .LVU314
 1316 0066 A860     		str	r0, [r5, #8]
 1317              		.loc 1 284 5 is_stmt 1 view .LVU315
 1318              		.loc 1 284 18 is_stmt 0 view .LVU316
 1319 0068 0093     		str	r3, [sp]
 1320 006a F068     		ldr	r0, [r6, #12]
 1321 006c 194B     		ldr	r3, .L50+20
 1322 006e FFF7FEFF 		bl	chThdCreateStatic
 1323              	.LVL79:
 1324              		.loc 1 285 18 view .LVU317
 1325 0072 1D4B     		ldr	r3, .L50+40
 1326 0074 4FF4D871 		mov	r1, #432
 1327 0078 621D     		adds	r2, r4, #5
 1328              		.loc 1 284 16 view .LVU318
 1329 007a E860     		str	r0, [r5, #12]
 1330              		.loc 1 285 5 is_stmt 1 view .LVU319
 1331              		.loc 1 285 18 is_stmt 0 view .LVU320
 1332 007c 0093     		str	r3, [sp]
 1333 007e 3069     		ldr	r0, [r6, #16]
 1334 0080 144B     		ldr	r3, .L50+20
 1335 0082 FFF7FEFF 		bl	chThdCreateStatic
 1336              	.LVL80:
 1337              		.loc 1 291 3 view .LVU321
 1338 0086 0423     		movs	r3, #4
 1339              		.loc 1 285 16 view .LVU322
 1340 0088 2861     		str	r0, [r5, #16]
 1341              		.loc 1 287 3 is_stmt 1 view .LVU323
 1342              		.loc 1 287 19 view .LVU324
 1343              		.loc 1 291 3 view .LVU325
 1344              		.loc 1 293 5 is_stmt 0 view .LVU326
 1345 008a 0F48     		ldr	r0, .L50+8
 1346              		.loc 1 291 3 view .LVU327
 1347 008c 3B60     		str	r3, [r7]
 1348              		.loc 1 293 5 is_stmt 1 view .LVU328
 1349 008e FFF7FEFF 		bl	chMtxUnlock
 1350              	.LVL81:
 1351              		.loc 1 294 5 view .LVU329
 1352 0092 FFF7FEFF 		bl	test_wait_threads
 1353              	.LVL82:
 1354              		.loc 1 295 5 view .LVU330
 1355              	.LBB174:
 1356              	.LBI174:
 1357              		.loc 2 354 23 view .LVU331
 1358              	.LBB175:
 1359              		.loc 2 356 3 view .LVU332
ARM GAS  C:\Users\DEVELO~1\AppData\Local\Temp\ccHNMg6f.s 			page 25


 1360              	.LBB176:
 1361              	.LBI176:
 1362              		.loc 2 341 25 view .LVU333
 1363              	.LBB177:
 1364              		.loc 2 343 3 view .LVU334
 1365              	.LBE177:
 1366              	.LBE176:
 1367              		.loc 2 356 37 is_stmt 0 view .LVU335
 1368 0096 D8F80C30 		ldr	r3, [r8, #12]
 1369              	.LBE175:
 1370              	.LBE174:
 1371              		.loc 1 295 5 view .LVU336
 1372 009a 1449     		ldr	r1, .L50+44
 1373 009c 9868     		ldr	r0, [r3, #8]
 1374 009e 001B     		subs	r0, r0, r4
 1375 00a0 B0FA80F0 		clz	r0, r0
 1376 00a4 4009     		lsrs	r0, r0, #5
 1377 00a6 FFF7FEFF 		bl	__test_assert
 1378              	.LVL83:
 1379 00aa 10B1     		cbz	r0, .L49
 1380              		.loc 1 299 1 view .LVU337
 1381 00ac 02B0     		add	sp, sp, #8
 1382              		.cfi_remember_state
 1383              		.cfi_def_cfa_offset 24
 1384              		@ sp needed
 1385 00ae BDE8F081 		pop	{r4, r5, r6, r7, r8, pc}
 1386              	.LVL84:
 1387              	.L49:
 1388              		.cfi_restore_state
 1389              		.loc 1 295 69 is_stmt 1 discriminator 2 view .LVU338
 1390              		.loc 1 296 5 discriminator 2 view .LVU339
 1391 00b2 0F49     		ldr	r1, .L50+48
 1392 00b4 0F48     		ldr	r0, .L50+52
 1393              		.loc 1 299 1 is_stmt 0 discriminator 2 view .LVU340
 1394 00b6 02B0     		add	sp, sp, #8
 1395              		.cfi_def_cfa_offset 24
 1396              		@ sp needed
 1397 00b8 BDE8F041 		pop	{r4, r5, r6, r7, r8, lr}
 1398              		.cfi_restore 14
 1399              		.cfi_restore 8
 1400              		.cfi_restore 7
 1401              		.cfi_restore 6
 1402              		.cfi_restore 5
 1403              		.cfi_restore 4
 1404              		.cfi_def_cfa_offset 0
 1405              	.LVL85:
 1406              		.loc 1 296 5 discriminator 2 view .LVU341
 1407 00bc FFF7FEBF 		b	__test_assert_sequence
 1408              	.LVL86:
 1409              	.L51:
 1410              		.align	2
 1411              	.L50:
 1412 00c0 00000000 		.word	ch0
 1413 00c4 00000000 		.word	chtest
 1414 00c8 00000000 		.word	.LANCHOR2
 1415 00cc 00000000 		.word	wa
 1416 00d0 00000000 		.word	.LC5
ARM GAS  C:\Users\DEVELO~1\AppData\Local\Temp\ccHNMg6f.s 			page 26


 1417 00d4 00000000 		.word	thread1
 1418 00d8 00000000 		.word	threads
 1419 00dc 04000000 		.word	.LC6
 1420 00e0 04000000 		.word	.LC1
 1421 00e4 08000000 		.word	.LC2
 1422 00e8 00000000 		.word	.LC0
 1423 00ec 00000000 		.word	.LC8
 1424 00f0 0C000000 		.word	.LC3
 1425 00f4 08000000 		.word	.LC7
 1426              		.cfi_endproc
 1427              	.LFE443:
 1428              		.size	rt_test_008_001_execute, .-rt_test_008_001_execute
 1429              		.section	.rodata.rt_test_008_005_execute.str1.4,"aMS",%progbits,1
 1430              		.align	2
 1431              	.LC9:
 1432 0000 616C7265 		.ascii	"already locked\000"
 1432      61647920 
 1432      6C6F636B 
 1432      656400
 1433 000f 00       		.align	2
 1434              	.LC10:
 1435 0010 6E6F7420 		.ascii	"not locked\000"
 1435      6C6F636B 
 1435      656400
 1436 001b 00       		.align	2
 1437              	.LC11:
 1438 001c 7374696C 		.ascii	"still owned\000"
 1438      6C206F77 
 1438      6E656400 
 1439              		.align	2
 1440              	.LC12:
 1441 0028 71756575 		.ascii	"queue not empty\000"
 1441      65206E6F 
 1441      7420656D 
 1441      70747900 
 1442              		.section	.text.rt_test_008_005_execute,"ax",%progbits
 1443              		.align	1
 1444              		.p2align 4,,15
 1445              		.syntax unified
 1446              		.thumb
 1447              		.thumb_func
 1448              		.type	rt_test_008_005_execute, %function
 1449              	rt_test_008_005_execute:
 1450              	.LFB448:
 1451              		.loc 1 616 43 is_stmt 1 view -0
 1452              		.cfi_startproc
 1453              		@ args = 0, pretend = 0, frame = 0
 1454              		@ frame_needed = 0, uses_anonymous_args = 0
 1455              		.loc 1 617 3 view .LVU343
 1456              		.loc 1 618 3 view .LVU344
 1457              		.loc 1 621 3 view .LVU345
 1458              		.loc 1 623 5 view .LVU346
 1459              	.LBB178:
 1460              	.LBI178:
 1461              		.loc 2 354 23 view .LVU347
 1462              	.LBB179:
 1463              		.loc 2 356 3 view .LVU348
ARM GAS  C:\Users\DEVELO~1\AppData\Local\Temp\ccHNMg6f.s 			page 27


 1464              	.LBB180:
 1465              	.LBI180:
 1466              		.loc 2 341 25 view .LVU349
 1467              	.LBB181:
 1468              		.loc 2 343 3 view .LVU350
 1469              	.LBE181:
 1470              	.LBE180:
 1471              	.LBE179:
 1472              	.LBE178:
 1473              		.loc 1 616 43 is_stmt 0 view .LVU351
 1474 0000 F8B5     		push	{r3, r4, r5, r6, r7, lr}
 1475              		.cfi_def_cfa_offset 24
 1476              		.cfi_offset 3, -24
 1477              		.cfi_offset 4, -20
 1478              		.cfi_offset 5, -16
 1479              		.cfi_offset 6, -12
 1480              		.cfi_offset 7, -8
 1481              		.cfi_offset 14, -4
 1482              	.LBB187:
 1483              	.LBB184:
 1484              	.LBB183:
 1485              	.LBB182:
 1486              		.loc 2 343 10 view .LVU352
 1487 0002 3C4E     		ldr	r6, .L58
 1488              	.LBE182:
 1489              	.LBE183:
 1490              	.LBE184:
 1491              	.LBE187:
 1492              		.loc 1 629 3 view .LVU353
 1493 0004 0222     		movs	r2, #2
 1494              		.loc 1 631 9 view .LVU354
 1495 0006 3C4C     		ldr	r4, .L58+4
 1496              	.LBB188:
 1497              	.LBB185:
 1498              		.loc 2 356 37 view .LVU355
 1499 0008 F368     		ldr	r3, [r6, #12]
 1500              	.LBE185:
 1501              	.LBE188:
 1502              		.loc 1 629 3 view .LVU356
 1503 000a 3C4D     		ldr	r5, .L58+8
 1504              		.loc 1 631 9 view .LVU357
 1505 000c 2046     		mov	r0, r4
 1506              	.LBB189:
 1507              	.LBB186:
 1508              		.loc 2 356 37 view .LVU358
 1509 000e 9F68     		ldr	r7, [r3, #8]
 1510              	.LVL87:
 1511              		.loc 2 356 37 view .LVU359
 1512              	.LBE186:
 1513              	.LBE189:
 1514              		.loc 1 625 3 is_stmt 1 view .LVU360
 1515              		.loc 1 625 19 view .LVU361
 1516              		.loc 1 629 3 view .LVU362
 1517              		.loc 1 631 5 view .LVU363
 1518              		.loc 1 629 3 is_stmt 0 view .LVU364
 1519 0010 2A60     		str	r2, [r5]
 1520              		.loc 1 631 9 view .LVU365
ARM GAS  C:\Users\DEVELO~1\AppData\Local\Temp\ccHNMg6f.s 			page 28


 1521 0012 FFF7FEFF 		bl	chMtxTryLock
 1522              	.LVL88:
 1523              		.loc 1 632 5 is_stmt 1 view .LVU366
 1524 0016 3A49     		ldr	r1, .L58+12
 1525 0018 FFF7FEFF 		bl	__test_assert
 1526              	.LVL89:
 1527              		.loc 1 632 5 is_stmt 0 view .LVU367
 1528 001c 00B1     		cbz	r0, .L57
 1529              	.L52:
 1530              		.loc 1 682 1 view .LVU368
 1531 001e F8BD     		pop	{r3, r4, r5, r6, r7, pc}
 1532              	.LVL90:
 1533              	.L57:
 1534              		.loc 1 632 37 is_stmt 1 discriminator 2 view .LVU369
 1535              		.loc 1 634 3 discriminator 2 view .LVU370
 1536              		.loc 1 634 19 discriminator 2 view .LVU371
 1537              		.loc 1 638 3 discriminator 2 view .LVU372
 1538 0020 0323     		movs	r3, #3
 1539              		.loc 1 640 9 is_stmt 0 discriminator 2 view .LVU373
 1540 0022 2046     		mov	r0, r4
 1541              		.loc 1 638 3 discriminator 2 view .LVU374
 1542 0024 2B60     		str	r3, [r5]
 1543              		.loc 1 640 5 is_stmt 1 discriminator 2 view .LVU375
 1544              		.loc 1 640 9 is_stmt 0 discriminator 2 view .LVU376
 1545 0026 FFF7FEFF 		bl	chMtxTryLock
 1546              	.LVL91:
 1547              		.loc 1 641 5 is_stmt 1 discriminator 2 view .LVU377
 1548 002a 80F00100 		eor	r0, r0, #1
 1549              	.LVL92:
 1550              		.loc 1 641 5 is_stmt 0 discriminator 2 view .LVU378
 1551 002e 3549     		ldr	r1, .L58+16
 1552 0030 C0B2     		uxtb	r0, r0
 1553 0032 FFF7FEFF 		bl	__test_assert
 1554              	.LVL93:
 1555 0036 0028     		cmp	r0, #0
 1556 0038 F1D1     		bne	.L52
 1557              		.loc 1 641 34 is_stmt 1 discriminator 2 view .LVU379
 1558              		.loc 1 643 3 discriminator 2 view .LVU380
 1559              		.loc 1 643 19 discriminator 2 view .LVU381
 1560              		.loc 1 647 3 discriminator 2 view .LVU382
 1561 003a 0423     		movs	r3, #4
 1562              		.loc 1 649 5 is_stmt 0 discriminator 2 view .LVU383
 1563 003c 2046     		mov	r0, r4
 1564              		.loc 1 647 3 discriminator 2 view .LVU384
 1565 003e 2B60     		str	r3, [r5]
 1566              		.loc 1 649 5 is_stmt 1 discriminator 2 view .LVU385
 1567 0040 FFF7FEFF 		bl	chMtxUnlock
 1568              	.LVL94:
 1569              		.loc 1 650 5 discriminator 2 view .LVU386
 1570 0044 A068     		ldr	r0, [r4, #8]
 1571 0046 3049     		ldr	r1, .L58+20
 1572 0048 B0FA80F0 		clz	r0, r0
 1573 004c 4009     		lsrs	r0, r0, #5
 1574 004e FFF7FEFF 		bl	__test_assert
 1575              	.LVL95:
 1576 0052 0028     		cmp	r0, #0
 1577 0054 E3D1     		bne	.L52
ARM GAS  C:\Users\DEVELO~1\AppData\Local\Temp\ccHNMg6f.s 			page 29


 1578              		.loc 1 650 49 view .LVU387
 1579              		.loc 1 651 5 view .LVU388
 1580              	.LVL96:
 1581              	.LBB190:
 1582              	.LBI190:
 1583              		.file 6 "../../../os/rt/include/chlists.h"
 1584              		.loc 6 236 20 view .LVU389
 1585              	.LBB191:
 1586              		.loc 6 238 3 view .LVU390
 1587              		.loc 6 238 10 is_stmt 0 view .LVU391
 1588 0056 2068     		ldr	r0, [r4]
 1589              	.LBE191:
 1590              	.LBE190:
 1591              		.loc 1 651 5 view .LVU392
 1592 0058 2C49     		ldr	r1, .L58+24
 1593 005a 001B     		subs	r0, r0, r4
 1594 005c B0FA80F0 		clz	r0, r0
 1595 0060 4009     		lsrs	r0, r0, #5
 1596 0062 FFF7FEFF 		bl	__test_assert
 1597              	.LVL97:
 1598 0066 0028     		cmp	r0, #0
 1599 0068 D9D1     		bne	.L52
 1600              		.loc 1 651 64 is_stmt 1 discriminator 2 view .LVU393
 1601              		.loc 1 653 3 discriminator 2 view .LVU394
 1602              		.loc 1 653 19 discriminator 2 view .LVU395
 1603              		.loc 1 656 3 discriminator 2 view .LVU396
 1604 006a 0523     		movs	r3, #5
 1605              		.loc 1 658 5 is_stmt 0 discriminator 2 view .LVU397
 1606 006c 2849     		ldr	r1, .L58+28
 1607              		.loc 1 656 3 discriminator 2 view .LVU398
 1608 006e 2B60     		str	r3, [r5]
 1609              		.loc 1 658 5 is_stmt 1 discriminator 2 view .LVU399
 1610              	.LBB192:
 1611              	.LBI192:
 1612              		.loc 2 354 23 discriminator 2 view .LVU400
 1613              	.LBB193:
 1614              		.loc 2 356 3 discriminator 2 view .LVU401
 1615              	.LBB194:
 1616              	.LBI194:
 1617              		.loc 2 341 25 discriminator 2 view .LVU402
 1618              	.LBB195:
 1619              		.loc 2 343 3 discriminator 2 view .LVU403
 1620              	.LBE195:
 1621              	.LBE194:
 1622              		.loc 2 356 37 is_stmt 0 discriminator 2 view .LVU404
 1623 0070 F368     		ldr	r3, [r6, #12]
 1624              	.LBE193:
 1625              	.LBE192:
 1626              		.loc 1 658 5 discriminator 2 view .LVU405
 1627 0072 9868     		ldr	r0, [r3, #8]
 1628 0074 C01B     		subs	r0, r0, r7
 1629 0076 B0FA80F0 		clz	r0, r0
 1630 007a 4009     		lsrs	r0, r0, #5
 1631 007c FFF7FEFF 		bl	__test_assert
 1632              	.LVL98:
 1633 0080 0028     		cmp	r0, #0
 1634 0082 CCD1     		bne	.L52
ARM GAS  C:\Users\DEVELO~1\AppData\Local\Temp\ccHNMg6f.s 			page 30


 1635              		.loc 1 658 69 is_stmt 1 discriminator 2 view .LVU406
 1636              		.loc 1 660 3 discriminator 2 view .LVU407
 1637              		.loc 1 660 19 discriminator 2 view .LVU408
 1638              		.loc 1 663 3 discriminator 2 view .LVU409
 1639 0084 0623     		movs	r3, #6
 1640              		.loc 1 665 9 is_stmt 0 discriminator 2 view .LVU410
 1641 0086 2046     		mov	r0, r4
 1642              		.loc 1 663 3 discriminator 2 view .LVU411
 1643 0088 2B60     		str	r3, [r5]
 1644              		.loc 1 665 5 is_stmt 1 discriminator 2 view .LVU412
 1645              		.loc 1 665 9 is_stmt 0 discriminator 2 view .LVU413
 1646 008a FFF7FEFF 		bl	chMtxTryLock
 1647              	.LVL99:
 1648              		.loc 1 666 5 is_stmt 1 discriminator 2 view .LVU414
 1649 008e 1C49     		ldr	r1, .L58+12
 1650 0090 FFF7FEFF 		bl	__test_assert
 1651              	.LVL100:
 1652              		.loc 1 666 5 is_stmt 0 discriminator 2 view .LVU415
 1653 0094 0028     		cmp	r0, #0
 1654 0096 C2D1     		bne	.L52
 1655              		.loc 1 666 37 is_stmt 1 discriminator 2 view .LVU416
 1656              		.loc 1 667 5 discriminator 2 view .LVU417
 1657              		.loc 1 667 9 is_stmt 0 discriminator 2 view .LVU418
 1658 0098 2046     		mov	r0, r4
 1659 009a FFF7FEFF 		bl	chMtxTryLock
 1660              	.LVL101:
 1661              		.loc 1 668 5 is_stmt 1 discriminator 2 view .LVU419
 1662 009e 80F00100 		eor	r0, r0, #1
 1663              	.LVL102:
 1664              		.loc 1 668 5 is_stmt 0 discriminator 2 view .LVU420
 1665 00a2 1849     		ldr	r1, .L58+16
 1666 00a4 C0B2     		uxtb	r0, r0
 1667 00a6 FFF7FEFF 		bl	__test_assert
 1668              	.LVL103:
 1669 00aa 0028     		cmp	r0, #0
 1670 00ac B7D1     		bne	.L52
 1671              		.loc 1 668 34 is_stmt 1 discriminator 2 view .LVU421
 1672              		.loc 1 670 5 discriminator 2 view .LVU422
 1673 00ae FFF7FEFF 		bl	chMtxUnlockAll
 1674              	.LVL104:
 1675              		.loc 1 671 5 discriminator 2 view .LVU423
 1676 00b2 A068     		ldr	r0, [r4, #8]
 1677 00b4 1449     		ldr	r1, .L58+20
 1678 00b6 B0FA80F0 		clz	r0, r0
 1679 00ba 4009     		lsrs	r0, r0, #5
 1680 00bc FFF7FEFF 		bl	__test_assert
 1681              	.LVL105:
 1682 00c0 0028     		cmp	r0, #0
 1683 00c2 ACD1     		bne	.L52
 1684              		.loc 1 671 49 view .LVU424
 1685              		.loc 1 672 5 view .LVU425
 1686              	.LVL106:
 1687              	.LBB196:
 1688              	.LBI196:
 1689              		.loc 6 236 20 view .LVU426
 1690              	.LBB197:
 1691              		.loc 6 238 3 view .LVU427
ARM GAS  C:\Users\DEVELO~1\AppData\Local\Temp\ccHNMg6f.s 			page 31


 1692              		.loc 6 238 10 is_stmt 0 view .LVU428
 1693 00c4 2068     		ldr	r0, [r4]
 1694              	.LBE197:
 1695              	.LBE196:
 1696              		.loc 1 672 5 view .LVU429
 1697 00c6 1149     		ldr	r1, .L58+24
 1698 00c8 001B     		subs	r0, r0, r4
 1699 00ca B0FA80F0 		clz	r0, r0
 1700 00ce 4009     		lsrs	r0, r0, #5
 1701 00d0 FFF7FEFF 		bl	__test_assert
 1702              	.LVL107:
 1703 00d4 0028     		cmp	r0, #0
 1704 00d6 A2D1     		bne	.L52
 1705              		.loc 1 672 64 is_stmt 1 discriminator 2 view .LVU430
 1706              		.loc 1 674 3 discriminator 2 view .LVU431
 1707              		.loc 1 674 19 discriminator 2 view .LVU432
 1708              		.loc 1 677 3 discriminator 2 view .LVU433
 1709              	.LBB198:
 1710              	.LBB199:
 1711              		.loc 2 356 37 is_stmt 0 discriminator 2 view .LVU434
 1712 00d8 F268     		ldr	r2, [r6, #12]
 1713              	.LBE199:
 1714              	.LBE198:
 1715              		.loc 1 677 3 discriminator 2 view .LVU435
 1716 00da 0723     		movs	r3, #7
 1717              		.loc 1 679 5 discriminator 2 view .LVU436
 1718 00dc 0C49     		ldr	r1, .L58+28
 1719 00de 9068     		ldr	r0, [r2, #8]
 1720              		.loc 1 677 3 discriminator 2 view .LVU437
 1721 00e0 2B60     		str	r3, [r5]
 1722              		.loc 1 679 5 is_stmt 1 discriminator 2 view .LVU438
 1723              	.LBB203:
 1724              	.LBI198:
 1725              		.loc 2 354 23 discriminator 2 view .LVU439
 1726              	.LBB202:
 1727              		.loc 2 356 3 discriminator 2 view .LVU440
 1728              	.LBB200:
 1729              	.LBI200:
 1730              		.loc 2 341 25 discriminator 2 view .LVU441
 1731              	.LBB201:
 1732              		.loc 2 343 3 discriminator 2 view .LVU442
 1733              	.LBE201:
 1734              	.LBE200:
 1735              	.LBE202:
 1736              	.LBE203:
 1737              		.loc 1 679 5 is_stmt 0 discriminator 2 view .LVU443
 1738 00e2 C01B     		subs	r0, r0, r7
 1739 00e4 B0FA80F0 		clz	r0, r0
 1740              		.loc 1 682 1 discriminator 2 view .LVU444
 1741 00e8 BDE8F840 		pop	{r3, r4, r5, r6, r7, lr}
 1742              		.cfi_restore 14
 1743              		.cfi_restore 7
 1744              		.cfi_restore 6
 1745              		.cfi_restore 5
 1746              		.cfi_restore 4
 1747              		.cfi_restore 3
 1748              		.cfi_def_cfa_offset 0
ARM GAS  C:\Users\DEVELO~1\AppData\Local\Temp\ccHNMg6f.s 			page 32


 1749              	.LVL108:
 1750              		.loc 1 679 5 discriminator 2 view .LVU445
 1751 00ec 4009     		lsrs	r0, r0, #5
 1752 00ee FFF7FEBF 		b	__test_assert
 1753              	.LVL109:
 1754              	.L59:
 1755 00f2 00BF     		.align	2
 1756              	.L58:
 1757 00f4 00000000 		.word	ch0
 1758 00f8 00000000 		.word	.LANCHOR2
 1759 00fc 00000000 		.word	chtest
 1760 0100 00000000 		.word	.LC9
 1761 0104 10000000 		.word	.LC10
 1762 0108 1C000000 		.word	.LC11
 1763 010c 28000000 		.word	.LC12
 1764 0110 00000000 		.word	.LC8
 1765              		.cfi_endproc
 1766              	.LFE448:
 1767              		.size	rt_test_008_005_execute, .-rt_test_008_005_execute
 1768              		.section	.text.rt_test_008_004_execute,"ax",%progbits
 1769              		.align	1
 1770              		.p2align 4,,15
 1771              		.syntax unified
 1772              		.thumb
 1773              		.thumb_func
 1774              		.type	rt_test_008_004_execute, %function
 1775              	rt_test_008_004_execute:
 1776              	.LFB446:
 1777              		.loc 1 499 43 is_stmt 1 view -0
 1778              		.cfi_startproc
 1779              		@ args = 0, pretend = 0, frame = 0
 1780              		@ frame_needed = 0, uses_anonymous_args = 0
 1781              		.loc 1 500 3 view .LVU447
 1782              		.loc 1 504 3 view .LVU448
 1783              		.loc 1 506 5 view .LVU449
 1784              	.LBB204:
 1785              	.LBI204:
 1786              		.loc 2 354 23 view .LVU450
 1787              	.LBB205:
 1788              		.loc 2 356 3 view .LVU451
 1789              	.LBB206:
 1790              	.LBI206:
 1791              		.loc 2 341 25 view .LVU452
 1792              	.LBB207:
 1793              		.loc 2 343 3 view .LVU453
 1794              	.LBE207:
 1795              	.LBE206:
 1796              	.LBE205:
 1797              	.LBE204:
 1798              		.loc 1 499 43 is_stmt 0 view .LVU454
 1799 0000 2DE9F043 		push	{r4, r5, r6, r7, r8, r9, lr}
 1800              		.cfi_def_cfa_offset 28
 1801              		.cfi_offset 4, -28
 1802              		.cfi_offset 5, -24
 1803              		.cfi_offset 6, -20
 1804              		.cfi_offset 7, -16
 1805              		.cfi_offset 8, -12
ARM GAS  C:\Users\DEVELO~1\AppData\Local\Temp\ccHNMg6f.s 			page 33


 1806              		.cfi_offset 9, -8
 1807              		.cfi_offset 14, -4
 1808              	.LBB213:
 1809              	.LBB210:
 1810              	.LBB209:
 1811              	.LBB208:
 1812              		.loc 2 343 10 view .LVU455
 1813 0004 454D     		ldr	r5, .L66
 1814              	.LBE208:
 1815              	.LBE209:
 1816              	.LBE210:
 1817              	.LBE213:
 1818              		.loc 1 499 43 view .LVU456
 1819 0006 83B0     		sub	sp, sp, #12
 1820              		.cfi_def_cfa_offset 40
 1821              		.loc 1 515 38 view .LVU457
 1822 0008 454F     		ldr	r7, .L66+4
 1823              		.loc 1 515 18 view .LVU458
 1824 000a 4FF4D871 		mov	r1, #432
 1825              	.LBB214:
 1826              	.LBB211:
 1827              		.loc 2 356 37 view .LVU459
 1828 000e EA68     		ldr	r2, [r5, #12]
 1829              	.LBE211:
 1830              	.LBE214:
 1831              		.loc 1 513 3 view .LVU460
 1832 0010 444E     		ldr	r6, .L66+8
 1833              	.LBB215:
 1834              	.LBB212:
 1835              		.loc 2 356 37 view .LVU461
 1836 0012 9468     		ldr	r4, [r2, #8]
 1837              	.LVL110:
 1838              		.loc 2 356 37 view .LVU462
 1839              	.LBE212:
 1840              	.LBE215:
 1841              		.loc 1 507 5 is_stmt 1 view .LVU463
 1842              		.loc 1 513 3 is_stmt 0 view .LVU464
 1843 0014 0222     		movs	r2, #2
 1844              		.loc 1 515 18 view .LVU465
 1845 0016 444B     		ldr	r3, .L66+12
 1846              		.loc 1 507 8 view .LVU466
 1847 0018 04F10108 		add	r8, r4, #1
 1848              	.LVL111:
 1849              		.loc 1 508 5 is_stmt 1 view .LVU467
 1850              		.loc 1 515 18 is_stmt 0 view .LVU468
 1851 001c 3868     		ldr	r0, [r7]
 1852 001e 0093     		str	r3, [sp]
 1853              		.loc 1 508 8 view .LVU469
 1854 0020 04F10209 		add	r9, r4, #2
 1855              		.loc 1 515 18 view .LVU470
 1856 0024 414B     		ldr	r3, .L66+16
 1857              		.loc 1 513 3 view .LVU471
 1858 0026 3260     		str	r2, [r6]
 1859              		.loc 1 515 18 view .LVU472
 1860 0028 4246     		mov	r2, r8
 1861 002a FFF7FEFF 		bl	chThdCreateStatic
 1862              	.LVL112:
ARM GAS  C:\Users\DEVELO~1\AppData\Local\Temp\ccHNMg6f.s 			page 34


 1863              		.loc 1 510 3 is_stmt 1 view .LVU473
 1864              		.loc 1 510 19 view .LVU474
 1865              		.loc 1 513 3 view .LVU475
 1866              		.loc 1 515 5 view .LVU476
 1867              		.loc 1 516 18 is_stmt 0 view .LVU477
 1868 002e 404A     		ldr	r2, .L66+20
 1869              		.loc 1 515 18 view .LVU478
 1870 0030 0346     		mov	r3, r0
 1871              		.loc 1 516 18 view .LVU479
 1872 0032 7868     		ldr	r0, [r7, #4]
 1873              		.loc 1 515 16 view .LVU480
 1874 0034 3F4F     		ldr	r7, .L66+24
 1875              		.loc 1 516 18 view .LVU481
 1876 0036 4FF4D871 		mov	r1, #432
 1877 003a 0092     		str	r2, [sp]
 1878 003c 4A46     		mov	r2, r9
 1879              		.loc 1 515 16 view .LVU482
 1880 003e 3B60     		str	r3, [r7]
 1881              		.loc 1 516 5 is_stmt 1 view .LVU483
 1882              		.loc 1 516 18 is_stmt 0 view .LVU484
 1883 0040 3D4B     		ldr	r3, .L66+28
 1884 0042 FFF7FEFF 		bl	chThdCreateStatic
 1885              	.LVL113:
 1886              		.loc 1 523 3 view .LVU485
 1887 0046 0323     		movs	r3, #3
 1888              		.loc 1 516 16 view .LVU486
 1889 0048 7860     		str	r0, [r7, #4]
 1890              		.loc 1 518 3 is_stmt 1 view .LVU487
 1891              		.loc 1 518 19 view .LVU488
 1892              		.loc 1 523 3 view .LVU489
 1893              		.loc 1 525 5 is_stmt 0 view .LVU490
 1894 004a 3C48     		ldr	r0, .L66+32
 1895              		.loc 1 523 3 view .LVU491
 1896 004c 3360     		str	r3, [r6]
 1897              		.loc 1 525 5 is_stmt 1 view .LVU492
 1898 004e FFF7FEFF 		bl	chMtxLock
 1899              	.LVL114:
 1900              		.loc 1 526 5 view .LVU493
 1901              	.LBB216:
 1902              	.LBI216:
 1903              		.loc 2 354 23 view .LVU494
 1904              	.LBB217:
 1905              		.loc 2 356 3 view .LVU495
 1906              	.LBB218:
 1907              	.LBI218:
 1908              		.loc 2 341 25 view .LVU496
 1909              	.LBB219:
 1910              		.loc 2 343 3 view .LVU497
 1911              	.LBE219:
 1912              	.LBE218:
 1913              		.loc 2 356 37 is_stmt 0 view .LVU498
 1914 0052 EB68     		ldr	r3, [r5, #12]
 1915              	.LBE217:
 1916              	.LBE216:
 1917              		.loc 1 526 5 view .LVU499
 1918 0054 3A49     		ldr	r1, .L66+36
 1919 0056 9868     		ldr	r0, [r3, #8]
ARM GAS  C:\Users\DEVELO~1\AppData\Local\Temp\ccHNMg6f.s 			page 35


 1920 0058 001B     		subs	r0, r0, r4
 1921 005a B0FA80F0 		clz	r0, r0
 1922 005e 4009     		lsrs	r0, r0, #5
 1923 0060 FFF7FEFF 		bl	__test_assert
 1924              	.LVL115:
 1925 0064 10B1     		cbz	r0, .L65
 1926              	.L60:
 1927              		.loc 1 575 1 view .LVU500
 1928 0066 03B0     		add	sp, sp, #12
 1929              		.cfi_remember_state
 1930              		.cfi_def_cfa_offset 28
 1931              		@ sp needed
 1932 0068 BDE8F083 		pop	{r4, r5, r6, r7, r8, r9, pc}
 1933              	.LVL116:
 1934              	.L65:
 1935              		.cfi_restore_state
 1936              		.loc 1 526 66 is_stmt 1 discriminator 2 view .LVU501
 1937              		.loc 1 528 3 discriminator 2 view .LVU502
 1938              		.loc 1 528 19 discriminator 2 view .LVU503
 1939              		.loc 1 533 3 discriminator 2 view .LVU504
 1940 006c 0423     		movs	r3, #4
 1941              		.loc 1 535 5 is_stmt 0 discriminator 2 view .LVU505
 1942 006e 4FF47A70 		mov	r0, #1000
 1943              		.loc 1 533 3 discriminator 2 view .LVU506
 1944 0072 3360     		str	r3, [r6]
 1945              		.loc 1 535 5 is_stmt 1 discriminator 2 view .LVU507
 1946 0074 FFF7FEFF 		bl	chThdSleep
 1947              	.LVL117:
 1948              		.loc 1 536 5 discriminator 2 view .LVU508
 1949              	.LBB220:
 1950              	.LBI220:
 1951              		.loc 2 354 23 discriminator 2 view .LVU509
 1952              	.LBB221:
 1953              		.loc 2 356 3 discriminator 2 view .LVU510
 1954              	.LBB222:
 1955              	.LBI222:
 1956              		.loc 2 341 25 discriminator 2 view .LVU511
 1957              	.LBB223:
 1958              		.loc 2 343 3 discriminator 2 view .LVU512
 1959              	.LBE223:
 1960              	.LBE222:
 1961              		.loc 2 356 37 is_stmt 0 discriminator 2 view .LVU513
 1962 0078 EB68     		ldr	r3, [r5, #12]
 1963              	.LBE221:
 1964              	.LBE220:
 1965              		.loc 1 536 5 discriminator 2 view .LVU514
 1966 007a 3149     		ldr	r1, .L66+36
 1967 007c 9868     		ldr	r0, [r3, #8]
 1968 007e A0EB0800 		sub	r0, r0, r8
 1969 0082 B0FA80F0 		clz	r0, r0
 1970 0086 4009     		lsrs	r0, r0, #5
 1971 0088 FFF7FEFF 		bl	__test_assert
 1972              	.LVL118:
 1973 008c 0028     		cmp	r0, #0
 1974 008e EAD1     		bne	.L60
 1975              		.loc 1 536 67 is_stmt 1 discriminator 2 view .LVU515
 1976              		.loc 1 538 3 discriminator 2 view .LVU516
ARM GAS  C:\Users\DEVELO~1\AppData\Local\Temp\ccHNMg6f.s 			page 36


 1977              		.loc 1 538 19 discriminator 2 view .LVU517
 1978              		.loc 1 543 3 discriminator 2 view .LVU518
 1979 0090 0523     		movs	r3, #5
 1980              		.loc 1 545 5 is_stmt 0 discriminator 2 view .LVU519
 1981 0092 2C48     		ldr	r0, .L66+40
 1982              		.loc 1 543 3 discriminator 2 view .LVU520
 1983 0094 3360     		str	r3, [r6]
 1984              		.loc 1 545 5 is_stmt 1 discriminator 2 view .LVU521
 1985 0096 FFF7FEFF 		bl	chMtxLock
 1986              	.LVL119:
 1987              		.loc 1 546 5 discriminator 2 view .LVU522
 1988              	.LBB224:
 1989              	.LBI224:
 1990              		.loc 2 354 23 discriminator 2 view .LVU523
 1991              	.LBB225:
 1992              		.loc 2 356 3 discriminator 2 view .LVU524
 1993              	.LBB226:
 1994              	.LBI226:
 1995              		.loc 2 341 25 discriminator 2 view .LVU525
 1996              	.LBB227:
 1997              		.loc 2 343 3 discriminator 2 view .LVU526
 1998              	.LBE227:
 1999              	.LBE226:
 2000              		.loc 2 356 37 is_stmt 0 discriminator 2 view .LVU527
 2001 009a EB68     		ldr	r3, [r5, #12]
 2002              	.LBE225:
 2003              	.LBE224:
 2004              		.loc 1 546 5 discriminator 2 view .LVU528
 2005 009c 2849     		ldr	r1, .L66+36
 2006 009e 9868     		ldr	r0, [r3, #8]
 2007 00a0 A0EB0800 		sub	r0, r0, r8
 2008 00a4 B0FA80F0 		clz	r0, r0
 2009 00a8 4009     		lsrs	r0, r0, #5
 2010 00aa FFF7FEFF 		bl	__test_assert
 2011              	.LVL120:
 2012 00ae 0028     		cmp	r0, #0
 2013 00b0 D9D1     		bne	.L60
 2014              		.loc 1 546 67 is_stmt 1 discriminator 2 view .LVU529
 2015              		.loc 1 548 3 discriminator 2 view .LVU530
 2016              		.loc 1 548 19 discriminator 2 view .LVU531
 2017              		.loc 1 553 3 discriminator 2 view .LVU532
 2018 00b2 0623     		movs	r3, #6
 2019              		.loc 1 555 5 is_stmt 0 discriminator 2 view .LVU533
 2020 00b4 4FF47A70 		mov	r0, #1000
 2021              		.loc 1 553 3 discriminator 2 view .LVU534
 2022 00b8 3360     		str	r3, [r6]
 2023              		.loc 1 555 5 is_stmt 1 discriminator 2 view .LVU535
 2024 00ba FFF7FEFF 		bl	chThdSleep
 2025              	.LVL121:
 2026              		.loc 1 556 5 discriminator 2 view .LVU536
 2027              	.LBB228:
 2028              	.LBI228:
 2029              		.loc 2 354 23 discriminator 2 view .LVU537
 2030              	.LBB229:
 2031              		.loc 2 356 3 discriminator 2 view .LVU538
 2032              	.LBB230:
 2033              	.LBI230:
ARM GAS  C:\Users\DEVELO~1\AppData\Local\Temp\ccHNMg6f.s 			page 37


 2034              		.loc 2 341 25 discriminator 2 view .LVU539
 2035              	.LBB231:
 2036              		.loc 2 343 3 discriminator 2 view .LVU540
 2037              	.LBE231:
 2038              	.LBE230:
 2039              		.loc 2 356 37 is_stmt 0 discriminator 2 view .LVU541
 2040 00be EB68     		ldr	r3, [r5, #12]
 2041              	.LBE229:
 2042              	.LBE228:
 2043              		.loc 1 556 5 discriminator 2 view .LVU542
 2044 00c0 1F49     		ldr	r1, .L66+36
 2045 00c2 9868     		ldr	r0, [r3, #8]
 2046 00c4 A0EB0900 		sub	r0, r0, r9
 2047 00c8 B0FA80F0 		clz	r0, r0
 2048 00cc 4009     		lsrs	r0, r0, #5
 2049 00ce FFF7FEFF 		bl	__test_assert
 2050              	.LVL122:
 2051 00d2 0028     		cmp	r0, #0
 2052 00d4 C7D1     		bne	.L60
 2053              		.loc 1 556 67 is_stmt 1 discriminator 2 view .LVU543
 2054              		.loc 1 558 3 discriminator 2 view .LVU544
 2055              		.loc 1 558 19 discriminator 2 view .LVU545
 2056              		.loc 1 561 3 discriminator 2 view .LVU546
 2057 00d6 0723     		movs	r3, #7
 2058              		.loc 1 563 5 is_stmt 0 discriminator 2 view .LVU547
 2059 00d8 1A48     		ldr	r0, .L66+40
 2060              		.loc 1 561 3 discriminator 2 view .LVU548
 2061 00da 3360     		str	r3, [r6]
 2062              		.loc 1 563 5 is_stmt 1 discriminator 2 view .LVU549
 2063 00dc FFF7FEFF 		bl	chMtxUnlock
 2064              	.LVL123:
 2065              		.loc 1 564 5 discriminator 2 view .LVU550
 2066              	.LBB232:
 2067              	.LBI232:
 2068              		.loc 2 354 23 discriminator 2 view .LVU551
 2069              	.LBB233:
 2070              		.loc 2 356 3 discriminator 2 view .LVU552
 2071              	.LBB234:
 2072              	.LBI234:
 2073              		.loc 2 341 25 discriminator 2 view .LVU553
 2074              	.LBB235:
 2075              		.loc 2 343 3 discriminator 2 view .LVU554
 2076              	.LBE235:
 2077              	.LBE234:
 2078              		.loc 2 356 37 is_stmt 0 discriminator 2 view .LVU555
 2079 00e0 EB68     		ldr	r3, [r5, #12]
 2080              	.LBE233:
 2081              	.LBE232:
 2082              		.loc 1 564 5 discriminator 2 view .LVU556
 2083 00e2 1749     		ldr	r1, .L66+36
 2084 00e4 9868     		ldr	r0, [r3, #8]
 2085 00e6 A0EB0800 		sub	r0, r0, r8
 2086 00ea B0FA80F0 		clz	r0, r0
 2087 00ee 4009     		lsrs	r0, r0, #5
 2088 00f0 FFF7FEFF 		bl	__test_assert
 2089              	.LVL124:
 2090 00f4 0028     		cmp	r0, #0
ARM GAS  C:\Users\DEVELO~1\AppData\Local\Temp\ccHNMg6f.s 			page 38


 2091 00f6 B6D1     		bne	.L60
 2092              		.loc 1 564 67 is_stmt 1 discriminator 2 view .LVU557
 2093              		.loc 1 566 3 discriminator 2 view .LVU558
 2094              		.loc 1 566 19 discriminator 2 view .LVU559
 2095              		.loc 1 569 3 discriminator 2 view .LVU560
 2096 00f8 0823     		movs	r3, #8
 2097              		.loc 1 571 5 is_stmt 0 discriminator 2 view .LVU561
 2098 00fa 1048     		ldr	r0, .L66+32
 2099              		.loc 1 569 3 discriminator 2 view .LVU562
 2100 00fc 3360     		str	r3, [r6]
 2101              		.loc 1 571 5 is_stmt 1 discriminator 2 view .LVU563
 2102 00fe FFF7FEFF 		bl	chMtxUnlock
 2103              	.LVL125:
 2104              		.loc 1 572 5 discriminator 2 view .LVU564
 2105              	.LBB236:
 2106              	.LBI236:
 2107              		.loc 2 354 23 discriminator 2 view .LVU565
 2108              	.LBB237:
 2109              		.loc 2 356 3 discriminator 2 view .LVU566
 2110              	.LBB238:
 2111              	.LBI238:
 2112              		.loc 2 341 25 discriminator 2 view .LVU567
 2113              	.LBB239:
 2114              		.loc 2 343 3 discriminator 2 view .LVU568
 2115              	.LBE239:
 2116              	.LBE238:
 2117              		.loc 2 356 37 is_stmt 0 discriminator 2 view .LVU569
 2118 0102 EB68     		ldr	r3, [r5, #12]
 2119              	.LBE237:
 2120              	.LBE236:
 2121              		.loc 1 572 5 discriminator 2 view .LVU570
 2122 0104 0E49     		ldr	r1, .L66+36
 2123 0106 9868     		ldr	r0, [r3, #8]
 2124 0108 001B     		subs	r0, r0, r4
 2125 010a B0FA80F0 		clz	r0, r0
 2126 010e 4009     		lsrs	r0, r0, #5
 2127              		.loc 1 575 1 discriminator 2 view .LVU571
 2128 0110 03B0     		add	sp, sp, #12
 2129              		.cfi_def_cfa_offset 28
 2130              		@ sp needed
 2131 0112 BDE8F043 		pop	{r4, r5, r6, r7, r8, r9, lr}
 2132              		.cfi_restore 14
 2133              		.cfi_restore 9
 2134              		.cfi_restore 8
 2135              		.cfi_restore 7
 2136              		.cfi_restore 6
 2137              		.cfi_restore 5
 2138              		.cfi_restore 4
 2139              		.cfi_def_cfa_offset 0
 2140              	.LVL126:
 2141              		.loc 1 572 5 discriminator 2 view .LVU572
 2142 0116 FFF7FEBF 		b	__test_assert
 2143              	.LVL127:
 2144              	.L67:
 2145 011a 00BF     		.align	2
 2146              	.L66:
 2147 011c 00000000 		.word	ch0
ARM GAS  C:\Users\DEVELO~1\AppData\Local\Temp\ccHNMg6f.s 			page 39


 2148 0120 00000000 		.word	wa
 2149 0124 00000000 		.word	chtest
 2150 0128 00000000 		.word	.LC0
 2151 012c 00000000 		.word	thread4A
 2152 0130 08000000 		.word	.LC2
 2153 0134 00000000 		.word	threads
 2154 0138 00000000 		.word	thread4B
 2155 013c 00000000 		.word	.LANCHOR2
 2156 0140 00000000 		.word	.LC8
 2157 0144 00000000 		.word	.LANCHOR1
 2158              		.cfi_endproc
 2159              	.LFE446:
 2160              		.size	rt_test_008_004_execute, .-rt_test_008_004_execute
 2161              		.section	.text.thread4A,"ax",%progbits
 2162              		.align	1
 2163              		.p2align 4,,15
 2164              		.syntax unified
 2165              		.thumb
 2166              		.thumb_func
 2167              		.type	thread4A, %function
 2168              	thread4A:
 2169              	.LVL128:
 2170              	.LFB437:
 2171              		.loc 1 181 34 is_stmt 1 view -0
 2172              		.cfi_startproc
 2173              		@ args = 0, pretend = 0, frame = 0
 2174              		@ frame_needed = 0, uses_anonymous_args = 0
 2175              		.loc 1 183 3 view .LVU574
 2176              		.loc 1 184 3 view .LVU575
 2177              		.loc 1 181 34 is_stmt 0 view .LVU576
 2178 0000 10B5     		push	{r4, lr}
 2179              		.cfi_def_cfa_offset 8
 2180              		.cfi_offset 4, -8
 2181              		.cfi_offset 14, -4
 2182              		.loc 1 185 3 view .LVU577
 2183 0002 064C     		ldr	r4, .L70
 2184              		.loc 1 184 3 view .LVU578
 2185 0004 4FF4FA70 		mov	r0, #500
 2186              	.LVL129:
 2187              		.loc 1 184 3 view .LVU579
 2188 0008 FFF7FEFF 		bl	chThdSleep
 2189              	.LVL130:
 2190              		.loc 1 185 3 is_stmt 1 view .LVU580
 2191 000c 2046     		mov	r0, r4
 2192 000e FFF7FEFF 		bl	chMtxLock
 2193              	.LVL131:
 2194              		.loc 1 186 3 view .LVU581
 2195 0012 2046     		mov	r0, r4
 2196              		.loc 1 187 1 is_stmt 0 view .LVU582
 2197 0014 BDE81040 		pop	{r4, lr}
 2198              		.cfi_restore 14
 2199              		.cfi_restore 4
 2200              		.cfi_def_cfa_offset 0
 2201              		.loc 1 186 3 view .LVU583
 2202 0018 FFF7FEBF 		b	chMtxUnlock
 2203              	.LVL132:
 2204              	.L71:
ARM GAS  C:\Users\DEVELO~1\AppData\Local\Temp\ccHNMg6f.s 			page 40


 2205              		.align	2
 2206              	.L70:
 2207 001c 00000000 		.word	.LANCHOR2
 2208              		.cfi_endproc
 2209              	.LFE437:
 2210              		.size	thread4A, .-thread4A
 2211              		.section	.text.thread4B,"ax",%progbits
 2212              		.align	1
 2213              		.p2align 4,,15
 2214              		.syntax unified
 2215              		.thumb
 2216              		.thumb_func
 2217              		.type	thread4B, %function
 2218              	thread4B:
 2219              	.LVL133:
 2220              	.LFB438:
 2221              		.loc 1 189 34 is_stmt 1 view -0
 2222              		.cfi_startproc
 2223              		@ args = 0, pretend = 0, frame = 0
 2224              		@ frame_needed = 0, uses_anonymous_args = 0
 2225              		.loc 1 191 3 view .LVU585
 2226              		.loc 1 192 3 view .LVU586
 2227 0000 40F2DC50 		movw	r0, #1500
 2228              	.LVL134:
 2229              		.loc 1 189 34 is_stmt 0 view .LVU587
 2230 0004 10B5     		push	{r4, lr}
 2231              		.cfi_def_cfa_offset 8
 2232              		.cfi_offset 4, -8
 2233              		.cfi_offset 14, -4
 2234              		.loc 1 192 3 view .LVU588
 2235 0006 FFF7FEFF 		bl	chThdSleep
 2236              	.LVL135:
 2237              		.loc 1 193 3 is_stmt 1 view .LVU589
 2238              	.LBB240:
 2239              	.LBI240:
 2240              		.loc 4 407 20 view .LVU590
 2241              		.loc 4 409 3 view .LVU591
 2242              	.LBB241:
 2243              	.LBI241:
 2244              		.loc 5 823 27 view .LVU592
 2245              		.loc 5 831 3 view .LVU593
 2246              	.LBB242:
 2247              	.LBI242:
 2248              		.loc 3 491 27 view .LVU594
 2249              	.LBB243:
 2250              		.loc 3 493 3 view .LVU595
 2251 000a 3023     		movs	r3, #48
 2252              		.syntax unified
 2253              	@ 493 "../../../os/common/ext/ARM/CMSIS/Core/Include/cmsis_gcc.h" 1
 2254 000c 83F31188 		MSR basepri, r3
 2255              	@ 0 "" 2
 2256              	.LVL136:
 2257              		.loc 3 493 3 is_stmt 0 view .LVU596
 2258              		.thumb
 2259              		.syntax unified
 2260              	.LBE243:
 2261              	.LBE242:
ARM GAS  C:\Users\DEVELO~1\AppData\Local\Temp\ccHNMg6f.s 			page 41


 2262              	.LBE241:
 2263              		.loc 4 410 35 is_stmt 1 view .LVU597
 2264              		.loc 4 411 21 view .LVU598
 2265              	.LBE240:
 2266              		.loc 1 194 3 view .LVU599
 2267 0010 064C     		ldr	r4, .L74
 2268 0012 2046     		mov	r0, r4
 2269 0014 FFF7FEFF 		bl	chMtxLockS
 2270              	.LVL137:
 2271              		.loc 1 195 3 view .LVU600
 2272 0018 2046     		mov	r0, r4
 2273 001a FFF7FEFF 		bl	chMtxUnlockS
 2274              	.LVL138:
 2275              		.loc 1 196 3 view .LVU601
 2276 001e FFF7FEFF 		bl	chSchRescheduleS
 2277              	.LVL139:
 2278              		.loc 1 197 3 view .LVU602
 2279              	.LBB244:
 2280              	.LBI244:
 2281              		.loc 4 421 20 view .LVU603
 2282              	.LBB245:
 2283              		.loc 4 423 23 view .LVU604
 2284              		.loc 4 424 34 view .LVU605
 2285              		.loc 4 430 3 view .LVU606
 2286              		.loc 4 430 3 view .LVU607
 2287              		.loc 4 430 3 view .LVU608
 2288              		.loc 4 434 3 view .LVU609
 2289              	.LBB246:
 2290              	.LBI246:
 2291              		.loc 5 847 27 view .LVU610
 2292              		.loc 5 850 3 view .LVU611
 2293              	.LBB247:
 2294              	.LBI247:
 2295              		.loc 3 491 27 view .LVU612
 2296              	.LBB248:
 2297              		.loc 3 493 3 view .LVU613
 2298 0022 0023     		movs	r3, #0
 2299              		.syntax unified
 2300              	@ 493 "../../../os/common/ext/ARM/CMSIS/Core/Include/cmsis_gcc.h" 1
 2301 0024 83F31188 		MSR basepri, r3
 2302              	@ 0 "" 2
 2303              	.LVL140:
 2304              		.loc 3 493 3 is_stmt 0 view .LVU614
 2305              		.thumb
 2306              		.syntax unified
 2307              	.LBE248:
 2308              	.LBE247:
 2309              	.LBE246:
 2310              	.LBE245:
 2311              	.LBE244:
 2312              		.loc 1 198 1 view .LVU615
 2313 0028 10BD     		pop	{r4, pc}
 2314              	.L75:
 2315 002a 00BF     		.align	2
 2316              	.L74:
 2317 002c 00000000 		.word	.LANCHOR1
 2318              		.cfi_endproc
ARM GAS  C:\Users\DEVELO~1\AppData\Local\Temp\ccHNMg6f.s 			page 42


 2319              	.LFE438:
 2320              		.size	thread4B, .-thread4B
 2321              		.section	.text.rt_test_008_005_setup,"ax",%progbits
 2322              		.align	1
 2323              		.p2align 4,,15
 2324              		.syntax unified
 2325              		.thumb
 2326              		.thumb_func
 2327              		.type	rt_test_008_005_setup, %function
 2328              	rt_test_008_005_setup:
 2329              	.LFB456:
 2330              		.cfi_startproc
 2331              		@ args = 0, pretend = 0, frame = 0
 2332              		@ frame_needed = 0, uses_anonymous_args = 0
 2333              		@ link register save eliminated.
 2334 0000 0148     		ldr	r0, .L77
 2335 0002 FFF7FEBF 		b	chMtxObjectInit
 2336              	.L78:
 2337 0006 00BF     		.align	2
 2338              	.L77:
 2339 0008 00000000 		.word	.LANCHOR2
 2340              		.cfi_endproc
 2341              	.LFE456:
 2342              		.size	rt_test_008_005_setup, .-rt_test_008_005_setup
 2343              		.section	.text.rt_test_008_008_setup,"ax",%progbits
 2344              		.align	1
 2345              		.p2align 4,,15
 2346              		.syntax unified
 2347              		.thumb
 2348              		.thumb_func
 2349              		.type	rt_test_008_008_setup, %function
 2350              	rt_test_008_008_setup:
 2351              	.LFB458:
 2352              		.cfi_startproc
 2353              		@ args = 0, pretend = 0, frame = 0
 2354              		@ frame_needed = 0, uses_anonymous_args = 0
 2355 0000 0448     		ldr	r0, .L81
 2356 0002 08B5     		push	{r3, lr}
 2357              		.cfi_def_cfa_offset 8
 2358              		.cfi_offset 3, -8
 2359              		.cfi_offset 14, -4
 2360 0004 FFF7FEFF 		bl	chCondObjectInit
 2361 0008 0348     		ldr	r0, .L81+4
 2362 000a BDE80840 		pop	{r3, lr}
 2363              		.cfi_restore 14
 2364              		.cfi_restore 3
 2365              		.cfi_def_cfa_offset 0
 2366 000e FFF7FEBF 		b	chMtxObjectInit
 2367              	.L82:
 2368 0012 00BF     		.align	2
 2369              	.L81:
 2370 0014 00000000 		.word	.LANCHOR0
 2371 0018 00000000 		.word	.LANCHOR2
 2372              		.cfi_endproc
 2373              	.LFE458:
 2374              		.size	rt_test_008_008_setup, .-rt_test_008_008_setup
 2375              		.global	rt_test_sequence_008
ARM GAS  C:\Users\DEVELO~1\AppData\Local\Temp\ccHNMg6f.s 			page 43


 2376              		.section	.rodata.str1.4,"aMS",%progbits,1
 2377              		.align	2
 2378              	.LC13:
 2379 0000 4D757465 		.ascii	"Mutexes, Condition Variables and Priority Inheritan"
 2379      7865732C 
 2379      20436F6E 
 2379      64697469 
 2379      6F6E2056 
 2380 0033 636500   		.ascii	"ce\000"
 2381              		.global	rt_test_sequence_008_array
 2382 0036 0000     		.align	2
 2383              	.LC14:
 2384 0038 436F6E64 		.ascii	"Condition Variable priority boost test\000"
 2384      6974696F 
 2384      6E205661 
 2384      72696162 
 2384      6C652070 
 2385 005f 00       		.align	2
 2386              	.LC15:
 2387 0060 436F6E64 		.ascii	"Condition Variable broadcast test\000"
 2387      6974696F 
 2387      6E205661 
 2387      72696162 
 2387      6C652062 
 2388 0082 0000     		.align	2
 2389              	.LC16:
 2390 0084 436F6E64 		.ascii	"Condition Variable signal test\000"
 2390      6974696F 
 2390      6E205661 
 2390      72696162 
 2390      6C652073 
 2391 00a3 00       		.align	2
 2392              	.LC17:
 2393 00a4 52657065 		.ascii	"Repeated locks, non recursive scenario\000"
 2393      61746564 
 2393      206C6F63 
 2393      6B732C20 
 2393      6E6F6E20 
 2394 00cb 00       		.align	2
 2395              	.LC18:
 2396 00cc 5072696F 		.ascii	"Priority return verification\000"
 2396      72697479 
 2396      20726574 
 2396      75726E20 
 2396      76657269 
 2397 00e9 000000   		.align	2
 2398              	.LC19:
 2399 00ec 5072696F 		.ascii	"Priority enqueuing test\000"
 2399      72697479 
 2399      20656E71 
 2399      75657569 
 2399      6E672074 
 2400              		.section	.data.c1,"aw"
 2401              		.align	2
 2402              		.set	.LANCHOR0,. + 0
 2403              		.type	c1, %object
 2404              		.size	c1, 8
ARM GAS  C:\Users\DEVELO~1\AppData\Local\Temp\ccHNMg6f.s 			page 44


 2405              	c1:
 2406 0000 00000000 		.word	c1
 2407 0004 00000000 		.word	c1
 2408              		.section	.data.m1,"aw"
 2409              		.align	2
 2410              		.set	.LANCHOR2,. + 0
 2411              		.type	m1, %object
 2412              		.size	m1, 16
 2413              	m1:
 2414 0000 00000000 		.word	m1
 2415 0004 00000000 		.word	m1
 2416 0008 00000000 		.word	0
 2417 000c 00000000 		.word	0
 2418              		.section	.data.m2,"aw"
 2419              		.align	2
 2420              		.set	.LANCHOR1,. + 0
 2421              		.type	m2, %object
 2422              		.size	m2, 16
 2423              	m2:
 2424 0000 00000000 		.word	m2
 2425 0004 00000000 		.word	m2
 2426 0008 00000000 		.word	0
 2427 000c 00000000 		.word	0
 2428              		.section	.rodata.rt_test_008_001,"a"
 2429              		.align	2
 2430              		.type	rt_test_008_001, %object
 2431              		.size	rt_test_008_001, 16
 2432              	rt_test_008_001:
 2433 0000 EC000000 		.word	.LC19
 2434 0004 00000000 		.word	rt_test_008_001_setup
 2435 0008 00000000 		.word	0
 2436 000c 00000000 		.word	rt_test_008_001_execute
 2437              		.section	.rodata.rt_test_008_004,"a"
 2438              		.align	2
 2439              		.type	rt_test_008_004, %object
 2440              		.size	rt_test_008_004, 16
 2441              	rt_test_008_004:
 2442 0000 CC000000 		.word	.LC18
 2443 0004 00000000 		.word	rt_test_008_004_setup
 2444 0008 00000000 		.word	rt_test_008_004_teardown
 2445 000c 00000000 		.word	rt_test_008_004_execute
 2446              		.section	.rodata.rt_test_008_005,"a"
 2447              		.align	2
 2448              		.type	rt_test_008_005, %object
 2449              		.size	rt_test_008_005, 16
 2450              	rt_test_008_005:
 2451 0000 A4000000 		.word	.LC17
 2452 0004 00000000 		.word	rt_test_008_005_setup
 2453 0008 00000000 		.word	0
 2454 000c 00000000 		.word	rt_test_008_005_execute
 2455              		.section	.rodata.rt_test_008_007,"a"
 2456              		.align	2
 2457              		.type	rt_test_008_007, %object
 2458              		.size	rt_test_008_007, 16
 2459              	rt_test_008_007:
 2460 0000 84000000 		.word	.LC16
 2461 0004 00000000 		.word	rt_test_008_007_setup
ARM GAS  C:\Users\DEVELO~1\AppData\Local\Temp\ccHNMg6f.s 			page 45


 2462 0008 00000000 		.word	0
 2463 000c 00000000 		.word	rt_test_008_007_execute
 2464              		.section	.rodata.rt_test_008_008,"a"
 2465              		.align	2
 2466              		.type	rt_test_008_008, %object
 2467              		.size	rt_test_008_008, 16
 2468              	rt_test_008_008:
 2469 0000 60000000 		.word	.LC15
 2470 0004 00000000 		.word	rt_test_008_008_setup
 2471 0008 00000000 		.word	0
 2472 000c 00000000 		.word	rt_test_008_008_execute
 2473              		.section	.rodata.rt_test_008_009,"a"
 2474              		.align	2
 2475              		.type	rt_test_008_009, %object
 2476              		.size	rt_test_008_009, 16
 2477              	rt_test_008_009:
 2478 0000 38000000 		.word	.LC14
 2479 0004 00000000 		.word	rt_test_008_009_setup
 2480 0008 00000000 		.word	0
 2481 000c 00000000 		.word	rt_test_008_009_execute
 2482              		.section	.rodata.rt_test_sequence_008,"a"
 2483              		.align	2
 2484              		.type	rt_test_sequence_008, %object
 2485              		.size	rt_test_sequence_008, 8
 2486              	rt_test_sequence_008:
 2487 0000 00000000 		.word	.LC13
 2488 0004 00000000 		.word	rt_test_sequence_008_array
 2489              		.section	.rodata.rt_test_sequence_008_array,"a"
 2490              		.align	2
 2491              		.type	rt_test_sequence_008_array, %object
 2492              		.size	rt_test_sequence_008_array, 28
 2493              	rt_test_sequence_008_array:
 2494 0000 00000000 		.word	rt_test_008_001
 2495 0004 00000000 		.word	rt_test_008_004
 2496 0008 00000000 		.word	rt_test_008_005
 2497 000c 00000000 		.word	rt_test_008_007
 2498 0010 00000000 		.word	rt_test_008_008
 2499 0014 00000000 		.word	rt_test_008_009
 2500 0018 00000000 		.word	0
 2501              		.text
 2502              	.Letext0:
 2503              		.file 7 "c:\\chibistudio\\tools\\gnu tools arm embedded\\11.3 2022.08\\lib\\gcc\\arm-none-eabi\\11
 2504              		.file 8 "c:\\chibistudio\\tools\\gnu tools arm embedded\\11.3 2022.08\\arm-none-eabi\\include\\mac
 2505              		.file 9 "c:\\chibistudio\\tools\\gnu tools arm embedded\\11.3 2022.08\\arm-none-eabi\\include\\sys
 2506              		.file 10 "../../../os/common/ports/ARM-common/chtypes.h"
 2507              		.file 11 "../../../os/rt/include/chearly.h"
 2508              		.file 12 "../../../os/rt/include/chobjects.h"
 2509              		.file 13 "../../../os/rt/include/chrfcu.h"
 2510              		.file 14 "../../../os/rt/include/chdebug.h"
 2511              		.file 15 "../../../os/rt/include/chtime.h"
 2512              		.file 16 "../../../os/rt/include/chtrace.h"
 2513              		.file 17 "../../../os/rt/include/chsem.h"
 2514              		.file 18 "../../../os/rt/include/chmtx.h"
 2515              		.file 19 "../../../os/rt/include/chcond.h"
 2516              		.file 20 "../../../os/hal/include/hal_streams.h"
 2517              		.file 21 "../../../os/test/include/ch_test.h"
 2518              		.file 22 "../../../test/rt/source/test/rt_test_sequence_008.h"
ARM GAS  C:\Users\DEVELO~1\AppData\Local\Temp\ccHNMg6f.s 			page 46


 2519              		.file 23 "../../../test/rt/source/test/rt_test_root.h"
 2520              		.file 24 "../../../os/rt/include/chschd.h"