ARM GAS  C:\Users\DEVELO~1\AppData\Local\Temp\cc63tyye.s 			page 1


   1              		.cpu cortex-m7
   2              		.arch armv7e-m
   3              		.fpu softvfp
   4              		.eabi_attribute 20, 1
   5              		.eabi_attribute 21, 1
   6              		.eabi_attribute 23, 3
   7              		.eabi_attribute 24, 1
   8              		.eabi_attribute 25, 1
   9              		.eabi_attribute 26, 1
  10              		.eabi_attribute 30, 2
  11              		.eabi_attribute 34, 1
  12              		.eabi_attribute 18, 4
  13              		.file	"rt_test_sequence_011.c"
  14              		.text
  15              	.Ltext0:
  16              		.cfi_sections	.debug_frame
  17              		.section	.rodata.rt_test_011_002_execute.str1.4,"aMS",%progbits,1
  18              		.align	2
  19              	.LC0:
  20 0000 64796E31 		.ascii	"dyn1\000"
  20      00
  21 0005 000000   		.align	2
  22              	.LC1:
  23 0008 4100     		.ascii	"A\000"
  24 000a 0000     		.align	2
  25              	.LC2:
  26 000c 64796E32 		.ascii	"dyn2\000"
  26      00
  27 0011 000000   		.align	2
  28              	.LC3:
  29 0014 4200     		.ascii	"B\000"
  30 0016 0000     		.align	2
  31              	.LC4:
  32 0018 64796E33 		.ascii	"dyn3\000"
  32      00
  33 001d 000000   		.align	2
  34              	.LC5:
  35 0020 4300     		.ascii	"C\000"
  36 0022 0000     		.align	2
  37              	.LC6:
  38 0024 64796E34 		.ascii	"dyn4\000"
  38      00
  39 0029 000000   		.align	2
  40              	.LC7:
  41 002c 4400     		.ascii	"D\000"
  42 002e 0000     		.align	2
  43              	.LC8:
  44 0030 64796E35 		.ascii	"dyn5\000"
  44      00
  45 0035 000000   		.align	2
  46              	.LC9:
  47 0038 4500     		.ascii	"E\000"
  48 003a 0000     		.align	2
  49              	.LC10:
  50 003c 74687265 		.ascii	"thread creation failed\000"
  50      61642063 
  50      72656174 
ARM GAS  C:\Users\DEVELO~1\AppData\Local\Temp\cc63tyye.s 			page 2


  50      696F6E20 
  50      6661696C 
  51 0053 00       		.align	2
  52              	.LC11:
  53 0054 74687265 		.ascii	"thread creation not failed\000"
  53      61642063 
  53      72656174 
  53      696F6E20 
  53      6E6F7420 
  54 006f 00       		.align	2
  55              	.LC12:
  56 0070 696E7661 		.ascii	"invalid sequence\000"
  56      6C696420 
  56      73657175 
  56      656E6365 
  56      00
  57 0081 000000   		.align	2
  58              	.LC13:
  59 0084 41424344 		.ascii	"ABCD\000"
  59      00
  60 0089 000000   		.align	2
  61              	.LC14:
  62 008c 706F6F6C 		.ascii	"pool list empty\000"
  62      206C6973 
  62      7420656D 
  62      70747900 
  63              		.align	2
  64              	.LC15:
  65 009c 706F6F6C 		.ascii	"pool list not empty\000"
  65      206C6973 
  65      74206E6F 
  65      7420656D 
  65      70747900 
  66              		.section	.text.rt_test_011_002_execute,"ax",%progbits
  67              		.align	1
  68              		.p2align 4,,15
  69              		.syntax unified
  70              		.thumb
  71              		.thumb_func
  72              		.type	rt_test_011_002_execute, %function
  73              	rt_test_011_002_execute:
  74              	.LFB440:
  75              		.file 1 "../../../test/rt/source/test/rt_test_sequence_011.c"
  76              		.loc 1 209 43 view -0
  77              		.cfi_startproc
  78              		@ args = 0, pretend = 0, frame = 0
  79              		@ frame_needed = 0, uses_anonymous_args = 0
  80              		.loc 1 210 3 view .LVU1
  81              		.loc 1 211 3 view .LVU2
  82              		.loc 1 214 3 view .LVU3
  83              		.loc 1 209 43 is_stmt 0 view .LVU4
  84 0000 F0B5     		push	{r4, r5, r6, r7, lr}
  85              		.cfi_def_cfa_offset 20
  86              		.cfi_offset 4, -20
  87              		.cfi_offset 5, -16
  88              		.cfi_offset 6, -12
  89              		.cfi_offset 7, -8
ARM GAS  C:\Users\DEVELO~1\AppData\Local\Temp\cc63tyye.s 			page 3


  90              		.cfi_offset 14, -4
  91 0002 444C     		ldr	r4, .L16
  92              		.loc 1 214 3 view .LVU5
  93 0004 0123     		movs	r3, #1
  94 0006 444D     		ldr	r5, .L16+4
  95              		.loc 1 209 43 view .LVU6
  96 0008 83B0     		sub	sp, sp, #12
  97              		.cfi_def_cfa_offset 32
  98              		.loc 1 217 7 view .LVU7
  99 000a 444F     		ldr	r7, .L16+8
 100 000c 04F11006 		add	r6, r4, #16
 101              		.loc 1 214 3 view .LVU8
 102 0010 2B60     		str	r3, [r5]
 103              		.loc 1 216 5 is_stmt 1 view .LVU9
 104              	.LVL0:
 105              		.loc 1 216 19 view .LVU10
 106              	.L2:
 107              		.loc 1 217 7 discriminator 3 view .LVU11
 108 0012 54F8041B 		ldr	r1, [r4], #4
 109 0016 3846     		mov	r0, r7
 110 0018 FFF7FEFF 		bl	chPoolFree
 111              	.LVL1:
 112              		.loc 1 216 25 discriminator 3 view .LVU12
 113              		.loc 1 216 19 discriminator 3 view .LVU13
 114 001c A642     		cmp	r6, r4
 115 001e F8D1     		bne	.L2
 116              		.loc 1 219 3 view .LVU14
 117              		.loc 1 219 19 view .LVU15
 118              		.loc 1 222 3 view .LVU16
 119              		.loc 1 224 5 view .LVU17
 120              	.LBB14:
 121              	.LBI14:
 122              		.file 2 "../../../os/rt/include/chthreads.h"
 123              		.loc 2 354 23 view .LVU18
 124              	.LBB15:
 125              		.loc 2 356 3 view .LVU19
 126              	.LBB16:
 127              	.LBI16:
 128              		.loc 2 341 25 view .LVU20
 129              	.LBB17:
 130              		.loc 2 343 3 view .LVU21
 131              		.loc 2 343 10 is_stmt 0 view .LVU22
 132 0020 3F49     		ldr	r1, .L16+12
 133              	.LBE17:
 134              	.LBE16:
 135              	.LBE15:
 136              	.LBE14:
 137              		.loc 1 229 3 view .LVU23
 138 0022 0320     		movs	r0, #3
 139              		.loc 1 231 18 view .LVU24
 140 0024 3F4A     		ldr	r2, .L16+16
 141              	.LBB20:
 142              	.LBB18:
 143              		.loc 2 356 37 view .LVU25
 144 0026 C968     		ldr	r1, [r1, #12]
 145              	.LBE18:
 146              	.LBE20:
ARM GAS  C:\Users\DEVELO~1\AppData\Local\Temp\cc63tyye.s 			page 4


 147              		.loc 1 231 18 view .LVU26
 148 0028 3F4B     		ldr	r3, .L16+20
 149              	.LBB21:
 150              	.LBB19:
 151              		.loc 2 356 37 view .LVU27
 152 002a 8E68     		ldr	r6, [r1, #8]
 153              	.LVL2:
 154              		.loc 2 356 37 view .LVU28
 155              	.LBE19:
 156              	.LBE21:
 157              		.loc 1 226 3 is_stmt 1 view .LVU29
 158              		.loc 1 226 19 view .LVU30
 159              		.loc 1 229 3 view .LVU31
 160              		.loc 1 231 5 view .LVU32
 161              		.loc 1 229 3 is_stmt 0 view .LVU33
 162 002c 2860     		str	r0, [r5]
 163              		.loc 1 231 18 view .LVU34
 164 002e 3F49     		ldr	r1, .L16+24
 165 0030 0092     		str	r2, [sp]
 166 0032 721E     		subs	r2, r6, #1
 167 0034 3948     		ldr	r0, .L16+8
 168 0036 FFF7FEFF 		bl	chThdCreateFromMemoryPool
 169              	.LVL3:
 170              		.loc 1 231 16 view .LVU35
 171 003a 3D4C     		ldr	r4, .L16+28
 172              		.loc 1 232 18 view .LVU36
 173 003c 3D4B     		ldr	r3, .L16+32
 174 003e B21E     		subs	r2, r6, #2
 175 0040 3D49     		ldr	r1, .L16+36
 176 0042 0093     		str	r3, [sp]
 177 0044 384B     		ldr	r3, .L16+20
 178              		.loc 1 231 16 view .LVU37
 179 0046 2060     		str	r0, [r4]
 180              		.loc 1 232 5 is_stmt 1 view .LVU38
 181              		.loc 1 232 18 is_stmt 0 view .LVU39
 182 0048 3448     		ldr	r0, .L16+8
 183 004a FFF7FEFF 		bl	chThdCreateFromMemoryPool
 184              	.LVL4:
 185              		.loc 1 233 18 view .LVU40
 186 004e 3B4B     		ldr	r3, .L16+40
 187              		.loc 1 232 16 view .LVU41
 188 0050 6060     		str	r0, [r4, #4]
 189              		.loc 1 233 5 is_stmt 1 view .LVU42
 190              		.loc 1 233 18 is_stmt 0 view .LVU43
 191 0052 F21E     		subs	r2, r6, #3
 192 0054 3A49     		ldr	r1, .L16+44
 193 0056 0093     		str	r3, [sp]
 194 0058 3048     		ldr	r0, .L16+8
 195 005a 334B     		ldr	r3, .L16+20
 196 005c FFF7FEFF 		bl	chThdCreateFromMemoryPool
 197              	.LVL5:
 198              		.loc 1 234 18 view .LVU44
 199 0060 384B     		ldr	r3, .L16+48
 200              		.loc 1 233 16 view .LVU45
 201 0062 A060     		str	r0, [r4, #8]
 202              		.loc 1 234 5 is_stmt 1 view .LVU46
 203              		.loc 1 234 18 is_stmt 0 view .LVU47
ARM GAS  C:\Users\DEVELO~1\AppData\Local\Temp\cc63tyye.s 			page 5


 204 0064 321F     		subs	r2, r6, #4
 205 0066 3849     		ldr	r1, .L16+52
 206 0068 0093     		str	r3, [sp]
 207 006a 2C48     		ldr	r0, .L16+8
 208 006c 2E4B     		ldr	r3, .L16+20
 209 006e FFF7FEFF 		bl	chThdCreateFromMemoryPool
 210              	.LVL6:
 211              		.loc 1 235 18 view .LVU48
 212 0072 364B     		ldr	r3, .L16+56
 213              		.loc 1 234 16 view .LVU49
 214 0074 E060     		str	r0, [r4, #12]
 215              		.loc 1 235 5 is_stmt 1 view .LVU50
 216              		.loc 1 235 18 is_stmt 0 view .LVU51
 217 0076 721F     		subs	r2, r6, #5
 218 0078 0093     		str	r3, [sp]
 219 007a 3549     		ldr	r1, .L16+60
 220 007c 2A4B     		ldr	r3, .L16+20
 221 007e 2748     		ldr	r0, .L16+8
 222 0080 FFF7FEFF 		bl	chThdCreateFromMemoryPool
 223              	.LVL7:
 224              		.loc 1 240 3 view .LVU52
 225 0084 0422     		movs	r2, #4
 226              		.loc 1 242 5 view .LVU53
 227 0086 2368     		ldr	r3, [r4]
 228              		.loc 1 235 16 view .LVU54
 229 0088 2061     		str	r0, [r4, #16]
 230              		.loc 1 237 3 is_stmt 1 view .LVU55
 231              		.loc 1 237 19 view .LVU56
 232              		.loc 1 240 3 view .LVU57
 233 008a 2A60     		str	r2, [r5]
 234              		.loc 1 242 5 view .LVU58
 235 008c 002B     		cmp	r3, #0
 236 008e 3ED0     		beq	.L8
 237              		.loc 1 242 5 is_stmt 0 discriminator 1 view .LVU59
 238 0090 6068     		ldr	r0, [r4, #4]
 239 0092 28B1     		cbz	r0, .L3
 240              		.loc 1 242 5 discriminator 3 view .LVU60
 241 0094 A068     		ldr	r0, [r4, #8]
 242 0096 18B1     		cbz	r0, .L3
 243              		.loc 1 242 5 discriminator 5 view .LVU61
 244 0098 E068     		ldr	r0, [r4, #12]
 245 009a 0038     		subs	r0, r0, #0
 246 009c 18BF     		it	ne
 247 009e 0120     		movne	r0, #1
 248              	.L3:
 249              		.loc 1 242 5 discriminator 10 view .LVU62
 250 00a0 2C49     		ldr	r1, .L16+64
 251 00a2 FFF7FEFF 		bl	__test_assert
 252              	.LVL8:
 253 00a6 08B1     		cbz	r0, .L15
 254              	.LVL9:
 255              	.L1:
 256              		.loc 1 269 1 view .LVU63
 257 00a8 03B0     		add	sp, sp, #12
 258              		.cfi_remember_state
 259              		.cfi_def_cfa_offset 20
 260              		@ sp needed
ARM GAS  C:\Users\DEVELO~1\AppData\Local\Temp\cc63tyye.s 			page 6


 261 00aa F0BD     		pop	{r4, r5, r6, r7, pc}
 262              	.LVL10:
 263              	.L15:
 264              		.cfi_restore_state
 265              		.loc 1 246 42 is_stmt 1 view .LVU64
 266              		.loc 1 247 5 view .LVU65
 267 00ac 2069     		ldr	r0, [r4, #16]
 268 00ae 2A49     		ldr	r1, .L16+68
 269 00b0 B0FA80F0 		clz	r0, r0
 270 00b4 4009     		lsrs	r0, r0, #5
 271 00b6 FFF7FEFF 		bl	__test_assert
 272              	.LVL11:
 273 00ba 0028     		cmp	r0, #0
 274 00bc F4D1     		bne	.L1
 275              		.loc 1 248 46 view .LVU66
 276              		.loc 1 250 3 view .LVU67
 277              		.loc 1 250 19 view .LVU68
 278              		.loc 1 254 3 view .LVU69
 279 00be 0523     		movs	r3, #5
 280 00c0 2B60     		str	r3, [r5]
 281              		.loc 1 256 5 view .LVU70
 282 00c2 FFF7FEFF 		bl	test_wait_threads
 283              	.LVL12:
 284              		.loc 1 257 5 view .LVU71
 285 00c6 2549     		ldr	r1, .L16+72
 286 00c8 2548     		ldr	r0, .L16+76
 287 00ca FFF7FEFF 		bl	__test_assert_sequence
 288              	.LVL13:
 289 00ce 0028     		cmp	r0, #0
 290 00d0 EAD1     		bne	.L1
 291              		.loc 1 257 53 discriminator 2 view .LVU72
 292              		.loc 1 259 3 discriminator 2 view .LVU73
 293              		.loc 1 259 19 discriminator 2 view .LVU74
 294              		.loc 1 262 3 discriminator 2 view .LVU75
 295 00d2 0623     		movs	r3, #6
 296 00d4 0424     		movs	r4, #4
 297              		.loc 1 265 7 is_stmt 0 discriminator 2 view .LVU76
 298 00d6 114F     		ldr	r7, .L16+8
 299 00d8 224E     		ldr	r6, .L16+80
 300              	.LVL14:
 301              		.loc 1 262 3 discriminator 2 view .LVU77
 302 00da 2B60     		str	r3, [r5]
 303              		.loc 1 264 5 is_stmt 1 discriminator 2 view .LVU78
 304              	.LVL15:
 305              		.loc 1 264 19 discriminator 2 view .LVU79
 306              	.L7:
 307              		.loc 1 265 7 view .LVU80
 308 00dc 3846     		mov	r0, r7
 309 00de FFF7FEFF 		bl	chPoolAlloc
 310              	.LVL16:
 311 00e2 0038     		subs	r0, r0, #0
 312 00e4 3146     		mov	r1, r6
 313 00e6 18BF     		it	ne
 314 00e8 0120     		movne	r0, #1
 315 00ea FFF7FEFF 		bl	__test_assert
 316              	.LVL17:
 317              		.loc 1 264 25 view .LVU81
ARM GAS  C:\Users\DEVELO~1\AppData\Local\Temp\cc63tyye.s 			page 7


 318              		.loc 1 264 19 view .LVU82
 319              		.loc 1 265 7 is_stmt 0 view .LVU83
 320 00ee 0028     		cmp	r0, #0
 321 00f0 DAD1     		bne	.L1
 322              		.loc 1 264 19 discriminator 2 view .LVU84
 323 00f2 013C     		subs	r4, r4, #1
 324              	.LVL18:
 325              		.loc 1 264 19 discriminator 2 view .LVU85
 326 00f4 F2D1     		bne	.L7
 327              		.loc 1 265 64 is_stmt 1 view .LVU86
 328              		.loc 1 266 5 view .LVU87
 329 00f6 0948     		ldr	r0, .L16+8
 330 00f8 FFF7FEFF 		bl	chPoolAlloc
 331              	.LVL19:
 332 00fc B0FA80F0 		clz	r0, r0
 333 0100 1949     		ldr	r1, .L16+84
 334 0102 4009     		lsrs	r0, r0, #5
 335              		.loc 1 269 1 is_stmt 0 view .LVU88
 336 0104 03B0     		add	sp, sp, #12
 337              		.cfi_remember_state
 338              		.cfi_def_cfa_offset 20
 339              		@ sp needed
 340 0106 BDE8F040 		pop	{r4, r5, r6, r7, lr}
 341              		.cfi_restore 14
 342              		.cfi_restore 7
 343              		.cfi_restore 6
 344              		.cfi_restore 5
 345              		.cfi_restore 4
 346              		.cfi_def_cfa_offset 0
 347              	.LVL20:
 348              		.loc 1 266 5 view .LVU89
 349 010a FFF7FEBF 		b	__test_assert
 350              	.LVL21:
 351              	.L8:
 352              		.cfi_restore_state
 353              		.loc 1 266 5 view .LVU90
 354 010e 1846     		mov	r0, r3
 355 0110 C6E7     		b	.L3
 356              	.L17:
 357 0112 00BF     		.align	2
 358              	.L16:
 359 0114 00000000 		.word	wa
 360 0118 00000000 		.word	chtest
 361 011c 00000000 		.word	.LANCHOR0
 362 0120 00000000 		.word	ch0
 363 0124 08000000 		.word	.LC1
 364 0128 00000000 		.word	dyn_thread1
 365 012c 00000000 		.word	.LC0
 366 0130 00000000 		.word	threads
 367 0134 14000000 		.word	.LC3
 368 0138 0C000000 		.word	.LC2
 369 013c 20000000 		.word	.LC5
 370 0140 18000000 		.word	.LC4
 371 0144 2C000000 		.word	.LC7
 372 0148 24000000 		.word	.LC6
 373 014c 38000000 		.word	.LC9
 374 0150 30000000 		.word	.LC8
ARM GAS  C:\Users\DEVELO~1\AppData\Local\Temp\cc63tyye.s 			page 8


 375 0154 3C000000 		.word	.LC10
 376 0158 54000000 		.word	.LC11
 377 015c 70000000 		.word	.LC12
 378 0160 84000000 		.word	.LC13
 379 0164 8C000000 		.word	.LC14
 380 0168 9C000000 		.word	.LC15
 381              		.cfi_endproc
 382              	.LFE440:
 383              		.size	rt_test_011_002_execute, .-rt_test_011_002_execute
 384              		.section	.text.dyn_thread1,"ax",%progbits
 385              		.align	1
 386              		.p2align 4,,15
 387              		.syntax unified
 388              		.thumb
 389              		.thumb_func
 390              		.type	dyn_thread1, %function
 391              	dyn_thread1:
 392              	.LVL22:
 393              	.LFB436:
 394              		.loc 1 57 37 is_stmt 1 view -0
 395              		.cfi_startproc
 396              		@ args = 0, pretend = 0, frame = 0
 397              		@ frame_needed = 0, uses_anonymous_args = 0
 398              		@ link register save eliminated.
 399              		.loc 1 59 3 view .LVU92
 400 0000 0078     		ldrb	r0, [r0]	@ zero_extendqisi2
 401              	.LVL23:
 402              		.loc 1 59 3 is_stmt 0 view .LVU93
 403 0002 FFF7FEBF 		b	test_emit_token
 404              	.LVL24:
 405              		.cfi_endproc
 406              	.LFE436:
 407              		.size	dyn_thread1, .-dyn_thread1
 408 0006 00BF     		.section	.text.rt_test_011_002_setup,"ax",%progbits
 409              		.align	1
 410              		.p2align 4,,15
 411              		.syntax unified
 412              		.thumb
 413              		.thumb_func
 414              		.type	rt_test_011_002_setup, %function
 415              	rt_test_011_002_setup:
 416              	.LFB439:
 417              		.loc 1 205 41 is_stmt 1 view -0
 418              		.cfi_startproc
 419              		@ args = 0, pretend = 0, frame = 0
 420              		@ frame_needed = 0, uses_anonymous_args = 0
 421              		@ link register save eliminated.
 422              		.loc 1 206 3 view .LVU95
 423              	.LVL25:
 424              	.LBB22:
 425              	.LBI22:
 426              		.file 3 "../../../os/oslib/include/chmempools.h"
 427              		.loc 3 189 20 view .LVU96
 428              	.LBB23:
 429              		.loc 3 193 3 view .LVU97
 430 0000 0023     		movs	r3, #0
 431 0002 0422     		movs	r2, #4
ARM GAS  C:\Users\DEVELO~1\AppData\Local\Temp\cc63tyye.s 			page 9


 432 0004 4FF4D871 		mov	r1, #432
 433 0008 0148     		ldr	r0, .L20
 434 000a FFF7FEBF 		b	chPoolObjectInitAligned
 435              	.LVL26:
 436              	.L21:
 437 000e 00BF     		.align	2
 438              	.L20:
 439 0010 00000000 		.word	.LANCHOR0
 440              	.LBE23:
 441              	.LBE22:
 442              		.cfi_endproc
 443              	.LFE439:
 444              		.size	rt_test_011_002_setup, .-rt_test_011_002_setup
 445              		.section	.rodata.rt_test_011_001_execute.str1.4,"aMS",%progbits,1
 446              		.align	2
 447              	.LC16:
 448 0000 68656170 		.ascii	"heap fragmented\000"
 448      20667261 
 448      676D656E 
 448      74656400 
 449              		.align	2
 450              	.LC17:
 451 0010 414200   		.ascii	"AB\000"
 452 0013 00       		.align	2
 453              	.LC18:
 454 0014 66726167 		.ascii	"fragmentation changed\000"
 454      6D656E74 
 454      6174696F 
 454      6E206368 
 454      616E6765 
 455 002a 0000     		.align	2
 456              	.LC19:
 457 002c 746F7461 		.ascii	"total free space changed\000"
 457      6C206672 
 457      65652073 
 457      70616365 
 457      20636861 
 458 0045 000000   		.align	2
 459              	.LC20:
 460 0048 6C617267 		.ascii	"largest fragment size changed\000"
 460      65737420 
 460      66726167 
 460      6D656E74 
 460      2073697A 
 461              		.section	.text.rt_test_011_001_execute,"ax",%progbits
 462              		.align	1
 463              		.p2align 4,,15
 464              		.syntax unified
 465              		.thumb
 466              		.thumb_func
 467              		.type	rt_test_011_001_execute, %function
 468              	rt_test_011_001_execute:
 469              	.LFB438:
 470              		.loc 1 98 43 view -0
 471              		.cfi_startproc
 472              		@ args = 0, pretend = 0, frame = 16
 473              		@ frame_needed = 0, uses_anonymous_args = 0
ARM GAS  C:\Users\DEVELO~1\AppData\Local\Temp\cc63tyye.s 			page 10


 474              		.loc 1 99 3 view .LVU99
 475              		.loc 1 100 3 view .LVU100
 476              		.loc 1 101 3 view .LVU101
 477              		.loc 1 104 3 view .LVU102
 478              		.loc 1 106 5 view .LVU103
 479              	.LBB24:
 480              	.LBI24:
 481              		.loc 2 354 23 view .LVU104
 482              	.LBB25:
 483              		.loc 2 356 3 view .LVU105
 484              	.LBB26:
 485              	.LBI26:
 486              		.loc 2 341 25 view .LVU106
 487              	.LBB27:
 488              		.loc 2 343 3 view .LVU107
 489              		.loc 2 343 10 is_stmt 0 view .LVU108
 490 0000 474B     		ldr	r3, .L28
 491              	.LBE27:
 492              	.LBE26:
 493              	.LBE25:
 494              	.LBE24:
 495              		.loc 1 111 3 view .LVU109
 496 0002 0220     		movs	r0, #2
 497              		.loc 1 98 43 view .LVU110
 498 0004 2DE9F041 		push	{r4, r5, r6, r7, r8, lr}
 499              		.cfi_def_cfa_offset 24
 500              		.cfi_offset 4, -24
 501              		.cfi_offset 5, -20
 502              		.cfi_offset 6, -16
 503              		.cfi_offset 7, -12
 504              		.cfi_offset 8, -8
 505              		.cfi_offset 14, -4
 506              		.loc 1 111 3 view .LVU111
 507 0008 464D     		ldr	r5, .L28+4
 508              		.loc 1 98 43 view .LVU112
 509 000a 86B0     		sub	sp, sp, #24
 510              		.cfi_def_cfa_offset 48
 511              	.LBB30:
 512              	.LBB28:
 513              		.loc 2 356 37 view .LVU113
 514 000c DB68     		ldr	r3, [r3, #12]
 515              	.LBE28:
 516              	.LBE30:
 517              		.loc 1 113 10 view .LVU114
 518 000e 02A9     		add	r1, sp, #8
 519              		.loc 1 111 3 view .LVU115
 520 0010 2860     		str	r0, [r5]
 521              		.loc 1 113 10 view .LVU116
 522 0012 03AA     		add	r2, sp, #12
 523 0014 4448     		ldr	r0, .L28+8
 524              	.LBB31:
 525              	.LBB29:
 526              		.loc 2 356 37 view .LVU117
 527 0016 9E68     		ldr	r6, [r3, #8]
 528              	.LVL27:
 529              		.loc 2 356 37 view .LVU118
 530              	.LBE29:
ARM GAS  C:\Users\DEVELO~1\AppData\Local\Temp\cc63tyye.s 			page 11


 531              	.LBE31:
 532              		.loc 1 108 3 is_stmt 1 view .LVU119
 533              		.loc 1 108 19 view .LVU120
 534              		.loc 1 111 3 view .LVU121
 535              		.loc 1 113 5 view .LVU122
 536              		.loc 1 113 10 is_stmt 0 view .LVU123
 537 0018 FFF7FEFF 		bl	chHeapStatus
 538              	.LVL28:
 539 001c 0446     		mov	r4, r0
 540              	.LVL29:
 541              		.loc 1 114 5 is_stmt 1 view .LVU124
 542 001e A0F10100 		sub	r0, #1
 543              	.LVL30:
 544              		.loc 1 114 5 is_stmt 0 view .LVU125
 545 0022 4249     		ldr	r1, .L28+12
 546 0024 B0FA80F0 		clz	r0, r0
 547 0028 4009     		lsrs	r0, r0, #5
 548 002a FFF7FEFF 		bl	__test_assert
 549              	.LVL31:
 550 002e 10B1     		cbz	r0, .L27
 551              	.L22:
 552              		.loc 1 169 1 view .LVU126
 553 0030 06B0     		add	sp, sp, #24
 554              		.cfi_remember_state
 555              		.cfi_def_cfa_offset 24
 556              		@ sp needed
 557 0032 BDE8F081 		pop	{r4, r5, r6, r7, r8, pc}
 558              	.LVL32:
 559              	.L27:
 560              		.cfi_restore_state
 561              		.loc 1 114 44 is_stmt 1 discriminator 2 view .LVU127
 562              		.loc 1 116 3 discriminator 2 view .LVU128
 563              		.loc 1 116 19 discriminator 2 view .LVU129
 564              		.loc 1 119 3 discriminator 2 view .LVU130
 565              		.loc 1 121 18 is_stmt 0 discriminator 2 view .LVU131
 566 0036 3E4A     		ldr	r2, .L28+16
 567              		.loc 1 119 3 discriminator 2 view .LVU132
 568 0038 0323     		movs	r3, #3
 569              		.loc 1 121 18 discriminator 2 view .LVU133
 570 003a DFF8F880 		ldr	r8, .L28+20
 571 003e 4FF4D871 		mov	r1, #432
 572              		.loc 1 121 16 discriminator 2 view .LVU134
 573 0042 3D4F     		ldr	r7, .L28+24
 574              		.loc 1 121 18 discriminator 2 view .LVU135
 575 0044 0192     		str	r2, [sp, #4]
 576              		.loc 1 119 3 discriminator 2 view .LVU136
 577 0046 2B60     		str	r3, [r5]
 578              		.loc 1 121 5 is_stmt 1 discriminator 2 view .LVU137
 579              		.loc 1 121 18 is_stmt 0 discriminator 2 view .LVU138
 580 0048 731E     		subs	r3, r6, #1
 581 004a 3C4A     		ldr	r2, .L28+28
 582 004c 3648     		ldr	r0, .L28+8
 583 004e CDF80080 		str	r8, [sp]
 584 0052 FFF7FEFF 		bl	chThdCreateFromHeap
 585              	.LVL33:
 586              		.loc 1 121 16 discriminator 2 view .LVU139
 587 0056 3860     		str	r0, [r7]
ARM GAS  C:\Users\DEVELO~1\AppData\Local\Temp\cc63tyye.s 			page 12


 588              		.loc 1 125 5 is_stmt 1 discriminator 2 view .LVU140
 589 0058 0038     		subs	r0, r0, #0
 590 005a 3949     		ldr	r1, .L28+32
 591 005c 18BF     		it	ne
 592 005e 0120     		movne	r0, #1
 593 0060 FFF7FEFF 		bl	__test_assert
 594              	.LVL34:
 595 0064 0028     		cmp	r0, #0
 596 0066 E3D1     		bne	.L22
 597              		.loc 1 125 62 discriminator 2 view .LVU141
 598              		.loc 1 127 3 discriminator 2 view .LVU142
 599              		.loc 1 127 19 discriminator 2 view .LVU143
 600              		.loc 1 130 3 discriminator 2 view .LVU144
 601              		.loc 1 132 18 is_stmt 0 discriminator 2 view .LVU145
 602 0068 364B     		ldr	r3, .L28+36
 603 006a 4FF4D871 		mov	r1, #432
 604 006e 364A     		ldr	r2, .L28+40
 605 0070 0193     		str	r3, [sp, #4]
 606              		.loc 1 130 3 discriminator 2 view .LVU146
 607 0072 0423     		movs	r3, #4
 608              		.loc 1 132 18 discriminator 2 view .LVU147
 609 0074 2C48     		ldr	r0, .L28+8
 610              		.loc 1 130 3 discriminator 2 view .LVU148
 611 0076 2B60     		str	r3, [r5]
 612              		.loc 1 132 5 is_stmt 1 discriminator 2 view .LVU149
 613              		.loc 1 132 18 is_stmt 0 discriminator 2 view .LVU150
 614 0078 B31E     		subs	r3, r6, #2
 615 007a CDF80080 		str	r8, [sp]
 616 007e FFF7FEFF 		bl	chThdCreateFromHeap
 617              	.LVL35:
 618              		.loc 1 132 16 discriminator 2 view .LVU151
 619 0082 7860     		str	r0, [r7, #4]
 620              		.loc 1 136 5 is_stmt 1 discriminator 2 view .LVU152
 621 0084 0038     		subs	r0, r0, #0
 622 0086 2E49     		ldr	r1, .L28+32
 623 0088 18BF     		it	ne
 624 008a 0120     		movne	r0, #1
 625 008c FFF7FEFF 		bl	__test_assert
 626              	.LVL36:
 627 0090 0028     		cmp	r0, #0
 628 0092 CDD1     		bne	.L22
 629              		.loc 1 136 62 discriminator 2 view .LVU153
 630              		.loc 1 138 3 discriminator 2 view .LVU154
 631              		.loc 1 138 19 discriminator 2 view .LVU155
 632              		.loc 1 141 3 discriminator 2 view .LVU156
 633              		.loc 1 143 18 is_stmt 0 discriminator 2 view .LVU157
 634 0094 2D49     		ldr	r1, .L28+44
 635 0096 F31E     		subs	r3, r6, #3
 636 0098 2D4A     		ldr	r2, .L28+48
 637 009a 0191     		str	r1, [sp, #4]
 638              		.loc 1 141 3 discriminator 2 view .LVU158
 639 009c 0521     		movs	r1, #5
 640              		.loc 1 143 18 discriminator 2 view .LVU159
 641 009e 2248     		ldr	r0, .L28+8
 642              		.loc 1 141 3 discriminator 2 view .LVU160
 643 00a0 2960     		str	r1, [r5]
 644              		.loc 1 143 5 is_stmt 1 discriminator 2 view .LVU161
ARM GAS  C:\Users\DEVELO~1\AppData\Local\Temp\cc63tyye.s 			page 13


 645              		.loc 1 143 18 is_stmt 0 discriminator 2 view .LVU162
 646 00a2 4FF00041 		mov	r1, #-2147483648
 647 00a6 CDF80080 		str	r8, [sp]
 648 00aa FFF7FEFF 		bl	chThdCreateFromHeap
 649              	.LVL37:
 650              		.loc 1 143 16 discriminator 2 view .LVU163
 651 00ae B860     		str	r0, [r7, #8]
 652              		.loc 1 147 5 is_stmt 1 discriminator 2 view .LVU164
 653 00b0 B0FA80F0 		clz	r0, r0
 654 00b4 2749     		ldr	r1, .L28+52
 655 00b6 4009     		lsrs	r0, r0, #5
 656 00b8 FFF7FEFF 		bl	__test_assert
 657              	.LVL38:
 658 00bc 0028     		cmp	r0, #0
 659 00be B7D1     		bne	.L22
 660              		.loc 1 147 66 discriminator 2 view .LVU165
 661              		.loc 1 149 3 discriminator 2 view .LVU166
 662              		.loc 1 149 19 discriminator 2 view .LVU167
 663              		.loc 1 153 3 discriminator 2 view .LVU168
 664 00c0 0623     		movs	r3, #6
 665 00c2 2B60     		str	r3, [r5]
 666              		.loc 1 155 5 discriminator 2 view .LVU169
 667 00c4 FFF7FEFF 		bl	test_wait_threads
 668              	.LVL39:
 669              		.loc 1 156 5 discriminator 2 view .LVU170
 670 00c8 2349     		ldr	r1, .L28+56
 671 00ca 2448     		ldr	r0, .L28+60
 672 00cc FFF7FEFF 		bl	__test_assert_sequence
 673              	.LVL40:
 674 00d0 0028     		cmp	r0, #0
 675 00d2 ADD1     		bne	.L22
 676              		.loc 1 156 51 discriminator 2 view .LVU171
 677              		.loc 1 158 3 discriminator 2 view .LVU172
 678              		.loc 1 158 19 discriminator 2 view .LVU173
 679              		.loc 1 161 3 discriminator 2 view .LVU174
 680 00d4 0723     		movs	r3, #7
 681              		.loc 1 163 10 is_stmt 0 discriminator 2 view .LVU175
 682 00d6 04A9     		add	r1, sp, #16
 683 00d8 05AA     		add	r2, sp, #20
 684 00da 1348     		ldr	r0, .L28+8
 685              		.loc 1 161 3 discriminator 2 view .LVU176
 686 00dc 2B60     		str	r3, [r5]
 687              		.loc 1 163 5 is_stmt 1 discriminator 2 view .LVU177
 688              		.loc 1 163 10 is_stmt 0 discriminator 2 view .LVU178
 689 00de FFF7FEFF 		bl	chHeapStatus
 690              	.LVL41:
 691              		.loc 1 164 5 is_stmt 1 discriminator 2 view .LVU179
 692 00e2 201A     		subs	r0, r4, r0
 693              	.LVL42:
 694              		.loc 1 164 5 is_stmt 0 discriminator 2 view .LVU180
 695 00e4 1E49     		ldr	r1, .L28+64
 696 00e6 B0FA80F0 		clz	r0, r0
 697 00ea 4009     		lsrs	r0, r0, #5
 698 00ec FFF7FEFF 		bl	__test_assert
 699              	.LVL43:
 700 00f0 0028     		cmp	r0, #0
 701 00f2 9DD1     		bne	.L22
ARM GAS  C:\Users\DEVELO~1\AppData\Local\Temp\cc63tyye.s 			page 14


 702              		.loc 1 164 51 is_stmt 1 discriminator 2 view .LVU181
 703              		.loc 1 165 5 discriminator 2 view .LVU182
 704 00f4 0298     		ldr	r0, [sp, #8]
 705 00f6 049B     		ldr	r3, [sp, #16]
 706 00f8 1A49     		ldr	r1, .L28+68
 707 00fa C01A     		subs	r0, r0, r3
 708 00fc B0FA80F0 		clz	r0, r0
 709 0100 4009     		lsrs	r0, r0, #5
 710 0102 FFF7FEFF 		bl	__test_assert
 711              	.LVL44:
 712 0106 0028     		cmp	r0, #0
 713 0108 92D1     		bne	.L22
 714              		.loc 1 165 62 discriminator 2 view .LVU183
 715              		.loc 1 166 5 discriminator 2 view .LVU184
 716 010a 0398     		ldr	r0, [sp, #12]
 717 010c 059B     		ldr	r3, [sp, #20]
 718 010e 1649     		ldr	r1, .L28+72
 719 0110 C01A     		subs	r0, r0, r3
 720 0112 B0FA80F0 		clz	r0, r0
 721 0116 4009     		lsrs	r0, r0, #5
 722 0118 FFF7FEFF 		bl	__test_assert
 723              	.LVL45:
 724              		.loc 1 166 5 discriminator 2 view .LVU185
 725 011c 88E7     		b	.L22
 726              	.L29:
 727 011e 00BF     		.align	2
 728              	.L28:
 729 0120 00000000 		.word	ch0
 730 0124 00000000 		.word	chtest
 731 0128 00000000 		.word	.LANCHOR1
 732 012c 00000000 		.word	.LC16
 733 0130 08000000 		.word	.LC1
 734 0134 00000000 		.word	dyn_thread1
 735 0138 00000000 		.word	threads
 736 013c 00000000 		.word	.LC0
 737 0140 3C000000 		.word	.LC10
 738 0144 14000000 		.word	.LC3
 739 0148 0C000000 		.word	.LC2
 740 014c 20000000 		.word	.LC5
 741 0150 18000000 		.word	.LC4
 742 0154 54000000 		.word	.LC11
 743 0158 70000000 		.word	.LC12
 744 015c 10000000 		.word	.LC17
 745 0160 14000000 		.word	.LC18
 746 0164 2C000000 		.word	.LC19
 747 0168 48000000 		.word	.LC20
 748              		.cfi_endproc
 749              	.LFE438:
 750              		.size	rt_test_011_001_execute, .-rt_test_011_001_execute
 751              		.section	.text.rt_test_011_001_setup,"ax",%progbits
 752              		.align	1
 753              		.p2align 4,,15
 754              		.syntax unified
 755              		.thumb
 756              		.thumb_func
 757              		.type	rt_test_011_001_setup, %function
 758              	rt_test_011_001_setup:
ARM GAS  C:\Users\DEVELO~1\AppData\Local\Temp\cc63tyye.s 			page 15


 759              	.LFB437:
 760              		.loc 1 94 41 view -0
 761              		.cfi_startproc
 762              		@ args = 0, pretend = 0, frame = 0
 763              		@ frame_needed = 0, uses_anonymous_args = 0
 764              		@ link register save eliminated.
 765              		.loc 1 95 3 view .LVU187
 766 0000 4FF40762 		mov	r2, #2160
 767 0004 0149     		ldr	r1, .L31
 768 0006 0248     		ldr	r0, .L31+4
 769 0008 FFF7FEBF 		b	chHeapObjectInit
 770              	.LVL46:
 771              	.L32:
 772              		.align	2
 773              	.L31:
 774 000c 00000000 		.word	test_buffer
 775 0010 00000000 		.word	.LANCHOR1
 776              		.cfi_endproc
 777              	.LFE437:
 778              		.size	rt_test_011_001_setup, .-rt_test_011_001_setup
 779              		.global	rt_test_sequence_011
 780              		.section	.rodata.str1.4,"aMS",%progbits,1
 781              		.align	2
 782              	.LC21:
 783 0000 44796E61 		.ascii	"Dynamic threads\000"
 783      6D696320 
 783      74687265 
 783      61647300 
 784              		.global	rt_test_sequence_011_array
 785              		.align	2
 786              	.LC22:
 787 0010 54687265 		.ascii	"Threads creation from Memory Pool\000"
 787      61647320 
 787      63726561 
 787      74696F6E 
 787      2066726F 
 788 0032 0000     		.align	2
 789              	.LC23:
 790 0034 54687265 		.ascii	"Threads creation from Memory Heap\000"
 790      61647320 
 790      63726561 
 790      74696F6E 
 790      2066726F 
 791              		.section	.bss.heap1,"aw",%nobits
 792              		.align	2
 793              		.set	.LANCHOR1,. + 0
 794              		.type	heap1, %object
 795              		.size	heap1, 28
 796              	heap1:
 797 0000 00000000 		.space	28
 797      00000000 
 797      00000000 
 797      00000000 
 797      00000000 
 798              		.section	.bss.mp1,"aw",%nobits
 799              		.align	2
 800              		.set	.LANCHOR0,. + 0
ARM GAS  C:\Users\DEVELO~1\AppData\Local\Temp\cc63tyye.s 			page 16


 801              		.type	mp1, %object
 802              		.size	mp1, 16
 803              	mp1:
 804 0000 00000000 		.space	16
 804      00000000 
 804      00000000 
 804      00000000 
 805              		.section	.rodata.rt_test_011_001,"a"
 806              		.align	2
 807              		.type	rt_test_011_001, %object
 808              		.size	rt_test_011_001, 16
 809              	rt_test_011_001:
 810 0000 34000000 		.word	.LC23
 811 0004 00000000 		.word	rt_test_011_001_setup
 812 0008 00000000 		.word	0
 813 000c 00000000 		.word	rt_test_011_001_execute
 814              		.section	.rodata.rt_test_011_002,"a"
 815              		.align	2
 816              		.type	rt_test_011_002, %object
 817              		.size	rt_test_011_002, 16
 818              	rt_test_011_002:
 819 0000 10000000 		.word	.LC22
 820 0004 00000000 		.word	rt_test_011_002_setup
 821 0008 00000000 		.word	0
 822 000c 00000000 		.word	rt_test_011_002_execute
 823              		.section	.rodata.rt_test_sequence_011,"a"
 824              		.align	2
 825              		.type	rt_test_sequence_011, %object
 826              		.size	rt_test_sequence_011, 8
 827              	rt_test_sequence_011:
 828 0000 00000000 		.word	.LC21
 829 0004 00000000 		.word	rt_test_sequence_011_array
 830              		.section	.rodata.rt_test_sequence_011_array,"a"
 831              		.align	2
 832              		.type	rt_test_sequence_011_array, %object
 833              		.size	rt_test_sequence_011_array, 12
 834              	rt_test_sequence_011_array:
 835 0000 00000000 		.word	rt_test_011_001
 836 0004 00000000 		.word	rt_test_011_002
 837 0008 00000000 		.word	0
 838              		.text
 839              	.Letext0:
 840              		.file 4 "c:\\chibistudio\\tools\\gnu tools arm embedded\\11.3 2022.08\\lib\\gcc\\arm-none-eabi\\11
 841              		.file 5 "c:\\chibistudio\\tools\\gnu tools arm embedded\\11.3 2022.08\\arm-none-eabi\\include\\mac
 842              		.file 6 "c:\\chibistudio\\tools\\gnu tools arm embedded\\11.3 2022.08\\arm-none-eabi\\include\\sys
 843              		.file 7 "../../../os/common/ports/ARM-common/chtypes.h"
 844              		.file 8 "../../../os/rt/include/chearly.h"
 845              		.file 9 "../../../os/rt/include/chobjects.h"
 846              		.file 10 "../../../os/rt/include/chrfcu.h"
 847              		.file 11 "../../../os/rt/include/chdebug.h"
 848              		.file 12 "../../../os/rt/include/chtime.h"
 849              		.file 13 "../../../os/rt/include/chlists.h"
 850              		.file 14 "../../../os/rt/include/chtrace.h"
 851              		.file 15 "../../../os/common/ports/ARMv7-M/chcore.h"
 852              		.file 16 "../../../os/rt/include/chsem.h"
 853              		.file 17 "../../../os/rt/include/chmtx.h"
 854              		.file 18 "../../../os/oslib/include/chmemcore.h"
ARM GAS  C:\Users\DEVELO~1\AppData\Local\Temp\cc63tyye.s 			page 17


 855              		.file 19 "../../../os/oslib/include/chmemheaps.h"
 856              		.file 20 "../../../os/hal/include/hal_streams.h"
 857              		.file 21 "../../../os/test/include/ch_test.h"
 858              		.file 22 "../../../test/rt/source/test/rt_test_sequence_011.h"
 859              		.file 23 "../../../test/rt/source/test/rt_test_root.h"
 860              		.file 24 "../../../os/rt/include/chsys.h"
 861              		.file 25 "../../../os/rt/include/chdynamic.h"