ARM GAS  C:\Users\DEVELO~1\AppData\Local\Temp\ccYUktJG.s 			page 1


   1              		.cpu cortex-m7
   2              		.arch armv7e-m
   3              		.fpu softvfp
   4              		.eabi_attribute 20, 1
   5              		.eabi_attribute 21, 1
   6              		.eabi_attribute 23, 3
   7              		.eabi_attribute 24, 1
   8              		.eabi_attribute 25, 1
   9              		.eabi_attribute 26, 1
  10              		.eabi_attribute 30, 6
  11              		.eabi_attribute 34, 1
  12              		.eabi_attribute 18, 4
  13              		.file	"rt_test_sequence_004.c"
  14              		.text
  15              	.Ltext0:
  16              		.cfi_sections	.debug_frame
  17              		.section	.text.chTimeAddX,"ax",%progbits
  18              		.align	1
  19              		.syntax unified
  20              		.thumb
  21              		.thumb_func
  22              		.type	chTimeAddX, %function
  23              	chTimeAddX:
  24              	.LFB8:
  25              		.file 1 "../../../os/rt/include/chtime.h"
  26              		.loc 1 443 60
  27              		.cfi_startproc
  28              		@ args = 0, pretend = 0, frame = 8
  29              		@ frame_needed = 1, uses_anonymous_args = 0
  30              		@ link register save eliminated.
  31 0000 80B4     		push	{r7}
  32              		.cfi_def_cfa_offset 4
  33              		.cfi_offset 7, -4
  34 0002 83B0     		sub	sp, sp, #12
  35              		.cfi_def_cfa_offset 16
  36 0004 00AF     		add	r7, sp, #0
  37              		.cfi_def_cfa_register 7
  38 0006 7860     		str	r0, [r7, #4]
  39 0008 3960     		str	r1, [r7]
  40              		.loc 1 449 18
  41 000a 7A68     		ldr	r2, [r7, #4]
  42 000c 3B68     		ldr	r3, [r7]
  43 000e 1344     		add	r3, r3, r2
  44              		.loc 1 450 1
  45 0010 1846     		mov	r0, r3
  46 0012 0C37     		adds	r7, r7, #12
  47              		.cfi_def_cfa_offset 4
  48 0014 BD46     		mov	sp, r7
  49              		.cfi_def_cfa_register 13
  50              		@ sp needed
  51 0016 80BC     		pop	{r7}
  52              		.cfi_restore 7
  53              		.cfi_def_cfa_offset 0
  54 0018 7047     		bx	lr
  55              		.cfi_endproc
  56              	.LFE8:
  57              		.size	chTimeAddX, .-chTimeAddX
ARM GAS  C:\Users\DEVELO~1\AppData\Local\Temp\ccYUktJG.s 			page 2


  58              		.section	.text.chTimeIsInRangeX,"ax",%progbits
  59              		.align	1
  60              		.syntax unified
  61              		.thumb
  62              		.thumb_func
  63              		.type	chTimeIsInRangeX, %function
  64              	chTimeIsInRangeX:
  65              	.LFB10:
  66              		.loc 1 486 52
  67              		.cfi_startproc
  68              		@ args = 0, pretend = 0, frame = 16
  69              		@ frame_needed = 1, uses_anonymous_args = 0
  70              		@ link register save eliminated.
  71 0000 80B4     		push	{r7}
  72              		.cfi_def_cfa_offset 4
  73              		.cfi_offset 7, -4
  74 0002 85B0     		sub	sp, sp, #20
  75              		.cfi_def_cfa_offset 24
  76 0004 00AF     		add	r7, sp, #0
  77              		.cfi_def_cfa_register 7
  78 0006 F860     		str	r0, [r7, #12]
  79 0008 B960     		str	r1, [r7, #8]
  80 000a 7A60     		str	r2, [r7, #4]
  81              		.loc 1 488 17
  82 000c FA68     		ldr	r2, [r7, #12]
  83 000e BB68     		ldr	r3, [r7, #8]
  84 0010 D21A     		subs	r2, r2, r3
  85              		.loc 1 489 17
  86 0012 7968     		ldr	r1, [r7, #4]
  87 0014 BB68     		ldr	r3, [r7, #8]
  88 0016 CB1A     		subs	r3, r1, r3
  89              		.loc 1 488 10
  90 0018 9A42     		cmp	r2, r3
  91 001a 34BF     		ite	cc
  92 001c 0123     		movcc	r3, #1
  93 001e 0023     		movcs	r3, #0
  94 0020 DBB2     		uxtb	r3, r3
  95              		.loc 1 490 1
  96 0022 1846     		mov	r0, r3
  97 0024 1437     		adds	r7, r7, #20
  98              		.cfi_def_cfa_offset 4
  99 0026 BD46     		mov	sp, r7
 100              		.cfi_def_cfa_register 13
 101              		@ sp needed
 102 0028 80BC     		pop	{r7}
 103              		.cfi_restore 7
 104              		.cfi_def_cfa_offset 0
 105 002a 7047     		bx	lr
 106              		.cfi_endproc
 107              	.LFE10:
 108              		.size	chTimeIsInRangeX, .-chTimeIsInRangeX
 109              		.section	.text.port_timer_get_time,"ax",%progbits
 110              		.align	1
 111              		.syntax unified
 112              		.thumb
 113              		.thumb_func
 114              		.type	port_timer_get_time, %function
ARM GAS  C:\Users\DEVELO~1\AppData\Local\Temp\ccYUktJG.s 			page 3


 115              	port_timer_get_time:
 116              	.LFB196:
 117              		.file 2 "../../../os/hal/osal/rt-nil/chcore_timer.h"
 118              		.loc 2 111 51
 119              		.cfi_startproc
 120              		@ args = 0, pretend = 0, frame = 0
 121              		@ frame_needed = 1, uses_anonymous_args = 0
 122 0000 80B5     		push	{r7, lr}
 123              		.cfi_def_cfa_offset 8
 124              		.cfi_offset 7, -8
 125              		.cfi_offset 14, -4
 126 0002 00AF     		add	r7, sp, #0
 127              		.cfi_def_cfa_register 7
 128              		.loc 2 113 10
 129 0004 FFF7FEFF 		bl	stGetCounter
 130 0008 0346     		mov	r3, r0
 131              		.loc 2 114 1
 132 000a 1846     		mov	r0, r3
 133 000c 80BD     		pop	{r7, pc}
 134              		.cfi_endproc
 135              	.LFE196:
 136              		.size	port_timer_get_time, .-port_timer_get_time
 137              		.section	.text.chSysLock,"ax",%progbits
 138              		.align	1
 139              		.syntax unified
 140              		.thumb
 141              		.thumb_func
 142              		.type	chSysLock, %function
 143              	chSysLock:
 144              	.LFB202:
 145              		.file 3 "../../../os/rt/include/chsys.h"
 146              		.loc 3 407 36
 147              		.cfi_startproc
 148              		@ args = 0, pretend = 0, frame = 8
 149              		@ frame_needed = 1, uses_anonymous_args = 0
 150              		@ link register save eliminated.
 151 0000 80B4     		push	{r7}
 152              		.cfi_def_cfa_offset 4
 153              		.cfi_offset 7, -4
 154 0002 83B0     		sub	sp, sp, #12
 155              		.cfi_def_cfa_offset 16
 156 0004 00AF     		add	r7, sp, #0
 157              		.cfi_def_cfa_register 7
 158 0006 3023     		movs	r3, #48
 159 0008 7B60     		str	r3, [r7, #4]
 160              	.LBB14:
 161              	.LBB15:
 162              	.LBB16:
 163              	.LBB17:
 164              		.file 4 "../../../os/common/ext/ARM/CMSIS/Core/Include/cmsis_gcc.h"
 165              		.loc 4 493 3
 166 000a 7B68     		ldr	r3, [r7, #4]
 167              		.syntax unified
 168              	@ 493 "../../../os/common/ext/ARM/CMSIS/Core/Include/cmsis_gcc.h" 1
 169 000c 83F31188 		MSR basepri, r3
 170              	@ 0 "" 2
 171              		.loc 4 494 1
ARM GAS  C:\Users\DEVELO~1\AppData\Local\Temp\ccYUktJG.s 			page 4


 172              		.thumb
 173              		.syntax unified
 174 0010 00BF     		nop
 175              	.LBE17:
 176              	.LBE16:
 177              		.file 5 "../../../os/common/ports/ARMv7-M/chcore.h"
 178              		.loc 5 840 1
 179 0012 00BF     		nop
 180              	.LBE15:
 181              	.LBE14:
 182              		.loc 3 412 1
 183 0014 00BF     		nop
 184 0016 0C37     		adds	r7, r7, #12
 185              		.cfi_def_cfa_offset 4
 186 0018 BD46     		mov	sp, r7
 187              		.cfi_def_cfa_register 13
 188              		@ sp needed
 189 001a 80BC     		pop	{r7}
 190              		.cfi_restore 7
 191              		.cfi_def_cfa_offset 0
 192 001c 7047     		bx	lr
 193              		.cfi_endproc
 194              	.LFE202:
 195              		.size	chSysLock, .-chSysLock
 196              		.section	.text.chSysUnlock,"ax",%progbits
 197              		.align	1
 198              		.syntax unified
 199              		.thumb
 200              		.thumb_func
 201              		.type	chSysUnlock, %function
 202              	chSysUnlock:
 203              	.LFB203:
 204              		.loc 3 421 38
 205              		.cfi_startproc
 206              		@ args = 0, pretend = 0, frame = 8
 207              		@ frame_needed = 1, uses_anonymous_args = 0
 208              		@ link register save eliminated.
 209 0000 80B4     		push	{r7}
 210              		.cfi_def_cfa_offset 4
 211              		.cfi_offset 7, -4
 212 0002 83B0     		sub	sp, sp, #12
 213              		.cfi_def_cfa_offset 16
 214 0004 00AF     		add	r7, sp, #0
 215              		.cfi_def_cfa_register 7
 216 0006 0023     		movs	r3, #0
 217 0008 7B60     		str	r3, [r7, #4]
 218              	.LBB18:
 219              	.LBB19:
 220              	.LBB20:
 221              	.LBB21:
 222              		.loc 4 493 3
 223 000a 7B68     		ldr	r3, [r7, #4]
 224              		.syntax unified
 225              	@ 493 "../../../os/common/ext/ARM/CMSIS/Core/Include/cmsis_gcc.h" 1
 226 000c 83F31188 		MSR basepri, r3
 227              	@ 0 "" 2
 228              		.loc 4 494 1
ARM GAS  C:\Users\DEVELO~1\AppData\Local\Temp\ccYUktJG.s 			page 5


 229              		.thumb
 230              		.syntax unified
 231 0010 00BF     		nop
 232              	.LBE21:
 233              	.LBE20:
 234              		.loc 5 854 1
 235 0012 00BF     		nop
 236              	.LBE19:
 237              	.LBE18:
 238              		.loc 3 435 1
 239 0014 00BF     		nop
 240 0016 0C37     		adds	r7, r7, #12
 241              		.cfi_def_cfa_offset 4
 242 0018 BD46     		mov	sp, r7
 243              		.cfi_def_cfa_register 13
 244              		@ sp needed
 245 001a 80BC     		pop	{r7}
 246              		.cfi_restore 7
 247              		.cfi_def_cfa_offset 0
 248 001c 7047     		bx	lr
 249              		.cfi_endproc
 250              	.LFE203:
 251              		.size	chSysUnlock, .-chSysUnlock
 252              		.section	.text.chVTGetSystemTimeX,"ax",%progbits
 253              		.align	1
 254              		.syntax unified
 255              		.thumb
 256              		.thumb_func
 257              		.type	chVTGetSystemTimeX, %function
 258              	chVTGetSystemTimeX:
 259              	.LFB209:
 260              		.file 6 "../../../os/rt/include/chvt.h"
 261              		.loc 6 122 50
 262              		.cfi_startproc
 263              		@ args = 0, pretend = 0, frame = 0
 264              		@ frame_needed = 1, uses_anonymous_args = 0
 265 0000 80B5     		push	{r7, lr}
 266              		.cfi_def_cfa_offset 8
 267              		.cfi_offset 7, -8
 268              		.cfi_offset 14, -4
 269 0002 00AF     		add	r7, sp, #0
 270              		.cfi_def_cfa_register 7
 271              		.loc 6 127 10
 272 0004 FFF7FEFF 		bl	port_timer_get_time
 273 0008 0346     		mov	r3, r0
 274              		.loc 6 129 1
 275 000a 1846     		mov	r0, r3
 276 000c 80BD     		pop	{r7, pc}
 277              		.cfi_endproc
 278              	.LFE209:
 279              		.size	chVTGetSystemTimeX, .-chVTGetSystemTimeX
 280              		.section	.text.chVTIsSystemTimeWithinX,"ax",%progbits
 281              		.align	1
 282              		.syntax unified
 283              		.thumb
 284              		.thumb_func
 285              		.type	chVTIsSystemTimeWithinX, %function
ARM GAS  C:\Users\DEVELO~1\AppData\Local\Temp\ccYUktJG.s 			page 6


 286              	chVTIsSystemTimeWithinX:
 287              	.LFB212:
 288              		.loc 6 177 76
 289              		.cfi_startproc
 290              		@ args = 0, pretend = 0, frame = 8
 291              		@ frame_needed = 1, uses_anonymous_args = 0
 292 0000 80B5     		push	{r7, lr}
 293              		.cfi_def_cfa_offset 8
 294              		.cfi_offset 7, -8
 295              		.cfi_offset 14, -4
 296 0002 82B0     		sub	sp, sp, #8
 297              		.cfi_def_cfa_offset 16
 298 0004 00AF     		add	r7, sp, #0
 299              		.cfi_def_cfa_register 7
 300 0006 7860     		str	r0, [r7, #4]
 301 0008 3960     		str	r1, [r7]
 302              		.loc 6 179 10
 303 000a FFF7FEFF 		bl	chVTGetSystemTimeX
 304 000e 0346     		mov	r3, r0
 305 0010 3A68     		ldr	r2, [r7]
 306 0012 7968     		ldr	r1, [r7, #4]
 307 0014 1846     		mov	r0, r3
 308 0016 FFF7FEFF 		bl	chTimeIsInRangeX
 309 001a 0346     		mov	r3, r0
 310              		.loc 6 180 1
 311 001c 1846     		mov	r0, r3
 312 001e 0837     		adds	r7, r7, #8
 313              		.cfi_def_cfa_offset 8
 314 0020 BD46     		mov	sp, r7
 315              		.cfi_def_cfa_register 13
 316              		@ sp needed
 317 0022 80BD     		pop	{r7, pc}
 318              		.cfi_endproc
 319              	.LFE212:
 320              		.size	chVTIsSystemTimeWithinX, .-chVTIsSystemTimeWithinX
 321              		.section	.text.chVTGetTimeStamp,"ax",%progbits
 322              		.align	1
 323              		.syntax unified
 324              		.thumb
 325              		.thumb_func
 326              		.type	chVTGetTimeStamp, %function
 327              	chVTGetTimeStamp:
 328              	.LFB225:
 329              		.loc 6 474 53
 330              		.cfi_startproc
 331              		@ args = 0, pretend = 0, frame = 8
 332              		@ frame_needed = 1, uses_anonymous_args = 0
 333 0000 80B5     		push	{r7, lr}
 334              		.cfi_def_cfa_offset 8
 335              		.cfi_offset 7, -8
 336              		.cfi_offset 14, -4
 337 0002 82B0     		sub	sp, sp, #8
 338              		.cfi_def_cfa_offset 16
 339 0004 00AF     		add	r7, sp, #0
 340              		.cfi_def_cfa_register 7
 341              		.loc 6 477 3
 342 0006 FFF7FEFF 		bl	chSysLock
ARM GAS  C:\Users\DEVELO~1\AppData\Local\Temp\ccYUktJG.s 			page 7


 343              		.loc 6 479 11
 344 000a FFF7FEFF 		bl	chVTGetTimeStampI
 345 000e C7E90001 		strd	r0, [r7]
 346              		.loc 6 481 3
 347 0012 FFF7FEFF 		bl	chSysUnlock
 348              		.loc 6 483 10
 349 0016 D7E90023 		ldrd	r2, [r7]
 350              		.loc 6 484 1
 351 001a 1046     		mov	r0, r2
 352 001c 1946     		mov	r1, r3
 353 001e 0837     		adds	r7, r7, #8
 354              		.cfi_def_cfa_offset 8
 355 0020 BD46     		mov	sp, r7
 356              		.cfi_def_cfa_register 13
 357              		@ sp needed
 358 0022 80BD     		pop	{r7, pc}
 359              		.cfi_endproc
 360              	.LFE225:
 361              		.size	chVTGetTimeStamp, .-chVTGetTimeStamp
 362              		.section	.rodata
 363              		.align	2
 364              	.LC0:
 365 0000 6E6F7420 		.ascii	"not monotonic\000"
 365      6D6F6E6F 
 365      746F6E69 
 365      6300
 366              		.section	.text.rt_test_004_001_execute,"ax",%progbits
 367              		.align	1
 368              		.syntax unified
 369              		.thumb
 370              		.thumb_func
 371              		.type	rt_test_004_001_execute, %function
 372              	rt_test_004_001_execute:
 373              	.LFB436:
 374              		.file 7 "../../../test/rt/source/test/rt_test_sequence_004.c"
 375              		.loc 7 66 43
 376              		.cfi_startproc
 377              		@ args = 0, pretend = 0, frame = 32
 378              		@ frame_needed = 1, uses_anonymous_args = 0
 379 0000 80B5     		push	{r7, lr}
 380              		.cfi_def_cfa_offset 8
 381              		.cfi_offset 7, -8
 382              		.cfi_offset 14, -4
 383 0002 88B0     		sub	sp, sp, #32
 384              		.cfi_def_cfa_offset 40
 385 0004 00AF     		add	r7, sp, #0
 386              		.cfi_def_cfa_register 7
 387              		.loc 7 69 3
 388 0006 1F4B     		ldr	r3, .L20
 389 0008 0122     		movs	r2, #1
 390 000a 1A60     		str	r2, [r3]
 391              	.LBB22:
 392              		.loc 7 75 12
 393 000c FFF7FEFF 		bl	chVTGetTimeStamp
 394 0010 C7E90601 		strd	r0, [r7, #24]
 395              		.loc 7 76 13
 396 0014 FFF7FEFF 		bl	test_wait_tick
ARM GAS  C:\Users\DEVELO~1\AppData\Local\Temp\ccYUktJG.s 			page 8


 397 0018 3861     		str	r0, [r7, #16]
 398              		.loc 7 77 14
 399 001a 6FF00043 		mvn	r3, #-2147483648
 400 001e 7B61     		str	r3, [r7, #20]
 401              		.loc 7 78 8
 402 0020 7B69     		ldr	r3, [r7, #20]
 403 0022 42F21072 		movw	r2, #10000
 404 0026 9342     		cmp	r3, r2
 405 0028 02D9     		bls	.L16
 406              		.loc 7 79 16
 407 002a 42F21073 		movw	r3, #10000
 408 002e 7B61     		str	r3, [r7, #20]
 409              	.L16:
 410              		.loc 7 81 11
 411 0030 7969     		ldr	r1, [r7, #20]
 412 0032 3869     		ldr	r0, [r7, #16]
 413 0034 FFF7FEFF 		bl	chTimeAddX
 414 0038 F860     		str	r0, [r7, #12]
 415              	.L19:
 416              		.loc 7 83 13
 417 003a FFF7FEFF 		bl	chVTGetTimeStamp
 418 003e C7E90001 		strd	r0, [r7]
 419              		.loc 7 84 7
 420 0042 D7E90623 		ldrd	r2, [r7, #24]
 421 0046 D7E90001 		ldrd	r0, [r7]
 422 004a 9042     		cmp	r0, r2
 423 004c 71EB0303 		sbcs	r3, r1, r3
 424 0050 2CBF     		ite	cs
 425 0052 0123     		movcs	r3, #1
 426 0054 0023     		movcc	r3, #0
 427 0056 DBB2     		uxtb	r3, r3
 428 0058 0B49     		ldr	r1, .L20+4
 429 005a 1846     		mov	r0, r3
 430 005c FFF7FEFF 		bl	__test_assert
 431 0060 0346     		mov	r3, r0
 432 0062 002B     		cmp	r3, #0
 433 0064 0AD1     		bne	.L15
 434              		.loc 7 85 12
 435 0066 D7E90023 		ldrd	r2, [r7]
 436 006a C7E90623 		strd	r2, [r7, #24]
 437              		.loc 7 89 14
 438 006e F968     		ldr	r1, [r7, #12]
 439 0070 3869     		ldr	r0, [r7, #16]
 440 0072 FFF7FEFF 		bl	chVTIsSystemTimeWithinX
 441 0076 0346     		mov	r3, r0
 442 0078 002B     		cmp	r3, #0
 443 007a DED1     		bne	.L19
 444              	.L15:
 445              	.LBE22:
 446              		.loc 7 92 1
 447 007c 2037     		adds	r7, r7, #32
 448              		.cfi_def_cfa_offset 8
 449 007e BD46     		mov	sp, r7
 450              		.cfi_def_cfa_register 13
 451              		@ sp needed
 452 0080 80BD     		pop	{r7, pc}
 453              	.L21:
ARM GAS  C:\Users\DEVELO~1\AppData\Local\Temp\ccYUktJG.s 			page 9


 454 0082 00BF     		.align	2
 455              	.L20:
 456 0084 00000000 		.word	chtest
 457 0088 00000000 		.word	.LC0
 458              		.cfi_endproc
 459              	.LFE436:
 460              		.size	rt_test_004_001_execute, .-rt_test_004_001_execute
 461              		.section	.rodata
 462 000e 0000     		.align	2
 463              	.LC1:
 464 0010 54696D65 		.ascii	"Time Stamps functionality\000"
 464      20537461 
 464      6D707320 
 464      66756E63 
 464      74696F6E 
 465              		.section	.rodata.rt_test_004_001,"a"
 466              		.align	2
 467              		.type	rt_test_004_001, %object
 468              		.size	rt_test_004_001, 16
 469              	rt_test_004_001:
 470 0000 10000000 		.word	.LC1
 471 0004 00000000 		.word	0
 472 0008 00000000 		.word	0
 473 000c 00000000 		.word	rt_test_004_001_execute
 474              		.global	rt_test_sequence_004_array
 475              		.section	.rodata.rt_test_sequence_004_array,"a"
 476              		.align	2
 477              		.type	rt_test_sequence_004_array, %object
 478              		.size	rt_test_sequence_004_array, 8
 479              	rt_test_sequence_004_array:
 480 0000 00000000 		.word	rt_test_004_001
 481 0004 00000000 		.word	0
 482              		.global	rt_test_sequence_004
 483              		.section	.rodata
 484 002a 0000     		.align	2
 485              	.LC2:
 486 002c 54696D65 		.ascii	"Time Stamps Functionality\000"
 486      20537461 
 486      6D707320 
 486      46756E63 
 486      74696F6E 
 487              		.section	.rodata.rt_test_sequence_004,"a"
 488              		.align	2
 489              		.type	rt_test_sequence_004, %object
 490              		.size	rt_test_sequence_004, 8
 491              	rt_test_sequence_004:
 492 0000 2C000000 		.word	.LC2
 493 0004 00000000 		.word	rt_test_sequence_004_array
 494              		.text
 495              	.Letext0:
 496              		.file 8 "c:\\chibistudio\\tools\\gnu tools arm embedded\\11.3 2022.08\\lib\\gcc\\arm-none-eabi\\11
 497              		.file 9 "c:\\chibistudio\\tools\\gnu tools arm embedded\\11.3 2022.08\\arm-none-eabi\\include\\mac
 498              		.file 10 "c:\\chibistudio\\tools\\gnu tools arm embedded\\11.3 2022.08\\arm-none-eabi\\include\\sy
 499              		.file 11 "../../../os/rt/include/chearly.h"
 500              		.file 12 "../../../os/hal/include/hal_streams.h"
 501              		.file 13 "../../../os/test/include/ch_test.h"
 502              		.file 14 "../../../test/rt/source/test/rt_test_sequence_004.h"
ARM GAS  C:\Users\DEVELO~1\AppData\Local\Temp\ccYUktJG.s 			page 10


 503              		.file 15 "../../../os/hal/include/hal_st.h"
 504              		.file 16 "../../../test/rt/source/test/rt_test_root.h"