ARM GAS  C:\Users\DEVELO~1\AppData\Local\Temp\cc0xWqQh.s 			page 1


   1              		.cpu cortex-m7
   2              		.arch armv7e-m
   3              		.fpu softvfp
   4              		.eabi_attribute 20, 1
   5              		.eabi_attribute 21, 1
   6              		.eabi_attribute 23, 3
   7              		.eabi_attribute 24, 1
   8              		.eabi_attribute 25, 1
   9              		.eabi_attribute 26, 1
  10              		.eabi_attribute 30, 2
  11              		.eabi_attribute 34, 1
  12              		.eabi_attribute 18, 4
  13              		.file	"sdram_bist.c"
  14              		.text
  15              	.Ltext0:
  16              		.cfi_sections	.debug_frame
  17              		.section	.text.bist_verify_constant.constprop.0,"ax",%progbits
  18              		.align	1
  19              		.p2align 4,,15
  20              		.syntax unified
  21              		.thumb
  22              		.thumb_func
  23              		.type	bist_verify_constant.constprop.0, %function
  24              	bist_verify_constant.constprop.0:
  25              	.LVL0:
  26              	.LFB448:
  27              		.file 1 "drivers/sdram/sdram_bist.c"
  28              		.loc 1 89 13 view -0
  29              		.cfi_startproc
  30              		@ args = 0, pretend = 0, frame = 0
  31              		@ frame_needed = 0, uses_anonymous_args = 0
  32              	.LBB57:
  33              		.loc 1 93 26 view .LVU1
  34              	.LBE57:
  35              		.loc 1 89 13 is_stmt 0 view .LVU2
  36 0000 2DE9F041 		push	{r4, r5, r6, r7, r8, lr}
  37              		.cfi_def_cfa_offset 24
  38              		.cfi_offset 4, -24
  39              		.cfi_offset 5, -20
  40              		.cfi_offset 6, -16
  41              		.cfi_offset 7, -12
  42              		.cfi_offset 8, -8
  43              		.cfi_offset 14, -4
  44              		.loc 1 89 13 view .LVU3
  45 0004 0E46     		mov	r6, r1
  46              	.LBB87:
  47              		.loc 1 93 17 view .LVU4
  48 0006 0025     		movs	r5, #0
  49              	.LBE87:
  50              		.loc 1 89 13 view .LVU5
  51 0008 1446     		mov	r4, r2
  52 000a 0746     		mov	r7, r0
  53 000c D16A     		ldr	r1, [r2, #44]
  54              	.LVL1:
  55              	.LBB88:
  56              	.LBB58:
  57              	.LBB59:
ARM GAS  C:\Users\DEVELO~1\AppData\Local\Temp\cc0xWqQh.s 			page 2


  58              	.LBB60:
  59              		.loc 1 40 22 view .LVU6
  60 000e 4FF00108 		mov	r8, #1
  61              	.LVL2:
  62              	.L12:
  63              		.loc 1 40 22 view .LVU7
  64              	.LBE60:
  65              	.LBE59:
  66              		.loc 1 94 5 is_stmt 1 view .LVU8
  67 0012 6B00     		lsls	r3, r5, #1
  68 0014 03F14043 		add	r3, r3, #-1073741824
  69              		.loc 1 94 14 is_stmt 0 view .LVU9
  70 0018 1A88     		ldrh	r2, [r3]
  71 001a 92B2     		uxth	r2, r2
  72              	.LVL3:
  73              		.loc 1 95 5 is_stmt 1 view .LVU10
  74              		.loc 1 95 8 is_stmt 0 view .LVU11
  75 001c B242     		cmp	r2, r6
  76 001e 0BD0     		beq	.L3
  77              		.loc 1 96 7 is_stmt 1 view .LVU12
  78              	.LVL4:
  79              	.LBB62:
  80              	.LBI59:
  81              		.loc 1 31 13 view .LVU13
  82              	.LBB61:
  83              		.loc 1 36 3 view .LVU14
  84              		.loc 1 36 19 is_stmt 0 view .LVU15
  85 0020 A269     		ldr	r2, [r4, #24]
  86              	.LVL5:
  87              		.loc 1 37 6 view .LVU16
  88 0022 94F82000 		ldrb	r0, [r4, #32]	@ zero_extendqisi2
  89              		.loc 1 36 19 view .LVU17
  90 0026 0132     		adds	r2, r2, #1
  91 0028 A261     		str	r2, [r4, #24]
  92              		.loc 1 37 3 is_stmt 1 view .LVU18
  93              		.loc 1 37 6 is_stmt 0 view .LVU19
  94 002a 28B9     		cbnz	r0, .L3
  95              		.loc 1 38 5 is_stmt 1 view .LVU20
  96              		.loc 1 38 30 is_stmt 0 view .LVU21
  97 002c E361     		str	r3, [r4, #28]
  98              		.loc 1 39 5 is_stmt 1 view .LVU22
  99              		.loc 1 39 30 is_stmt 0 view .LVU23
 100 002e 6684     		strh	r6, [r4, #34]	@ movhi
 101              		.loc 1 40 5 is_stmt 1 view .LVU24
 102              		.loc 1 40 22 is_stmt 0 view .LVU25
 103 0030 84F82080 		strb	r8, [r4, #32]
 104              		.loc 1 41 5 is_stmt 1 view .LVU26
 105              		.loc 1 41 17 is_stmt 0 view .LVU27
 106 0034 84F80C80 		strb	r8, [r4, #12]
 107              	.LVL6:
 108              	.L3:
 109              		.loc 1 41 17 view .LVU28
 110              	.LBE61:
 111              	.LBE62:
 112              		.loc 1 98 5 is_stmt 1 view .LVU29
 113              		.loc 1 98 29 is_stmt 0 view .LVU30
 114 0038 2369     		ldr	r3, [r4, #16]
ARM GAS  C:\Users\DEVELO~1\AppData\Local\Temp\cc0xWqQh.s 			page 3


 115              	.LBB63:
 116              	.LBB64:
 117              		.loc 1 64 6 view .LVU31
 118 003a 2278     		ldrb	r2, [r4]	@ zero_extendqisi2
 119              	.LBE64:
 120              	.LBE63:
 121              		.loc 1 98 29 view .LVU32
 122 003c 0133     		adds	r3, r3, #1
 123              	.LBB81:
 124              	.LBB77:
 125              		.loc 1 64 6 view .LVU33
 126 003e 012A     		cmp	r2, #1
 127              	.LBE77:
 128              	.LBE81:
 129              		.loc 1 98 29 view .LVU34
 130 0040 2361     		str	r3, [r4, #16]
 131              		.loc 1 99 5 is_stmt 1 view .LVU35
 132              	.LVL7:
 133              	.LBB82:
 134              	.LBI63:
 135              		.loc 1 63 13 view .LVU36
 136              	.LBB78:
 137              		.loc 1 64 3 view .LVU37
 138              		.loc 1 64 6 is_stmt 0 view .LVU38
 139 0042 02D1     		bne	.L8
 140              		.loc 1 68 3 is_stmt 1 view .LVU39
 141              		.loc 1 68 6 is_stmt 0 view .LVU40
 142 0044 0DB1     		cbz	r5, .L8
 143              		.loc 1 68 40 view .LVU41
 144 0046 ABB2     		uxth	r3, r5
 145              		.loc 1 68 25 view .LVU42
 146 0048 43B1     		cbz	r3, .L43
 147              	.L8:
 148              		.loc 1 75 3 is_stmt 1 view .LVU43
 149              	.LBB65:
 150              	.LBI65:
 151              		.loc 1 52 13 view .LVU44
 152              	.LBB66:
 153              		.loc 1 53 3 view .LVU45
 154              		.loc 1 53 6 is_stmt 0 view .LVU46
 155 004a 09B1     		cbz	r1, .L6
 156              		.loc 1 53 37 view .LVU47
 157 004c 0B78     		ldrb	r3, [r1]	@ zero_extendqisi2
 158              		.loc 1 53 33 view .LVU48
 159 004e 6BB9     		cbnz	r3, .L44
 160              	.L6:
 161              	.LVL8:
 162              		.loc 1 53 33 view .LVU49
 163              	.LBE66:
 164              	.LBE65:
 165              	.LBE78:
 166              	.LBE82:
 167              	.LBE58:
 168              		.loc 1 93 35 is_stmt 1 view .LVU50
 169 0050 0135     		adds	r5, r5, #1
 170              	.LVL9:
 171              		.loc 1 93 26 view .LVU51
ARM GAS  C:\Users\DEVELO~1\AppData\Local\Temp\cc0xWqQh.s 			page 4


 172 0052 BD42     		cmp	r5, r7
 173 0054 DDD1     		bne	.L12
 174              	.LBE88:
 175              		.loc 1 104 10 is_stmt 0 view .LVU52
 176 0056 0120     		movs	r0, #1
 177              		.loc 1 105 1 view .LVU53
 178 0058 BDE8F081 		pop	{r4, r5, r6, r7, r8, pc}
 179              	.LVL10:
 180              	.L43:
 181              	.LBB89:
 182              	.LBB85:
 183              	.LBB83:
 184              	.LBB79:
 185              		.loc 1 69 5 is_stmt 1 view .LVU54
 186              	.LBB70:
 187              	.LBI70:
 188              		.loc 1 52 13 view .LVU55
 189              	.LBB71:
 190              		.loc 1 53 3 view .LVU56
 191              		.loc 1 53 6 is_stmt 0 view .LVU57
 192 005c 09B1     		cbz	r1, .L9
 193              		.loc 1 53 37 view .LVU58
 194 005e 0B78     		ldrb	r3, [r1]	@ zero_extendqisi2
 195              		.loc 1 53 33 view .LVU59
 196 0060 5BB9     		cbnz	r3, .L45
 197              	.L9:
 198              		.loc 1 53 33 view .LVU60
 199              	.LBE71:
 200              	.LBE70:
 201              		.loc 1 72 5 is_stmt 1 view .LVU61
 202 0062 0A20     		movs	r0, #10
 203 0064 FFF7FEFF 		bl	chThdSleep
 204              	.LVL11:
 205 0068 E16A     		ldr	r1, [r4, #44]
 206 006a EEE7     		b	.L8
 207              	.L44:
 208              	.LVL12:
 209              	.LBB75:
 210              	.LBB69:
 211              	.LBB67:
 212              	.LBI67:
 213              		.loc 1 52 13 view .LVU62
 214              	.LBB68:
 215              		.loc 1 54 5 view .LVU63
 216              		.loc 1 54 8 is_stmt 0 view .LVU64
 217 006c 237B     		ldrb	r3, [r4, #12]	@ zero_extendqisi2
 218 006e 0BB9     		cbnz	r3, .L7
 219              		.loc 1 55 7 is_stmt 1 view .LVU65
 220              		.loc 1 55 26 is_stmt 0 view .LVU66
 221 0070 0223     		movs	r3, #2
 222 0072 2373     		strb	r3, [r4, #12]
 223              	.LVL13:
 224              	.L7:
 225              		.loc 1 55 26 view .LVU67
 226              	.LBE68:
 227              	.LBE67:
 228              	.LBE69:
ARM GAS  C:\Users\DEVELO~1\AppData\Local\Temp\cc0xWqQh.s 			page 5


 229              	.LBE75:
 230              	.LBE79:
 231              	.LBE83:
 232              		.loc 1 100 14 view .LVU68
 233 0074 0020     		movs	r0, #0
 234              	.LBE85:
 235              	.LBE89:
 236              		.loc 1 105 1 view .LVU69
 237 0076 BDE8F081 		pop	{r4, r5, r6, r7, r8, pc}
 238              	.LVL14:
 239              	.L45:
 240              	.LBB90:
 241              	.LBB86:
 242              	.LBB84:
 243              	.LBB80:
 244              	.LBB76:
 245              	.LBB74:
 246              	.LBB72:
 247              	.LBI72:
 248              		.loc 1 52 13 is_stmt 1 view .LVU70
 249              	.LBB73:
 250              		.loc 1 54 5 view .LVU71
 251              		.loc 1 54 8 is_stmt 0 view .LVU72
 252 007a 207B     		ldrb	r0, [r4, #12]	@ zero_extendqisi2
 253 007c 0028     		cmp	r0, #0
 254 007e F9D1     		bne	.L7
 255              		.loc 1 55 7 is_stmt 1 view .LVU73
 256              		.loc 1 55 26 is_stmt 0 view .LVU74
 257 0080 0223     		movs	r3, #2
 258 0082 2373     		strb	r3, [r4, #12]
 259              	.LVL15:
 260              		.loc 1 55 26 view .LVU75
 261              	.LBE73:
 262              	.LBE72:
 263              	.LBE74:
 264              	.LBE76:
 265              	.LBE80:
 266              	.LBE84:
 267              	.LBE86:
 268              	.LBE90:
 269              		.loc 1 105 1 view .LVU76
 270 0084 BDE8F081 		pop	{r4, r5, r6, r7, r8, pc}
 271              		.loc 1 105 1 view .LVU77
 272              		.cfi_endproc
 273              	.LFE448:
 274              		.size	bist_verify_constant.constprop.0, .-bist_verify_constant.constprop.0
 275              		.section	.text.bist_run_constant_pattern.constprop.0,"ax",%progbits
 276              		.align	1
 277              		.p2align 4,,15
 278              		.syntax unified
 279              		.thumb
 280              		.thumb_func
 281              		.type	bist_run_constant_pattern.constprop.0, %function
 282              	bist_run_constant_pattern.constprop.0:
 283              	.LVL16:
 284              	.LFB449:
 285              		.loc 1 107 13 is_stmt 1 view -0
ARM GAS  C:\Users\DEVELO~1\AppData\Local\Temp\cc0xWqQh.s 			page 6


 286              		.cfi_startproc
 287              		@ args = 0, pretend = 0, frame = 0
 288              		@ frame_needed = 0, uses_anonymous_args = 0
 289              		.loc 1 108 3 view .LVU79
 290              		.loc 1 107 13 is_stmt 0 view .LVU80
 291 0000 F8B5     		push	{r3, r4, r5, r6, r7, lr}
 292              		.cfi_def_cfa_offset 24
 293              		.cfi_offset 3, -24
 294              		.cfi_offset 4, -20
 295              		.cfi_offset 5, -16
 296              		.cfi_offset 6, -12
 297              		.cfi_offset 7, -8
 298              		.cfi_offset 14, -4
 299              		.loc 1 107 13 view .LVU81
 300 0002 1546     		mov	r5, r2
 301              	.LBB113:
 302              	.LBB114:
 303              		.loc 1 79 17 view .LVU82
 304 0004 0024     		movs	r4, #0
 305              	.LBE114:
 306              	.LBE113:
 307              		.loc 1 107 13 view .LVU83
 308 0006 0746     		mov	r7, r0
 309              	.LVL17:
 310              		.loc 1 107 13 view .LVU84
 311 0008 0E46     		mov	r6, r1
 312              	.LVL18:
 313              	.LBB129:
 314              	.LBI113:
 315              		.loc 1 78 13 is_stmt 1 view .LVU85
 316              	.LBB127:
 317              		.loc 1 79 26 view .LVU86
 318 000a D26A     		ldr	r2, [r2, #44]
 319              	.LVL19:
 320              	.L54:
 321              		.loc 1 80 5 view .LVU87
 322 000c 6300     		lsls	r3, r4, #1
 323 000e 03F14043 		add	r3, r3, #-1073741824
 324              		.loc 1 80 13 is_stmt 0 view .LVU88
 325 0012 1E80     		strh	r6, [r3]	@ movhi
 326              		.loc 1 81 5 is_stmt 1 view .LVU89
 327              	.LVL20:
 328              	.LBB115:
 329              	.LBI115:
 330              		.loc 1 63 13 view .LVU90
 331              	.LBB116:
 332              		.loc 1 64 3 view .LVU91
 333              		.loc 1 64 6 is_stmt 0 view .LVU92
 334 0014 2B78     		ldrb	r3, [r5]	@ zero_extendqisi2
 335 0016 012B     		cmp	r3, #1
 336 0018 02D1     		bne	.L50
 337              		.loc 1 68 3 is_stmt 1 view .LVU93
 338              		.loc 1 68 6 is_stmt 0 view .LVU94
 339 001a 0CB1     		cbz	r4, .L50
 340              		.loc 1 68 40 view .LVU95
 341 001c A3B2     		uxth	r3, r4
 342              		.loc 1 68 25 view .LVU96
ARM GAS  C:\Users\DEVELO~1\AppData\Local\Temp\cc0xWqQh.s 			page 7


 343 001e 7BB1     		cbz	r3, .L88
 344              	.L50:
 345              		.loc 1 75 3 is_stmt 1 view .LVU97
 346              	.LBB117:
 347              	.LBI117:
 348              		.loc 1 52 13 view .LVU98
 349              	.LBB118:
 350              		.loc 1 53 3 view .LVU99
 351              		.loc 1 53 6 is_stmt 0 view .LVU100
 352 0020 0AB1     		cbz	r2, .L48
 353              		.loc 1 53 37 view .LVU101
 354 0022 1378     		ldrb	r3, [r2]	@ zero_extendqisi2
 355              		.loc 1 53 33 view .LVU102
 356 0024 A3B9     		cbnz	r3, .L83
 357              	.L48:
 358              	.LVL21:
 359              		.loc 1 53 33 view .LVU103
 360              	.LBE118:
 361              	.LBE117:
 362              	.LBE116:
 363              	.LBE115:
 364              		.loc 1 79 35 is_stmt 1 view .LVU104
 365 0026 0134     		adds	r4, r4, #1
 366              	.LVL22:
 367              		.loc 1 79 26 view .LVU105
 368 0028 A742     		cmp	r7, r4
 369 002a EFD1     		bne	.L54
 370              	.LVL23:
 371              		.loc 1 79 26 is_stmt 0 view .LVU106
 372              	.LBE127:
 373              	.LBE129:
 374              	.LBB130:
 375              	.LBI130:
 376              		.loc 1 107 13 is_stmt 1 view .LVU107
 377              	.LBB131:
 378              		.loc 1 111 3 view .LVU108
 379              		.loc 1 111 8 is_stmt 0 view .LVU109
 380 002c 2A46     		mov	r2, r5
 381 002e 3146     		mov	r1, r6
 382 0030 3846     		mov	r0, r7
 383 0032 FFF7FEFF 		bl	bist_verify_constant.constprop.0
 384              	.LVL24:
 385              		.loc 1 111 6 view .LVU110
 386 0036 10B1     		cbz	r0, .L46
 387              		.loc 1 114 3 is_stmt 1 view .LVU111
 388              		.loc 1 114 25 is_stmt 0 view .LVU112
 389 0038 6B68     		ldr	r3, [r5, #4]
 390 003a 0133     		adds	r3, r3, #1
 391 003c 6B60     		str	r3, [r5, #4]
 392              	.LVL25:
 393              	.L46:
 394              		.loc 1 114 25 view .LVU113
 395              	.LBE131:
 396              	.LBE130:
 397              		.loc 1 115 1 view .LVU114
 398 003e F8BD     		pop	{r3, r4, r5, r6, r7, pc}
 399              	.LVL26:
ARM GAS  C:\Users\DEVELO~1\AppData\Local\Temp\cc0xWqQh.s 			page 8


 400              	.L88:
 401              	.LBB132:
 402              	.LBB128:
 403              	.LBB126:
 404              	.LBB125:
 405              		.loc 1 69 5 is_stmt 1 view .LVU115
 406              	.LBB122:
 407              	.LBI122:
 408              		.loc 1 52 13 view .LVU116
 409              	.LBB123:
 410              		.loc 1 53 3 view .LVU117
 411              		.loc 1 53 6 is_stmt 0 view .LVU118
 412 0040 0AB1     		cbz	r2, .L51
 413              		.loc 1 53 37 view .LVU119
 414 0042 1378     		ldrb	r3, [r2]	@ zero_extendqisi2
 415              		.loc 1 53 33 view .LVU120
 416 0044 23B9     		cbnz	r3, .L83
 417              	.L51:
 418              		.loc 1 53 33 view .LVU121
 419              	.LBE123:
 420              	.LBE122:
 421              		.loc 1 72 5 is_stmt 1 view .LVU122
 422 0046 0A20     		movs	r0, #10
 423 0048 FFF7FEFF 		bl	chThdSleep
 424              	.LVL27:
 425 004c EA6A     		ldr	r2, [r5, #44]
 426 004e E7E7     		b	.L50
 427              	.L83:
 428              	.LVL28:
 429              	.LBB124:
 430              	.LBB121:
 431              	.LBB119:
 432              	.LBI119:
 433              		.loc 1 52 13 view .LVU123
 434              	.LBB120:
 435              		.loc 1 54 5 view .LVU124
 436              		.loc 1 54 8 is_stmt 0 view .LVU125
 437 0050 2B7B     		ldrb	r3, [r5, #12]	@ zero_extendqisi2
 438 0052 002B     		cmp	r3, #0
 439 0054 F3D1     		bne	.L46
 440              		.loc 1 55 7 is_stmt 1 view .LVU126
 441              		.loc 1 55 26 is_stmt 0 view .LVU127
 442 0056 0223     		movs	r3, #2
 443 0058 2B73     		strb	r3, [r5, #12]
 444              	.LVL29:
 445              		.loc 1 55 26 view .LVU128
 446              	.LBE120:
 447              	.LBE119:
 448              	.LBE121:
 449              	.LBE124:
 450              	.LBE125:
 451              	.LBE126:
 452              	.LBE128:
 453              	.LBE132:
 454              		.loc 1 115 1 view .LVU129
 455 005a F8BD     		pop	{r3, r4, r5, r6, r7, pc}
 456              		.loc 1 115 1 view .LVU130
ARM GAS  C:\Users\DEVELO~1\AppData\Local\Temp\cc0xWqQh.s 			page 9


 457              		.cfi_endproc
 458              	.LFE449:
 459              		.size	bist_run_constant_pattern.constprop.0, .-bist_run_constant_pattern.constprop.0
 460              		.section	.text.bist_run_walking.constprop.0,"ax",%progbits
 461              		.align	1
 462              		.p2align 4,,15
 463              		.syntax unified
 464              		.thumb
 465              		.thumb_func
 466              		.type	bist_run_walking.constprop.0, %function
 467              	bist_run_walking.constprop.0:
 468              	.LVL30:
 469              	.LFB452:
 470              		.loc 1 117 13 is_stmt 1 view -0
 471              		.cfi_startproc
 472              		@ args = 0, pretend = 0, frame = 0
 473              		@ frame_needed = 0, uses_anonymous_args = 0
 474              	.LBB160:
 475              		.loc 1 118 30 view .LVU132
 476              	.LBE160:
 477              		.loc 1 117 13 is_stmt 0 view .LVU133
 478 0000 2DE9F047 		push	{r4, r5, r6, r7, r8, r9, r10, lr}
 479              		.cfi_def_cfa_offset 32
 480              		.cfi_offset 4, -32
 481              		.cfi_offset 5, -28
 482              		.cfi_offset 6, -24
 483              		.cfi_offset 7, -20
 484              		.cfi_offset 8, -16
 485              		.cfi_offset 9, -12
 486              		.cfi_offset 10, -8
 487              		.cfi_offset 14, -4
 488              		.loc 1 117 13 view .LVU134
 489 0004 0646     		mov	r6, r0
 490              	.LBB190:
 491              		.loc 1 118 17 view .LVU135
 492 0006 4FF00009 		mov	r9, #0
 493              	.LBE190:
 494              		.loc 1 117 13 view .LVU136
 495 000a 1546     		mov	r5, r2
 496 000c 0F46     		mov	r7, r1
 497              	.LBB191:
 498              	.LBB161:
 499              		.loc 1 119 88 view .LVU137
 500 000e 4FF00108 		mov	r8, #1
 501              	.LBB162:
 502              	.LBB163:
 503              	.LBB164:
 504              	.LBB165:
 505              	.LBB166:
 506              	.LBB167:
 507              	.LBB168:
 508              		.loc 1 53 11 view .LVU138
 509 0012 D06A     		ldr	r0, [r2, #44]
 510              	.LVL31:
 511              	.L102:
 512              		.loc 1 53 11 view .LVU139
 513              	.LBE168:
ARM GAS  C:\Users\DEVELO~1\AppData\Local\Temp\cc0xWqQh.s 			page 10


 514              	.LBE167:
 515              	.LBE166:
 516              	.LBE165:
 517              	.LBE164:
 518              	.LBE163:
 519              	.LBE162:
 520              		.loc 1 119 5 is_stmt 1 view .LVU140
 521              		.loc 1 119 52 is_stmt 0 view .LVU141
 522 0014 08FA09FA 		lsl	r10, r8, r9
 523              		.loc 1 119 14 view .LVU142
 524 0018 0FB9     		cbnz	r7, .L139
 525 001a 6FEA0A0A 		mvn	r10, r10
 526              	.L139:
 527 001e 1FFA8AFA 		uxth	r10, r10
 528              	.LVL32:
 529              		.loc 1 120 5 is_stmt 1 view .LVU143
 530              	.LBB183:
 531              	.LBI162:
 532              		.loc 1 78 13 view .LVU144
 533              	.LBB181:
 534              		.loc 1 79 26 view .LVU145
 535              		.loc 1 79 17 is_stmt 0 view .LVU146
 536 0022 0024     		movs	r4, #0
 537              	.LVL33:
 538              	.L100:
 539              		.loc 1 80 5 is_stmt 1 view .LVU147
 540 0024 6300     		lsls	r3, r4, #1
 541 0026 03F14043 		add	r3, r3, #-1073741824
 542              		.loc 1 80 13 is_stmt 0 view .LVU148
 543 002a A3F800A0 		strh	r10, [r3]	@ movhi
 544              		.loc 1 81 5 is_stmt 1 view .LVU149
 545              	.LVL34:
 546              	.LBB179:
 547              	.LBI164:
 548              		.loc 1 63 13 view .LVU150
 549              	.LBB177:
 550              		.loc 1 64 3 view .LVU151
 551              		.loc 1 64 6 is_stmt 0 view .LVU152
 552 002e 2B78     		ldrb	r3, [r5]	@ zero_extendqisi2
 553 0030 012B     		cmp	r3, #1
 554 0032 02D1     		bne	.L95
 555              		.loc 1 68 3 is_stmt 1 view .LVU153
 556              		.loc 1 68 6 is_stmt 0 view .LVU154
 557 0034 0CB1     		cbz	r4, .L95
 558              		.loc 1 68 40 view .LVU155
 559 0036 A3B2     		uxth	r3, r4
 560              		.loc 1 68 25 view .LVU156
 561 0038 CBB1     		cbz	r3, .L149
 562              	.L95:
 563              		.loc 1 75 3 is_stmt 1 view .LVU157
 564              	.LBB169:
 565              	.LBI169:
 566              		.loc 1 52 13 view .LVU158
 567              	.LBB170:
 568              		.loc 1 53 3 view .LVU159
 569              		.loc 1 53 6 is_stmt 0 view .LVU160
 570 003a 08B1     		cbz	r0, .L93
ARM GAS  C:\Users\DEVELO~1\AppData\Local\Temp\cc0xWqQh.s 			page 11


 571              		.loc 1 53 37 view .LVU161
 572 003c 0378     		ldrb	r3, [r0]	@ zero_extendqisi2
 573              		.loc 1 53 33 view .LVU162
 574 003e F3B9     		cbnz	r3, .L144
 575              	.L93:
 576              	.LVL35:
 577              		.loc 1 53 33 view .LVU163
 578              	.LBE170:
 579              	.LBE169:
 580              	.LBE177:
 581              	.LBE179:
 582              		.loc 1 79 35 is_stmt 1 view .LVU164
 583 0040 0134     		adds	r4, r4, #1
 584              	.LVL36:
 585              		.loc 1 79 26 view .LVU165
 586 0042 A642     		cmp	r6, r4
 587 0044 EED1     		bne	.L100
 588              	.LVL37:
 589              		.loc 1 79 26 is_stmt 0 view .LVU166
 590              	.LBE181:
 591              	.LBE183:
 592              		.loc 1 123 5 is_stmt 1 view .LVU167
 593              		.loc 1 123 10 is_stmt 0 view .LVU168
 594 0046 2A46     		mov	r2, r5
 595 0048 5146     		mov	r1, r10
 596 004a 3046     		mov	r0, r6
 597 004c FFF7FEFF 		bl	bist_verify_constant.constprop.0
 598              	.LVL38:
 599              		.loc 1 123 8 view .LVU169
 600 0050 58B1     		cbz	r0, .L89
 601              		.loc 1 126 5 is_stmt 1 view .LVU170
 602              		.loc 1 126 27 is_stmt 0 view .LVU171
 603 0052 6B68     		ldr	r3, [r5, #4]
 604              	.LBB184:
 605              	.LBB185:
 606              		.loc 1 53 11 view .LVU172
 607 0054 E86A     		ldr	r0, [r5, #44]
 608              	.LBE185:
 609              	.LBE184:
 610              		.loc 1 126 27 view .LVU173
 611 0056 0133     		adds	r3, r3, #1
 612 0058 6B60     		str	r3, [r5, #4]
 613              		.loc 1 127 5 is_stmt 1 view .LVU174
 614              	.LVL39:
 615              	.LBB187:
 616              	.LBI184:
 617              		.loc 1 52 13 view .LVU175
 618              	.LBB186:
 619              		.loc 1 53 3 view .LVU176
 620              		.loc 1 53 6 is_stmt 0 view .LVU177
 621 005a 08B1     		cbz	r0, .L101
 622              		.loc 1 53 37 view .LVU178
 623 005c 0378     		ldrb	r3, [r0]	@ zero_extendqisi2
 624              		.loc 1 53 33 view .LVU179
 625 005e 73B9     		cbnz	r3, .L144
 626              	.L101:
 627              	.LVL40:
ARM GAS  C:\Users\DEVELO~1\AppData\Local\Temp\cc0xWqQh.s 			page 12


 628              		.loc 1 53 33 view .LVU180
 629              	.LBE186:
 630              	.LBE187:
 631              	.LBE161:
 632              		.loc 1 118 37 is_stmt 1 view .LVU181
 633 0060 09F10109 		add	r9, r9, #1
 634              	.LVL41:
 635              		.loc 1 118 30 view .LVU182
 636 0064 B9F1100F 		cmp	r9, #16
 637 0068 D4D1     		bne	.L102
 638              	.L89:
 639              		.loc 1 118 30 is_stmt 0 view .LVU183
 640              	.LBE191:
 641              		.loc 1 131 1 view .LVU184
 642 006a BDE8F087 		pop	{r4, r5, r6, r7, r8, r9, r10, pc}
 643              	.LVL42:
 644              	.L149:
 645              	.LBB192:
 646              	.LBB189:
 647              	.LBB188:
 648              	.LBB182:
 649              	.LBB180:
 650              	.LBB178:
 651              		.loc 1 69 5 is_stmt 1 view .LVU185
 652              	.LBB174:
 653              	.LBI174:
 654              		.loc 1 52 13 view .LVU186
 655              	.LBB175:
 656              		.loc 1 53 3 view .LVU187
 657              		.loc 1 53 6 is_stmt 0 view .LVU188
 658 006e 08B1     		cbz	r0, .L96
 659              		.loc 1 53 37 view .LVU189
 660 0070 0378     		ldrb	r3, [r0]	@ zero_extendqisi2
 661              		.loc 1 53 33 view .LVU190
 662 0072 23B9     		cbnz	r3, .L144
 663              	.L96:
 664              		.loc 1 53 33 view .LVU191
 665              	.LBE175:
 666              	.LBE174:
 667              		.loc 1 72 5 is_stmt 1 view .LVU192
 668 0074 0A20     		movs	r0, #10
 669 0076 FFF7FEFF 		bl	chThdSleep
 670              	.LVL43:
 671              	.LBB176:
 672              	.LBB173:
 673              		.loc 1 53 11 is_stmt 0 view .LVU193
 674 007a E86A     		ldr	r0, [r5, #44]
 675 007c DDE7     		b	.L95
 676              	.LVL44:
 677              	.L144:
 678              	.LBB171:
 679              	.LBI171:
 680              		.loc 1 52 13 is_stmt 1 view .LVU194
 681              	.LBB172:
 682              		.loc 1 54 5 view .LVU195
 683              		.loc 1 54 8 is_stmt 0 view .LVU196
 684 007e 2B7B     		ldrb	r3, [r5, #12]	@ zero_extendqisi2
ARM GAS  C:\Users\DEVELO~1\AppData\Local\Temp\cc0xWqQh.s 			page 13


 685 0080 002B     		cmp	r3, #0
 686 0082 F2D1     		bne	.L89
 687              		.loc 1 55 7 is_stmt 1 view .LVU197
 688              		.loc 1 55 26 is_stmt 0 view .LVU198
 689 0084 0223     		movs	r3, #2
 690 0086 2B73     		strb	r3, [r5, #12]
 691              	.LVL45:
 692              		.loc 1 55 26 view .LVU199
 693              	.LBE172:
 694              	.LBE171:
 695              	.LBE173:
 696              	.LBE176:
 697              	.LBE178:
 698              	.LBE180:
 699              	.LBE182:
 700              	.LBE188:
 701              	.LBE189:
 702              	.LBE192:
 703              		.loc 1 131 1 view .LVU200
 704 0088 BDE8F087 		pop	{r4, r5, r6, r7, r8, r9, r10, pc}
 705              		.loc 1 131 1 view .LVU201
 706              		.cfi_endproc
 707              	.LFE452:
 708              		.size	bist_run_walking.constprop.0, .-bist_run_walking.constprop.0
 709              		.section	.text.bist_service_full,"ax",%progbits
 710              		.align	1
 711              		.p2align 4,,15
 712              		.syntax unified
 713              		.thumb
 714              		.thumb_func
 715              		.type	bist_service_full, %function
 716              	bist_service_full:
 717              	.LVL46:
 718              	.LFB436:
 719              		.loc 1 63 78 is_stmt 1 view -0
 720              		.cfi_startproc
 721              		@ args = 0, pretend = 0, frame = 0
 722              		@ frame_needed = 0, uses_anonymous_args = 0
 723              		.loc 1 63 78 is_stmt 0 view .LVU203
 724 0000 10B5     		push	{r4, lr}
 725              		.cfi_def_cfa_offset 8
 726              		.cfi_offset 4, -8
 727              		.cfi_offset 14, -4
 728              		.loc 1 64 6 view .LVU204
 729 0002 0378     		ldrb	r3, [r0]	@ zero_extendqisi2
 730              		.loc 1 63 78 view .LVU205
 731 0004 0446     		mov	r4, r0
 732              		.loc 1 64 3 is_stmt 1 view .LVU206
 733              		.loc 1 64 6 is_stmt 0 view .LVU207
 734 0006 012B     		cmp	r3, #1
 735 0008 02D1     		bne	.L154
 736              		.loc 1 68 3 is_stmt 1 view .LVU208
 737              		.loc 1 68 6 is_stmt 0 view .LVU209
 738 000a 09B1     		cbz	r1, .L154
 739              		.loc 1 68 40 discriminator 1 view .LVU210
 740 000c 89B2     		uxth	r1, r1
 741              	.LVL47:
ARM GAS  C:\Users\DEVELO~1\AppData\Local\Temp\cc0xWqQh.s 			page 14


 742              		.loc 1 68 25 discriminator 1 view .LVU211
 743 000e 51B1     		cbz	r1, .L180
 744              	.LVL48:
 745              	.L154:
 746              		.loc 1 75 3 is_stmt 1 view .LVU212
 747              	.LBB207:
 748              	.LBI207:
 749              		.loc 1 52 13 view .LVU213
 750              	.LBB208:
 751              		.loc 1 53 3 view .LVU214
 752              		.loc 1 53 11 is_stmt 0 view .LVU215
 753 0010 E36A     		ldr	r3, [r4, #44]
 754              		.loc 1 53 6 view .LVU216
 755 0012 0BB1     		cbz	r3, .L162
 756              		.loc 1 53 37 view .LVU217
 757 0014 1B78     		ldrb	r3, [r3]	@ zero_extendqisi2
 758              		.loc 1 53 33 view .LVU218
 759 0016 0BB9     		cbnz	r3, .L181
 760              	.L162:
 761              		.loc 1 53 33 view .LVU219
 762 0018 0120     		movs	r0, #1
 763              	.LBE208:
 764              	.LBE207:
 765              		.loc 1 76 1 view .LVU220
 766 001a 10BD     		pop	{r4, pc}
 767              	.LVL49:
 768              	.L181:
 769              	.LBB215:
 770              	.LBB213:
 771              	.LBB209:
 772              	.LBI209:
 773              		.loc 1 52 13 is_stmt 1 view .LVU221
 774              	.LBB210:
 775              		.loc 1 54 5 view .LVU222
 776              		.loc 1 54 8 is_stmt 0 view .LVU223
 777 001c 207B     		ldrb	r0, [r4, #12]	@ zero_extendqisi2
 778 001e 50B9     		cbnz	r0, .L163
 779              		.loc 1 55 7 is_stmt 1 view .LVU224
 780              		.loc 1 55 26 is_stmt 0 view .LVU225
 781 0020 0223     		movs	r3, #2
 782 0022 2373     		strb	r3, [r4, #12]
 783              	.LBE210:
 784              	.LBE209:
 785              	.LBE213:
 786              	.LBE215:
 787              		.loc 1 76 1 view .LVU226
 788 0024 10BD     		pop	{r4, pc}
 789              	.LVL50:
 790              	.L180:
 791              		.loc 1 69 5 is_stmt 1 view .LVU227
 792              	.LBB216:
 793              	.LBI216:
 794              		.loc 1 52 13 view .LVU228
 795              	.LBB217:
 796              		.loc 1 53 3 view .LVU229
 797              		.loc 1 53 11 is_stmt 0 view .LVU230
 798 0026 C36A     		ldr	r3, [r0, #44]
ARM GAS  C:\Users\DEVELO~1\AppData\Local\Temp\cc0xWqQh.s 			page 15


 799              		.loc 1 53 6 view .LVU231
 800 0028 0BB1     		cbz	r3, .L155
 801              		.loc 1 53 37 view .LVU232
 802 002a 1B78     		ldrb	r3, [r3]	@ zero_extendqisi2
 803              		.loc 1 53 33 view .LVU233
 804 002c 2BB9     		cbnz	r3, .L182
 805              	.L155:
 806              	.LVL51:
 807              		.loc 1 53 33 view .LVU234
 808              	.LBE217:
 809              	.LBE216:
 810              		.loc 1 72 5 is_stmt 1 view .LVU235
 811 002e 0A20     		movs	r0, #10
 812              	.LVL52:
 813              		.loc 1 72 5 is_stmt 0 view .LVU236
 814 0030 FFF7FEFF 		bl	chThdSleep
 815              	.LVL53:
 816 0034 ECE7     		b	.L154
 817              	.LVL54:
 818              	.L163:
 819              	.LBB221:
 820              	.LBB214:
 821              	.LBB212:
 822              	.LBB211:
 823              		.loc 1 72 5 view .LVU237
 824 0036 0020     		movs	r0, #0
 825              	.LVL55:
 826              		.loc 1 72 5 view .LVU238
 827              	.LBE211:
 828              	.LBE212:
 829              	.LBE214:
 830              	.LBE221:
 831              		.loc 1 76 1 view .LVU239
 832 0038 10BD     		pop	{r4, pc}
 833              	.LVL56:
 834              	.L182:
 835              	.LBB222:
 836              	.LBB220:
 837              	.LBB218:
 838              	.LBI218:
 839              		.loc 1 52 13 is_stmt 1 view .LVU240
 840              	.LBB219:
 841              		.loc 1 54 5 view .LVU241
 842              		.loc 1 54 8 is_stmt 0 view .LVU242
 843 003a 007B     		ldrb	r0, [r0, #12]	@ zero_extendqisi2
 844              	.LVL57:
 845              		.loc 1 54 8 view .LVU243
 846 003c 10B9     		cbnz	r0, .L160
 847              		.loc 1 55 7 is_stmt 1 view .LVU244
 848              		.loc 1 55 26 is_stmt 0 view .LVU245
 849 003e 0222     		movs	r2, #2
 850 0040 2273     		strb	r2, [r4, #12]
 851              	.LVL58:
 852              		.loc 1 55 26 view .LVU246
 853              	.LBE219:
 854              	.LBE218:
 855              	.LBE220:
ARM GAS  C:\Users\DEVELO~1\AppData\Local\Temp\cc0xWqQh.s 			page 16


 856              	.LBE222:
 857              		.loc 1 76 1 view .LVU247
 858 0042 10BD     		pop	{r4, pc}
 859              	.LVL59:
 860              	.L160:
 861              		.loc 1 70 14 view .LVU248
 862 0044 0846     		mov	r0, r1
 863              	.LVL60:
 864              		.loc 1 76 1 view .LVU249
 865 0046 10BD     		pop	{r4, pc}
 866              		.loc 1 76 1 view .LVU250
 867              		.cfi_endproc
 868              	.LFE436:
 869              		.size	bist_service_full, .-bist_service_full
 870              		.section	.text.bist_run_stress_sequential_offset.constprop.0,"ax",%progbits
 871              		.align	1
 872              		.p2align 4,,15
 873              		.syntax unified
 874              		.thumb
 875              		.thumb_func
 876              		.type	bist_run_stress_sequential_offset.constprop.0, %function
 877              	bist_run_stress_sequential_offset.constprop.0:
 878              	.LVL61:
 879              	.LFB454:
 880              		.loc 1 203 13 is_stmt 1 view -0
 881              		.cfi_startproc
 882              		@ args = 0, pretend = 0, frame = 0
 883              		@ frame_needed = 0, uses_anonymous_args = 0
 884              		.loc 1 207 3 view .LVU252
 885              		.loc 1 208 3 view .LVU253
 886              	.LBB249:
 887              		.loc 1 208 8 view .LVU254
 888              		.loc 1 208 26 view .LVU255
 889              	.LBE249:
 890              		.loc 1 207 42 is_stmt 0 view .LVU256
 891 0000 4000     		lsls	r0, r0, #1
 892              	.LVL62:
 893              		.loc 1 203 13 view .LVU257
 894 0002 F8B5     		push	{r3, r4, r5, r6, r7, lr}
 895              		.cfi_def_cfa_offset 24
 896              		.cfi_offset 3, -24
 897              		.cfi_offset 4, -20
 898              		.cfi_offset 5, -16
 899              		.cfi_offset 6, -12
 900              		.cfi_offset 7, -8
 901              		.cfi_offset 14, -4
 902              		.loc 1 207 28 view .LVU258
 903 0004 00F14047 		add	r7, r0, #-1073741824
 904              	.LVL63:
 905              	.LBB262:
 906              		.loc 1 208 17 view .LVU259
 907 0008 0025     		movs	r5, #0
 908              	.LBE262:
 909              		.loc 1 203 13 view .LVU260
 910 000a 0C46     		mov	r4, r1
 911 000c CB6A     		ldr	r3, [r1, #44]
 912              		.loc 1 207 28 view .LVU261
ARM GAS  C:\Users\DEVELO~1\AppData\Local\Temp\cc0xWqQh.s 			page 17


 913 000e 3E46     		mov	r6, r7
 914              	.LVL64:
 915              	.L191:
 916              	.LBB263:
 917              		.loc 1 209 5 is_stmt 1 view .LVU262
 918 0010 AAB2     		uxth	r2, r5
 919              		.loc 1 209 15 is_stmt 0 view .LVU263
 920 0012 3280     		strh	r2, [r6]	@ movhi
 921              		.loc 1 210 5 is_stmt 1 view .LVU264
 922              	.LVL65:
 923              	.LBB250:
 924              	.LBI250:
 925              		.loc 1 63 13 view .LVU265
 926              	.LBB251:
 927              		.loc 1 64 3 view .LVU266
 928              		.loc 1 64 6 is_stmt 0 view .LVU267
 929 0014 2278     		ldrb	r2, [r4]	@ zero_extendqisi2
 930 0016 012A     		cmp	r2, #1
 931 0018 02D1     		bne	.L187
 932              		.loc 1 68 3 is_stmt 1 view .LVU268
 933              		.loc 1 68 6 is_stmt 0 view .LVU269
 934 001a 0DB1     		cbz	r5, .L187
 935              		.loc 1 68 40 view .LVU270
 936 001c AAB2     		uxth	r2, r5
 937              		.loc 1 68 25 view .LVU271
 938 001e 62B3     		cbz	r2, .L231
 939              	.L187:
 940              		.loc 1 75 3 is_stmt 1 view .LVU272
 941              	.LBB252:
 942              	.LBI252:
 943              		.loc 1 52 13 view .LVU273
 944              	.LBB253:
 945              		.loc 1 53 3 view .LVU274
 946              		.loc 1 53 6 is_stmt 0 view .LVU275
 947 0020 0BB1     		cbz	r3, .L185
 948              		.loc 1 53 37 view .LVU276
 949 0022 1A78     		ldrb	r2, [r3]	@ zero_extendqisi2
 950              		.loc 1 53 33 view .LVU277
 951 0024 8ABB     		cbnz	r2, .L226
 952              	.L185:
 953              	.LVL66:
 954              		.loc 1 53 33 view .LVU278
 955              	.LBE253:
 956              	.LBE252:
 957              	.LBE251:
 958              	.LBE250:
 959              		.loc 1 208 35 is_stmt 1 view .LVU279
 960 0026 0135     		adds	r5, r5, #1
 961              	.LVL67:
 962              		.loc 1 208 26 view .LVU280
 963 0028 0236     		adds	r6, r6, #2
 964 002a B5F5003F 		cmp	r5, #131072
 965 002e EFD1     		bne	.L191
 966              	.LBE263:
 967              	.LBB264:
 968              		.loc 1 215 17 is_stmt 0 view .LVU281
 969 0030 0025     		movs	r5, #0
ARM GAS  C:\Users\DEVELO~1\AppData\Local\Temp\cc0xWqQh.s 			page 18


 970              	.LVL68:
 971              	.LBB265:
 972              	.LBB266:
 973              	.LBB267:
 974              		.loc 1 40 22 view .LVU282
 975 0032 0126     		movs	r6, #1
 976              	.LVL69:
 977              	.L195:
 978              		.loc 1 40 22 view .LVU283
 979              	.LBE267:
 980              	.LBE266:
 981              		.loc 1 216 5 is_stmt 1 view .LVU284
 982              		.loc 1 219 7 view .LVU285
 983              		.loc 1 221 5 view .LVU286
 984              		.loc 1 217 20 is_stmt 0 view .LVU287
 985 0034 3B88     		ldrh	r3, [r7]
 986 0036 AAB2     		uxth	r2, r5
 987              	.LVL70:
 988              		.loc 1 217 5 is_stmt 1 view .LVU288
 989              	.LBB270:
 990              	.LBI266:
 991              		.loc 1 31 13 view .LVU289
 992              	.LBB268:
 993              		.loc 1 36 3 view .LVU290
 994              	.LBE268:
 995              	.LBE270:
 996              		.loc 1 222 10 is_stmt 0 view .LVU291
 997 0038 2946     		mov	r1, r5
 998 003a 2046     		mov	r0, r4
 999              		.loc 1 217 20 view .LVU292
 1000 003c 9BB2     		uxth	r3, r3
 1001              	.LVL71:
 1002              		.loc 1 218 5 is_stmt 1 view .LVU293
 1003              	.LBE265:
 1004              		.loc 1 215 35 is_stmt 0 view .LVU294
 1005 003e 0135     		adds	r5, r5, #1
 1006              	.LVL72:
 1007              	.LBB272:
 1008              		.loc 1 218 8 view .LVU295
 1009 0040 9A42     		cmp	r2, r3
 1010 0042 0CD0     		beq	.L193
 1011              	.LVL73:
 1012              	.LBB271:
 1013              	.LBB269:
 1014              		.loc 1 38 5 is_stmt 1 view .LVU296
 1015              		.loc 1 36 19 is_stmt 0 view .LVU297
 1016 0044 A369     		ldr	r3, [r4, #24]
 1017              	.LVL74:
 1018              		.loc 1 37 6 view .LVU298
 1019 0046 94F820C0 		ldrb	ip, [r4, #32]	@ zero_extendqisi2
 1020              		.loc 1 36 19 view .LVU299
 1021 004a 0133     		adds	r3, r3, #1
 1022 004c A361     		str	r3, [r4, #24]
 1023              		.loc 1 37 3 is_stmt 1 view .LVU300
 1024              		.loc 1 37 6 is_stmt 0 view .LVU301
 1025 004e BCF1000F 		cmp	ip, #0
 1026 0052 04D1     		bne	.L193
ARM GAS  C:\Users\DEVELO~1\AppData\Local\Temp\cc0xWqQh.s 			page 19


 1027              		.loc 1 38 30 view .LVU302
 1028 0054 E761     		str	r7, [r4, #28]
 1029              		.loc 1 39 5 is_stmt 1 view .LVU303
 1030              		.loc 1 39 30 is_stmt 0 view .LVU304
 1031 0056 6284     		strh	r2, [r4, #34]	@ movhi
 1032              		.loc 1 40 5 is_stmt 1 view .LVU305
 1033              		.loc 1 40 22 is_stmt 0 view .LVU306
 1034 0058 84F82060 		strb	r6, [r4, #32]
 1035              		.loc 1 41 5 is_stmt 1 view .LVU307
 1036              		.loc 1 41 17 is_stmt 0 view .LVU308
 1037 005c 2673     		strb	r6, [r4, #12]
 1038              	.L193:
 1039              		.loc 1 41 17 view .LVU309
 1040              	.LBE269:
 1041              	.LBE271:
 1042              		.loc 1 221 29 view .LVU310
 1043 005e 2369     		ldr	r3, [r4, #16]
 1044              	.LBE272:
 1045              		.loc 1 215 26 view .LVU311
 1046 0060 0237     		adds	r7, r7, #2
 1047              	.LBB273:
 1048              		.loc 1 221 29 view .LVU312
 1049 0062 0133     		adds	r3, r3, #1
 1050 0064 2361     		str	r3, [r4, #16]
 1051              		.loc 1 222 5 is_stmt 1 view .LVU313
 1052              		.loc 1 222 10 is_stmt 0 view .LVU314
 1053 0066 FFF7FEFF 		bl	bist_service_full
 1054              	.LVL75:
 1055              		.loc 1 222 10 view .LVU315
 1056              	.LBE273:
 1057              		.loc 1 215 35 is_stmt 1 view .LVU316
 1058              		.loc 1 215 26 view .LVU317
 1059              	.LBB274:
 1060              		.loc 1 222 8 is_stmt 0 view .LVU318
 1061 006a 28B1     		cbz	r0, .L183
 1062              	.LBE274:
 1063              		.loc 1 215 26 view .LVU319
 1064 006c B5F5003F 		cmp	r5, #131072
 1065 0070 E0D1     		bne	.L195
 1066              	.LBE264:
 1067              		.loc 1 227 3 is_stmt 1 view .LVU320
 1068              		.loc 1 227 25 is_stmt 0 view .LVU321
 1069 0072 6368     		ldr	r3, [r4, #4]
 1070 0074 0133     		adds	r3, r3, #1
 1071 0076 6360     		str	r3, [r4, #4]
 1072              	.LVL76:
 1073              	.L183:
 1074              		.loc 1 228 1 view .LVU322
 1075 0078 F8BD     		pop	{r3, r4, r5, r6, r7, pc}
 1076              	.LVL77:
 1077              	.L231:
 1078              	.LBB275:
 1079              	.LBB261:
 1080              	.LBB260:
 1081              		.loc 1 69 5 is_stmt 1 view .LVU323
 1082              	.LBB257:
 1083              	.LBI257:
ARM GAS  C:\Users\DEVELO~1\AppData\Local\Temp\cc0xWqQh.s 			page 20


 1084              		.loc 1 52 13 view .LVU324
 1085              	.LBB258:
 1086              		.loc 1 53 3 view .LVU325
 1087              		.loc 1 53 6 is_stmt 0 view .LVU326
 1088 007a 0BB1     		cbz	r3, .L188
 1089              		.loc 1 53 37 view .LVU327
 1090 007c 1B78     		ldrb	r3, [r3]	@ zero_extendqisi2
 1091              		.loc 1 53 33 view .LVU328
 1092 007e 23B9     		cbnz	r3, .L226
 1093              	.L188:
 1094              		.loc 1 53 33 view .LVU329
 1095              	.LBE258:
 1096              	.LBE257:
 1097              		.loc 1 72 5 is_stmt 1 view .LVU330
 1098 0080 0A20     		movs	r0, #10
 1099 0082 FFF7FEFF 		bl	chThdSleep
 1100              	.LVL78:
 1101 0086 E36A     		ldr	r3, [r4, #44]
 1102 0088 CAE7     		b	.L187
 1103              	.L226:
 1104              	.LVL79:
 1105              	.LBB259:
 1106              	.LBB256:
 1107              	.LBB254:
 1108              	.LBI254:
 1109              		.loc 1 52 13 view .LVU331
 1110              	.LBB255:
 1111              		.loc 1 54 5 view .LVU332
 1112              		.loc 1 54 8 is_stmt 0 view .LVU333
 1113 008a 237B     		ldrb	r3, [r4, #12]	@ zero_extendqisi2
 1114 008c 002B     		cmp	r3, #0
 1115 008e F3D1     		bne	.L183
 1116              		.loc 1 55 7 is_stmt 1 view .LVU334
 1117              		.loc 1 55 26 is_stmt 0 view .LVU335
 1118 0090 0223     		movs	r3, #2
 1119 0092 2373     		strb	r3, [r4, #12]
 1120              	.LVL80:
 1121              		.loc 1 55 26 view .LVU336
 1122              	.LBE255:
 1123              	.LBE254:
 1124              	.LBE256:
 1125              	.LBE259:
 1126              	.LBE260:
 1127              	.LBE261:
 1128              	.LBE275:
 1129              		.loc 1 228 1 view .LVU337
 1130 0094 F8BD     		pop	{r3, r4, r5, r6, r7, pc}
 1131              		.loc 1 228 1 view .LVU338
 1132              		.cfi_endproc
 1133              	.LFE454:
 1134              		.size	bist_run_stress_sequential_offset.constprop.0, .-bist_run_stress_sequential_offset.constprop
 1135 0096 00BF     		.section	.text.sdram_bist_start,"ax",%progbits
 1136              		.align	1
 1137              		.p2align 4,,15
 1138              		.global	sdram_bist_start
 1139              		.syntax unified
 1140              		.thumb
ARM GAS  C:\Users\DEVELO~1\AppData\Local\Temp\cc0xWqQh.s 			page 21


 1141              		.thumb_func
 1142              		.type	sdram_bist_start, %function
 1143              	sdram_bist_start:
 1144              	.LVL81:
 1145              	.LFB444:
 1146              		.loc 1 230 50 is_stmt 1 view -0
 1147              		.cfi_startproc
 1148              		@ args = 0, pretend = 0, frame = 0
 1149              		@ frame_needed = 0, uses_anonymous_args = 0
 1150              		.loc 1 231 3 view .LVU340
 1151              		.loc 1 230 50 is_stmt 0 view .LVU341
 1152 0000 2DE9F843 		push	{r3, r4, r5, r6, r7, r8, r9, lr}
 1153              		.cfi_def_cfa_offset 32
 1154              		.cfi_offset 3, -32
 1155              		.cfi_offset 4, -28
 1156              		.cfi_offset 5, -24
 1157              		.cfi_offset 6, -20
 1158              		.cfi_offset 7, -16
 1159              		.cfi_offset 8, -12
 1160              		.cfi_offset 9, -8
 1161              		.cfi_offset 14, -4
 1162              		.loc 1 231 6 view .LVU342
 1163 0004 0446     		mov	r4, r0
 1164 0006 0028     		cmp	r0, #0
 1165 0008 00F0E380 		beq	.L287
 1166              		.loc 1 235 3 is_stmt 1 view .LVU343
 1167              		.loc 1 235 6 is_stmt 0 view .LVU344
 1168 000c 0378     		ldrb	r3, [r0]	@ zero_extendqisi2
 1169              		.loc 1 232 12 view .LVU345
 1170 000e 0025     		movs	r5, #0
 1171              		.loc 1 235 6 view .LVU346
 1172 0010 012B     		cmp	r3, #1
 1173 0012 02D9     		bls	.L430
 1174              	.LVL82:
 1175              	.L393:
 1176              		.loc 1 320 1 view .LVU347
 1177 0014 2846     		mov	r0, r5
 1178 0016 BDE8F883 		pop	{r3, r4, r5, r6, r7, r8, r9, pc}
 1179              	.LVL83:
 1180              	.L430:
 1181              		.loc 1 239 3 is_stmt 1 view .LVU348
 1182              	.LBB414:
 1183              	.LBI414:
 1184              		.loc 1 19 13 view .LVU349
 1185              	.LBB415:
 1186              		.loc 1 20 3 view .LVU350
 1187              		.loc 1 20 15 is_stmt 0 view .LVU351
 1188 001a 0573     		strb	r5, [r0, #12]
 1189              		.loc 1 21 3 is_stmt 1 view .LVU352
 1190              		.loc 1 25 20 is_stmt 0 view .LVU353
 1191 001c 80F82050 		strb	r5, [r0, #32]
 1192              		.loc 1 26 28 view .LVU354
 1193 0020 4584     		strh	r5, [r0, #34]	@ movhi
 1194              		.loc 1 22 29 view .LVU355
 1195 0022 C0E90455 		strd	r5, r5, [r0, #16]
 1196              		.loc 1 23 3 is_stmt 1 view .LVU356
 1197              		.loc 1 24 28 is_stmt 0 view .LVU357
ARM GAS  C:\Users\DEVELO~1\AppData\Local\Temp\cc0xWqQh.s 			page 22


 1198 0026 C0E90655 		strd	r5, r5, [r0, #24]
 1199              		.loc 1 25 3 is_stmt 1 view .LVU358
 1200              		.loc 1 26 3 view .LVU359
 1201              		.loc 1 27 3 view .LVU360
 1202              	.LBB416:
 1203              	.LBI416:
 1204              		.file 2 "../../../os/rt/include/chvt.h"
 1205              		.loc 2 122 25 view .LVU361
 1206              		.loc 2 127 3 view .LVU362
 1207              	.LBB417:
 1208              	.LBI417:
 1209              		.file 3 "../../../os/hal/osal/rt-nil/chcore_timer.h"
 1210              		.loc 3 111 25 view .LVU363
 1211              	.LBB418:
 1212              		.loc 3 113 3 view .LVU364
 1213              		.loc 3 113 10 is_stmt 0 view .LVU365
 1214 002a FFF7FEFF 		bl	stGetCounter
 1215              	.LVL84:
 1216              		.loc 3 113 10 view .LVU366
 1217              	.LBE418:
 1218              	.LBE417:
 1219              	.LBE416:
 1220              	.LBE415:
 1221              	.LBE414:
 1222              		.loc 1 242 90 view .LVU367
 1223 002e 2378     		ldrb	r3, [r4]	@ zero_extendqisi2
 1224              		.loc 1 249 3 view .LVU368
 1225 0030 2946     		mov	r1, r5
 1226 0032 2246     		mov	r2, r4
 1227              		.loc 1 242 90 view .LVU369
 1228 0034 012B     		cmp	r3, #1
 1229              		.loc 1 240 26 view .LVU370
 1230 0036 6560     		str	r5, [r4, #4]
 1231              		.loc 1 242 90 view .LVU371
 1232 0038 0BBF     		itete	eq
 1233 003a 4FF08077 		moveq	r7, #16777216
 1234 003e 4FF40027 		movne	r7, #524288
 1235 0042 4FF00076 		moveq	r6, #33554432
 1236 0046 4FF48016 		movne	r6, #1048576
 1237              		.loc 1 244 21 view .LVU372
 1238 004a A760     		str	r7, [r4, #8]
 1239              		.loc 1 245 36 view .LVU373
 1240 004c 6761     		str	r7, [r4, #20]
 1241              	.LBB420:
 1242              	.LBB419:
 1243              		.loc 1 28 22 view .LVU374
 1244 004e C4E90900 		strd	r0, r0, [r4, #36]
 1245              	.LVL85:
 1246              		.loc 1 28 22 view .LVU375
 1247              	.LBE419:
 1248              	.LBE420:
 1249              		.loc 1 240 3 is_stmt 1 view .LVU376
 1250              		.loc 1 242 3 view .LVU377
 1251              		.loc 1 243 3 view .LVU378
 1252              		.loc 1 244 3 view .LVU379
 1253              		.loc 1 245 3 view .LVU380
 1254              		.loc 1 246 3 view .LVU381
ARM GAS  C:\Users\DEVELO~1\AppData\Local\Temp\cc0xWqQh.s 			page 23


 1255              		.loc 1 249 3 view .LVU382
 1256 0052 3846     		mov	r0, r7
 1257 0054 FFF7FEFF 		bl	bist_run_constant_pattern.constprop.0
 1258              	.LVL86:
 1259              		.loc 1 250 3 view .LVU383
 1260              	.LBB421:
 1261              	.LBI421:
 1262              		.loc 1 52 13 view .LVU384
 1263              	.LBB422:
 1264              		.loc 1 53 3 view .LVU385
 1265              		.loc 1 53 11 is_stmt 0 view .LVU386
 1266 0058 E36A     		ldr	r3, [r4, #44]
 1267              		.loc 1 53 6 view .LVU387
 1268 005a 2BB1     		cbz	r3, .L235
 1269              		.loc 1 53 37 view .LVU388
 1270 005c 1B78     		ldrb	r3, [r3]	@ zero_extendqisi2
 1271              		.loc 1 53 33 view .LVU389
 1272 005e 03F0FF05 		and	r5, r3, #255
 1273 0062 002B     		cmp	r3, #0
 1274 0064 40F0A580 		bne	.L420
 1275              	.L235:
 1276              	.LVL87:
 1277              		.loc 1 53 33 view .LVU390
 1278              	.LBE422:
 1279              	.LBE421:
 1280              		.loc 1 254 3 is_stmt 1 view .LVU391
 1281 0068 2246     		mov	r2, r4
 1282 006a 4FF6FF71 		movw	r1, #65535
 1283 006e 3846     		mov	r0, r7
 1284 0070 FFF7FEFF 		bl	bist_run_constant_pattern.constprop.0
 1285              	.LVL88:
 1286              		.loc 1 255 3 view .LVU392
 1287              	.LBB423:
 1288              	.LBI423:
 1289              		.loc 1 52 13 view .LVU393
 1290              	.LBB424:
 1291              		.loc 1 53 3 view .LVU394
 1292              		.loc 1 53 11 is_stmt 0 view .LVU395
 1293 0074 E36A     		ldr	r3, [r4, #44]
 1294              		.loc 1 53 6 view .LVU396
 1295 0076 2BB1     		cbz	r3, .L238
 1296              		.loc 1 53 37 view .LVU397
 1297 0078 1B78     		ldrb	r3, [r3]	@ zero_extendqisi2
 1298              		.loc 1 53 33 view .LVU398
 1299 007a 03F0FF05 		and	r5, r3, #255
 1300 007e 002B     		cmp	r3, #0
 1301 0080 40F09780 		bne	.L420
 1302              	.L238:
 1303              	.LVL89:
 1304              		.loc 1 53 33 view .LVU399
 1305              	.LBE424:
 1306              	.LBE423:
 1307              		.loc 1 259 3 is_stmt 1 view .LVU400
 1308 0084 2246     		mov	r2, r4
 1309 0086 4AF6AA21 		movw	r1, #43690
 1310 008a 3846     		mov	r0, r7
 1311 008c FFF7FEFF 		bl	bist_run_constant_pattern.constprop.0
ARM GAS  C:\Users\DEVELO~1\AppData\Local\Temp\cc0xWqQh.s 			page 24


 1312              	.LVL90:
 1313              		.loc 1 260 3 view .LVU401
 1314              	.LBB425:
 1315              	.LBI425:
 1316              		.loc 1 52 13 view .LVU402
 1317              	.LBB426:
 1318              		.loc 1 53 3 view .LVU403
 1319              		.loc 1 53 11 is_stmt 0 view .LVU404
 1320 0090 E36A     		ldr	r3, [r4, #44]
 1321              		.loc 1 53 6 view .LVU405
 1322 0092 2BB1     		cbz	r3, .L241
 1323              		.loc 1 53 37 view .LVU406
 1324 0094 1B78     		ldrb	r3, [r3]	@ zero_extendqisi2
 1325              		.loc 1 53 33 view .LVU407
 1326 0096 03F0FF05 		and	r5, r3, #255
 1327 009a 002B     		cmp	r3, #0
 1328 009c 40F08980 		bne	.L420
 1329              	.L241:
 1330              	.LVL91:
 1331              		.loc 1 53 33 view .LVU408
 1332              	.LBE426:
 1333              	.LBE425:
 1334              		.loc 1 264 3 is_stmt 1 view .LVU409
 1335 00a0 2246     		mov	r2, r4
 1336 00a2 45F25551 		movw	r1, #21845
 1337 00a6 3846     		mov	r0, r7
 1338 00a8 FFF7FEFF 		bl	bist_run_constant_pattern.constprop.0
 1339              	.LVL92:
 1340              		.loc 1 265 3 view .LVU410
 1341              	.LBB427:
 1342              	.LBI427:
 1343              		.loc 1 52 13 view .LVU411
 1344              	.LBB428:
 1345              		.loc 1 53 3 view .LVU412
 1346              		.loc 1 53 11 is_stmt 0 view .LVU413
 1347 00ac E36A     		ldr	r3, [r4, #44]
 1348              		.loc 1 53 6 view .LVU414
 1349 00ae 23B1     		cbz	r3, .L244
 1350              		.loc 1 53 37 view .LVU415
 1351 00b0 1B78     		ldrb	r3, [r3]	@ zero_extendqisi2
 1352              		.loc 1 53 33 view .LVU416
 1353 00b2 03F0FF05 		and	r5, r3, #255
 1354 00b6 002B     		cmp	r3, #0
 1355 00b8 7BD1     		bne	.L420
 1356              	.L244:
 1357              	.LVL93:
 1358              		.loc 1 53 33 view .LVU417
 1359              	.LBE428:
 1360              	.LBE427:
 1361              		.loc 1 271 3 is_stmt 1 view .LVU418
 1362 00ba 2246     		mov	r2, r4
 1363 00bc 0121     		movs	r1, #1
 1364 00be 3846     		mov	r0, r7
 1365 00c0 FFF7FEFF 		bl	bist_run_walking.constprop.0
 1366              	.LVL94:
 1367              		.loc 1 272 3 view .LVU419
 1368              	.LBB429:
ARM GAS  C:\Users\DEVELO~1\AppData\Local\Temp\cc0xWqQh.s 			page 25


 1369              	.LBI429:
 1370              		.loc 1 52 13 view .LVU420
 1371              	.LBB430:
 1372              		.loc 1 53 3 view .LVU421
 1373              		.loc 1 53 11 is_stmt 0 view .LVU422
 1374 00c4 E36A     		ldr	r3, [r4, #44]
 1375              		.loc 1 53 6 view .LVU423
 1376 00c6 23B1     		cbz	r3, .L247
 1377              		.loc 1 53 37 view .LVU424
 1378 00c8 1B78     		ldrb	r3, [r3]	@ zero_extendqisi2
 1379              		.loc 1 53 33 view .LVU425
 1380 00ca 03F0FF05 		and	r5, r3, #255
 1381 00ce 002B     		cmp	r3, #0
 1382 00d0 6FD1     		bne	.L420
 1383              	.L247:
 1384              	.LVL95:
 1385              		.loc 1 53 33 view .LVU426
 1386              	.LBE430:
 1387              	.LBE429:
 1388              		.loc 1 276 3 is_stmt 1 view .LVU427
 1389 00d2 2246     		mov	r2, r4
 1390 00d4 0021     		movs	r1, #0
 1391 00d6 3846     		mov	r0, r7
 1392 00d8 FFF7FEFF 		bl	bist_run_walking.constprop.0
 1393              	.LVL96:
 1394              		.loc 1 277 3 view .LVU428
 1395              	.LBB431:
 1396              	.LBI431:
 1397              		.loc 1 52 13 view .LVU429
 1398              	.LBB432:
 1399              		.loc 1 53 3 view .LVU430
 1400              		.loc 1 53 11 is_stmt 0 view .LVU431
 1401 00dc E56A     		ldr	r5, [r4, #44]
 1402              		.loc 1 53 6 view .LVU432
 1403 00de 25B1     		cbz	r5, .L291
 1404              		.loc 1 53 37 view .LVU433
 1405 00e0 2B78     		ldrb	r3, [r5]	@ zero_extendqisi2
 1406              		.loc 1 53 33 view .LVU434
 1407 00e2 03F0FF05 		and	r5, r3, #255
 1408 00e6 002B     		cmp	r3, #0
 1409 00e8 63D1     		bne	.L420
 1410              	.L291:
 1411              		.loc 1 53 33 view .LVU435
 1412 00ea 4AF6E148 		movw	r8, #44257
 1413              	.LVL97:
 1414              	.L255:
 1415              		.loc 1 53 33 view .LVU436
 1416              	.LBE432:
 1417              	.LBE431:
 1418              	.LBB433:
 1419              	.LBB434:
 1420              	.LBB435:
 1421              	.LBB436:
 1422              		.loc 1 136 5 is_stmt 1 view .LVU437
 1423              		.loc 1 137 5 view .LVU438
 1424              		.loc 1 136 60 is_stmt 0 view .LVU439
 1425 00ee 4FEAD803 		lsr	r3, r8, #3
ARM GAS  C:\Users\DEVELO~1\AppData\Local\Temp\cc0xWqQh.s 			page 26


 1426              		.loc 1 139 10 view .LVU440
 1427 00f2 2946     		mov	r1, r5
 1428 00f4 6A00     		lsls	r2, r5, #1
 1429 00f6 2046     		mov	r0, r4
 1430              		.loc 1 136 14 view .LVU441
 1431 00f8 83EA9803 		eor	r3, r3, r8, lsr #2
 1432              	.LBE436:
 1433              		.loc 1 135 35 view .LVU442
 1434 00fc 0135     		adds	r5, r5, #1
 1435              	.LVL98:
 1436              		.loc 1 135 35 view .LVU443
 1437 00fe 02F14042 		add	r2, r2, #-1073741824
 1438              	.LBB437:
 1439              		.loc 1 136 14 view .LVU444
 1440 0102 88EA0303 		eor	r3, r8, r3
 1441 0106 83EA5813 		eor	r3, r3, r8, lsr #5
 1442              		.loc 1 137 43 view .LVU445
 1443 010a 03F00103 		and	r3, r3, #1
 1444 010e DB03     		lsls	r3, r3, #15
 1445              		.loc 1 137 10 view .LVU446
 1446 0110 43EA5808 		orr	r8, r3, r8, lsr #1
 1447              	.LVL99:
 1448              		.loc 1 138 5 is_stmt 1 view .LVU447
 1449              		.loc 1 138 13 is_stmt 0 view .LVU448
 1450 0114 A2F80080 		strh	r8, [r2]	@ movhi
 1451              		.loc 1 139 5 is_stmt 1 view .LVU449
 1452              		.loc 1 139 10 is_stmt 0 view .LVU450
 1453 0118 FFF7FEFF 		bl	bist_service_full
 1454              	.LVL100:
 1455              		.loc 1 139 10 view .LVU451
 1456              	.LBE437:
 1457              		.loc 1 135 35 is_stmt 1 view .LVU452
 1458              		.loc 1 135 26 view .LVU453
 1459              	.LBB438:
 1460              		.loc 1 139 8 is_stmt 0 view .LVU454
 1461 011c A8B3     		cbz	r0, .L254
 1462              	.LBE438:
 1463              		.loc 1 135 26 view .LVU455
 1464 011e BD42     		cmp	r5, r7
 1465 0120 E5D1     		bne	.L255
 1466              	.LBE435:
 1467              	.LBB439:
 1468              		.loc 1 145 17 view .LVU456
 1469 0122 4FF00009 		mov	r9, #0
 1470              	.LBE439:
 1471              		.loc 1 144 8 view .LVU457
 1472 0126 4AF6E145 		movw	r5, #44257
 1473              	.LVL101:
 1474              	.LBB448:
 1475              	.LBB440:
 1476              	.LBB441:
 1477              	.LBB442:
 1478              		.loc 1 40 22 view .LVU458
 1479 012a 4FF00108 		mov	r8, #1
 1480              	.LVL102:
 1481              	.L260:
 1482              		.loc 1 40 22 view .LVU459
ARM GAS  C:\Users\DEVELO~1\AppData\Local\Temp\cc0xWqQh.s 			page 27


 1483              	.LBE442:
 1484              	.LBE441:
 1485              		.loc 1 146 5 is_stmt 1 view .LVU460
 1486              		.loc 1 147 5 view .LVU461
 1487              		.loc 1 151 7 view .LVU462
 1488              		.loc 1 153 5 view .LVU463
 1489              		.loc 1 146 60 is_stmt 0 view .LVU464
 1490 012e EB08     		lsrs	r3, r5, #3
 1491              		.loc 1 154 10 view .LVU465
 1492 0130 4946     		mov	r1, r9
 1493 0132 4FEA4902 		lsl	r2, r9, #1
 1494 0136 2046     		mov	r0, r4
 1495              		.loc 1 146 14 view .LVU466
 1496 0138 83EA9503 		eor	r3, r3, r5, lsr #2
 1497 013c 09F10109 		add	r9, r9, #1
 1498              	.LVL103:
 1499              		.loc 1 146 14 view .LVU467
 1500 0140 02F14042 		add	r2, r2, #-1073741824
 1501 0144 6B40     		eors	r3, r3, r5
 1502 0146 83EA5513 		eor	r3, r3, r5, lsr #5
 1503              		.loc 1 147 43 view .LVU468
 1504 014a 03F00103 		and	r3, r3, #1
 1505 014e DB03     		lsls	r3, r3, #15
 1506              		.loc 1 147 10 view .LVU469
 1507 0150 43EA5505 		orr	r5, r3, r5, lsr #1
 1508              	.LVL104:
 1509              		.loc 1 148 5 is_stmt 1 view .LVU470
 1510              		.loc 1 149 5 view .LVU471
 1511              	.LBB445:
 1512              	.LBI441:
 1513              		.loc 1 31 13 view .LVU472
 1514              	.LBB443:
 1515              		.loc 1 36 3 view .LVU473
 1516              	.LBE443:
 1517              	.LBE445:
 1518              		.loc 1 149 14 is_stmt 0 view .LVU474
 1519 0154 1388     		ldrh	r3, [r2]
 1520              	.LVL105:
 1521              		.loc 1 149 14 view .LVU475
 1522 0156 9BB2     		uxth	r3, r3
 1523              	.LVL106:
 1524              		.loc 1 150 5 is_stmt 1 view .LVU476
 1525              		.loc 1 150 8 is_stmt 0 view .LVU477
 1526 0158 9D42     		cmp	r5, r3
 1527 015a 0BD0     		beq	.L257
 1528              	.LVL107:
 1529              	.LBB446:
 1530              	.LBB444:
 1531              		.loc 1 38 5 is_stmt 1 view .LVU478
 1532              		.loc 1 36 19 is_stmt 0 view .LVU479
 1533 015c A369     		ldr	r3, [r4, #24]
 1534              	.LVL108:
 1535              		.loc 1 36 19 view .LVU480
 1536 015e 0133     		adds	r3, r3, #1
 1537 0160 A361     		str	r3, [r4, #24]
 1538              		.loc 1 37 3 is_stmt 1 view .LVU481
 1539              		.loc 1 37 6 is_stmt 0 view .LVU482
ARM GAS  C:\Users\DEVELO~1\AppData\Local\Temp\cc0xWqQh.s 			page 28


 1540 0162 94F82030 		ldrb	r3, [r4, #32]	@ zero_extendqisi2
 1541 0166 2BB9     		cbnz	r3, .L257
 1542              		.loc 1 38 30 view .LVU483
 1543 0168 E261     		str	r2, [r4, #28]
 1544              		.loc 1 39 5 is_stmt 1 view .LVU484
 1545              		.loc 1 39 30 is_stmt 0 view .LVU485
 1546 016a 6584     		strh	r5, [r4, #34]	@ movhi
 1547              		.loc 1 40 5 is_stmt 1 view .LVU486
 1548              		.loc 1 40 22 is_stmt 0 view .LVU487
 1549 016c 84F82080 		strb	r8, [r4, #32]
 1550              		.loc 1 41 5 is_stmt 1 view .LVU488
 1551              		.loc 1 41 17 is_stmt 0 view .LVU489
 1552 0170 84F80C80 		strb	r8, [r4, #12]
 1553              	.L257:
 1554              		.loc 1 41 17 view .LVU490
 1555              	.LBE444:
 1556              	.LBE446:
 1557              		.loc 1 153 29 view .LVU491
 1558 0174 2369     		ldr	r3, [r4, #16]
 1559 0176 0133     		adds	r3, r3, #1
 1560 0178 2361     		str	r3, [r4, #16]
 1561              		.loc 1 154 5 is_stmt 1 view .LVU492
 1562              		.loc 1 154 10 is_stmt 0 view .LVU493
 1563 017a FFF7FEFF 		bl	bist_service_full
 1564              	.LVL109:
 1565              		.loc 1 154 10 view .LVU494
 1566              	.LBE440:
 1567              		.loc 1 145 35 is_stmt 1 view .LVU495
 1568              		.loc 1 145 26 view .LVU496
 1569              	.LBB447:
 1570              		.loc 1 154 8 is_stmt 0 view .LVU497
 1571 017e 20B1     		cbz	r0, .L254
 1572              	.LBE447:
 1573              		.loc 1 145 26 view .LVU498
 1574 0180 B945     		cmp	r9, r7
 1575 0182 D4D1     		bne	.L260
 1576              	.LBE448:
 1577              		.loc 1 159 3 is_stmt 1 view .LVU499
 1578              		.loc 1 159 25 is_stmt 0 view .LVU500
 1579 0184 6368     		ldr	r3, [r4, #4]
 1580 0186 0133     		adds	r3, r3, #1
 1581 0188 6360     		str	r3, [r4, #4]
 1582              	.LVL110:
 1583              	.L254:
 1584              		.loc 1 159 25 view .LVU501
 1585              	.LBE434:
 1586              	.LBE433:
 1587              		.loc 1 284 3 is_stmt 1 view .LVU502
 1588              	.LBB449:
 1589              	.LBI449:
 1590              		.loc 1 52 13 view .LVU503
 1591              	.LBB450:
 1592              		.loc 1 53 3 view .LVU504
 1593              		.loc 1 53 11 is_stmt 0 view .LVU505
 1594 018a E36A     		ldr	r3, [r4, #44]
 1595              		.loc 1 53 6 view .LVU506
 1596 018c 1BB1     		cbz	r3, .L261
ARM GAS  C:\Users\DEVELO~1\AppData\Local\Temp\cc0xWqQh.s 			page 29


 1597              		.loc 1 53 37 view .LVU507
 1598 018e 1A78     		ldrb	r2, [r3]	@ zero_extendqisi2
 1599              		.loc 1 53 33 view .LVU508
 1600 0190 02F0FF05 		and	r5, r2, #255
 1601 0194 6AB9     		cbnz	r2, .L420
 1602              	.L261:
 1603              	.LVL111:
 1604              		.loc 1 53 33 view .LVU509
 1605              	.LBE450:
 1606              	.LBE449:
 1607              		.loc 1 289 3 is_stmt 1 view .LVU510
 1608              		.loc 1 289 6 is_stmt 0 view .LVU511
 1609 0196 2278     		ldrb	r2, [r4]	@ zero_extendqisi2
 1610 0198 012A     		cmp	r2, #1
 1611 019a 1ED0     		beq	.L431
 1612              	.L286:
 1613              		.loc 1 318 3 is_stmt 1 view .LVU512
 1614              	.LVL112:
 1615              	.LBB451:
 1616              	.LBI451:
 1617              		.loc 1 45 13 view .LVU513
 1618              	.LBB452:
 1619              		.loc 1 46 3 view .LVU514
 1620              		.loc 1 46 6 is_stmt 0 view .LVU515
 1621 019c A369     		ldr	r3, [r4, #24]
 1622 019e 1BB1     		cbz	r3, .L282
 1623              		.loc 1 46 29 view .LVU516
 1624 01a0 237B     		ldrb	r3, [r4, #12]	@ zero_extendqisi2
 1625 01a2 0BB9     		cbnz	r3, .L282
 1626              		.loc 1 47 5 is_stmt 1 view .LVU517
 1627              		.loc 1 47 17 is_stmt 0 view .LVU518
 1628 01a4 0123     		movs	r3, #1
 1629 01a6 2373     		strb	r3, [r4, #12]
 1630              	.L282:
 1631              		.loc 1 49 3 is_stmt 1 view .LVU519
 1632              	.LBB453:
 1633              	.LBI453:
 1634              		.loc 2 122 25 view .LVU520
 1635              		.loc 2 127 3 view .LVU521
 1636              	.LBB454:
 1637              	.LBI454:
 1638              		.loc 3 111 25 view .LVU522
 1639              	.LBB455:
 1640              		.loc 3 113 3 view .LVU523
 1641              		.loc 3 113 10 is_stmt 0 view .LVU524
 1642 01a8 FFF7FEFF 		bl	stGetCounter
 1643              	.LVL113:
 1644              	.LBE455:
 1645              	.LBE454:
 1646              	.LBE453:
 1647              	.LBE452:
 1648              	.LBE451:
 1649              		.loc 1 319 10 view .LVU525
 1650 01ac 0125     		movs	r5, #1
 1651              	.LBB457:
 1652              	.LBB456:
 1653              		.loc 1 49 22 view .LVU526
ARM GAS  C:\Users\DEVELO~1\AppData\Local\Temp\cc0xWqQh.s 			page 30


 1654 01ae A062     		str	r0, [r4, #40]
 1655              		.loc 1 50 1 view .LVU527
 1656 01b0 30E7     		b	.L393
 1657              	.LVL114:
 1658              	.L420:
 1659              		.loc 1 50 1 view .LVU528
 1660              	.LBE456:
 1661              	.LBE457:
 1662              	.LBB458:
 1663              	.LBB459:
 1664              	.LBB460:
 1665              	.LBB461:
 1666              	.LBI461:
 1667              		.loc 1 52 13 is_stmt 1 view .LVU529
 1668              	.LBB462:
 1669              		.loc 1 54 5 view .LVU530
 1670              		.loc 1 54 8 is_stmt 0 view .LVU531
 1671 01b2 237B     		ldrb	r3, [r4, #12]	@ zero_extendqisi2
 1672 01b4 0BB9     		cbnz	r3, .L280
 1673              		.loc 1 55 7 is_stmt 1 view .LVU532
 1674              		.loc 1 55 26 is_stmt 0 view .LVU533
 1675 01b6 0223     		movs	r3, #2
 1676 01b8 2373     		strb	r3, [r4, #12]
 1677              	.LVL115:
 1678              	.L280:
 1679              		.loc 1 55 26 view .LVU534
 1680              	.LBE462:
 1681              	.LBE461:
 1682              	.LBE460:
 1683              	.LBE459:
 1684              		.loc 1 312 7 is_stmt 1 view .LVU535
 1685              	.LBB464:
 1686              	.LBI464:
 1687              		.loc 1 45 13 view .LVU536
 1688              	.LBB465:
 1689              		.loc 1 46 3 view .LVU537
 1690              		.loc 1 46 6 is_stmt 0 view .LVU538
 1691 01ba A369     		ldr	r3, [r4, #24]
 1692 01bc 1BB1     		cbz	r3, .L281
 1693              		.loc 1 46 29 view .LVU539
 1694 01be 237B     		ldrb	r3, [r4, #12]	@ zero_extendqisi2
 1695 01c0 0BB9     		cbnz	r3, .L281
 1696              		.loc 1 47 5 is_stmt 1 view .LVU540
 1697              		.loc 1 47 17 is_stmt 0 view .LVU541
 1698 01c2 0123     		movs	r3, #1
 1699 01c4 2373     		strb	r3, [r4, #12]
 1700              	.L281:
 1701              		.loc 1 49 3 is_stmt 1 view .LVU542
 1702              	.LBB466:
 1703              	.LBI466:
 1704              		.loc 2 122 25 view .LVU543
 1705              		.loc 2 127 3 view .LVU544
 1706              	.LBB467:
 1707              	.LBI467:
 1708              		.loc 3 111 25 view .LVU545
 1709              	.LBB468:
 1710              		.loc 3 113 3 view .LVU546
ARM GAS  C:\Users\DEVELO~1\AppData\Local\Temp\cc0xWqQh.s 			page 31


 1711              		.loc 3 113 10 is_stmt 0 view .LVU547
 1712 01c6 FFF7FEFF 		bl	stGetCounter
 1713              	.LVL116:
 1714              	.LBE468:
 1715              	.LBE467:
 1716              	.LBE466:
 1717              		.loc 1 49 22 view .LVU548
 1718 01ca A062     		str	r0, [r4, #40]
 1719              	.LBE465:
 1720              	.LBE464:
 1721              	.LBE458:
 1722              		.loc 1 320 1 view .LVU549
 1723 01cc 2846     		mov	r0, r5
 1724 01ce BDE8F883 		pop	{r3, r4, r5, r6, r7, r8, r9, pc}
 1725              	.LVL117:
 1726              	.L287:
 1727              		.loc 1 232 12 view .LVU550
 1728 01d2 0546     		mov	r5, r0
 1729              		.loc 1 320 1 view .LVU551
 1730 01d4 2846     		mov	r0, r5
 1731              	.LVL118:
 1732              		.loc 1 320 1 view .LVU552
 1733 01d6 BDE8F883 		pop	{r3, r4, r5, r6, r7, r8, r9, pc}
 1734              	.LVL119:
 1735              	.L431:
 1736              	.LBB486:
 1737              		.loc 1 290 5 is_stmt 1 view .LVU553
 1738              		.loc 1 291 5 view .LVU554
 1739              		.loc 1 292 5 view .LVU555
 1740              		.loc 1 293 5 view .LVU556
 1741              		.loc 1 295 5 view .LVU557
 1742              	.LBB469:
 1743              	.LBI469:
 1744              		.loc 1 162 13 view .LVU558
 1745              	.LBB470:
 1746              		.loc 1 163 3 view .LVU559
 1747              		.loc 1 167 3 view .LVU560
 1748              		.loc 1 168 3 view .LVU561
 1749              		.loc 1 168 22 is_stmt 0 view .LVU562
 1750 01da 07F1404C 		add	ip, r7, #-1073741824
 1751              	.LVL120:
 1752              		.loc 1 170 3 is_stmt 1 view .LVU563
 1753              		.loc 1 170 13 is_stmt 0 view .LVU564
 1754 01de 4FF04045 		mov	r5, #-1073741824
 1755              		.loc 1 171 13 view .LVU565
 1756 01e2 45F6A521 		movw	r1, #23205
 1757              		.loc 1 170 13 view .LVU566
 1758 01e6 4AF25A5E 		movw	lr, #42330
 1759 01ea A5F800E0 		strh	lr, [r5]	@ movhi
 1760              		.loc 1 171 3 is_stmt 1 view .LVU567
 1761              		.loc 1 171 13 is_stmt 0 view .LVU568
 1762 01ee ACF80010 		strh	r1, [ip]	@ movhi
 1763              		.loc 1 173 3 is_stmt 1 view .LVU569
 1764              		.loc 1 173 18 is_stmt 0 view .LVU570
 1765 01f2 2888     		ldrh	r0, [r5]
 1766              		.loc 1 174 18 view .LVU571
 1767 01f4 BCF80010 		ldrh	r1, [ip]
ARM GAS  C:\Users\DEVELO~1\AppData\Local\Temp\cc0xWqQh.s 			page 32


 1768              		.loc 1 173 18 view .LVU572
 1769 01f8 80B2     		uxth	r0, r0
 1770              	.LVL121:
 1771              		.loc 1 174 3 is_stmt 1 view .LVU573
 1772              		.loc 1 174 18 is_stmt 0 view .LVU574
 1773 01fa 89B2     		uxth	r1, r1
 1774              	.LVL122:
 1775              		.loc 1 176 3 is_stmt 1 view .LVU575
 1776              		.loc 1 176 6 is_stmt 0 view .LVU576
 1777 01fc 8842     		cmp	r0, r1
 1778 01fe 52D0     		beq	.L432
 1779              		.loc 1 183 5 is_stmt 1 view .LVU577
 1780              		.loc 1 183 8 is_stmt 0 view .LVU578
 1781 0200 7045     		cmp	r0, lr
 1782 0202 0BD0     		beq	.L267
 1783              		.loc 1 184 7 is_stmt 1 view .LVU579
 1784              	.LVL123:
 1785              	.LBB471:
 1786              	.LBI471:
 1787              		.loc 1 31 13 view .LVU580
 1788              	.LBB472:
 1789              		.loc 1 36 3 view .LVU581
 1790              		.loc 1 36 19 is_stmt 0 view .LVU582
 1791 0204 A069     		ldr	r0, [r4, #24]
 1792              	.LVL124:
 1793              		.loc 1 36 19 view .LVU583
 1794 0206 0130     		adds	r0, r0, #1
 1795 0208 A061     		str	r0, [r4, #24]
 1796              		.loc 1 37 3 is_stmt 1 view .LVU584
 1797              		.loc 1 37 6 is_stmt 0 view .LVU585
 1798 020a 94F82000 		ldrb	r0, [r4, #32]	@ zero_extendqisi2
 1799 020e 28B9     		cbnz	r0, .L267
 1800              		.loc 1 38 5 is_stmt 1 view .LVU586
 1801              		.loc 1 38 30 is_stmt 0 view .LVU587
 1802 0210 E561     		str	r5, [r4, #28]
 1803              		.loc 1 39 5 is_stmt 1 view .LVU588
 1804              		.loc 1 39 30 is_stmt 0 view .LVU589
 1805 0212 A4F822E0 		strh	lr, [r4, #34]	@ movhi
 1806              		.loc 1 40 5 is_stmt 1 view .LVU590
 1807              		.loc 1 40 22 is_stmt 0 view .LVU591
 1808 0216 84F82020 		strb	r2, [r4, #32]
 1809              		.loc 1 41 5 is_stmt 1 view .LVU592
 1810              		.loc 1 41 17 is_stmt 0 view .LVU593
 1811 021a 2273     		strb	r2, [r4, #12]
 1812              	.LVL125:
 1813              	.L267:
 1814              		.loc 1 41 17 view .LVU594
 1815              	.LBE472:
 1816              	.LBE471:
 1817              		.loc 1 190 5 is_stmt 1 view .LVU595
 1818              		.loc 1 190 8 is_stmt 0 view .LVU596
 1819 021c 45F6A520 		movw	r0, #23205
 1820 0220 8142     		cmp	r1, r0
 1821 0222 0CD0     		beq	.L265
 1822              		.loc 1 191 7 is_stmt 1 view .LVU597
 1823              	.LVL126:
 1824              	.LBB473:
ARM GAS  C:\Users\DEVELO~1\AppData\Local\Temp\cc0xWqQh.s 			page 33


 1825              	.LBI473:
 1826              		.loc 1 31 13 view .LVU598
 1827              	.LBB474:
 1828              		.loc 1 36 3 view .LVU599
 1829              		.loc 1 36 19 is_stmt 0 view .LVU600
 1830 0224 A269     		ldr	r2, [r4, #24]
 1831 0226 0132     		adds	r2, r2, #1
 1832 0228 A261     		str	r2, [r4, #24]
 1833              		.loc 1 37 3 is_stmt 1 view .LVU601
 1834              		.loc 1 37 6 is_stmt 0 view .LVU602
 1835 022a 94F82020 		ldrb	r2, [r4, #32]	@ zero_extendqisi2
 1836 022e 32B9     		cbnz	r2, .L265
 1837              		.loc 1 38 5 is_stmt 1 view .LVU603
 1838              		.loc 1 40 22 is_stmt 0 view .LVU604
 1839 0230 0122     		movs	r2, #1
 1840              		.loc 1 38 30 view .LVU605
 1841 0232 C4F81CC0 		str	ip, [r4, #28]
 1842              		.loc 1 39 5 is_stmt 1 view .LVU606
 1843              		.loc 1 39 30 is_stmt 0 view .LVU607
 1844 0236 6084     		strh	r0, [r4, #34]	@ movhi
 1845              		.loc 1 40 5 is_stmt 1 view .LVU608
 1846              		.loc 1 40 22 is_stmt 0 view .LVU609
 1847 0238 84F82020 		strb	r2, [r4, #32]
 1848              		.loc 1 41 5 is_stmt 1 view .LVU610
 1849              		.loc 1 41 17 is_stmt 0 view .LVU611
 1850 023c 2273     		strb	r2, [r4, #12]
 1851              	.LVL127:
 1852              	.L265:
 1853              		.loc 1 41 17 view .LVU612
 1854              	.LBE474:
 1855              	.LBE473:
 1856              		.loc 1 199 3 is_stmt 1 view .LVU613
 1857              		.loc 1 199 25 is_stmt 0 view .LVU614
 1858 023e 6268     		ldr	r2, [r4, #4]
 1859 0240 0132     		adds	r2, r2, #1
 1860 0242 6260     		str	r2, [r4, #4]
 1861              		.loc 1 200 3 is_stmt 1 view .LVU615
 1862              		.loc 1 200 28 is_stmt 0 view .LVU616
 1863 0244 2269     		ldr	r2, [r4, #16]
 1864 0246 0232     		adds	r2, r2, #2
 1865 0248 2261     		str	r2, [r4, #16]
 1866              	.LVL128:
 1867              		.loc 1 200 28 view .LVU617
 1868              	.LBE470:
 1869              	.LBE469:
 1870              		.loc 1 296 5 is_stmt 1 view .LVU618
 1871              	.LBB478:
 1872              	.LBI478:
 1873              		.loc 1 52 13 view .LVU619
 1874              	.LBB479:
 1875              		.loc 1 53 3 view .LVU620
 1876              		.loc 1 53 6 is_stmt 0 view .LVU621
 1877 024a 23B1     		cbz	r3, .L270
 1878              		.loc 1 53 37 view .LVU622
 1879 024c 1B78     		ldrb	r3, [r3]	@ zero_extendqisi2
 1880              		.loc 1 53 33 view .LVU623
 1881 024e 03F0FF05 		and	r5, r3, #255
ARM GAS  C:\Users\DEVELO~1\AppData\Local\Temp\cc0xWqQh.s 			page 34


 1882 0252 002B     		cmp	r3, #0
 1883 0254 ADD1     		bne	.L420
 1884              	.L270:
 1885              	.LVL129:
 1886              		.loc 1 53 33 view .LVU624
 1887              	.LBE479:
 1888              	.LBE478:
 1889              		.loc 1 300 5 is_stmt 1 view .LVU625
 1890 0256 2146     		mov	r1, r4
 1891 0258 0020     		movs	r0, #0
 1892 025a FFF7FEFF 		bl	bist_run_stress_sequential_offset.constprop.0
 1893              	.LVL130:
 1894              		.loc 1 301 5 view .LVU626
 1895              	.LBB480:
 1896              	.LBI480:
 1897              		.loc 1 52 13 view .LVU627
 1898              	.LBB481:
 1899              		.loc 1 53 3 view .LVU628
 1900              		.loc 1 53 11 is_stmt 0 view .LVU629
 1901 025e E36A     		ldr	r3, [r4, #44]
 1902              		.loc 1 53 6 view .LVU630
 1903 0260 23B1     		cbz	r3, .L273
 1904              		.loc 1 53 37 view .LVU631
 1905 0262 1B78     		ldrb	r3, [r3]	@ zero_extendqisi2
 1906              		.loc 1 53 33 view .LVU632
 1907 0264 03F0FF05 		and	r5, r3, #255
 1908 0268 002B     		cmp	r3, #0
 1909 026a A2D1     		bne	.L420
 1910              	.L273:
 1911              	.LVL131:
 1912              		.loc 1 53 33 view .LVU633
 1913              	.LBE481:
 1914              	.LBE480:
 1915              		.loc 1 305 5 is_stmt 1 view .LVU634
 1916              		.loc 1 292 79 is_stmt 0 view .LVU635
 1917 026c B008     		lsrs	r0, r6, #2
 1918              		.loc 1 305 5 view .LVU636
 1919 026e 2146     		mov	r1, r4
 1920 0270 A0F58030 		sub	r0, r0, #65536
 1921 0274 FFF7FEFF 		bl	bist_run_stress_sequential_offset.constprop.0
 1922              	.LVL132:
 1923              		.loc 1 306 5 is_stmt 1 view .LVU637
 1924              	.LBB482:
 1925              	.LBI482:
 1926              		.loc 1 52 13 view .LVU638
 1927              	.LBB483:
 1928              		.loc 1 53 3 view .LVU639
 1929              		.loc 1 53 11 is_stmt 0 view .LVU640
 1930 0278 E36A     		ldr	r3, [r4, #44]
 1931              		.loc 1 53 6 view .LVU641
 1932 027a 23B1     		cbz	r3, .L276
 1933              		.loc 1 53 37 view .LVU642
 1934 027c 1B78     		ldrb	r3, [r3]	@ zero_extendqisi2
 1935              		.loc 1 53 33 view .LVU643
 1936 027e 03F0FF05 		and	r5, r3, #255
 1937 0282 002B     		cmp	r3, #0
 1938 0284 95D1     		bne	.L420
ARM GAS  C:\Users\DEVELO~1\AppData\Local\Temp\cc0xWqQh.s 			page 35


 1939              	.L276:
 1940              	.LVL133:
 1941              		.loc 1 53 33 view .LVU644
 1942              	.LBE483:
 1943              	.LBE482:
 1944              		.loc 1 310 5 is_stmt 1 view .LVU645
 1945 0286 2146     		mov	r1, r4
 1946 0288 A7F50030 		sub	r0, r7, #131072
 1947 028c FFF7FEFF 		bl	bist_run_stress_sequential_offset.constprop.0
 1948              	.LVL134:
 1949              		.loc 1 311 5 view .LVU646
 1950              	.LBB484:
 1951              	.LBI459:
 1952              		.loc 1 52 13 view .LVU647
 1953              	.LBB463:
 1954              		.loc 1 53 3 view .LVU648
 1955              		.loc 1 53 11 is_stmt 0 view .LVU649
 1956 0290 E36A     		ldr	r3, [r4, #44]
 1957              		.loc 1 53 6 view .LVU650
 1958 0292 23B1     		cbz	r3, .L279
 1959              		.loc 1 53 37 view .LVU651
 1960 0294 1B78     		ldrb	r3, [r3]	@ zero_extendqisi2
 1961              		.loc 1 53 33 view .LVU652
 1962 0296 03F0FF05 		and	r5, r3, #255
 1963 029a 002B     		cmp	r3, #0
 1964 029c 89D1     		bne	.L420
 1965              	.L279:
 1966              	.LVL135:
 1967              		.loc 1 53 33 view .LVU653
 1968              	.LBE463:
 1969              	.LBE484:
 1970              		.loc 1 315 5 is_stmt 1 view .LVU654
 1971 029e 0A20     		movs	r0, #10
 1972 02a0 FFF7FEFF 		bl	chThdSleep
 1973              	.LVL136:
 1974 02a4 7AE7     		b	.L286
 1975              	.LVL137:
 1976              	.L432:
 1977              	.LBB485:
 1978              	.LBB477:
 1979              		.loc 1 177 5 view .LVU655
 1980              	.LBB475:
 1981              	.LBI475:
 1982              		.loc 1 31 13 view .LVU656
 1983              	.LBB476:
 1984              		.loc 1 36 3 view .LVU657
 1985              		.loc 1 36 19 is_stmt 0 view .LVU658
 1986 02a6 A169     		ldr	r1, [r4, #24]
 1987              	.LVL138:
 1988              		.loc 1 36 19 view .LVU659
 1989 02a8 0131     		adds	r1, r1, #1
 1990 02aa A161     		str	r1, [r4, #24]
 1991              		.loc 1 37 3 is_stmt 1 view .LVU660
 1992              		.loc 1 37 6 is_stmt 0 view .LVU661
 1993 02ac 94F82010 		ldrb	r1, [r4, #32]	@ zero_extendqisi2
 1994 02b0 0029     		cmp	r1, #0
 1995 02b2 C4D1     		bne	.L265
ARM GAS  C:\Users\DEVELO~1\AppData\Local\Temp\cc0xWqQh.s 			page 36


 1996              		.loc 1 38 5 is_stmt 1 view .LVU662
 1997              		.loc 1 41 17 is_stmt 0 view .LVU663
 1998 02b4 2273     		strb	r2, [r4, #12]
 1999              		.loc 1 40 22 view .LVU664
 2000 02b6 0222     		movs	r2, #2
 2001              		.loc 1 38 30 view .LVU665
 2002 02b8 E561     		str	r5, [r4, #28]
 2003              		.loc 1 39 5 is_stmt 1 view .LVU666
 2004              		.loc 1 39 30 is_stmt 0 view .LVU667
 2005 02ba A4F822E0 		strh	lr, [r4, #34]	@ movhi
 2006              		.loc 1 40 5 is_stmt 1 view .LVU668
 2007              		.loc 1 40 22 is_stmt 0 view .LVU669
 2008 02be 84F82020 		strb	r2, [r4, #32]
 2009              		.loc 1 41 5 is_stmt 1 view .LVU670
 2010 02c2 BCE7     		b	.L265
 2011              	.LBE476:
 2012              	.LBE475:
 2013              	.LBE477:
 2014              	.LBE485:
 2015              	.LBE486:
 2016              		.cfi_endproc
 2017              	.LFE444:
 2018              		.size	sdram_bist_start, .-sdram_bist_start
 2019              		.text
 2020              	.Letext0:
 2021              		.file 4 "c:\\chibistudio\\tools\\gnu tools arm embedded\\11.3 2022.08\\arm-none-eabi\\include\\mac
 2022              		.file 5 "c:\\chibistudio\\tools\\gnu tools arm embedded\\11.3 2022.08\\arm-none-eabi\\include\\sys
 2023              		.file 6 "../../../os/rt/include/chtime.h"
 2024              		.file 7 "drivers/sdram/sdram_driver.h"
 2025              		.file 8 "drivers/sdram/sdram_driver_priv.h"
 2026              		.file 9 "../../../os/hal/include/hal_st.h"
 2027              		.file 10 "../../../os/rt/include/chthreads.h"