ARM GAS  C:\Users\DEVELO~1\AppData\Local\Temp\ccZ9ZH2F.s 			page 1


   1              		.cpu cortex-m7
   2              		.arch armv7e-m
   3              		.fpu softvfp
   4              		.eabi_attribute 20, 1
   5              		.eabi_attribute 21, 1
   6              		.eabi_attribute 23, 3
   7              		.eabi_attribute 24, 1
   8              		.eabi_attribute 25, 1
   9              		.eabi_attribute 26, 1
  10              		.eabi_attribute 30, 2
  11              		.eabi_attribute 34, 1
  12              		.eabi_attribute 18, 4
  13              		.file	"sdram_hw_minimal.c"
  14              		.text
  15              	.Ltext0:
  16              		.cfi_sections	.debug_frame
  17              		.section	.text.sdram_init_minimal,"ax",%progbits
  18              		.align	1
  19              		.p2align 4,,15
  20              		.global	sdram_init_minimal
  21              		.syntax unified
  22              		.thumb
  23              		.thumb_func
  24              		.type	sdram_init_minimal, %function
  25              	sdram_init_minimal:
  26              	.LFB434:
  27              		.file 1 "drivers/sdram/sdram_hw_minimal.c"
  28              		.loc 1 82 1 view -0
  29              		.cfi_startproc
  30              		@ args = 0, pretend = 0, frame = 0
  31              		@ frame_needed = 0, uses_anonymous_args = 0
  32              		.loc 1 84 5 view .LVU1
  33              		.loc 1 84 18 is_stmt 0 view .LVU2
  34 0000 2B4B     		ldr	r3, .L34
  35 0002 D3F8D420 		ldr	r2, [r3, #212]
  36 0006 42F48052 		orr	r2, r2, #4096
  37              		.loc 1 82 1 view .LVU3
  38 000a 10B5     		push	{r4, lr}
  39              		.cfi_def_cfa_offset 8
  40              		.cfi_offset 4, -8
  41              		.cfi_offset 14, -4
  42              		.loc 1 84 18 view .LVU4
  43 000c C3F8D420 		str	r2, [r3, #212]
  44              		.loc 1 85 5 is_stmt 1 view .LVU5
  45 0010 D3F8D430 		ldr	r3, [r3, #212]
  46              		.loc 1 86 5 view .LVU6
  47              	.LBB40:
  48              	.LBI40:
  49              		.file 2 "../../../os/common/ext/ARM/CMSIS/Core/Include/cmsis_gcc.h"
  50              		.loc 2 877 27 view .LVU7
  51              	.LBB41:
  52              		.loc 2 879 3 view .LVU8
  53              		.syntax unified
  54              	@ 879 "../../../os/common/ext/ARM/CMSIS/Core/Include/cmsis_gcc.h" 1
  55 0014 BFF34F8F 		dsb 0xF
  56              	@ 0 "" 2
  57              		.thumb
ARM GAS  C:\Users\DEVELO~1\AppData\Local\Temp\ccZ9ZH2F.s 			page 2


  58              		.syntax unified
  59              	.LBE41:
  60              	.LBE40:
  61              		.loc 1 87 5 view .LVU9
  62              	.LBB42:
  63              	.LBI42:
  64              		.loc 2 866 27 view .LVU10
  65              	.LBB43:
  66              		.loc 2 868 3 view .LVU11
  67              		.syntax unified
  68              	@ 868 "../../../os/common/ext/ARM/CMSIS/Core/Include/cmsis_gcc.h" 1
  69 0018 BFF36F8F 		isb 0xF
  70              	@ 0 "" 2
  71              		.thumb
  72              		.syntax unified
  73              	.LBE43:
  74              	.LBE42:
  75              		.loc 1 98 5 view .LVU12
  76              	.LVL0:
  77              		.loc 1 109 5 view .LVU13
  78              		.loc 1 119 5 view .LVU14
  79              		.loc 1 119 28 is_stmt 0 view .LVU15
  80 001c 254A     		ldr	r2, .L34+4
  81 001e 40F65910 		movw	r0, #2393
  82              		.loc 1 127 26 view .LVU16
  83 0022 2549     		ldr	r1, .L34+8
  84              		.loc 1 120 28 view .LVU17
  85 0024 254B     		ldr	r3, .L34+12
  86              		.loc 1 119 28 view .LVU18
  87 0026 1064     		str	r0, [r2, #64]
  88              		.loc 1 120 5 is_stmt 1 view .LVU19
  89              		.loc 1 120 28 is_stmt 0 view .LVU20
  90 0028 9364     		str	r3, [r2, #72]
  91              		.loc 1 127 5 is_stmt 1 view .LVU21
  92              		.loc 1 127 26 is_stmt 0 view .LVU22
  93 002a 0B68     		ldr	r3, [r1]
  94 002c 43F00043 		orr	r3, r3, #-2147483648
  95 0030 0B60     		str	r3, [r1]
  96              		.loc 1 128 5 is_stmt 1 view .LVU23
  97              	.LBB44:
  98              	.LBI44:
  99              		.loc 2 877 27 view .LVU24
 100              	.LBB45:
 101              		.loc 2 879 3 view .LVU25
 102              		.syntax unified
 103              	@ 879 "../../../os/common/ext/ARM/CMSIS/Core/Include/cmsis_gcc.h" 1
 104 0032 BFF34F8F 		dsb 0xF
 105              	@ 0 "" 2
 106              		.thumb
 107              		.syntax unified
 108              	.LBE45:
 109              	.LBE44:
 110              		.loc 1 129 5 view .LVU26
 111              	.LBB46:
 112              	.LBI46:
 113              		.loc 2 866 27 view .LVU27
 114              	.LBB47:
ARM GAS  C:\Users\DEVELO~1\AppData\Local\Temp\ccZ9ZH2F.s 			page 3


 115              		.loc 2 868 3 view .LVU28
 116              		.syntax unified
 117              	@ 868 "../../../os/common/ext/ARM/CMSIS/Core/Include/cmsis_gcc.h" 1
 118 0036 BFF36F8F 		isb 0xF
 119              	@ 0 "" 2
 120              		.thumb
 121              		.syntax unified
 122              	.LBE47:
 123              	.LBE46:
 124              	.LBB48:
 125              	.LBB49:
 126              	.LBB50:
 127              	.LBB51:
 128              		.loc 1 60 54 view .LVU29
 129              		.loc 1 60 26 is_stmt 0 view .LVU30
 130 003a 936D     		ldr	r3, [r2, #88]
 131              		.loc 1 60 54 view .LVU31
 132 003c 9806     		lsls	r0, r3, #26
 133 003e 03D5     		bpl	.L2
 134              	.L3:
 135              		.loc 1 61 9 is_stmt 1 view .LVU32
 136              		.syntax unified
 137              	@ 61 "drivers/sdram/sdram_hw_minimal.c" 1
 138 0040 00BF     		nop
 139              	@ 0 "" 2
 140              		.loc 1 60 54 view .LVU33
 141              		.loc 1 60 26 is_stmt 0 view .LVU34
 142              		.thumb
 143              		.syntax unified
 144 0042 936D     		ldr	r3, [r2, #88]
 145              		.loc 1 60 54 view .LVU35
 146 0044 9906     		lsls	r1, r3, #26
 147 0046 FBD4     		bmi	.L3
 148              	.L2:
 149              	.LBE51:
 150              	.LBE50:
 151              		.loc 1 71 5 is_stmt 1 view .LVU36
 152              		.loc 1 71 26 is_stmt 0 view .LVU37
 153 0048 1123     		movs	r3, #17
 154 004a 1A4C     		ldr	r4, .L34+4
 155              	.LBE49:
 156              	.LBE48:
 157              		.loc 1 135 5 view .LVU38
 158 004c 0220     		movs	r0, #2
 159              	.LBB53:
 160              	.LBB52:
 161              		.loc 1 71 26 view .LVU39
 162 004e 2365     		str	r3, [r4, #80]
 163              	.LBE52:
 164              	.LBE53:
 165              		.loc 1 135 5 is_stmt 1 view .LVU40
 166 0050 FFF7FEFF 		bl	chThdSleep
 167              	.LVL1:
 168              		.loc 1 138 5 view .LVU41
 169              	.LBB54:
 170              	.LBI54:
 171              		.loc 1 65 13 view .LVU42
ARM GAS  C:\Users\DEVELO~1\AppData\Local\Temp\ccZ9ZH2F.s 			page 4


 172              	.LBB55:
 173              	.LBB56:
 174              	.LBB57:
 175              		.loc 1 60 54 view .LVU43
 176              		.loc 1 60 26 is_stmt 0 view .LVU44
 177 0054 A36D     		ldr	r3, [r4, #88]
 178              		.loc 1 60 54 view .LVU45
 179 0056 9B06     		lsls	r3, r3, #26
 180 0058 03D5     		bpl	.L4
 181              	.L5:
 182              		.loc 1 61 9 is_stmt 1 view .LVU46
 183              		.syntax unified
 184              	@ 61 "drivers/sdram/sdram_hw_minimal.c" 1
 185 005a 00BF     		nop
 186              	@ 0 "" 2
 187              		.loc 1 60 54 view .LVU47
 188              		.loc 1 60 26 is_stmt 0 view .LVU48
 189              		.thumb
 190              		.syntax unified
 191 005c A36D     		ldr	r3, [r4, #88]
 192              		.loc 1 60 54 view .LVU49
 193 005e 9806     		lsls	r0, r3, #26
 194 0060 FBD4     		bmi	.L5
 195              	.L4:
 196              	.LBE57:
 197              	.LBE56:
 198              		.loc 1 71 5 is_stmt 1 view .LVU50
 199              		.loc 1 71 26 is_stmt 0 view .LVU51
 200 0062 144A     		ldr	r2, .L34+4
 201 0064 1223     		movs	r3, #18
 202 0066 1365     		str	r3, [r2, #80]
 203              	.LVL2:
 204              		.loc 1 71 26 view .LVU52
 205              	.LBE55:
 206              	.LBE54:
 207              	.LBB58:
 208              	.LBB59:
 209              	.LBB60:
 210              	.LBB61:
 211              		.loc 1 60 54 is_stmt 1 view .LVU53
 212              		.loc 1 60 26 is_stmt 0 view .LVU54
 213 0068 936D     		ldr	r3, [r2, #88]
 214              		.loc 1 60 54 view .LVU55
 215 006a 9906     		lsls	r1, r3, #26
 216 006c 03D5     		bpl	.L6
 217              	.L7:
 218              		.loc 1 61 9 is_stmt 1 view .LVU56
 219              		.syntax unified
 220              	@ 61 "drivers/sdram/sdram_hw_minimal.c" 1
 221 006e 00BF     		nop
 222              	@ 0 "" 2
 223              		.loc 1 60 54 view .LVU57
 224              		.loc 1 60 26 is_stmt 0 view .LVU58
 225              		.thumb
 226              		.syntax unified
 227 0070 936D     		ldr	r3, [r2, #88]
 228              		.loc 1 60 54 view .LVU59
ARM GAS  C:\Users\DEVELO~1\AppData\Local\Temp\ccZ9ZH2F.s 			page 5


 229 0072 9B06     		lsls	r3, r3, #26
 230 0074 FBD4     		bmi	.L7
 231              	.L6:
 232              	.LBE61:
 233              	.LBE60:
 234              		.loc 1 71 5 is_stmt 1 view .LVU60
 235              		.loc 1 71 26 is_stmt 0 view .LVU61
 236 0076 0F4A     		ldr	r2, .L34+4
 237 0078 3323     		movs	r3, #51
 238 007a 1365     		str	r3, [r2, #80]
 239              	.LBE59:
 240              	.LBE58:
 241              	.LBB62:
 242              	.LBB63:
 243              	.LBB64:
 244              	.LBB65:
 245              		.loc 1 60 54 is_stmt 1 view .LVU62
 246              		.loc 1 60 26 is_stmt 0 view .LVU63
 247 007c 936D     		ldr	r3, [r2, #88]
 248              		.loc 1 60 54 view .LVU64
 249 007e 9C06     		lsls	r4, r3, #26
 250 0080 03D5     		bpl	.L8
 251              	.L9:
 252              		.loc 1 61 9 is_stmt 1 view .LVU65
 253              		.syntax unified
 254              	@ 61 "drivers/sdram/sdram_hw_minimal.c" 1
 255 0082 00BF     		nop
 256              	@ 0 "" 2
 257              		.loc 1 60 54 view .LVU66
 258              		.loc 1 60 26 is_stmt 0 view .LVU67
 259              		.thumb
 260              		.syntax unified
 261 0084 936D     		ldr	r3, [r2, #88]
 262              		.loc 1 60 54 view .LVU68
 263 0086 9806     		lsls	r0, r3, #26
 264 0088 FBD4     		bmi	.L9
 265              	.L8:
 266              	.LBE65:
 267              	.LBE64:
 268              		.loc 1 71 5 is_stmt 1 view .LVU69
 269              		.loc 1 71 26 is_stmt 0 view .LVU70
 270 008a 0A4A     		ldr	r2, .L34+4
 271 008c 3323     		movs	r3, #51
 272 008e 1365     		str	r3, [r2, #80]
 273              	.LBE63:
 274              	.LBE62:
 275              	.LBB66:
 276              	.LBB67:
 277              	.LBB68:
 278              	.LBB69:
 279              		.loc 1 60 54 is_stmt 1 view .LVU71
 280              		.loc 1 60 26 is_stmt 0 view .LVU72
 281 0090 936D     		ldr	r3, [r2, #88]
 282              		.loc 1 60 54 view .LVU73
 283 0092 9906     		lsls	r1, r3, #26
 284 0094 03D5     		bpl	.L10
 285              	.L11:
ARM GAS  C:\Users\DEVELO~1\AppData\Local\Temp\ccZ9ZH2F.s 			page 6


 286              		.loc 1 61 9 is_stmt 1 view .LVU74
 287              		.syntax unified
 288              	@ 61 "drivers/sdram/sdram_hw_minimal.c" 1
 289 0096 00BF     		nop
 290              	@ 0 "" 2
 291              		.loc 1 60 54 view .LVU75
 292              		.loc 1 60 26 is_stmt 0 view .LVU76
 293              		.thumb
 294              		.syntax unified
 295 0098 936D     		ldr	r3, [r2, #88]
 296              		.loc 1 60 54 view .LVU77
 297 009a 9B06     		lsls	r3, r3, #26
 298 009c FBD4     		bmi	.L11
 299              	.L10:
 300              	.LBE69:
 301              	.LBE68:
 302              		.loc 1 71 5 is_stmt 1 view .LVU78
 303              		.loc 1 71 26 is_stmt 0 view .LVU79
 304 009e 054B     		ldr	r3, .L34+4
 305              	.LBE67:
 306              	.LBE66:
 307              		.loc 1 149 26 view .LVU80
 308 00a0 40F2F252 		movw	r2, #1522
 309              	.LBB72:
 310              	.LBB70:
 311              		.loc 1 71 26 view .LVU81
 312 00a4 0649     		ldr	r1, .L34+16
 313              	.LBE70:
 314              	.LBE72:
 315              		.loc 1 154 1 view .LVU82
 316 00a6 0120     		movs	r0, #1
 317              	.LBB73:
 318              	.LBB71:
 319              		.loc 1 71 26 view .LVU83
 320 00a8 1965     		str	r1, [r3, #80]
 321              	.LBE71:
 322              	.LBE73:
 323              		.loc 1 149 5 is_stmt 1 view .LVU84
 324              		.loc 1 149 26 is_stmt 0 view .LVU85
 325 00aa 5A65     		str	r2, [r3, #84]
 326              		.loc 1 153 5 is_stmt 1 view .LVU86
 327              		.loc 1 154 1 is_stmt 0 view .LVU87
 328 00ac 10BD     		pop	{r4, pc}
 329              	.L35:
 330 00ae 00BF     		.align	2
 331              	.L34:
 332 00b0 00440258 		.word	1476543488
 333 00b4 00410052 		.word	1375748352
 334 00b8 00400052 		.word	1375748096
 335 00bc 61641101 		.word	17917025
 336 00c0 14600400 		.word	286740
 337              		.cfi_endproc
 338              	.LFE434:
 339              		.size	sdram_init_minimal, .-sdram_init_minimal
 340              		.text
 341              	.Letext0:
 342              		.file 3 "c:\\chibistudio\\tools\\gnu tools arm embedded\\11.3 2022.08\\arm-none-eabi\\include\\mac
ARM GAS  C:\Users\DEVELO~1\AppData\Local\Temp\ccZ9ZH2F.s 			page 7


 343              		.file 4 "c:\\chibistudio\\tools\\gnu tools arm embedded\\11.3 2022.08\\arm-none-eabi\\include\\sys
 344              		.file 5 "../../../os/rt/include/chtime.h"
 345              		.file 6 "../../../os/common/ext/ST/STM32H7xx/stm32h743xx.h"
 346              		.file 7 "../../../os/rt/include/chthreads.h"
 347              		.section	.debug_info,"",%progbits
 348              	.Ldebug_info0:
 349 0000 E8060000 		.4byte	0x6e8
 350 0004 0500     		.2byte	0x5
 351 0006 01       		.byte	0x1
 352 0007 04       		.byte	0x4
 353 0008 00000000 		.4byte	.Ldebug_abbrev0
 354 000c 13       		.uleb128 0x13
 355 000d 97000000 		.4byte	.LASF96
 356 0011 1D       		.byte	0x1d
 357 0012 6C040000 		.4byte	.LASF97
 358 0016 F4020000 		.4byte	.LASF98
 359 001a 27000000 		.4byte	.LLRL5
 360 001e 00000000 		.4byte	0
 361 0022 00000000 		.4byte	.Ldebug_line0
 362 0026 14       		.uleb128 0x14
 363 0027 04       		.byte	0x4
 364 0028 05       		.byte	0x5
 365 0029 696E7400 		.ascii	"int\000"
 366 002d 02       		.uleb128 0x2
 367 002e 04       		.byte	0x4
 368 002f 07       		.byte	0x7
 369 0030 DE020000 		.4byte	.LASF0
 370 0034 02       		.uleb128 0x2
 371 0035 08       		.byte	0x8
 372 0036 05       		.byte	0x5
 373 0037 4D040000 		.4byte	.LASF1
 374 003b 02       		.uleb128 0x2
 375 003c 08       		.byte	0x8
 376 003d 04       		.byte	0x4
 377 003e 4A020000 		.4byte	.LASF2
 378 0042 02       		.uleb128 0x2
 379 0043 01       		.byte	0x1
 380 0044 06       		.byte	0x6
 381 0045 B9010000 		.4byte	.LASF3
 382 0049 02       		.uleb128 0x2
 383 004a 01       		.byte	0x1
 384 004b 08       		.byte	0x8
 385 004c 65020000 		.4byte	.LASF4
 386 0050 02       		.uleb128 0x2
 387 0051 02       		.byte	0x2
 388 0052 05       		.byte	0x5
 389 0053 4F000000 		.4byte	.LASF5
 390 0057 02       		.uleb128 0x2
 391 0058 02       		.byte	0x2
 392 0059 07       		.byte	0x7
 393 005a 6B030000 		.4byte	.LASF6
 394 005e 02       		.uleb128 0x2
 395 005f 04       		.byte	0x4
 396 0060 05       		.byte	0x5
 397 0061 F7010000 		.4byte	.LASF7
 398 0065 05       		.uleb128 0x5
 399 0066 82000000 		.4byte	.LASF9
ARM GAS  C:\Users\DEVELO~1\AppData\Local\Temp\ccZ9ZH2F.s 			page 8


 400 006a 03       		.byte	0x3
 401 006b 4F       		.byte	0x4f
 402 006c 19       		.byte	0x19
 403 006d 71000000 		.4byte	0x71
 404 0071 02       		.uleb128 0x2
 405 0072 04       		.byte	0x4
 406 0073 07       		.byte	0x7
 407 0074 0E040000 		.4byte	.LASF8
 408 0078 05       		.uleb128 0x5
 409 0079 BF030000 		.4byte	.LASF10
 410 007d 03       		.byte	0x3
 411 007e 69       		.byte	0x69
 412 007f 19       		.byte	0x19
 413 0080 84000000 		.4byte	0x84
 414 0084 02       		.uleb128 0x2
 415 0085 08       		.byte	0x8
 416 0086 07       		.byte	0x7
 417 0087 B5020000 		.4byte	.LASF11
 418 008b 05       		.uleb128 0x5
 419 008c D5020000 		.4byte	.LASF12
 420 0090 04       		.byte	0x4
 421 0091 30       		.byte	0x30
 422 0092 14       		.byte	0x14
 423 0093 65000000 		.4byte	0x65
 424 0097 0B       		.uleb128 0xb
 425 0098 8B000000 		.4byte	0x8b
 426 009c 15       		.uleb128 0x15
 427 009d 8B000000 		.4byte	0x8b
 428 00a1 05       		.uleb128 0x5
 429 00a2 46000000 		.4byte	.LASF13
 430 00a6 04       		.byte	0x4
 431 00a7 3C       		.byte	0x3c
 432 00a8 14       		.byte	0x14
 433 00a9 78000000 		.4byte	0x78
 434 00ad 02       		.uleb128 0x2
 435 00ae 01       		.byte	0x1
 436 00af 08       		.byte	0x8
 437 00b0 7E030000 		.4byte	.LASF14
 438 00b4 05       		.uleb128 0x5
 439 00b5 B1030000 		.4byte	.LASF15
 440 00b9 05       		.byte	0x5
 441 00ba 79       		.byte	0x79
 442 00bb 12       		.byte	0x12
 443 00bc 8B000000 		.4byte	0x8b
 444 00c0 05       		.uleb128 0x5
 445 00c1 60040000 		.4byte	.LASF16
 446 00c5 05       		.byte	0x5
 447 00c6 9B       		.byte	0x9b
 448 00c7 12       		.byte	0x12
 449 00c8 A1000000 		.4byte	0xa1
 450 00cc 07       		.uleb128 0x7
 451 00cd 97000000 		.4byte	0x97
 452 00d1 DC000000 		.4byte	0xdc
 453 00d5 08       		.uleb128 0x8
 454 00d6 2D000000 		.4byte	0x2d
 455 00da 07       		.byte	0x7
 456 00db 00       		.byte	0
ARM GAS  C:\Users\DEVELO~1\AppData\Local\Temp\ccZ9ZH2F.s 			page 9


 457 00dc 0B       		.uleb128 0xb
 458 00dd CC000000 		.4byte	0xcc
 459 00e1 07       		.uleb128 0x7
 460 00e2 8B000000 		.4byte	0x8b
 461 00e6 F1000000 		.4byte	0xf1
 462 00ea 08       		.uleb128 0x8
 463 00eb 2D000000 		.4byte	0x2d
 464 00ef 03       		.byte	0x3
 465 00f0 00       		.byte	0
 466 00f1 07       		.uleb128 0x7
 467 00f2 97000000 		.4byte	0x97
 468 00f6 01010000 		.4byte	0x101
 469 00fa 08       		.uleb128 0x8
 470 00fb 2D000000 		.4byte	0x2d
 471 00ff 01       		.byte	0x1
 472 0100 00       		.byte	0
 473 0101 0B       		.uleb128 0xb
 474 0102 F1000000 		.4byte	0xf1
 475 0106 07       		.uleb128 0x7
 476 0107 8B000000 		.4byte	0x8b
 477 010b 16010000 		.4byte	0x116
 478 010f 08       		.uleb128 0x8
 479 0110 2D000000 		.4byte	0x2d
 480 0114 08       		.byte	0x8
 481 0115 00       		.byte	0
 482 0116 0F       		.uleb128 0xf
 483 0117 20       		.byte	0x20
 484 0118 C603     		.2byte	0x3c6
 485 011a 2C010000 		.4byte	0x12c
 486 011e 01       		.uleb128 0x1
 487 011f 83010000 		.4byte	.LASF18
 488 0123 C803     		.2byte	0x3c8
 489 0125 11       		.byte	0x11
 490 0126 DC000000 		.4byte	0xdc
 491 012a 00       		.byte	0
 492 012b 00       		.byte	0
 493 012c 0C       		.uleb128 0xc
 494 012d 9B010000 		.4byte	.LASF17
 495 0131 C903     		.2byte	0x3c9
 496 0133 16010000 		.4byte	0x116
 497 0137 0F       		.uleb128 0xf
 498 0138 1C       		.byte	0x1c
 499 0139 F503     		.2byte	0x3f5
 500 013b 81010000 		.4byte	0x181
 501 013f 01       		.uleb128 0x1
 502 0140 AA020000 		.4byte	.LASF19
 503 0144 F703     		.2byte	0x3f7
 504 0146 11       		.byte	0x11
 505 0147 01010000 		.4byte	0x101
 506 014b 00       		.byte	0
 507 014c 01       		.uleb128 0x1
 508 014d 37000000 		.4byte	.LASF20
 509 0151 F803     		.2byte	0x3f8
 510 0153 11       		.byte	0x11
 511 0154 01010000 		.4byte	0x101
 512 0158 08       		.byte	0x8
 513 0159 01       		.uleb128 0x1
ARM GAS  C:\Users\DEVELO~1\AppData\Local\Temp\ccZ9ZH2F.s 			page 10


 514 015a 96040000 		.4byte	.LASF21
 515 015e F903     		.2byte	0x3f9
 516 0160 11       		.byte	0x11
 517 0161 97000000 		.4byte	0x97
 518 0165 10       		.byte	0x10
 519 0166 01       		.uleb128 0x1
 520 0167 1D000000 		.4byte	.LASF22
 521 016b FA03     		.2byte	0x3fa
 522 016d 11       		.byte	0x11
 523 016e 97000000 		.4byte	0x97
 524 0172 14       		.byte	0x14
 525 0173 01       		.uleb128 0x1
 526 0174 40040000 		.4byte	.LASF23
 527 0178 FB03     		.2byte	0x3fb
 528 017a 11       		.byte	0x11
 529 017b 97000000 		.4byte	0x97
 530 017f 18       		.byte	0x18
 531 0180 00       		.byte	0
 532 0181 0C       		.uleb128 0xc
 533 0182 56010000 		.4byte	.LASF24
 534 0186 FC03     		.2byte	0x3fc
 535 0188 37010000 		.4byte	0x137
 536 018c 16       		.uleb128 0x16
 537 018d 3001     		.2byte	0x130
 538 018f 06       		.byte	0x6
 539 0190 CE04     		.2byte	0x4ce
 540 0192 09       		.byte	0x9
 541 0193 ED040000 		.4byte	0x4ed
 542 0197 09       		.uleb128 0x9
 543 0198 435200   		.ascii	"CR\000"
 544 019b D004     		.2byte	0x4d0
 545 019d 10       		.byte	0x10
 546 019e 97000000 		.4byte	0x97
 547 01a2 00       		.byte	0
 548 01a3 01       		.uleb128 0x1
 549 01a4 72000000 		.4byte	.LASF25
 550 01a8 D104     		.2byte	0x4d1
 551 01aa 10       		.byte	0x10
 552 01ab 97000000 		.4byte	0x97
 553 01af 04       		.byte	0x4
 554 01b0 01       		.uleb128 0x1
 555 01b1 A4020000 		.4byte	.LASF26
 556 01b5 D204     		.2byte	0x4d2
 557 01b7 10       		.byte	0x10
 558 01b8 97000000 		.4byte	0x97
 559 01bc 08       		.byte	0x8
 560 01bd 01       		.uleb128 0x1
 561 01be 38020000 		.4byte	.LASF27
 562 01c2 D304     		.2byte	0x4d3
 563 01c4 10       		.byte	0x10
 564 01c5 97000000 		.4byte	0x97
 565 01c9 0C       		.byte	0xc
 566 01ca 01       		.uleb128 0x1
 567 01cb 6A010000 		.4byte	.LASF28
 568 01cf D404     		.2byte	0x4d4
 569 01d1 10       		.byte	0x10
 570 01d2 97000000 		.4byte	0x97
ARM GAS  C:\Users\DEVELO~1\AppData\Local\Temp\ccZ9ZH2F.s 			page 11


 571 01d6 10       		.byte	0x10
 572 01d7 01       		.uleb128 0x1
 573 01d8 DD030000 		.4byte	.LASF29
 574 01dc D504     		.2byte	0x4d5
 575 01de 0F       		.byte	0xf
 576 01df 8B000000 		.4byte	0x8b
 577 01e3 14       		.byte	0x14
 578 01e4 01       		.uleb128 0x1
 579 01e5 54030000 		.4byte	.LASF30
 580 01e9 D604     		.2byte	0x4d6
 581 01eb 10       		.byte	0x10
 582 01ec 97000000 		.4byte	0x97
 583 01f0 18       		.byte	0x18
 584 01f1 01       		.uleb128 0x1
 585 01f2 B2040000 		.4byte	.LASF31
 586 01f6 D704     		.2byte	0x4d7
 587 01f8 10       		.byte	0x10
 588 01f9 97000000 		.4byte	0x97
 589 01fd 1C       		.byte	0x1c
 590 01fe 01       		.uleb128 0x1
 591 01ff AD010000 		.4byte	.LASF32
 592 0203 D804     		.2byte	0x4d8
 593 0205 10       		.byte	0x10
 594 0206 97000000 		.4byte	0x97
 595 020a 20       		.byte	0x20
 596 020b 01       		.uleb128 0x1
 597 020c E7030000 		.4byte	.LASF33
 598 0210 D904     		.2byte	0x4d9
 599 0212 0F       		.byte	0xf
 600 0213 8B000000 		.4byte	0x8b
 601 0217 24       		.byte	0x24
 602 0218 01       		.uleb128 0x1
 603 0219 DE010000 		.4byte	.LASF34
 604 021d DA04     		.2byte	0x4da
 605 021f 10       		.byte	0x10
 606 0220 97000000 		.4byte	0x97
 607 0224 28       		.byte	0x28
 608 0225 01       		.uleb128 0x1
 609 0226 63030000 		.4byte	.LASF35
 610 022a DB04     		.2byte	0x4db
 611 022c 10       		.byte	0x10
 612 022d 97000000 		.4byte	0x97
 613 0231 2C       		.byte	0x2c
 614 0232 01       		.uleb128 0x1
 615 0233 CD010000 		.4byte	.LASF36
 616 0237 DC04     		.2byte	0x4dc
 617 0239 10       		.byte	0x10
 618 023a 97000000 		.4byte	0x97
 619 023e 30       		.byte	0x30
 620 023f 01       		.uleb128 0x1
 621 0240 00000000 		.4byte	.LASF37
 622 0244 DD04     		.2byte	0x4dd
 623 0246 10       		.byte	0x10
 624 0247 97000000 		.4byte	0x97
 625 024b 34       		.byte	0x34
 626 024c 01       		.uleb128 0x1
 627 024d 06020000 		.4byte	.LASF38
ARM GAS  C:\Users\DEVELO~1\AppData\Local\Temp\ccZ9ZH2F.s 			page 12


 628 0251 DE04     		.2byte	0x4de
 629 0253 10       		.byte	0x10
 630 0254 97000000 		.4byte	0x97
 631 0258 38       		.byte	0x38
 632 0259 01       		.uleb128 0x1
 633 025a 73020000 		.4byte	.LASF39
 634 025e DF04     		.2byte	0x4df
 635 0260 10       		.byte	0x10
 636 0261 97000000 		.4byte	0x97
 637 0265 3C       		.byte	0x3c
 638 0266 01       		.uleb128 0x1
 639 0267 D4030000 		.4byte	.LASF40
 640 026b E004     		.2byte	0x4e0
 641 026d 10       		.byte	0x10
 642 026e 97000000 		.4byte	0x97
 643 0272 40       		.byte	0x40
 644 0273 01       		.uleb128 0x1
 645 0274 E0040000 		.4byte	.LASF41
 646 0278 E104     		.2byte	0x4e1
 647 027a 10       		.byte	0x10
 648 027b 97000000 		.4byte	0x97
 649 027f 44       		.byte	0x44
 650 0280 01       		.uleb128 0x1
 651 0281 F1030000 		.4byte	.LASF42
 652 0285 E204     		.2byte	0x4e2
 653 0287 10       		.byte	0x10
 654 0288 8B000000 		.4byte	0x8b
 655 028c 48       		.byte	0x48
 656 028d 01       		.uleb128 0x1
 657 028e 83030000 		.4byte	.LASF43
 658 0292 E304     		.2byte	0x4e3
 659 0294 11       		.byte	0x11
 660 0295 97000000 		.4byte	0x97
 661 0299 4C       		.byte	0x4c
 662 029a 01       		.uleb128 0x1
 663 029b 37040000 		.4byte	.LASF44
 664 029f E404     		.2byte	0x4e4
 665 02a1 11       		.byte	0x11
 666 02a2 97000000 		.4byte	0x97
 667 02a6 50       		.byte	0x50
 668 02a7 01       		.uleb128 0x1
 669 02a8 2E000000 		.4byte	.LASF45
 670 02ac E504     		.2byte	0x4e5
 671 02ae 11       		.byte	0x11
 672 02af 97000000 		.4byte	0x97
 673 02b3 54       		.byte	0x54
 674 02b4 01       		.uleb128 0x1
 675 02b5 7A000000 		.4byte	.LASF46
 676 02b9 E604     		.2byte	0x4e6
 677 02bb 11       		.byte	0x11
 678 02bc 97000000 		.4byte	0x97
 679 02c0 58       		.byte	0x58
 680 02c1 01       		.uleb128 0x1
 681 02c2 FB030000 		.4byte	.LASF47
 682 02c6 E704     		.2byte	0x4e7
 683 02c8 10       		.byte	0x10
 684 02c9 8B000000 		.4byte	0x8b
ARM GAS  C:\Users\DEVELO~1\AppData\Local\Temp\ccZ9ZH2F.s 			page 13


 685 02cd 5C       		.byte	0x5c
 686 02ce 01       		.uleb128 0x1
 687 02cf F2010000 		.4byte	.LASF48
 688 02d3 E804     		.2byte	0x4e8
 689 02d5 11       		.byte	0x11
 690 02d6 97000000 		.4byte	0x97
 691 02da 60       		.byte	0x60
 692 02db 01       		.uleb128 0x1
 693 02dc 32040000 		.4byte	.LASF49
 694 02e0 E904     		.2byte	0x4e9
 695 02e2 11       		.byte	0x11
 696 02e3 97000000 		.4byte	0x97
 697 02e7 64       		.byte	0x64
 698 02e8 01       		.uleb128 0x1
 699 02e9 92000000 		.4byte	.LASF50
 700 02ed EA04     		.2byte	0x4ea
 701 02ef 11       		.byte	0x11
 702 02f0 97000000 		.4byte	0x97
 703 02f4 68       		.byte	0x68
 704 02f5 01       		.uleb128 0x1
 705 02f6 6F010000 		.4byte	.LASF51
 706 02fa EB04     		.2byte	0x4eb
 707 02fc 0F       		.byte	0xf
 708 02fd 8B000000 		.4byte	0x8b
 709 0301 6C       		.byte	0x6c
 710 0302 01       		.uleb128 0x1
 711 0303 62000000 		.4byte	.LASF52
 712 0307 EC04     		.2byte	0x4ec
 713 0309 11       		.byte	0x11
 714 030a 97000000 		.4byte	0x97
 715 030e 70       		.byte	0x70
 716 030f 09       		.uleb128 0x9
 717 0310 43535200 		.ascii	"CSR\000"
 718 0314 ED04     		.2byte	0x4ed
 719 0316 11       		.byte	0x11
 720 0317 97000000 		.4byte	0x97
 721 031b 74       		.byte	0x74
 722 031c 01       		.uleb128 0x1
 723 031d 79010000 		.4byte	.LASF53
 724 0321 EE04     		.2byte	0x4ee
 725 0323 0F       		.byte	0xf
 726 0324 8B000000 		.4byte	0x8b
 727 0328 78       		.byte	0x78
 728 0329 01       		.uleb128 0x1
 729 032a 9C040000 		.4byte	.LASF54
 730 032e EF04     		.2byte	0x4ef
 731 0330 10       		.byte	0x10
 732 0331 97000000 		.4byte	0x97
 733 0335 7C       		.byte	0x7c
 734 0336 01       		.uleb128 0x1
 735 0337 8D040000 		.4byte	.LASF55
 736 033b F004     		.2byte	0x4f0
 737 033d 10       		.byte	0x10
 738 033e 97000000 		.4byte	0x97
 739 0342 80       		.byte	0x80
 740 0343 01       		.uleb128 0x1
 741 0344 EB020000 		.4byte	.LASF56
ARM GAS  C:\Users\DEVELO~1\AppData\Local\Temp\ccZ9ZH2F.s 			page 14


 742 0348 F104     		.2byte	0x4f1
 743 034a 10       		.byte	0x10
 744 034b 97000000 		.4byte	0x97
 745 034f 84       		.byte	0x84
 746 0350 01       		.uleb128 0x1
 747 0351 CC020000 		.4byte	.LASF57
 748 0355 F204     		.2byte	0x4f2
 749 0357 10       		.byte	0x10
 750 0358 97000000 		.4byte	0x97
 751 035c 88       		.byte	0x88
 752 035d 01       		.uleb128 0x1
 753 035e 05040000 		.4byte	.LASF58
 754 0362 F304     		.2byte	0x4f3
 755 0364 10       		.byte	0x10
 756 0365 97000000 		.4byte	0x97
 757 0369 8C       		.byte	0x8c
 758 036a 01       		.uleb128 0x1
 759 036b E8010000 		.4byte	.LASF59
 760 036f F404     		.2byte	0x4f4
 761 0371 10       		.byte	0x10
 762 0372 97000000 		.4byte	0x97
 763 0376 90       		.byte	0x90
 764 0377 01       		.uleb128 0x1
 765 0378 3C000000 		.4byte	.LASF60
 766 037c F504     		.2byte	0x4f5
 767 037e 10       		.byte	0x10
 768 037f 97000000 		.4byte	0x97
 769 0383 94       		.byte	0x94
 770 0384 01       		.uleb128 0x1
 771 0385 1B020000 		.4byte	.LASF61
 772 0389 F604     		.2byte	0x4f6
 773 038b 10       		.byte	0x10
 774 038c 97000000 		.4byte	0x97
 775 0390 98       		.byte	0x98
 776 0391 01       		.uleb128 0x1
 777 0392 59000000 		.4byte	.LASF62
 778 0396 F704     		.2byte	0x4f7
 779 0398 10       		.byte	0x10
 780 0399 97000000 		.4byte	0x97
 781 039d 9C       		.byte	0x9c
 782 039e 09       		.uleb128 0x9
 783 039f 47435200 		.ascii	"GCR\000"
 784 03a3 F804     		.2byte	0x4f8
 785 03a5 10       		.byte	0x10
 786 03a6 97000000 		.4byte	0x97
 787 03aa A0       		.byte	0xa0
 788 03ab 01       		.uleb128 0x1
 789 03ac 20040000 		.4byte	.LASF63
 790 03b0 F904     		.2byte	0x4f9
 791 03b2 0F       		.byte	0xf
 792 03b3 8B000000 		.4byte	0x8b
 793 03b7 A4       		.byte	0xa4
 794 03b8 01       		.uleb128 0x1
 795 03b9 56020000 		.4byte	.LASF64
 796 03bd FA04     		.2byte	0x4fa
 797 03bf 10       		.byte	0x10
 798 03c0 97000000 		.4byte	0x97
ARM GAS  C:\Users\DEVELO~1\AppData\Local\Temp\ccZ9ZH2F.s 			page 15


 799 03c4 A8       		.byte	0xa8
 800 03c5 01       		.uleb128 0x1
 801 03c6 7D020000 		.4byte	.LASF65
 802 03ca FB04     		.2byte	0x4fb
 803 03cc 0F       		.byte	0xf
 804 03cd 06010000 		.4byte	0x106
 805 03d1 AC       		.byte	0xac
 806 03d2 09       		.uleb128 0x9
 807 03d3 52535200 		.ascii	"RSR\000"
 808 03d7 FC04     		.2byte	0x4fc
 809 03d9 10       		.byte	0x10
 810 03da 97000000 		.4byte	0x97
 811 03de D0       		.byte	0xd0
 812 03df 01       		.uleb128 0x1
 813 03e0 D6010000 		.4byte	.LASF66
 814 03e4 FD04     		.2byte	0x4fd
 815 03e6 10       		.byte	0x10
 816 03e7 97000000 		.4byte	0x97
 817 03eb D4       		.byte	0xd4
 818 03ec 01       		.uleb128 0x1
 819 03ed 45040000 		.4byte	.LASF67
 820 03f1 FE04     		.2byte	0x4fe
 821 03f3 10       		.byte	0x10
 822 03f4 97000000 		.4byte	0x97
 823 03f8 D8       		.byte	0xd8
 824 03f9 01       		.uleb128 0x1
 825 03fa C5010000 		.4byte	.LASF68
 826 03fe FF04     		.2byte	0x4ff
 827 0400 10       		.byte	0x10
 828 0401 97000000 		.4byte	0x97
 829 0405 DC       		.byte	0xdc
 830 0406 01       		.uleb128 0x1
 831 0407 5B030000 		.4byte	.LASF69
 832 040b 0005     		.2byte	0x500
 833 040d 10       		.byte	0x10
 834 040e 97000000 		.4byte	0x97
 835 0412 E0       		.byte	0xe0
 836 0413 01       		.uleb128 0x1
 837 0414 2A040000 		.4byte	.LASF70
 838 0418 0105     		.2byte	0x501
 839 041a 10       		.byte	0x10
 840 041b 97000000 		.4byte	0x97
 841 041f E4       		.byte	0xe4
 842 0420 01       		.uleb128 0x1
 843 0421 9B020000 		.4byte	.LASF71
 844 0425 0205     		.2byte	0x502
 845 0427 10       		.byte	0x10
 846 0428 97000000 		.4byte	0x97
 847 042c E8       		.byte	0xe8
 848 042d 01       		.uleb128 0x1
 849 042e 5C020000 		.4byte	.LASF72
 850 0432 0305     		.2byte	0x503
 851 0434 10       		.byte	0x10
 852 0435 97000000 		.4byte	0x97
 853 0439 EC       		.byte	0xec
 854 043a 01       		.uleb128 0x1
 855 043b 93020000 		.4byte	.LASF73
ARM GAS  C:\Users\DEVELO~1\AppData\Local\Temp\ccZ9ZH2F.s 			page 16


 856 043f 0405     		.2byte	0x504
 857 0441 10       		.byte	0x10
 858 0442 97000000 		.4byte	0x97
 859 0446 F0       		.byte	0xf0
 860 0447 01       		.uleb128 0x1
 861 0448 15000000 		.4byte	.LASF74
 862 044c 0505     		.2byte	0x505
 863 044e 10       		.byte	0x10
 864 044f 97000000 		.4byte	0x97
 865 0453 F4       		.byte	0xf4
 866 0454 01       		.uleb128 0x1
 867 0455 88020000 		.4byte	.LASF75
 868 0459 0605     		.2byte	0x506
 869 045b 10       		.byte	0x10
 870 045c 8B000000 		.4byte	0x8b
 871 0460 F8       		.byte	0xf8
 872 0461 01       		.uleb128 0x1
 873 0462 4C010000 		.4byte	.LASF76
 874 0466 0705     		.2byte	0x507
 875 0468 10       		.byte	0x10
 876 0469 97000000 		.4byte	0x97
 877 046d FC       		.byte	0xfc
 878 046e 04       		.uleb128 0x4
 879 046f 4A030000 		.4byte	.LASF77
 880 0473 0805     		.2byte	0x508
 881 0475 10       		.byte	0x10
 882 0476 97000000 		.4byte	0x97
 883 047a 0001     		.2byte	0x100
 884 047c 04       		.uleb128 0x4
 885 047d CA030000 		.4byte	.LASF78
 886 0481 0905     		.2byte	0x509
 887 0483 10       		.byte	0x10
 888 0484 97000000 		.4byte	0x97
 889 0488 0401     		.2byte	0x104
 890 048a 04       		.uleb128 0x4
 891 048b A7030000 		.4byte	.LASF79
 892 048f 0A05     		.2byte	0x50a
 893 0491 10       		.byte	0x10
 894 0492 97000000 		.4byte	0x97
 895 0496 0801     		.2byte	0x108
 896 0498 04       		.uleb128 0x4
 897 0499 40020000 		.4byte	.LASF80
 898 049d 0B05     		.2byte	0x50b
 899 049f 10       		.byte	0x10
 900 04a0 97000000 		.4byte	0x97
 901 04a4 0C01     		.2byte	0x10c
 902 04a6 04       		.uleb128 0x4
 903 04a7 0A000000 		.4byte	.LASF81
 904 04ab 0C05     		.2byte	0x50c
 905 04ad 10       		.byte	0x10
 906 04ae 97000000 		.4byte	0x97
 907 04b2 1001     		.2byte	0x110
 908 04b4 04       		.uleb128 0x4
 909 04b5 23000000 		.4byte	.LASF82
 910 04b9 0D05     		.2byte	0x50d
 911 04bb 10       		.byte	0x10
 912 04bc 97000000 		.4byte	0x97
ARM GAS  C:\Users\DEVELO~1\AppData\Local\Temp\ccZ9ZH2F.s 			page 17


 913 04c0 1401     		.2byte	0x114
 914 04c2 04       		.uleb128 0x4
 915 04c3 D6040000 		.4byte	.LASF83
 916 04c7 0E05     		.2byte	0x50e
 917 04c9 10       		.byte	0x10
 918 04ca 97000000 		.4byte	0x97
 919 04ce 1801     		.2byte	0x118
 920 04d0 04       		.uleb128 0x4
 921 04d1 B9040000 		.4byte	.LASF84
 922 04d5 0F05     		.2byte	0x50f
 923 04d7 10       		.byte	0x10
 924 04d8 97000000 		.4byte	0x97
 925 04dc 1C01     		.2byte	0x11c
 926 04de 04       		.uleb128 0x4
 927 04df 24020000 		.4byte	.LASF85
 928 04e3 1005     		.2byte	0x510
 929 04e5 0F       		.byte	0xf
 930 04e6 E1000000 		.4byte	0xe1
 931 04ea 2001     		.2byte	0x120
 932 04ec 00       		.byte	0
 933 04ed 0C       		.uleb128 0xc
 934 04ee 0F020000 		.4byte	.LASF86
 935 04f2 1205     		.2byte	0x512
 936 04f4 8C010000 		.4byte	0x18c
 937 04f8 02       		.uleb128 0x2
 938 04f9 01       		.byte	0x1
 939 04fa 02       		.byte	0x2
 940 04fb 8B030000 		.4byte	.LASF87
 941 04ff 17       		.uleb128 0x17
 942 0500 67000000 		.4byte	.LASF99
 943 0504 07       		.byte	0x7
 944 0505 4201     		.2byte	0x142
 945 0507 08       		.byte	0x8
 946 0508 12050000 		.4byte	0x512
 947 050c 18       		.uleb128 0x18
 948 050d B4000000 		.4byte	0xb4
 949 0511 00       		.byte	0
 950 0512 19       		.uleb128 0x19
 951 0513 88010000 		.4byte	.LASF100
 952 0517 01       		.byte	0x1
 953 0518 51       		.byte	0x51
 954 0519 06       		.byte	0x6
 955 051a F8040000 		.4byte	0x4f8
 956 051e 00000000 		.4byte	.LFB434
 957 0522 C4000000 		.4byte	.LFE434-.LFB434
 958 0526 01       		.uleb128 0x1
 959 0527 9C       		.byte	0x9c
 960 0528 A8060000 		.4byte	0x6a8
 961 052c 1A       		.uleb128 0x1a
 962 052d B4010000 		.4byte	.LASF88
 963 0531 01       		.byte	0x1
 964 0532 62       		.byte	0x62
 965 0533 14       		.byte	0x14
 966 0534 9C000000 		.4byte	0x9c
 967 0538 5909     		.2byte	0x959
 968 053a 1B       		.uleb128 0x1b
 969 053b 5B040000 		.4byte	.LASF89
ARM GAS  C:\Users\DEVELO~1\AppData\Local\Temp\ccZ9ZH2F.s 			page 18


 970 053f 01       		.byte	0x1
 971 0540 6D       		.byte	0x6d
 972 0541 14       		.byte	0x14
 973 0542 9C000000 		.4byte	0x9c
 974 0546 61641101 		.4byte	0x1116461
 975 054a 0A       		.uleb128 0xa
 976 054b DD060000 		.4byte	0x6dd
 977 054f 14000000 		.4byte	.LBI40
 978 0553 01       		.byte	.LVU7
 979 0554 14000000 		.4byte	.LBB40
 980 0558 04000000 		.4byte	.LBE40-.LBB40
 981 055c 56       		.byte	0x56
 982 055d 0A       		.uleb128 0xa
 983 055e E4060000 		.4byte	0x6e4
 984 0562 18000000 		.4byte	.LBI42
 985 0566 01       		.byte	.LVU10
 986 0567 18000000 		.4byte	.LBB42
 987 056b 04000000 		.4byte	.LBE42-.LBB42
 988 056f 57       		.byte	0x57
 989 0570 0A       		.uleb128 0xa
 990 0571 DD060000 		.4byte	0x6dd
 991 0575 32000000 		.4byte	.LBI44
 992 0579 01       		.byte	.LVU24
 993 057a 32000000 		.4byte	.LBB44
 994 057e 04000000 		.4byte	.LBE44-.LBB44
 995 0582 80       		.byte	0x80
 996 0583 0A       		.uleb128 0xa
 997 0584 E4060000 		.4byte	0x6e4
 998 0588 36000000 		.4byte	.LBI46
 999 058c 01       		.byte	.LVU27
 1000 058d 36000000 		.4byte	.LBB46
 1001 0591 04000000 		.4byte	.LBE46-.LBB46
 1002 0595 81       		.byte	0x81
 1003 0596 10       		.uleb128 0x10
 1004 0597 A8060000 		.4byte	0x6a8
 1005 059b 0C000000 		.4byte	.LLRL0
 1006 059f 86       		.byte	0x86
 1007 05a0 C1050000 		.4byte	0x5c1
 1008 05a4 03       		.uleb128 0x3
 1009 05a5 C9060000 		.4byte	0x6c9
 1010 05a9 03       		.uleb128 0x3
 1011 05aa BF060000 		.4byte	0x6bf
 1012 05ae 03       		.uleb128 0x3
 1013 05af B5060000 		.4byte	0x6b5
 1014 05b3 06       		.uleb128 0x6
 1015 05b4 D4060000 		.4byte	0x6d4
 1016 05b8 3A000000 		.4byte	.LBB50
 1017 05bc 0E000000 		.4byte	.LBE50-.LBB50
 1018 05c0 00       		.byte	0
 1019 05c1 1C       		.uleb128 0x1c
 1020 05c2 A8060000 		.4byte	0x6a8
 1021 05c6 54000000 		.4byte	.LBI54
 1022 05ca 01       		.byte	.LVU42
 1023 05cb 54000000 		.4byte	.LBB54
 1024 05cf 14000000 		.4byte	.LBE54-.LBB54
 1025 05d3 01       		.byte	0x1
 1026 05d4 8A       		.byte	0x8a
ARM GAS  C:\Users\DEVELO~1\AppData\Local\Temp\ccZ9ZH2F.s 			page 19


 1027 05d5 05       		.byte	0x5
 1028 05d6 0F060000 		.4byte	0x60f
 1029 05da 0D       		.uleb128 0xd
 1030 05db C9060000 		.4byte	0x6c9
 1031 05df 0E000000 		.4byte	.LLST1
 1032 05e3 0C000000 		.4byte	.LVUS1
 1033 05e7 0D       		.uleb128 0xd
 1034 05e8 BF060000 		.4byte	0x6bf
 1035 05ec 0E000000 		.4byte	.LLST1
 1036 05f0 0C000000 		.4byte	.LVUS1
 1037 05f4 0D       		.uleb128 0xd
 1038 05f5 B5060000 		.4byte	0x6b5
 1039 05f9 1A000000 		.4byte	.LLST3
 1040 05fd 18000000 		.4byte	.LVUS3
 1041 0601 06       		.uleb128 0x6
 1042 0602 D4060000 		.4byte	0x6d4
 1043 0606 54000000 		.4byte	.LBB56
 1044 060a 0E000000 		.4byte	.LBE56-.LBB56
 1045 060e 00       		.byte	0
 1046 060f 11       		.uleb128 0x11
 1047 0610 A8060000 		.4byte	0x6a8
 1048 0614 68000000 		.4byte	.LBB58
 1049 0618 14000000 		.4byte	.LBE58-.LBB58
 1050 061c 8D       		.byte	0x8d
 1051 061d 3E060000 		.4byte	0x63e
 1052 0621 03       		.uleb128 0x3
 1053 0622 C9060000 		.4byte	0x6c9
 1054 0626 03       		.uleb128 0x3
 1055 0627 BF060000 		.4byte	0x6bf
 1056 062b 03       		.uleb128 0x3
 1057 062c B5060000 		.4byte	0x6b5
 1058 0630 06       		.uleb128 0x6
 1059 0631 D4060000 		.4byte	0x6d4
 1060 0635 68000000 		.4byte	.LBB60
 1061 0639 0E000000 		.4byte	.LBE60-.LBB60
 1062 063d 00       		.byte	0
 1063 063e 11       		.uleb128 0x11
 1064 063f A8060000 		.4byte	0x6a8
 1065 0643 7C000000 		.4byte	.LBB62
 1066 0647 14000000 		.4byte	.LBE62-.LBB62
 1067 064b 8E       		.byte	0x8e
 1068 064c 6D060000 		.4byte	0x66d
 1069 0650 03       		.uleb128 0x3
 1070 0651 C9060000 		.4byte	0x6c9
 1071 0655 03       		.uleb128 0x3
 1072 0656 BF060000 		.4byte	0x6bf
 1073 065a 03       		.uleb128 0x3
 1074 065b B5060000 		.4byte	0x6b5
 1075 065f 06       		.uleb128 0x6
 1076 0660 D4060000 		.4byte	0x6d4
 1077 0664 7C000000 		.4byte	.LBB64
 1078 0668 0E000000 		.4byte	.LBE64-.LBB64
 1079 066c 00       		.byte	0
 1080 066d 10       		.uleb128 0x10
 1081 066e A8060000 		.4byte	0x6a8
 1082 0672 18000000 		.4byte	.LLRL4
 1083 0676 91       		.byte	0x91
ARM GAS  C:\Users\DEVELO~1\AppData\Local\Temp\ccZ9ZH2F.s 			page 20


 1084 0677 98060000 		.4byte	0x698
 1085 067b 03       		.uleb128 0x3
 1086 067c C9060000 		.4byte	0x6c9
 1087 0680 03       		.uleb128 0x3
 1088 0681 BF060000 		.4byte	0x6bf
 1089 0685 03       		.uleb128 0x3
 1090 0686 B5060000 		.4byte	0x6b5
 1091 068a 06       		.uleb128 0x6
 1092 068b D4060000 		.4byte	0x6d4
 1093 068f 90000000 		.4byte	.LBB68
 1094 0693 0E000000 		.4byte	.LBE68-.LBB68
 1095 0697 00       		.byte	0
 1096 0698 1D       		.uleb128 0x1d
 1097 0699 54000000 		.4byte	.LVL1
 1098 069d FF040000 		.4byte	0x4ff
 1099 06a1 1E       		.uleb128 0x1e
 1100 06a2 01       		.uleb128 0x1
 1101 06a3 50       		.byte	0x50
 1102 06a4 01       		.uleb128 0x1
 1103 06a5 32       		.byte	0x32
 1104 06a6 00       		.byte	0
 1105 06a7 00       		.byte	0
 1106 06a8 1F       		.uleb128 0x1f
 1107 06a9 C3040000 		.4byte	.LASF101
 1108 06ad 01       		.byte	0x1
 1109 06ae 41       		.byte	0x41
 1110 06af 0D       		.byte	0xd
 1111 06b0 01       		.byte	0x1
 1112 06b1 D4060000 		.4byte	0x6d4
 1113 06b5 0E       		.uleb128 0xe
 1114 06b6 8D000000 		.4byte	.LASF90
 1115 06ba 41       		.byte	0x41
 1116 06bb 8B000000 		.4byte	0x8b
 1117 06bf 0E       		.uleb128 0xe
 1118 06c0 A5040000 		.4byte	.LASF91
 1119 06c4 42       		.byte	0x42
 1120 06c5 8B000000 		.4byte	0x8b
 1121 06c9 0E       		.uleb128 0xe
 1122 06ca 2F020000 		.4byte	.LASF92
 1123 06ce 43       		.byte	0x43
 1124 06cf 8B000000 		.4byte	0x8b
 1125 06d3 00       		.byte	0
 1126 06d4 20       		.uleb128 0x20
 1127 06d5 91030000 		.4byte	.LASF93
 1128 06d9 01       		.byte	0x1
 1129 06da 3A       		.byte	0x3a
 1130 06db 0D       		.byte	0xd
 1131 06dc 01       		.byte	0x1
 1132 06dd 12       		.uleb128 0x12
 1133 06de AF020000 		.4byte	.LASF94
 1134 06e2 6D03     		.2byte	0x36d
 1135 06e4 12       		.uleb128 0x12
 1136 06e5 00020000 		.4byte	.LASF95
 1137 06e9 6203     		.2byte	0x362
 1138 06eb 00       		.byte	0
 1139              		.section	.debug_abbrev,"",%progbits
 1140              	.Ldebug_abbrev0:
ARM GAS  C:\Users\DEVELO~1\AppData\Local\Temp\ccZ9ZH2F.s 			page 21


 1141 0000 01       		.uleb128 0x1
 1142 0001 0D       		.uleb128 0xd
 1143 0002 00       		.byte	0
 1144 0003 03       		.uleb128 0x3
 1145 0004 0E       		.uleb128 0xe
 1146 0005 3A       		.uleb128 0x3a
 1147 0006 21       		.uleb128 0x21
 1148 0007 06       		.sleb128 6
 1149 0008 3B       		.uleb128 0x3b
 1150 0009 05       		.uleb128 0x5
 1151 000a 39       		.uleb128 0x39
 1152 000b 0B       		.uleb128 0xb
 1153 000c 49       		.uleb128 0x49
 1154 000d 13       		.uleb128 0x13
 1155 000e 38       		.uleb128 0x38
 1156 000f 0B       		.uleb128 0xb
 1157 0010 00       		.byte	0
 1158 0011 00       		.byte	0
 1159 0012 02       		.uleb128 0x2
 1160 0013 24       		.uleb128 0x24
 1161 0014 00       		.byte	0
 1162 0015 0B       		.uleb128 0xb
 1163 0016 0B       		.uleb128 0xb
 1164 0017 3E       		.uleb128 0x3e
 1165 0018 0B       		.uleb128 0xb
 1166 0019 03       		.uleb128 0x3
 1167 001a 0E       		.uleb128 0xe
 1168 001b 00       		.byte	0
 1169 001c 00       		.byte	0
 1170 001d 03       		.uleb128 0x3
 1171 001e 05       		.uleb128 0x5
 1172 001f 00       		.byte	0
 1173 0020 31       		.uleb128 0x31
 1174 0021 13       		.uleb128 0x13
 1175 0022 00       		.byte	0
 1176 0023 00       		.byte	0
 1177 0024 04       		.uleb128 0x4
 1178 0025 0D       		.uleb128 0xd
 1179 0026 00       		.byte	0
 1180 0027 03       		.uleb128 0x3
 1181 0028 0E       		.uleb128 0xe
 1182 0029 3A       		.uleb128 0x3a
 1183 002a 21       		.uleb128 0x21
 1184 002b 06       		.sleb128 6
 1185 002c 3B       		.uleb128 0x3b
 1186 002d 05       		.uleb128 0x5
 1187 002e 39       		.uleb128 0x39
 1188 002f 0B       		.uleb128 0xb
 1189 0030 49       		.uleb128 0x49
 1190 0031 13       		.uleb128 0x13
 1191 0032 38       		.uleb128 0x38
 1192 0033 05       		.uleb128 0x5
 1193 0034 00       		.byte	0
 1194 0035 00       		.byte	0
 1195 0036 05       		.uleb128 0x5
 1196 0037 16       		.uleb128 0x16
 1197 0038 00       		.byte	0
ARM GAS  C:\Users\DEVELO~1\AppData\Local\Temp\ccZ9ZH2F.s 			page 22


 1198 0039 03       		.uleb128 0x3
 1199 003a 0E       		.uleb128 0xe
 1200 003b 3A       		.uleb128 0x3a
 1201 003c 0B       		.uleb128 0xb
 1202 003d 3B       		.uleb128 0x3b
 1203 003e 0B       		.uleb128 0xb
 1204 003f 39       		.uleb128 0x39
 1205 0040 0B       		.uleb128 0xb
 1206 0041 49       		.uleb128 0x49
 1207 0042 13       		.uleb128 0x13
 1208 0043 00       		.byte	0
 1209 0044 00       		.byte	0
 1210 0045 06       		.uleb128 0x6
 1211 0046 1D       		.uleb128 0x1d
 1212 0047 00       		.byte	0
 1213 0048 31       		.uleb128 0x31
 1214 0049 13       		.uleb128 0x13
 1215 004a 11       		.uleb128 0x11
 1216 004b 01       		.uleb128 0x1
 1217 004c 12       		.uleb128 0x12
 1218 004d 06       		.uleb128 0x6
 1219 004e 58       		.uleb128 0x58
 1220 004f 21       		.uleb128 0x21
 1221 0050 01       		.sleb128 1
 1222 0051 59       		.uleb128 0x59
 1223 0052 21       		.uleb128 0x21
 1224 0053 C500     		.sleb128 69
 1225 0055 57       		.uleb128 0x57
 1226 0056 21       		.uleb128 0x21
 1227 0057 05       		.sleb128 5
 1228 0058 00       		.byte	0
 1229 0059 00       		.byte	0
 1230 005a 07       		.uleb128 0x7
 1231 005b 01       		.uleb128 0x1
 1232 005c 01       		.byte	0x1
 1233 005d 49       		.uleb128 0x49
 1234 005e 13       		.uleb128 0x13
 1235 005f 01       		.uleb128 0x1
 1236 0060 13       		.uleb128 0x13
 1237 0061 00       		.byte	0
 1238 0062 00       		.byte	0
 1239 0063 08       		.uleb128 0x8
 1240 0064 21       		.uleb128 0x21
 1241 0065 00       		.byte	0
 1242 0066 49       		.uleb128 0x49
 1243 0067 13       		.uleb128 0x13
 1244 0068 2F       		.uleb128 0x2f
 1245 0069 0B       		.uleb128 0xb
 1246 006a 00       		.byte	0
 1247 006b 00       		.byte	0
 1248 006c 09       		.uleb128 0x9
 1249 006d 0D       		.uleb128 0xd
 1250 006e 00       		.byte	0
 1251 006f 03       		.uleb128 0x3
 1252 0070 08       		.uleb128 0x8
 1253 0071 3A       		.uleb128 0x3a
 1254 0072 21       		.uleb128 0x21
ARM GAS  C:\Users\DEVELO~1\AppData\Local\Temp\ccZ9ZH2F.s 			page 23


 1255 0073 06       		.sleb128 6
 1256 0074 3B       		.uleb128 0x3b
 1257 0075 05       		.uleb128 0x5
 1258 0076 39       		.uleb128 0x39
 1259 0077 0B       		.uleb128 0xb
 1260 0078 49       		.uleb128 0x49
 1261 0079 13       		.uleb128 0x13
 1262 007a 38       		.uleb128 0x38
 1263 007b 0B       		.uleb128 0xb
 1264 007c 00       		.byte	0
 1265 007d 00       		.byte	0
 1266 007e 0A       		.uleb128 0xa
 1267 007f 1D       		.uleb128 0x1d
 1268 0080 00       		.byte	0
 1269 0081 31       		.uleb128 0x31
 1270 0082 13       		.uleb128 0x13
 1271 0083 52       		.uleb128 0x52
 1272 0084 01       		.uleb128 0x1
 1273 0085 B842     		.uleb128 0x2138
 1274 0087 0B       		.uleb128 0xb
 1275 0088 11       		.uleb128 0x11
 1276 0089 01       		.uleb128 0x1
 1277 008a 12       		.uleb128 0x12
 1278 008b 06       		.uleb128 0x6
 1279 008c 58       		.uleb128 0x58
 1280 008d 21       		.uleb128 0x21
 1281 008e 01       		.sleb128 1
 1282 008f 59       		.uleb128 0x59
 1283 0090 0B       		.uleb128 0xb
 1284 0091 57       		.uleb128 0x57
 1285 0092 21       		.uleb128 0x21
 1286 0093 05       		.sleb128 5
 1287 0094 00       		.byte	0
 1288 0095 00       		.byte	0
 1289 0096 0B       		.uleb128 0xb
 1290 0097 35       		.uleb128 0x35
 1291 0098 00       		.byte	0
 1292 0099 49       		.uleb128 0x49
 1293 009a 13       		.uleb128 0x13
 1294 009b 00       		.byte	0
 1295 009c 00       		.byte	0
 1296 009d 0C       		.uleb128 0xc
 1297 009e 16       		.uleb128 0x16
 1298 009f 00       		.byte	0
 1299 00a0 03       		.uleb128 0x3
 1300 00a1 0E       		.uleb128 0xe
 1301 00a2 3A       		.uleb128 0x3a
 1302 00a3 21       		.uleb128 0x21
 1303 00a4 06       		.sleb128 6
 1304 00a5 3B       		.uleb128 0x3b
 1305 00a6 05       		.uleb128 0x5
 1306 00a7 39       		.uleb128 0x39
 1307 00a8 21       		.uleb128 0x21
 1308 00a9 03       		.sleb128 3
 1309 00aa 49       		.uleb128 0x49
 1310 00ab 13       		.uleb128 0x13
 1311 00ac 00       		.byte	0
ARM GAS  C:\Users\DEVELO~1\AppData\Local\Temp\ccZ9ZH2F.s 			page 24


 1312 00ad 00       		.byte	0
 1313 00ae 0D       		.uleb128 0xd
 1314 00af 05       		.uleb128 0x5
 1315 00b0 00       		.byte	0
 1316 00b1 31       		.uleb128 0x31
 1317 00b2 13       		.uleb128 0x13
 1318 00b3 02       		.uleb128 0x2
 1319 00b4 17       		.uleb128 0x17
 1320 00b5 B742     		.uleb128 0x2137
 1321 00b7 17       		.uleb128 0x17
 1322 00b8 00       		.byte	0
 1323 00b9 00       		.byte	0
 1324 00ba 0E       		.uleb128 0xe
 1325 00bb 05       		.uleb128 0x5
 1326 00bc 00       		.byte	0
 1327 00bd 03       		.uleb128 0x3
 1328 00be 0E       		.uleb128 0xe
 1329 00bf 3A       		.uleb128 0x3a
 1330 00c0 21       		.uleb128 0x21
 1331 00c1 01       		.sleb128 1
 1332 00c2 3B       		.uleb128 0x3b
 1333 00c3 0B       		.uleb128 0xb
 1334 00c4 39       		.uleb128 0x39
 1335 00c5 21       		.uleb128 0x21
 1336 00c6 29       		.sleb128 41
 1337 00c7 49       		.uleb128 0x49
 1338 00c8 13       		.uleb128 0x13
 1339 00c9 00       		.byte	0
 1340 00ca 00       		.byte	0
 1341 00cb 0F       		.uleb128 0xf
 1342 00cc 13       		.uleb128 0x13
 1343 00cd 01       		.byte	0x1
 1344 00ce 0B       		.uleb128 0xb
 1345 00cf 0B       		.uleb128 0xb
 1346 00d0 3A       		.uleb128 0x3a
 1347 00d1 21       		.uleb128 0x21
 1348 00d2 06       		.sleb128 6
 1349 00d3 3B       		.uleb128 0x3b
 1350 00d4 05       		.uleb128 0x5
 1351 00d5 39       		.uleb128 0x39
 1352 00d6 21       		.uleb128 0x21
 1353 00d7 09       		.sleb128 9
 1354 00d8 01       		.uleb128 0x1
 1355 00d9 13       		.uleb128 0x13
 1356 00da 00       		.byte	0
 1357 00db 00       		.byte	0
 1358 00dc 10       		.uleb128 0x10
 1359 00dd 1D       		.uleb128 0x1d
 1360 00de 01       		.byte	0x1
 1361 00df 31       		.uleb128 0x31
 1362 00e0 13       		.uleb128 0x13
 1363 00e1 55       		.uleb128 0x55
 1364 00e2 17       		.uleb128 0x17
 1365 00e3 58       		.uleb128 0x58
 1366 00e4 21       		.uleb128 0x21
 1367 00e5 01       		.sleb128 1
 1368 00e6 59       		.uleb128 0x59
ARM GAS  C:\Users\DEVELO~1\AppData\Local\Temp\ccZ9ZH2F.s 			page 25


 1369 00e7 0B       		.uleb128 0xb
 1370 00e8 57       		.uleb128 0x57
 1371 00e9 21       		.uleb128 0x21
 1372 00ea 05       		.sleb128 5
 1373 00eb 01       		.uleb128 0x1
 1374 00ec 13       		.uleb128 0x13
 1375 00ed 00       		.byte	0
 1376 00ee 00       		.byte	0
 1377 00ef 11       		.uleb128 0x11
 1378 00f0 1D       		.uleb128 0x1d
 1379 00f1 01       		.byte	0x1
 1380 00f2 31       		.uleb128 0x31
 1381 00f3 13       		.uleb128 0x13
 1382 00f4 11       		.uleb128 0x11
 1383 00f5 01       		.uleb128 0x1
 1384 00f6 12       		.uleb128 0x12
 1385 00f7 06       		.uleb128 0x6
 1386 00f8 58       		.uleb128 0x58
 1387 00f9 21       		.uleb128 0x21
 1388 00fa 01       		.sleb128 1
 1389 00fb 59       		.uleb128 0x59
 1390 00fc 0B       		.uleb128 0xb
 1391 00fd 57       		.uleb128 0x57
 1392 00fe 21       		.uleb128 0x21
 1393 00ff 05       		.sleb128 5
 1394 0100 01       		.uleb128 0x1
 1395 0101 13       		.uleb128 0x13
 1396 0102 00       		.byte	0
 1397 0103 00       		.byte	0
 1398 0104 12       		.uleb128 0x12
 1399 0105 2E       		.uleb128 0x2e
 1400 0106 00       		.byte	0
 1401 0107 03       		.uleb128 0x3
 1402 0108 0E       		.uleb128 0xe
 1403 0109 3A       		.uleb128 0x3a
 1404 010a 21       		.uleb128 0x21
 1405 010b 02       		.sleb128 2
 1406 010c 3B       		.uleb128 0x3b
 1407 010d 05       		.uleb128 0x5
 1408 010e 39       		.uleb128 0x39
 1409 010f 21       		.uleb128 0x21
 1410 0110 1B       		.sleb128 27
 1411 0111 27       		.uleb128 0x27
 1412 0112 19       		.uleb128 0x19
 1413 0113 20       		.uleb128 0x20
 1414 0114 21       		.uleb128 0x21
 1415 0115 03       		.sleb128 3
 1416 0116 00       		.byte	0
 1417 0117 00       		.byte	0
 1418 0118 13       		.uleb128 0x13
 1419 0119 11       		.uleb128 0x11
 1420 011a 01       		.byte	0x1
 1421 011b 25       		.uleb128 0x25
 1422 011c 0E       		.uleb128 0xe
 1423 011d 13       		.uleb128 0x13
 1424 011e 0B       		.uleb128 0xb
 1425 011f 03       		.uleb128 0x3
ARM GAS  C:\Users\DEVELO~1\AppData\Local\Temp\ccZ9ZH2F.s 			page 26


 1426 0120 0E       		.uleb128 0xe
 1427 0121 1B       		.uleb128 0x1b
 1428 0122 0E       		.uleb128 0xe
 1429 0123 55       		.uleb128 0x55
 1430 0124 17       		.uleb128 0x17
 1431 0125 11       		.uleb128 0x11
 1432 0126 01       		.uleb128 0x1
 1433 0127 10       		.uleb128 0x10
 1434 0128 17       		.uleb128 0x17
 1435 0129 00       		.byte	0
 1436 012a 00       		.byte	0
 1437 012b 14       		.uleb128 0x14
 1438 012c 24       		.uleb128 0x24
 1439 012d 00       		.byte	0
 1440 012e 0B       		.uleb128 0xb
 1441 012f 0B       		.uleb128 0xb
 1442 0130 3E       		.uleb128 0x3e
 1443 0131 0B       		.uleb128 0xb
 1444 0132 03       		.uleb128 0x3
 1445 0133 08       		.uleb128 0x8
 1446 0134 00       		.byte	0
 1447 0135 00       		.byte	0
 1448 0136 15       		.uleb128 0x15
 1449 0137 26       		.uleb128 0x26
 1450 0138 00       		.byte	0
 1451 0139 49       		.uleb128 0x49
 1452 013a 13       		.uleb128 0x13
 1453 013b 00       		.byte	0
 1454 013c 00       		.byte	0
 1455 013d 16       		.uleb128 0x16
 1456 013e 13       		.uleb128 0x13
 1457 013f 01       		.byte	0x1
 1458 0140 0B       		.uleb128 0xb
 1459 0141 05       		.uleb128 0x5
 1460 0142 3A       		.uleb128 0x3a
 1461 0143 0B       		.uleb128 0xb
 1462 0144 3B       		.uleb128 0x3b
 1463 0145 05       		.uleb128 0x5
 1464 0146 39       		.uleb128 0x39
 1465 0147 0B       		.uleb128 0xb
 1466 0148 01       		.uleb128 0x1
 1467 0149 13       		.uleb128 0x13
 1468 014a 00       		.byte	0
 1469 014b 00       		.byte	0
 1470 014c 17       		.uleb128 0x17
 1471 014d 2E       		.uleb128 0x2e
 1472 014e 01       		.byte	0x1
 1473 014f 3F       		.uleb128 0x3f
 1474 0150 19       		.uleb128 0x19
 1475 0151 03       		.uleb128 0x3
 1476 0152 0E       		.uleb128 0xe
 1477 0153 3A       		.uleb128 0x3a
 1478 0154 0B       		.uleb128 0xb
 1479 0155 3B       		.uleb128 0x3b
 1480 0156 05       		.uleb128 0x5
 1481 0157 39       		.uleb128 0x39
 1482 0158 0B       		.uleb128 0xb
ARM GAS  C:\Users\DEVELO~1\AppData\Local\Temp\ccZ9ZH2F.s 			page 27


 1483 0159 27       		.uleb128 0x27
 1484 015a 19       		.uleb128 0x19
 1485 015b 3C       		.uleb128 0x3c
 1486 015c 19       		.uleb128 0x19
 1487 015d 01       		.uleb128 0x1
 1488 015e 13       		.uleb128 0x13
 1489 015f 00       		.byte	0
 1490 0160 00       		.byte	0
 1491 0161 18       		.uleb128 0x18
 1492 0162 05       		.uleb128 0x5
 1493 0163 00       		.byte	0
 1494 0164 49       		.uleb128 0x49
 1495 0165 13       		.uleb128 0x13
 1496 0166 00       		.byte	0
 1497 0167 00       		.byte	0
 1498 0168 19       		.uleb128 0x19
 1499 0169 2E       		.uleb128 0x2e
 1500 016a 01       		.byte	0x1
 1501 016b 3F       		.uleb128 0x3f
 1502 016c 19       		.uleb128 0x19
 1503 016d 03       		.uleb128 0x3
 1504 016e 0E       		.uleb128 0xe
 1505 016f 3A       		.uleb128 0x3a
 1506 0170 0B       		.uleb128 0xb
 1507 0171 3B       		.uleb128 0x3b
 1508 0172 0B       		.uleb128 0xb
 1509 0173 39       		.uleb128 0x39
 1510 0174 0B       		.uleb128 0xb
 1511 0175 27       		.uleb128 0x27
 1512 0176 19       		.uleb128 0x19
 1513 0177 49       		.uleb128 0x49
 1514 0178 13       		.uleb128 0x13
 1515 0179 11       		.uleb128 0x11
 1516 017a 01       		.uleb128 0x1
 1517 017b 12       		.uleb128 0x12
 1518 017c 06       		.uleb128 0x6
 1519 017d 40       		.uleb128 0x40
 1520 017e 18       		.uleb128 0x18
 1521 017f 7A       		.uleb128 0x7a
 1522 0180 19       		.uleb128 0x19
 1523 0181 01       		.uleb128 0x1
 1524 0182 13       		.uleb128 0x13
 1525 0183 00       		.byte	0
 1526 0184 00       		.byte	0
 1527 0185 1A       		.uleb128 0x1a
 1528 0186 34       		.uleb128 0x34
 1529 0187 00       		.byte	0
 1530 0188 03       		.uleb128 0x3
 1531 0189 0E       		.uleb128 0xe
 1532 018a 3A       		.uleb128 0x3a
 1533 018b 0B       		.uleb128 0xb
 1534 018c 3B       		.uleb128 0x3b
 1535 018d 0B       		.uleb128 0xb
 1536 018e 39       		.uleb128 0x39
 1537 018f 0B       		.uleb128 0xb
 1538 0190 49       		.uleb128 0x49
 1539 0191 13       		.uleb128 0x13
ARM GAS  C:\Users\DEVELO~1\AppData\Local\Temp\ccZ9ZH2F.s 			page 28


 1540 0192 1C       		.uleb128 0x1c
 1541 0193 05       		.uleb128 0x5
 1542 0194 00       		.byte	0
 1543 0195 00       		.byte	0
 1544 0196 1B       		.uleb128 0x1b
 1545 0197 34       		.uleb128 0x34
 1546 0198 00       		.byte	0
 1547 0199 03       		.uleb128 0x3
 1548 019a 0E       		.uleb128 0xe
 1549 019b 3A       		.uleb128 0x3a
 1550 019c 0B       		.uleb128 0xb
 1551 019d 3B       		.uleb128 0x3b
 1552 019e 0B       		.uleb128 0xb
 1553 019f 39       		.uleb128 0x39
 1554 01a0 0B       		.uleb128 0xb
 1555 01a1 49       		.uleb128 0x49
 1556 01a2 13       		.uleb128 0x13
 1557 01a3 1C       		.uleb128 0x1c
 1558 01a4 06       		.uleb128 0x6
 1559 01a5 00       		.byte	0
 1560 01a6 00       		.byte	0
 1561 01a7 1C       		.uleb128 0x1c
 1562 01a8 1D       		.uleb128 0x1d
 1563 01a9 01       		.byte	0x1
 1564 01aa 31       		.uleb128 0x31
 1565 01ab 13       		.uleb128 0x13
 1566 01ac 52       		.uleb128 0x52
 1567 01ad 01       		.uleb128 0x1
 1568 01ae B842     		.uleb128 0x2138
 1569 01b0 0B       		.uleb128 0xb
 1570 01b1 11       		.uleb128 0x11
 1571 01b2 01       		.uleb128 0x1
 1572 01b3 12       		.uleb128 0x12
 1573 01b4 06       		.uleb128 0x6
 1574 01b5 58       		.uleb128 0x58
 1575 01b6 0B       		.uleb128 0xb
 1576 01b7 59       		.uleb128 0x59
 1577 01b8 0B       		.uleb128 0xb
 1578 01b9 57       		.uleb128 0x57
 1579 01ba 0B       		.uleb128 0xb
 1580 01bb 01       		.uleb128 0x1
 1581 01bc 13       		.uleb128 0x13
 1582 01bd 00       		.byte	0
 1583 01be 00       		.byte	0
 1584 01bf 1D       		.uleb128 0x1d
 1585 01c0 48       		.uleb128 0x48
 1586 01c1 01       		.byte	0x1
 1587 01c2 7D       		.uleb128 0x7d
 1588 01c3 01       		.uleb128 0x1
 1589 01c4 7F       		.uleb128 0x7f
 1590 01c5 13       		.uleb128 0x13
 1591 01c6 00       		.byte	0
 1592 01c7 00       		.byte	0
 1593 01c8 1E       		.uleb128 0x1e
 1594 01c9 49       		.uleb128 0x49
 1595 01ca 00       		.byte	0
 1596 01cb 02       		.uleb128 0x2
ARM GAS  C:\Users\DEVELO~1\AppData\Local\Temp\ccZ9ZH2F.s 			page 29


 1597 01cc 18       		.uleb128 0x18
 1598 01cd 7E       		.uleb128 0x7e
 1599 01ce 18       		.uleb128 0x18
 1600 01cf 00       		.byte	0
 1601 01d0 00       		.byte	0
 1602 01d1 1F       		.uleb128 0x1f
 1603 01d2 2E       		.uleb128 0x2e
 1604 01d3 01       		.byte	0x1
 1605 01d4 03       		.uleb128 0x3
 1606 01d5 0E       		.uleb128 0xe
 1607 01d6 3A       		.uleb128 0x3a
 1608 01d7 0B       		.uleb128 0xb
 1609 01d8 3B       		.uleb128 0x3b
 1610 01d9 0B       		.uleb128 0xb
 1611 01da 39       		.uleb128 0x39
 1612 01db 0B       		.uleb128 0xb
 1613 01dc 27       		.uleb128 0x27
 1614 01dd 19       		.uleb128 0x19
 1615 01de 20       		.uleb128 0x20
 1616 01df 0B       		.uleb128 0xb
 1617 01e0 01       		.uleb128 0x1
 1618 01e1 13       		.uleb128 0x13
 1619 01e2 00       		.byte	0
 1620 01e3 00       		.byte	0
 1621 01e4 20       		.uleb128 0x20
 1622 01e5 2E       		.uleb128 0x2e
 1623 01e6 00       		.byte	0
 1624 01e7 03       		.uleb128 0x3
 1625 01e8 0E       		.uleb128 0xe
 1626 01e9 3A       		.uleb128 0x3a
 1627 01ea 0B       		.uleb128 0xb
 1628 01eb 3B       		.uleb128 0x3b
 1629 01ec 0B       		.uleb128 0xb
 1630 01ed 39       		.uleb128 0x39
 1631 01ee 0B       		.uleb128 0xb
 1632 01ef 27       		.uleb128 0x27
 1633 01f0 19       		.uleb128 0x19
 1634 01f1 20       		.uleb128 0x20
 1635 01f2 0B       		.uleb128 0xb
 1636 01f3 00       		.byte	0
 1637 01f4 00       		.byte	0
 1638 01f5 00       		.byte	0
 1639              		.section	.debug_loclists,"",%progbits
 1640 0000 20000000 		.4byte	.Ldebug_loc3-.Ldebug_loc2
 1641              	.Ldebug_loc2:
 1642 0004 0500     		.2byte	0x5
 1643 0006 04       		.byte	0x4
 1644 0007 00       		.byte	0
 1645 0008 00000000 		.4byte	0
 1646              	.Ldebug_loc0:
 1647              	.LVUS1:
 1648 000c 01       		.uleb128 .LVU42
 1649 000d 00       		.uleb128 .LVU52
 1650              	.LLST1:
 1651 000e 08       		.byte	0x8
 1652 000f 54000000 		.4byte	.LVL1
 1653 0013 14       		.uleb128 .LVL2-.LVL1
ARM GAS  C:\Users\DEVELO~1\AppData\Local\Temp\ccZ9ZH2F.s 			page 30


 1654 0014 02       		.uleb128 0x2
 1655 0015 30       		.byte	0x30
 1656 0016 9F       		.byte	0x9f
 1657 0017 00       		.byte	0
 1658              	.LVUS3:
 1659 0018 01       		.uleb128 .LVU42
 1660 0019 00       		.uleb128 .LVU52
 1661              	.LLST3:
 1662 001a 08       		.byte	0x8
 1663 001b 54000000 		.4byte	.LVL1
 1664 001f 14       		.uleb128 .LVL2-.LVL1
 1665 0020 02       		.uleb128 0x2
 1666 0021 32       		.byte	0x32
 1667 0022 9F       		.byte	0x9f
 1668 0023 00       		.byte	0
 1669              	.Ldebug_loc3:
 1670              		.section	.debug_aranges,"",%progbits
 1671 0000 1C000000 		.4byte	0x1c
 1672 0004 0200     		.2byte	0x2
 1673 0006 00000000 		.4byte	.Ldebug_info0
 1674 000a 04       		.byte	0x4
 1675 000b 00       		.byte	0
 1676 000c 0000     		.2byte	0
 1677 000e 0000     		.2byte	0
 1678 0010 00000000 		.4byte	.LFB434
 1679 0014 C4000000 		.4byte	.LFE434-.LFB434
 1680 0018 00000000 		.4byte	0
 1681 001c 00000000 		.4byte	0
 1682              		.section	.debug_rnglists,"",%progbits
 1683              	.Ldebug_ranges0:
 1684 0000 2B000000 		.4byte	.Ldebug_ranges3-.Ldebug_ranges2
 1685              	.Ldebug_ranges2:
 1686 0004 0500     		.2byte	0x5
 1687 0006 04       		.byte	0x4
 1688 0007 00       		.byte	0
 1689 0008 00000000 		.4byte	0
 1690              	.LLRL0:
 1691 000c 05       		.byte	0x5
 1692 000d 3A000000 		.4byte	.LBB48
 1693 0011 04       		.byte	0x4
 1694 0012 00       		.uleb128 .LBB48-.LBB48
 1695 0013 12       		.uleb128 .LBE48-.LBB48
 1696 0014 04       		.byte	0x4
 1697 0015 14       		.uleb128 .LBB53-.LBB48
 1698 0016 16       		.uleb128 .LBE53-.LBB48
 1699 0017 00       		.byte	0
 1700              	.LLRL4:
 1701 0018 05       		.byte	0x5
 1702 0019 90000000 		.4byte	.LBB66
 1703 001d 04       		.byte	0x4
 1704 001e 00       		.uleb128 .LBB66-.LBB66
 1705 001f 10       		.uleb128 .LBE66-.LBB66
 1706 0020 04       		.byte	0x4
 1707 0021 14       		.uleb128 .LBB72-.LBB66
 1708 0022 16       		.uleb128 .LBE72-.LBB66
 1709 0023 04       		.byte	0x4
 1710 0024 18       		.uleb128 .LBB73-.LBB66
ARM GAS  C:\Users\DEVELO~1\AppData\Local\Temp\ccZ9ZH2F.s 			page 31


 1711 0025 1A       		.uleb128 .LBE73-.LBB66
 1712 0026 00       		.byte	0
 1713              	.LLRL5:
 1714 0027 07       		.byte	0x7
 1715 0028 00000000 		.4byte	.LFB434
 1716 002c C401     		.uleb128 .LFE434-.LFB434
 1717 002e 00       		.byte	0
 1718              	.Ldebug_ranges3:
 1719              		.section	.debug_line,"",%progbits
 1720              	.Ldebug_line0:
 1721 0000 34030000 		.section	.debug_str,"MS",%progbits,1
 1721      0300A601 
 1721      00000201 
 1721      FB0E0D00 
 1721      01010101 
 1722              	.LASF37:
 1723 0000 504C4C31 		.ascii	"PLL1FRACR\000"
 1723      46524143 
 1723      5200
 1724              	.LASF81:
 1725 000a 41504231 		.ascii	"APB1LLPENR\000"
 1725      4C4C5045 
 1725      4E5200
 1726              	.LASF74:
 1727 0015 41504234 		.ascii	"APB4ENR\000"
 1727      454E5200 
 1728              	.LASF22:
 1729 001d 53445254 		.ascii	"SDRTR\000"
 1729      5200
 1730              	.LASF82:
 1731 0023 41504231 		.ascii	"APB1HLPENR\000"
 1731      484C5045 
 1731      4E5200
 1732              	.LASF45:
 1733 002e 44324343 		.ascii	"D2CCIP2R\000"
 1733      49503252 
 1733      00
 1734              	.LASF20:
 1735 0037 53445452 		.ascii	"SDTR\000"
 1735      00
 1736              	.LASF60:
 1737 003c 41504231 		.ascii	"APB1HRSTR\000"
 1737      48525354 
 1737      5200
 1738              	.LASF13:
 1739 0046 75696E74 		.ascii	"uint64_t\000"
 1739      36345F74 
 1739      00
 1740              	.LASF5:
 1741 004f 73686F72 		.ascii	"short int\000"
 1741      7420696E 
 1741      7400
 1742              	.LASF62:
 1743 0059 41504234 		.ascii	"APB4RSTR\000"
 1743      52535452 
 1743      00
 1744              	.LASF52:
ARM GAS  C:\Users\DEVELO~1\AppData\Local\Temp\ccZ9ZH2F.s 			page 32


 1745 0062 42444352 		.ascii	"BDCR\000"
 1745      00
 1746              	.LASF99:
 1747 0067 63685468 		.ascii	"chThdSleep\000"
 1747      64536C65 
 1747      657000
 1748              	.LASF25:
 1749 0072 48534943 		.ascii	"HSICFGR\000"
 1749      46475200 
 1750              	.LASF46:
 1751 007a 44334343 		.ascii	"D3CCIPR\000"
 1751      49505200 
 1752              	.LASF9:
 1753 0082 5F5F7569 		.ascii	"__uint32_t\000"
 1753      6E743332 
 1753      5F7400
 1754              	.LASF90:
 1755 008d 6D6F6465 		.ascii	"mode\000"
 1755      00
 1756              	.LASF50:
 1757 0092 43494352 		.ascii	"CICR\000"
 1757      00
 1758              	.LASF96:
 1759 0097 474E5520 		.ascii	"GNU C17 11.3.1 20220712 -mcpu=cortex-m7 -mthumb -mf"
 1759      43313720 
 1759      31312E33 
 1759      2E312032 
 1759      30323230 
 1760 00ca 6C6F6174 		.ascii	"loat-abi=soft -march=armv7e-m -ggdb -O2 -fomit-fram"
 1760      2D616269 
 1760      3D736F66 
 1760      74202D6D 
 1760      61726368 
 1761 00fd 652D706F 		.ascii	"e-pointer -falign-functions=16 -ffunction-sections "
 1761      696E7465 
 1761      72202D66 
 1761      616C6967 
 1761      6E2D6675 
 1762 0130 2D666461 		.ascii	"-fdata-sections -fno-common\000"
 1762      74612D73 
 1762      65637469 
 1762      6F6E7320 
 1762      2D666E6F 
 1763              	.LASF76:
 1764 014c 41484233 		.ascii	"AHB3LPENR\000"
 1764      4C50454E 
 1764      5200
 1765              	.LASF24:
 1766 0156 464D435F 		.ascii	"FMC_Bank5_6_TypeDef\000"
 1766      42616E6B 
 1766      355F365F 
 1766      54797065 
 1766      44656600 
 1767              	.LASF28:
 1768 016a 43464752 		.ascii	"CFGR\000"
 1768      00
 1769              	.LASF51:
ARM GAS  C:\Users\DEVELO~1\AppData\Local\Temp\ccZ9ZH2F.s 			page 33


 1770 016f 52455345 		.ascii	"RESERVED5\000"
 1770      52564544 
 1770      3500
 1771              	.LASF53:
 1772 0179 52455345 		.ascii	"RESERVED6\000"
 1772      52564544 
 1772      3600
 1773              	.LASF18:
 1774 0183 42544352 		.ascii	"BTCR\000"
 1774      00
 1775              	.LASF100:
 1776 0188 73647261 		.ascii	"sdram_init_minimal\000"
 1776      6D5F696E 
 1776      69745F6D 
 1776      696E696D 
 1776      616C00
 1777              	.LASF17:
 1778 019b 464D435F 		.ascii	"FMC_Bank1_TypeDef\000"
 1778      42616E6B 
 1778      315F5479 
 1778      70654465 
 1778      6600
 1779              	.LASF32:
 1780 01ad 44334346 		.ascii	"D3CFGR\000"
 1780      475200
 1781              	.LASF88:
 1782 01b4 73646372 		.ascii	"sdcr\000"
 1782      00
 1783              	.LASF3:
 1784 01b9 7369676E 		.ascii	"signed char\000"
 1784      65642063 
 1784      68617200 
 1785              	.LASF68:
 1786 01c5 41484232 		.ascii	"AHB2ENR\000"
 1786      454E5200 
 1787              	.LASF36:
 1788 01cd 504C4C31 		.ascii	"PLL1DIVR\000"
 1788      44495652 
 1788      00
 1789              	.LASF66:
 1790 01d6 41484233 		.ascii	"AHB3ENR\000"
 1790      454E5200 
 1791              	.LASF34:
 1792 01de 504C4C43 		.ascii	"PLLCKSELR\000"
 1792      4B53454C 
 1792      5200
 1793              	.LASF59:
 1794 01e8 41504231 		.ascii	"APB1LRSTR\000"
 1794      4C525354 
 1794      5200
 1795              	.LASF48:
 1796 01f2 43494552 		.ascii	"CIER\000"
 1796      00
 1797              	.LASF7:
 1798 01f7 6C6F6E67 		.ascii	"long int\000"
 1798      20696E74 
 1798      00
ARM GAS  C:\Users\DEVELO~1\AppData\Local\Temp\ccZ9ZH2F.s 			page 34


 1799              	.LASF95:
 1800 0200 5F5F4953 		.ascii	"__ISB\000"
 1800      4200
 1801              	.LASF38:
 1802 0206 504C4C32 		.ascii	"PLL2DIVR\000"
 1802      44495652 
 1802      00
 1803              	.LASF86:
 1804 020f 5243435F 		.ascii	"RCC_TypeDef\000"
 1804      54797065 
 1804      44656600 
 1805              	.LASF61:
 1806 021b 41504232 		.ascii	"APB2RSTR\000"
 1806      52535452 
 1806      00
 1807              	.LASF85:
 1808 0224 52455345 		.ascii	"RESERVED13\000"
 1808      52564544 
 1808      313300
 1809              	.LASF92:
 1810 022f 6D6F6465 		.ascii	"mode_reg\000"
 1810      5F726567 
 1810      00
 1811              	.LASF27:
 1812 0238 43534943 		.ascii	"CSICFGR\000"
 1812      46475200 
 1813              	.LASF80:
 1814 0240 41504233 		.ascii	"APB3LPENR\000"
 1814      4C50454E 
 1814      5200
 1815              	.LASF2:
 1816 024a 6C6F6E67 		.ascii	"long double\000"
 1816      20646F75 
 1816      626C6500 
 1817              	.LASF64:
 1818 0256 4433414D 		.ascii	"D3AMR\000"
 1818      5200
 1819              	.LASF72:
 1820 025c 41504231 		.ascii	"APB1HENR\000"
 1820      48454E52 
 1820      00
 1821              	.LASF4:
 1822 0265 756E7369 		.ascii	"unsigned char\000"
 1822      676E6564 
 1822      20636861 
 1822      7200
 1823              	.LASF39:
 1824 0273 504C4C32 		.ascii	"PLL2FRACR\000"
 1824      46524143 
 1824      5200
 1825              	.LASF65:
 1826 027d 52455345 		.ascii	"RESERVED11\000"
 1826      52564544 
 1826      313100
 1827              	.LASF75:
 1828 0288 52455345 		.ascii	"RESERVED12\000"
 1828      52564544 
ARM GAS  C:\Users\DEVELO~1\AppData\Local\Temp\ccZ9ZH2F.s 			page 35


 1828      313200
 1829              	.LASF73:
 1830 0293 41504232 		.ascii	"APB2ENR\000"
 1830      454E5200 
 1831              	.LASF71:
 1832 029b 41504231 		.ascii	"APB1LENR\000"
 1832      4C454E52 
 1832      00
 1833              	.LASF26:
 1834 02a4 43525243 		.ascii	"CRRCR\000"
 1834      5200
 1835              	.LASF19:
 1836 02aa 53444352 		.ascii	"SDCR\000"
 1836      00
 1837              	.LASF94:
 1838 02af 5F5F4453 		.ascii	"__DSB\000"
 1838      4200
 1839              	.LASF11:
 1840 02b5 6C6F6E67 		.ascii	"long long unsigned int\000"
 1840      206C6F6E 
 1840      6720756E 
 1840      7369676E 
 1840      65642069 
 1841              	.LASF57:
 1842 02cc 41484234 		.ascii	"AHB4RSTR\000"
 1842      52535452 
 1842      00
 1843              	.LASF12:
 1844 02d5 75696E74 		.ascii	"uint32_t\000"
 1844      33325F74 
 1844      00
 1845              	.LASF0:
 1846 02de 756E7369 		.ascii	"unsigned int\000"
 1846      676E6564 
 1846      20696E74 
 1846      00
 1847              	.LASF56:
 1848 02eb 41484232 		.ascii	"AHB2RSTR\000"
 1848      52535452 
 1848      00
 1849              	.LASF98:
 1850 02f4 433A5C50 		.ascii	"C:\\PROJET\\ChibiOS project\\ChibiOS_21.11.4\\demos"
 1850      524F4A45 
 1850      545C4368 
 1850      6962694F 
 1850      53207072 
 1851 0323 5C53544D 		.ascii	"\\STM32\\RT-STM32H743ZI_REV_XY-NUCLEO144\000"
 1851      33325C52 
 1851      542D5354 
 1851      4D333248 
 1851      3734335A 
 1852              	.LASF77:
 1853 034a 41484231 		.ascii	"AHB1LPENR\000"
 1853      4C50454E 
 1853      5200
 1854              	.LASF30:
 1855 0354 44314346 		.ascii	"D1CFGR\000"
ARM GAS  C:\Users\DEVELO~1\AppData\Local\Temp\ccZ9ZH2F.s 			page 36


 1855      475200
 1856              	.LASF69:
 1857 035b 41484234 		.ascii	"AHB4ENR\000"
 1857      454E5200 
 1858              	.LASF35:
 1859 0363 504C4C43 		.ascii	"PLLCFGR\000"
 1859      46475200 
 1860              	.LASF6:
 1861 036b 73686F72 		.ascii	"short unsigned int\000"
 1861      7420756E 
 1861      7369676E 
 1861      65642069 
 1861      6E7400
 1862              	.LASF14:
 1863 037e 63686172 		.ascii	"char\000"
 1863      00
 1864              	.LASF43:
 1865 0383 44314343 		.ascii	"D1CCIPR\000"
 1865      49505200 
 1866              	.LASF87:
 1867 038b 5F426F6F 		.ascii	"_Bool\000"
 1867      6C00
 1868              	.LASF93:
 1869 0391 73647261 		.ascii	"sdram_wait_while_busy\000"
 1869      6D5F7761 
 1869      69745F77 
 1869      68696C65 
 1869      5F627573 
 1870              	.LASF79:
 1871 03a7 41484234 		.ascii	"AHB4LPENR\000"
 1871      4C50454E 
 1871      5200
 1872              	.LASF15:
 1873 03b1 73797369 		.ascii	"sysinterval_t\000"
 1873      6E746572 
 1873      76616C5F 
 1873      7400
 1874              	.LASF10:
 1875 03bf 5F5F7569 		.ascii	"__uint64_t\000"
 1875      6E743634 
 1875      5F7400
 1876              	.LASF78:
 1877 03ca 41484232 		.ascii	"AHB2LPENR\000"
 1877      4C50454E 
 1877      5200
 1878              	.LASF40:
 1879 03d4 504C4C33 		.ascii	"PLL3DIVR\000"
 1879      44495652 
 1879      00
 1880              	.LASF29:
 1881 03dd 52455345 		.ascii	"RESERVED1\000"
 1881      52564544 
 1881      3100
 1882              	.LASF33:
 1883 03e7 52455345 		.ascii	"RESERVED2\000"
 1883      52564544 
 1883      3200
ARM GAS  C:\Users\DEVELO~1\AppData\Local\Temp\ccZ9ZH2F.s 			page 37


 1884              	.LASF42:
 1885 03f1 52455345 		.ascii	"RESERVED3\000"
 1885      52564544 
 1885      3300
 1886              	.LASF47:
 1887 03fb 52455345 		.ascii	"RESERVED4\000"
 1887      52564544 
 1887      3400
 1888              	.LASF58:
 1889 0405 41504233 		.ascii	"APB3RSTR\000"
 1889      52535452 
 1889      00
 1890              	.LASF8:
 1891 040e 6C6F6E67 		.ascii	"long unsigned int\000"
 1891      20756E73 
 1891      69676E65 
 1891      6420696E 
 1891      7400
 1892              	.LASF63:
 1893 0420 52455345 		.ascii	"RESERVED8\000"
 1893      52564544 
 1893      3800
 1894              	.LASF70:
 1895 042a 41504233 		.ascii	"APB3ENR\000"
 1895      454E5200 
 1896              	.LASF49:
 1897 0432 43494652 		.ascii	"CIFR\000"
 1897      00
 1898              	.LASF44:
 1899 0437 44324343 		.ascii	"D2CCIP1R\000"
 1899      49503152 
 1899      00
 1900              	.LASF23:
 1901 0440 53445352 		.ascii	"SDSR\000"
 1901      00
 1902              	.LASF67:
 1903 0445 41484231 		.ascii	"AHB1ENR\000"
 1903      454E5200 
 1904              	.LASF1:
 1905 044d 6C6F6E67 		.ascii	"long long int\000"
 1905      206C6F6E 
 1905      6720696E 
 1905      7400
 1906              	.LASF89:
 1907 045b 73647472 		.ascii	"sdtr\000"
 1907      00
 1908              	.LASF16:
 1909 0460 74696D65 		.ascii	"time_conv_t\000"
 1909      5F636F6E 
 1909      765F7400 
 1910              	.LASF97:
 1911 046c 64726976 		.ascii	"drivers/sdram/sdram_hw_minimal.c\000"
 1911      6572732F 
 1911      73647261 
 1911      6D2F7364 
 1911      72616D5F 
 1912              	.LASF55:
ARM GAS  C:\Users\DEVELO~1\AppData\Local\Temp\ccZ9ZH2F.s 			page 38


 1913 048d 41484231 		.ascii	"AHB1RSTR\000"
 1913      52535452 
 1913      00
 1914              	.LASF21:
 1915 0496 5344434D 		.ascii	"SDCMR\000"
 1915      5200
 1916              	.LASF54:
 1917 049c 41484233 		.ascii	"AHB3RSTR\000"
 1917      52535452 
 1917      00
 1918              	.LASF91:
 1919 04a5 6175746F 		.ascii	"auto_refresh\000"
 1919      5F726566 
 1919      72657368 
 1919      00
 1920              	.LASF31:
 1921 04b2 44324346 		.ascii	"D2CFGR\000"
 1921      475200
 1922              	.LASF84:
 1923 04b9 41504234 		.ascii	"APB4LPENR\000"
 1923      4C50454E 
 1923      5200
 1924              	.LASF101:
 1925 04c3 73647261 		.ascii	"sdram_send_command\000"
 1925      6D5F7365 
 1925      6E645F63 
 1925      6F6D6D61 
 1925      6E6400
 1926              	.LASF83:
 1927 04d6 41504232 		.ascii	"APB2LPENR\000"
 1927      4C50454E 
 1927      5200
 1928              	.LASF41:
 1929 04e0 504C4C33 		.ascii	"PLL3FRACR\000"
 1929      46524143 
 1929      5200
 1930              		.ident	"GCC: (Arm GNU Toolchain 11.3.Rel1) 11.3.1 20220712"
ARM GAS  C:\Users\DEVELO~1\AppData\Local\Temp\ccZ9ZH2F.s 			page 39


DEFINED SYMBOLS
                            *ABS*:00000000 sdram_hw_minimal.c
C:\Users\DEVELO~1\AppData\Local\Temp\ccZ9ZH2F.s:18     .text.sdram_init_minimal:00000000 $t
C:\Users\DEVELO~1\AppData\Local\Temp\ccZ9ZH2F.s:25     .text.sdram_init_minimal:00000000 sdram_init_minimal
C:\Users\DEVELO~1\AppData\Local\Temp\ccZ9ZH2F.s:332    .text.sdram_init_minimal:000000b0 $d

UNDEFINED SYMBOLS
chThdSleep
