ARM GAS  C:\Users\DEVELO~1\AppData\Local\Temp\ccoH97es.s 			page 1


   1              		.cpu cortex-m7
   2              		.arch armv7e-m
   3              		.fpu softvfp
   4              		.eabi_attribute 20, 1
   5              		.eabi_attribute 21, 1
   6              		.eabi_attribute 23, 3
   7              		.eabi_attribute 24, 1
   8              		.eabi_attribute 25, 1
   9              		.eabi_attribute 26, 1
  10              		.eabi_attribute 30, 2
  11              		.eabi_attribute 34, 1
  12              		.eabi_attribute 18, 4
  13              		.file	"sdram_driver.c"
  14              		.text
  15              	.Ltext0:
  16              		.cfi_sections	.debug_frame
  17              		.section	.text.sdram_init,"ax",%progbits
  18              		.align	1
  19              		.p2align 4,,15
  20              		.global	sdram_init
  21              		.syntax unified
  22              		.thumb
  23              		.thumb_func
  24              		.type	sdram_init, %function
  25              	sdram_init:
  26              	.LVL0:
  27              	.LFB434:
  28              		.file 1 "drivers/sdram/sdram_driver.c"
  29              		.loc 1 35 38 view -0
  30              		.cfi_startproc
  31              		@ args = 0, pretend = 0, frame = 48
  32              		@ frame_needed = 0, uses_anonymous_args = 0
  33              		.loc 1 37 3 view .LVU1
  34              		.loc 1 35 38 is_stmt 0 view .LVU2
  35 0000 F0B5     		push	{r4, r5, r6, r7, lr}
  36              		.cfi_def_cfa_offset 20
  37              		.cfi_offset 4, -20
  38              		.cfi_offset 5, -16
  39              		.cfi_offset 6, -12
  40              		.cfi_offset 7, -8
  41              		.cfi_offset 14, -4
  42              		.loc 1 38 16 view .LVU3
  43 0002 304C     		ldr	r4, .L16
  44              		.loc 1 35 38 view .LVU4
  45 0004 8DB0     		sub	sp, sp, #52
  46              		.cfi_def_cfa_offset 72
  47              		.loc 1 35 38 view .LVU5
  48 0006 0546     		mov	r5, r0
  49              		.loc 1 37 3 view .LVU6
  50 0008 2F48     		ldr	r0, .L16+4
  51              	.LVL1:
  52              		.loc 1 37 3 view .LVU7
  53 000a FFF7FEFF 		bl	chMtxLock
  54              	.LVL2:
  55              		.loc 1 38 3 is_stmt 1 view .LVU8
  56              		.loc 1 38 6 is_stmt 0 view .LVU9
  57 000e 2678     		ldrb	r6, [r4]	@ zero_extendqisi2
ARM GAS  C:\Users\DEVELO~1\AppData\Local\Temp\ccoH97es.s 			page 2


  58 0010 A6BB     		cbnz	r6, .L12
  59              		.loc 1 43 3 is_stmt 1 view .LVU10
  60              		.loc 1 44 3 view .LVU11
  61              		.loc 1 45 3 view .LVU12
  62              		.loc 1 43 19 is_stmt 0 view .LVU13
  63 0012 0127     		movs	r7, #1
  64              		.loc 1 46 3 view .LVU14
  65 0014 2C48     		ldr	r0, .L16+4
  66              		.loc 1 45 26 view .LVU15
  67 0016 A670     		strb	r6, [r4, #2]
  68              		.loc 1 46 3 is_stmt 1 view .LVU16
  69              		.loc 1 43 19 is_stmt 0 view .LVU17
  70 0018 2780     		strh	r7, [r4]	@ movhi
  71              		.loc 1 46 3 view .LVU18
  72 001a FFF7FEFF 		bl	chMtxUnlock
  73              	.LVL3:
  74              		.loc 1 49 3 is_stmt 1 view .LVU19
  75              		.loc 1 49 8 is_stmt 0 view .LVU20
  76 001e FFF7FEFF 		bl	sdram_hw_init_sequence
  77              	.LVL4:
  78              		.loc 1 49 6 view .LVU21
  79 0022 0028     		cmp	r0, #0
  80 0024 41D0     		beq	.L13
  81              		.loc 1 56 3 is_stmt 1 view .LVU22
  82              		.loc 1 56 6 is_stmt 0 view .LVU23
  83 0026 7DB3     		cbz	r5, .L14
  84              		.loc 1 64 3 is_stmt 1 view .LVU24
  85              		.loc 1 64 24 is_stmt 0 view .LVU25
  86 0028 3022     		movs	r2, #48
  87 002a 3146     		mov	r1, r6
  88 002c 6846     		mov	r0, sp
  89 002e FFF7FEFF 		bl	memset
  90              	.LVL5:
  91              		.loc 1 65 3 is_stmt 1 view .LVU26
  92              		.loc 1 66 3 view .LVU27
  93              		.loc 1 68 3 view .LVU28
  94 0032 2548     		ldr	r0, .L16+4
  95 0034 FFF7FEFF 		bl	chMtxLock
  96              	.LVL6:
  97              		.loc 1 69 3 view .LVU29
  98              		.loc 1 70 3 is_stmt 0 view .LVU30
  99 0038 2348     		ldr	r0, .L16+4
 100              		.loc 1 69 26 view .LVU31
 101 003a A770     		strb	r7, [r4, #2]
 102              		.loc 1 70 3 is_stmt 1 view .LVU32
 103 003c FFF7FEFF 		bl	chMtxUnlock
 104              	.LVL7:
 105              		.loc 1 72 3 view .LVU33
 106              		.loc 1 72 18 is_stmt 0 view .LVU34
 107 0040 6846     		mov	r0, sp
 108 0042 FFF7FEFF 		bl	sdram_bist_start
 109              	.LVL8:
 110 0046 0546     		mov	r5, r0
 111              		.loc 1 74 3 view .LVU35
 112 0048 1F48     		ldr	r0, .L16+4
 113              	.LVL9:
 114              		.loc 1 74 3 is_stmt 1 view .LVU36
ARM GAS  C:\Users\DEVELO~1\AppData\Local\Temp\ccoH97es.s 			page 3


 115 004a FFF7FEFF 		bl	chMtxLock
 116              	.LVL10:
 117              		.loc 1 75 3 view .LVU37
 118              		.loc 1 76 30 is_stmt 0 view .LVU38
 119 004e 0DF10C0E 		add	lr, sp, #12
 120 0052 04F1040C 		add	ip, r4, #4
 121              		.loc 1 75 26 view .LVU39
 122 0056 A670     		strb	r6, [r4, #2]
 123              		.loc 1 76 3 is_stmt 1 view .LVU40
 124              		.loc 1 76 30 is_stmt 0 view .LVU41
 125 0058 BEE80F00 		ldmia	lr!, {r0, r1, r2, r3}
 126 005c ACE80F00 		stmia	ip!, {r0, r1, r2, r3}
 127 0060 9EE80F00 		ldm	lr, {r0, r1, r2, r3}
 128 0064 8CE80F00 		stm	ip, {r0, r1, r2, r3}
 129              		.loc 1 78 3 is_stmt 1 view .LVU42
 130              		.loc 1 78 6 is_stmt 0 view .LVU43
 131 0068 CDB9     		cbnz	r5, .L15
 132              	.L8:
 133 006a 0322     		movs	r2, #3
 134 006c 0423     		movs	r3, #4
 135              	.L5:
 136              		.loc 1 86 3 view .LVU44
 137 006e 1648     		ldr	r0, .L16+4
 138              		.loc 1 79 21 view .LVU45
 139 0070 2270     		strb	r2, [r4]
 140              		.loc 1 80 26 view .LVU46
 141 0072 6370     		strb	r3, [r4, #1]
 142              		.loc 1 86 3 is_stmt 1 view .LVU47
 143 0074 FFF7FEFF 		bl	chMtxUnlock
 144              	.LVL11:
 145              		.loc 1 87 1 is_stmt 0 view .LVU48
 146 0078 0DB0     		add	sp, sp, #52
 147              		.cfi_remember_state
 148              		.cfi_def_cfa_offset 20
 149              		@ sp needed
 150 007a F0BD     		pop	{r4, r5, r6, r7, pc}
 151              	.LVL12:
 152              	.L12:
 153              		.cfi_restore_state
 154              		.loc 1 39 5 is_stmt 1 view .LVU49
 155 007c 1248     		ldr	r0, .L16+4
 156              		.loc 1 59 5 view .LVU50
 157              		.loc 1 87 1 is_stmt 0 view .LVU51
 158 007e 0DB0     		add	sp, sp, #52
 159              		.cfi_remember_state
 160              		.cfi_def_cfa_offset 20
 161              		@ sp needed
 162 0080 BDE8F040 		pop	{r4, r5, r6, r7, lr}
 163              		.cfi_restore 14
 164              		.cfi_restore 7
 165              		.cfi_restore 6
 166              		.cfi_restore 5
 167              		.cfi_restore 4
 168              		.cfi_def_cfa_offset 0
 169              		.loc 1 59 5 view .LVU52
 170 0084 FFF7FEBF 		b	chMtxUnlock
 171              	.LVL13:
ARM GAS  C:\Users\DEVELO~1\AppData\Local\Temp\ccoH97es.s 			page 4


 172              	.L14:
 173              		.cfi_restore_state
 174              		.loc 1 57 5 is_stmt 1 view .LVU53
 175 0088 0F48     		ldr	r0, .L16+4
 176 008a FFF7FEFF 		bl	chMtxLock
 177              	.LVL14:
 178              		.loc 1 58 5 view .LVU54
 179              		.loc 1 58 21 is_stmt 0 view .LVU55
 180 008e 0223     		movs	r3, #2
 181              		.loc 1 59 5 view .LVU56
 182 0090 0D48     		ldr	r0, .L16+4
 183              		.loc 1 58 21 view .LVU57
 184 0092 2370     		strb	r3, [r4]
 185              		.loc 1 59 5 is_stmt 1 view .LVU58
 186              		.loc 1 87 1 is_stmt 0 view .LVU59
 187 0094 0DB0     		add	sp, sp, #52
 188              		.cfi_remember_state
 189              		.cfi_def_cfa_offset 20
 190              		@ sp needed
 191 0096 BDE8F040 		pop	{r4, r5, r6, r7, lr}
 192              		.cfi_restore 14
 193              		.cfi_restore 7
 194              		.cfi_restore 6
 195              		.cfi_restore 5
 196              		.cfi_restore 4
 197              		.cfi_def_cfa_offset 0
 198              		.loc 1 59 5 view .LVU60
 199 009a FFF7FEBF 		b	chMtxUnlock
 200              	.LVL15:
 201              	.L15:
 202              		.cfi_restore_state
 203              		.loc 1 78 34 discriminator 1 view .LVU61
 204 009e 9DF80C30 		ldrb	r3, [sp, #12]	@ zero_extendqisi2
 205              		.loc 1 78 16 discriminator 1 view .LVU62
 206 00a2 002B     		cmp	r3, #0
 207 00a4 E1D1     		bne	.L8
 208              		.loc 1 78 16 view .LVU63
 209 00a6 0222     		movs	r2, #2
 210 00a8 E1E7     		b	.L5
 211              	.LVL16:
 212              	.L13:
 213              		.loc 1 50 5 is_stmt 1 view .LVU64
 214 00aa 0748     		ldr	r0, .L16+4
 215 00ac FFF7FEFF 		bl	chMtxLock
 216              	.LVL17:
 217              		.loc 1 51 5 view .LVU65
 218              	.LBB10:
 219              	.LBI10:
 220              		.loc 1 18 13 view .LVU66
 221              	.LBB11:
 222              		.loc 1 19 3 view .LVU67
 223              		.loc 1 20 3 view .LVU68
 224              		.loc 1 19 19 is_stmt 0 view .LVU69
 225 00b0 4FF48273 		mov	r3, #260
 226              	.LBE11:
 227              	.LBE10:
 228              		.loc 1 52 5 view .LVU70
ARM GAS  C:\Users\DEVELO~1\AppData\Local\Temp\ccoH97es.s 			page 5


 229 00b4 0448     		ldr	r0, .L16+4
 230              	.LBB13:
 231              	.LBB12:
 232              		.loc 1 19 19 view .LVU71
 233 00b6 2380     		strh	r3, [r4]	@ movhi
 234              	.LVL18:
 235              		.loc 1 19 19 view .LVU72
 236              	.LBE12:
 237              	.LBE13:
 238              		.loc 1 52 5 is_stmt 1 view .LVU73
 239              		.loc 1 59 5 view .LVU74
 240              		.loc 1 87 1 is_stmt 0 view .LVU75
 241 00b8 0DB0     		add	sp, sp, #52
 242              		.cfi_def_cfa_offset 20
 243              		@ sp needed
 244 00ba BDE8F040 		pop	{r4, r5, r6, r7, lr}
 245              		.cfi_restore 14
 246              		.cfi_restore 7
 247              		.cfi_restore 6
 248              		.cfi_restore 5
 249              		.cfi_restore 4
 250              		.cfi_def_cfa_offset 0
 251              		.loc 1 59 5 view .LVU76
 252 00be FFF7FEBF 		b	chMtxUnlock
 253              	.LVL19:
 254              	.L17:
 255 00c2 00BF     		.align	2
 256              	.L16:
 257 00c4 00000000 		.word	.LANCHOR1
 258 00c8 00000000 		.word	.LANCHOR0
 259              		.cfi_endproc
 260              	.LFE434:
 261              		.size	sdram_init, .-sdram_init
 262              		.section	.text.sdram_is_initialized,"ax",%progbits
 263              		.align	1
 264              		.p2align 4,,15
 265              		.global	sdram_is_initialized
 266              		.syntax unified
 267              		.thumb
 268              		.thumb_func
 269              		.type	sdram_is_initialized, %function
 270              	sdram_is_initialized:
 271              	.LFB435:
 272              		.loc 1 89 33 is_stmt 1 view -0
 273              		.cfi_startproc
 274              		@ args = 0, pretend = 0, frame = 0
 275              		@ frame_needed = 0, uses_anonymous_args = 0
 276              		.loc 1 90 3 view .LVU78
 277              		.loc 1 89 33 is_stmt 0 view .LVU79
 278 0000 10B5     		push	{r4, lr}
 279              		.cfi_def_cfa_offset 8
 280              		.cfi_offset 4, -8
 281              		.cfi_offset 14, -4
 282              		.loc 1 90 3 view .LVU80
 283 0002 074C     		ldr	r4, .L20
 284 0004 2046     		mov	r0, r4
 285 0006 FFF7FEFF 		bl	chMtxLock
ARM GAS  C:\Users\DEVELO~1\AppData\Local\Temp\ccoH97es.s 			page 6


 286              	.LVL20:
 287              		.loc 1 91 3 is_stmt 1 view .LVU81
 288              		.loc 1 91 32 is_stmt 0 view .LVU82
 289 000a 064B     		ldr	r3, .L20+4
 290              		.loc 1 92 3 view .LVU83
 291 000c 2046     		mov	r0, r4
 292              		.loc 1 91 8 view .LVU84
 293 000e 1C78     		ldrb	r4, [r3]	@ zero_extendqisi2
 294 0010 003C     		subs	r4, r4, #0
 295 0012 18BF     		it	ne
 296 0014 0124     		movne	r4, #1
 297              	.LVL21:
 298              		.loc 1 92 3 is_stmt 1 view .LVU85
 299 0016 FFF7FEFF 		bl	chMtxUnlock
 300              	.LVL22:
 301              		.loc 1 93 3 view .LVU86
 302              		.loc 1 94 1 is_stmt 0 view .LVU87
 303 001a 2046     		mov	r0, r4
 304 001c 10BD     		pop	{r4, pc}
 305              	.LVL23:
 306              	.L21:
 307              		.loc 1 94 1 view .LVU88
 308 001e 00BF     		.align	2
 309              	.L20:
 310 0020 00000000 		.word	.LANCHOR0
 311 0024 00000000 		.word	.LANCHOR1
 312              		.cfi_endproc
 313              	.LFE435:
 314              		.size	sdram_is_initialized, .-sdram_is_initialized
 315              		.section	.text.sdram_status,"ax",%progbits
 316              		.align	1
 317              		.p2align 4,,15
 318              		.global	sdram_status
 319              		.syntax unified
 320              		.thumb
 321              		.thumb_func
 322              		.type	sdram_status, %function
 323              	sdram_status:
 324              	.LFB436:
 325              		.loc 1 96 34 is_stmt 1 view -0
 326              		.cfi_startproc
 327              		@ args = 0, pretend = 0, frame = 0
 328              		@ frame_needed = 0, uses_anonymous_args = 0
 329              		.loc 1 97 3 view .LVU90
 330              		.loc 1 96 34 is_stmt 0 view .LVU91
 331 0000 10B5     		push	{r4, lr}
 332              		.cfi_def_cfa_offset 8
 333              		.cfi_offset 4, -8
 334              		.cfi_offset 14, -4
 335              		.loc 1 97 3 view .LVU92
 336 0002 054C     		ldr	r4, .L24
 337 0004 2046     		mov	r0, r4
 338 0006 FFF7FEFF 		bl	chMtxLock
 339              	.LVL24:
 340              		.loc 1 98 3 is_stmt 1 view .LVU93
 341              		.loc 1 98 17 is_stmt 0 view .LVU94
 342 000a 044B     		ldr	r3, .L24+4
ARM GAS  C:\Users\DEVELO~1\AppData\Local\Temp\ccoH97es.s 			page 7


 343              		.loc 1 99 3 view .LVU95
 344 000c 2046     		mov	r0, r4
 345              		.loc 1 98 17 view .LVU96
 346 000e 1C78     		ldrb	r4, [r3]	@ zero_extendqisi2
 347              	.LVL25:
 348              		.loc 1 99 3 is_stmt 1 view .LVU97
 349 0010 FFF7FEFF 		bl	chMtxUnlock
 350              	.LVL26:
 351              		.loc 1 100 3 view .LVU98
 352              		.loc 1 101 1 is_stmt 0 view .LVU99
 353 0014 2046     		mov	r0, r4
 354 0016 10BD     		pop	{r4, pc}
 355              	.LVL27:
 356              	.L25:
 357              		.loc 1 101 1 view .LVU100
 358              		.align	2
 359              	.L24:
 360 0018 00000000 		.word	.LANCHOR0
 361 001c 00000000 		.word	.LANCHOR1
 362              		.cfi_endproc
 363              	.LFE436:
 364              		.size	sdram_status, .-sdram_status
 365              		.section	.text.sdram_get_error,"ax",%progbits
 366              		.align	1
 367              		.p2align 4,,15
 368              		.global	sdram_get_error
 369              		.syntax unified
 370              		.thumb
 371              		.thumb_func
 372              		.type	sdram_get_error, %function
 373              	sdram_get_error:
 374              	.LFB437:
 375              		.loc 1 103 37 is_stmt 1 view -0
 376              		.cfi_startproc
 377              		@ args = 0, pretend = 0, frame = 0
 378              		@ frame_needed = 0, uses_anonymous_args = 0
 379              		.loc 1 104 3 view .LVU102
 380              		.loc 1 103 37 is_stmt 0 view .LVU103
 381 0000 10B5     		push	{r4, lr}
 382              		.cfi_def_cfa_offset 8
 383              		.cfi_offset 4, -8
 384              		.cfi_offset 14, -4
 385              		.loc 1 104 3 view .LVU104
 386 0002 054C     		ldr	r4, .L28
 387 0004 2046     		mov	r0, r4
 388 0006 FFF7FEFF 		bl	chMtxLock
 389              	.LVL28:
 390              		.loc 1 105 3 is_stmt 1 view .LVU105
 391              		.loc 1 105 17 is_stmt 0 view .LVU106
 392 000a 044B     		ldr	r3, .L28+4
 393              		.loc 1 106 3 view .LVU107
 394 000c 2046     		mov	r0, r4
 395              		.loc 1 105 17 view .LVU108
 396 000e 5C78     		ldrb	r4, [r3, #1]	@ zero_extendqisi2
 397              	.LVL29:
 398              		.loc 1 106 3 is_stmt 1 view .LVU109
 399 0010 FFF7FEFF 		bl	chMtxUnlock
ARM GAS  C:\Users\DEVELO~1\AppData\Local\Temp\ccoH97es.s 			page 8


 400              	.LVL30:
 401              		.loc 1 107 3 view .LVU110
 402              		.loc 1 108 1 is_stmt 0 view .LVU111
 403 0014 2046     		mov	r0, r4
 404 0016 10BD     		pop	{r4, pc}
 405              	.LVL31:
 406              	.L29:
 407              		.loc 1 108 1 view .LVU112
 408              		.align	2
 409              	.L28:
 410 0018 00000000 		.word	.LANCHOR0
 411 001c 00000000 		.word	.LANCHOR1
 412              		.cfi_endproc
 413              	.LFE437:
 414              		.size	sdram_get_error, .-sdram_get_error
 415              		.section	.text.sdram_run_bist,"ax",%progbits
 416              		.align	1
 417              		.p2align 4,,15
 418              		.global	sdram_run_bist
 419              		.syntax unified
 420              		.thumb
 421              		.thumb_func
 422              		.type	sdram_run_bist, %function
 423              	sdram_run_bist:
 424              	.LVL32:
 425              	.LFB438:
 426              		.loc 1 110 78 is_stmt 1 view -0
 427              		.cfi_startproc
 428              		@ args = 0, pretend = 0, frame = 48
 429              		@ frame_needed = 0, uses_anonymous_args = 0
 430              		.loc 1 111 3 view .LVU114
 431              		.loc 1 113 3 view .LVU115
 432              		.loc 1 110 78 is_stmt 0 view .LVU116
 433 0000 2DE9F043 		push	{r4, r5, r6, r7, r8, r9, lr}
 434              		.cfi_def_cfa_offset 28
 435              		.cfi_offset 4, -28
 436              		.cfi_offset 5, -24
 437              		.cfi_offset 6, -20
 438              		.cfi_offset 7, -16
 439              		.cfi_offset 8, -12
 440              		.cfi_offset 9, -8
 441              		.cfi_offset 14, -4
 442              		.loc 1 114 15 view .LVU117
 443 0004 2F4D     		ldr	r5, .L51
 444              		.loc 1 110 78 view .LVU118
 445 0006 8DB0     		sub	sp, sp, #52
 446              		.cfi_def_cfa_offset 80
 447              		.loc 1 110 78 view .LVU119
 448 0008 0646     		mov	r6, r0
 449              		.loc 1 113 3 view .LVU120
 450 000a 2F48     		ldr	r0, .L51+4
 451              	.LVL33:
 452              		.loc 1 110 78 view .LVU121
 453 000c 0C46     		mov	r4, r1
 454              		.loc 1 113 3 view .LVU122
 455 000e FFF7FEFF 		bl	chMtxLock
 456              	.LVL34:
ARM GAS  C:\Users\DEVELO~1\AppData\Local\Temp\ccoH97es.s 			page 9


 457              		.loc 1 114 3 is_stmt 1 view .LVU123
 458              		.loc 1 114 15 is_stmt 0 view .LVU124
 459 0012 95F80090 		ldrb	r9, [r5]	@ zero_extendqisi2
 460              	.LVL35:
 461              		.loc 1 116 3 is_stmt 1 view .LVU125
 462              		.loc 1 116 6 is_stmt 0 view .LVU126
 463 0016 B9F1010F 		cmp	r9, #1
 464 001a 04D9     		bls	.L31
 465              		.loc 1 116 85 discriminator 1 view .LVU127
 466 001c 95F80280 		ldrb	r8, [r5, #2]	@ zero_extendqisi2
 467 0020 B8F1000F 		cmp	r8, #0
 468 0024 07D0     		beq	.L32
 469              	.L31:
 470              		.loc 1 117 5 is_stmt 1 view .LVU128
 471              		.loc 1 118 12 is_stmt 0 view .LVU129
 472 0026 0027     		movs	r7, #0
 473              		.loc 1 117 5 view .LVU130
 474 0028 2748     		ldr	r0, .L51+4
 475 002a FFF7FEFF 		bl	chMtxUnlock
 476              	.LVL36:
 477              		.loc 1 118 5 is_stmt 1 view .LVU131
 478              		.loc 1 158 1 is_stmt 0 view .LVU132
 479 002e 3846     		mov	r0, r7
 480 0030 0DB0     		add	sp, sp, #52
 481              		.cfi_remember_state
 482              		.cfi_def_cfa_offset 28
 483              		@ sp needed
 484 0032 BDE8F083 		pop	{r4, r5, r6, r7, r8, r9, pc}
 485              	.LVL37:
 486              	.L32:
 487              		.cfi_restore_state
 488              		.loc 1 121 3 is_stmt 1 view .LVU133
 489              		.loc 1 121 26 is_stmt 0 view .LVU134
 490 0036 0123     		movs	r3, #1
 491              		.loc 1 122 3 view .LVU135
 492 0038 2348     		ldr	r0, .L51+4
 493              		.loc 1 121 26 view .LVU136
 494 003a AB70     		strb	r3, [r5, #2]
 495              		.loc 1 122 3 is_stmt 1 view .LVU137
 496 003c FFF7FEFF 		bl	chMtxUnlock
 497              	.LVL38:
 498              		.loc 1 124 3 view .LVU138
 499              		.loc 1 124 24 is_stmt 0 view .LVU139
 500 0040 3022     		movs	r2, #48
 501 0042 4146     		mov	r1, r8
 502 0044 6846     		mov	r0, sp
 503 0046 FFF7FEFF 		bl	memset
 504              	.LVL39:
 505              		.loc 1 125 3 is_stmt 1 view .LVU140
 506              		.loc 1 128 18 is_stmt 0 view .LVU141
 507 004a 6846     		mov	r0, sp
 508              		.loc 1 125 12 view .LVU142
 509 004c 8DF80060 		strb	r6, [sp]
 510              		.loc 1 126 3 is_stmt 1 view .LVU143
 511              		.loc 1 128 3 view .LVU144
 512              		.loc 1 128 18 is_stmt 0 view .LVU145
 513 0050 FFF7FEFF 		bl	sdram_bist_start
ARM GAS  C:\Users\DEVELO~1\AppData\Local\Temp\ccoH97es.s 			page 10


 514              	.LVL40:
 515 0054 0746     		mov	r7, r0
 516              	.LVL41:
 517              		.loc 1 130 3 is_stmt 1 view .LVU146
 518 0056 1C48     		ldr	r0, .L51+4
 519 0058 FFF7FEFF 		bl	chMtxLock
 520              	.LVL42:
 521              		.loc 1 131 3 view .LVU147
 522              		.loc 1 131 26 is_stmt 0 view .LVU148
 523 005c 85F80280 		strb	r8, [r5, #2]
 524              		.loc 1 133 3 is_stmt 1 view .LVU149
 525              		.loc 1 133 6 is_stmt 0 view .LVU150
 526 0060 BFB1     		cbz	r7, .L35
 527              		.loc 1 134 5 is_stmt 1 view .LVU151
 528              		.loc 1 134 32 is_stmt 0 view .LVU152
 529 0062 0DF10C0E 		add	lr, sp, #12
 530 0066 05F1040C 		add	ip, r5, #4
 531              		.loc 1 136 8 view .LVU153
 532 006a 9DF80C80 		ldrb	r8, [sp, #12]	@ zero_extendqisi2
 533              		.loc 1 134 32 view .LVU154
 534 006e BEE80F00 		ldmia	lr!, {r0, r1, r2, r3}
 535 0072 ACE80F00 		stmia	ip!, {r0, r1, r2, r3}
 536 0076 9EE80F00 		ldm	lr, {r0, r1, r2, r3}
 537 007a 8CE80F00 		stm	ip, {r0, r1, r2, r3}
 538              		.loc 1 136 5 is_stmt 1 view .LVU155
 539              		.loc 1 136 8 is_stmt 0 view .LVU156
 540 007e B8F1000F 		cmp	r8, #0
 541 0082 17D1     		bne	.L36
 542              		.loc 1 137 7 is_stmt 1 view .LVU157
 543              		.loc 1 137 10 is_stmt 0 view .LVU158
 544 0084 B9F1030F 		cmp	r9, #3
 545 0088 03D1     		bne	.L35
 546 008a 012E     		cmp	r6, #1
 547 008c 01D1     		bne	.L35
 548              		.loc 1 138 9 is_stmt 1 view .LVU159
 549              		.loc 1 139 9 view .LVU160
 550              		.loc 1 138 25 is_stmt 0 view .LVU161
 551 008e 0223     		movs	r3, #2
 552 0090 2B80     		strh	r3, [r5]	@ movhi
 553              	.L35:
 554              		.loc 1 152 3 is_stmt 1 view .LVU162
 555              		.loc 1 152 6 is_stmt 0 view .LVU163
 556 0092 44B1     		cbz	r4, .L39
 557              		.loc 1 153 5 is_stmt 1 view .LVU164
 558              		.loc 1 153 17 is_stmt 0 view .LVU165
 559 0094 0D4D     		ldr	r5, .L51+8
 560 0096 A446     		mov	ip, r4
 561 0098 0FCD     		ldmia	r5!, {r0, r1, r2, r3}
 562 009a ACE80F00 		stmia	ip!, {r0, r1, r2, r3}
 563 009e 95E80F00 		ldm	r5, {r0, r1, r2, r3}
 564 00a2 8CE80F00 		stm	ip, {r0, r1, r2, r3}
 565              	.L39:
 566              		.loc 1 156 3 is_stmt 1 view .LVU166
 567 00a6 0848     		ldr	r0, .L51+4
 568 00a8 FFF7FEFF 		bl	chMtxUnlock
 569              	.LVL43:
 570              		.loc 1 157 3 view .LVU167
ARM GAS  C:\Users\DEVELO~1\AppData\Local\Temp\ccoH97es.s 			page 11


 571              		.loc 1 158 1 is_stmt 0 view .LVU168
 572 00ac 3846     		mov	r0, r7
 573 00ae 0DB0     		add	sp, sp, #52
 574              		.cfi_remember_state
 575              		.cfi_def_cfa_offset 28
 576              		@ sp needed
 577 00b0 BDE8F083 		pop	{r4, r5, r6, r7, r8, r9, pc}
 578              	.LVL44:
 579              	.L36:
 580              		.cfi_restore_state
 581              		.loc 1 142 7 is_stmt 1 view .LVU169
 582              		.loc 1 142 28 is_stmt 0 view .LVU170
 583 00b4 0423     		movs	r3, #4
 584              		.loc 1 144 10 view .LVU171
 585 00b6 012E     		cmp	r6, #1
 586              		.loc 1 142 28 view .LVU172
 587 00b8 6B70     		strb	r3, [r5, #1]
 588              		.loc 1 144 7 is_stmt 1 view .LVU173
 589              		.loc 1 145 9 view .LVU174
 590              		.loc 1 147 9 view .LVU175
 591              		.loc 1 147 25 is_stmt 0 view .LVU176
 592 00ba 18BF     		it	ne
 593 00bc 0323     		movne	r3, #3
 594 00be 2B70     		strb	r3, [r5]
 595 00c0 E7E7     		b	.L35
 596              	.L52:
 597 00c2 00BF     		.align	2
 598              	.L51:
 599 00c4 00000000 		.word	.LANCHOR1
 600 00c8 00000000 		.word	.LANCHOR0
 601 00cc 04000000 		.word	.LANCHOR1+4
 602              		.cfi_endproc
 603              	.LFE438:
 604              		.size	sdram_run_bist, .-sdram_run_bist
 605              		.section	.text.sdram_get_region,"ax",%progbits
 606              		.align	1
 607              		.p2align 4,,15
 608              		.global	sdram_get_region
 609              		.syntax unified
 610              		.thumb
 611              		.thumb_func
 612              		.type	sdram_get_region, %function
 613              	sdram_get_region:
 614              	.LVL45:
 615              	.LFB439:
 616              		.loc 1 160 83 is_stmt 1 view -0
 617              		.cfi_startproc
 618              		@ args = 0, pretend = 0, frame = 0
 619              		@ frame_needed = 0, uses_anonymous_args = 0
 620              		.loc 1 161 3 view .LVU178
 621              		.loc 1 160 83 is_stmt 0 view .LVU179
 622 0000 F8B5     		push	{r3, r4, r5, r6, r7, lr}
 623              		.cfi_def_cfa_offset 24
 624              		.cfi_offset 3, -24
 625              		.cfi_offset 4, -20
 626              		.cfi_offset 5, -16
 627              		.cfi_offset 6, -12
ARM GAS  C:\Users\DEVELO~1\AppData\Local\Temp\ccoH97es.s 			page 12


 628              		.cfi_offset 7, -8
 629              		.cfi_offset 14, -4
 630              		.loc 1 161 6 view .LVU180
 631 0002 0C46     		mov	r4, r1
 632 0004 E9B1     		cbz	r1, .L58
 633              		.loc 1 165 3 is_stmt 1 view .LVU181
 634 0006 0546     		mov	r5, r0
 635 0008 0F48     		ldr	r0, .L66
 636              	.LVL46:
 637              		.loc 1 165 3 is_stmt 0 view .LVU182
 638 000a FFF7FEFF 		bl	chMtxLock
 639              	.LVL47:
 640              		.loc 1 166 3 is_stmt 1 view .LVU183
 641              		.loc 1 166 17 is_stmt 0 view .LVU184
 642 000e 0F4B     		ldr	r3, .L66+4
 643              		.loc 1 168 3 view .LVU185
 644 0010 0D48     		ldr	r0, .L66
 645              		.loc 1 166 17 view .LVU186
 646 0012 1E78     		ldrb	r6, [r3]	@ zero_extendqisi2
 647              	.LVL48:
 648              		.loc 1 167 3 is_stmt 1 view .LVU187
 649              		.loc 1 167 8 is_stmt 0 view .LVU188
 650 0014 9F78     		ldrb	r7, [r3, #2]	@ zero_extendqisi2
 651              	.LVL49:
 652              		.loc 1 168 3 is_stmt 1 view .LVU189
 653 0016 FFF7FEFF 		bl	chMtxUnlock
 654              	.LVL50:
 655              		.loc 1 170 3 view .LVU190
 656              		.loc 1 170 6 is_stmt 0 view .LVU191
 657 001a 042E     		cmp	r6, #4
 658 001c 08D0     		beq	.L57
 659 001e 3FB9     		cbnz	r7, .L57
 660              		.loc 1 175 3 is_stmt 1 view .LVU192
 661              		.loc 1 175 6 is_stmt 0 view .LVU193
 662 0020 032D     		cmp	r5, #3
 663 0022 05D0     		beq	.L57
 664              		.loc 1 180 3 is_stmt 1 view .LVU194
 665              		.loc 1 180 8 is_stmt 0 view .LVU195
 666 0024 2146     		mov	r1, r4
 667 0026 2846     		mov	r0, r5
 668 0028 FFF7FEFF 		bl	sdram_query_region_descriptor
 669              	.LVL51:
 670              		.loc 1 180 6 view .LVU196
 671 002c 00B1     		cbz	r0, .L57
 672              		.loc 1 186 1 view .LVU197
 673 002e F8BD     		pop	{r3, r4, r5, r6, r7, pc}
 674              	.LVL52:
 675              	.L57:
 676              		.loc 1 171 5 is_stmt 1 view .LVU198
 677              	.LBB14:
 678              	.LBI14:
 679              		.loc 1 23 13 view .LVU199
 680              	.LBB15:
 681              		.loc 1 24 3 view .LVU200
 682              		.loc 1 28 3 view .LVU201
 683              		.loc 1 29 14 is_stmt 0 view .LVU202
 684 0030 0023     		movs	r3, #0
ARM GAS  C:\Users\DEVELO~1\AppData\Local\Temp\ccoH97es.s 			page 13


 685              		.loc 1 28 12 view .LVU203
 686 0032 0422     		movs	r2, #4
 687              	.LBE15:
 688              	.LBE14:
 689              		.loc 1 172 12 view .LVU204
 690 0034 1846     		mov	r0, r3
 691              	.LBB17:
 692              	.LBB16:
 693              		.loc 1 28 12 view .LVU205
 694 0036 2270     		strb	r2, [r4]
 695              		.loc 1 29 3 is_stmt 1 view .LVU206
 696              		.loc 1 30 20 is_stmt 0 view .LVU207
 697 0038 C4E90133 		strd	r3, r3, [r4, #4]
 698              		.loc 1 31 3 is_stmt 1 view .LVU208
 699              		.loc 1 32 25 is_stmt 0 view .LVU209
 700 003c C4E90333 		strd	r3, r3, [r4, #12]
 701              	.LVL53:
 702              		.loc 1 32 25 view .LVU210
 703              	.LBE16:
 704              	.LBE17:
 705              		.loc 1 172 5 is_stmt 1 view .LVU211
 706              		.loc 1 186 1 is_stmt 0 view .LVU212
 707 0040 F8BD     		pop	{r3, r4, r5, r6, r7, pc}
 708              	.LVL54:
 709              	.L58:
 710              		.loc 1 162 12 view .LVU213
 711 0042 0846     		mov	r0, r1
 712              	.LVL55:
 713              		.loc 1 186 1 view .LVU214
 714 0044 F8BD     		pop	{r3, r4, r5, r6, r7, pc}
 715              	.L67:
 716 0046 00BF     		.align	2
 717              	.L66:
 718 0048 00000000 		.word	.LANCHOR0
 719 004c 00000000 		.word	.LANCHOR1
 720              		.cfi_endproc
 721              	.LFE439:
 722              		.size	sdram_get_region, .-sdram_get_region
 723              		.global	sdram_ctx_mtx
 724              		.global	sdram_ctx
 725              		.section	.bss.sdram_ctx,"aw",%nobits
 726              		.align	2
 727              		.set	.LANCHOR1,. + 0
 728              		.type	sdram_ctx, %object
 729              		.size	sdram_ctx, 36
 730              	sdram_ctx:
 731 0000 00000000 		.space	36
 731      00000000 
 731      00000000 
 731      00000000 
 731      00000000 
 732              		.section	.data.sdram_ctx_mtx,"aw"
 733              		.align	2
 734              		.set	.LANCHOR0,. + 0
 735              		.type	sdram_ctx_mtx, %object
 736              		.size	sdram_ctx_mtx, 16
 737              	sdram_ctx_mtx:
ARM GAS  C:\Users\DEVELO~1\AppData\Local\Temp\ccoH97es.s 			page 14


 738 0000 00000000 		.word	sdram_ctx_mtx
 739 0004 00000000 		.word	sdram_ctx_mtx
 740 0008 00000000 		.word	0
 741 000c 00000000 		.word	0
 742              		.text
 743              	.Letext0:
 744              		.file 2 "c:\\chibistudio\\tools\\gnu tools arm embedded\\11.3 2022.08\\arm-none-eabi\\include\\mac
 745              		.file 3 "c:\\chibistudio\\tools\\gnu tools arm embedded\\11.3 2022.08\\arm-none-eabi\\include\\sys
 746              		.file 4 "../../../os/common/ports/ARM-common/chtypes.h"
 747              		.file 5 "../../../os/rt/include/chearly.h"
 748              		.file 6 "../../../os/rt/include/chobjects.h"
 749              		.file 7 "../../../os/rt/include/chrfcu.h"
 750              		.file 8 "../../../os/rt/include/chdebug.h"
 751              		.file 9 "../../../os/rt/include/chtime.h"
 752              		.file 10 "../../../os/rt/include/chlists.h"
 753              		.file 11 "../../../os/rt/include/chtrace.h"
 754              		.file 12 "../../../os/common/ports/ARMv7-M/chcore.h"
 755              		.file 13 "../../../os/rt/include/chsem.h"
 756              		.file 14 "../../../os/rt/include/chmtx.h"
 757              		.file 15 "drivers/sdram/sdram_driver.h"
 758              		.file 16 "drivers/sdram/sdram_driver_priv.h"
 759              		.file 17 "<built-in>"