ARM GAS  C:\Users\DEVELO~1\AppData\Local\Temp\ccoH97es.s 			page 1


   1              		.cpu cortex-m7
   2              		.arch armv7e-m
   3              		.fpu softvfp
   4              		.eabi_attribute 20, 1
   5              		.eabi_attribute 21, 1
   6              		.eabi_attribute 23, 3
   7              		.eabi_attribute 24, 1
   8              		.eabi_attribute 25, 1
   9              		.eabi_attribute 26, 1
  10              		.eabi_attribute 30, 2
  11              		.eabi_attribute 34, 1
  12              		.eabi_attribute 18, 4
  13              		.file	"sdram_driver.c"
  14              		.text
  15              	.Ltext0:
  16              		.cfi_sections	.debug_frame
  17              		.section	.text.sdram_init,"ax",%progbits
  18              		.align	1
  19              		.p2align 4,,15
  20              		.global	sdram_init
  21              		.syntax unified
  22              		.thumb
  23              		.thumb_func
  24              		.type	sdram_init, %function
  25              	sdram_init:
  26              	.LVL0:
  27              	.LFB434:
  28              		.file 1 "drivers/sdram/sdram_driver.c"
  29              		.loc 1 35 38 view -0
  30              		.cfi_startproc
  31              		@ args = 0, pretend = 0, frame = 48
  32              		@ frame_needed = 0, uses_anonymous_args = 0
  33              		.loc 1 37 3 view .LVU1
  34              		.loc 1 35 38 is_stmt 0 view .LVU2
  35 0000 F0B5     		push	{r4, r5, r6, r7, lr}
  36              		.cfi_def_cfa_offset 20
  37              		.cfi_offset 4, -20
  38              		.cfi_offset 5, -16
  39              		.cfi_offset 6, -12
  40              		.cfi_offset 7, -8
  41              		.cfi_offset 14, -4
  42              		.loc 1 38 16 view .LVU3
  43 0002 304C     		ldr	r4, .L16
  44              		.loc 1 35 38 view .LVU4
  45 0004 8DB0     		sub	sp, sp, #52
  46              		.cfi_def_cfa_offset 72
  47              		.loc 1 35 38 view .LVU5
  48 0006 0546     		mov	r5, r0
  49              		.loc 1 37 3 view .LVU6
  50 0008 2F48     		ldr	r0, .L16+4
  51              	.LVL1:
  52              		.loc 1 37 3 view .LVU7
  53 000a FFF7FEFF 		bl	chMtxLock
  54              	.LVL2:
  55              		.loc 1 38 3 is_stmt 1 view .LVU8
  56              		.loc 1 38 6 is_stmt 0 view .LVU9
  57 000e 2678     		ldrb	r6, [r4]	@ zero_extendqisi2
ARM GAS  C:\Users\DEVELO~1\AppData\Local\Temp\ccoH97es.s 			page 2


  58 0010 A6BB     		cbnz	r6, .L12
  59              		.loc 1 43 3 is_stmt 1 view .LVU10
  60              		.loc 1 44 3 view .LVU11
  61              		.loc 1 45 3 view .LVU12
  62              		.loc 1 43 19 is_stmt 0 view .LVU13
  63 0012 0127     		movs	r7, #1
  64              		.loc 1 46 3 view .LVU14
  65 0014 2C48     		ldr	r0, .L16+4
  66              		.loc 1 45 26 view .LVU15
  67 0016 A670     		strb	r6, [r4, #2]
  68              		.loc 1 46 3 is_stmt 1 view .LVU16
  69              		.loc 1 43 19 is_stmt 0 view .LVU17
  70 0018 2780     		strh	r7, [r4]	@ movhi
  71              		.loc 1 46 3 view .LVU18
  72 001a FFF7FEFF 		bl	chMtxUnlock
  73              	.LVL3:
  74              		.loc 1 49 3 is_stmt 1 view .LVU19
  75              		.loc 1 49 8 is_stmt 0 view .LVU20
  76 001e FFF7FEFF 		bl	sdram_hw_init_sequence
  77              	.LVL4:
  78              		.loc 1 49 6 view .LVU21
  79 0022 0028     		cmp	r0, #0
  80 0024 41D0     		beq	.L13
  81              		.loc 1 56 3 is_stmt 1 view .LVU22
  82              		.loc 1 56 6 is_stmt 0 view .LVU23
  83 0026 7DB3     		cbz	r5, .L14
  84              		.loc 1 64 3 is_stmt 1 view .LVU24
  85              		.loc 1 64 24 is_stmt 0 view .LVU25
  86 0028 3022     		movs	r2, #48
  87 002a 3146     		mov	r1, r6
  88 002c 6846     		mov	r0, sp
  89 002e FFF7FEFF 		bl	memset
  90              	.LVL5:
  91              		.loc 1 65 3 is_stmt 1 view .LVU26
  92              		.loc 1 66 3 view .LVU27
  93              		.loc 1 68 3 view .LVU28
  94 0032 2548     		ldr	r0, .L16+4
  95 0034 FFF7FEFF 		bl	chMtxLock
  96              	.LVL6:
  97              		.loc 1 69 3 view .LVU29
  98              		.loc 1 70 3 is_stmt 0 view .LVU30
  99 0038 2348     		ldr	r0, .L16+4
 100              		.loc 1 69 26 view .LVU31
 101 003a A770     		strb	r7, [r4, #2]
 102              		.loc 1 70 3 is_stmt 1 view .LVU32
 103 003c FFF7FEFF 		bl	chMtxUnlock
 104              	.LVL7:
 105              		.loc 1 72 3 view .LVU33
 106              		.loc 1 72 18 is_stmt 0 view .LVU34
 107 0040 6846     		mov	r0, sp
 108 0042 FFF7FEFF 		bl	sdram_bist_start
 109              	.LVL8:
 110 0046 0546     		mov	r5, r0
 111              		.loc 1 74 3 view .LVU35
 112 0048 1F48     		ldr	r0, .L16+4
 113              	.LVL9:
 114              		.loc 1 74 3 is_stmt 1 view .LVU36
ARM GAS  C:\Users\DEVELO~1\AppData\Local\Temp\ccoH97es.s 			page 3


 115 004a FFF7FEFF 		bl	chMtxLock
 116              	.LVL10:
 117              		.loc 1 75 3 view .LVU37
 118              		.loc 1 76 30 is_stmt 0 view .LVU38
 119 004e 0DF10C0E 		add	lr, sp, #12
 120 0052 04F1040C 		add	ip, r4, #4
 121              		.loc 1 75 26 view .LVU39
 122 0056 A670     		strb	r6, [r4, #2]
 123              		.loc 1 76 3 is_stmt 1 view .LVU40
 124              		.loc 1 76 30 is_stmt 0 view .LVU41
 125 0058 BEE80F00 		ldmia	lr!, {r0, r1, r2, r3}
 126 005c ACE80F00 		stmia	ip!, {r0, r1, r2, r3}
 127 0060 9EE80F00 		ldm	lr, {r0, r1, r2, r3}
 128 0064 8CE80F00 		stm	ip, {r0, r1, r2, r3}
 129              		.loc 1 78 3 is_stmt 1 view .LVU42
 130              		.loc 1 78 6 is_stmt 0 view .LVU43
 131 0068 CDB9     		cbnz	r5, .L15
 132              	.L8:
 133 006a 0322     		movs	r2, #3
 134 006c 0423     		movs	r3, #4
 135              	.L5:
 136              		.loc 1 86 3 view .LVU44
 137 006e 1648     		ldr	r0, .L16+4
 138              		.loc 1 79 21 view .LVU45
 139 0070 2270     		strb	r2, [r4]
 140              		.loc 1 80 26 view .LVU46
 141 0072 6370     		strb	r3, [r4, #1]
 142              		.loc 1 86 3 is_stmt 1 view .LVU47
 143 0074 FFF7FEFF 		bl	chMtxUnlock
 144              	.LVL11:
 145              		.loc 1 87 1 is_stmt 0 view .LVU48
 146 0078 0DB0     		add	sp, sp, #52
 147              		.cfi_remember_state
 148              		.cfi_def_cfa_offset 20
 149              		@ sp needed
 150 007a F0BD     		pop	{r4, r5, r6, r7, pc}
 151              	.LVL12:
 152              	.L12:
 153              		.cfi_restore_state
 154              		.loc 1 39 5 is_stmt 1 view .LVU49
 155 007c 1248     		ldr	r0, .L16+4
 156              		.loc 1 59 5 view .LVU50
 157              		.loc 1 87 1 is_stmt 0 view .LVU51
 158 007e 0DB0     		add	sp, sp, #52
 159              		.cfi_remember_state
 160              		.cfi_def_cfa_offset 20
 161              		@ sp needed
 162 0080 BDE8F040 		pop	{r4, r5, r6, r7, lr}
 163              		.cfi_restore 14
 164              		.cfi_restore 7
 165              		.cfi_restore 6
 166              		.cfi_restore 5
 167              		.cfi_restore 4
 168              		.cfi_def_cfa_offset 0
 169              		.loc 1 59 5 view .LVU52
 170 0084 FFF7FEBF 		b	chMtxUnlock
 171              	.LVL13:
ARM GAS  C:\Users\DEVELO~1\AppData\Local\Temp\ccoH97es.s 			page 4


 172              	.L14:
 173              		.cfi_restore_state
 174              		.loc 1 57 5 is_stmt 1 view .LVU53
 175 0088 0F48     		ldr	r0, .L16+4
 176 008a FFF7FEFF 		bl	chMtxLock
 177              	.LVL14:
 178              		.loc 1 58 5 view .LVU54
 179              		.loc 1 58 21 is_stmt 0 view .LVU55
 180 008e 0223     		movs	r3, #2
 181              		.loc 1 59 5 view .LVU56
 182 0090 0D48     		ldr	r0, .L16+4
 183              		.loc 1 58 21 view .LVU57
 184 0092 2370     		strb	r3, [r4]
 185              		.loc 1 59 5 is_stmt 1 view .LVU58
 186              		.loc 1 87 1 is_stmt 0 view .LVU59
 187 0094 0DB0     		add	sp, sp, #52
 188              		.cfi_remember_state
 189              		.cfi_def_cfa_offset 20
 190              		@ sp needed
 191 0096 BDE8F040 		pop	{r4, r5, r6, r7, lr}
 192              		.cfi_restore 14
 193              		.cfi_restore 7
 194              		.cfi_restore 6
 195              		.cfi_restore 5
 196              		.cfi_restore 4
 197              		.cfi_def_cfa_offset 0
 198              		.loc 1 59 5 view .LVU60
 199 009a FFF7FEBF 		b	chMtxUnlock
 200              	.LVL15:
 201              	.L15:
 202              		.cfi_restore_state
 203              		.loc 1 78 34 discriminator 1 view .LVU61
 204 009e 9DF80C30 		ldrb	r3, [sp, #12]	@ zero_extendqisi2
 205              		.loc 1 78 16 discriminator 1 view .LVU62
 206 00a2 002B     		cmp	r3, #0
 207 00a4 E1D1     		bne	.L8
 208              		.loc 1 78 16 view .LVU63
 209 00a6 0222     		movs	r2, #2
 210 00a8 E1E7     		b	.L5
 211              	.LVL16:
 212              	.L13:
 213              		.loc 1 50 5 is_stmt 1 view .LVU64
 214 00aa 0748     		ldr	r0, .L16+4
 215 00ac FFF7FEFF 		bl	chMtxLock
 216              	.LVL17:
 217              		.loc 1 51 5 view .LVU65
 218              	.LBB10:
 219              	.LBI10:
 220              		.loc 1 18 13 view .LVU66
 221              	.LBB11:
 222              		.loc 1 19 3 view .LVU67
 223              		.loc 1 20 3 view .LVU68
 224              		.loc 1 19 19 is_stmt 0 view .LVU69
 225 00b0 4FF48273 		mov	r3, #260
 226              	.LBE11:
 227              	.LBE10:
 228              		.loc 1 52 5 view .LVU70
ARM GAS  C:\Users\DEVELO~1\AppData\Local\Temp\ccoH97es.s 			page 5


 229 00b4 0448     		ldr	r0, .L16+4
 230              	.LBB13:
 231              	.LBB12:
 232              		.loc 1 19 19 view .LVU71
 233 00b6 2380     		strh	r3, [r4]	@ movhi
 234              	.LVL18:
 235              		.loc 1 19 19 view .LVU72
 236              	.LBE12:
 237              	.LBE13:
 238              		.loc 1 52 5 is_stmt 1 view .LVU73
 239              		.loc 1 59 5 view .LVU74
 240              		.loc 1 87 1 is_stmt 0 view .LVU75
 241 00b8 0DB0     		add	sp, sp, #52
 242              		.cfi_def_cfa_offset 20
 243              		@ sp needed
 244 00ba BDE8F040 		pop	{r4, r5, r6, r7, lr}
 245              		.cfi_restore 14
 246              		.cfi_restore 7
 247              		.cfi_restore 6
 248              		.cfi_restore 5
 249              		.cfi_restore 4
 250              		.cfi_def_cfa_offset 0
 251              		.loc 1 59 5 view .LVU76
 252 00be FFF7FEBF 		b	chMtxUnlock
 253              	.LVL19:
 254              	.L17:
 255 00c2 00BF     		.align	2
 256              	.L16:
 257 00c4 00000000 		.word	.LANCHOR1
 258 00c8 00000000 		.word	.LANCHOR0
 259              		.cfi_endproc
 260              	.LFE434:
 261              		.size	sdram_init, .-sdram_init
 262              		.section	.text.sdram_is_initialized,"ax",%progbits
 263              		.align	1
 264              		.p2align 4,,15
 265              		.global	sdram_is_initialized
 266              		.syntax unified
 267              		.thumb
 268              		.thumb_func
 269              		.type	sdram_is_initialized, %function
 270              	sdram_is_initialized:
 271              	.LFB435:
 272              		.loc 1 89 33 is_stmt 1 view -0
 273              		.cfi_startproc
 274              		@ args = 0, pretend = 0, frame = 0
 275              		@ frame_needed = 0, uses_anonymous_args = 0
 276              		.loc 1 90 3 view .LVU78
 277              		.loc 1 89 33 is_stmt 0 view .LVU79
 278 0000 10B5     		push	{r4, lr}
 279              		.cfi_def_cfa_offset 8
 280              		.cfi_offset 4, -8
 281              		.cfi_offset 14, -4
 282              		.loc 1 90 3 view .LVU80
 283 0002 074C     		ldr	r4, .L20
 284 0004 2046     		mov	r0, r4
 285 0006 FFF7FEFF 		bl	chMtxLock
ARM GAS  C:\Users\DEVELO~1\AppData\Local\Temp\ccoH97es.s 			page 6


 286              	.LVL20:
 287              		.loc 1 91 3 is_stmt 1 view .LVU81
 288              		.loc 1 91 32 is_stmt 0 view .LVU82
 289 000a 064B     		ldr	r3, .L20+4
 290              		.loc 1 92 3 view .LVU83
 291 000c 2046     		mov	r0, r4
 292              		.loc 1 91 8 view .LVU84
 293 000e 1C78     		ldrb	r4, [r3]	@ zero_extendqisi2
 294 0010 003C     		subs	r4, r4, #0
 295 0012 18BF     		it	ne
 296 0014 0124     		movne	r4, #1
 297              	.LVL21:
 298              		.loc 1 92 3 is_stmt 1 view .LVU85
 299 0016 FFF7FEFF 		bl	chMtxUnlock
 300              	.LVL22:
 301              		.loc 1 93 3 view .LVU86
 302              		.loc 1 94 1 is_stmt 0 view .LVU87
 303 001a 2046     		mov	r0, r4
 304 001c 10BD     		pop	{r4, pc}
 305              	.LVL23:
 306              	.L21:
 307              		.loc 1 94 1 view .LVU88
 308 001e 00BF     		.align	2
 309              	.L20:
 310 0020 00000000 		.word	.LANCHOR0
 311 0024 00000000 		.word	.LANCHOR1
 312              		.cfi_endproc
 313              	.LFE435:
 314              		.size	sdram_is_initialized, .-sdram_is_initialized
 315              		.section	.text.sdram_status,"ax",%progbits
 316              		.align	1
 317              		.p2align 4,,15
 318              		.global	sdram_status
 319              		.syntax unified
 320              		.thumb
 321              		.thumb_func
 322              		.type	sdram_status, %function
 323              	sdram_status:
 324              	.LFB436:
 325              		.loc 1 96 34 is_stmt 1 view -0
 326              		.cfi_startproc
 327              		@ args = 0, pretend = 0, frame = 0
 328              		@ frame_needed = 0, uses_anonymous_args = 0
 329              		.loc 1 97 3 view .LVU90
 330              		.loc 1 96 34 is_stmt 0 view .LVU91
 331 0000 10B5     		push	{r4, lr}
 332              		.cfi_def_cfa_offset 8
 333              		.cfi_offset 4, -8
 334              		.cfi_offset 14, -4
 335              		.loc 1 97 3 view .LVU92
 336 0002 054C     		ldr	r4, .L24
 337 0004 2046     		mov	r0, r4
 338 0006 FFF7FEFF 		bl	chMtxLock
 339              	.LVL24:
 340              		.loc 1 98 3 is_stmt 1 view .LVU93
 341              		.loc 1 98 17 is_stmt 0 view .LVU94
 342 000a 044B     		ldr	r3, .L24+4
ARM GAS  C:\Users\DEVELO~1\AppData\Local\Temp\ccoH97es.s 			page 7


 343              		.loc 1 99 3 view .LVU95
 344 000c 2046     		mov	r0, r4
 345              		.loc 1 98 17 view .LVU96
 346 000e 1C78     		ldrb	r4, [r3]	@ zero_extendqisi2
 347              	.LVL25:
 348              		.loc 1 99 3 is_stmt 1 view .LVU97
 349 0010 FFF7FEFF 		bl	chMtxUnlock
 350              	.LVL26:
 351              		.loc 1 100 3 view .LVU98
 352              		.loc 1 101 1 is_stmt 0 view .LVU99
 353 0014 2046     		mov	r0, r4
 354 0016 10BD     		pop	{r4, pc}
 355              	.LVL27:
 356              	.L25:
 357              		.loc 1 101 1 view .LVU100
 358              		.align	2
 359              	.L24:
 360 0018 00000000 		.word	.LANCHOR0
 361 001c 00000000 		.word	.LANCHOR1
 362              		.cfi_endproc
 363              	.LFE436:
 364              		.size	sdram_status, .-sdram_status
 365              		.section	.text.sdram_get_error,"ax",%progbits
 366              		.align	1
 367              		.p2align 4,,15
 368              		.global	sdram_get_error
 369              		.syntax unified
 370              		.thumb
 371              		.thumb_func
 372              		.type	sdram_get_error, %function
 373              	sdram_get_error:
 374              	.LFB437:
 375              		.loc 1 103 37 is_stmt 1 view -0
 376              		.cfi_startproc
 377              		@ args = 0, pretend = 0, frame = 0
 378              		@ frame_needed = 0, uses_anonymous_args = 0
 379              		.loc 1 104 3 view .LVU102
 380              		.loc 1 103 37 is_stmt 0 view .LVU103
 381 0000 10B5     		push	{r4, lr}
 382              		.cfi_def_cfa_offset 8
 383              		.cfi_offset 4, -8
 384              		.cfi_offset 14, -4
 385              		.loc 1 104 3 view .LVU104
 386 0002 054C     		ldr	r4, .L28
 387 0004 2046     		mov	r0, r4
 388 0006 FFF7FEFF 		bl	chMtxLock
 389              	.LVL28:
 390              		.loc 1 105 3 is_stmt 1 view .LVU105
 391              		.loc 1 105 17 is_stmt 0 view .LVU106
 392 000a 044B     		ldr	r3, .L28+4
 393              		.loc 1 106 3 view .LVU107
 394 000c 2046     		mov	r0, r4
 395              		.loc 1 105 17 view .LVU108
 396 000e 5C78     		ldrb	r4, [r3, #1]	@ zero_extendqisi2
 397              	.LVL29:
 398              		.loc 1 106 3 is_stmt 1 view .LVU109
 399 0010 FFF7FEFF 		bl	chMtxUnlock
ARM GAS  C:\Users\DEVELO~1\AppData\Local\Temp\ccoH97es.s 			page 8


 400              	.LVL30:
 401              		.loc 1 107 3 view .LVU110
 402              		.loc 1 108 1 is_stmt 0 view .LVU111
 403 0014 2046     		mov	r0, r4
 404 0016 10BD     		pop	{r4, pc}
 405              	.LVL31:
 406              	.L29:
 407              		.loc 1 108 1 view .LVU112
 408              		.align	2
 409              	.L28:
 410 0018 00000000 		.word	.LANCHOR0
 411 001c 00000000 		.word	.LANCHOR1
 412              		.cfi_endproc
 413              	.LFE437:
 414              		.size	sdram_get_error, .-sdram_get_error
 415              		.section	.text.sdram_run_bist,"ax",%progbits
 416              		.align	1
 417              		.p2align 4,,15
 418              		.global	sdram_run_bist
 419              		.syntax unified
 420              		.thumb
 421              		.thumb_func
 422              		.type	sdram_run_bist, %function
 423              	sdram_run_bist:
 424              	.LVL32:
 425              	.LFB438:
 426              		.loc 1 110 78 is_stmt 1 view -0
 427              		.cfi_startproc
 428              		@ args = 0, pretend = 0, frame = 48
 429              		@ frame_needed = 0, uses_anonymous_args = 0
 430              		.loc 1 111 3 view .LVU114
 431              		.loc 1 113 3 view .LVU115
 432              		.loc 1 110 78 is_stmt 0 view .LVU116
 433 0000 2DE9F043 		push	{r4, r5, r6, r7, r8, r9, lr}
 434              		.cfi_def_cfa_offset 28
 435              		.cfi_offset 4, -28
 436              		.cfi_offset 5, -24
 437              		.cfi_offset 6, -20
 438              		.cfi_offset 7, -16
 439              		.cfi_offset 8, -12
 440              		.cfi_offset 9, -8
 441              		.cfi_offset 14, -4
 442              		.loc 1 114 15 view .LVU117
 443 0004 2F4D     		ldr	r5, .L51
 444              		.loc 1 110 78 view .LVU118
 445 0006 8DB0     		sub	sp, sp, #52
 446              		.cfi_def_cfa_offset 80
 447              		.loc 1 110 78 view .LVU119
 448 0008 0646     		mov	r6, r0
 449              		.loc 1 113 3 view .LVU120
 450 000a 2F48     		ldr	r0, .L51+4
 451              	.LVL33:
 452              		.loc 1 110 78 view .LVU121
 453 000c 0C46     		mov	r4, r1
 454              		.loc 1 113 3 view .LVU122
 455 000e FFF7FEFF 		bl	chMtxLock
 456              	.LVL34:
ARM GAS  C:\Users\DEVELO~1\AppData\Local\Temp\ccoH97es.s 			page 9


 457              		.loc 1 114 3 is_stmt 1 view .LVU123
 458              		.loc 1 114 15 is_stmt 0 view .LVU124
 459 0012 95F80090 		ldrb	r9, [r5]	@ zero_extendqisi2
 460              	.LVL35:
 461              		.loc 1 116 3 is_stmt 1 view .LVU125
 462              		.loc 1 116 6 is_stmt 0 view .LVU126
 463 0016 B9F1010F 		cmp	r9, #1
 464 001a 04D9     		bls	.L31
 465              		.loc 1 116 85 discriminator 1 view .LVU127
 466 001c 95F80280 		ldrb	r8, [r5, #2]	@ zero_extendqisi2
 467 0020 B8F1000F 		cmp	r8, #0
 468 0024 07D0     		beq	.L32
 469              	.L31:
 470              		.loc 1 117 5 is_stmt 1 view .LVU128
 471              		.loc 1 118 12 is_stmt 0 view .LVU129
 472 0026 0027     		movs	r7, #0
 473              		.loc 1 117 5 view .LVU130
 474 0028 2748     		ldr	r0, .L51+4
 475 002a FFF7FEFF 		bl	chMtxUnlock
 476              	.LVL36:
 477              		.loc 1 118 5 is_stmt 1 view .LVU131
 478              		.loc 1 158 1 is_stmt 0 view .LVU132
 479 002e 3846     		mov	r0, r7
 480 0030 0DB0     		add	sp, sp, #52
 481              		.cfi_remember_state
 482              		.cfi_def_cfa_offset 28
 483              		@ sp needed
 484 0032 BDE8F083 		pop	{r4, r5, r6, r7, r8, r9, pc}
 485              	.LVL37:
 486              	.L32:
 487              		.cfi_restore_state
 488              		.loc 1 121 3 is_stmt 1 view .LVU133
 489              		.loc 1 121 26 is_stmt 0 view .LVU134
 490 0036 0123     		movs	r3, #1
 491              		.loc 1 122 3 view .LVU135
 492 0038 2348     		ldr	r0, .L51+4
 493              		.loc 1 121 26 view .LVU136
 494 003a AB70     		strb	r3, [r5, #2]
 495              		.loc 1 122 3 is_stmt 1 view .LVU137
 496 003c FFF7FEFF 		bl	chMtxUnlock
 497              	.LVL38:
 498              		.loc 1 124 3 view .LVU138
 499              		.loc 1 124 24 is_stmt 0 view .LVU139
 500 0040 3022     		movs	r2, #48
 501 0042 4146     		mov	r1, r8
 502 0044 6846     		mov	r0, sp
 503 0046 FFF7FEFF 		bl	memset
 504              	.LVL39:
 505              		.loc 1 125 3 is_stmt 1 view .LVU140
 506              		.loc 1 128 18 is_stmt 0 view .LVU141
 507 004a 6846     		mov	r0, sp
 508              		.loc 1 125 12 view .LVU142
 509 004c 8DF80060 		strb	r6, [sp]
 510              		.loc 1 126 3 is_stmt 1 view .LVU143
 511              		.loc 1 128 3 view .LVU144
 512              		.loc 1 128 18 is_stmt 0 view .LVU145
 513 0050 FFF7FEFF 		bl	sdram_bist_start
ARM GAS  C:\Users\DEVELO~1\AppData\Local\Temp\ccoH97es.s 			page 10


 514              	.LVL40:
 515 0054 0746     		mov	r7, r0
 516              	.LVL41:
 517              		.loc 1 130 3 is_stmt 1 view .LVU146
 518 0056 1C48     		ldr	r0, .L51+4
 519 0058 FFF7FEFF 		bl	chMtxLock
 520              	.LVL42:
 521              		.loc 1 131 3 view .LVU147
 522              		.loc 1 131 26 is_stmt 0 view .LVU148
 523 005c 85F80280 		strb	r8, [r5, #2]
 524              		.loc 1 133 3 is_stmt 1 view .LVU149
 525              		.loc 1 133 6 is_stmt 0 view .LVU150
 526 0060 BFB1     		cbz	r7, .L35
 527              		.loc 1 134 5 is_stmt 1 view .LVU151
 528              		.loc 1 134 32 is_stmt 0 view .LVU152
 529 0062 0DF10C0E 		add	lr, sp, #12
 530 0066 05F1040C 		add	ip, r5, #4
 531              		.loc 1 136 8 view .LVU153
 532 006a 9DF80C80 		ldrb	r8, [sp, #12]	@ zero_extendqisi2
 533              		.loc 1 134 32 view .LVU154
 534 006e BEE80F00 		ldmia	lr!, {r0, r1, r2, r3}
 535 0072 ACE80F00 		stmia	ip!, {r0, r1, r2, r3}
 536 0076 9EE80F00 		ldm	lr, {r0, r1, r2, r3}
 537 007a 8CE80F00 		stm	ip, {r0, r1, r2, r3}
 538              		.loc 1 136 5 is_stmt 1 view .LVU155
 539              		.loc 1 136 8 is_stmt 0 view .LVU156
 540 007e B8F1000F 		cmp	r8, #0
 541 0082 17D1     		bne	.L36
 542              		.loc 1 137 7 is_stmt 1 view .LVU157
 543              		.loc 1 137 10 is_stmt 0 view .LVU158
 544 0084 B9F1030F 		cmp	r9, #3
 545 0088 03D1     		bne	.L35
 546 008a 012E     		cmp	r6, #1
 547 008c 01D1     		bne	.L35
 548              		.loc 1 138 9 is_stmt 1 view .LVU159
 549              		.loc 1 139 9 view .LVU160
 550              		.loc 1 138 25 is_stmt 0 view .LVU161
 551 008e 0223     		movs	r3, #2
 552 0090 2B80     		strh	r3, [r5]	@ movhi
 553              	.L35:
 554              		.loc 1 152 3 is_stmt 1 view .LVU162
 555              		.loc 1 152 6 is_stmt 0 view .LVU163
 556 0092 44B1     		cbz	r4, .L39
 557              		.loc 1 153 5 is_stmt 1 view .LVU164
 558              		.loc 1 153 17 is_stmt 0 view .LVU165
 559 0094 0D4D     		ldr	r5, .L51+8
 560 0096 A446     		mov	ip, r4
 561 0098 0FCD     		ldmia	r5!, {r0, r1, r2, r3}
 562 009a ACE80F00 		stmia	ip!, {r0, r1, r2, r3}
 563 009e 95E80F00 		ldm	r5, {r0, r1, r2, r3}
 564 00a2 8CE80F00 		stm	ip, {r0, r1, r2, r3}
 565              	.L39:
 566              		.loc 1 156 3 is_stmt 1 view .LVU166
 567 00a6 0848     		ldr	r0, .L51+4
 568 00a8 FFF7FEFF 		bl	chMtxUnlock
 569              	.LVL43:
 570              		.loc 1 157 3 view .LVU167
ARM GAS  C:\Users\DEVELO~1\AppData\Local\Temp\ccoH97es.s 			page 11


 571              		.loc 1 158 1 is_stmt 0 view .LVU168
 572 00ac 3846     		mov	r0, r7
 573 00ae 0DB0     		add	sp, sp, #52
 574              		.cfi_remember_state
 575              		.cfi_def_cfa_offset 28
 576              		@ sp needed
 577 00b0 BDE8F083 		pop	{r4, r5, r6, r7, r8, r9, pc}
 578              	.LVL44:
 579              	.L36:
 580              		.cfi_restore_state
 581              		.loc 1 142 7 is_stmt 1 view .LVU169
 582              		.loc 1 142 28 is_stmt 0 view .LVU170
 583 00b4 0423     		movs	r3, #4
 584              		.loc 1 144 10 view .LVU171
 585 00b6 012E     		cmp	r6, #1
 586              		.loc 1 142 28 view .LVU172
 587 00b8 6B70     		strb	r3, [r5, #1]
 588              		.loc 1 144 7 is_stmt 1 view .LVU173
 589              		.loc 1 145 9 view .LVU174
 590              		.loc 1 147 9 view .LVU175
 591              		.loc 1 147 25 is_stmt 0 view .LVU176
 592 00ba 18BF     		it	ne
 593 00bc 0323     		movne	r3, #3
 594 00be 2B70     		strb	r3, [r5]
 595 00c0 E7E7     		b	.L35
 596              	.L52:
 597 00c2 00BF     		.align	2
 598              	.L51:
 599 00c4 00000000 		.word	.LANCHOR1
 600 00c8 00000000 		.word	.LANCHOR0
 601 00cc 04000000 		.word	.LANCHOR1+4
 602              		.cfi_endproc
 603              	.LFE438:
 604              		.size	sdram_run_bist, .-sdram_run_bist
 605              		.section	.text.sdram_get_region,"ax",%progbits
 606              		.align	1
 607              		.p2align 4,,15
 608              		.global	sdram_get_region
 609              		.syntax unified
 610              		.thumb
 611              		.thumb_func
 612              		.type	sdram_get_region, %function
 613              	sdram_get_region:
 614              	.LVL45:
 615              	.LFB439:
 616              		.loc 1 160 83 is_stmt 1 view -0
 617              		.cfi_startproc
 618              		@ args = 0, pretend = 0, frame = 0
 619              		@ frame_needed = 0, uses_anonymous_args = 0
 620              		.loc 1 161 3 view .LVU178
 621              		.loc 1 160 83 is_stmt 0 view .LVU179
 622 0000 F8B5     		push	{r3, r4, r5, r6, r7, lr}
 623              		.cfi_def_cfa_offset 24
 624              		.cfi_offset 3, -24
 625              		.cfi_offset 4, -20
 626              		.cfi_offset 5, -16
 627              		.cfi_offset 6, -12
ARM GAS  C:\Users\DEVELO~1\AppData\Local\Temp\ccoH97es.s 			page 12


 628              		.cfi_offset 7, -8
 629              		.cfi_offset 14, -4
 630              		.loc 1 161 6 view .LVU180
 631 0002 0C46     		mov	r4, r1
 632 0004 E9B1     		cbz	r1, .L58
 633              		.loc 1 165 3 is_stmt 1 view .LVU181
 634 0006 0546     		mov	r5, r0
 635 0008 0F48     		ldr	r0, .L66
 636              	.LVL46:
 637              		.loc 1 165 3 is_stmt 0 view .LVU182
 638 000a FFF7FEFF 		bl	chMtxLock
 639              	.LVL47:
 640              		.loc 1 166 3 is_stmt 1 view .LVU183
 641              		.loc 1 166 17 is_stmt 0 view .LVU184
 642 000e 0F4B     		ldr	r3, .L66+4
 643              		.loc 1 168 3 view .LVU185
 644 0010 0D48     		ldr	r0, .L66
 645              		.loc 1 166 17 view .LVU186
 646 0012 1E78     		ldrb	r6, [r3]	@ zero_extendqisi2
 647              	.LVL48:
 648              		.loc 1 167 3 is_stmt 1 view .LVU187
 649              		.loc 1 167 8 is_stmt 0 view .LVU188
 650 0014 9F78     		ldrb	r7, [r3, #2]	@ zero_extendqisi2
 651              	.LVL49:
 652              		.loc 1 168 3 is_stmt 1 view .LVU189
 653 0016 FFF7FEFF 		bl	chMtxUnlock
 654              	.LVL50:
 655              		.loc 1 170 3 view .LVU190
 656              		.loc 1 170 6 is_stmt 0 view .LVU191
 657 001a 042E     		cmp	r6, #4
 658 001c 08D0     		beq	.L57
 659 001e 3FB9     		cbnz	r7, .L57
 660              		.loc 1 175 3 is_stmt 1 view .LVU192
 661              		.loc 1 175 6 is_stmt 0 view .LVU193
 662 0020 032D     		cmp	r5, #3
 663 0022 05D0     		beq	.L57
 664              		.loc 1 180 3 is_stmt 1 view .LVU194
 665              		.loc 1 180 8 is_stmt 0 view .LVU195
 666 0024 2146     		mov	r1, r4
 667 0026 2846     		mov	r0, r5
 668 0028 FFF7FEFF 		bl	sdram_query_region_descriptor
 669              	.LVL51:
 670              		.loc 1 180 6 view .LVU196
 671 002c 00B1     		cbz	r0, .L57
 672              		.loc 1 186 1 view .LVU197
 673 002e F8BD     		pop	{r3, r4, r5, r6, r7, pc}
 674              	.LVL52:
 675              	.L57:
 676              		.loc 1 171 5 is_stmt 1 view .LVU198
 677              	.LBB14:
 678              	.LBI14:
 679              		.loc 1 23 13 view .LVU199
 680              	.LBB15:
 681              		.loc 1 24 3 view .LVU200
 682              		.loc 1 28 3 view .LVU201
 683              		.loc 1 29 14 is_stmt 0 view .LVU202
 684 0030 0023     		movs	r3, #0
ARM GAS  C:\Users\DEVELO~1\AppData\Local\Temp\ccoH97es.s 			page 13


 685              		.loc 1 28 12 view .LVU203
 686 0032 0422     		movs	r2, #4
 687              	.LBE15:
 688              	.LBE14:
 689              		.loc 1 172 12 view .LVU204
 690 0034 1846     		mov	r0, r3
 691              	.LBB17:
 692              	.LBB16:
 693              		.loc 1 28 12 view .LVU205
 694 0036 2270     		strb	r2, [r4]
 695              		.loc 1 29 3 is_stmt 1 view .LVU206
 696              		.loc 1 30 20 is_stmt 0 view .LVU207
 697 0038 C4E90133 		strd	r3, r3, [r4, #4]
 698              		.loc 1 31 3 is_stmt 1 view .LVU208
 699              		.loc 1 32 25 is_stmt 0 view .LVU209
 700 003c C4E90333 		strd	r3, r3, [r4, #12]
 701              	.LVL53:
 702              		.loc 1 32 25 view .LVU210
 703              	.LBE16:
 704              	.LBE17:
 705              		.loc 1 172 5 is_stmt 1 view .LVU211
 706              		.loc 1 186 1 is_stmt 0 view .LVU212
 707 0040 F8BD     		pop	{r3, r4, r5, r6, r7, pc}
 708              	.LVL54:
 709              	.L58:
 710              		.loc 1 162 12 view .LVU213
 711 0042 0846     		mov	r0, r1
 712              	.LVL55:
 713              		.loc 1 186 1 view .LVU214
 714 0044 F8BD     		pop	{r3, r4, r5, r6, r7, pc}
 715              	.L67:
 716 0046 00BF     		.align	2
 717              	.L66:
 718 0048 00000000 		.word	.LANCHOR0
 719 004c 00000000 		.word	.LANCHOR1
 720              		.cfi_endproc
 721              	.LFE439:
 722              		.size	sdram_get_region, .-sdram_get_region
 723              		.global	sdram_ctx_mtx
 724              		.global	sdram_ctx
 725              		.section	.bss.sdram_ctx,"aw",%nobits
 726              		.align	2
 727              		.set	.LANCHOR1,. + 0
 728              		.type	sdram_ctx, %object
 729              		.size	sdram_ctx, 36
 730              	sdram_ctx:
 731 0000 00000000 		.space	36
 731      00000000 
 731      00000000 
 731      00000000 
 731      00000000 
 732              		.section	.data.sdram_ctx_mtx,"aw"
 733              		.align	2
 734              		.set	.LANCHOR0,. + 0
 735              		.type	sdram_ctx_mtx, %object
 736              		.size	sdram_ctx_mtx, 16
 737              	sdram_ctx_mtx:
ARM GAS  C:\Users\DEVELO~1\AppData\Local\Temp\ccoH97es.s 			page 14


 738 0000 00000000 		.word	sdram_ctx_mtx
 739 0004 00000000 		.word	sdram_ctx_mtx
 740 0008 00000000 		.word	0
 741 000c 00000000 		.word	0
 742              		.text
 743              	.Letext0:
 744              		.file 2 "c:\\chibistudio\\tools\\gnu tools arm embedded\\11.3 2022.08\\arm-none-eabi\\include\\mac
 745              		.file 3 "c:\\chibistudio\\tools\\gnu tools arm embedded\\11.3 2022.08\\arm-none-eabi\\include\\sys
 746              		.file 4 "../../../os/common/ports/ARM-common/chtypes.h"
 747              		.file 5 "../../../os/rt/include/chearly.h"
 748              		.file 6 "../../../os/rt/include/chobjects.h"
 749              		.file 7 "../../../os/rt/include/chrfcu.h"
 750              		.file 8 "../../../os/rt/include/chdebug.h"
 751              		.file 9 "../../../os/rt/include/chtime.h"
 752              		.file 10 "../../../os/rt/include/chlists.h"
 753              		.file 11 "../../../os/rt/include/chtrace.h"
 754              		.file 12 "../../../os/common/ports/ARMv7-M/chcore.h"
 755              		.file 13 "../../../os/rt/include/chsem.h"
 756              		.file 14 "../../../os/rt/include/chmtx.h"
 757              		.file 15 "drivers/sdram/sdram_driver.h"
 758              		.file 16 "drivers/sdram/sdram_driver_priv.h"
 759              		.file 17 "<built-in>"
 760              		.section	.debug_info,"",%progbits
 761              	.Ldebug_info0:
 762 0000 DF100000 		.4byte	0x10df
 763 0004 0500     		.2byte	0x5
 764 0006 01       		.byte	0x1
 765 0007 04       		.byte	0x4
 766 0008 00000000 		.4byte	.Ldebug_abbrev0
 767 000c 23       		.uleb128 0x23
 768 000d 1E040000 		.4byte	.LASF204
 769 0011 1D       		.byte	0x1d
 770 0012 2B0B0000 		.4byte	.LASF205
 771 0016 78000000 		.4byte	.LASF206
 772 001a 24000000 		.4byte	.LLRL17
 773 001e 00000000 		.4byte	0
 774 0022 00000000 		.4byte	.Ldebug_line0
 775 0026 24       		.uleb128 0x24
 776 0027 04       		.byte	0x4
 777 0028 05       		.byte	0x5
 778 0029 696E7400 		.ascii	"int\000"
 779 002d 08       		.uleb128 0x8
 780 002e 04       		.byte	0x4
 781 002f 07       		.byte	0x7
 782 0030 AA030000 		.4byte	.LASF0
 783 0034 08       		.uleb128 0x8
 784 0035 08       		.byte	0x8
 785 0036 05       		.byte	0x5
 786 0037 9B020000 		.4byte	.LASF1
 787 003b 08       		.uleb128 0x8
 788 003c 08       		.byte	0x8
 789 003d 04       		.byte	0x4
 790 003e 5A080000 		.4byte	.LASF2
 791 0042 08       		.uleb128 0x8
 792 0043 01       		.byte	0x1
 793 0044 06       		.byte	0x6
 794 0045 62000000 		.4byte	.LASF3
ARM GAS  C:\Users\DEVELO~1\AppData\Local\Temp\ccoH97es.s 			page 15


 795 0049 02       		.uleb128 0x2
 796 004a 6E000000 		.4byte	.LASF6
 797 004e 02       		.byte	0x2
 798 004f 2B       		.byte	0x2b
 799 0050 18       		.byte	0x18
 800 0051 55000000 		.4byte	0x55
 801 0055 08       		.uleb128 0x8
 802 0056 01       		.byte	0x1
 803 0057 08       		.byte	0x8
 804 0058 8D070000 		.4byte	.LASF4
 805 005c 08       		.uleb128 0x8
 806 005d 02       		.byte	0x2
 807 005e 05       		.byte	0x5
 808 005f A2070000 		.4byte	.LASF5
 809 0063 02       		.uleb128 0x2
 810 0064 90080000 		.4byte	.LASF7
 811 0068 02       		.byte	0x2
 812 0069 39       		.byte	0x39
 813 006a 19       		.byte	0x19
 814 006b 6F000000 		.4byte	0x6f
 815 006f 08       		.uleb128 0x8
 816 0070 02       		.byte	0x2
 817 0071 07       		.byte	0x7
 818 0072 10050000 		.4byte	.LASF8
 819 0076 02       		.uleb128 0x2
 820 0077 9E050000 		.4byte	.LASF9
 821 007b 02       		.byte	0x2
 822 007c 4D       		.byte	0x4d
 823 007d 18       		.byte	0x18
 824 007e 82000000 		.4byte	0x82
 825 0082 08       		.uleb128 0x8
 826 0083 04       		.byte	0x4
 827 0084 05       		.byte	0x5
 828 0085 6E020000 		.4byte	.LASF10
 829 0089 02       		.uleb128 0x2
 830 008a 20030000 		.4byte	.LASF11
 831 008e 02       		.byte	0x2
 832 008f 4F       		.byte	0x4f
 833 0090 19       		.byte	0x19
 834 0091 95000000 		.4byte	0x95
 835 0095 08       		.uleb128 0x8
 836 0096 04       		.byte	0x4
 837 0097 07       		.byte	0x7
 838 0098 EA030000 		.4byte	.LASF12
 839 009c 02       		.uleb128 0x2
 840 009d 15070000 		.4byte	.LASF13
 841 00a1 02       		.byte	0x2
 842 00a2 69       		.byte	0x69
 843 00a3 19       		.byte	0x19
 844 00a4 A8000000 		.4byte	0xa8
 845 00a8 08       		.uleb128 0x8
 846 00a9 08       		.byte	0x8
 847 00aa 07       		.byte	0x7
 848 00ab 21020000 		.4byte	.LASF14
 849 00af 02       		.uleb128 0x2
 850 00b0 CA070000 		.4byte	.LASF15
 851 00b4 02       		.byte	0x2
ARM GAS  C:\Users\DEVELO~1\AppData\Local\Temp\ccoH97es.s 			page 16


 852 00b5 E8       		.byte	0xe8
 853 00b6 1A       		.byte	0x1a
 854 00b7 2D000000 		.4byte	0x2d
 855 00bb 02       		.uleb128 0x2
 856 00bc 3D0A0000 		.4byte	.LASF16
 857 00c0 03       		.byte	0x3
 858 00c1 18       		.byte	0x18
 859 00c2 13       		.byte	0x13
 860 00c3 49000000 		.4byte	0x49
 861 00c7 02       		.uleb128 0x2
 862 00c8 A9020000 		.4byte	.LASF17
 863 00cc 03       		.byte	0x3
 864 00cd 24       		.byte	0x24
 865 00ce 14       		.byte	0x14
 866 00cf 63000000 		.4byte	0x63
 867 00d3 02       		.uleb128 0x2
 868 00d4 85070000 		.4byte	.LASF18
 869 00d8 03       		.byte	0x3
 870 00d9 2C       		.byte	0x2c
 871 00da 13       		.byte	0x13
 872 00db 76000000 		.4byte	0x76
 873 00df 02       		.uleb128 0x2
 874 00e0 26080000 		.4byte	.LASF19
 875 00e4 03       		.byte	0x3
 876 00e5 30       		.byte	0x30
 877 00e6 14       		.byte	0x14
 878 00e7 89000000 		.4byte	0x89
 879 00eb 02       		.uleb128 0x2
 880 00ec 8B060000 		.4byte	.LASF20
 881 00f0 03       		.byte	0x3
 882 00f1 3C       		.byte	0x3c
 883 00f2 14       		.byte	0x14
 884 00f3 9C000000 		.4byte	0x9c
 885 00f7 16       		.uleb128 0x16
 886 00f8 EB000000 		.4byte	0xeb
 887 00fc 02       		.uleb128 0x2
 888 00fd 35000000 		.4byte	.LASF21
 889 0101 03       		.byte	0x3
 890 0102 52       		.byte	0x52
 891 0103 15       		.byte	0x15
 892 0104 AF000000 		.4byte	0xaf
 893 0108 02       		.uleb128 0x2
 894 0109 36080000 		.4byte	.LASF22
 895 010d 04       		.byte	0x4
 896 010e 48       		.byte	0x48
 897 010f 1D       		.byte	0x1d
 898 0110 EB000000 		.4byte	0xeb
 899 0114 02       		.uleb128 0x2
 900 0115 B3050000 		.4byte	.LASF23
 901 0119 05       		.byte	0x5
 902 011a 50       		.byte	0x50
 903 011b 19       		.byte	0x19
 904 011c 08010000 		.4byte	0x108
 905 0120 02       		.uleb128 0x2
 906 0121 74050000 		.4byte	.LASF24
 907 0125 05       		.byte	0x5
 908 0126 53       		.byte	0x53
ARM GAS  C:\Users\DEVELO~1\AppData\Local\Temp\ccoH97es.s 			page 17


 909 0127 19       		.byte	0x19
 910 0128 BB000000 		.4byte	0xbb
 911 012c 02       		.uleb128 0x2
 912 012d 81020000 		.4byte	.LASF25
 913 0131 05       		.byte	0x5
 914 0132 54       		.byte	0x54
 915 0133 19       		.byte	0x19
 916 0134 BB000000 		.4byte	0xbb
 917 0138 02       		.uleb128 0x2
 918 0139 30070000 		.4byte	.LASF26
 919 013d 05       		.byte	0x5
 920 013e 55       		.byte	0x55
 921 013f 19       		.byte	0x19
 922 0140 BB000000 		.4byte	0xbb
 923 0144 02       		.uleb128 0x2
 924 0145 67070000 		.4byte	.LASF27
 925 0149 05       		.byte	0x5
 926 014a 57       		.byte	0x57
 927 014b 19       		.byte	0x19
 928 014c DF000000 		.4byte	0xdf
 929 0150 02       		.uleb128 0x2
 930 0151 50050000 		.4byte	.LASF28
 931 0155 05       		.byte	0x5
 932 0156 58       		.byte	0x58
 933 0157 19       		.byte	0x19
 934 0158 D3000000 		.4byte	0xd3
 935 015c 02       		.uleb128 0x2
 936 015d 92050000 		.4byte	.LASF29
 937 0161 05       		.byte	0x5
 938 0162 5A       		.byte	0x5a
 939 0163 19       		.byte	0x19
 940 0164 DF000000 		.4byte	0xdf
 941 0168 02       		.uleb128 0x2
 942 0169 4F060000 		.4byte	.LASF30
 943 016d 05       		.byte	0x5
 944 016e 5C       		.byte	0x5c
 945 016f 19       		.byte	0x19
 946 0170 D3000000 		.4byte	0xd3
 947 0174 02       		.uleb128 0x2
 948 0175 26070000 		.4byte	.LASF31
 949 0179 05       		.byte	0x5
 950 017a 80       		.byte	0x80
 951 017b 12       		.byte	0x12
 952 017c 2D000000 		.4byte	0x2d
 953 0180 02       		.uleb128 0x2
 954 0181 B2080000 		.4byte	.LASF32
 955 0185 05       		.byte	0x5
 956 0186 85       		.byte	0x85
 957 0187 1A       		.byte	0x1a
 958 0188 8C010000 		.4byte	0x18c
 959 018c 0A       		.uleb128 0xa
 960 018d 3B050000 		.4byte	.LASF47
 961 0191 48       		.byte	0x48
 962 0192 06       		.byte	0x6
 963 0193 9C       		.byte	0x9c
 964 0194 08       		.byte	0x8
 965 0195 69020000 		.4byte	0x269
ARM GAS  C:\Users\DEVELO~1\AppData\Local\Temp\ccoH97es.s 			page 18


 966 0199 0B       		.uleb128 0xb
 967 019a 68647200 		.ascii	"hdr\000"
 968 019e 06       		.byte	0x6
 969 019f AD       		.byte	0xad
 970 01a0 05       		.byte	0x5
 971 01a1 1F070000 		.4byte	0x71f
 972 01a5 00       		.byte	0
 973 01a6 0B       		.uleb128 0xb
 974 01a7 63747800 		.ascii	"ctx\000"
 975 01ab 06       		.byte	0x6
 976 01ac B1       		.byte	0xb1
 977 01ad 21       		.byte	0x21
 978 01ae 8A060000 		.4byte	0x68a
 979 01b2 0C       		.byte	0xc
 980 01b3 01       		.uleb128 0x1
 981 01b4 FC030000 		.4byte	.LASF33
 982 01b8 06       		.byte	0x6
 983 01b9 B6       		.byte	0xb6
 984 01ba 21       		.byte	0x21
 985 01bb AF030000 		.4byte	0x3af
 986 01bf 10       		.byte	0x10
 987 01c0 01       		.uleb128 0x1
 988 01c1 46080000 		.4byte	.LASF34
 989 01c5 06       		.byte	0x6
 990 01c6 BB       		.byte	0xbb
 991 01c7 22       		.byte	0x22
 992 01c8 21080000 		.4byte	0x821
 993 01cc 18       		.byte	0x18
 994 01cd 01       		.uleb128 0x1
 995 01ce D3040000 		.4byte	.LASF35
 996 01d2 06       		.byte	0x6
 997 01d3 C0       		.byte	0xc0
 998 01d4 22       		.byte	0x22
 999 01d5 49030000 		.4byte	0x349
 1000 01d9 1C       		.byte	0x1c
 1001 01da 01       		.uleb128 0x1
 1002 01db 66080000 		.4byte	.LASF36
 1003 01df 06       		.byte	0x6
 1004 01e0 C9       		.byte	0xc9
 1005 01e1 22       		.byte	0x22
 1006 01e2 26080000 		.4byte	0x826
 1007 01e6 20       		.byte	0x20
 1008 01e7 01       		.uleb128 0x1
 1009 01e8 5D020000 		.4byte	.LASF37
 1010 01ec 06       		.byte	0x6
 1011 01ed CE       		.byte	0xce
 1012 01ee 21       		.byte	0x21
 1013 01ef 2C010000 		.4byte	0x12c
 1014 01f3 24       		.byte	0x24
 1015 01f4 01       		.uleb128 0x1
 1016 01f5 450A0000 		.4byte	.LASF38
 1017 01f9 06       		.byte	0x6
 1018 01fa D2       		.byte	0xd2
 1019 01fb 21       		.byte	0x21
 1020 01fc 20010000 		.4byte	0x120
 1021 0200 25       		.byte	0x25
 1022 0201 01       		.uleb128 0x1
ARM GAS  C:\Users\DEVELO~1\AppData\Local\Temp\ccoH97es.s 			page 19


 1023 0202 38070000 		.4byte	.LASF39
 1024 0206 06       		.byte	0x6
 1025 0207 D7       		.byte	0xd7
 1026 0208 21       		.byte	0x21
 1027 0209 38010000 		.4byte	0x138
 1028 020d 26       		.byte	0x26
 1029 020e 09       		.uleb128 0x9
 1030 020f 7500     		.ascii	"u\000"
 1031 0211 06       		.byte	0x6
 1032 0212 2801     		.2byte	0x128
 1033 0214 21       		.byte	0x21
 1034 0215 4C070000 		.4byte	0x74c
 1035 0219 28       		.byte	0x28
 1036 021a 05       		.uleb128 0x5
 1037 021b 44030000 		.4byte	.LASF40
 1038 021f 2D01     		.2byte	0x12d
 1039 0221 21       		.byte	0x21
 1040 0222 83030000 		.4byte	0x383
 1041 0226 2C       		.byte	0x2c
 1042 0227 05       		.uleb128 0x5
 1043 0228 A1030000 		.4byte	.LASF41
 1044 022c 3301     		.2byte	0x133
 1045 022e 21       		.byte	0x21
 1046 022f AF030000 		.4byte	0x3af
 1047 0233 30       		.byte	0x30
 1048 0234 05       		.uleb128 0x5
 1049 0235 56050000 		.4byte	.LASF42
 1050 0239 3901     		.2byte	0x139
 1051 023b 21       		.byte	0x21
 1052 023c 5C010000 		.4byte	0x15c
 1053 0240 38       		.byte	0x38
 1054 0241 05       		.uleb128 0x5
 1055 0242 100B0000 		.4byte	.LASF43
 1056 0246 4001     		.2byte	0x140
 1057 0248 22       		.byte	0x22
 1058 0249 1C080000 		.4byte	0x81c
 1059 024d 3C       		.byte	0x3c
 1060 024e 05       		.uleb128 0x5
 1061 024f D5050000 		.4byte	.LASF44
 1062 0253 4401     		.2byte	0x144
 1063 0255 21       		.byte	0x21
 1064 0256 44010000 		.4byte	0x144
 1065 025a 40       		.byte	0x40
 1066 025b 05       		.uleb128 0x5
 1067 025c DE040000 		.4byte	.LASF45
 1068 0260 4B01     		.2byte	0x14b
 1069 0262 22       		.byte	0x22
 1070 0263 9D040000 		.4byte	0x49d
 1071 0267 44       		.byte	0x44
 1072 0268 00       		.byte	0
 1073 0269 02       		.uleb128 0x2
 1074 026a 23090000 		.4byte	.LASF46
 1075 026e 05       		.byte	0x5
 1076 026f 8A       		.byte	0x8a
 1077 0270 1F       		.byte	0x1f
 1078 0271 75020000 		.4byte	0x275
 1079 0275 25       		.uleb128 0x25
ARM GAS  C:\Users\DEVELO~1\AppData\Local\Temp\ccoH97es.s 			page 20


 1080 0276 14090000 		.4byte	.LASF48
 1081 027a 9008     		.2byte	0x890
 1082 027c 06       		.byte	0x6
 1083 027d 8A01     		.2byte	0x18a
 1084 027f 08       		.byte	0x8
 1085 0280 FB020000 		.4byte	0x2fb
 1086 0284 05       		.uleb128 0x5
 1087 0285 370A0000 		.4byte	.LASF49
 1088 0289 8E01     		.2byte	0x18e
 1089 028b 21       		.byte	0x21
 1090 028c 54080000 		.4byte	0x854
 1091 0290 00       		.byte	0
 1092 0291 05       		.uleb128 0x5
 1093 0292 DA000000 		.4byte	.LASF50
 1094 0296 9201     		.2byte	0x192
 1095 0298 21       		.byte	0x21
 1096 0299 E0060000 		.4byte	0x6e0
 1097 029d 10       		.byte	0x10
 1098 029e 05       		.uleb128 0x5
 1099 029f 49090000 		.4byte	.LASF51
 1100 02a3 9901     		.2byte	0x199
 1101 02a5 21       		.byte	0x21
 1102 02a6 07070000 		.4byte	0x707
 1103 02aa 28       		.byte	0x28
 1104 02ab 05       		.uleb128 0x5
 1105 02ac D6070000 		.4byte	.LASF52
 1106 02b0 9E01     		.2byte	0x19e
 1107 02b2 21       		.byte	0x21
 1108 02b3 74010000 		.4byte	0x174
 1109 02b7 30       		.byte	0x30
 1110 02b8 05       		.uleb128 0x5
 1111 02b9 5D000000 		.4byte	.LASF53
 1112 02bd A401     		.2byte	0x1a4
 1113 02bf 21       		.byte	0x21
 1114 02c0 22030000 		.4byte	0x322
 1115 02c4 34       		.byte	0x34
 1116 02c5 05       		.uleb128 0x5
 1117 02c6 89080000 		.4byte	.LASF54
 1118 02ca A901     		.2byte	0x1a9
 1119 02cc 22       		.byte	0x22
 1120 02cd BF080000 		.4byte	0x8bf
 1121 02d1 38       		.byte	0x38
 1122 02d2 05       		.uleb128 0x5
 1123 02d3 54010000 		.4byte	.LASF55
 1124 02d7 AD01     		.2byte	0x1ad
 1125 02d9 21       		.byte	0x21
 1126 02da 80010000 		.4byte	0x180
 1127 02de 3C       		.byte	0x3c
 1128 02df 09       		.uleb128 0x9
 1129 02e0 64626700 		.ascii	"dbg\000"
 1130 02e4 06       		.byte	0x6
 1131 02e5 B101     		.2byte	0x1b1
 1132 02e7 21       		.byte	0x21
 1133 02e8 5F030000 		.4byte	0x35f
 1134 02ec 84       		.byte	0x84
 1135 02ed 05       		.uleb128 0x5
 1136 02ee D40A0000 		.4byte	.LASF56
ARM GAS  C:\Users\DEVELO~1\AppData\Local\Temp\ccoH97es.s 			page 21


 1137 02f2 B601     		.2byte	0x1b6
 1138 02f4 21       		.byte	0x21
 1139 02f5 F8050000 		.4byte	0x5f8
 1140 02f9 88       		.byte	0x88
 1141 02fa 00       		.byte	0
 1142 02fb 02       		.uleb128 0x2
 1143 02fc DE050000 		.4byte	.LASF57
 1144 0300 07       		.byte	0x7
 1145 0301 3F       		.byte	0x3f
 1146 0302 12       		.byte	0x12
 1147 0303 DF000000 		.4byte	0xdf
 1148 0307 0A       		.uleb128 0xa
 1149 0308 8A020000 		.4byte	.LASF58
 1150 030c 04       		.byte	0x4
 1151 030d 07       		.byte	0x7
 1152 030e 44       		.byte	0x44
 1153 030f 10       		.byte	0x10
 1154 0310 22030000 		.4byte	0x322
 1155 0314 01       		.uleb128 0x1
 1156 0315 2B030000 		.4byte	.LASF59
 1157 0319 07       		.byte	0x7
 1158 031a 48       		.byte	0x48
 1159 031b 21       		.byte	0x21
 1160 031c FB020000 		.4byte	0x2fb
 1161 0320 00       		.byte	0
 1162 0321 00       		.byte	0
 1163 0322 02       		.uleb128 0x2
 1164 0323 9B070000 		.4byte	.LASF60
 1165 0327 07       		.byte	0x7
 1166 0328 49       		.byte	0x49
 1167 0329 03       		.byte	0x3
 1168 032a 07030000 		.4byte	0x307
 1169 032e 0A       		.uleb128 0xa
 1170 032f 6F070000 		.4byte	.LASF61
 1171 0333 04       		.byte	0x4
 1172 0334 08       		.byte	0x8
 1173 0335 3E       		.byte	0x3e
 1174 0336 10       		.byte	0x10
 1175 0337 49030000 		.4byte	0x349
 1176 033b 01       		.uleb128 0x1
 1177 033c 03090000 		.4byte	.LASF62
 1178 0340 08       		.byte	0x8
 1179 0341 46       		.byte	0x46
 1180 0342 24       		.byte	0x24
 1181 0343 4E030000 		.4byte	0x34e
 1182 0347 00       		.byte	0
 1183 0348 00       		.byte	0
 1184 0349 07       		.uleb128 0x7
 1185 034a 5A030000 		.4byte	0x35a
 1186 034e 16       		.uleb128 0x16
 1187 034f 49030000 		.4byte	0x349
 1188 0353 08       		.uleb128 0x8
 1189 0354 01       		.byte	0x1
 1190 0355 08       		.byte	0x8
 1191 0356 6D080000 		.4byte	.LASF63
 1192 035a 17       		.uleb128 0x17
 1193 035b 53030000 		.4byte	0x353
ARM GAS  C:\Users\DEVELO~1\AppData\Local\Temp\ccoH97es.s 			page 22


 1194 035f 02       		.uleb128 0x2
 1195 0360 DB030000 		.4byte	.LASF64
 1196 0364 08       		.byte	0x8
 1197 0365 51       		.byte	0x51
 1198 0366 03       		.byte	0x3
 1199 0367 2E030000 		.4byte	0x32e
 1200 036b 02       		.uleb128 0x2
 1201 036c CB080000 		.4byte	.LASF65
 1202 0370 09       		.byte	0x9
 1203 0371 6D       		.byte	0x6d
 1204 0372 12       		.byte	0x12
 1205 0373 DF000000 		.4byte	0xdf
 1206 0377 02       		.uleb128 0x2
 1207 0378 87030000 		.4byte	.LASF66
 1208 037c 09       		.byte	0x9
 1209 037d 79       		.byte	0x79
 1210 037e 12       		.byte	0x12
 1211 037f DF000000 		.4byte	0xdf
 1212 0383 02       		.uleb128 0x2
 1213 0384 3B060000 		.4byte	.LASF67
 1214 0388 0A       		.byte	0xa
 1215 0389 32       		.byte	0x32
 1216 038a 18       		.byte	0x18
 1217 038b 8F030000 		.4byte	0x38f
 1218 038f 0A       		.uleb128 0xa
 1219 0390 7C050000 		.4byte	.LASF68
 1220 0394 04       		.byte	0x4
 1221 0395 0A       		.byte	0xa
 1222 0396 38       		.byte	0x38
 1223 0397 08       		.byte	0x8
 1224 0398 AA030000 		.4byte	0x3aa
 1225 039c 01       		.uleb128 0x1
 1226 039d 9A010000 		.4byte	.LASF69
 1227 03a1 0A       		.byte	0xa
 1228 03a2 39       		.byte	0x39
 1229 03a3 1A       		.byte	0x1a
 1230 03a4 AA030000 		.4byte	0x3aa
 1231 03a8 00       		.byte	0
 1232 03a9 00       		.byte	0
 1233 03aa 07       		.uleb128 0x7
 1234 03ab 83030000 		.4byte	0x383
 1235 03af 02       		.uleb128 0x2
 1236 03b0 03040000 		.4byte	.LASF70
 1237 03b4 0A       		.byte	0xa
 1238 03b5 3F       		.byte	0x3f
 1239 03b6 19       		.byte	0x19
 1240 03b7 BB030000 		.4byte	0x3bb
 1241 03bb 0A       		.uleb128 0xa
 1242 03bc 92020000 		.4byte	.LASF71
 1243 03c0 08       		.byte	0x8
 1244 03c1 0A       		.byte	0xa
 1245 03c2 45       		.byte	0x45
 1246 03c3 08       		.byte	0x8
 1247 03c4 E3030000 		.4byte	0x3e3
 1248 03c8 01       		.uleb128 0x1
 1249 03c9 9A010000 		.4byte	.LASF69
 1250 03cd 0A       		.byte	0xa
ARM GAS  C:\Users\DEVELO~1\AppData\Local\Temp\ccoH97es.s 			page 23


 1251 03ce 46       		.byte	0x46
 1252 03cf 1A       		.byte	0x1a
 1253 03d0 E3030000 		.4byte	0x3e3
 1254 03d4 00       		.byte	0
 1255 03d5 01       		.uleb128 0x1
 1256 03d6 1D000000 		.4byte	.LASF72
 1257 03da 0A       		.byte	0xa
 1258 03db 47       		.byte	0x47
 1259 03dc 1A       		.byte	0x1a
 1260 03dd E3030000 		.4byte	0x3e3
 1261 03e1 04       		.byte	0x4
 1262 03e2 00       		.byte	0
 1263 03e3 07       		.uleb128 0x7
 1264 03e4 AF030000 		.4byte	0x3af
 1265 03e8 02       		.uleb128 0x2
 1266 03e9 DC080000 		.4byte	.LASF73
 1267 03ed 0A       		.byte	0xa
 1268 03ee 4E       		.byte	0x4e
 1269 03ef 22       		.byte	0x22
 1270 03f0 F4030000 		.4byte	0x3f4
 1271 03f4 0A       		.uleb128 0xa
 1272 03f5 74090000 		.4byte	.LASF74
 1273 03f9 0C       		.byte	0xc
 1274 03fa 0A       		.byte	0xa
 1275 03fb 55       		.byte	0x55
 1276 03fc 08       		.byte	0x8
 1277 03fd 29040000 		.4byte	0x429
 1278 0401 01       		.uleb128 0x1
 1279 0402 9A010000 		.4byte	.LASF69
 1280 0406 0A       		.byte	0xa
 1281 0407 56       		.byte	0x56
 1282 0408 1A       		.byte	0x1a
 1283 0409 29040000 		.4byte	0x429
 1284 040d 00       		.byte	0
 1285 040e 01       		.uleb128 0x1
 1286 040f 1D000000 		.4byte	.LASF72
 1287 0413 0A       		.byte	0xa
 1288 0414 57       		.byte	0x57
 1289 0415 1A       		.byte	0x1a
 1290 0416 29040000 		.4byte	0x429
 1291 041a 04       		.byte	0x4
 1292 041b 01       		.uleb128 0x1
 1293 041c F4060000 		.4byte	.LASF75
 1294 0420 0A       		.byte	0xa
 1295 0421 58       		.byte	0x58
 1296 0422 19       		.byte	0x19
 1297 0423 44010000 		.4byte	0x144
 1298 0427 08       		.byte	0x8
 1299 0428 00       		.byte	0
 1300 0429 07       		.uleb128 0x7
 1301 042a E8030000 		.4byte	0x3e8
 1302 042e 02       		.uleb128 0x2
 1303 042f 94090000 		.4byte	.LASF76
 1304 0433 0A       		.byte	0xa
 1305 0434 5F       		.byte	0x5f
 1306 0435 1E       		.byte	0x1e
 1307 0436 3A040000 		.4byte	0x43a
ARM GAS  C:\Users\DEVELO~1\AppData\Local\Temp\ccoH97es.s 			page 24


 1308 043a 0A       		.uleb128 0xa
 1309 043b 1D0A0000 		.4byte	.LASF77
 1310 043f 0C       		.byte	0xc
 1311 0440 0A       		.byte	0xa
 1312 0441 64       		.byte	0x64
 1313 0442 08       		.byte	0x8
 1314 0443 6F040000 		.4byte	0x46f
 1315 0447 01       		.uleb128 0x1
 1316 0448 9A010000 		.4byte	.LASF69
 1317 044c 0A       		.byte	0xa
 1318 044d 65       		.byte	0x65
 1319 044e 1A       		.byte	0x1a
 1320 044f 6F040000 		.4byte	0x46f
 1321 0453 00       		.byte	0
 1322 0454 01       		.uleb128 0x1
 1323 0455 1D000000 		.4byte	.LASF72
 1324 0459 0A       		.byte	0xa
 1325 045a 66       		.byte	0x66
 1326 045b 1A       		.byte	0x1a
 1327 045c 6F040000 		.4byte	0x46f
 1328 0460 04       		.byte	0x4
 1329 0461 01       		.uleb128 0x1
 1330 0462 67010000 		.4byte	.LASF78
 1331 0466 0A       		.byte	0xa
 1332 0467 67       		.byte	0x67
 1333 0468 19       		.byte	0x19
 1334 0469 77030000 		.4byte	0x377
 1335 046d 08       		.byte	0x8
 1336 046e 00       		.byte	0
 1337 046f 07       		.uleb128 0x7
 1338 0470 2E040000 		.4byte	0x42e
 1339 0474 0C       		.uleb128 0xc
 1340 0475 08       		.byte	0x8
 1341 0476 0B       		.byte	0xb
 1342 0477 83       		.byte	0x83
 1343 0478 05       		.byte	0x5
 1344 0479 98040000 		.4byte	0x498
 1345 047d 0B       		.uleb128 0xb
 1346 047e 6E747000 		.ascii	"ntp\000"
 1347 0482 0B       		.byte	0xb
 1348 0483 87       		.byte	0x87
 1349 0484 1E       		.byte	0x1e
 1350 0485 98040000 		.4byte	0x498
 1351 0489 00       		.byte	0
 1352 048a 01       		.uleb128 0x1
 1353 048b BA070000 		.4byte	.LASF79
 1354 048f 0B       		.byte	0xb
 1355 0490 8B       		.byte	0x8b
 1356 0491 1E       		.byte	0x1e
 1357 0492 9D040000 		.4byte	0x49d
 1358 0496 04       		.byte	0x4
 1359 0497 00       		.byte	0
 1360 0498 07       		.uleb128 0x7
 1361 0499 80010000 		.4byte	0x180
 1362 049d 26       		.uleb128 0x26
 1363 049e 04       		.byte	0x4
 1364 049f 0C       		.uleb128 0xc
ARM GAS  C:\Users\DEVELO~1\AppData\Local\Temp\ccoH97es.s 			page 25


 1365 04a0 08       		.byte	0x8
 1366 04a1 0B       		.byte	0xb
 1367 04a2 90       		.byte	0x90
 1368 04a3 05       		.byte	0x5
 1369 04a4 C2040000 		.4byte	0x4c2
 1370 04a8 0B       		.uleb128 0xb
 1371 04a9 747000   		.ascii	"tp\000"
 1372 04ac 0B       		.byte	0xb
 1373 04ad 94       		.byte	0x94
 1374 04ae 1E       		.byte	0x1e
 1375 04af 98040000 		.4byte	0x498
 1376 04b3 00       		.byte	0
 1377 04b4 0B       		.uleb128 0xb
 1378 04b5 6D736700 		.ascii	"msg\000"
 1379 04b9 0B       		.byte	0xb
 1380 04ba 98       		.byte	0x98
 1381 04bb 1D       		.byte	0x1d
 1382 04bc 50010000 		.4byte	0x150
 1383 04c0 04       		.byte	0x4
 1384 04c1 00       		.byte	0
 1385 04c2 0C       		.uleb128 0xc
 1386 04c3 04       		.byte	0x4
 1387 04c4 0B       		.byte	0xb
 1388 04c5 9D       		.byte	0x9d
 1389 04c6 05       		.byte	0x5
 1390 04c7 D9040000 		.4byte	0x4d9
 1391 04cb 01       		.uleb128 0x1
 1392 04cc D3040000 		.4byte	.LASF35
 1393 04d0 0B       		.byte	0xb
 1394 04d1 A1       		.byte	0xa1
 1395 04d2 1E       		.byte	0x1e
 1396 04d3 49030000 		.4byte	0x349
 1397 04d7 00       		.byte	0
 1398 04d8 00       		.byte	0
 1399 04d9 0C       		.uleb128 0xc
 1400 04da 04       		.byte	0x4
 1401 04db 0B       		.byte	0xb
 1402 04dc A6       		.byte	0xa6
 1403 04dd 05       		.byte	0x5
 1404 04de F0040000 		.4byte	0x4f0
 1405 04e2 01       		.uleb128 0x1
 1406 04e3 EC070000 		.4byte	.LASF80
 1407 04e7 0B       		.byte	0xb
 1408 04e8 AA       		.byte	0xaa
 1409 04e9 1E       		.byte	0x1e
 1410 04ea 49030000 		.4byte	0x349
 1411 04ee 00       		.byte	0
 1412 04ef 00       		.byte	0
 1413 04f0 0C       		.uleb128 0xc
 1414 04f1 08       		.byte	0x8
 1415 04f2 0B       		.byte	0xb
 1416 04f3 AF       		.byte	0xaf
 1417 04f4 05       		.byte	0x5
 1418 04f5 14050000 		.4byte	0x514
 1419 04f9 0B       		.uleb128 0xb
 1420 04fa 75703100 		.ascii	"up1\000"
 1421 04fe 0B       		.byte	0xb
ARM GAS  C:\Users\DEVELO~1\AppData\Local\Temp\ccoH97es.s 			page 26


 1422 04ff B3       		.byte	0xb3
 1423 0500 1E       		.byte	0x1e
 1424 0501 9D040000 		.4byte	0x49d
 1425 0505 00       		.byte	0
 1426 0506 0B       		.uleb128 0xb
 1427 0507 75703200 		.ascii	"up2\000"
 1428 050b 0B       		.byte	0xb
 1429 050c B7       		.byte	0xb7
 1430 050d 1E       		.byte	0x1e
 1431 050e 9D040000 		.4byte	0x49d
 1432 0512 04       		.byte	0x4
 1433 0513 00       		.byte	0
 1434 0514 18       		.uleb128 0x18
 1435 0515 08       		.byte	0x8
 1436 0516 0B       		.byte	0xb
 1437 0517 7F       		.byte	0x7f
 1438 0518 52050000 		.4byte	0x552
 1439 051c 19       		.uleb128 0x19
 1440 051d 737700   		.ascii	"sw\000"
 1441 0520 8C       		.byte	0x8c
 1442 0521 74040000 		.4byte	0x474
 1443 0525 19       		.uleb128 0x19
 1444 0526 72647900 		.ascii	"rdy\000"
 1445 052a 99       		.byte	0x99
 1446 052b 9F040000 		.4byte	0x49f
 1447 052f 19       		.uleb128 0x19
 1448 0530 69737200 		.ascii	"isr\000"
 1449 0534 A2       		.byte	0xa2
 1450 0535 C2040000 		.4byte	0x4c2
 1451 0539 0E       		.uleb128 0xe
 1452 053a 3B010000 		.4byte	.LASF81
 1453 053e 0B       		.byte	0xb
 1454 053f AB       		.byte	0xab
 1455 0540 07       		.byte	0x7
 1456 0541 D9040000 		.4byte	0x4d9
 1457 0545 0E       		.uleb128 0xe
 1458 0546 50070000 		.4byte	.LASF82
 1459 054a 0B       		.byte	0xb
 1460 054b B8       		.byte	0xb8
 1461 054c 07       		.byte	0x7
 1462 054d F0040000 		.4byte	0x4f0
 1463 0551 00       		.byte	0
 1464 0552 0C       		.uleb128 0xc
 1465 0553 10       		.byte	0x10
 1466 0554 0B       		.byte	0xb
 1467 0555 6C       		.byte	0x6c
 1468 0556 09       		.byte	0x9
 1469 0557 98050000 		.4byte	0x598
 1470 055b 1A       		.uleb128 0x1a
 1471 055c E1000000 		.4byte	.LASF83
 1472 0560 70       		.byte	0x70
 1473 0561 DF000000 		.4byte	0xdf
 1474 0565 03       		.byte	0x3
 1475 0566 00       		.byte	0
 1476 0567 1A       		.uleb128 0x1a
 1477 0568 5D020000 		.4byte	.LASF37
 1478 056c 74       		.byte	0x74
ARM GAS  C:\Users\DEVELO~1\AppData\Local\Temp\ccoH97es.s 			page 27


 1479 056d DF000000 		.4byte	0xdf
 1480 0571 05       		.byte	0x5
 1481 0572 03       		.byte	0x3
 1482 0573 1A       		.uleb128 0x1a
 1483 0574 BE050000 		.4byte	.LASF84
 1484 0578 7A       		.byte	0x7a
 1485 0579 DF000000 		.4byte	0xdf
 1486 057d 18       		.byte	0x18
 1487 057e 08       		.byte	0x8
 1488 057f 01       		.uleb128 0x1
 1489 0580 EF060000 		.4byte	.LASF85
 1490 0584 0B       		.byte	0xb
 1491 0585 7E       		.byte	0x7e
 1492 0586 19       		.byte	0x19
 1493 0587 6B030000 		.4byte	0x36b
 1494 058b 04       		.byte	0x4
 1495 058c 0B       		.uleb128 0xb
 1496 058d 7500     		.ascii	"u\000"
 1497 058f 0B       		.byte	0xb
 1498 0590 B9       		.byte	0xb9
 1499 0591 05       		.byte	0x5
 1500 0592 14050000 		.4byte	0x514
 1501 0596 08       		.byte	0x8
 1502 0597 00       		.byte	0
 1503 0598 02       		.uleb128 0x2
 1504 0599 EE000000 		.4byte	.LASF86
 1505 059d 0B       		.byte	0xb
 1506 059e BA       		.byte	0xba
 1507 059f 03       		.byte	0x3
 1508 05a0 52050000 		.4byte	0x552
 1509 05a4 27       		.uleb128 0x27
 1510 05a5 0808     		.2byte	0x808
 1511 05a7 0B       		.byte	0xb
 1512 05a8 C0       		.byte	0xc0
 1513 05a9 09       		.byte	0x9
 1514 05aa E3050000 		.4byte	0x5e3
 1515 05ae 01       		.uleb128 0x1
 1516 05af 77020000 		.4byte	.LASF87
 1517 05b3 0B       		.byte	0xb
 1518 05b4 C4       		.byte	0xc4
 1519 05b5 19       		.byte	0x19
 1520 05b6 C7000000 		.4byte	0xc7
 1521 05ba 00       		.byte	0
 1522 05bb 01       		.uleb128 0x1
 1523 05bc 1C020000 		.4byte	.LASF88
 1524 05c0 0B       		.byte	0xb
 1525 05c1 C8       		.byte	0xc8
 1526 05c2 19       		.byte	0x19
 1527 05c3 C7000000 		.4byte	0xc7
 1528 05c7 02       		.byte	0x2
 1529 05c8 0B       		.uleb128 0xb
 1530 05c9 70747200 		.ascii	"ptr\000"
 1531 05cd 0B       		.byte	0xb
 1532 05ce CC       		.byte	0xcc
 1533 05cf 1A       		.byte	0x1a
 1534 05d0 E3050000 		.4byte	0x5e3
 1535 05d4 04       		.byte	0x4
ARM GAS  C:\Users\DEVELO~1\AppData\Local\Temp\ccoH97es.s 			page 28


 1536 05d5 01       		.uleb128 0x1
 1537 05d6 D5080000 		.4byte	.LASF89
 1538 05da 0B       		.byte	0xb
 1539 05db D0       		.byte	0xd0
 1540 05dc 19       		.byte	0x19
 1541 05dd E8050000 		.4byte	0x5e8
 1542 05e1 08       		.byte	0x8
 1543 05e2 00       		.byte	0
 1544 05e3 07       		.uleb128 0x7
 1545 05e4 98050000 		.4byte	0x598
 1546 05e8 28       		.uleb128 0x28
 1547 05e9 98050000 		.4byte	0x598
 1548 05ed F8050000 		.4byte	0x5f8
 1549 05f1 29       		.uleb128 0x29
 1550 05f2 2D000000 		.4byte	0x2d
 1551 05f6 7F       		.byte	0x7f
 1552 05f7 00       		.byte	0
 1553 05f8 02       		.uleb128 0x2
 1554 05f9 B2020000 		.4byte	.LASF90
 1555 05fd 0B       		.byte	0xb
 1556 05fe D1       		.byte	0xd1
 1557 05ff 03       		.byte	0x3
 1558 0600 A4050000 		.4byte	0x5a4
 1559 0604 15       		.uleb128 0x15
 1560 0605 CE000000 		.4byte	.LASF91
 1561 0609 24       		.byte	0x24
 1562 060a 0C       		.byte	0xc
 1563 060b E001     		.2byte	0x1e0
 1564 060d 08       		.byte	0x8
 1565 060e 8A060000 		.4byte	0x68a
 1566 0612 09       		.uleb128 0x9
 1567 0613 723400   		.ascii	"r4\000"
 1568 0616 0C       		.byte	0xc
 1569 0617 F901     		.2byte	0x1f9
 1570 0619 11       		.byte	0x11
 1571 061a DF000000 		.4byte	0xdf
 1572 061e 00       		.byte	0
 1573 061f 09       		.uleb128 0x9
 1574 0620 723500   		.ascii	"r5\000"
 1575 0623 0C       		.byte	0xc
 1576 0624 FA01     		.2byte	0x1fa
 1577 0626 11       		.byte	0x11
 1578 0627 DF000000 		.4byte	0xdf
 1579 062b 04       		.byte	0x4
 1580 062c 09       		.uleb128 0x9
 1581 062d 723600   		.ascii	"r6\000"
 1582 0630 0C       		.byte	0xc
 1583 0631 FB01     		.2byte	0x1fb
 1584 0633 11       		.byte	0x11
 1585 0634 DF000000 		.4byte	0xdf
 1586 0638 08       		.byte	0x8
 1587 0639 09       		.uleb128 0x9
 1588 063a 723700   		.ascii	"r7\000"
 1589 063d 0C       		.byte	0xc
 1590 063e FC01     		.2byte	0x1fc
 1591 0640 11       		.byte	0x11
 1592 0641 DF000000 		.4byte	0xdf
ARM GAS  C:\Users\DEVELO~1\AppData\Local\Temp\ccoH97es.s 			page 29


 1593 0645 0C       		.byte	0xc
 1594 0646 09       		.uleb128 0x9
 1595 0647 723800   		.ascii	"r8\000"
 1596 064a 0C       		.byte	0xc
 1597 064b FD01     		.2byte	0x1fd
 1598 064d 11       		.byte	0x11
 1599 064e DF000000 		.4byte	0xdf
 1600 0652 10       		.byte	0x10
 1601 0653 09       		.uleb128 0x9
 1602 0654 723900   		.ascii	"r9\000"
 1603 0657 0C       		.byte	0xc
 1604 0658 FE01     		.2byte	0x1fe
 1605 065a 11       		.byte	0x11
 1606 065b DF000000 		.4byte	0xdf
 1607 065f 14       		.byte	0x14
 1608 0660 09       		.uleb128 0x9
 1609 0661 72313000 		.ascii	"r10\000"
 1610 0665 0C       		.byte	0xc
 1611 0666 FF01     		.2byte	0x1ff
 1612 0668 11       		.byte	0x11
 1613 0669 DF000000 		.4byte	0xdf
 1614 066d 18       		.byte	0x18
 1615 066e 09       		.uleb128 0x9
 1616 066f 72313100 		.ascii	"r11\000"
 1617 0673 0C       		.byte	0xc
 1618 0674 0002     		.2byte	0x200
 1619 0676 11       		.byte	0x11
 1620 0677 DF000000 		.4byte	0xdf
 1621 067b 1C       		.byte	0x1c
 1622 067c 09       		.uleb128 0x9
 1623 067d 6C7200   		.ascii	"lr\000"
 1624 0680 0C       		.byte	0xc
 1625 0681 0102     		.2byte	0x201
 1626 0683 11       		.byte	0x11
 1627 0684 DF000000 		.4byte	0xdf
 1628 0688 20       		.byte	0x20
 1629 0689 00       		.byte	0
 1630 068a 15       		.uleb128 0x15
 1631 068b BF060000 		.4byte	.LASF92
 1632 068f 04       		.byte	0x4
 1633 0690 0C       		.byte	0xc
 1634 0691 0A02     		.2byte	0x20a
 1635 0693 08       		.byte	0x8
 1636 0694 A6060000 		.4byte	0x6a6
 1637 0698 09       		.uleb128 0x9
 1638 0699 737000   		.ascii	"sp\000"
 1639 069c 0C       		.byte	0xc
 1640 069d 0B02     		.2byte	0x20b
 1641 069f 1A       		.byte	0x1a
 1642 06a0 A6060000 		.4byte	0x6a6
 1643 06a4 00       		.byte	0
 1644 06a5 00       		.byte	0
 1645 06a6 07       		.uleb128 0x7
 1646 06a7 04060000 		.4byte	0x604
 1647 06ab 0A       		.uleb128 0xa
 1648 06ac 24060000 		.4byte	.LASF93
 1649 06b0 18       		.byte	0x18
ARM GAS  C:\Users\DEVELO~1\AppData\Local\Temp\ccoH97es.s 			page 30


 1650 06b1 06       		.byte	0x6
 1651 06b2 64       		.byte	0x64
 1652 06b3 10       		.byte	0x10
 1653 06b4 E0060000 		.4byte	0x6e0
 1654 06b8 01       		.uleb128 0x1
 1655 06b9 C5080000 		.4byte	.LASF94
 1656 06bd 06       		.byte	0x6
 1657 06be 68       		.byte	0x68
 1658 06bf 21       		.byte	0x21
 1659 06c0 2E040000 		.4byte	0x42e
 1660 06c4 00       		.byte	0
 1661 06c5 01       		.uleb128 0x1
 1662 06c6 B1070000 		.4byte	.LASF95
 1663 06ca 06       		.byte	0x6
 1664 06cb 73       		.byte	0x73
 1665 06cc 21       		.byte	0x21
 1666 06cd 6B030000 		.4byte	0x36b
 1667 06d1 0C       		.byte	0xc
 1668 06d2 01       		.uleb128 0x1
 1669 06d3 C6050000 		.4byte	.LASF96
 1670 06d7 06       		.byte	0x6
 1671 06d8 79       		.byte	0x79
 1672 06d9 21       		.byte	0x21
 1673 06da F7000000 		.4byte	0xf7
 1674 06de 10       		.byte	0x10
 1675 06df 00       		.byte	0
 1676 06e0 02       		.uleb128 0x2
 1677 06e1 F9050000 		.4byte	.LASF97
 1678 06e5 06       		.byte	0x6
 1679 06e6 7B       		.byte	0x7b
 1680 06e7 03       		.byte	0x3
 1681 06e8 AB060000 		.4byte	0x6ab
 1682 06ec 0A       		.uleb128 0xa
 1683 06ed D2020000 		.4byte	.LASF98
 1684 06f1 08       		.byte	0x8
 1685 06f2 06       		.byte	0x6
 1686 06f3 80       		.byte	0x80
 1687 06f4 10       		.byte	0x10
 1688 06f5 07070000 		.4byte	0x707
 1689 06f9 01       		.uleb128 0x1
 1690 06fa D8040000 		.4byte	.LASF99
 1691 06fe 06       		.byte	0x6
 1692 06ff 84       		.byte	0x84
 1693 0700 21       		.byte	0x21
 1694 0701 AF030000 		.4byte	0x3af
 1695 0705 00       		.byte	0
 1696 0706 00       		.byte	0
 1697 0707 02       		.uleb128 0x2
 1698 0708 10080000 		.4byte	.LASF100
 1699 070c 06       		.byte	0x6
 1700 070d 85       		.byte	0x85
 1701 070e 03       		.byte	0x3
 1702 070f EC060000 		.4byte	0x6ec
 1703 0713 02       		.uleb128 0x2
 1704 0714 810A0000 		.4byte	.LASF101
 1705 0718 06       		.byte	0x6
 1706 0719 8A       		.byte	0x8a
ARM GAS  C:\Users\DEVELO~1\AppData\Local\Temp\ccoH97es.s 			page 31


 1707 071a 14       		.byte	0x14
 1708 071b 98040000 		.4byte	0x498
 1709 071f 18       		.uleb128 0x18
 1710 0720 0C       		.byte	0xc
 1711 0721 06       		.byte	0x6
 1712 0722 A0       		.byte	0xa0
 1713 0723 4C070000 		.4byte	0x74c
 1714 0727 0E       		.uleb128 0xe
 1715 0728 FC0A0000 		.4byte	.LASF102
 1716 072c 06       		.byte	0x6
 1717 072d A4       		.byte	0xa4
 1718 072e 21       		.byte	0x21
 1719 072f 83030000 		.4byte	0x383
 1720 0733 0E       		.uleb128 0xe
 1721 0734 D8040000 		.4byte	.LASF99
 1722 0738 06       		.byte	0x6
 1723 0739 A8       		.byte	0xa8
 1724 073a 21       		.byte	0x21
 1725 073b AF030000 		.4byte	0x3af
 1726 073f 0E       		.uleb128 0xe
 1727 0740 0D090000 		.4byte	.LASF103
 1728 0744 06       		.byte	0x6
 1729 0745 AC       		.byte	0xac
 1730 0746 21       		.byte	0x21
 1731 0747 E8030000 		.4byte	0x3e8
 1732 074b 00       		.byte	0
 1733 074c 18       		.uleb128 0x18
 1734 074d 04       		.byte	0x4
 1735 074e 06       		.byte	0x6
 1736 074f EB       		.byte	0xeb
 1737 0750 B5070000 		.4byte	0x7b5
 1738 0754 0E       		.uleb128 0xe
 1739 0755 070A0000 		.4byte	.LASF104
 1740 0759 06       		.byte	0x6
 1741 075a F2       		.byte	0xf2
 1742 075b 21       		.byte	0x21
 1743 075c 50010000 		.4byte	0x150
 1744 0760 0E       		.uleb128 0xe
 1745 0761 4B010000 		.4byte	.LASF105
 1746 0765 06       		.byte	0x6
 1747 0766 F9       		.byte	0xf9
 1748 0767 21       		.byte	0x21
 1749 0768 50010000 		.4byte	0x150
 1750 076c 0F       		.uleb128 0xf
 1751 076d BA070000 		.4byte	.LASF79
 1752 0771 0001     		.2byte	0x100
 1753 0773 22       		.byte	0x22
 1754 0774 9D040000 		.4byte	0x49d
 1755 0778 0F       		.uleb128 0xf
 1756 0779 2F000000 		.4byte	.LASF106
 1757 077d 0701     		.2byte	0x107
 1758 077f 22       		.byte	0x22
 1759 0780 B5070000 		.4byte	0x7b5
 1760 0784 0F       		.uleb128 0xf
 1761 0785 5F010000 		.4byte	.LASF107
 1762 0789 0C01     		.2byte	0x10c
 1763 078b 21       		.byte	0x21
ARM GAS  C:\Users\DEVELO~1\AppData\Local\Temp\ccoH97es.s 			page 32


 1764 078c 50010000 		.4byte	0x150
 1765 0790 0F       		.uleb128 0xf
 1766 0791 D4030000 		.4byte	.LASF108
 1767 0795 1501     		.2byte	0x115
 1768 0797 22       		.byte	0x22
 1769 0798 E2070000 		.4byte	0x7e2
 1770 079c 0F       		.uleb128 0xf
 1771 079d 2F080000 		.4byte	.LASF109
 1772 07a1 1E01     		.2byte	0x11e
 1773 07a3 22       		.byte	0x22
 1774 07a4 1C080000 		.4byte	0x81c
 1775 07a8 0F       		.uleb128 0xf
 1776 07a9 FA040000 		.4byte	.LASF110
 1777 07ad 2601     		.2byte	0x126
 1778 07af 21       		.byte	0x21
 1779 07b0 5C010000 		.4byte	0x15c
 1780 07b4 00       		.byte	0
 1781 07b5 07       		.uleb128 0x7
 1782 07b6 13070000 		.4byte	0x713
 1783 07ba 0A       		.uleb128 0xa
 1784 07bb 03080000 		.4byte	.LASF111
 1785 07bf 0C       		.byte	0xc
 1786 07c0 0D       		.byte	0xd
 1787 07c1 34       		.byte	0x34
 1788 07c2 10       		.byte	0x10
 1789 07c3 E2070000 		.4byte	0x7e2
 1790 07c7 01       		.uleb128 0x1
 1791 07c8 D8040000 		.4byte	.LASF99
 1792 07cc 0D       		.byte	0xd
 1793 07cd 35       		.byte	0x35
 1794 07ce 19       		.byte	0x19
 1795 07cf AF030000 		.4byte	0x3af
 1796 07d3 00       		.byte	0
 1797 07d4 0B       		.uleb128 0xb
 1798 07d5 636E7400 		.ascii	"cnt\000"
 1799 07d9 0D       		.byte	0xd
 1800 07da 37       		.byte	0x37
 1801 07db 19       		.byte	0x19
 1802 07dc 68010000 		.4byte	0x168
 1803 07e0 08       		.byte	0x8
 1804 07e1 00       		.byte	0
 1805 07e2 07       		.uleb128 0x7
 1806 07e3 BA070000 		.4byte	0x7ba
 1807 07e7 0A       		.uleb128 0xa
 1808 07e8 A40A0000 		.4byte	.LASF112
 1809 07ec 10       		.byte	0x10
 1810 07ed 0E       		.byte	0xe
 1811 07ee 39       		.byte	0x39
 1812 07ef 08       		.byte	0x8
 1813 07f0 1C080000 		.4byte	0x81c
 1814 07f4 01       		.uleb128 0x1
 1815 07f5 D8040000 		.4byte	.LASF99
 1816 07f9 0E       		.byte	0xe
 1817 07fa 3A       		.byte	0x3a
 1818 07fb 19       		.byte	0x19
 1819 07fc AF030000 		.4byte	0x3af
 1820 0800 00       		.byte	0
ARM GAS  C:\Users\DEVELO~1\AppData\Local\Temp\ccoH97es.s 			page 33


 1821 0801 01       		.uleb128 0x1
 1822 0802 46080000 		.4byte	.LASF34
 1823 0806 0E       		.byte	0xe
 1824 0807 3C       		.byte	0x3c
 1825 0808 1A       		.byte	0x1a
 1826 0809 98040000 		.4byte	0x498
 1827 080d 08       		.byte	0x8
 1828 080e 01       		.uleb128 0x1
 1829 080f 9A010000 		.4byte	.LASF69
 1830 0813 0E       		.byte	0xe
 1831 0814 3E       		.byte	0x3e
 1832 0815 1A       		.byte	0x1a
 1833 0816 D0080000 		.4byte	0x8d0
 1834 081a 0C       		.byte	0xc
 1835 081b 00       		.byte	0
 1836 081c 07       		.uleb128 0x7
 1837 081d E7070000 		.4byte	0x7e7
 1838 0821 07       		.uleb128 0x7
 1839 0822 69020000 		.4byte	0x269
 1840 0826 07       		.uleb128 0x7
 1841 0827 14010000 		.4byte	0x114
 1842 082b 15       		.uleb128 0x15
 1843 082c 84050000 		.4byte	.LASF113
 1844 0830 10       		.byte	0x10
 1845 0831 06       		.byte	0x6
 1846 0832 5C01     		.2byte	0x15c
 1847 0834 10       		.byte	0x10
 1848 0835 54080000 		.4byte	0x854
 1849 0839 05       		.uleb128 0x5
 1850 083a 0D090000 		.4byte	.LASF103
 1851 083e 6101     		.2byte	0x161
 1852 0840 21       		.byte	0x21
 1853 0841 E8030000 		.4byte	0x3e8
 1854 0845 00       		.byte	0
 1855 0846 05       		.uleb128 0x5
 1856 0847 0D070000 		.4byte	.LASF114
 1857 084b 6501     		.2byte	0x165
 1858 084d 22       		.byte	0x22
 1859 084e 98040000 		.4byte	0x498
 1860 0852 0C       		.byte	0xc
 1861 0853 00       		.byte	0
 1862 0854 1B       		.uleb128 0x1b
 1863 0855 22000000 		.4byte	.LASF115
 1864 0859 6601     		.2byte	0x166
 1865 085b 2B080000 		.4byte	0x82b
 1866 085f 15       		.uleb128 0x15
 1867 0860 A9060000 		.4byte	.LASF116
 1868 0864 14       		.byte	0x14
 1869 0865 06       		.byte	0x6
 1870 0866 6B01     		.2byte	0x16b
 1871 0868 10       		.byte	0x10
 1872 0869 AF080000 		.4byte	0x8af
 1873 086d 05       		.uleb128 0x5
 1874 086e D3040000 		.4byte	.LASF35
 1875 0872 6F01     		.2byte	0x16f
 1876 0874 22       		.byte	0x22
 1877 0875 49030000 		.4byte	0x349
ARM GAS  C:\Users\DEVELO~1\AppData\Local\Temp\ccoH97es.s 			page 34


 1878 0879 00       		.byte	0
 1879 087a 05       		.uleb128 0x5
 1880 087b 62030000 		.4byte	.LASF117
 1881 087f 7501     		.2byte	0x175
 1882 0881 22       		.byte	0x22
 1883 0882 26080000 		.4byte	0x826
 1884 0886 04       		.byte	0x4
 1885 0887 05       		.uleb128 0x5
 1886 0888 A4090000 		.4byte	.LASF118
 1887 088c 7901     		.2byte	0x179
 1888 088e 22       		.byte	0x22
 1889 088f 26080000 		.4byte	0x826
 1890 0893 08       		.byte	0x8
 1891 0894 05       		.uleb128 0x5
 1892 0895 B7030000 		.4byte	.LASF119
 1893 0899 7F01     		.2byte	0x17f
 1894 089b 22       		.byte	0x22
 1895 089c 26080000 		.4byte	0x826
 1896 08a0 0C       		.byte	0xc
 1897 08a1 05       		.uleb128 0x5
 1898 08a2 010B0000 		.4byte	.LASF120
 1899 08a6 8301     		.2byte	0x183
 1900 08a8 22       		.byte	0x22
 1901 08a9 26080000 		.4byte	0x826
 1902 08ad 10       		.byte	0x10
 1903 08ae 00       		.byte	0
 1904 08af 1B       		.uleb128 0x1b
 1905 08b0 FC000000 		.4byte	.LASF121
 1906 08b4 8501     		.2byte	0x185
 1907 08b6 5F080000 		.4byte	0x85f
 1908 08ba 17       		.uleb128 0x17
 1909 08bb AF080000 		.4byte	0x8af
 1910 08bf 07       		.uleb128 0x7
 1911 08c0 BA080000 		.4byte	0x8ba
 1912 08c4 02       		.uleb128 0x2
 1913 08c5 72030000 		.4byte	.LASF122
 1914 08c9 0E       		.byte	0xe
 1915 08ca 34       		.byte	0x34
 1916 08cb 19       		.byte	0x19
 1917 08cc E7070000 		.4byte	0x7e7
 1918 08d0 07       		.uleb128 0x7
 1919 08d1 C4080000 		.4byte	0x8c4
 1920 08d5 08       		.uleb128 0x8
 1921 08d6 01       		.byte	0x1
 1922 08d7 02       		.byte	0x2
 1923 08d8 7F070000 		.4byte	.LASF123
 1924 08dc 17       		.uleb128 0x17
 1925 08dd D5080000 		.4byte	0x8d5
 1926 08e1 16       		.uleb128 0x16
 1927 08e2 DC080000 		.4byte	0x8dc
 1928 08e6 10       		.uleb128 0x10
 1929 08e7 55000000 		.4byte	0x55
 1930 08eb 15       		.byte	0x15
 1931 08ec 0F090000 		.4byte	0x90f
 1932 08f0 04       		.uleb128 0x4
 1933 08f1 06020000 		.4byte	.LASF124
 1934 08f5 00       		.byte	0
ARM GAS  C:\Users\DEVELO~1\AppData\Local\Temp\ccoH97es.s 			page 35


 1935 08f6 04       		.uleb128 0x4
 1936 08f7 3D070000 		.4byte	.LASF125
 1937 08fb 01       		.byte	0x1
 1938 08fc 04       		.uleb128 0x4
 1939 08fd E3060000 		.4byte	.LASF126
 1940 0901 02       		.byte	0x2
 1941 0902 04       		.uleb128 0x4
 1942 0903 EA050000 		.4byte	.LASF127
 1943 0907 03       		.byte	0x3
 1944 0908 04       		.uleb128 0x4
 1945 0909 2B0A0000 		.4byte	.LASF128
 1946 090d 04       		.byte	0x4
 1947 090e 00       		.byte	0
 1948 090f 02       		.uleb128 0x2
 1949 0910 DE070000 		.4byte	.LASF129
 1950 0914 0F       		.byte	0xf
 1951 0915 1B       		.byte	0x1b
 1952 0916 03       		.byte	0x3
 1953 0917 E6080000 		.4byte	0x8e6
 1954 091b 10       		.uleb128 0x10
 1955 091c 55000000 		.4byte	0x55
 1956 0920 20       		.byte	0x20
 1957 0921 4A090000 		.4byte	0x94a
 1958 0925 04       		.uleb128 0x4
 1959 0926 65090000 		.4byte	.LASF130
 1960 092a 00       		.byte	0
 1961 092b 04       		.uleb128 0x4
 1962 092c E4040000 		.4byte	.LASF131
 1963 0930 01       		.byte	0x1
 1964 0931 04       		.uleb128 0x4
 1965 0932 55070000 		.4byte	.LASF132
 1966 0936 02       		.byte	0x2
 1967 0937 04       		.uleb128 0x4
 1968 0938 77080000 		.4byte	.LASF133
 1969 093c 03       		.byte	0x3
 1970 093d 04       		.uleb128 0x4
 1971 093e B1010000 		.4byte	.LASF134
 1972 0942 04       		.byte	0x4
 1973 0943 04       		.uleb128 0x4
 1974 0944 7E010000 		.4byte	.LASF135
 1975 0948 05       		.byte	0x5
 1976 0949 00       		.byte	0
 1977 094a 02       		.uleb128 0x2
 1978 094b 86090000 		.4byte	.LASF136
 1979 094f 0F       		.byte	0xf
 1980 0950 27       		.byte	0x27
 1981 0951 03       		.byte	0x3
 1982 0952 1B090000 		.4byte	0x91b
 1983 0956 10       		.uleb128 0x10
 1984 0957 55000000 		.4byte	0x55
 1985 095b 30       		.byte	0x30
 1986 095c 7F090000 		.4byte	0x97f
 1987 0960 04       		.uleb128 0x4
 1988 0961 D1010000 		.4byte	.LASF137
 1989 0965 00       		.byte	0
 1990 0966 04       		.uleb128 0x4
 1991 0967 B3090000 		.4byte	.LASF138
ARM GAS  C:\Users\DEVELO~1\AppData\Local\Temp\ccoH97es.s 			page 36


 1992 096b 01       		.byte	0x1
 1993 096c 04       		.uleb128 0x4
 1994 096d 0E0A0000 		.4byte	.LASF139
 1995 0971 02       		.byte	0x2
 1996 0972 04       		.uleb128 0x4
 1997 0973 69060000 		.4byte	.LASF140
 1998 0977 03       		.byte	0x3
 1999 0978 04       		.uleb128 0x4
 2000 0979 94060000 		.4byte	.LASF141
 2001 097d 04       		.byte	0x4
 2002 097e 00       		.byte	0
 2003 097f 02       		.uleb128 0x2
 2004 0980 4B0A0000 		.4byte	.LASF142
 2005 0984 0F       		.byte	0xf
 2006 0985 36       		.byte	0x36
 2007 0986 03       		.byte	0x3
 2008 0987 56090000 		.4byte	0x956
 2009 098b 0C       		.uleb128 0xc
 2010 098c 14       		.byte	0x14
 2011 098d 0F       		.byte	0xf
 2012 098e 3B       		.byte	0x3b
 2013 098f 09       		.byte	0x9
 2014 0990 D5090000 		.4byte	0x9d5
 2015 0994 0B       		.uleb128 0xb
 2016 0995 696400   		.ascii	"id\000"
 2017 0998 0F       		.byte	0xf
 2018 0999 3C       		.byte	0x3c
 2019 099a 15       		.byte	0x15
 2020 099b 7F090000 		.4byte	0x97f
 2021 099f 00       		.byte	0
 2022 09a0 01       		.uleb128 0x1
 2023 09a1 D0050000 		.4byte	.LASF143
 2024 09a5 0F       		.byte	0xf
 2025 09a6 3D       		.byte	0x3d
 2026 09a7 0D       		.byte	0xd
 2027 09a8 FC000000 		.4byte	0xfc
 2028 09ac 04       		.byte	0x4
 2029 09ad 01       		.uleb128 0x1
 2030 09ae 45050000 		.4byte	.LASF144
 2031 09b2 0F       		.byte	0xf
 2032 09b3 3E       		.byte	0x3e
 2033 09b4 0C       		.byte	0xc
 2034 09b5 DF000000 		.4byte	0xdf
 2035 09b9 08       		.byte	0x8
 2036 09ba 01       		.uleb128 0x1
 2037 09bb 450A0000 		.4byte	.LASF38
 2038 09bf 0F       		.byte	0xf
 2039 09c0 3F       		.byte	0x3f
 2040 09c1 0C       		.byte	0xc
 2041 09c2 DF000000 		.4byte	0xdf
 2042 09c6 0C       		.byte	0xc
 2043 09c7 01       		.uleb128 0x1
 2044 09c8 940A0000 		.4byte	.LASF145
 2045 09cc 0F       		.byte	0xf
 2046 09cd 40       		.byte	0x40
 2047 09ce 0C       		.byte	0xc
 2048 09cf DF000000 		.4byte	0xdf
ARM GAS  C:\Users\DEVELO~1\AppData\Local\Temp\ccoH97es.s 			page 37


 2049 09d3 10       		.byte	0x10
 2050 09d4 00       		.byte	0
 2051 09d5 02       		.uleb128 0x2
 2052 09d6 55060000 		.4byte	.LASF146
 2053 09da 0F       		.byte	0xf
 2054 09db 41       		.byte	0x41
 2055 09dc 03       		.byte	0x3
 2056 09dd 8B090000 		.4byte	0x98b
 2057 09e1 10       		.uleb128 0x10
 2058 09e2 55000000 		.4byte	0x55
 2059 09e6 4E       		.byte	0x4e
 2060 09e7 FE090000 		.4byte	0x9fe
 2061 09eb 04       		.uleb128 0x4
 2062 09ec 38020000 		.4byte	.LASF147
 2063 09f0 00       		.byte	0
 2064 09f1 04       		.uleb128 0x4
 2065 09f2 0E040000 		.4byte	.LASF148
 2066 09f6 01       		.byte	0x1
 2067 09f7 04       		.uleb128 0x4
 2068 09f8 6D010000 		.4byte	.LASF149
 2069 09fc 02       		.byte	0x2
 2070 09fd 00       		.byte	0
 2071 09fe 02       		.uleb128 0x2
 2072 09ff F9060000 		.4byte	.LASF150
 2073 0a03 0F       		.byte	0xf
 2074 0a04 52       		.byte	0x52
 2075 0a05 03       		.byte	0x3
 2076 0a06 E1090000 		.4byte	0x9e1
 2077 0a0a 10       		.uleb128 0x10
 2078 0a0b 55000000 		.4byte	0x55
 2079 0a0f 57       		.byte	0x57
 2080 0a10 330A0000 		.4byte	0xa33
 2081 0a14 04       		.uleb128 0x4
 2082 0a15 51090000 		.4byte	.LASF151
 2083 0a19 00       		.byte	0
 2084 0a1a 04       		.uleb128 0x4
 2085 0a1b 00000000 		.4byte	.LASF152
 2086 0a1f 01       		.byte	0x1
 2087 0a20 04       		.uleb128 0x4
 2088 0a21 DE020000 		.4byte	.LASF153
 2089 0a25 02       		.byte	0x2
 2090 0a26 04       		.uleb128 0x4
 2091 0a27 23050000 		.4byte	.LASF154
 2092 0a2b 03       		.byte	0x3
 2093 0a2c 04       		.uleb128 0x4
 2094 0a2d 9B080000 		.4byte	.LASF155
 2095 0a31 04       		.byte	0x4
 2096 0a32 00       		.byte	0
 2097 0a33 02       		.uleb128 0x2
 2098 0a34 F0080000 		.4byte	.LASF156
 2099 0a38 0F       		.byte	0xf
 2100 0a39 5D       		.byte	0x5d
 2101 0a3a 03       		.byte	0x3
 2102 0a3b 0A0A0000 		.4byte	0xa0a
 2103 0a3f 10       		.uleb128 0x10
 2104 0a40 55000000 		.4byte	0x55
 2105 0a44 62       		.byte	0x62
ARM GAS  C:\Users\DEVELO~1\AppData\Local\Temp\ccoH97es.s 			page 38


 2106 0a45 560A0000 		.4byte	0xa56
 2107 0a49 04       		.uleb128 0x4
 2108 0a4a 4C030000 		.4byte	.LASF157
 2109 0a4e 00       		.byte	0
 2110 0a4f 04       		.uleb128 0x4
 2111 0a50 5F050000 		.4byte	.LASF158
 2112 0a54 01       		.byte	0x1
 2113 0a55 00       		.byte	0
 2114 0a56 02       		.uleb128 0x2
 2115 0a57 AD0A0000 		.4byte	.LASF159
 2116 0a5b 0F       		.byte	0xf
 2117 0a5c 65       		.byte	0x65
 2118 0a5d 03       		.byte	0x3
 2119 0a5e 3F0A0000 		.4byte	0xa3f
 2120 0a62 0C       		.uleb128 0xc
 2121 0a63 20       		.byte	0x20
 2122 0a64 0F       		.byte	0xf
 2123 0a65 6A       		.byte	0x6a
 2124 0a66 09       		.byte	0x9
 2125 0a67 E10A0000 		.4byte	0xae1
 2126 0a6b 01       		.uleb128 0x1
 2127 0a6c E2010000 		.4byte	.LASF160
 2128 0a70 0F       		.byte	0xf
 2129 0a71 6B       		.byte	0x6b
 2130 0a72 17       		.byte	0x17
 2131 0a73 FE090000 		.4byte	0x9fe
 2132 0a77 00       		.byte	0
 2133 0a78 01       		.uleb128 0x1
 2134 0a79 C7030000 		.4byte	.LASF161
 2135 0a7d 0F       		.byte	0xf
 2136 0a7e 6C       		.byte	0x6c
 2137 0a7f 0C       		.byte	0xc
 2138 0a80 DF000000 		.4byte	0xdf
 2139 0a84 04       		.byte	0x4
 2140 0a85 01       		.uleb128 0x1
 2141 0a86 0F060000 		.4byte	.LASF162
 2142 0a8a 0F       		.byte	0xf
 2143 0a8b 6D       		.byte	0x6d
 2144 0a8c 0C       		.byte	0xc
 2145 0a8d DF000000 		.4byte	0xdf
 2146 0a91 08       		.byte	0x8
 2147 0a92 01       		.uleb128 0x1
 2148 0a93 1F0B0000 		.4byte	.LASF163
 2149 0a97 0F       		.byte	0xf
 2150 0a98 6E       		.byte	0x6e
 2151 0a99 0C       		.byte	0xc
 2152 0a9a DF000000 		.4byte	0xdf
 2153 0a9e 0C       		.byte	0xc
 2154 0a9f 01       		.uleb128 0x1
 2155 0aa0 D2090000 		.4byte	.LASF164
 2156 0aa4 0F       		.byte	0xf
 2157 0aa5 6F       		.byte	0x6f
 2158 0aa6 0D       		.byte	0xd
 2159 0aa7 FC000000 		.4byte	0xfc
 2160 0aab 10       		.byte	0x10
 2161 0aac 01       		.uleb128 0x1
 2162 0aad 8E010000 		.4byte	.LASF165
ARM GAS  C:\Users\DEVELO~1\AppData\Local\Temp\ccoH97es.s 			page 39


 2163 0ab1 0F       		.byte	0xf
 2164 0ab2 70       		.byte	0x70
 2165 0ab3 16       		.byte	0x16
 2166 0ab4 330A0000 		.4byte	0xa33
 2167 0ab8 14       		.byte	0x14
 2168 0ab9 01       		.uleb128 0x1
 2169 0aba 5D0A0000 		.4byte	.LASF166
 2170 0abe 0F       		.byte	0xf
 2171 0abf 71       		.byte	0x71
 2172 0ac0 0C       		.byte	0xc
 2173 0ac1 C7000000 		.4byte	0xc7
 2174 0ac5 16       		.byte	0x16
 2175 0ac6 01       		.uleb128 0x1
 2176 0ac7 F3070000 		.4byte	.LASF167
 2177 0acb 0F       		.byte	0xf
 2178 0acc 72       		.byte	0x72
 2179 0acd 0D       		.byte	0xd
 2180 0ace 6B030000 		.4byte	0x36b
 2181 0ad2 18       		.byte	0x18
 2182 0ad3 01       		.uleb128 0x1
 2183 0ad4 4C080000 		.4byte	.LASF168
 2184 0ad8 0F       		.byte	0xf
 2185 0ad9 73       		.byte	0x73
 2186 0ada 0D       		.byte	0xd
 2187 0adb 6B030000 		.4byte	0x36b
 2188 0adf 1C       		.byte	0x1c
 2189 0ae0 00       		.byte	0
 2190 0ae1 02       		.uleb128 0x2
 2191 0ae2 30030000 		.4byte	.LASF169
 2192 0ae6 0F       		.byte	0xf
 2193 0ae7 74       		.byte	0x74
 2194 0ae8 03       		.byte	0x3
 2195 0ae9 620A0000 		.4byte	0xa62
 2196 0aed 0C       		.uleb128 0xc
 2197 0aee 24       		.byte	0x24
 2198 0aef 10       		.byte	0x10
 2199 0af0 15       		.byte	0x15
 2200 0af1 09       		.byte	0x9
 2201 0af2 2B0B0000 		.4byte	0xb2b
 2202 0af6 01       		.uleb128 0x1
 2203 0af7 5D020000 		.4byte	.LASF37
 2204 0afb 10       		.byte	0x10
 2205 0afc 16       		.byte	0x16
 2206 0afd 11       		.byte	0x11
 2207 0afe 0F090000 		.4byte	0x90f
 2208 0b02 00       		.byte	0
 2209 0b03 01       		.uleb128 0x1
 2210 0b04 1B080000 		.4byte	.LASF170
 2211 0b08 10       		.byte	0x10
 2212 0b09 17       		.byte	0x17
 2213 0b0a 11       		.byte	0x11
 2214 0b0b 4A090000 		.4byte	0x94a
 2215 0b0f 01       		.byte	0x1
 2216 0b10 01       		.uleb128 0x1
 2217 0b11 C5090000 		.4byte	.LASF171
 2218 0b15 10       		.byte	0x10
 2219 0b16 18       		.byte	0x18
ARM GAS  C:\Users\DEVELO~1\AppData\Local\Temp\ccoH97es.s 			page 40


 2220 0b17 08       		.byte	0x8
 2221 0b18 D5080000 		.4byte	0x8d5
 2222 0b1c 02       		.byte	0x2
 2223 0b1d 01       		.uleb128 0x1
 2224 0b1e EF090000 		.4byte	.LASF172
 2225 0b22 10       		.byte	0x10
 2226 0b23 19       		.byte	0x19
 2227 0b24 17       		.byte	0x17
 2228 0b25 E10A0000 		.4byte	0xae1
 2229 0b29 04       		.byte	0x4
 2230 0b2a 00       		.byte	0
 2231 0b2b 02       		.uleb128 0x2
 2232 0b2c E10A0000 		.4byte	.LASF173
 2233 0b30 10       		.byte	0x10
 2234 0b31 1A       		.byte	0x1a
 2235 0b32 03       		.byte	0x3
 2236 0b33 ED0A0000 		.4byte	0xaed
 2237 0b37 0C       		.uleb128 0xc
 2238 0b38 30       		.byte	0x30
 2239 0b39 10       		.byte	0x10
 2240 0b3a 1F       		.byte	0x1f
 2241 0b3b 09       		.byte	0x9
 2242 0b3c 820B0000 		.4byte	0xb82
 2243 0b40 01       		.uleb128 0x1
 2244 0b41 72080000 		.4byte	.LASF174
 2245 0b45 10       		.byte	0x10
 2246 0b46 20       		.byte	0x20
 2247 0b47 15       		.byte	0x15
 2248 0b48 560A0000 		.4byte	0xa56
 2249 0b4c 00       		.byte	0
 2250 0b4d 01       		.uleb128 0x1
 2251 0b4e 9F010000 		.4byte	.LASF175
 2252 0b52 10       		.byte	0x10
 2253 0b53 21       		.byte	0x21
 2254 0b54 0C       		.byte	0xc
 2255 0b55 DF000000 		.4byte	0xdf
 2256 0b59 04       		.byte	0x4
 2257 0b5a 01       		.uleb128 0x1
 2258 0b5b 7A030000 		.4byte	.LASF176
 2259 0b5f 10       		.byte	0x10
 2260 0b60 22       		.byte	0x22
 2261 0b61 0C       		.byte	0xc
 2262 0b62 DF000000 		.4byte	0xdf
 2263 0b66 08       		.byte	0x8
 2264 0b67 01       		.uleb128 0x1
 2265 0b68 180B0000 		.4byte	.LASF177
 2266 0b6c 10       		.byte	0x10
 2267 0b6d 23       		.byte	0x23
 2268 0b6e 17       		.byte	0x17
 2269 0b6f E10A0000 		.4byte	0xae1
 2270 0b73 0C       		.byte	0xc
 2271 0b74 01       		.uleb128 0x1
 2272 0b75 A8050000 		.4byte	.LASF178
 2273 0b79 10       		.byte	0x10
 2274 0b7a 24       		.byte	0x24
 2275 0b7b 18       		.byte	0x18
 2276 0b7c 820B0000 		.4byte	0xb82
ARM GAS  C:\Users\DEVELO~1\AppData\Local\Temp\ccoH97es.s 			page 41


 2277 0b80 2C       		.byte	0x2c
 2278 0b81 00       		.byte	0
 2279 0b82 07       		.uleb128 0x7
 2280 0b83 E1080000 		.4byte	0x8e1
 2281 0b87 02       		.uleb128 0x2
 2282 0b88 BF0A0000 		.4byte	.LASF179
 2283 0b8c 10       		.byte	0x10
 2284 0b8d 25       		.byte	0x25
 2285 0b8e 03       		.byte	0x3
 2286 0b8f 370B0000 		.4byte	0xb37
 2287 0b93 2A       		.uleb128 0x2a
 2288 0b94 20010000 		.4byte	.LASF180
 2289 0b98 10       		.byte	0x10
 2290 0b99 3E       		.byte	0x3e
 2291 0b9a 1B       		.byte	0x1b
 2292 0b9b 2B0B0000 		.4byte	0xb2b
 2293 0b9f 2B       		.uleb128 0x2b
 2294 0ba0 930B0000 		.4byte	0xb93
 2295 0ba4 01       		.byte	0x1
 2296 0ba5 09       		.byte	0x9
 2297 0ba6 14       		.byte	0x14
 2298 0ba7 05       		.uleb128 0x5
 2299 0ba8 03       		.byte	0x3
 2300 0ba9 00000000 		.4byte	sdram_ctx
 2301 0bad 2C       		.uleb128 0x2c
 2302 0bae FB020000 		.4byte	.LASF181
 2303 0bb2 01       		.byte	0x1
 2304 0bb3 10       		.byte	0x10
 2305 0bb4 01       		.byte	0x1
 2306 0bb5 C4080000 		.4byte	0x8c4
 2307 0bb9 05       		.uleb128 0x5
 2308 0bba 03       		.byte	0x3
 2309 0bbb 00000000 		.4byte	sdram_ctx_mtx
 2310 0bbf 1C       		.uleb128 0x1c
 2311 0bc0 3F000000 		.4byte	.LASF182
 2312 0bc4 34       		.byte	0x34
 2313 0bc5 D5080000 		.4byte	0x8d5
 2314 0bc9 D80B0000 		.4byte	0xbd8
 2315 0bcd 11       		.uleb128 0x11
 2316 0bce 7F090000 		.4byte	0x97f
 2317 0bd2 11       		.uleb128 0x11
 2318 0bd3 D80B0000 		.4byte	0xbd8
 2319 0bd7 00       		.byte	0
 2320 0bd8 07       		.uleb128 0x7
 2321 0bd9 D5090000 		.4byte	0x9d5
 2322 0bdd 1C       		.uleb128 0x1c
 2323 0bde C1020000 		.4byte	.LASF183
 2324 0be2 39       		.byte	0x39
 2325 0be3 D5080000 		.4byte	0x8d5
 2326 0be7 F10B0000 		.4byte	0xbf1
 2327 0beb 11       		.uleb128 0x11
 2328 0bec F10B0000 		.4byte	0xbf1
 2329 0bf0 00       		.byte	0
 2330 0bf1 07       		.uleb128 0x7
 2331 0bf2 870B0000 		.4byte	0xb87
 2332 0bf6 2D       		.uleb128 0x2d
 2333 0bf7 09030000 		.4byte	.LASF207
ARM GAS  C:\Users\DEVELO~1\AppData\Local\Temp\ccoH97es.s 			page 42


 2334 0bfb 10       		.byte	0x10
 2335 0bfc 2D       		.byte	0x2d
 2336 0bfd 06       		.byte	0x6
 2337 0bfe D5080000 		.4byte	0x8d5
 2338 0c02 1D       		.uleb128 0x1d
 2339 0c03 C5010000 		.4byte	.LASF184
 2340 0c07 6B       		.byte	0x6b
 2341 0c08 120C0000 		.4byte	0xc12
 2342 0c0c 11       		.uleb128 0x11
 2343 0c0d D0080000 		.4byte	0x8d0
 2344 0c11 00       		.byte	0
 2345 0c12 1D       		.uleb128 0x1d
 2346 0c13 45060000 		.4byte	.LASF185
 2347 0c17 67       		.byte	0x67
 2348 0c18 220C0000 		.4byte	0xc22
 2349 0c1c 11       		.uleb128 0x11
 2350 0c1d D0080000 		.4byte	0x8d0
 2351 0c21 00       		.byte	0
 2352 0c22 12       		.uleb128 0x12
 2353 0c23 F5010000 		.4byte	.LASF188
 2354 0c27 A0       		.byte	0xa0
 2355 0c28 06       		.byte	0x6
 2356 0c29 D5080000 		.4byte	0x8d5
 2357 0c2d 00000000 		.4byte	.LFB439
 2358 0c31 50000000 		.4byte	.LFE439-.LFB439
 2359 0c35 01       		.uleb128 0x1
 2360 0c36 9C       		.byte	0x9c
 2361 0c37 ED0C0000 		.4byte	0xced
 2362 0c3b 13       		.uleb128 0x13
 2363 0c3c BB080000 		.4byte	.LASF186
 2364 0c40 A0       		.byte	0xa0
 2365 0c41 29       		.byte	0x29
 2366 0c42 7F090000 		.4byte	0x97f
 2367 0c46 14000000 		.4byte	.LLST11
 2368 0c4a 0C000000 		.4byte	.LVUS11
 2369 0c4e 13       		.uleb128 0x13
 2370 0c4f C1070000 		.4byte	.LASF187
 2371 0c53 A0       		.byte	0xa0
 2372 0c54 49       		.byte	0x49
 2373 0c55 D80B0000 		.4byte	0xbd8
 2374 0c59 3A000000 		.4byte	.LLST12
 2375 0c5d 34000000 		.4byte	.LVUS12
 2376 0c61 0D       		.uleb128 0xd
 2377 0c62 5D020000 		.4byte	.LASF37
 2378 0c66 A6       		.byte	0xa6
 2379 0c67 11       		.byte	0x11
 2380 0c68 0F090000 		.4byte	0x90f
 2381 0c6c 53000000 		.4byte	.LLST13
 2382 0c70 4F000000 		.4byte	.LVUS13
 2383 0c74 0D       		.uleb128 0xd
 2384 0c75 C5090000 		.4byte	.LASF171
 2385 0c79 A7       		.byte	0xa7
 2386 0c7a 08       		.byte	0x8
 2387 0c7b D5080000 		.4byte	0x8d5
 2388 0c7f 6B000000 		.4byte	.LLST14
 2389 0c83 67000000 		.4byte	.LVUS14
 2390 0c87 1E       		.uleb128 0x1e
ARM GAS  C:\Users\DEVELO~1\AppData\Local\Temp\ccoH97es.s 			page 43


 2391 0c88 AB100000 		.4byte	0x10ab
 2392 0c8c 30000000 		.4byte	.LBI14
 2393 0c90 01       		.byte	.LVU199
 2394 0c91 18000000 		.4byte	.LLRL15
 2395 0c95 AB       		.byte	0xab
 2396 0c96 A80C0000 		.4byte	0xca8
 2397 0c9a 1F       		.uleb128 0x1f
 2398 0c9b B5100000 		.4byte	0x10b5
 2399 0c9f 81000000 		.4byte	.LLST16
 2400 0ca3 7F000000 		.4byte	.LVUS16
 2401 0ca7 00       		.byte	0
 2402 0ca8 06       		.uleb128 0x6
 2403 0ca9 0E000000 		.4byte	.LVL47
 2404 0cad 120C0000 		.4byte	0xc12
 2405 0cb1 BF0C0000 		.4byte	0xcbf
 2406 0cb5 03       		.uleb128 0x3
 2407 0cb6 01       		.uleb128 0x1
 2408 0cb7 50       		.byte	0x50
 2409 0cb8 05       		.uleb128 0x5
 2410 0cb9 03       		.byte	0x3
 2411 0cba 00000000 		.4byte	.LANCHOR0
 2412 0cbe 00       		.byte	0
 2413 0cbf 06       		.uleb128 0x6
 2414 0cc0 1A000000 		.4byte	.LVL50
 2415 0cc4 020C0000 		.4byte	0xc02
 2416 0cc8 D60C0000 		.4byte	0xcd6
 2417 0ccc 03       		.uleb128 0x3
 2418 0ccd 01       		.uleb128 0x1
 2419 0cce 50       		.byte	0x50
 2420 0ccf 05       		.uleb128 0x5
 2421 0cd0 03       		.byte	0x3
 2422 0cd1 00000000 		.4byte	.LANCHOR0
 2423 0cd5 00       		.byte	0
 2424 0cd6 14       		.uleb128 0x14
 2425 0cd7 2C000000 		.4byte	.LVL51
 2426 0cdb BF0B0000 		.4byte	0xbbf
 2427 0cdf 03       		.uleb128 0x3
 2428 0ce0 01       		.uleb128 0x1
 2429 0ce1 50       		.byte	0x50
 2430 0ce2 02       		.uleb128 0x2
 2431 0ce3 75       		.byte	0x75
 2432 0ce4 00       		.sleb128 0
 2433 0ce5 03       		.uleb128 0x3
 2434 0ce6 01       		.uleb128 0x1
 2435 0ce7 51       		.byte	0x51
 2436 0ce8 02       		.uleb128 0x2
 2437 0ce9 74       		.byte	0x74
 2438 0cea 00       		.sleb128 0
 2439 0ceb 00       		.byte	0
 2440 0cec 00       		.byte	0
 2441 0ced 12       		.uleb128 0x12
 2442 0cee 11010000 		.4byte	.LASF189
 2443 0cf2 6E       		.byte	0x6e
 2444 0cf3 06       		.byte	0x6
 2445 0cf4 D5080000 		.4byte	0x8d5
 2446 0cf8 00000000 		.4byte	.LFB438
 2447 0cfc D0000000 		.4byte	.LFE438-.LFB438
ARM GAS  C:\Users\DEVELO~1\AppData\Local\Temp\ccoH97es.s 			page 44


 2448 0d00 01       		.uleb128 0x1
 2449 0d01 9C       		.byte	0x9c
 2450 0d02 060E0000 		.4byte	0xe06
 2451 0d06 13       		.uleb128 0x13
 2452 0d07 72080000 		.4byte	.LASF174
 2453 0d0b 6E       		.byte	0x6e
 2454 0d0c 27       		.byte	0x27
 2455 0d0d 560A0000 		.4byte	0xa56
 2456 0d11 8E000000 		.4byte	.LLST7
 2457 0d15 8A000000 		.4byte	.LVUS7
 2458 0d19 13       		.uleb128 0x13
 2459 0d1a 40010000 		.4byte	.LASF190
 2460 0d1e 6E       		.byte	0x6e
 2461 0d1f 42       		.byte	0x42
 2462 0d20 060E0000 		.4byte	0xe06
 2463 0d24 A6000000 		.4byte	.LLST8
 2464 0d28 A2000000 		.4byte	.LVUS8
 2465 0d2c 0D       		.uleb128 0xd
 2466 0d2d E9010000 		.4byte	.LASF191
 2467 0d31 6F       		.byte	0x6f
 2468 0d32 11       		.byte	0x11
 2469 0d33 0F090000 		.4byte	0x90f
 2470 0d37 B9000000 		.4byte	.LLST9
 2471 0d3b B7000000 		.4byte	.LVUS9
 2472 0d3f 2E       		.uleb128 0x2e
 2473 0d40 63747800 		.ascii	"ctx\000"
 2474 0d44 01       		.byte	0x1
 2475 0d45 7C       		.byte	0x7c
 2476 0d46 18       		.byte	0x18
 2477 0d47 870B0000 		.4byte	0xb87
 2478 0d4b 03       		.uleb128 0x3
 2479 0d4c 91       		.byte	0x91
 2480 0d4d B07F     		.sleb128 -80
 2481 0d4f 0D       		.uleb128 0xd
 2482 0d50 F40A0000 		.4byte	.LASF192
 2483 0d54 80       		.byte	0x80
 2484 0d55 08       		.byte	0x8
 2485 0d56 D5080000 		.4byte	0x8d5
 2486 0d5a C5000000 		.4byte	.LLST10
 2487 0d5e C3000000 		.4byte	.LVUS10
 2488 0d62 06       		.uleb128 0x6
 2489 0d63 12000000 		.4byte	.LVL34
 2490 0d67 120C0000 		.4byte	0xc12
 2491 0d6b 790D0000 		.4byte	0xd79
 2492 0d6f 03       		.uleb128 0x3
 2493 0d70 01       		.uleb128 0x1
 2494 0d71 50       		.byte	0x50
 2495 0d72 05       		.uleb128 0x5
 2496 0d73 03       		.byte	0x3
 2497 0d74 00000000 		.4byte	.LANCHOR0
 2498 0d78 00       		.byte	0
 2499 0d79 06       		.uleb128 0x6
 2500 0d7a 2E000000 		.4byte	.LVL36
 2501 0d7e 020C0000 		.4byte	0xc02
 2502 0d82 900D0000 		.4byte	0xd90
 2503 0d86 03       		.uleb128 0x3
 2504 0d87 01       		.uleb128 0x1
ARM GAS  C:\Users\DEVELO~1\AppData\Local\Temp\ccoH97es.s 			page 45


 2505 0d88 50       		.byte	0x50
 2506 0d89 05       		.uleb128 0x5
 2507 0d8a 03       		.byte	0x3
 2508 0d8b 00000000 		.4byte	.LANCHOR0
 2509 0d8f 00       		.byte	0
 2510 0d90 06       		.uleb128 0x6
 2511 0d91 40000000 		.4byte	.LVL38
 2512 0d95 020C0000 		.4byte	0xc02
 2513 0d99 A70D0000 		.4byte	0xda7
 2514 0d9d 03       		.uleb128 0x3
 2515 0d9e 01       		.uleb128 0x1
 2516 0d9f 50       		.byte	0x50
 2517 0da0 05       		.uleb128 0x5
 2518 0da1 03       		.byte	0x3
 2519 0da2 00000000 		.4byte	.LANCHOR0
 2520 0da6 00       		.byte	0
 2521 0da7 06       		.uleb128 0x6
 2522 0da8 4A000000 		.4byte	.LVL39
 2523 0dac D7100000 		.4byte	0x10d7
 2524 0db0 C70D0000 		.4byte	0xdc7
 2525 0db4 03       		.uleb128 0x3
 2526 0db5 01       		.uleb128 0x1
 2527 0db6 50       		.byte	0x50
 2528 0db7 02       		.uleb128 0x2
 2529 0db8 7D       		.byte	0x7d
 2530 0db9 00       		.sleb128 0
 2531 0dba 03       		.uleb128 0x3
 2532 0dbb 01       		.uleb128 0x1
 2533 0dbc 51       		.byte	0x51
 2534 0dbd 02       		.uleb128 0x2
 2535 0dbe 78       		.byte	0x78
 2536 0dbf 00       		.sleb128 0
 2537 0dc0 03       		.uleb128 0x3
 2538 0dc1 01       		.uleb128 0x1
 2539 0dc2 52       		.byte	0x52
 2540 0dc3 02       		.uleb128 0x2
 2541 0dc4 08       		.byte	0x8
 2542 0dc5 30       		.byte	0x30
 2543 0dc6 00       		.byte	0
 2544 0dc7 06       		.uleb128 0x6
 2545 0dc8 54000000 		.4byte	.LVL40
 2546 0dcc DD0B0000 		.4byte	0xbdd
 2547 0dd0 DB0D0000 		.4byte	0xddb
 2548 0dd4 03       		.uleb128 0x3
 2549 0dd5 01       		.uleb128 0x1
 2550 0dd6 50       		.byte	0x50
 2551 0dd7 02       		.uleb128 0x2
 2552 0dd8 7D       		.byte	0x7d
 2553 0dd9 00       		.sleb128 0
 2554 0dda 00       		.byte	0
 2555 0ddb 06       		.uleb128 0x6
 2556 0ddc 5C000000 		.4byte	.LVL42
 2557 0de0 120C0000 		.4byte	0xc12
 2558 0de4 F20D0000 		.4byte	0xdf2
 2559 0de8 03       		.uleb128 0x3
 2560 0de9 01       		.uleb128 0x1
 2561 0dea 50       		.byte	0x50
ARM GAS  C:\Users\DEVELO~1\AppData\Local\Temp\ccoH97es.s 			page 46


 2562 0deb 05       		.uleb128 0x5
 2563 0dec 03       		.byte	0x3
 2564 0ded 00000000 		.4byte	.LANCHOR0
 2565 0df1 00       		.byte	0
 2566 0df2 14       		.uleb128 0x14
 2567 0df3 AC000000 		.4byte	.LVL43
 2568 0df7 020C0000 		.4byte	0xc02
 2569 0dfb 03       		.uleb128 0x3
 2570 0dfc 01       		.uleb128 0x1
 2571 0dfd 50       		.byte	0x50
 2572 0dfe 05       		.uleb128 0x5
 2573 0dff 03       		.byte	0x3
 2574 0e00 00000000 		.4byte	.LANCHOR0
 2575 0e04 00       		.byte	0
 2576 0e05 00       		.byte	0
 2577 0e06 07       		.uleb128 0x7
 2578 0e07 E10A0000 		.4byte	0xae1
 2579 0e0b 12       		.uleb128 0x12
 2580 0e0c 710A0000 		.4byte	.LASF193
 2581 0e10 67       		.byte	0x67
 2582 0e11 0F       		.byte	0xf
 2583 0e12 4A090000 		.4byte	0x94a
 2584 0e16 00000000 		.4byte	.LFB437
 2585 0e1a 20000000 		.4byte	.LFE437-.LFB437
 2586 0e1e 01       		.uleb128 0x1
 2587 0e1f 9C       		.byte	0x9c
 2588 0e20 5F0E0000 		.4byte	0xe5f
 2589 0e24 0D       		.uleb128 0xd
 2590 0e25 20070000 		.4byte	.LASF194
 2591 0e29 69       		.byte	0x69
 2592 0e2a 11       		.byte	0x11
 2593 0e2b 4A090000 		.4byte	0x94a
 2594 0e2f D4000000 		.4byte	.LLST6
 2595 0e33 CE000000 		.4byte	.LVUS6
 2596 0e37 06       		.uleb128 0x6
 2597 0e38 0A000000 		.4byte	.LVL28
 2598 0e3c 120C0000 		.4byte	0xc12
 2599 0e40 4B0E0000 		.4byte	0xe4b
 2600 0e44 03       		.uleb128 0x3
 2601 0e45 01       		.uleb128 0x1
 2602 0e46 50       		.byte	0x50
 2603 0e47 02       		.uleb128 0x2
 2604 0e48 74       		.byte	0x74
 2605 0e49 00       		.sleb128 0
 2606 0e4a 00       		.byte	0
 2607 0e4b 14       		.uleb128 0x14
 2608 0e4c 14000000 		.4byte	.LVL30
 2609 0e50 020C0000 		.4byte	0xc02
 2610 0e54 03       		.uleb128 0x3
 2611 0e55 01       		.uleb128 0x1
 2612 0e56 50       		.byte	0x50
 2613 0e57 05       		.uleb128 0x5
 2614 0e58 03       		.byte	0x3
 2615 0e59 00000000 		.4byte	.LANCHOR0
 2616 0e5d 00       		.byte	0
 2617 0e5e 00       		.byte	0
 2618 0e5f 12       		.uleb128 0x12
ARM GAS  C:\Users\DEVELO~1\AppData\Local\Temp\ccoH97es.s 			page 47


 2619 0e60 7E060000 		.4byte	.LASF195
 2620 0e64 60       		.byte	0x60
 2621 0e65 0F       		.byte	0xf
 2622 0e66 0F090000 		.4byte	0x90f
 2623 0e6a 00000000 		.4byte	.LFB436
 2624 0e6e 20000000 		.4byte	.LFE436-.LFB436
 2625 0e72 01       		.uleb128 0x1
 2626 0e73 9C       		.byte	0x9c
 2627 0e74 B30E0000 		.4byte	0xeb3
 2628 0e78 0D       		.uleb128 0xd
 2629 0e79 5D020000 		.4byte	.LASF37
 2630 0e7d 62       		.byte	0x62
 2631 0e7e 11       		.byte	0x11
 2632 0e7f 0F090000 		.4byte	0x90f
 2633 0e83 F3000000 		.4byte	.LLST5
 2634 0e87 ED000000 		.4byte	.LVUS5
 2635 0e8b 06       		.uleb128 0x6
 2636 0e8c 0A000000 		.4byte	.LVL24
 2637 0e90 120C0000 		.4byte	0xc12
 2638 0e94 9F0E0000 		.4byte	0xe9f
 2639 0e98 03       		.uleb128 0x3
 2640 0e99 01       		.uleb128 0x1
 2641 0e9a 50       		.byte	0x50
 2642 0e9b 02       		.uleb128 0x2
 2643 0e9c 74       		.byte	0x74
 2644 0e9d 00       		.sleb128 0
 2645 0e9e 00       		.byte	0
 2646 0e9f 14       		.uleb128 0x14
 2647 0ea0 14000000 		.4byte	.LVL26
 2648 0ea4 020C0000 		.4byte	0xc02
 2649 0ea8 03       		.uleb128 0x3
 2650 0ea9 01       		.uleb128 0x1
 2651 0eaa 50       		.byte	0x50
 2652 0eab 05       		.uleb128 0x5
 2653 0eac 03       		.byte	0x3
 2654 0ead 00000000 		.4byte	.LANCHOR0
 2655 0eb1 00       		.byte	0
 2656 0eb2 00       		.byte	0
 2657 0eb3 12       		.uleb128 0x12
 2658 0eb4 48020000 		.4byte	.LASF196
 2659 0eb8 59       		.byte	0x59
 2660 0eb9 06       		.byte	0x6
 2661 0eba D5080000 		.4byte	0x8d5
 2662 0ebe 00000000 		.4byte	.LFB435
 2663 0ec2 28000000 		.4byte	.LFE435-.LFB435
 2664 0ec6 01       		.uleb128 0x1
 2665 0ec7 9C       		.byte	0x9c
 2666 0ec8 070F0000 		.4byte	0xf07
 2667 0ecc 0D       		.uleb128 0xd
 2668 0ecd 95030000 		.4byte	.LASF197
 2669 0ed1 5B       		.byte	0x5b
 2670 0ed2 08       		.byte	0x8
 2671 0ed3 D5080000 		.4byte	0x8d5
 2672 0ed7 10010000 		.4byte	.LLST4
 2673 0edb 0C010000 		.4byte	.LVUS4
 2674 0edf 06       		.uleb128 0x6
 2675 0ee0 0A000000 		.4byte	.LVL20
ARM GAS  C:\Users\DEVELO~1\AppData\Local\Temp\ccoH97es.s 			page 48


 2676 0ee4 120C0000 		.4byte	0xc12
 2677 0ee8 F30E0000 		.4byte	0xef3
 2678 0eec 03       		.uleb128 0x3
 2679 0eed 01       		.uleb128 0x1
 2680 0eee 50       		.byte	0x50
 2681 0eef 02       		.uleb128 0x2
 2682 0ef0 74       		.byte	0x74
 2683 0ef1 00       		.sleb128 0
 2684 0ef2 00       		.byte	0
 2685 0ef3 14       		.uleb128 0x14
 2686 0ef4 1A000000 		.4byte	.LVL22
 2687 0ef8 020C0000 		.4byte	0xc02
 2688 0efc 03       		.uleb128 0x3
 2689 0efd 01       		.uleb128 0x1
 2690 0efe 50       		.byte	0x50
 2691 0eff 05       		.uleb128 0x5
 2692 0f00 03       		.byte	0x3
 2693 0f01 00000000 		.4byte	.LANCHOR0
 2694 0f05 00       		.byte	0
 2695 0f06 00       		.byte	0
 2696 0f07 2F       		.uleb128 0x2f
 2697 0f08 63020000 		.4byte	.LASF208
 2698 0f0c 01       		.byte	0x1
 2699 0f0d 23       		.byte	0x23
 2700 0f0e 06       		.byte	0x6
 2701 0f0f 00000000 		.4byte	.LFB434
 2702 0f13 CC000000 		.4byte	.LFE434-.LFB434
 2703 0f17 01       		.uleb128 0x1
 2704 0f18 9C       		.byte	0x9c
 2705 0f19 AB100000 		.4byte	0x10ab
 2706 0f1d 13       		.uleb128 0x13
 2707 0f1e 01050000 		.4byte	.LASF198
 2708 0f22 23       		.byte	0x23
 2709 0f23 16       		.byte	0x16
 2710 0f24 D5080000 		.4byte	0x8d5
 2711 0f28 24010000 		.4byte	.LLST0
 2712 0f2c 20010000 		.4byte	.LVUS0
 2713 0f30 30       		.uleb128 0x30
 2714 0f31 E6090000 		.4byte	.LASF199
 2715 0f35 01       		.byte	0x1
 2716 0f36 40       		.byte	0x40
 2717 0f37 18       		.byte	0x18
 2718 0f38 870B0000 		.4byte	0xb87
 2719 0f3c 03       		.uleb128 0x3
 2720 0f3d 91       		.byte	0x91
 2721 0f3e B87F     		.sleb128 -72
 2722 0f40 0D       		.uleb128 0xd
 2723 0f41 E6000000 		.4byte	.LASF200
 2724 0f45 48       		.byte	0x48
 2725 0f46 08       		.byte	0x8
 2726 0f47 D5080000 		.4byte	0x8d5
 2727 0f4b 3C010000 		.4byte	.LLST1
 2728 0f4f 38010000 		.4byte	.LVUS1
 2729 0f53 1E       		.uleb128 0x1e
 2730 0f54 C1100000 		.4byte	0x10c1
 2731 0f58 B0000000 		.4byte	.LBI10
 2732 0f5c 01       		.byte	.LVU66
ARM GAS  C:\Users\DEVELO~1\AppData\Local\Temp\ccoH97es.s 			page 49


 2733 0f5d 0C000000 		.4byte	.LLRL2
 2734 0f61 33       		.byte	0x33
 2735 0f62 740F0000 		.4byte	0xf74
 2736 0f66 1F       		.uleb128 0x1f
 2737 0f67 CB100000 		.4byte	0x10cb
 2738 0f6b 4E010000 		.4byte	.LLST3
 2739 0f6f 4C010000 		.4byte	.LVUS3
 2740 0f73 00       		.byte	0
 2741 0f74 06       		.uleb128 0x6
 2742 0f75 0E000000 		.4byte	.LVL2
 2743 0f79 120C0000 		.4byte	0xc12
 2744 0f7d 8B0F0000 		.4byte	0xf8b
 2745 0f81 03       		.uleb128 0x3
 2746 0f82 01       		.uleb128 0x1
 2747 0f83 50       		.byte	0x50
 2748 0f84 05       		.uleb128 0x5
 2749 0f85 03       		.byte	0x3
 2750 0f86 00000000 		.4byte	.LANCHOR0
 2751 0f8a 00       		.byte	0
 2752 0f8b 06       		.uleb128 0x6
 2753 0f8c 1E000000 		.4byte	.LVL3
 2754 0f90 020C0000 		.4byte	0xc02
 2755 0f94 A20F0000 		.4byte	0xfa2
 2756 0f98 03       		.uleb128 0x3
 2757 0f99 01       		.uleb128 0x1
 2758 0f9a 50       		.byte	0x50
 2759 0f9b 05       		.uleb128 0x5
 2760 0f9c 03       		.byte	0x3
 2761 0f9d 00000000 		.4byte	.LANCHOR0
 2762 0fa1 00       		.byte	0
 2763 0fa2 31       		.uleb128 0x31
 2764 0fa3 22000000 		.4byte	.LVL4
 2765 0fa7 F60B0000 		.4byte	0xbf6
 2766 0fab 06       		.uleb128 0x6
 2767 0fac 32000000 		.4byte	.LVL5
 2768 0fb0 D7100000 		.4byte	0x10d7
 2769 0fb4 CB0F0000 		.4byte	0xfcb
 2770 0fb8 03       		.uleb128 0x3
 2771 0fb9 01       		.uleb128 0x1
 2772 0fba 50       		.byte	0x50
 2773 0fbb 02       		.uleb128 0x2
 2774 0fbc 7D       		.byte	0x7d
 2775 0fbd 00       		.sleb128 0
 2776 0fbe 03       		.uleb128 0x3
 2777 0fbf 01       		.uleb128 0x1
 2778 0fc0 51       		.byte	0x51
 2779 0fc1 02       		.uleb128 0x2
 2780 0fc2 76       		.byte	0x76
 2781 0fc3 00       		.sleb128 0
 2782 0fc4 03       		.uleb128 0x3
 2783 0fc5 01       		.uleb128 0x1
 2784 0fc6 52       		.byte	0x52
 2785 0fc7 02       		.uleb128 0x2
 2786 0fc8 08       		.byte	0x8
 2787 0fc9 30       		.byte	0x30
 2788 0fca 00       		.byte	0
 2789 0fcb 06       		.uleb128 0x6
ARM GAS  C:\Users\DEVELO~1\AppData\Local\Temp\ccoH97es.s 			page 50


 2790 0fcc 38000000 		.4byte	.LVL6
 2791 0fd0 120C0000 		.4byte	0xc12
 2792 0fd4 E20F0000 		.4byte	0xfe2
 2793 0fd8 03       		.uleb128 0x3
 2794 0fd9 01       		.uleb128 0x1
 2795 0fda 50       		.byte	0x50
 2796 0fdb 05       		.uleb128 0x5
 2797 0fdc 03       		.byte	0x3
 2798 0fdd 00000000 		.4byte	.LANCHOR0
 2799 0fe1 00       		.byte	0
 2800 0fe2 06       		.uleb128 0x6
 2801 0fe3 40000000 		.4byte	.LVL7
 2802 0fe7 020C0000 		.4byte	0xc02
 2803 0feb F90F0000 		.4byte	0xff9
 2804 0fef 03       		.uleb128 0x3
 2805 0ff0 01       		.uleb128 0x1
 2806 0ff1 50       		.byte	0x50
 2807 0ff2 05       		.uleb128 0x5
 2808 0ff3 03       		.byte	0x3
 2809 0ff4 00000000 		.4byte	.LANCHOR0
 2810 0ff8 00       		.byte	0
 2811 0ff9 06       		.uleb128 0x6
 2812 0ffa 46000000 		.4byte	.LVL8
 2813 0ffe DD0B0000 		.4byte	0xbdd
 2814 1002 0D100000 		.4byte	0x100d
 2815 1006 03       		.uleb128 0x3
 2816 1007 01       		.uleb128 0x1
 2817 1008 50       		.byte	0x50
 2818 1009 02       		.uleb128 0x2
 2819 100a 7D       		.byte	0x7d
 2820 100b 00       		.sleb128 0
 2821 100c 00       		.byte	0
 2822 100d 06       		.uleb128 0x6
 2823 100e 4E000000 		.4byte	.LVL10
 2824 1012 120C0000 		.4byte	0xc12
 2825 1016 24100000 		.4byte	0x1024
 2826 101a 03       		.uleb128 0x3
 2827 101b 01       		.uleb128 0x1
 2828 101c 50       		.byte	0x50
 2829 101d 05       		.uleb128 0x5
 2830 101e 03       		.byte	0x3
 2831 101f 00000000 		.4byte	.LANCHOR0
 2832 1023 00       		.byte	0
 2833 1024 06       		.uleb128 0x6
 2834 1025 78000000 		.4byte	.LVL11
 2835 1029 020C0000 		.4byte	0xc02
 2836 102d 3B100000 		.4byte	0x103b
 2837 1031 03       		.uleb128 0x3
 2838 1032 01       		.uleb128 0x1
 2839 1033 50       		.byte	0x50
 2840 1034 05       		.uleb128 0x5
 2841 1035 03       		.byte	0x3
 2842 1036 00000000 		.4byte	.LANCHOR0
 2843 103a 00       		.byte	0
 2844 103b 20       		.uleb128 0x20
 2845 103c 88000000 		.4byte	.LVL13
 2846 1040 020C0000 		.4byte	0xc02
ARM GAS  C:\Users\DEVELO~1\AppData\Local\Temp\ccoH97es.s 			page 51


 2847 1044 52100000 		.4byte	0x1052
 2848 1048 03       		.uleb128 0x3
 2849 1049 01       		.uleb128 0x1
 2850 104a 50       		.byte	0x50
 2851 104b 05       		.uleb128 0x5
 2852 104c 03       		.byte	0x3
 2853 104d 00000000 		.4byte	.LANCHOR0
 2854 1051 00       		.byte	0
 2855 1052 06       		.uleb128 0x6
 2856 1053 8E000000 		.4byte	.LVL14
 2857 1057 120C0000 		.4byte	0xc12
 2858 105b 69100000 		.4byte	0x1069
 2859 105f 03       		.uleb128 0x3
 2860 1060 01       		.uleb128 0x1
 2861 1061 50       		.byte	0x50
 2862 1062 05       		.uleb128 0x5
 2863 1063 03       		.byte	0x3
 2864 1064 00000000 		.4byte	.LANCHOR0
 2865 1068 00       		.byte	0
 2866 1069 20       		.uleb128 0x20
 2867 106a 9E000000 		.4byte	.LVL15
 2868 106e 020C0000 		.4byte	0xc02
 2869 1072 80100000 		.4byte	0x1080
 2870 1076 03       		.uleb128 0x3
 2871 1077 01       		.uleb128 0x1
 2872 1078 50       		.byte	0x50
 2873 1079 05       		.uleb128 0x5
 2874 107a 03       		.byte	0x3
 2875 107b 00000000 		.4byte	.LANCHOR0
 2876 107f 00       		.byte	0
 2877 1080 06       		.uleb128 0x6
 2878 1081 B0000000 		.4byte	.LVL17
 2879 1085 120C0000 		.4byte	0xc12
 2880 1089 97100000 		.4byte	0x1097
 2881 108d 03       		.uleb128 0x3
 2882 108e 01       		.uleb128 0x1
 2883 108f 50       		.byte	0x50
 2884 1090 05       		.uleb128 0x5
 2885 1091 03       		.byte	0x3
 2886 1092 00000000 		.4byte	.LANCHOR0
 2887 1096 00       		.byte	0
 2888 1097 32       		.uleb128 0x32
 2889 1098 C2000000 		.4byte	.LVL19
 2890 109c 020C0000 		.4byte	0xc02
 2891 10a0 03       		.uleb128 0x3
 2892 10a1 01       		.uleb128 0x1
 2893 10a2 50       		.byte	0x50
 2894 10a3 05       		.uleb128 0x5
 2895 10a4 03       		.byte	0x3
 2896 10a5 00000000 		.4byte	.LANCHOR0
 2897 10a9 00       		.byte	0
 2898 10aa 00       		.byte	0
 2899 10ab 21       		.uleb128 0x21
 2900 10ac 31090000 		.4byte	.LASF201
 2901 10b0 17       		.byte	0x17
 2902 10b1 C1100000 		.4byte	0x10c1
 2903 10b5 22       		.uleb128 0x22
ARM GAS  C:\Users\DEVELO~1\AppData\Local\Temp\ccoH97es.s 			page 52


 2904 10b6 AC070000 		.4byte	.LASF203
 2905 10ba 17       		.byte	0x17
 2906 10bb 3A       		.byte	0x3a
 2907 10bc D80B0000 		.4byte	0xbd8
 2908 10c0 00       		.byte	0
 2909 10c1 21       		.uleb128 0x21
 2910 10c2 CC060000 		.4byte	.LASF202
 2911 10c6 12       		.byte	0x12
 2912 10c7 D7100000 		.4byte	0x10d7
 2913 10cb 22       		.uleb128 0x22
 2914 10cc 20070000 		.4byte	.LASF194
 2915 10d0 12       		.byte	0x12
 2916 10d1 32       		.byte	0x32
 2917 10d2 4A090000 		.4byte	0x94a
 2918 10d6 00       		.byte	0
 2919 10d7 33       		.uleb128 0x33
 2920 10d8 000A0000 		.4byte	.LASF209
 2921 10dc 2A010000 		.4byte	.LASF210
 2922 10e0 11       		.byte	0x11
 2923 10e1 00       		.byte	0
 2924 10e2 00       		.byte	0
 2925              		.section	.debug_abbrev,"",%progbits
 2926              	.Ldebug_abbrev0:
 2927 0000 01       		.uleb128 0x1
 2928 0001 0D       		.uleb128 0xd
 2929 0002 00       		.byte	0
 2930 0003 03       		.uleb128 0x3
 2931 0004 0E       		.uleb128 0xe
 2932 0005 3A       		.uleb128 0x3a
 2933 0006 0B       		.uleb128 0xb
 2934 0007 3B       		.uleb128 0x3b
 2935 0008 0B       		.uleb128 0xb
 2936 0009 39       		.uleb128 0x39
 2937 000a 0B       		.uleb128 0xb
 2938 000b 49       		.uleb128 0x49
 2939 000c 13       		.uleb128 0x13
 2940 000d 38       		.uleb128 0x38
 2941 000e 0B       		.uleb128 0xb
 2942 000f 00       		.byte	0
 2943 0010 00       		.byte	0
 2944 0011 02       		.uleb128 0x2
 2945 0012 16       		.uleb128 0x16
 2946 0013 00       		.byte	0
 2947 0014 03       		.uleb128 0x3
 2948 0015 0E       		.uleb128 0xe
 2949 0016 3A       		.uleb128 0x3a
 2950 0017 0B       		.uleb128 0xb
 2951 0018 3B       		.uleb128 0x3b
 2952 0019 0B       		.uleb128 0xb
 2953 001a 39       		.uleb128 0x39
 2954 001b 0B       		.uleb128 0xb
 2955 001c 49       		.uleb128 0x49
 2956 001d 13       		.uleb128 0x13
 2957 001e 00       		.byte	0
 2958 001f 00       		.byte	0
 2959 0020 03       		.uleb128 0x3
 2960 0021 49       		.uleb128 0x49
ARM GAS  C:\Users\DEVELO~1\AppData\Local\Temp\ccoH97es.s 			page 53


 2961 0022 00       		.byte	0
 2962 0023 02       		.uleb128 0x2
 2963 0024 18       		.uleb128 0x18
 2964 0025 7E       		.uleb128 0x7e
 2965 0026 18       		.uleb128 0x18
 2966 0027 00       		.byte	0
 2967 0028 00       		.byte	0
 2968 0029 04       		.uleb128 0x4
 2969 002a 28       		.uleb128 0x28
 2970 002b 00       		.byte	0
 2971 002c 03       		.uleb128 0x3
 2972 002d 0E       		.uleb128 0xe
 2973 002e 1C       		.uleb128 0x1c
 2974 002f 0B       		.uleb128 0xb
 2975 0030 00       		.byte	0
 2976 0031 00       		.byte	0
 2977 0032 05       		.uleb128 0x5
 2978 0033 0D       		.uleb128 0xd
 2979 0034 00       		.byte	0
 2980 0035 03       		.uleb128 0x3
 2981 0036 0E       		.uleb128 0xe
 2982 0037 3A       		.uleb128 0x3a
 2983 0038 21       		.uleb128 0x21
 2984 0039 06       		.sleb128 6
 2985 003a 3B       		.uleb128 0x3b
 2986 003b 05       		.uleb128 0x5
 2987 003c 39       		.uleb128 0x39
 2988 003d 0B       		.uleb128 0xb
 2989 003e 49       		.uleb128 0x49
 2990 003f 13       		.uleb128 0x13
 2991 0040 38       		.uleb128 0x38
 2992 0041 0B       		.uleb128 0xb
 2993 0042 00       		.byte	0
 2994 0043 00       		.byte	0
 2995 0044 06       		.uleb128 0x6
 2996 0045 48       		.uleb128 0x48
 2997 0046 01       		.byte	0x1
 2998 0047 7D       		.uleb128 0x7d
 2999 0048 01       		.uleb128 0x1
 3000 0049 7F       		.uleb128 0x7f
 3001 004a 13       		.uleb128 0x13
 3002 004b 01       		.uleb128 0x1
 3003 004c 13       		.uleb128 0x13
 3004 004d 00       		.byte	0
 3005 004e 00       		.byte	0
 3006 004f 07       		.uleb128 0x7
 3007 0050 0F       		.uleb128 0xf
 3008 0051 00       		.byte	0
 3009 0052 0B       		.uleb128 0xb
 3010 0053 21       		.uleb128 0x21
 3011 0054 04       		.sleb128 4
 3012 0055 49       		.uleb128 0x49
 3013 0056 13       		.uleb128 0x13
 3014 0057 00       		.byte	0
 3015 0058 00       		.byte	0
 3016 0059 08       		.uleb128 0x8
 3017 005a 24       		.uleb128 0x24
ARM GAS  C:\Users\DEVELO~1\AppData\Local\Temp\ccoH97es.s 			page 54


 3018 005b 00       		.byte	0
 3019 005c 0B       		.uleb128 0xb
 3020 005d 0B       		.uleb128 0xb
 3021 005e 3E       		.uleb128 0x3e
 3022 005f 0B       		.uleb128 0xb
 3023 0060 03       		.uleb128 0x3
 3024 0061 0E       		.uleb128 0xe
 3025 0062 00       		.byte	0
 3026 0063 00       		.byte	0
 3027 0064 09       		.uleb128 0x9
 3028 0065 0D       		.uleb128 0xd
 3029 0066 00       		.byte	0
 3030 0067 03       		.uleb128 0x3
 3031 0068 08       		.uleb128 0x8
 3032 0069 3A       		.uleb128 0x3a
 3033 006a 0B       		.uleb128 0xb
 3034 006b 3B       		.uleb128 0x3b
 3035 006c 05       		.uleb128 0x5
 3036 006d 39       		.uleb128 0x39
 3037 006e 0B       		.uleb128 0xb
 3038 006f 49       		.uleb128 0x49
 3039 0070 13       		.uleb128 0x13
 3040 0071 38       		.uleb128 0x38
 3041 0072 0B       		.uleb128 0xb
 3042 0073 00       		.byte	0
 3043 0074 00       		.byte	0
 3044 0075 0A       		.uleb128 0xa
 3045 0076 13       		.uleb128 0x13
 3046 0077 01       		.byte	0x1
 3047 0078 03       		.uleb128 0x3
 3048 0079 0E       		.uleb128 0xe
 3049 007a 0B       		.uleb128 0xb
 3050 007b 0B       		.uleb128 0xb
 3051 007c 3A       		.uleb128 0x3a
 3052 007d 0B       		.uleb128 0xb
 3053 007e 3B       		.uleb128 0x3b
 3054 007f 0B       		.uleb128 0xb
 3055 0080 39       		.uleb128 0x39
 3056 0081 0B       		.uleb128 0xb
 3057 0082 01       		.uleb128 0x1
 3058 0083 13       		.uleb128 0x13
 3059 0084 00       		.byte	0
 3060 0085 00       		.byte	0
 3061 0086 0B       		.uleb128 0xb
 3062 0087 0D       		.uleb128 0xd
 3063 0088 00       		.byte	0
 3064 0089 03       		.uleb128 0x3
 3065 008a 08       		.uleb128 0x8
 3066 008b 3A       		.uleb128 0x3a
 3067 008c 0B       		.uleb128 0xb
 3068 008d 3B       		.uleb128 0x3b
 3069 008e 0B       		.uleb128 0xb
 3070 008f 39       		.uleb128 0x39
 3071 0090 0B       		.uleb128 0xb
 3072 0091 49       		.uleb128 0x49
 3073 0092 13       		.uleb128 0x13
 3074 0093 38       		.uleb128 0x38
ARM GAS  C:\Users\DEVELO~1\AppData\Local\Temp\ccoH97es.s 			page 55


 3075 0094 0B       		.uleb128 0xb
 3076 0095 00       		.byte	0
 3077 0096 00       		.byte	0
 3078 0097 0C       		.uleb128 0xc
 3079 0098 13       		.uleb128 0x13
 3080 0099 01       		.byte	0x1
 3081 009a 0B       		.uleb128 0xb
 3082 009b 0B       		.uleb128 0xb
 3083 009c 3A       		.uleb128 0x3a
 3084 009d 0B       		.uleb128 0xb
 3085 009e 3B       		.uleb128 0x3b
 3086 009f 0B       		.uleb128 0xb
 3087 00a0 39       		.uleb128 0x39
 3088 00a1 0B       		.uleb128 0xb
 3089 00a2 01       		.uleb128 0x1
 3090 00a3 13       		.uleb128 0x13
 3091 00a4 00       		.byte	0
 3092 00a5 00       		.byte	0
 3093 00a6 0D       		.uleb128 0xd
 3094 00a7 34       		.uleb128 0x34
 3095 00a8 00       		.byte	0
 3096 00a9 03       		.uleb128 0x3
 3097 00aa 0E       		.uleb128 0xe
 3098 00ab 3A       		.uleb128 0x3a
 3099 00ac 21       		.uleb128 0x21
 3100 00ad 01       		.sleb128 1
 3101 00ae 3B       		.uleb128 0x3b
 3102 00af 0B       		.uleb128 0xb
 3103 00b0 39       		.uleb128 0x39
 3104 00b1 0B       		.uleb128 0xb
 3105 00b2 49       		.uleb128 0x49
 3106 00b3 13       		.uleb128 0x13
 3107 00b4 02       		.uleb128 0x2
 3108 00b5 17       		.uleb128 0x17
 3109 00b6 B742     		.uleb128 0x2137
 3110 00b8 17       		.uleb128 0x17
 3111 00b9 00       		.byte	0
 3112 00ba 00       		.byte	0
 3113 00bb 0E       		.uleb128 0xe
 3114 00bc 0D       		.uleb128 0xd
 3115 00bd 00       		.byte	0
 3116 00be 03       		.uleb128 0x3
 3117 00bf 0E       		.uleb128 0xe
 3118 00c0 3A       		.uleb128 0x3a
 3119 00c1 0B       		.uleb128 0xb
 3120 00c2 3B       		.uleb128 0x3b
 3121 00c3 0B       		.uleb128 0xb
 3122 00c4 39       		.uleb128 0x39
 3123 00c5 0B       		.uleb128 0xb
 3124 00c6 49       		.uleb128 0x49
 3125 00c7 13       		.uleb128 0x13
 3126 00c8 00       		.byte	0
 3127 00c9 00       		.byte	0
 3128 00ca 0F       		.uleb128 0xf
 3129 00cb 0D       		.uleb128 0xd
 3130 00cc 00       		.byte	0
 3131 00cd 03       		.uleb128 0x3
ARM GAS  C:\Users\DEVELO~1\AppData\Local\Temp\ccoH97es.s 			page 56


 3132 00ce 0E       		.uleb128 0xe
 3133 00cf 3A       		.uleb128 0x3a
 3134 00d0 21       		.uleb128 0x21
 3135 00d1 06       		.sleb128 6
 3136 00d2 3B       		.uleb128 0x3b
 3137 00d3 05       		.uleb128 0x5
 3138 00d4 39       		.uleb128 0x39
 3139 00d5 0B       		.uleb128 0xb
 3140 00d6 49       		.uleb128 0x49
 3141 00d7 13       		.uleb128 0x13
 3142 00d8 00       		.byte	0
 3143 00d9 00       		.byte	0
 3144 00da 10       		.uleb128 0x10
 3145 00db 04       		.uleb128 0x4
 3146 00dc 01       		.byte	0x1
 3147 00dd 3E       		.uleb128 0x3e
 3148 00de 21       		.uleb128 0x21
 3149 00df 07       		.sleb128 7
 3150 00e0 0B       		.uleb128 0xb
 3151 00e1 21       		.uleb128 0x21
 3152 00e2 01       		.sleb128 1
 3153 00e3 49       		.uleb128 0x49
 3154 00e4 13       		.uleb128 0x13
 3155 00e5 3A       		.uleb128 0x3a
 3156 00e6 21       		.uleb128 0x21
 3157 00e7 0F       		.sleb128 15
 3158 00e8 3B       		.uleb128 0x3b
 3159 00e9 0B       		.uleb128 0xb
 3160 00ea 39       		.uleb128 0x39
 3161 00eb 21       		.uleb128 0x21
 3162 00ec 0E       		.sleb128 14
 3163 00ed 01       		.uleb128 0x1
 3164 00ee 13       		.uleb128 0x13
 3165 00ef 00       		.byte	0
 3166 00f0 00       		.byte	0
 3167 00f1 11       		.uleb128 0x11
 3168 00f2 05       		.uleb128 0x5
 3169 00f3 00       		.byte	0
 3170 00f4 49       		.uleb128 0x49
 3171 00f5 13       		.uleb128 0x13
 3172 00f6 00       		.byte	0
 3173 00f7 00       		.byte	0
 3174 00f8 12       		.uleb128 0x12
 3175 00f9 2E       		.uleb128 0x2e
 3176 00fa 01       		.byte	0x1
 3177 00fb 3F       		.uleb128 0x3f
 3178 00fc 19       		.uleb128 0x19
 3179 00fd 03       		.uleb128 0x3
 3180 00fe 0E       		.uleb128 0xe
 3181 00ff 3A       		.uleb128 0x3a
 3182 0100 21       		.uleb128 0x21
 3183 0101 01       		.sleb128 1
 3184 0102 3B       		.uleb128 0x3b
 3185 0103 0B       		.uleb128 0xb
 3186 0104 39       		.uleb128 0x39
 3187 0105 0B       		.uleb128 0xb
 3188 0106 27       		.uleb128 0x27
ARM GAS  C:\Users\DEVELO~1\AppData\Local\Temp\ccoH97es.s 			page 57


 3189 0107 19       		.uleb128 0x19
 3190 0108 49       		.uleb128 0x49
 3191 0109 13       		.uleb128 0x13
 3192 010a 11       		.uleb128 0x11
 3193 010b 01       		.uleb128 0x1
 3194 010c 12       		.uleb128 0x12
 3195 010d 06       		.uleb128 0x6
 3196 010e 40       		.uleb128 0x40
 3197 010f 18       		.uleb128 0x18
 3198 0110 7A       		.uleb128 0x7a
 3199 0111 19       		.uleb128 0x19
 3200 0112 01       		.uleb128 0x1
 3201 0113 13       		.uleb128 0x13
 3202 0114 00       		.byte	0
 3203 0115 00       		.byte	0
 3204 0116 13       		.uleb128 0x13
 3205 0117 05       		.uleb128 0x5
 3206 0118 00       		.byte	0
 3207 0119 03       		.uleb128 0x3
 3208 011a 0E       		.uleb128 0xe
 3209 011b 3A       		.uleb128 0x3a
 3210 011c 21       		.uleb128 0x21
 3211 011d 01       		.sleb128 1
 3212 011e 3B       		.uleb128 0x3b
 3213 011f 0B       		.uleb128 0xb
 3214 0120 39       		.uleb128 0x39
 3215 0121 0B       		.uleb128 0xb
 3216 0122 49       		.uleb128 0x49
 3217 0123 13       		.uleb128 0x13
 3218 0124 02       		.uleb128 0x2
 3219 0125 17       		.uleb128 0x17
 3220 0126 B742     		.uleb128 0x2137
 3221 0128 17       		.uleb128 0x17
 3222 0129 00       		.byte	0
 3223 012a 00       		.byte	0
 3224 012b 14       		.uleb128 0x14
 3225 012c 48       		.uleb128 0x48
 3226 012d 01       		.byte	0x1
 3227 012e 7D       		.uleb128 0x7d
 3228 012f 01       		.uleb128 0x1
 3229 0130 7F       		.uleb128 0x7f
 3230 0131 13       		.uleb128 0x13
 3231 0132 00       		.byte	0
 3232 0133 00       		.byte	0
 3233 0134 15       		.uleb128 0x15
 3234 0135 13       		.uleb128 0x13
 3235 0136 01       		.byte	0x1
 3236 0137 03       		.uleb128 0x3
 3237 0138 0E       		.uleb128 0xe
 3238 0139 0B       		.uleb128 0xb
 3239 013a 0B       		.uleb128 0xb
 3240 013b 3A       		.uleb128 0x3a
 3241 013c 0B       		.uleb128 0xb
 3242 013d 3B       		.uleb128 0x3b
 3243 013e 05       		.uleb128 0x5
 3244 013f 39       		.uleb128 0x39
 3245 0140 0B       		.uleb128 0xb
ARM GAS  C:\Users\DEVELO~1\AppData\Local\Temp\ccoH97es.s 			page 58


 3246 0141 01       		.uleb128 0x1
 3247 0142 13       		.uleb128 0x13
 3248 0143 00       		.byte	0
 3249 0144 00       		.byte	0
 3250 0145 16       		.uleb128 0x16
 3251 0146 35       		.uleb128 0x35
 3252 0147 00       		.byte	0
 3253 0148 49       		.uleb128 0x49
 3254 0149 13       		.uleb128 0x13
 3255 014a 00       		.byte	0
 3256 014b 00       		.byte	0
 3257 014c 17       		.uleb128 0x17
 3258 014d 26       		.uleb128 0x26
 3259 014e 00       		.byte	0
 3260 014f 49       		.uleb128 0x49
 3261 0150 13       		.uleb128 0x13
 3262 0151 00       		.byte	0
 3263 0152 00       		.byte	0
 3264 0153 18       		.uleb128 0x18
 3265 0154 17       		.uleb128 0x17
 3266 0155 01       		.byte	0x1
 3267 0156 0B       		.uleb128 0xb
 3268 0157 0B       		.uleb128 0xb
 3269 0158 3A       		.uleb128 0x3a
 3270 0159 0B       		.uleb128 0xb
 3271 015a 3B       		.uleb128 0x3b
 3272 015b 0B       		.uleb128 0xb
 3273 015c 39       		.uleb128 0x39
 3274 015d 21       		.uleb128 0x21
 3275 015e 03       		.sleb128 3
 3276 015f 01       		.uleb128 0x1
 3277 0160 13       		.uleb128 0x13
 3278 0161 00       		.byte	0
 3279 0162 00       		.byte	0
 3280 0163 19       		.uleb128 0x19
 3281 0164 0D       		.uleb128 0xd
 3282 0165 00       		.byte	0
 3283 0166 03       		.uleb128 0x3
 3284 0167 08       		.uleb128 0x8
 3285 0168 3A       		.uleb128 0x3a
 3286 0169 21       		.uleb128 0x21
 3287 016a 0B       		.sleb128 11
 3288 016b 3B       		.uleb128 0x3b
 3289 016c 0B       		.uleb128 0xb
 3290 016d 39       		.uleb128 0x39
 3291 016e 21       		.uleb128 0x21
 3292 016f 07       		.sleb128 7
 3293 0170 49       		.uleb128 0x49
 3294 0171 13       		.uleb128 0x13
 3295 0172 00       		.byte	0
 3296 0173 00       		.byte	0
 3297 0174 1A       		.uleb128 0x1a
 3298 0175 0D       		.uleb128 0xd
 3299 0176 00       		.byte	0
 3300 0177 03       		.uleb128 0x3
 3301 0178 0E       		.uleb128 0xe
 3302 0179 3A       		.uleb128 0x3a
ARM GAS  C:\Users\DEVELO~1\AppData\Local\Temp\ccoH97es.s 			page 59


 3303 017a 21       		.uleb128 0x21
 3304 017b 0B       		.sleb128 11
 3305 017c 3B       		.uleb128 0x3b
 3306 017d 0B       		.uleb128 0xb
 3307 017e 39       		.uleb128 0x39
 3308 017f 21       		.uleb128 0x21
 3309 0180 19       		.sleb128 25
 3310 0181 49       		.uleb128 0x49
 3311 0182 13       		.uleb128 0x13
 3312 0183 0D       		.uleb128 0xd
 3313 0184 0B       		.uleb128 0xb
 3314 0185 6B       		.uleb128 0x6b
 3315 0186 0B       		.uleb128 0xb
 3316 0187 00       		.byte	0
 3317 0188 00       		.byte	0
 3318 0189 1B       		.uleb128 0x1b
 3319 018a 16       		.uleb128 0x16
 3320 018b 00       		.byte	0
 3321 018c 03       		.uleb128 0x3
 3322 018d 0E       		.uleb128 0xe
 3323 018e 3A       		.uleb128 0x3a
 3324 018f 21       		.uleb128 0x21
 3325 0190 06       		.sleb128 6
 3326 0191 3B       		.uleb128 0x3b
 3327 0192 05       		.uleb128 0x5
 3328 0193 39       		.uleb128 0x39
 3329 0194 21       		.uleb128 0x21
 3330 0195 03       		.sleb128 3
 3331 0196 49       		.uleb128 0x49
 3332 0197 13       		.uleb128 0x13
 3333 0198 00       		.byte	0
 3334 0199 00       		.byte	0
 3335 019a 1C       		.uleb128 0x1c
 3336 019b 2E       		.uleb128 0x2e
 3337 019c 01       		.byte	0x1
 3338 019d 3F       		.uleb128 0x3f
 3339 019e 19       		.uleb128 0x19
 3340 019f 03       		.uleb128 0x3
 3341 01a0 0E       		.uleb128 0xe
 3342 01a1 3A       		.uleb128 0x3a
 3343 01a2 21       		.uleb128 0x21
 3344 01a3 10       		.sleb128 16
 3345 01a4 3B       		.uleb128 0x3b
 3346 01a5 0B       		.uleb128 0xb
 3347 01a6 39       		.uleb128 0x39
 3348 01a7 21       		.uleb128 0x21
 3349 01a8 06       		.sleb128 6
 3350 01a9 27       		.uleb128 0x27
 3351 01aa 19       		.uleb128 0x19
 3352 01ab 49       		.uleb128 0x49
 3353 01ac 13       		.uleb128 0x13
 3354 01ad 3C       		.uleb128 0x3c
 3355 01ae 19       		.uleb128 0x19
 3356 01af 01       		.uleb128 0x1
 3357 01b0 13       		.uleb128 0x13
 3358 01b1 00       		.byte	0
 3359 01b2 00       		.byte	0
ARM GAS  C:\Users\DEVELO~1\AppData\Local\Temp\ccoH97es.s 			page 60


 3360 01b3 1D       		.uleb128 0x1d
 3361 01b4 2E       		.uleb128 0x2e
 3362 01b5 01       		.byte	0x1
 3363 01b6 3F       		.uleb128 0x3f
 3364 01b7 19       		.uleb128 0x19
 3365 01b8 03       		.uleb128 0x3
 3366 01b9 0E       		.uleb128 0xe
 3367 01ba 3A       		.uleb128 0x3a
 3368 01bb 21       		.uleb128 0x21
 3369 01bc 0E       		.sleb128 14
 3370 01bd 3B       		.uleb128 0x3b
 3371 01be 0B       		.uleb128 0xb
 3372 01bf 39       		.uleb128 0x39
 3373 01c0 21       		.uleb128 0x21
 3374 01c1 08       		.sleb128 8
 3375 01c2 27       		.uleb128 0x27
 3376 01c3 19       		.uleb128 0x19
 3377 01c4 3C       		.uleb128 0x3c
 3378 01c5 19       		.uleb128 0x19
 3379 01c6 01       		.uleb128 0x1
 3380 01c7 13       		.uleb128 0x13
 3381 01c8 00       		.byte	0
 3382 01c9 00       		.byte	0
 3383 01ca 1E       		.uleb128 0x1e
 3384 01cb 1D       		.uleb128 0x1d
 3385 01cc 01       		.byte	0x1
 3386 01cd 31       		.uleb128 0x31
 3387 01ce 13       		.uleb128 0x13
 3388 01cf 52       		.uleb128 0x52
 3389 01d0 01       		.uleb128 0x1
 3390 01d1 B842     		.uleb128 0x2138
 3391 01d3 0B       		.uleb128 0xb
 3392 01d4 55       		.uleb128 0x55
 3393 01d5 17       		.uleb128 0x17
 3394 01d6 58       		.uleb128 0x58
 3395 01d7 21       		.uleb128 0x21
 3396 01d8 01       		.sleb128 1
 3397 01d9 59       		.uleb128 0x59
 3398 01da 0B       		.uleb128 0xb
 3399 01db 57       		.uleb128 0x57
 3400 01dc 21       		.uleb128 0x21
 3401 01dd 05       		.sleb128 5
 3402 01de 01       		.uleb128 0x1
 3403 01df 13       		.uleb128 0x13
 3404 01e0 00       		.byte	0
 3405 01e1 00       		.byte	0
 3406 01e2 1F       		.uleb128 0x1f
 3407 01e3 05       		.uleb128 0x5
 3408 01e4 00       		.byte	0
 3409 01e5 31       		.uleb128 0x31
 3410 01e6 13       		.uleb128 0x13
 3411 01e7 02       		.uleb128 0x2
 3412 01e8 17       		.uleb128 0x17
 3413 01e9 B742     		.uleb128 0x2137
 3414 01eb 17       		.uleb128 0x17
 3415 01ec 00       		.byte	0
 3416 01ed 00       		.byte	0
ARM GAS  C:\Users\DEVELO~1\AppData\Local\Temp\ccoH97es.s 			page 61


 3417 01ee 20       		.uleb128 0x20
 3418 01ef 48       		.uleb128 0x48
 3419 01f0 01       		.byte	0x1
 3420 01f1 7D       		.uleb128 0x7d
 3421 01f2 01       		.uleb128 0x1
 3422 01f3 8201     		.uleb128 0x82
 3423 01f5 19       		.uleb128 0x19
 3424 01f6 7F       		.uleb128 0x7f
 3425 01f7 13       		.uleb128 0x13
 3426 01f8 01       		.uleb128 0x1
 3427 01f9 13       		.uleb128 0x13
 3428 01fa 00       		.byte	0
 3429 01fb 00       		.byte	0
 3430 01fc 21       		.uleb128 0x21
 3431 01fd 2E       		.uleb128 0x2e
 3432 01fe 01       		.byte	0x1
 3433 01ff 03       		.uleb128 0x3
 3434 0200 0E       		.uleb128 0xe
 3435 0201 3A       		.uleb128 0x3a
 3436 0202 21       		.uleb128 0x21
 3437 0203 01       		.sleb128 1
 3438 0204 3B       		.uleb128 0x3b
 3439 0205 0B       		.uleb128 0xb
 3440 0206 39       		.uleb128 0x39
 3441 0207 21       		.uleb128 0x21
 3442 0208 0D       		.sleb128 13
 3443 0209 27       		.uleb128 0x27
 3444 020a 19       		.uleb128 0x19
 3445 020b 20       		.uleb128 0x20
 3446 020c 21       		.uleb128 0x21
 3447 020d 01       		.sleb128 1
 3448 020e 01       		.uleb128 0x1
 3449 020f 13       		.uleb128 0x13
 3450 0210 00       		.byte	0
 3451 0211 00       		.byte	0
 3452 0212 22       		.uleb128 0x22
 3453 0213 05       		.uleb128 0x5
 3454 0214 00       		.byte	0
 3455 0215 03       		.uleb128 0x3
 3456 0216 0E       		.uleb128 0xe
 3457 0217 3A       		.uleb128 0x3a
 3458 0218 21       		.uleb128 0x21
 3459 0219 01       		.sleb128 1
 3460 021a 3B       		.uleb128 0x3b
 3461 021b 0B       		.uleb128 0xb
 3462 021c 39       		.uleb128 0x39
 3463 021d 0B       		.uleb128 0xb
 3464 021e 49       		.uleb128 0x49
 3465 021f 13       		.uleb128 0x13
 3466 0220 00       		.byte	0
 3467 0221 00       		.byte	0
 3468 0222 23       		.uleb128 0x23
 3469 0223 11       		.uleb128 0x11
 3470 0224 01       		.byte	0x1
 3471 0225 25       		.uleb128 0x25
 3472 0226 0E       		.uleb128 0xe
 3473 0227 13       		.uleb128 0x13
ARM GAS  C:\Users\DEVELO~1\AppData\Local\Temp\ccoH97es.s 			page 62


 3474 0228 0B       		.uleb128 0xb
 3475 0229 03       		.uleb128 0x3
 3476 022a 0E       		.uleb128 0xe
 3477 022b 1B       		.uleb128 0x1b
 3478 022c 0E       		.uleb128 0xe
 3479 022d 55       		.uleb128 0x55
 3480 022e 17       		.uleb128 0x17
 3481 022f 11       		.uleb128 0x11
 3482 0230 01       		.uleb128 0x1
 3483 0231 10       		.uleb128 0x10
 3484 0232 17       		.uleb128 0x17
 3485 0233 00       		.byte	0
 3486 0234 00       		.byte	0
 3487 0235 24       		.uleb128 0x24
 3488 0236 24       		.uleb128 0x24
 3489 0237 00       		.byte	0
 3490 0238 0B       		.uleb128 0xb
 3491 0239 0B       		.uleb128 0xb
 3492 023a 3E       		.uleb128 0x3e
 3493 023b 0B       		.uleb128 0xb
 3494 023c 03       		.uleb128 0x3
 3495 023d 08       		.uleb128 0x8
 3496 023e 00       		.byte	0
 3497 023f 00       		.byte	0
 3498 0240 25       		.uleb128 0x25
 3499 0241 13       		.uleb128 0x13
 3500 0242 01       		.byte	0x1
 3501 0243 03       		.uleb128 0x3
 3502 0244 0E       		.uleb128 0xe
 3503 0245 0B       		.uleb128 0xb
 3504 0246 05       		.uleb128 0x5
 3505 0247 3A       		.uleb128 0x3a
 3506 0248 0B       		.uleb128 0xb
 3507 0249 3B       		.uleb128 0x3b
 3508 024a 05       		.uleb128 0x5
 3509 024b 39       		.uleb128 0x39
 3510 024c 0B       		.uleb128 0xb
 3511 024d 01       		.uleb128 0x1
 3512 024e 13       		.uleb128 0x13
 3513 024f 00       		.byte	0
 3514 0250 00       		.byte	0
 3515 0251 26       		.uleb128 0x26
 3516 0252 0F       		.uleb128 0xf
 3517 0253 00       		.byte	0
 3518 0254 0B       		.uleb128 0xb
 3519 0255 0B       		.uleb128 0xb
 3520 0256 00       		.byte	0
 3521 0257 00       		.byte	0
 3522 0258 27       		.uleb128 0x27
 3523 0259 13       		.uleb128 0x13
 3524 025a 01       		.byte	0x1
 3525 025b 0B       		.uleb128 0xb
 3526 025c 05       		.uleb128 0x5
 3527 025d 3A       		.uleb128 0x3a
 3528 025e 0B       		.uleb128 0xb
 3529 025f 3B       		.uleb128 0x3b
 3530 0260 0B       		.uleb128 0xb
ARM GAS  C:\Users\DEVELO~1\AppData\Local\Temp\ccoH97es.s 			page 63


 3531 0261 39       		.uleb128 0x39
 3532 0262 0B       		.uleb128 0xb
 3533 0263 01       		.uleb128 0x1
 3534 0264 13       		.uleb128 0x13
 3535 0265 00       		.byte	0
 3536 0266 00       		.byte	0
 3537 0267 28       		.uleb128 0x28
 3538 0268 01       		.uleb128 0x1
 3539 0269 01       		.byte	0x1
 3540 026a 49       		.uleb128 0x49
 3541 026b 13       		.uleb128 0x13
 3542 026c 01       		.uleb128 0x1
 3543 026d 13       		.uleb128 0x13
 3544 026e 00       		.byte	0
 3545 026f 00       		.byte	0
 3546 0270 29       		.uleb128 0x29
 3547 0271 21       		.uleb128 0x21
 3548 0272 00       		.byte	0
 3549 0273 49       		.uleb128 0x49
 3550 0274 13       		.uleb128 0x13
 3551 0275 2F       		.uleb128 0x2f
 3552 0276 0B       		.uleb128 0xb
 3553 0277 00       		.byte	0
 3554 0278 00       		.byte	0
 3555 0279 2A       		.uleb128 0x2a
 3556 027a 34       		.uleb128 0x34
 3557 027b 00       		.byte	0
 3558 027c 03       		.uleb128 0x3
 3559 027d 0E       		.uleb128 0xe
 3560 027e 3A       		.uleb128 0x3a
 3561 027f 0B       		.uleb128 0xb
 3562 0280 3B       		.uleb128 0x3b
 3563 0281 0B       		.uleb128 0xb
 3564 0282 39       		.uleb128 0x39
 3565 0283 0B       		.uleb128 0xb
 3566 0284 49       		.uleb128 0x49
 3567 0285 13       		.uleb128 0x13
 3568 0286 3F       		.uleb128 0x3f
 3569 0287 19       		.uleb128 0x19
 3570 0288 3C       		.uleb128 0x3c
 3571 0289 19       		.uleb128 0x19
 3572 028a 00       		.byte	0
 3573 028b 00       		.byte	0
 3574 028c 2B       		.uleb128 0x2b
 3575 028d 34       		.uleb128 0x34
 3576 028e 00       		.byte	0
 3577 028f 47       		.uleb128 0x47
 3578 0290 13       		.uleb128 0x13
 3579 0291 3A       		.uleb128 0x3a
 3580 0292 0B       		.uleb128 0xb
 3581 0293 3B       		.uleb128 0x3b
 3582 0294 0B       		.uleb128 0xb
 3583 0295 39       		.uleb128 0x39
 3584 0296 0B       		.uleb128 0xb
 3585 0297 02       		.uleb128 0x2
 3586 0298 18       		.uleb128 0x18
 3587 0299 00       		.byte	0
ARM GAS  C:\Users\DEVELO~1\AppData\Local\Temp\ccoH97es.s 			page 64


 3588 029a 00       		.byte	0
 3589 029b 2C       		.uleb128 0x2c
 3590 029c 34       		.uleb128 0x34
 3591 029d 00       		.byte	0
 3592 029e 03       		.uleb128 0x3
 3593 029f 0E       		.uleb128 0xe
 3594 02a0 3A       		.uleb128 0x3a
 3595 02a1 0B       		.uleb128 0xb
 3596 02a2 3B       		.uleb128 0x3b
 3597 02a3 0B       		.uleb128 0xb
 3598 02a4 39       		.uleb128 0x39
 3599 02a5 0B       		.uleb128 0xb
 3600 02a6 49       		.uleb128 0x49
 3601 02a7 13       		.uleb128 0x13
 3602 02a8 3F       		.uleb128 0x3f
 3603 02a9 19       		.uleb128 0x19
 3604 02aa 02       		.uleb128 0x2
 3605 02ab 18       		.uleb128 0x18
 3606 02ac 00       		.byte	0
 3607 02ad 00       		.byte	0
 3608 02ae 2D       		.uleb128 0x2d
 3609 02af 2E       		.uleb128 0x2e
 3610 02b0 00       		.byte	0
 3611 02b1 3F       		.uleb128 0x3f
 3612 02b2 19       		.uleb128 0x19
 3613 02b3 03       		.uleb128 0x3
 3614 02b4 0E       		.uleb128 0xe
 3615 02b5 3A       		.uleb128 0x3a
 3616 02b6 0B       		.uleb128 0xb
 3617 02b7 3B       		.uleb128 0x3b
 3618 02b8 0B       		.uleb128 0xb
 3619 02b9 39       		.uleb128 0x39
 3620 02ba 0B       		.uleb128 0xb
 3621 02bb 27       		.uleb128 0x27
 3622 02bc 19       		.uleb128 0x19
 3623 02bd 49       		.uleb128 0x49
 3624 02be 13       		.uleb128 0x13
 3625 02bf 3C       		.uleb128 0x3c
 3626 02c0 19       		.uleb128 0x19
 3627 02c1 00       		.byte	0
 3628 02c2 00       		.byte	0
 3629 02c3 2E       		.uleb128 0x2e
 3630 02c4 34       		.uleb128 0x34
 3631 02c5 00       		.byte	0
 3632 02c6 03       		.uleb128 0x3
 3633 02c7 08       		.uleb128 0x8
 3634 02c8 3A       		.uleb128 0x3a
 3635 02c9 0B       		.uleb128 0xb
 3636 02ca 3B       		.uleb128 0x3b
 3637 02cb 0B       		.uleb128 0xb
 3638 02cc 39       		.uleb128 0x39
 3639 02cd 0B       		.uleb128 0xb
 3640 02ce 49       		.uleb128 0x49
 3641 02cf 13       		.uleb128 0x13
 3642 02d0 02       		.uleb128 0x2
 3643 02d1 18       		.uleb128 0x18
 3644 02d2 00       		.byte	0
ARM GAS  C:\Users\DEVELO~1\AppData\Local\Temp\ccoH97es.s 			page 65


 3645 02d3 00       		.byte	0
 3646 02d4 2F       		.uleb128 0x2f
 3647 02d5 2E       		.uleb128 0x2e
 3648 02d6 01       		.byte	0x1
 3649 02d7 3F       		.uleb128 0x3f
 3650 02d8 19       		.uleb128 0x19
 3651 02d9 03       		.uleb128 0x3
 3652 02da 0E       		.uleb128 0xe
 3653 02db 3A       		.uleb128 0x3a
 3654 02dc 0B       		.uleb128 0xb
 3655 02dd 3B       		.uleb128 0x3b
 3656 02de 0B       		.uleb128 0xb
 3657 02df 39       		.uleb128 0x39
 3658 02e0 0B       		.uleb128 0xb
 3659 02e1 27       		.uleb128 0x27
 3660 02e2 19       		.uleb128 0x19
 3661 02e3 11       		.uleb128 0x11
 3662 02e4 01       		.uleb128 0x1
 3663 02e5 12       		.uleb128 0x12
 3664 02e6 06       		.uleb128 0x6
 3665 02e7 40       		.uleb128 0x40
 3666 02e8 18       		.uleb128 0x18
 3667 02e9 7A       		.uleb128 0x7a
 3668 02ea 19       		.uleb128 0x19
 3669 02eb 01       		.uleb128 0x1
 3670 02ec 13       		.uleb128 0x13
 3671 02ed 00       		.byte	0
 3672 02ee 00       		.byte	0
 3673 02ef 30       		.uleb128 0x30
 3674 02f0 34       		.uleb128 0x34
 3675 02f1 00       		.byte	0
 3676 02f2 03       		.uleb128 0x3
 3677 02f3 0E       		.uleb128 0xe
 3678 02f4 3A       		.uleb128 0x3a
 3679 02f5 0B       		.uleb128 0xb
 3680 02f6 3B       		.uleb128 0x3b
 3681 02f7 0B       		.uleb128 0xb
 3682 02f8 39       		.uleb128 0x39
 3683 02f9 0B       		.uleb128 0xb
 3684 02fa 49       		.uleb128 0x49
 3685 02fb 13       		.uleb128 0x13
 3686 02fc 02       		.uleb128 0x2
 3687 02fd 18       		.uleb128 0x18
 3688 02fe 00       		.byte	0
 3689 02ff 00       		.byte	0
 3690 0300 31       		.uleb128 0x31
 3691 0301 48       		.uleb128 0x48
 3692 0302 00       		.byte	0
 3693 0303 7D       		.uleb128 0x7d
 3694 0304 01       		.uleb128 0x1
 3695 0305 7F       		.uleb128 0x7f
 3696 0306 13       		.uleb128 0x13
 3697 0307 00       		.byte	0
 3698 0308 00       		.byte	0
 3699 0309 32       		.uleb128 0x32
 3700 030a 48       		.uleb128 0x48
 3701 030b 01       		.byte	0x1
ARM GAS  C:\Users\DEVELO~1\AppData\Local\Temp\ccoH97es.s 			page 66


 3702 030c 7D       		.uleb128 0x7d
 3703 030d 01       		.uleb128 0x1
 3704 030e 8201     		.uleb128 0x82
 3705 0310 19       		.uleb128 0x19
 3706 0311 7F       		.uleb128 0x7f
 3707 0312 13       		.uleb128 0x13
 3708 0313 00       		.byte	0
 3709 0314 00       		.byte	0
 3710 0315 33       		.uleb128 0x33
 3711 0316 2E       		.uleb128 0x2e
 3712 0317 00       		.byte	0
 3713 0318 3F       		.uleb128 0x3f
 3714 0319 19       		.uleb128 0x19
 3715 031a 3C       		.uleb128 0x3c
 3716 031b 19       		.uleb128 0x19
 3717 031c 6E       		.uleb128 0x6e
 3718 031d 0E       		.uleb128 0xe
 3719 031e 03       		.uleb128 0x3
 3720 031f 0E       		.uleb128 0xe
 3721 0320 3A       		.uleb128 0x3a
 3722 0321 0B       		.uleb128 0xb
 3723 0322 3B       		.uleb128 0x3b
 3724 0323 0B       		.uleb128 0xb
 3725 0324 00       		.byte	0
 3726 0325 00       		.byte	0
 3727 0326 00       		.byte	0
 3728              		.section	.debug_loclists,"",%progbits
 3729 0000 54010000 		.4byte	.Ldebug_loc3-.Ldebug_loc2
 3730              	.Ldebug_loc2:
 3731 0004 0500     		.2byte	0x5
 3732 0006 04       		.byte	0x4
 3733 0007 00       		.byte	0
 3734 0008 00000000 		.4byte	0
 3735              	.Ldebug_loc0:
 3736              	.LVUS11:
 3737 000c 00       		.uleb128 0
 3738 000d 00       		.uleb128 .LVU182
 3739 000e 00       		.uleb128 .LVU182
 3740 000f 00       		.uleb128 .LVU213
 3741 0010 00       		.uleb128 .LVU213
 3742 0011 00       		.uleb128 .LVU214
 3743 0012 00       		.uleb128 .LVU214
 3744 0013 00       		.uleb128 0
 3745              	.LLST11:
 3746 0014 06       		.byte	0x6
 3747 0015 00000000 		.4byte	.LVL45
 3748 0019 04       		.byte	0x4
 3749 001a 00       		.uleb128 .LVL45-.LVL45
 3750 001b 0A       		.uleb128 .LVL46-.LVL45
 3751 001c 01       		.uleb128 0x1
 3752 001d 50       		.byte	0x50
 3753 001e 04       		.byte	0x4
 3754 001f 0A       		.uleb128 .LVL46-.LVL45
 3755 0020 42       		.uleb128 .LVL54-.LVL45
 3756 0021 04       		.uleb128 0x4
 3757 0022 A3       		.byte	0xa3
 3758 0023 01       		.uleb128 0x1
ARM GAS  C:\Users\DEVELO~1\AppData\Local\Temp\ccoH97es.s 			page 67


 3759 0024 50       		.byte	0x50
 3760 0025 9F       		.byte	0x9f
 3761 0026 04       		.byte	0x4
 3762 0027 42       		.uleb128 .LVL54-.LVL45
 3763 0028 44       		.uleb128 .LVL55-.LVL45
 3764 0029 01       		.uleb128 0x1
 3765 002a 50       		.byte	0x50
 3766 002b 04       		.byte	0x4
 3767 002c 44       		.uleb128 .LVL55-.LVL45
 3768 002d 50       		.uleb128 .LFE439-.LVL45
 3769 002e 04       		.uleb128 0x4
 3770 002f A3       		.byte	0xa3
 3771 0030 01       		.uleb128 0x1
 3772 0031 50       		.byte	0x50
 3773 0032 9F       		.byte	0x9f
 3774 0033 00       		.byte	0
 3775              	.LVUS12:
 3776 0034 00       		.uleb128 0
 3777 0035 00       		.uleb128 .LVU183
 3778 0036 00       		.uleb128 .LVU183
 3779 0037 00       		.uleb128 .LVU213
 3780 0038 00       		.uleb128 .LVU213
 3781 0039 00       		.uleb128 0
 3782              	.LLST12:
 3783 003a 06       		.byte	0x6
 3784 003b 00000000 		.4byte	.LVL45
 3785 003f 04       		.byte	0x4
 3786 0040 00       		.uleb128 .LVL45-.LVL45
 3787 0041 0D       		.uleb128 .LVL47-1-.LVL45
 3788 0042 01       		.uleb128 0x1
 3789 0043 51       		.byte	0x51
 3790 0044 04       		.byte	0x4
 3791 0045 0D       		.uleb128 .LVL47-1-.LVL45
 3792 0046 42       		.uleb128 .LVL54-.LVL45
 3793 0047 01       		.uleb128 0x1
 3794 0048 54       		.byte	0x54
 3795 0049 04       		.byte	0x4
 3796 004a 42       		.uleb128 .LVL54-.LVL45
 3797 004b 50       		.uleb128 .LFE439-.LVL45
 3798 004c 01       		.uleb128 0x1
 3799 004d 51       		.byte	0x51
 3800 004e 00       		.byte	0
 3801              	.LVUS13:
 3802 004f 00       		.uleb128 .LVU187
 3803 0050 00       		.uleb128 .LVU190
 3804 0051 00       		.uleb128 .LVU190
 3805 0052 00       		.uleb128 .LVU213
 3806              	.LLST13:
 3807 0053 06       		.byte	0x6
 3808 0054 14000000 		.4byte	.LVL48
 3809 0058 04       		.byte	0x4
 3810 0059 00       		.uleb128 .LVL48-.LVL48
 3811 005a 05       		.uleb128 .LVL50-1-.LVL48
 3812 005b 05       		.uleb128 0x5
 3813 005c 03       		.byte	0x3
 3814 005d 00000000 		.4byte	sdram_ctx
 3815 0061 04       		.byte	0x4
ARM GAS  C:\Users\DEVELO~1\AppData\Local\Temp\ccoH97es.s 			page 68


 3816 0062 05       		.uleb128 .LVL50-1-.LVL48
 3817 0063 2E       		.uleb128 .LVL54-.LVL48
 3818 0064 01       		.uleb128 0x1
 3819 0065 56       		.byte	0x56
 3820 0066 00       		.byte	0
 3821              	.LVUS14:
 3822 0067 00       		.uleb128 .LVU189
 3823 0068 00       		.uleb128 .LVU190
 3824 0069 00       		.uleb128 .LVU190
 3825 006a 00       		.uleb128 .LVU213
 3826              	.LLST14:
 3827 006b 06       		.byte	0x6
 3828 006c 16000000 		.4byte	.LVL49
 3829 0070 04       		.byte	0x4
 3830 0071 00       		.uleb128 .LVL49-.LVL49
 3831 0072 03       		.uleb128 .LVL50-1-.LVL49
 3832 0073 05       		.uleb128 0x5
 3833 0074 03       		.byte	0x3
 3834 0075 02000000 		.4byte	sdram_ctx+2
 3835 0079 04       		.byte	0x4
 3836 007a 03       		.uleb128 .LVL50-1-.LVL49
 3837 007b 2C       		.uleb128 .LVL54-.LVL49
 3838 007c 01       		.uleb128 0x1
 3839 007d 57       		.byte	0x57
 3840 007e 00       		.byte	0
 3841              	.LVUS16:
 3842 007f 01       		.uleb128 .LVU199
 3843 0080 00       		.uleb128 .LVU210
 3844              	.LLST16:
 3845 0081 08       		.byte	0x8
 3846 0082 30000000 		.4byte	.LVL52
 3847 0086 10       		.uleb128 .LVL53-.LVL52
 3848 0087 01       		.uleb128 0x1
 3849 0088 54       		.byte	0x54
 3850 0089 00       		.byte	0
 3851              	.LVUS7:
 3852 008a 00       		.uleb128 0
 3853 008b 00       		.uleb128 .LVU121
 3854 008c 00       		.uleb128 .LVU121
 3855 008d 00       		.uleb128 0
 3856              	.LLST7:
 3857 008e 06       		.byte	0x6
 3858 008f 00000000 		.4byte	.LVL32
 3859 0093 04       		.byte	0x4
 3860 0094 00       		.uleb128 .LVL32-.LVL32
 3861 0095 0C       		.uleb128 .LVL33-.LVL32
 3862 0096 01       		.uleb128 0x1
 3863 0097 50       		.byte	0x50
 3864 0098 04       		.byte	0x4
 3865 0099 0C       		.uleb128 .LVL33-.LVL32
 3866 009a D001     		.uleb128 .LFE438-.LVL32
 3867 009c 04       		.uleb128 0x4
 3868 009d A3       		.byte	0xa3
 3869 009e 01       		.uleb128 0x1
 3870 009f 50       		.byte	0x50
 3871 00a0 9F       		.byte	0x9f
 3872 00a1 00       		.byte	0
ARM GAS  C:\Users\DEVELO~1\AppData\Local\Temp\ccoH97es.s 			page 69


 3873              	.LVUS8:
 3874 00a2 00       		.uleb128 0
 3875 00a3 00       		.uleb128 .LVU123
 3876 00a4 00       		.uleb128 .LVU123
 3877 00a5 00       		.uleb128 0
 3878              	.LLST8:
 3879 00a6 06       		.byte	0x6
 3880 00a7 00000000 		.4byte	.LVL32
 3881 00ab 04       		.byte	0x4
 3882 00ac 00       		.uleb128 .LVL32-.LVL32
 3883 00ad 11       		.uleb128 .LVL34-1-.LVL32
 3884 00ae 01       		.uleb128 0x1
 3885 00af 51       		.byte	0x51
 3886 00b0 04       		.byte	0x4
 3887 00b1 11       		.uleb128 .LVL34-1-.LVL32
 3888 00b2 D001     		.uleb128 .LFE438-.LVL32
 3889 00b4 01       		.uleb128 0x1
 3890 00b5 54       		.byte	0x54
 3891 00b6 00       		.byte	0
 3892              	.LVUS9:
 3893 00b7 00       		.uleb128 .LVU125
 3894 00b8 00       		.uleb128 0
 3895              	.LLST9:
 3896 00b9 08       		.byte	0x8
 3897 00ba 16000000 		.4byte	.LVL35
 3898 00be BA01     		.uleb128 .LFE438-.LVL35
 3899 00c0 01       		.uleb128 0x1
 3900 00c1 59       		.byte	0x59
 3901 00c2 00       		.byte	0
 3902              	.LVUS10:
 3903 00c3 00       		.uleb128 .LVU146
 3904 00c4 00       		.uleb128 0
 3905              	.LLST10:
 3906 00c5 08       		.byte	0x8
 3907 00c6 56000000 		.4byte	.LVL41
 3908 00ca 7A       		.uleb128 .LFE438-.LVL41
 3909 00cb 01       		.uleb128 0x1
 3910 00cc 57       		.byte	0x57
 3911 00cd 00       		.byte	0
 3912              	.LVUS6:
 3913 00ce 00       		.uleb128 .LVU109
 3914 00cf 00       		.uleb128 .LVU110
 3915 00d0 00       		.uleb128 .LVU110
 3916 00d1 00       		.uleb128 .LVU112
 3917 00d2 00       		.uleb128 .LVU112
 3918 00d3 00       		.uleb128 0
 3919              	.LLST6:
 3920 00d4 06       		.byte	0x6
 3921 00d5 10000000 		.4byte	.LVL29
 3922 00d9 04       		.byte	0x4
 3923 00da 00       		.uleb128 .LVL29-.LVL29
 3924 00db 03       		.uleb128 .LVL30-1-.LVL29
 3925 00dc 05       		.uleb128 0x5
 3926 00dd 03       		.byte	0x3
 3927 00de 01000000 		.4byte	sdram_ctx+1
 3928 00e2 04       		.byte	0x4
 3929 00e3 03       		.uleb128 .LVL30-1-.LVL29
ARM GAS  C:\Users\DEVELO~1\AppData\Local\Temp\ccoH97es.s 			page 70


 3930 00e4 08       		.uleb128 .LVL31-.LVL29
 3931 00e5 01       		.uleb128 0x1
 3932 00e6 54       		.byte	0x54
 3933 00e7 04       		.byte	0x4
 3934 00e8 08       		.uleb128 .LVL31-.LVL29
 3935 00e9 10       		.uleb128 .LFE437-.LVL29
 3936 00ea 01       		.uleb128 0x1
 3937 00eb 50       		.byte	0x50
 3938 00ec 00       		.byte	0
 3939              	.LVUS5:
 3940 00ed 00       		.uleb128 .LVU97
 3941 00ee 00       		.uleb128 .LVU98
 3942 00ef 00       		.uleb128 .LVU98
 3943 00f0 00       		.uleb128 .LVU100
 3944 00f1 00       		.uleb128 .LVU100
 3945 00f2 00       		.uleb128 0
 3946              	.LLST5:
 3947 00f3 06       		.byte	0x6
 3948 00f4 10000000 		.4byte	.LVL25
 3949 00f8 04       		.byte	0x4
 3950 00f9 00       		.uleb128 .LVL25-.LVL25
 3951 00fa 03       		.uleb128 .LVL26-1-.LVL25
 3952 00fb 05       		.uleb128 0x5
 3953 00fc 03       		.byte	0x3
 3954 00fd 00000000 		.4byte	sdram_ctx
 3955 0101 04       		.byte	0x4
 3956 0102 03       		.uleb128 .LVL26-1-.LVL25
 3957 0103 08       		.uleb128 .LVL27-.LVL25
 3958 0104 01       		.uleb128 0x1
 3959 0105 54       		.byte	0x54
 3960 0106 04       		.byte	0x4
 3961 0107 08       		.uleb128 .LVL27-.LVL25
 3962 0108 10       		.uleb128 .LFE436-.LVL25
 3963 0109 01       		.uleb128 0x1
 3964 010a 50       		.byte	0x50
 3965 010b 00       		.byte	0
 3966              	.LVUS4:
 3967 010c 00       		.uleb128 .LVU85
 3968 010d 00       		.uleb128 .LVU88
 3969 010e 00       		.uleb128 .LVU88
 3970 010f 00       		.uleb128 0
 3971              	.LLST4:
 3972 0110 06       		.byte	0x6
 3973 0111 16000000 		.4byte	.LVL21
 3974 0115 04       		.byte	0x4
 3975 0116 00       		.uleb128 .LVL21-.LVL21
 3976 0117 08       		.uleb128 .LVL23-.LVL21
 3977 0118 01       		.uleb128 0x1
 3978 0119 54       		.byte	0x54
 3979 011a 04       		.byte	0x4
 3980 011b 08       		.uleb128 .LVL23-.LVL21
 3981 011c 12       		.uleb128 .LFE435-.LVL21
 3982 011d 01       		.uleb128 0x1
 3983 011e 50       		.byte	0x50
 3984 011f 00       		.byte	0
 3985              	.LVUS0:
 3986 0120 00       		.uleb128 0
ARM GAS  C:\Users\DEVELO~1\AppData\Local\Temp\ccoH97es.s 			page 71


 3987 0121 00       		.uleb128 .LVU7
 3988 0122 00       		.uleb128 .LVU7
 3989 0123 00       		.uleb128 0
 3990              	.LLST0:
 3991 0124 06       		.byte	0x6
 3992 0125 00000000 		.4byte	.LVL0
 3993 0129 04       		.byte	0x4
 3994 012a 00       		.uleb128 .LVL0-.LVL0
 3995 012b 0A       		.uleb128 .LVL1-.LVL0
 3996 012c 01       		.uleb128 0x1
 3997 012d 50       		.byte	0x50
 3998 012e 04       		.byte	0x4
 3999 012f 0A       		.uleb128 .LVL1-.LVL0
 4000 0130 CC01     		.uleb128 .LFE434-.LVL0
 4001 0132 04       		.uleb128 0x4
 4002 0133 A3       		.byte	0xa3
 4003 0134 01       		.uleb128 0x1
 4004 0135 50       		.byte	0x50
 4005 0136 9F       		.byte	0x9f
 4006 0137 00       		.byte	0
 4007              	.LVUS1:
 4008 0138 00       		.uleb128 .LVU36
 4009 0139 00       		.uleb128 .LVU49
 4010 013a 00       		.uleb128 .LVU61
 4011 013b 00       		.uleb128 .LVU64
 4012              	.LLST1:
 4013 013c 06       		.byte	0x6
 4014 013d 4A000000 		.4byte	.LVL9
 4015 0141 04       		.byte	0x4
 4016 0142 00       		.uleb128 .LVL9-.LVL9
 4017 0143 32       		.uleb128 .LVL12-.LVL9
 4018 0144 01       		.uleb128 0x1
 4019 0145 55       		.byte	0x55
 4020 0146 04       		.byte	0x4
 4021 0147 54       		.uleb128 .LVL15-.LVL9
 4022 0148 60       		.uleb128 .LVL16-.LVL9
 4023 0149 01       		.uleb128 0x1
 4024 014a 55       		.byte	0x55
 4025 014b 00       		.byte	0
 4026              	.LVUS3:
 4027 014c 01       		.uleb128 .LVU66
 4028 014d 00       		.uleb128 .LVU72
 4029              	.LLST3:
 4030 014e 08       		.byte	0x8
 4031 014f B0000000 		.4byte	.LVL17
 4032 0153 08       		.uleb128 .LVL18-.LVL17
 4033 0154 02       		.uleb128 0x2
 4034 0155 31       		.byte	0x31
 4035 0156 9F       		.byte	0x9f
 4036 0157 00       		.byte	0
 4037              	.Ldebug_loc3:
 4038              		.section	.debug_aranges,"",%progbits
 4039 0000 44000000 		.4byte	0x44
 4040 0004 0200     		.2byte	0x2
 4041 0006 00000000 		.4byte	.Ldebug_info0
 4042 000a 04       		.byte	0x4
 4043 000b 00       		.byte	0
ARM GAS  C:\Users\DEVELO~1\AppData\Local\Temp\ccoH97es.s 			page 72


 4044 000c 0000     		.2byte	0
 4045 000e 0000     		.2byte	0
 4046 0010 00000000 		.4byte	.LFB434
 4047 0014 CC000000 		.4byte	.LFE434-.LFB434
 4048 0018 00000000 		.4byte	.LFB435
 4049 001c 28000000 		.4byte	.LFE435-.LFB435
 4050 0020 00000000 		.4byte	.LFB436
 4051 0024 20000000 		.4byte	.LFE436-.LFB436
 4052 0028 00000000 		.4byte	.LFB437
 4053 002c 20000000 		.4byte	.LFE437-.LFB437
 4054 0030 00000000 		.4byte	.LFB438
 4055 0034 D0000000 		.4byte	.LFE438-.LFB438
 4056 0038 00000000 		.4byte	.LFB439
 4057 003c 50000000 		.4byte	.LFE439-.LFB439
 4058 0040 00000000 		.4byte	0
 4059 0044 00000000 		.4byte	0
 4060              		.section	.debug_rnglists,"",%progbits
 4061              	.Ldebug_ranges0:
 4062 0000 47000000 		.4byte	.Ldebug_ranges3-.Ldebug_ranges2
 4063              	.Ldebug_ranges2:
 4064 0004 0500     		.2byte	0x5
 4065 0006 04       		.byte	0x4
 4066 0007 00       		.byte	0
 4067 0008 00000000 		.4byte	0
 4068              	.LLRL2:
 4069 000c 05       		.byte	0x5
 4070 000d B0000000 		.4byte	.LBB10
 4071 0011 04       		.byte	0x4
 4072 0012 00       		.uleb128 .LBB10-.LBB10
 4073 0013 04       		.uleb128 .LBE10-.LBB10
 4074 0014 04       		.byte	0x4
 4075 0015 06       		.uleb128 .LBB13-.LBB10
 4076 0016 08       		.uleb128 .LBE13-.LBB10
 4077 0017 00       		.byte	0
 4078              	.LLRL15:
 4079 0018 05       		.byte	0x5
 4080 0019 30000000 		.4byte	.LBB14
 4081 001d 04       		.byte	0x4
 4082 001e 00       		.uleb128 .LBB14-.LBB14
 4083 001f 04       		.uleb128 .LBE14-.LBB14
 4084 0020 04       		.byte	0x4
 4085 0021 06       		.uleb128 .LBB17-.LBB14
 4086 0022 10       		.uleb128 .LBE17-.LBB14
 4087 0023 00       		.byte	0
 4088              	.LLRL17:
 4089 0024 07       		.byte	0x7
 4090 0025 00000000 		.4byte	.LFB434
 4091 0029 CC01     		.uleb128 .LFE434-.LFB434
 4092 002b 07       		.byte	0x7
 4093 002c 00000000 		.4byte	.LFB435
 4094 0030 28       		.uleb128 .LFE435-.LFB435
 4095 0031 07       		.byte	0x7
 4096 0032 00000000 		.4byte	.LFB436
 4097 0036 20       		.uleb128 .LFE436-.LFB436
 4098 0037 07       		.byte	0x7
 4099 0038 00000000 		.4byte	.LFB437
 4100 003c 20       		.uleb128 .LFE437-.LFB437
ARM GAS  C:\Users\DEVELO~1\AppData\Local\Temp\ccoH97es.s 			page 73


 4101 003d 07       		.byte	0x7
 4102 003e 00000000 		.4byte	.LFB438
 4103 0042 D001     		.uleb128 .LFE438-.LFB438
 4104 0044 07       		.byte	0x7
 4105 0045 00000000 		.4byte	.LFB439
 4106 0049 50       		.uleb128 .LFE439-.LFB439
 4107 004a 00       		.byte	0
 4108              	.Ldebug_ranges3:
 4109              		.section	.debug_line,"",%progbits
 4110              	.Ldebug_line0:
 4111 0000 55050000 		.section	.debug_str,"MS",%progbits,1
 4111      03001B02 
 4111      00000201 
 4111      FB0E0D00 
 4111      01010101 
 4112              	.LASF152:
 4113 0000 53445241 		.ascii	"SDRAM_BIST_ERR_DATA_MISMATCH\000"
 4113      4D5F4249 
 4113      53545F45 
 4113      52525F44 
 4113      4154415F 
 4114              	.LASF72:
 4115 001d 70726576 		.ascii	"prev\000"
 4115      00
 4116              	.LASF115:
 4117 0022 72656164 		.ascii	"ready_list_t\000"
 4117      795F6C69 
 4117      73745F74 
 4117      00
 4118              	.LASF106:
 4119 002f 77747472 		.ascii	"wttrp\000"
 4119      7000
 4120              	.LASF21:
 4121 0035 75696E74 		.ascii	"uintptr_t\000"
 4121      7074725F 
 4121      7400
 4122              	.LASF182:
 4123 003f 73647261 		.ascii	"sdram_query_region_descriptor\000"
 4123      6D5F7175 
 4123      6572795F 
 4123      72656769 
 4123      6F6E5F64 
 4124              	.LASF53:
 4125 005d 72666375 		.ascii	"rfcu\000"
 4125      00
 4126              	.LASF3:
 4127 0062 7369676E 		.ascii	"signed char\000"
 4127      65642063 
 4127      68617200 
 4128              	.LASF6:
 4129 006e 5F5F7569 		.ascii	"__uint8_t\000"
 4129      6E74385F 
 4129      7400
 4130              	.LASF206:
 4131 0078 433A5C50 		.ascii	"C:\\PROJET\\ChibiOS project\\ChibiOS_21.11.4\\demos"
 4131      524F4A45 
 4131      545C4368 
ARM GAS  C:\Users\DEVELO~1\AppData\Local\Temp\ccoH97es.s 			page 74


 4131      6962694F 
 4131      53207072 
 4132 00a7 5C53544D 		.ascii	"\\STM32\\RT-STM32H743ZI_REV_XY-NUCLEO144\000"
 4132      33325C52 
 4132      542D5354 
 4132      4D333248 
 4132      3734335A 
 4133              	.LASF91:
 4134 00ce 706F7274 		.ascii	"port_intctx\000"
 4134      5F696E74 
 4134      63747800 
 4135              	.LASF50:
 4136 00da 76746C69 		.ascii	"vtlist\000"
 4136      737400
 4137              	.LASF83:
 4138 00e1 74797065 		.ascii	"type\000"
 4138      00
 4139              	.LASF200:
 4140 00e6 62697374 		.ascii	"bist_ok\000"
 4140      5F6F6B00 
 4141              	.LASF86:
 4142 00ee 74726163 		.ascii	"trace_event_t\000"
 4142      655F6576 
 4142      656E745F 
 4142      7400
 4143              	.LASF121:
 4144 00fc 6F735F69 		.ascii	"os_instance_config_t\000"
 4144      6E737461 
 4144      6E63655F 
 4144      636F6E66 
 4144      69675F74 
 4145              	.LASF189:
 4146 0111 73647261 		.ascii	"sdram_run_bist\000"
 4146      6D5F7275 
 4146      6E5F6269 
 4146      737400
 4147              	.LASF180:
 4148 0120 73647261 		.ascii	"sdram_ctx\000"
 4148      6D5F6374 
 4148      7800
 4149              	.LASF210:
 4150 012a 5F5F6275 		.ascii	"__builtin_memset\000"
 4150      696C7469 
 4150      6E5F6D65 
 4150      6D736574 
 4150      00
 4151              	.LASF81:
 4152 013b 68616C74 		.ascii	"halt\000"
 4152      00
 4153              	.LASF190:
 4154 0140 6F75745F 		.ascii	"out_result\000"
 4154      72657375 
 4154      6C7400
 4155              	.LASF105:
 4156 014b 65786974 		.ascii	"exitcode\000"
 4156      636F6465 
 4156      00
ARM GAS  C:\Users\DEVELO~1\AppData\Local\Temp\ccoH97es.s 			page 75


 4157              	.LASF55:
 4158 0154 6D61696E 		.ascii	"mainthread\000"
 4158      74687265 
 4158      616400
 4159              	.LASF107:
 4160 015f 73656E74 		.ascii	"sentmsg\000"
 4160      6D736700 
 4161              	.LASF78:
 4162 0167 64656C74 		.ascii	"delta\000"
 4162      6100
 4163              	.LASF149:
 4164 016d 53445241 		.ascii	"SDRAM_BIST_ABORT\000"
 4164      4D5F4249 
 4164      53545F41 
 4164      424F5254 
 4164      00
 4165              	.LASF135:
 4166 017e 53445241 		.ascii	"SDRAM_ERR_PARAM\000"
 4166      4D5F4552 
 4166      525F5041 
 4166      52414D00 
 4167              	.LASF165:
 4168 018e 66697273 		.ascii	"first_error\000"
 4168      745F6572 
 4168      726F7200 
 4169              	.LASF69:
 4170 019a 6E657874 		.ascii	"next\000"
 4170      00
 4171              	.LASF175:
 4172 019f 70617474 		.ascii	"patterns_executed\000"
 4172      65726E73 
 4172      5F657865 
 4172      63757465 
 4172      6400
 4173              	.LASF134:
 4174 01b1 53445241 		.ascii	"SDRAM_ERR_BIST_FAIL\000"
 4174      4D5F4552 
 4174      525F4249 
 4174      53545F46 
 4174      41494C00 
 4175              	.LASF184:
 4176 01c5 63684D74 		.ascii	"chMtxUnlock\000"
 4176      78556E6C 
 4176      6F636B00 
 4177              	.LASF137:
 4178 01d1 53445241 		.ascii	"SDRAM_AUDIO_LOOP\000"
 4178      4D5F4155 
 4178      44494F5F 
 4178      4C4F4F50 
 4178      00
 4179              	.LASF160:
 4180 01e2 73746174 		.ascii	"status\000"
 4180      757300
 4181              	.LASF191:
 4182 01e9 656E7472 		.ascii	"entry_state\000"
 4182      795F7374 
 4182      61746500 
ARM GAS  C:\Users\DEVELO~1\AppData\Local\Temp\ccoH97es.s 			page 76


 4183              	.LASF188:
 4184 01f5 73647261 		.ascii	"sdram_get_region\000"
 4184      6D5F6765 
 4184      745F7265 
 4184      67696F6E 
 4184      00
 4185              	.LASF124:
 4186 0206 53445241 		.ascii	"SDRAM_NOT_INITIALIZED\000"
 4186      4D5F4E4F 
 4186      545F494E 
 4186      49544941 
 4186      4C495A45 
 4187              	.LASF88:
 4188 021c 73697A65 		.ascii	"size\000"
 4188      00
 4189              	.LASF14:
 4190 0221 6C6F6E67 		.ascii	"long long unsigned int\000"
 4190      206C6F6E 
 4190      6720756E 
 4190      7369676E 
 4190      65642069 
 4191              	.LASF147:
 4192 0238 53445241 		.ascii	"SDRAM_BIST_PASS\000"
 4192      4D5F4249 
 4192      53545F50 
 4192      41535300 
 4193              	.LASF196:
 4194 0248 73647261 		.ascii	"sdram_is_initialized\000"
 4194      6D5F6973 
 4194      5F696E69 
 4194      7469616C 
 4194      697A6564 
 4195              	.LASF37:
 4196 025d 73746174 		.ascii	"state\000"
 4196      6500
 4197              	.LASF208:
 4198 0263 73647261 		.ascii	"sdram_init\000"
 4198      6D5F696E 
 4198      697400
 4199              	.LASF10:
 4200 026e 6C6F6E67 		.ascii	"long int\000"
 4200      20696E74 
 4200      00
 4201              	.LASF87:
 4202 0277 73757370 		.ascii	"suspended\000"
 4202      656E6465 
 4202      6400
 4203              	.LASF25:
 4204 0281 74737461 		.ascii	"tstate_t\000"
 4204      74655F74 
 4204      00
 4205              	.LASF58:
 4206 028a 63685F72 		.ascii	"ch_rfcu\000"
 4206      66637500 
 4207              	.LASF71:
 4208 0292 63685F71 		.ascii	"ch_queue\000"
 4208      75657565 
ARM GAS  C:\Users\DEVELO~1\AppData\Local\Temp\ccoH97es.s 			page 77


 4208      00
 4209              	.LASF1:
 4210 029b 6C6F6E67 		.ascii	"long long int\000"
 4210      206C6F6E 
 4210      6720696E 
 4210      7400
 4211              	.LASF17:
 4212 02a9 75696E74 		.ascii	"uint16_t\000"
 4212      31365F74 
 4212      00
 4213              	.LASF90:
 4214 02b2 74726163 		.ascii	"trace_buffer_t\000"
 4214      655F6275 
 4214      66666572 
 4214      5F7400
 4215              	.LASF183:
 4216 02c1 73647261 		.ascii	"sdram_bist_start\000"
 4216      6D5F6269 
 4216      73745F73 
 4216      74617274 
 4216      00
 4217              	.LASF98:
 4218 02d2 63685F72 		.ascii	"ch_registry\000"
 4218      65676973 
 4218      74727900 
 4219              	.LASF153:
 4220 02de 53445241 		.ascii	"SDRAM_BIST_ERR_ADDRESS_ALIAS\000"
 4220      4D5F4249 
 4220      53545F45 
 4220      52525F41 
 4220      44445245 
 4221              	.LASF181:
 4222 02fb 73647261 		.ascii	"sdram_ctx_mtx\000"
 4222      6D5F6374 
 4222      785F6D74 
 4222      7800
 4223              	.LASF207:
 4224 0309 73647261 		.ascii	"sdram_hw_init_sequence\000"
 4224      6D5F6877 
 4224      5F696E69 
 4224      745F7365 
 4224      7175656E 
 4225              	.LASF11:
 4226 0320 5F5F7569 		.ascii	"__uint32_t\000"
 4226      6E743332 
 4226      5F7400
 4227              	.LASF59:
 4228 032b 6D61736B 		.ascii	"mask\000"
 4228      00
 4229              	.LASF169:
 4230 0330 73647261 		.ascii	"sdram_bist_result_t\000"
 4230      6D5F6269 
 4230      73745F72 
 4230      6573756C 
 4230      745F7400 
 4231              	.LASF40:
 4232 0344 77616974 		.ascii	"waiting\000"
ARM GAS  C:\Users\DEVELO~1\AppData\Local\Temp\ccoH97es.s 			page 78


 4232      696E6700 
 4233              	.LASF157:
 4234 034c 53445241 		.ascii	"SDRAM_BIST_MODE_QUICK\000"
 4234      4D5F4249 
 4234      53545F4D 
 4234      4F44455F 
 4234      51554943 
 4235              	.LASF117:
 4236 0362 6D61696E 		.ascii	"mainthread_base\000"
 4236      74687265 
 4236      61645F62 
 4236      61736500 
 4237              	.LASF122:
 4238 0372 6D757465 		.ascii	"mutex_t\000"
 4238      785F7400 
 4239              	.LASF176:
 4240 037a 776F7264 		.ascii	"words_target\000"
 4240      735F7461 
 4240      72676574 
 4240      00
 4241              	.LASF66:
 4242 0387 73797369 		.ascii	"sysinterval_t\000"
 4242      6E746572 
 4242      76616C5F 
 4242      7400
 4243              	.LASF197:
 4244 0395 696E6974 		.ascii	"initialized\000"
 4244      69616C69 
 4244      7A656400 
 4245              	.LASF41:
 4246 03a1 6D736771 		.ascii	"msgqueue\000"
 4246      75657565 
 4246      00
 4247              	.LASF0:
 4248 03aa 756E7369 		.ascii	"unsigned int\000"
 4248      676E6564 
 4248      20696E74 
 4248      00
 4249              	.LASF119:
 4250 03b7 69646C65 		.ascii	"idlethread_base\000"
 4250      74687265 
 4250      61645F62 
 4250      61736500 
 4251              	.LASF161:
 4252 03c7 776F7264 		.ascii	"words_tested\000"
 4252      735F7465 
 4252      73746564 
 4252      00
 4253              	.LASF108:
 4254 03d4 77747365 		.ascii	"wtsemp\000"
 4254      6D7000
 4255              	.LASF64:
 4256 03db 73797374 		.ascii	"system_debug_t\000"
 4256      656D5F64 
 4256      65627567 
 4256      5F7400
 4257              	.LASF12:
ARM GAS  C:\Users\DEVELO~1\AppData\Local\Temp\ccoH97es.s 			page 79


 4258 03ea 6C6F6E67 		.ascii	"long unsigned int\000"
 4258      20756E73 
 4258      69676E65 
 4258      6420696E 
 4258      7400
 4259              	.LASF33:
 4260 03fc 72717565 		.ascii	"rqueue\000"
 4260      756500
 4261              	.LASF70:
 4262 0403 63685F71 		.ascii	"ch_queue_t\000"
 4262      75657565 
 4262      5F7400
 4263              	.LASF148:
 4264 040e 53445241 		.ascii	"SDRAM_BIST_FAIL\000"
 4264      4D5F4249 
 4264      53545F46 
 4264      41494C00 
 4265              	.LASF204:
 4266 041e 474E5520 		.ascii	"GNU C17 11.3.1 20220712 -mcpu=cortex-m7 -mthumb -mf"
 4266      43313720 
 4266      31312E33 
 4266      2E312032 
 4266      30323230 
 4267 0451 6C6F6174 		.ascii	"loat-abi=soft -march=armv7e-m -ggdb -O2 -fomit-fram"
 4267      2D616269 
 4267      3D736F66 
 4267      74202D6D 
 4267      61726368 
 4268 0484 652D706F 		.ascii	"e-pointer -falign-functions=16 -ffunction-sections "
 4268      696E7465 
 4268      72202D66 
 4268      616C6967 
 4268      6E2D6675 
 4269 04b7 2D666461 		.ascii	"-fdata-sections -fno-common\000"
 4269      74612D73 
 4269      65637469 
 4269      6F6E7320 
 4269      2D666E6F 
 4270              	.LASF35:
 4271 04d3 6E616D65 		.ascii	"name\000"
 4271      00
 4272              	.LASF99:
 4273 04d8 71756575 		.ascii	"queue\000"
 4273      6500
 4274              	.LASF45:
 4275 04de 6D706F6F 		.ascii	"mpool\000"
 4275      6C00
 4276              	.LASF131:
 4277 04e4 53445241 		.ascii	"SDRAM_ERR_FMC_TIMEOUT\000"
 4277      4D5F4552 
 4277      525F464D 
 4277      435F5449 
 4277      4D454F55 
 4278              	.LASF110:
 4279 04fa 65776D61 		.ascii	"ewmask\000"
 4279      736B00
 4280              	.LASF198:
ARM GAS  C:\Users\DEVELO~1\AppData\Local\Temp\ccoH97es.s 			page 80


 4281 0501 72756E5F 		.ascii	"run_quick_bist\000"
 4281      71756963 
 4281      6B5F6269 
 4281      737400
 4282              	.LASF8:
 4283 0510 73686F72 		.ascii	"short unsigned int\000"
 4283      7420756E 
 4283      7369676E 
 4283      65642069 
 4283      6E7400
 4284              	.LASF154:
 4285 0523 53445241 		.ascii	"SDRAM_BIST_ERR_STUCK_AT\000"
 4285      4D5F4249 
 4285      53545F45 
 4285      52525F53 
 4285      5455434B 
 4286              	.LASF47:
 4287 053b 63685F74 		.ascii	"ch_thread\000"
 4287      68726561 
 4287      6400
 4288              	.LASF144:
 4289 0545 73697A65 		.ascii	"size_bytes\000"
 4289      5F627974 
 4289      657300
 4290              	.LASF28:
 4291 0550 6D73675F 		.ascii	"msg_t\000"
 4291      7400
 4292              	.LASF42:
 4293 0556 6570656E 		.ascii	"epending\000"
 4293      64696E67 
 4293      00
 4294              	.LASF158:
 4295 055f 53445241 		.ascii	"SDRAM_BIST_MODE_FULL\000"
 4295      4D5F4249 
 4295      53545F4D 
 4295      4F44455F 
 4295      46554C4C 
 4296              	.LASF24:
 4297 0574 746D6F64 		.ascii	"tmode_t\000"
 4297      655F7400 
 4298              	.LASF68:
 4299 057c 63685F6C 		.ascii	"ch_list\000"
 4299      69737400 
 4300              	.LASF113:
 4301 0584 63685F72 		.ascii	"ch_ready_list\000"
 4301      65616479 
 4301      5F6C6973 
 4301      7400
 4302              	.LASF29:
 4303 0592 6576656E 		.ascii	"eventmask_t\000"
 4303      746D6173 
 4303      6B5F7400 
 4304              	.LASF9:
 4305 059e 5F5F696E 		.ascii	"__int32_t\000"
 4305      7433325F 
 4305      7400
 4306              	.LASF178:
ARM GAS  C:\Users\DEVELO~1\AppData\Local\Temp\ccoH97es.s 			page 81


 4307 05a8 61626F72 		.ascii	"abort_flag\000"
 4307      745F666C 
 4307      616700
 4308              	.LASF23:
 4309 05b3 73746B61 		.ascii	"stkalign_t\000"
 4309      6C69676E 
 4309      5F7400
 4310              	.LASF84:
 4311 05be 72747374 		.ascii	"rtstamp\000"
 4311      616D7000 
 4312              	.LASF96:
 4313 05c6 6C617374 		.ascii	"laststamp\000"
 4313      7374616D 
 4313      7000
 4314              	.LASF143:
 4315 05d0 62617365 		.ascii	"base\000"
 4315      00
 4316              	.LASF44:
 4317 05d5 7265616C 		.ascii	"realprio\000"
 4317      7072696F 
 4317      00
 4318              	.LASF57:
 4319 05de 72666375 		.ascii	"rfcu_mask_t\000"
 4319      5F6D6173 
 4319      6B5F7400 
 4320              	.LASF127:
 4321 05ea 53445241 		.ascii	"SDRAM_DEGRADED\000"
 4321      4D5F4445 
 4321      47524144 
 4321      454400
 4322              	.LASF97:
 4323 05f9 76697274 		.ascii	"virtual_timers_list_t\000"
 4323      75616C5F 
 4323      74696D65 
 4323      72735F6C 
 4323      6973745F 
 4324              	.LASF162:
 4325 060f 776F7264 		.ascii	"words_covered_unique\000"
 4325      735F636F 
 4325      76657265 
 4325      645F756E 
 4325      69717565 
 4326              	.LASF93:
 4327 0624 63685F76 		.ascii	"ch_virtual_timers_list\000"
 4327      69727475 
 4327      616C5F74 
 4327      696D6572 
 4327      735F6C69 
 4328              	.LASF67:
 4329 063b 63685F6C 		.ascii	"ch_list_t\000"
 4329      6973745F 
 4329      7400
 4330              	.LASF185:
 4331 0645 63684D74 		.ascii	"chMtxLock\000"
 4331      784C6F63 
 4331      6B00
 4332              	.LASF30:
ARM GAS  C:\Users\DEVELO~1\AppData\Local\Temp\ccoH97es.s 			page 82


 4333 064f 636E745F 		.ascii	"cnt_t\000"
 4333      7400
 4334              	.LASF146:
 4335 0655 73647261 		.ascii	"sdram_region_info_t\000"
 4335      6D5F7265 
 4335      67696F6E 
 4335      5F696E66 
 4335      6F5F7400 
 4336              	.LASF140:
 4337 0669 53445241 		.ascii	"SDRAM_CACHE_RESIDUAL\000"
 4337      4D5F4341 
 4337      4348455F 
 4337      52455349 
 4337      4455414C 
 4338              	.LASF195:
 4339 067e 73647261 		.ascii	"sdram_status\000"
 4339      6D5F7374 
 4339      61747573 
 4339      00
 4340              	.LASF20:
 4341 068b 75696E74 		.ascii	"uint64_t\000"
 4341      36345F74 
 4341      00
 4342              	.LASF141:
 4343 0694 53445241 		.ascii	"SDRAM_REGION_INVALID\000"
 4343      4D5F5245 
 4343      47494F4E 
 4343      5F494E56 
 4343      414C4944 
 4344              	.LASF116:
 4345 06a9 63685F6F 		.ascii	"ch_os_instance_config\000"
 4345      735F696E 
 4345      7374616E 
 4345      63655F63 
 4345      6F6E6669 
 4346              	.LASF92:
 4347 06bf 706F7274 		.ascii	"port_context\000"
 4347      5F636F6E 
 4347      74657874 
 4347      00
 4348              	.LASF202:
 4349 06cc 73647261 		.ascii	"sdram_set_fault_locked\000"
 4349      6D5F7365 
 4349      745F6661 
 4349      756C745F 
 4349      6C6F636B 
 4350              	.LASF126:
 4351 06e3 53445241 		.ascii	"SDRAM_READY\000"
 4351      4D5F5245 
 4351      41445900 
 4352              	.LASF85:
 4353 06ef 74696D65 		.ascii	"time\000"
 4353      00
 4354              	.LASF75:
 4355 06f4 7072696F 		.ascii	"prio\000"
 4355      00
 4356              	.LASF150:
ARM GAS  C:\Users\DEVELO~1\AppData\Local\Temp\ccoH97es.s 			page 83


 4357 06f9 73647261 		.ascii	"sdram_bist_status_t\000"
 4357      6D5F6269 
 4357      73745F73 
 4357      74617475 
 4357      735F7400 
 4358              	.LASF114:
 4359 070d 63757272 		.ascii	"current\000"
 4359      656E7400 
 4360              	.LASF13:
 4361 0715 5F5F7569 		.ascii	"__uint64_t\000"
 4361      6E743634 
 4361      5F7400
 4362              	.LASF194:
 4363 0720 6572726F 		.ascii	"error\000"
 4363      7200
 4364              	.LASF31:
 4365 0726 636F7265 		.ascii	"core_id_t\000"
 4365      5F69645F 
 4365      7400
 4366              	.LASF26:
 4367 0730 74726566 		.ascii	"trefs_t\000"
 4367      735F7400 
 4368              	.LASF39:
 4369 0738 72656673 		.ascii	"refs\000"
 4369      00
 4370              	.LASF125:
 4371 073d 53445241 		.ascii	"SDRAM_INITIALIZING\000"
 4371      4D5F494E 
 4371      49544941 
 4371      4C495A49 
 4371      4E4700
 4372              	.LASF82:
 4373 0750 75736572 		.ascii	"user\000"
 4373      00
 4374              	.LASF132:
 4375 0755 53445241 		.ascii	"SDRAM_ERR_FMC_CMD\000"
 4375      4D5F4552 
 4375      525F464D 
 4375      435F434D 
 4375      4400
 4376              	.LASF27:
 4377 0767 74707269 		.ascii	"tprio_t\000"
 4377      6F5F7400 
 4378              	.LASF61:
 4379 076f 63685F73 		.ascii	"ch_system_debug\000"
 4379      79737465 
 4379      6D5F6465 
 4379      62756700 
 4380              	.LASF123:
 4381 077f 5F426F6F 		.ascii	"_Bool\000"
 4381      6C00
 4382              	.LASF18:
 4383 0785 696E7433 		.ascii	"int32_t\000"
 4383      325F7400 
 4384              	.LASF4:
 4385 078d 756E7369 		.ascii	"unsigned char\000"
 4385      676E6564 
ARM GAS  C:\Users\DEVELO~1\AppData\Local\Temp\ccoH97es.s 			page 84


 4385      20636861 
 4385      7200
 4386              	.LASF60:
 4387 079b 72666375 		.ascii	"rfcu_t\000"
 4387      5F7400
 4388              	.LASF5:
 4389 07a2 73686F72 		.ascii	"short int\000"
 4389      7420696E 
 4389      7400
 4390              	.LASF203:
 4391 07ac 696E666F 		.ascii	"info\000"
 4391      00
 4392              	.LASF95:
 4393 07b1 6C617374 		.ascii	"lasttime\000"
 4393      74696D65 
 4393      00
 4394              	.LASF79:
 4395 07ba 77746F62 		.ascii	"wtobjp\000"
 4395      6A7000
 4396              	.LASF187:
 4397 07c1 6F75745F 		.ascii	"out_info\000"
 4397      696E666F 
 4397      00
 4398              	.LASF15:
 4399 07ca 5F5F7569 		.ascii	"__uintptr_t\000"
 4399      6E747074 
 4399      725F7400 
 4400              	.LASF52:
 4401 07d6 636F7265 		.ascii	"core_id\000"
 4401      5F696400 
 4402              	.LASF129:
 4403 07de 73647261 		.ascii	"sdram_state_t\000"
 4403      6D5F7374 
 4403      6174655F 
 4403      7400
 4404              	.LASF80:
 4405 07ec 72656173 		.ascii	"reason\000"
 4405      6F6E00
 4406              	.LASF167:
 4407 07f3 74696D65 		.ascii	"timestamp_start\000"
 4407      7374616D 
 4407      705F7374 
 4407      61727400 
 4408              	.LASF111:
 4409 0803 63685F73 		.ascii	"ch_semaphore\000"
 4409      656D6170 
 4409      686F7265 
 4409      00
 4410              	.LASF100:
 4411 0810 72656769 		.ascii	"registry_t\000"
 4411      73747279 
 4411      5F7400
 4412              	.LASF170:
 4413 081b 6C617374 		.ascii	"last_error\000"
 4413      5F657272 
 4413      6F7200
 4414              	.LASF19:
ARM GAS  C:\Users\DEVELO~1\AppData\Local\Temp\ccoH97es.s 			page 85


 4415 0826 75696E74 		.ascii	"uint32_t\000"
 4415      33325F74 
 4415      00
 4416              	.LASF109:
 4417 082f 77746D74 		.ascii	"wtmtxp\000"
 4417      787000
 4418              	.LASF22:
 4419 0836 706F7274 		.ascii	"port_stkalign_t\000"
 4419      5F73746B 
 4419      616C6967 
 4419      6E5F7400 
 4420              	.LASF34:
 4421 0846 6F776E65 		.ascii	"owner\000"
 4421      7200
 4422              	.LASF168:
 4423 084c 74696D65 		.ascii	"timestamp_end\000"
 4423      7374616D 
 4423      705F656E 
 4423      6400
 4424              	.LASF2:
 4425 085a 6C6F6E67 		.ascii	"long double\000"
 4425      20646F75 
 4425      626C6500 
 4426              	.LASF36:
 4427 0866 77616261 		.ascii	"wabase\000"
 4427      736500
 4428              	.LASF63:
 4429 086d 63686172 		.ascii	"char\000"
 4429      00
 4430              	.LASF174:
 4431 0872 6D6F6465 		.ascii	"mode\000"
 4431      00
 4432              	.LASF133:
 4433 0877 53445241 		.ascii	"SDRAM_ERR_REFRESH\000"
 4433      4D5F4552 
 4433      525F5245 
 4433      46524553 
 4433      4800
 4434              	.LASF54:
 4435 0889 636F6E66 		.ascii	"config\000"
 4435      696700
 4436              	.LASF7:
 4437 0890 5F5F7569 		.ascii	"__uint16_t\000"
 4437      6E743136 
 4437      5F7400
 4438              	.LASF155:
 4439 089b 53445241 		.ascii	"SDRAM_BIST_ERR_TIMEOUT\000"
 4439      4D5F4249 
 4439      53545F45 
 4439      52525F54 
 4439      494D454F 
 4440              	.LASF32:
 4441 08b2 74687265 		.ascii	"thread_t\000"
 4441      61645F74 
 4441      00
 4442              	.LASF186:
 4443 08bb 72656769 		.ascii	"region_id\000"
ARM GAS  C:\Users\DEVELO~1\AppData\Local\Temp\ccoH97es.s 			page 86


 4443      6F6E5F69 
 4443      6400
 4444              	.LASF94:
 4445 08c5 646C6973 		.ascii	"dlist\000"
 4445      7400
 4446              	.LASF65:
 4447 08cb 73797374 		.ascii	"systime_t\000"
 4447      696D655F 
 4447      7400
 4448              	.LASF89:
 4449 08d5 62756666 		.ascii	"buffer\000"
 4449      657200
 4450              	.LASF73:
 4451 08dc 63685F70 		.ascii	"ch_priority_queue_t\000"
 4451      72696F72 
 4451      6974795F 
 4451      71756575 
 4451      655F7400 
 4452              	.LASF156:
 4453 08f0 73647261 		.ascii	"sdram_bist_error_t\000"
 4453      6D5F6269 
 4453      73745F65 
 4453      72726F72 
 4453      5F7400
 4454              	.LASF62:
 4455 0903 70616E69 		.ascii	"panic_msg\000"
 4455      635F6D73 
 4455      6700
 4456              	.LASF103:
 4457 090d 70717565 		.ascii	"pqueue\000"
 4457      756500
 4458              	.LASF48:
 4459 0914 63685F6F 		.ascii	"ch_os_instance\000"
 4459      735F696E 
 4459      7374616E 
 4459      636500
 4460              	.LASF46:
 4461 0923 6F735F69 		.ascii	"os_instance_t\000"
 4461      6E737461 
 4461      6E63655F 
 4461      7400
 4462              	.LASF201:
 4463 0931 73647261 		.ascii	"sdram_clear_region_info\000"
 4463      6D5F636C 
 4463      6561725F 
 4463      72656769 
 4463      6F6E5F69 
 4464              	.LASF51:
 4465 0949 7265676C 		.ascii	"reglist\000"
 4465      69737400 
 4466              	.LASF151:
 4467 0951 53445241 		.ascii	"SDRAM_BIST_ERR_NONE\000"
 4467      4D5F4249 
 4467      53545F45 
 4467      52525F4E 
 4467      4F4E4500 
 4468              	.LASF130:
ARM GAS  C:\Users\DEVELO~1\AppData\Local\Temp\ccoH97es.s 			page 87


 4469 0965 53445241 		.ascii	"SDRAM_ERR_NONE\000"
 4469      4D5F4552 
 4469      525F4E4F 
 4469      4E4500
 4470              	.LASF74:
 4471 0974 63685F70 		.ascii	"ch_priority_queue\000"
 4471      72696F72 
 4471      6974795F 
 4471      71756575 
 4471      6500
 4472              	.LASF136:
 4473 0986 73647261 		.ascii	"sdram_error_t\000"
 4473      6D5F6572 
 4473      726F725F 
 4473      7400
 4474              	.LASF76:
 4475 0994 63685F64 		.ascii	"ch_delta_list_t\000"
 4475      656C7461 
 4475      5F6C6973 
 4475      745F7400 
 4476              	.LASF118:
 4477 09a4 6D61696E 		.ascii	"mainthread_end\000"
 4477      74687265 
 4477      61645F65 
 4477      6E6400
 4478              	.LASF138:
 4479 09b3 53445241 		.ascii	"SDRAM_AUDIO_DELAY\000"
 4479      4D5F4155 
 4479      44494F5F 
 4479      44454C41 
 4479      5900
 4480              	.LASF171:
 4481 09c5 62697374 		.ascii	"bist_running\000"
 4481      5F72756E 
 4481      6E696E67 
 4481      00
 4482              	.LASF164:
 4483 09d2 66697273 		.ascii	"first_error_address\000"
 4483      745F6572 
 4483      726F725F 
 4483      61646472 
 4483      65737300 
 4484              	.LASF199:
 4485 09e6 62697374 		.ascii	"bist_ctx\000"
 4485      5F637478 
 4485      00
 4486              	.LASF172:
 4487 09ef 6C617374 		.ascii	"last_bist_result\000"
 4487      5F626973 
 4487      745F7265 
 4487      73756C74 
 4487      00
 4488              	.LASF209:
 4489 0a00 6D656D73 		.ascii	"memset\000"
 4489      657400
 4490              	.LASF104:
 4491 0a07 7264796D 		.ascii	"rdymsg\000"
ARM GAS  C:\Users\DEVELO~1\AppData\Local\Temp\ccoH97es.s 			page 88


 4491      736700
 4492              	.LASF139:
 4493 0a0e 53445241 		.ascii	"SDRAM_AUDIO_FX\000"
 4493      4D5F4155 
 4493      44494F5F 
 4493      465800
 4494              	.LASF77:
 4495 0a1d 63685F64 		.ascii	"ch_delta_list\000"
 4495      656C7461 
 4495      5F6C6973 
 4495      7400
 4496              	.LASF128:
 4497 0a2b 53445241 		.ascii	"SDRAM_FAULT\000"
 4497      4D5F4641 
 4497      554C5400 
 4498              	.LASF49:
 4499 0a37 726C6973 		.ascii	"rlist\000"
 4499      7400
 4500              	.LASF16:
 4501 0a3d 75696E74 		.ascii	"uint8_t\000"
 4501      385F7400 
 4502              	.LASF38:
 4503 0a45 666C6167 		.ascii	"flags\000"
 4503      7300
 4504              	.LASF142:
 4505 0a4b 73647261 		.ascii	"sdram_region_id_t\000"
 4505      6D5F7265 
 4505      67696F6E 
 4505      5F69645F 
 4505      7400
 4506              	.LASF166:
 4507 0a5d 66697273 		.ascii	"first_error_pattern\000"
 4507      745F6572 
 4507      726F725F 
 4507      70617474 
 4507      65726E00 
 4508              	.LASF193:
 4509 0a71 73647261 		.ascii	"sdram_get_error\000"
 4509      6D5F6765 
 4509      745F6572 
 4509      726F7200 
 4510              	.LASF101:
 4511 0a81 74687265 		.ascii	"thread_reference_t\000"
 4511      61645F72 
 4511      65666572 
 4511      656E6365 
 4511      5F7400
 4512              	.LASF145:
 4513 0a94 616C6967 		.ascii	"alignment_bytes\000"
 4513      6E6D656E 
 4513      745F6279 
 4513      74657300 
 4514              	.LASF112:
 4515 0aa4 63685F6D 		.ascii	"ch_mutex\000"
 4515      75746578 
 4515      00
 4516              	.LASF159:
ARM GAS  C:\Users\DEVELO~1\AppData\Local\Temp\ccoH97es.s 			page 89


 4517 0aad 73647261 		.ascii	"sdram_bist_mode_t\000"
 4517      6D5F6269 
 4517      73745F6D 
 4517      6F64655F 
 4517      7400
 4518              	.LASF179:
 4519 0abf 73647261 		.ascii	"sdram_bist_context_t\000"
 4519      6D5F6269 
 4519      73745F63 
 4519      6F6E7465 
 4519      78745F74 
 4520              	.LASF56:
 4521 0ad4 74726163 		.ascii	"trace_buffer\000"
 4521      655F6275 
 4521      66666572 
 4521      00
 4522              	.LASF173:
 4523 0ae1 73647261 		.ascii	"sdram_driver_ctx_t\000"
 4523      6D5F6472 
 4523      69766572 
 4523      5F637478 
 4523      5F7400
 4524              	.LASF192:
 4525 0af4 73746172 		.ascii	"started\000"
 4525      74656400 
 4526              	.LASF102:
 4527 0afc 6C697374 		.ascii	"list\000"
 4527      00
 4528              	.LASF120:
 4529 0b01 69646C65 		.ascii	"idlethread_end\000"
 4529      74687265 
 4529      61645F65 
 4529      6E6400
 4530              	.LASF43:
 4531 0b10 6D74786C 		.ascii	"mtxlist\000"
 4531      69737400 
 4532              	.LASF177:
 4533 0b18 72657375 		.ascii	"result\000"
 4533      6C7400
 4534              	.LASF163:
 4535 0b1f 6572726F 		.ascii	"error_count\000"
 4535      725F636F 
 4535      756E7400 
 4536              	.LASF205:
 4537 0b2b 64726976 		.ascii	"drivers/sdram/sdram_driver.c\000"
 4537      6572732F 
 4537      73647261 
 4537      6D2F7364 
 4537      72616D5F 
 4538              		.ident	"GCC: (Arm GNU Toolchain 11.3.Rel1) 11.3.1 20220712"
ARM GAS  C:\Users\DEVELO~1\AppData\Local\Temp\ccoH97es.s 			page 90


DEFINED SYMBOLS
                            *ABS*:00000000 sdram_driver.c
C:\Users\DEVELO~1\AppData\Local\Temp\ccoH97es.s:18     .text.sdram_init:00000000 $t
C:\Users\DEVELO~1\AppData\Local\Temp\ccoH97es.s:25     .text.sdram_init:00000000 sdram_init
C:\Users\DEVELO~1\AppData\Local\Temp\ccoH97es.s:257    .text.sdram_init:000000c4 $d
C:\Users\DEVELO~1\AppData\Local\Temp\ccoH97es.s:263    .text.sdram_is_initialized:00000000 $t
C:\Users\DEVELO~1\AppData\Local\Temp\ccoH97es.s:270    .text.sdram_is_initialized:00000000 sdram_is_initialized
C:\Users\DEVELO~1\AppData\Local\Temp\ccoH97es.s:310    .text.sdram_is_initialized:00000020 $d
C:\Users\DEVELO~1\AppData\Local\Temp\ccoH97es.s:316    .text.sdram_status:00000000 $t
C:\Users\DEVELO~1\AppData\Local\Temp\ccoH97es.s:323    .text.sdram_status:00000000 sdram_status
C:\Users\DEVELO~1\AppData\Local\Temp\ccoH97es.s:360    .text.sdram_status:00000018 $d
C:\Users\DEVELO~1\AppData\Local\Temp\ccoH97es.s:366    .text.sdram_get_error:00000000 $t
C:\Users\DEVELO~1\AppData\Local\Temp\ccoH97es.s:373    .text.sdram_get_error:00000000 sdram_get_error
C:\Users\DEVELO~1\AppData\Local\Temp\ccoH97es.s:410    .text.sdram_get_error:00000018 $d
C:\Users\DEVELO~1\AppData\Local\Temp\ccoH97es.s:416    .text.sdram_run_bist:00000000 $t
C:\Users\DEVELO~1\AppData\Local\Temp\ccoH97es.s:423    .text.sdram_run_bist:00000000 sdram_run_bist
C:\Users\DEVELO~1\AppData\Local\Temp\ccoH97es.s:599    .text.sdram_run_bist:000000c4 $d
C:\Users\DEVELO~1\AppData\Local\Temp\ccoH97es.s:606    .text.sdram_get_region:00000000 $t
C:\Users\DEVELO~1\AppData\Local\Temp\ccoH97es.s:613    .text.sdram_get_region:00000000 sdram_get_region
C:\Users\DEVELO~1\AppData\Local\Temp\ccoH97es.s:718    .text.sdram_get_region:00000048 $d
C:\Users\DEVELO~1\AppData\Local\Temp\ccoH97es.s:737    .data.sdram_ctx_mtx:00000000 sdram_ctx_mtx
C:\Users\DEVELO~1\AppData\Local\Temp\ccoH97es.s:730    .bss.sdram_ctx:00000000 sdram_ctx
C:\Users\DEVELO~1\AppData\Local\Temp\ccoH97es.s:726    .bss.sdram_ctx:00000000 $d
C:\Users\DEVELO~1\AppData\Local\Temp\ccoH97es.s:733    .data.sdram_ctx_mtx:00000000 $d

UNDEFINED SYMBOLS
chMtxLock
chMtxUnlock
sdram_hw_init_sequence
memset
sdram_bist_start
sdram_query_region_descriptor
