ARM GAS  C:\Users\DEVELO~1\AppData\Local\Temp\ccpirKJb.s 			page 1


   1              		.cpu cortex-m7
   2              		.arch armv7e-m
   3              		.fpu softvfp
   4              		.eabi_attribute 20, 1
   5              		.eabi_attribute 21, 1
   6              		.eabi_attribute 23, 3
   7              		.eabi_attribute 24, 1
   8              		.eabi_attribute 25, 1
   9              		.eabi_attribute 26, 1
  10              		.eabi_attribute 30, 2
  11              		.eabi_attribute 34, 1
  12              		.eabi_attribute 18, 4
  13              		.file	"sdram_driver.c"
  14              		.text
  15              	.Ltext0:
  16              		.cfi_sections	.debug_frame
  17              		.section	.text.sdram_init,"ax",%progbits
  18              		.align	1
  19              		.p2align 4,,15
  20              		.global	sdram_init
  21              		.syntax unified
  22              		.thumb
  23              		.thumb_func
  24              		.type	sdram_init, %function
  25              	sdram_init:
  26              	.LVL0:
  27              	.LFB434:
  28              		.file 1 "drivers/sdram/sdram_driver.c"
  29              		.loc 1 35 38 view -0
  30              		.cfi_startproc
  31              		@ args = 0, pretend = 0, frame = 48
  32              		@ frame_needed = 0, uses_anonymous_args = 0
  33              		.loc 1 37 3 view .LVU1
  34              		.loc 1 35 38 is_stmt 0 view .LVU2
  35 0000 F0B5     		push	{r4, r5, r6, r7, lr}
  36              		.cfi_def_cfa_offset 20
  37              		.cfi_offset 4, -20
  38              		.cfi_offset 5, -16
  39              		.cfi_offset 6, -12
  40              		.cfi_offset 7, -8
  41              		.cfi_offset 14, -4
  42              		.loc 1 38 16 view .LVU3
  43 0002 304C     		ldr	r4, .L16
  44              		.loc 1 35 38 view .LVU4
  45 0004 8DB0     		sub	sp, sp, #52
  46              		.cfi_def_cfa_offset 72
  47              		.loc 1 35 38 view .LVU5
  48 0006 0546     		mov	r5, r0
  49              		.loc 1 37 3 view .LVU6
  50 0008 2F48     		ldr	r0, .L16+4
  51              	.LVL1:
  52              		.loc 1 37 3 view .LVU7
  53 000a FFF7FEFF 		bl	chMtxLock
  54              	.LVL2:
  55              		.loc 1 38 3 is_stmt 1 view .LVU8
  56              		.loc 1 38 6 is_stmt 0 view .LVU9
  57 000e 2678     		ldrb	r6, [r4]	@ zero_extendqisi2
ARM GAS  C:\Users\DEVELO~1\AppData\Local\Temp\ccpirKJb.s 			page 2


  58 0010 A6BB     		cbnz	r6, .L12
  59              		.loc 1 43 3 is_stmt 1 view .LVU10
  60              		.loc 1 44 3 view .LVU11
  61              		.loc 1 45 3 view .LVU12
  62              		.loc 1 43 19 is_stmt 0 view .LVU13
  63 0012 0127     		movs	r7, #1
  64              		.loc 1 46 3 view .LVU14
  65 0014 2C48     		ldr	r0, .L16+4
  66              		.loc 1 45 26 view .LVU15
  67 0016 A670     		strb	r6, [r4, #2]
  68              		.loc 1 46 3 is_stmt 1 view .LVU16
  69              		.loc 1 43 19 is_stmt 0 view .LVU17
  70 0018 2780     		strh	r7, [r4]	@ movhi
  71              		.loc 1 46 3 view .LVU18
  72 001a FFF7FEFF 		bl	chMtxUnlock
  73              	.LVL3:
  74              		.loc 1 49 3 is_stmt 1 view .LVU19
  75              		.loc 1 49 8 is_stmt 0 view .LVU20
  76 001e FFF7FEFF 		bl	sdram_hw_init_sequence
  77              	.LVL4:
  78              		.loc 1 49 6 view .LVU21
  79 0022 0028     		cmp	r0, #0
  80 0024 41D0     		beq	.L13
  81              		.loc 1 56 3 is_stmt 1 view .LVU22
  82              		.loc 1 56 6 is_stmt 0 view .LVU23
  83 0026 7DB3     		cbz	r5, .L14
  84              		.loc 1 64 3 is_stmt 1 view .LVU24
  85              		.loc 1 64 24 is_stmt 0 view .LVU25
  86 0028 3022     		movs	r2, #48
  87 002a 3146     		mov	r1, r6
  88 002c 6846     		mov	r0, sp
  89 002e FFF7FEFF 		bl	memset
  90              	.LVL5:
  91              		.loc 1 65 3 is_stmt 1 view .LVU26
  92              		.loc 1 66 3 view .LVU27
  93              		.loc 1 68 3 view .LVU28
  94 0032 2548     		ldr	r0, .L16+4
  95 0034 FFF7FEFF 		bl	chMtxLock
  96              	.LVL6:
  97              		.loc 1 69 3 view .LVU29
  98              		.loc 1 70 3 is_stmt 0 view .LVU30
  99 0038 2348     		ldr	r0, .L16+4
 100              		.loc 1 69 26 view .LVU31
 101 003a A770     		strb	r7, [r4, #2]
 102              		.loc 1 70 3 is_stmt 1 view .LVU32
 103 003c FFF7FEFF 		bl	chMtxUnlock
 104              	.LVL7:
 105              		.loc 1 72 3 view .LVU33
 106              		.loc 1 72 18 is_stmt 0 view .LVU34
 107 0040 6846     		mov	r0, sp
 108 0042 FFF7FEFF 		bl	sdram_bist_start
 109              	.LVL8:
 110 0046 0546     		mov	r5, r0
 111              		.loc 1 74 3 view .LVU35
 112 0048 1F48     		ldr	r0, .L16+4
 113              	.LVL9:
 114              		.loc 1 74 3 is_stmt 1 view .LVU36
ARM GAS  C:\Users\DEVELO~1\AppData\Local\Temp\ccpirKJb.s 			page 3


 115 004a FFF7FEFF 		bl	chMtxLock
 116              	.LVL10:
 117              		.loc 1 75 3 view .LVU37
 118              		.loc 1 76 30 is_stmt 0 view .LVU38
 119 004e 0DF10C0E 		add	lr, sp, #12
 120 0052 04F1040C 		add	ip, r4, #4
 121              		.loc 1 75 26 view .LVU39
 122 0056 A670     		strb	r6, [r4, #2]
 123              		.loc 1 76 3 is_stmt 1 view .LVU40
 124              		.loc 1 76 30 is_stmt 0 view .LVU41
 125 0058 BEE80F00 		ldmia	lr!, {r0, r1, r2, r3}
 126 005c ACE80F00 		stmia	ip!, {r0, r1, r2, r3}
 127 0060 9EE80F00 		ldm	lr, {r0, r1, r2, r3}
 128 0064 8CE80F00 		stm	ip, {r0, r1, r2, r3}
 129              		.loc 1 78 3 is_stmt 1 view .LVU42
 130              		.loc 1 78 6 is_stmt 0 view .LVU43
 131 0068 CDB9     		cbnz	r5, .L15
 132              	.L8:
 133 006a 0322     		movs	r2, #3
 134 006c 0423     		movs	r3, #4
 135              	.L5:
 136              		.loc 1 86 3 view .LVU44
 137 006e 1648     		ldr	r0, .L16+4
 138              		.loc 1 79 21 view .LVU45
 139 0070 2270     		strb	r2, [r4]
 140              		.loc 1 80 26 view .LVU46
 141 0072 6370     		strb	r3, [r4, #1]
 142              		.loc 1 86 3 is_stmt 1 view .LVU47
 143 0074 FFF7FEFF 		bl	chMtxUnlock
 144              	.LVL11:
 145              		.loc 1 87 1 is_stmt 0 view .LVU48
 146 0078 0DB0     		add	sp, sp, #52
 147              		.cfi_remember_state
 148              		.cfi_def_cfa_offset 20
 149              		@ sp needed
 150 007a F0BD     		pop	{r4, r5, r6, r7, pc}
 151              	.LVL12:
 152              	.L12:
 153              		.cfi_restore_state
 154              		.loc 1 39 5 is_stmt 1 view .LVU49
 155 007c 1248     		ldr	r0, .L16+4
 156              		.loc 1 59 5 view .LVU50
 157              		.loc 1 87 1 is_stmt 0 view .LVU51
 158 007e 0DB0     		add	sp, sp, #52
 159              		.cfi_remember_state
 160              		.cfi_def_cfa_offset 20
 161              		@ sp needed
 162 0080 BDE8F040 		pop	{r4, r5, r6, r7, lr}
 163              		.cfi_restore 14
 164              		.cfi_restore 7
 165              		.cfi_restore 6
 166              		.cfi_restore 5
 167              		.cfi_restore 4
 168              		.cfi_def_cfa_offset 0
 169              		.loc 1 59 5 view .LVU52
 170 0084 FFF7FEBF 		b	chMtxUnlock
 171              	.LVL13:
ARM GAS  C:\Users\DEVELO~1\AppData\Local\Temp\ccpirKJb.s 			page 4


 172              	.L14:
 173              		.cfi_restore_state
 174              		.loc 1 57 5 is_stmt 1 view .LVU53
 175 0088 0F48     		ldr	r0, .L16+4
 176 008a FFF7FEFF 		bl	chMtxLock
 177              	.LVL14:
 178              		.loc 1 58 5 view .LVU54
 179              		.loc 1 58 21 is_stmt 0 view .LVU55
 180 008e 0223     		movs	r3, #2
 181              		.loc 1 59 5 view .LVU56
 182 0090 0D48     		ldr	r0, .L16+4
 183              		.loc 1 58 21 view .LVU57
 184 0092 2370     		strb	r3, [r4]
 185              		.loc 1 59 5 is_stmt 1 view .LVU58
 186              		.loc 1 87 1 is_stmt 0 view .LVU59
 187 0094 0DB0     		add	sp, sp, #52
 188              		.cfi_remember_state
 189              		.cfi_def_cfa_offset 20
 190              		@ sp needed
 191 0096 BDE8F040 		pop	{r4, r5, r6, r7, lr}
 192              		.cfi_restore 14
 193              		.cfi_restore 7
 194              		.cfi_restore 6
 195              		.cfi_restore 5
 196              		.cfi_restore 4
 197              		.cfi_def_cfa_offset 0
 198              		.loc 1 59 5 view .LVU60
 199 009a FFF7FEBF 		b	chMtxUnlock
 200              	.LVL15:
 201              	.L15:
 202              		.cfi_restore_state
 203              		.loc 1 78 34 discriminator 1 view .LVU61
 204 009e 9DF80C30 		ldrb	r3, [sp, #12]	@ zero_extendqisi2
 205              		.loc 1 78 16 discriminator 1 view .LVU62
 206 00a2 002B     		cmp	r3, #0
 207 00a4 E1D1     		bne	.L8
 208              		.loc 1 78 16 view .LVU63
 209 00a6 0222     		movs	r2, #2
 210 00a8 E1E7     		b	.L5
 211              	.LVL16:
 212              	.L13:
 213              		.loc 1 50 5 is_stmt 1 view .LVU64
 214 00aa 0748     		ldr	r0, .L16+4
 215 00ac FFF7FEFF 		bl	chMtxLock
 216              	.LVL17:
 217              		.loc 1 51 5 view .LVU65
 218              	.LBB10:
 219              	.LBI10:
 220              		.loc 1 18 13 view .LVU66
 221              	.LBB11:
 222              		.loc 1 19 3 view .LVU67
 223              		.loc 1 20 3 view .LVU68
 224              		.loc 1 19 19 is_stmt 0 view .LVU69
 225 00b0 4FF48273 		mov	r3, #260
 226              	.LBE11:
 227              	.LBE10:
 228              		.loc 1 52 5 view .LVU70
ARM GAS  C:\Users\DEVELO~1\AppData\Local\Temp\ccpirKJb.s 			page 5


 229 00b4 0448     		ldr	r0, .L16+4
 230              	.LBB13:
 231              	.LBB12:
 232              		.loc 1 19 19 view .LVU71
 233 00b6 2380     		strh	r3, [r4]	@ movhi
 234              	.LVL18:
 235              		.loc 1 19 19 view .LVU72
 236              	.LBE12:
 237              	.LBE13:
 238              		.loc 1 52 5 is_stmt 1 view .LVU73
 239              		.loc 1 59 5 view .LVU74
 240              		.loc 1 87 1 is_stmt 0 view .LVU75
 241 00b8 0DB0     		add	sp, sp, #52
 242              		.cfi_def_cfa_offset 20
 243              		@ sp needed
 244 00ba BDE8F040 		pop	{r4, r5, r6, r7, lr}
 245              		.cfi_restore 14
 246              		.cfi_restore 7
 247              		.cfi_restore 6
 248              		.cfi_restore 5
 249              		.cfi_restore 4
 250              		.cfi_def_cfa_offset 0
 251              		.loc 1 59 5 view .LVU76
 252 00be FFF7FEBF 		b	chMtxUnlock
 253              	.LVL19:
 254              	.L17:
 255 00c2 00BF     		.align	2
 256              	.L16:
 257 00c4 00000000 		.word	.LANCHOR1
 258 00c8 00000000 		.word	.LANCHOR0
 259              		.cfi_endproc
 260              	.LFE434:
 261              		.size	sdram_init, .-sdram_init
 262              		.section	.text.sdram_status,"ax",%progbits
 263              		.align	1
 264              		.p2align 4,,15
 265              		.global	sdram_status
 266              		.syntax unified
 267              		.thumb
 268              		.thumb_func
 269              		.type	sdram_status, %function
 270              	sdram_status:
 271              	.LFB435:
 272              		.loc 1 89 34 is_stmt 1 view -0
 273              		.cfi_startproc
 274              		@ args = 0, pretend = 0, frame = 0
 275              		@ frame_needed = 0, uses_anonymous_args = 0
 276              		.loc 1 90 3 view .LVU78
 277              		.loc 1 89 34 is_stmt 0 view .LVU79
 278 0000 10B5     		push	{r4, lr}
 279              		.cfi_def_cfa_offset 8
 280              		.cfi_offset 4, -8
 281              		.cfi_offset 14, -4
 282              		.loc 1 90 3 view .LVU80
 283 0002 054C     		ldr	r4, .L20
 284 0004 2046     		mov	r0, r4
 285 0006 FFF7FEFF 		bl	chMtxLock
ARM GAS  C:\Users\DEVELO~1\AppData\Local\Temp\ccpirKJb.s 			page 6


 286              	.LVL20:
 287              		.loc 1 91 3 is_stmt 1 view .LVU81
 288              		.loc 1 91 17 is_stmt 0 view .LVU82
 289 000a 044B     		ldr	r3, .L20+4
 290              		.loc 1 92 3 view .LVU83
 291 000c 2046     		mov	r0, r4
 292              		.loc 1 91 17 view .LVU84
 293 000e 1C78     		ldrb	r4, [r3]	@ zero_extendqisi2
 294              	.LVL21:
 295              		.loc 1 92 3 is_stmt 1 view .LVU85
 296 0010 FFF7FEFF 		bl	chMtxUnlock
 297              	.LVL22:
 298              		.loc 1 93 3 view .LVU86
 299              		.loc 1 94 1 is_stmt 0 view .LVU87
 300 0014 2046     		mov	r0, r4
 301 0016 10BD     		pop	{r4, pc}
 302              	.LVL23:
 303              	.L21:
 304              		.loc 1 94 1 view .LVU88
 305              		.align	2
 306              	.L20:
 307 0018 00000000 		.word	.LANCHOR0
 308 001c 00000000 		.word	.LANCHOR1
 309              		.cfi_endproc
 310              	.LFE435:
 311              		.size	sdram_status, .-sdram_status
 312              		.section	.text.sdram_get_error,"ax",%progbits
 313              		.align	1
 314              		.p2align 4,,15
 315              		.global	sdram_get_error
 316              		.syntax unified
 317              		.thumb
 318              		.thumb_func
 319              		.type	sdram_get_error, %function
 320              	sdram_get_error:
 321              	.LFB436:
 322              		.loc 1 96 37 is_stmt 1 view -0
 323              		.cfi_startproc
 324              		@ args = 0, pretend = 0, frame = 0
 325              		@ frame_needed = 0, uses_anonymous_args = 0
 326              		.loc 1 97 3 view .LVU90
 327              		.loc 1 96 37 is_stmt 0 view .LVU91
 328 0000 10B5     		push	{r4, lr}
 329              		.cfi_def_cfa_offset 8
 330              		.cfi_offset 4, -8
 331              		.cfi_offset 14, -4
 332              		.loc 1 97 3 view .LVU92
 333 0002 054C     		ldr	r4, .L24
 334 0004 2046     		mov	r0, r4
 335 0006 FFF7FEFF 		bl	chMtxLock
 336              	.LVL24:
 337              		.loc 1 98 3 is_stmt 1 view .LVU93
 338              		.loc 1 98 17 is_stmt 0 view .LVU94
 339 000a 044B     		ldr	r3, .L24+4
 340              		.loc 1 99 3 view .LVU95
 341 000c 2046     		mov	r0, r4
 342              		.loc 1 98 17 view .LVU96
ARM GAS  C:\Users\DEVELO~1\AppData\Local\Temp\ccpirKJb.s 			page 7


 343 000e 5C78     		ldrb	r4, [r3, #1]	@ zero_extendqisi2
 344              	.LVL25:
 345              		.loc 1 99 3 is_stmt 1 view .LVU97
 346 0010 FFF7FEFF 		bl	chMtxUnlock
 347              	.LVL26:
 348              		.loc 1 100 3 view .LVU98
 349              		.loc 1 101 1 is_stmt 0 view .LVU99
 350 0014 2046     		mov	r0, r4
 351 0016 10BD     		pop	{r4, pc}
 352              	.LVL27:
 353              	.L25:
 354              		.loc 1 101 1 view .LVU100
 355              		.align	2
 356              	.L24:
 357 0018 00000000 		.word	.LANCHOR0
 358 001c 00000000 		.word	.LANCHOR1
 359              		.cfi_endproc
 360              	.LFE436:
 361              		.size	sdram_get_error, .-sdram_get_error
 362              		.section	.text.sdram_run_bist,"ax",%progbits
 363              		.align	1
 364              		.p2align 4,,15
 365              		.global	sdram_run_bist
 366              		.syntax unified
 367              		.thumb
 368              		.thumb_func
 369              		.type	sdram_run_bist, %function
 370              	sdram_run_bist:
 371              	.LVL28:
 372              	.LFB437:
 373              		.loc 1 103 78 is_stmt 1 view -0
 374              		.cfi_startproc
 375              		@ args = 0, pretend = 0, frame = 48
 376              		@ frame_needed = 0, uses_anonymous_args = 0
 377              		.loc 1 104 3 view .LVU102
 378              		.loc 1 106 3 view .LVU103
 379              		.loc 1 103 78 is_stmt 0 view .LVU104
 380 0000 2DE9F043 		push	{r4, r5, r6, r7, r8, r9, lr}
 381              		.cfi_def_cfa_offset 28
 382              		.cfi_offset 4, -28
 383              		.cfi_offset 5, -24
 384              		.cfi_offset 6, -20
 385              		.cfi_offset 7, -16
 386              		.cfi_offset 8, -12
 387              		.cfi_offset 9, -8
 388              		.cfi_offset 14, -4
 389              		.loc 1 107 15 view .LVU105
 390 0004 2F4D     		ldr	r5, .L47
 391              		.loc 1 103 78 view .LVU106
 392 0006 8DB0     		sub	sp, sp, #52
 393              		.cfi_def_cfa_offset 80
 394              		.loc 1 103 78 view .LVU107
 395 0008 0646     		mov	r6, r0
 396              		.loc 1 106 3 view .LVU108
 397 000a 2F48     		ldr	r0, .L47+4
 398              	.LVL29:
 399              		.loc 1 103 78 view .LVU109
ARM GAS  C:\Users\DEVELO~1\AppData\Local\Temp\ccpirKJb.s 			page 8


 400 000c 0C46     		mov	r4, r1
 401              		.loc 1 106 3 view .LVU110
 402 000e FFF7FEFF 		bl	chMtxLock
 403              	.LVL30:
 404              		.loc 1 107 3 is_stmt 1 view .LVU111
 405              		.loc 1 107 15 is_stmt 0 view .LVU112
 406 0012 95F80090 		ldrb	r9, [r5]	@ zero_extendqisi2
 407              	.LVL31:
 408              		.loc 1 109 3 is_stmt 1 view .LVU113
 409              		.loc 1 109 6 is_stmt 0 view .LVU114
 410 0016 B9F1010F 		cmp	r9, #1
 411 001a 04D9     		bls	.L27
 412              		.loc 1 109 85 discriminator 1 view .LVU115
 413 001c 95F80280 		ldrb	r8, [r5, #2]	@ zero_extendqisi2
 414 0020 B8F1000F 		cmp	r8, #0
 415 0024 07D0     		beq	.L28
 416              	.L27:
 417              		.loc 1 110 5 is_stmt 1 view .LVU116
 418              		.loc 1 111 12 is_stmt 0 view .LVU117
 419 0026 0027     		movs	r7, #0
 420              		.loc 1 110 5 view .LVU118
 421 0028 2748     		ldr	r0, .L47+4
 422 002a FFF7FEFF 		bl	chMtxUnlock
 423              	.LVL32:
 424              		.loc 1 111 5 is_stmt 1 view .LVU119
 425              		.loc 1 151 1 is_stmt 0 view .LVU120
 426 002e 3846     		mov	r0, r7
 427 0030 0DB0     		add	sp, sp, #52
 428              		.cfi_remember_state
 429              		.cfi_def_cfa_offset 28
 430              		@ sp needed
 431 0032 BDE8F083 		pop	{r4, r5, r6, r7, r8, r9, pc}
 432              	.LVL33:
 433              	.L28:
 434              		.cfi_restore_state
 435              		.loc 1 114 3 is_stmt 1 view .LVU121
 436              		.loc 1 114 26 is_stmt 0 view .LVU122
 437 0036 0123     		movs	r3, #1
 438              		.loc 1 115 3 view .LVU123
 439 0038 2348     		ldr	r0, .L47+4
 440              		.loc 1 114 26 view .LVU124
 441 003a AB70     		strb	r3, [r5, #2]
 442              		.loc 1 115 3 is_stmt 1 view .LVU125
 443 003c FFF7FEFF 		bl	chMtxUnlock
 444              	.LVL34:
 445              		.loc 1 117 3 view .LVU126
 446              		.loc 1 117 24 is_stmt 0 view .LVU127
 447 0040 3022     		movs	r2, #48
 448 0042 4146     		mov	r1, r8
 449 0044 6846     		mov	r0, sp
 450 0046 FFF7FEFF 		bl	memset
 451              	.LVL35:
 452              		.loc 1 118 3 is_stmt 1 view .LVU128
 453              		.loc 1 121 18 is_stmt 0 view .LVU129
 454 004a 6846     		mov	r0, sp
 455              		.loc 1 118 12 view .LVU130
 456 004c 8DF80060 		strb	r6, [sp]
ARM GAS  C:\Users\DEVELO~1\AppData\Local\Temp\ccpirKJb.s 			page 9


 457              		.loc 1 119 3 is_stmt 1 view .LVU131
 458              		.loc 1 121 3 view .LVU132
 459              		.loc 1 121 18 is_stmt 0 view .LVU133
 460 0050 FFF7FEFF 		bl	sdram_bist_start
 461              	.LVL36:
 462 0054 0746     		mov	r7, r0
 463              	.LVL37:
 464              		.loc 1 123 3 is_stmt 1 view .LVU134
 465 0056 1C48     		ldr	r0, .L47+4
 466 0058 FFF7FEFF 		bl	chMtxLock
 467              	.LVL38:
 468              		.loc 1 124 3 view .LVU135
 469              		.loc 1 124 26 is_stmt 0 view .LVU136
 470 005c 85F80280 		strb	r8, [r5, #2]
 471              		.loc 1 126 3 is_stmt 1 view .LVU137
 472              		.loc 1 126 6 is_stmt 0 view .LVU138
 473 0060 BFB1     		cbz	r7, .L31
 474              		.loc 1 127 5 is_stmt 1 view .LVU139
 475              		.loc 1 127 32 is_stmt 0 view .LVU140
 476 0062 0DF10C0E 		add	lr, sp, #12
 477 0066 05F1040C 		add	ip, r5, #4
 478              		.loc 1 129 8 view .LVU141
 479 006a 9DF80C80 		ldrb	r8, [sp, #12]	@ zero_extendqisi2
 480              		.loc 1 127 32 view .LVU142
 481 006e BEE80F00 		ldmia	lr!, {r0, r1, r2, r3}
 482 0072 ACE80F00 		stmia	ip!, {r0, r1, r2, r3}
 483 0076 9EE80F00 		ldm	lr, {r0, r1, r2, r3}
 484 007a 8CE80F00 		stm	ip, {r0, r1, r2, r3}
 485              		.loc 1 129 5 is_stmt 1 view .LVU143
 486              		.loc 1 129 8 is_stmt 0 view .LVU144
 487 007e B8F1000F 		cmp	r8, #0
 488 0082 17D1     		bne	.L32
 489              		.loc 1 130 7 is_stmt 1 view .LVU145
 490              		.loc 1 130 10 is_stmt 0 view .LVU146
 491 0084 B9F1030F 		cmp	r9, #3
 492 0088 03D1     		bne	.L31
 493 008a 012E     		cmp	r6, #1
 494 008c 01D1     		bne	.L31
 495              		.loc 1 131 9 is_stmt 1 view .LVU147
 496              		.loc 1 132 9 view .LVU148
 497              		.loc 1 131 25 is_stmt 0 view .LVU149
 498 008e 0223     		movs	r3, #2
 499 0090 2B80     		strh	r3, [r5]	@ movhi
 500              	.L31:
 501              		.loc 1 145 3 is_stmt 1 view .LVU150
 502              		.loc 1 145 6 is_stmt 0 view .LVU151
 503 0092 44B1     		cbz	r4, .L35
 504              		.loc 1 146 5 is_stmt 1 view .LVU152
 505              		.loc 1 146 17 is_stmt 0 view .LVU153
 506 0094 0D4D     		ldr	r5, .L47+8
 507 0096 A446     		mov	ip, r4
 508 0098 0FCD     		ldmia	r5!, {r0, r1, r2, r3}
 509 009a ACE80F00 		stmia	ip!, {r0, r1, r2, r3}
 510 009e 95E80F00 		ldm	r5, {r0, r1, r2, r3}
 511 00a2 8CE80F00 		stm	ip, {r0, r1, r2, r3}
 512              	.L35:
 513              		.loc 1 149 3 is_stmt 1 view .LVU154
ARM GAS  C:\Users\DEVELO~1\AppData\Local\Temp\ccpirKJb.s 			page 10


 514 00a6 0848     		ldr	r0, .L47+4
 515 00a8 FFF7FEFF 		bl	chMtxUnlock
 516              	.LVL39:
 517              		.loc 1 150 3 view .LVU155
 518              		.loc 1 151 1 is_stmt 0 view .LVU156
 519 00ac 3846     		mov	r0, r7
 520 00ae 0DB0     		add	sp, sp, #52
 521              		.cfi_remember_state
 522              		.cfi_def_cfa_offset 28
 523              		@ sp needed
 524 00b0 BDE8F083 		pop	{r4, r5, r6, r7, r8, r9, pc}
 525              	.LVL40:
 526              	.L32:
 527              		.cfi_restore_state
 528              		.loc 1 135 7 is_stmt 1 view .LVU157
 529              		.loc 1 135 28 is_stmt 0 view .LVU158
 530 00b4 0423     		movs	r3, #4
 531              		.loc 1 137 10 view .LVU159
 532 00b6 012E     		cmp	r6, #1
 533              		.loc 1 135 28 view .LVU160
 534 00b8 6B70     		strb	r3, [r5, #1]
 535              		.loc 1 137 7 is_stmt 1 view .LVU161
 536              		.loc 1 138 9 view .LVU162
 537              		.loc 1 140 9 view .LVU163
 538              		.loc 1 140 25 is_stmt 0 view .LVU164
 539 00ba 18BF     		it	ne
 540 00bc 0323     		movne	r3, #3
 541 00be 2B70     		strb	r3, [r5]
 542 00c0 E7E7     		b	.L31
 543              	.L48:
 544 00c2 00BF     		.align	2
 545              	.L47:
 546 00c4 00000000 		.word	.LANCHOR1
 547 00c8 00000000 		.word	.LANCHOR0
 548 00cc 04000000 		.word	.LANCHOR1+4
 549              		.cfi_endproc
 550              	.LFE437:
 551              		.size	sdram_run_bist, .-sdram_run_bist
 552              		.section	.text.sdram_get_region,"ax",%progbits
 553              		.align	1
 554              		.p2align 4,,15
 555              		.global	sdram_get_region
 556              		.syntax unified
 557              		.thumb
 558              		.thumb_func
 559              		.type	sdram_get_region, %function
 560              	sdram_get_region:
 561              	.LVL41:
 562              	.LFB438:
 563              		.loc 1 153 83 is_stmt 1 view -0
 564              		.cfi_startproc
 565              		@ args = 0, pretend = 0, frame = 0
 566              		@ frame_needed = 0, uses_anonymous_args = 0
 567              		.loc 1 154 3 view .LVU166
 568              		.loc 1 153 83 is_stmt 0 view .LVU167
 569 0000 F8B5     		push	{r3, r4, r5, r6, r7, lr}
 570              		.cfi_def_cfa_offset 24
ARM GAS  C:\Users\DEVELO~1\AppData\Local\Temp\ccpirKJb.s 			page 11


 571              		.cfi_offset 3, -24
 572              		.cfi_offset 4, -20
 573              		.cfi_offset 5, -16
 574              		.cfi_offset 6, -12
 575              		.cfi_offset 7, -8
 576              		.cfi_offset 14, -4
 577              		.loc 1 154 6 view .LVU168
 578 0002 0C46     		mov	r4, r1
 579 0004 E9B1     		cbz	r1, .L54
 580              		.loc 1 158 3 is_stmt 1 view .LVU169
 581 0006 0546     		mov	r5, r0
 582 0008 0F48     		ldr	r0, .L62
 583              	.LVL42:
 584              		.loc 1 158 3 is_stmt 0 view .LVU170
 585 000a FFF7FEFF 		bl	chMtxLock
 586              	.LVL43:
 587              		.loc 1 159 3 is_stmt 1 view .LVU171
 588              		.loc 1 159 17 is_stmt 0 view .LVU172
 589 000e 0F4B     		ldr	r3, .L62+4
 590              		.loc 1 161 3 view .LVU173
 591 0010 0D48     		ldr	r0, .L62
 592              		.loc 1 159 17 view .LVU174
 593 0012 1E78     		ldrb	r6, [r3]	@ zero_extendqisi2
 594              	.LVL44:
 595              		.loc 1 160 3 is_stmt 1 view .LVU175
 596              		.loc 1 160 8 is_stmt 0 view .LVU176
 597 0014 9F78     		ldrb	r7, [r3, #2]	@ zero_extendqisi2
 598              	.LVL45:
 599              		.loc 1 161 3 is_stmt 1 view .LVU177
 600 0016 FFF7FEFF 		bl	chMtxUnlock
 601              	.LVL46:
 602              		.loc 1 163 3 view .LVU178
 603              		.loc 1 163 6 is_stmt 0 view .LVU179
 604 001a 042E     		cmp	r6, #4
 605 001c 08D0     		beq	.L53
 606 001e 3FB9     		cbnz	r7, .L53
 607              		.loc 1 168 3 is_stmt 1 view .LVU180
 608              		.loc 1 168 6 is_stmt 0 view .LVU181
 609 0020 032D     		cmp	r5, #3
 610 0022 05D0     		beq	.L53
 611              		.loc 1 173 3 is_stmt 1 view .LVU182
 612              		.loc 1 173 8 is_stmt 0 view .LVU183
 613 0024 2146     		mov	r1, r4
 614 0026 2846     		mov	r0, r5
 615 0028 FFF7FEFF 		bl	sdram_query_region_descriptor
 616              	.LVL47:
 617              		.loc 1 173 6 view .LVU184
 618 002c 00B1     		cbz	r0, .L53
 619              		.loc 1 179 1 view .LVU185
 620 002e F8BD     		pop	{r3, r4, r5, r6, r7, pc}
 621              	.LVL48:
 622              	.L53:
 623              		.loc 1 164 5 is_stmt 1 view .LVU186
 624              	.LBB14:
 625              	.LBI14:
 626              		.loc 1 23 13 view .LVU187
 627              	.LBB15:
ARM GAS  C:\Users\DEVELO~1\AppData\Local\Temp\ccpirKJb.s 			page 12


 628              		.loc 1 24 3 view .LVU188
 629              		.loc 1 28 3 view .LVU189
 630              		.loc 1 29 14 is_stmt 0 view .LVU190
 631 0030 0023     		movs	r3, #0
 632              		.loc 1 28 12 view .LVU191
 633 0032 0422     		movs	r2, #4
 634              	.LBE15:
 635              	.LBE14:
 636              		.loc 1 165 12 view .LVU192
 637 0034 1846     		mov	r0, r3
 638              	.LBB17:
 639              	.LBB16:
 640              		.loc 1 28 12 view .LVU193
 641 0036 2270     		strb	r2, [r4]
 642              		.loc 1 29 3 is_stmt 1 view .LVU194
 643              		.loc 1 30 20 is_stmt 0 view .LVU195
 644 0038 C4E90133 		strd	r3, r3, [r4, #4]
 645              		.loc 1 31 3 is_stmt 1 view .LVU196
 646              		.loc 1 32 25 is_stmt 0 view .LVU197
 647 003c C4E90333 		strd	r3, r3, [r4, #12]
 648              	.LVL49:
 649              		.loc 1 32 25 view .LVU198
 650              	.LBE16:
 651              	.LBE17:
 652              		.loc 1 165 5 is_stmt 1 view .LVU199
 653              		.loc 1 179 1 is_stmt 0 view .LVU200
 654 0040 F8BD     		pop	{r3, r4, r5, r6, r7, pc}
 655              	.LVL50:
 656              	.L54:
 657              		.loc 1 155 12 view .LVU201
 658 0042 0846     		mov	r0, r1
 659              	.LVL51:
 660              		.loc 1 179 1 view .LVU202
 661 0044 F8BD     		pop	{r3, r4, r5, r6, r7, pc}
 662              	.L63:
 663 0046 00BF     		.align	2
 664              	.L62:
 665 0048 00000000 		.word	.LANCHOR0
 666 004c 00000000 		.word	.LANCHOR1
 667              		.cfi_endproc
 668              	.LFE438:
 669              		.size	sdram_get_region, .-sdram_get_region
 670              		.global	sdram_ctx_mtx
 671              		.global	sdram_ctx
 672              		.section	.bss.sdram_ctx,"aw",%nobits
 673              		.align	2
 674              		.set	.LANCHOR1,. + 0
 675              		.type	sdram_ctx, %object
 676              		.size	sdram_ctx, 36
 677              	sdram_ctx:
 678 0000 00000000 		.space	36
 678      00000000 
 678      00000000 
 678      00000000 
 678      00000000 
 679              		.section	.data.sdram_ctx_mtx,"aw"
 680              		.align	2
ARM GAS  C:\Users\DEVELO~1\AppData\Local\Temp\ccpirKJb.s 			page 13


 681              		.set	.LANCHOR0,. + 0
 682              		.type	sdram_ctx_mtx, %object
 683              		.size	sdram_ctx_mtx, 16
 684              	sdram_ctx_mtx:
 685 0000 00000000 		.word	sdram_ctx_mtx
 686 0004 00000000 		.word	sdram_ctx_mtx
 687 0008 00000000 		.word	0
 688 000c 00000000 		.word	0
 689              		.text
 690              	.Letext0:
 691              		.file 2 "c:\\chibistudio\\tools\\gnu tools arm embedded\\11.3 2022.08\\arm-none-eabi\\include\\mac
 692              		.file 3 "c:\\chibistudio\\tools\\gnu tools arm embedded\\11.3 2022.08\\arm-none-eabi\\include\\sys
 693              		.file 4 "../../../os/common/ports/ARM-common/chtypes.h"
 694              		.file 5 "../../../os/rt/include/chearly.h"
 695              		.file 6 "../../../os/rt/include/chobjects.h"
 696              		.file 7 "../../../os/rt/include/chrfcu.h"
 697              		.file 8 "../../../os/rt/include/chdebug.h"
 698              		.file 9 "../../../os/rt/include/chtime.h"
 699              		.file 10 "../../../os/rt/include/chlists.h"
 700              		.file 11 "../../../os/rt/include/chtrace.h"
 701              		.file 12 "../../../os/common/ports/ARMv7-M/chcore.h"
 702              		.file 13 "../../../os/rt/include/chsem.h"
 703              		.file 14 "../../../os/rt/include/chmtx.h"
 704              		.file 15 "drivers/sdram/sdram_driver.h"
 705              		.file 16 "drivers/sdram/sdram_driver_priv.h"
 706              		.file 17 "<built-in>"
 707              		.section	.debug_info,"",%progbits
 708              	.Ldebug_info0:
 709 0000 8B100000 		.4byte	0x108b
 710 0004 0500     		.2byte	0x5
 711 0006 01       		.byte	0x1
 712 0007 04       		.byte	0x4
 713 0008 00000000 		.4byte	.Ldebug_abbrev0
 714 000c 23       		.uleb128 0x23
 715 000d 0C040000 		.4byte	.LASF202
 716 0011 1D       		.byte	0x1d
 717 0012 0A0B0000 		.4byte	.LASF203
 718 0016 78000000 		.4byte	.LASF204
 719 001a 24000000 		.4byte	.LLRL16
 720 001e 00000000 		.4byte	0
 721 0022 00000000 		.4byte	.Ldebug_line0
 722 0026 24       		.uleb128 0x24
 723 0027 04       		.byte	0x4
 724 0028 05       		.byte	0x5
 725 0029 696E7400 		.ascii	"int\000"
 726 002d 08       		.uleb128 0x8
 727 002e 04       		.byte	0x4
 728 002f 07       		.byte	0x7
 729 0030 98030000 		.4byte	.LASF0
 730 0034 08       		.uleb128 0x8
 731 0035 08       		.byte	0x8
 732 0036 05       		.byte	0x5
 733 0037 8F020000 		.4byte	.LASF1
 734 003b 08       		.uleb128 0x8
 735 003c 08       		.byte	0x8
 736 003d 04       		.byte	0x4
 737 003e 39080000 		.4byte	.LASF2
ARM GAS  C:\Users\DEVELO~1\AppData\Local\Temp\ccpirKJb.s 			page 14


 738 0042 08       		.uleb128 0x8
 739 0043 01       		.byte	0x1
 740 0044 06       		.byte	0x6
 741 0045 62000000 		.4byte	.LASF3
 742 0049 02       		.uleb128 0x2
 743 004a 6E000000 		.4byte	.LASF6
 744 004e 02       		.byte	0x2
 745 004f 2B       		.byte	0x2b
 746 0050 18       		.byte	0x18
 747 0051 55000000 		.4byte	0x55
 748 0055 08       		.uleb128 0x8
 749 0056 01       		.byte	0x1
 750 0057 08       		.byte	0x8
 751 0058 6C070000 		.4byte	.LASF4
 752 005c 08       		.uleb128 0x8
 753 005d 02       		.byte	0x2
 754 005e 05       		.byte	0x5
 755 005f 81070000 		.4byte	.LASF5
 756 0063 02       		.uleb128 0x2
 757 0064 6F080000 		.4byte	.LASF7
 758 0068 02       		.byte	0x2
 759 0069 39       		.byte	0x39
 760 006a 19       		.byte	0x19
 761 006b 6F000000 		.4byte	0x6f
 762 006f 08       		.uleb128 0x8
 763 0070 02       		.byte	0x2
 764 0071 07       		.byte	0x7
 765 0072 FE040000 		.4byte	.LASF8
 766 0076 02       		.uleb128 0x2
 767 0077 8C050000 		.4byte	.LASF9
 768 007b 02       		.byte	0x2
 769 007c 4D       		.byte	0x4d
 770 007d 18       		.byte	0x18
 771 007e 82000000 		.4byte	0x82
 772 0082 08       		.uleb128 0x8
 773 0083 04       		.byte	0x4
 774 0084 05       		.byte	0x5
 775 0085 6C020000 		.4byte	.LASF10
 776 0089 02       		.uleb128 0x2
 777 008a 14030000 		.4byte	.LASF11
 778 008e 02       		.byte	0x2
 779 008f 4F       		.byte	0x4f
 780 0090 19       		.byte	0x19
 781 0091 95000000 		.4byte	0x95
 782 0095 08       		.uleb128 0x8
 783 0096 04       		.byte	0x4
 784 0097 07       		.byte	0x7
 785 0098 D8030000 		.4byte	.LASF12
 786 009c 02       		.uleb128 0x2
 787 009d 07070000 		.4byte	.LASF13
 788 00a1 02       		.byte	0x2
 789 00a2 69       		.byte	0x69
 790 00a3 19       		.byte	0x19
 791 00a4 A8000000 		.4byte	0xa8
 792 00a8 08       		.uleb128 0x8
 793 00a9 08       		.byte	0x8
 794 00aa 07       		.byte	0x7
ARM GAS  C:\Users\DEVELO~1\AppData\Local\Temp\ccpirKJb.s 			page 15


 795 00ab 21020000 		.4byte	.LASF14
 796 00af 02       		.uleb128 0x2
 797 00b0 A9070000 		.4byte	.LASF15
 798 00b4 02       		.byte	0x2
 799 00b5 E8       		.byte	0xe8
 800 00b6 1A       		.byte	0x1a
 801 00b7 2D000000 		.4byte	0x2d
 802 00bb 02       		.uleb128 0x2
 803 00bc 1C0A0000 		.4byte	.LASF16
 804 00c0 03       		.byte	0x3
 805 00c1 18       		.byte	0x18
 806 00c2 13       		.byte	0x13
 807 00c3 49000000 		.4byte	0x49
 808 00c7 02       		.uleb128 0x2
 809 00c8 9D020000 		.4byte	.LASF17
 810 00cc 03       		.byte	0x3
 811 00cd 24       		.byte	0x24
 812 00ce 14       		.byte	0x14
 813 00cf 63000000 		.4byte	0x63
 814 00d3 02       		.uleb128 0x2
 815 00d4 64070000 		.4byte	.LASF18
 816 00d8 03       		.byte	0x3
 817 00d9 2C       		.byte	0x2c
 818 00da 13       		.byte	0x13
 819 00db 76000000 		.4byte	0x76
 820 00df 02       		.uleb128 0x2
 821 00e0 05080000 		.4byte	.LASF19
 822 00e4 03       		.byte	0x3
 823 00e5 30       		.byte	0x30
 824 00e6 14       		.byte	0x14
 825 00e7 89000000 		.4byte	0x89
 826 00eb 02       		.uleb128 0x2
 827 00ec 7D060000 		.4byte	.LASF20
 828 00f0 03       		.byte	0x3
 829 00f1 3C       		.byte	0x3c
 830 00f2 14       		.byte	0x14
 831 00f3 9C000000 		.4byte	0x9c
 832 00f7 16       		.uleb128 0x16
 833 00f8 EB000000 		.4byte	0xeb
 834 00fc 02       		.uleb128 0x2
 835 00fd 35000000 		.4byte	.LASF21
 836 0101 03       		.byte	0x3
 837 0102 52       		.byte	0x52
 838 0103 15       		.byte	0x15
 839 0104 AF000000 		.4byte	0xaf
 840 0108 02       		.uleb128 0x2
 841 0109 15080000 		.4byte	.LASF22
 842 010d 04       		.byte	0x4
 843 010e 48       		.byte	0x48
 844 010f 1D       		.byte	0x1d
 845 0110 EB000000 		.4byte	0xeb
 846 0114 02       		.uleb128 0x2
 847 0115 A1050000 		.4byte	.LASF23
 848 0119 05       		.byte	0x5
 849 011a 50       		.byte	0x50
 850 011b 19       		.byte	0x19
 851 011c 08010000 		.4byte	0x108
ARM GAS  C:\Users\DEVELO~1\AppData\Local\Temp\ccpirKJb.s 			page 16


 852 0120 02       		.uleb128 0x2
 853 0121 62050000 		.4byte	.LASF24
 854 0125 05       		.byte	0x5
 855 0126 53       		.byte	0x53
 856 0127 19       		.byte	0x19
 857 0128 BB000000 		.4byte	0xbb
 858 012c 02       		.uleb128 0x2
 859 012d 75020000 		.4byte	.LASF25
 860 0131 05       		.byte	0x5
 861 0132 54       		.byte	0x54
 862 0133 19       		.byte	0x19
 863 0134 BB000000 		.4byte	0xbb
 864 0138 02       		.uleb128 0x2
 865 0139 22070000 		.4byte	.LASF26
 866 013d 05       		.byte	0x5
 867 013e 55       		.byte	0x55
 868 013f 19       		.byte	0x19
 869 0140 BB000000 		.4byte	0xbb
 870 0144 02       		.uleb128 0x2
 871 0145 46070000 		.4byte	.LASF27
 872 0149 05       		.byte	0x5
 873 014a 57       		.byte	0x57
 874 014b 19       		.byte	0x19
 875 014c DF000000 		.4byte	0xdf
 876 0150 02       		.uleb128 0x2
 877 0151 3E050000 		.4byte	.LASF28
 878 0155 05       		.byte	0x5
 879 0156 58       		.byte	0x58
 880 0157 19       		.byte	0x19
 881 0158 D3000000 		.4byte	0xd3
 882 015c 02       		.uleb128 0x2
 883 015d 80050000 		.4byte	.LASF29
 884 0161 05       		.byte	0x5
 885 0162 5A       		.byte	0x5a
 886 0163 19       		.byte	0x19
 887 0164 DF000000 		.4byte	0xdf
 888 0168 02       		.uleb128 0x2
 889 0169 89030000 		.4byte	.LASF30
 890 016d 05       		.byte	0x5
 891 016e 5C       		.byte	0x5c
 892 016f 19       		.byte	0x19
 893 0170 D3000000 		.4byte	0xd3
 894 0174 02       		.uleb128 0x2
 895 0175 18070000 		.4byte	.LASF31
 896 0179 05       		.byte	0x5
 897 017a 80       		.byte	0x80
 898 017b 12       		.byte	0x12
 899 017c 2D000000 		.4byte	0x2d
 900 0180 02       		.uleb128 0x2
 901 0181 91080000 		.4byte	.LASF32
 902 0185 05       		.byte	0x5
 903 0186 85       		.byte	0x85
 904 0187 1A       		.byte	0x1a
 905 0188 8C010000 		.4byte	0x18c
 906 018c 0A       		.uleb128 0xa
 907 018d 29050000 		.4byte	.LASF47
 908 0191 48       		.byte	0x48
ARM GAS  C:\Users\DEVELO~1\AppData\Local\Temp\ccpirKJb.s 			page 17


 909 0192 06       		.byte	0x6
 910 0193 9C       		.byte	0x9c
 911 0194 08       		.byte	0x8
 912 0195 69020000 		.4byte	0x269
 913 0199 0B       		.uleb128 0xb
 914 019a 68647200 		.ascii	"hdr\000"
 915 019e 06       		.byte	0x6
 916 019f AD       		.byte	0xad
 917 01a0 05       		.byte	0x5
 918 01a1 1F070000 		.4byte	0x71f
 919 01a5 00       		.byte	0
 920 01a6 0B       		.uleb128 0xb
 921 01a7 63747800 		.ascii	"ctx\000"
 922 01ab 06       		.byte	0x6
 923 01ac B1       		.byte	0xb1
 924 01ad 21       		.byte	0x21
 925 01ae 8A060000 		.4byte	0x68a
 926 01b2 0C       		.byte	0xc
 927 01b3 01       		.uleb128 0x1
 928 01b4 EA030000 		.4byte	.LASF33
 929 01b8 06       		.byte	0x6
 930 01b9 B6       		.byte	0xb6
 931 01ba 21       		.byte	0x21
 932 01bb AF030000 		.4byte	0x3af
 933 01bf 10       		.byte	0x10
 934 01c0 01       		.uleb128 0x1
 935 01c1 25080000 		.4byte	.LASF34
 936 01c5 06       		.byte	0x6
 937 01c6 BB       		.byte	0xbb
 938 01c7 22       		.byte	0x22
 939 01c8 21080000 		.4byte	0x821
 940 01cc 18       		.byte	0x18
 941 01cd 01       		.uleb128 0x1
 942 01ce C1040000 		.4byte	.LASF35
 943 01d2 06       		.byte	0x6
 944 01d3 C0       		.byte	0xc0
 945 01d4 22       		.byte	0x22
 946 01d5 49030000 		.4byte	0x349
 947 01d9 1C       		.byte	0x1c
 948 01da 01       		.uleb128 0x1
 949 01db 45080000 		.4byte	.LASF36
 950 01df 06       		.byte	0x6
 951 01e0 C9       		.byte	0xc9
 952 01e1 22       		.byte	0x22
 953 01e2 26080000 		.4byte	0x826
 954 01e6 20       		.byte	0x20
 955 01e7 01       		.uleb128 0x1
 956 01e8 5B020000 		.4byte	.LASF37
 957 01ec 06       		.byte	0x6
 958 01ed CE       		.byte	0xce
 959 01ee 21       		.byte	0x21
 960 01ef 2C010000 		.4byte	0x12c
 961 01f3 24       		.byte	0x24
 962 01f4 01       		.uleb128 0x1
 963 01f5 240A0000 		.4byte	.LASF38
 964 01f9 06       		.byte	0x6
 965 01fa D2       		.byte	0xd2
ARM GAS  C:\Users\DEVELO~1\AppData\Local\Temp\ccpirKJb.s 			page 18


 966 01fb 21       		.byte	0x21
 967 01fc 20010000 		.4byte	0x120
 968 0200 25       		.byte	0x25
 969 0201 01       		.uleb128 0x1
 970 0202 2A070000 		.4byte	.LASF39
 971 0206 06       		.byte	0x6
 972 0207 D7       		.byte	0xd7
 973 0208 21       		.byte	0x21
 974 0209 38010000 		.4byte	0x138
 975 020d 26       		.byte	0x26
 976 020e 09       		.uleb128 0x9
 977 020f 7500     		.ascii	"u\000"
 978 0211 06       		.byte	0x6
 979 0212 2801     		.2byte	0x128
 980 0214 21       		.byte	0x21
 981 0215 4C070000 		.4byte	0x74c
 982 0219 28       		.byte	0x28
 983 021a 05       		.uleb128 0x5
 984 021b 38030000 		.4byte	.LASF40
 985 021f 2D01     		.2byte	0x12d
 986 0221 21       		.byte	0x21
 987 0222 83030000 		.4byte	0x383
 988 0226 2C       		.byte	0x2c
 989 0227 05       		.uleb128 0x5
 990 0228 8F030000 		.4byte	.LASF41
 991 022c 3301     		.2byte	0x133
 992 022e 21       		.byte	0x21
 993 022f AF030000 		.4byte	0x3af
 994 0233 30       		.byte	0x30
 995 0234 05       		.uleb128 0x5
 996 0235 44050000 		.4byte	.LASF42
 997 0239 3901     		.2byte	0x139
 998 023b 21       		.byte	0x21
 999 023c 5C010000 		.4byte	0x15c
 1000 0240 38       		.byte	0x38
 1001 0241 05       		.uleb128 0x5
 1002 0242 EF0A0000 		.4byte	.LASF43
 1003 0246 4001     		.2byte	0x140
 1004 0248 22       		.byte	0x22
 1005 0249 1C080000 		.4byte	0x81c
 1006 024d 3C       		.byte	0x3c
 1007 024e 05       		.uleb128 0x5
 1008 024f C3050000 		.4byte	.LASF44
 1009 0253 4401     		.2byte	0x144
 1010 0255 21       		.byte	0x21
 1011 0256 44010000 		.4byte	0x144
 1012 025a 40       		.byte	0x40
 1013 025b 05       		.uleb128 0x5
 1014 025c CC040000 		.4byte	.LASF45
 1015 0260 4B01     		.2byte	0x14b
 1016 0262 22       		.byte	0x22
 1017 0263 9D040000 		.4byte	0x49d
 1018 0267 44       		.byte	0x44
 1019 0268 00       		.byte	0
 1020 0269 02       		.uleb128 0x2
 1021 026a 02090000 		.4byte	.LASF46
 1022 026e 05       		.byte	0x5
ARM GAS  C:\Users\DEVELO~1\AppData\Local\Temp\ccpirKJb.s 			page 19


 1023 026f 8A       		.byte	0x8a
 1024 0270 1F       		.byte	0x1f
 1025 0271 75020000 		.4byte	0x275
 1026 0275 25       		.uleb128 0x25
 1027 0276 F3080000 		.4byte	.LASF48
 1028 027a 9008     		.2byte	0x890
 1029 027c 06       		.byte	0x6
 1030 027d 8A01     		.2byte	0x18a
 1031 027f 08       		.byte	0x8
 1032 0280 FB020000 		.4byte	0x2fb
 1033 0284 05       		.uleb128 0x5
 1034 0285 160A0000 		.4byte	.LASF49
 1035 0289 8E01     		.2byte	0x18e
 1036 028b 21       		.byte	0x21
 1037 028c 54080000 		.4byte	0x854
 1038 0290 00       		.byte	0
 1039 0291 05       		.uleb128 0x5
 1040 0292 DA000000 		.4byte	.LASF50
 1041 0296 9201     		.2byte	0x192
 1042 0298 21       		.byte	0x21
 1043 0299 E0060000 		.4byte	0x6e0
 1044 029d 10       		.byte	0x10
 1045 029e 05       		.uleb128 0x5
 1046 029f 28090000 		.4byte	.LASF51
 1047 02a3 9901     		.2byte	0x199
 1048 02a5 21       		.byte	0x21
 1049 02a6 07070000 		.4byte	0x707
 1050 02aa 28       		.byte	0x28
 1051 02ab 05       		.uleb128 0x5
 1052 02ac B5070000 		.4byte	.LASF52
 1053 02b0 9E01     		.2byte	0x19e
 1054 02b2 21       		.byte	0x21
 1055 02b3 74010000 		.4byte	0x174
 1056 02b7 30       		.byte	0x30
 1057 02b8 05       		.uleb128 0x5
 1058 02b9 5D000000 		.4byte	.LASF53
 1059 02bd A401     		.2byte	0x1a4
 1060 02bf 21       		.byte	0x21
 1061 02c0 22030000 		.4byte	0x322
 1062 02c4 34       		.byte	0x34
 1063 02c5 05       		.uleb128 0x5
 1064 02c6 68080000 		.4byte	.LASF54
 1065 02ca A901     		.2byte	0x1a9
 1066 02cc 22       		.byte	0x22
 1067 02cd BF080000 		.4byte	0x8bf
 1068 02d1 38       		.byte	0x38
 1069 02d2 05       		.uleb128 0x5
 1070 02d3 54010000 		.4byte	.LASF55
 1071 02d7 AD01     		.2byte	0x1ad
 1072 02d9 21       		.byte	0x21
 1073 02da 80010000 		.4byte	0x180
 1074 02de 3C       		.byte	0x3c
 1075 02df 09       		.uleb128 0x9
 1076 02e0 64626700 		.ascii	"dbg\000"
 1077 02e4 06       		.byte	0x6
 1078 02e5 B101     		.2byte	0x1b1
 1079 02e7 21       		.byte	0x21
ARM GAS  C:\Users\DEVELO~1\AppData\Local\Temp\ccpirKJb.s 			page 20


 1080 02e8 5F030000 		.4byte	0x35f
 1081 02ec 84       		.byte	0x84
 1082 02ed 05       		.uleb128 0x5
 1083 02ee B30A0000 		.4byte	.LASF56
 1084 02f2 B601     		.2byte	0x1b6
 1085 02f4 21       		.byte	0x21
 1086 02f5 F8050000 		.4byte	0x5f8
 1087 02f9 88       		.byte	0x88
 1088 02fa 00       		.byte	0
 1089 02fb 02       		.uleb128 0x2
 1090 02fc CC050000 		.4byte	.LASF57
 1091 0300 07       		.byte	0x7
 1092 0301 3F       		.byte	0x3f
 1093 0302 12       		.byte	0x12
 1094 0303 DF000000 		.4byte	0xdf
 1095 0307 0A       		.uleb128 0xa
 1096 0308 7E020000 		.4byte	.LASF58
 1097 030c 04       		.byte	0x4
 1098 030d 07       		.byte	0x7
 1099 030e 44       		.byte	0x44
 1100 030f 10       		.byte	0x10
 1101 0310 22030000 		.4byte	0x322
 1102 0314 01       		.uleb128 0x1
 1103 0315 1F030000 		.4byte	.LASF59
 1104 0319 07       		.byte	0x7
 1105 031a 48       		.byte	0x48
 1106 031b 21       		.byte	0x21
 1107 031c FB020000 		.4byte	0x2fb
 1108 0320 00       		.byte	0
 1109 0321 00       		.byte	0
 1110 0322 02       		.uleb128 0x2
 1111 0323 7A070000 		.4byte	.LASF60
 1112 0327 07       		.byte	0x7
 1113 0328 49       		.byte	0x49
 1114 0329 03       		.byte	0x3
 1115 032a 07030000 		.4byte	0x307
 1116 032e 0A       		.uleb128 0xa
 1117 032f 4E070000 		.4byte	.LASF61
 1118 0333 04       		.byte	0x4
 1119 0334 08       		.byte	0x8
 1120 0335 3E       		.byte	0x3e
 1121 0336 10       		.byte	0x10
 1122 0337 49030000 		.4byte	0x349
 1123 033b 01       		.uleb128 0x1
 1124 033c E2080000 		.4byte	.LASF62
 1125 0340 08       		.byte	0x8
 1126 0341 46       		.byte	0x46
 1127 0342 24       		.byte	0x24
 1128 0343 4E030000 		.4byte	0x34e
 1129 0347 00       		.byte	0
 1130 0348 00       		.byte	0
 1131 0349 07       		.uleb128 0x7
 1132 034a 5A030000 		.4byte	0x35a
 1133 034e 16       		.uleb128 0x16
 1134 034f 49030000 		.4byte	0x349
 1135 0353 08       		.uleb128 0x8
 1136 0354 01       		.byte	0x1
ARM GAS  C:\Users\DEVELO~1\AppData\Local\Temp\ccpirKJb.s 			page 21


 1137 0355 08       		.byte	0x8
 1138 0356 4C080000 		.4byte	.LASF63
 1139 035a 17       		.uleb128 0x17
 1140 035b 53030000 		.4byte	0x353
 1141 035f 02       		.uleb128 0x2
 1142 0360 C9030000 		.4byte	.LASF64
 1143 0364 08       		.byte	0x8
 1144 0365 51       		.byte	0x51
 1145 0366 03       		.byte	0x3
 1146 0367 2E030000 		.4byte	0x32e
 1147 036b 02       		.uleb128 0x2
 1148 036c AA080000 		.4byte	.LASF65
 1149 0370 09       		.byte	0x9
 1150 0371 6D       		.byte	0x6d
 1151 0372 12       		.byte	0x12
 1152 0373 DF000000 		.4byte	0xdf
 1153 0377 02       		.uleb128 0x2
 1154 0378 7B030000 		.4byte	.LASF66
 1155 037c 09       		.byte	0x9
 1156 037d 79       		.byte	0x79
 1157 037e 12       		.byte	0x12
 1158 037f DF000000 		.4byte	0xdf
 1159 0383 02       		.uleb128 0x2
 1160 0384 29060000 		.4byte	.LASF67
 1161 0388 0A       		.byte	0xa
 1162 0389 32       		.byte	0x32
 1163 038a 18       		.byte	0x18
 1164 038b 8F030000 		.4byte	0x38f
 1165 038f 0A       		.uleb128 0xa
 1166 0390 6A050000 		.4byte	.LASF68
 1167 0394 04       		.byte	0x4
 1168 0395 0A       		.byte	0xa
 1169 0396 38       		.byte	0x38
 1170 0397 08       		.byte	0x8
 1171 0398 AA030000 		.4byte	0x3aa
 1172 039c 01       		.uleb128 0x1
 1173 039d 9A010000 		.4byte	.LASF69
 1174 03a1 0A       		.byte	0xa
 1175 03a2 39       		.byte	0x39
 1176 03a3 1A       		.byte	0x1a
 1177 03a4 AA030000 		.4byte	0x3aa
 1178 03a8 00       		.byte	0
 1179 03a9 00       		.byte	0
 1180 03aa 07       		.uleb128 0x7
 1181 03ab 83030000 		.4byte	0x383
 1182 03af 02       		.uleb128 0x2
 1183 03b0 F1030000 		.4byte	.LASF70
 1184 03b4 0A       		.byte	0xa
 1185 03b5 3F       		.byte	0x3f
 1186 03b6 19       		.byte	0x19
 1187 03b7 BB030000 		.4byte	0x3bb
 1188 03bb 0A       		.uleb128 0xa
 1189 03bc 86020000 		.4byte	.LASF71
 1190 03c0 08       		.byte	0x8
 1191 03c1 0A       		.byte	0xa
 1192 03c2 45       		.byte	0x45
 1193 03c3 08       		.byte	0x8
ARM GAS  C:\Users\DEVELO~1\AppData\Local\Temp\ccpirKJb.s 			page 22


 1194 03c4 E3030000 		.4byte	0x3e3
 1195 03c8 01       		.uleb128 0x1
 1196 03c9 9A010000 		.4byte	.LASF69
 1197 03cd 0A       		.byte	0xa
 1198 03ce 46       		.byte	0x46
 1199 03cf 1A       		.byte	0x1a
 1200 03d0 E3030000 		.4byte	0x3e3
 1201 03d4 00       		.byte	0
 1202 03d5 01       		.uleb128 0x1
 1203 03d6 1D000000 		.4byte	.LASF72
 1204 03da 0A       		.byte	0xa
 1205 03db 47       		.byte	0x47
 1206 03dc 1A       		.byte	0x1a
 1207 03dd E3030000 		.4byte	0x3e3
 1208 03e1 04       		.byte	0x4
 1209 03e2 00       		.byte	0
 1210 03e3 07       		.uleb128 0x7
 1211 03e4 AF030000 		.4byte	0x3af
 1212 03e8 02       		.uleb128 0x2
 1213 03e9 BB080000 		.4byte	.LASF73
 1214 03ed 0A       		.byte	0xa
 1215 03ee 4E       		.byte	0x4e
 1216 03ef 22       		.byte	0x22
 1217 03f0 F4030000 		.4byte	0x3f4
 1218 03f4 0A       		.uleb128 0xa
 1219 03f5 53090000 		.4byte	.LASF74
 1220 03f9 0C       		.byte	0xc
 1221 03fa 0A       		.byte	0xa
 1222 03fb 55       		.byte	0x55
 1223 03fc 08       		.byte	0x8
 1224 03fd 29040000 		.4byte	0x429
 1225 0401 01       		.uleb128 0x1
 1226 0402 9A010000 		.4byte	.LASF69
 1227 0406 0A       		.byte	0xa
 1228 0407 56       		.byte	0x56
 1229 0408 1A       		.byte	0x1a
 1230 0409 29040000 		.4byte	0x429
 1231 040d 00       		.byte	0
 1232 040e 01       		.uleb128 0x1
 1233 040f 1D000000 		.4byte	.LASF72
 1234 0413 0A       		.byte	0xa
 1235 0414 57       		.byte	0x57
 1236 0415 1A       		.byte	0x1a
 1237 0416 29040000 		.4byte	0x429
 1238 041a 04       		.byte	0x4
 1239 041b 01       		.uleb128 0x1
 1240 041c E6060000 		.4byte	.LASF75
 1241 0420 0A       		.byte	0xa
 1242 0421 58       		.byte	0x58
 1243 0422 19       		.byte	0x19
 1244 0423 44010000 		.4byte	0x144
 1245 0427 08       		.byte	0x8
 1246 0428 00       		.byte	0
 1247 0429 07       		.uleb128 0x7
 1248 042a E8030000 		.4byte	0x3e8
 1249 042e 02       		.uleb128 0x2
 1250 042f 73090000 		.4byte	.LASF76
ARM GAS  C:\Users\DEVELO~1\AppData\Local\Temp\ccpirKJb.s 			page 23


 1251 0433 0A       		.byte	0xa
 1252 0434 5F       		.byte	0x5f
 1253 0435 1E       		.byte	0x1e
 1254 0436 3A040000 		.4byte	0x43a
 1255 043a 0A       		.uleb128 0xa
 1256 043b FC090000 		.4byte	.LASF77
 1257 043f 0C       		.byte	0xc
 1258 0440 0A       		.byte	0xa
 1259 0441 64       		.byte	0x64
 1260 0442 08       		.byte	0x8
 1261 0443 6F040000 		.4byte	0x46f
 1262 0447 01       		.uleb128 0x1
 1263 0448 9A010000 		.4byte	.LASF69
 1264 044c 0A       		.byte	0xa
 1265 044d 65       		.byte	0x65
 1266 044e 1A       		.byte	0x1a
 1267 044f 6F040000 		.4byte	0x46f
 1268 0453 00       		.byte	0
 1269 0454 01       		.uleb128 0x1
 1270 0455 1D000000 		.4byte	.LASF72
 1271 0459 0A       		.byte	0xa
 1272 045a 66       		.byte	0x66
 1273 045b 1A       		.byte	0x1a
 1274 045c 6F040000 		.4byte	0x46f
 1275 0460 04       		.byte	0x4
 1276 0461 01       		.uleb128 0x1
 1277 0462 67010000 		.4byte	.LASF78
 1278 0466 0A       		.byte	0xa
 1279 0467 67       		.byte	0x67
 1280 0468 19       		.byte	0x19
 1281 0469 77030000 		.4byte	0x377
 1282 046d 08       		.byte	0x8
 1283 046e 00       		.byte	0
 1284 046f 07       		.uleb128 0x7
 1285 0470 2E040000 		.4byte	0x42e
 1286 0474 0C       		.uleb128 0xc
 1287 0475 08       		.byte	0x8
 1288 0476 0B       		.byte	0xb
 1289 0477 83       		.byte	0x83
 1290 0478 05       		.byte	0x5
 1291 0479 98040000 		.4byte	0x498
 1292 047d 0B       		.uleb128 0xb
 1293 047e 6E747000 		.ascii	"ntp\000"
 1294 0482 0B       		.byte	0xb
 1295 0483 87       		.byte	0x87
 1296 0484 1E       		.byte	0x1e
 1297 0485 98040000 		.4byte	0x498
 1298 0489 00       		.byte	0
 1299 048a 01       		.uleb128 0x1
 1300 048b 99070000 		.4byte	.LASF79
 1301 048f 0B       		.byte	0xb
 1302 0490 8B       		.byte	0x8b
 1303 0491 1E       		.byte	0x1e
 1304 0492 9D040000 		.4byte	0x49d
 1305 0496 04       		.byte	0x4
 1306 0497 00       		.byte	0
 1307 0498 07       		.uleb128 0x7
ARM GAS  C:\Users\DEVELO~1\AppData\Local\Temp\ccpirKJb.s 			page 24


 1308 0499 80010000 		.4byte	0x180
 1309 049d 26       		.uleb128 0x26
 1310 049e 04       		.byte	0x4
 1311 049f 0C       		.uleb128 0xc
 1312 04a0 08       		.byte	0x8
 1313 04a1 0B       		.byte	0xb
 1314 04a2 90       		.byte	0x90
 1315 04a3 05       		.byte	0x5
 1316 04a4 C2040000 		.4byte	0x4c2
 1317 04a8 0B       		.uleb128 0xb
 1318 04a9 747000   		.ascii	"tp\000"
 1319 04ac 0B       		.byte	0xb
 1320 04ad 94       		.byte	0x94
 1321 04ae 1E       		.byte	0x1e
 1322 04af 98040000 		.4byte	0x498
 1323 04b3 00       		.byte	0
 1324 04b4 0B       		.uleb128 0xb
 1325 04b5 6D736700 		.ascii	"msg\000"
 1326 04b9 0B       		.byte	0xb
 1327 04ba 98       		.byte	0x98
 1328 04bb 1D       		.byte	0x1d
 1329 04bc 50010000 		.4byte	0x150
 1330 04c0 04       		.byte	0x4
 1331 04c1 00       		.byte	0
 1332 04c2 0C       		.uleb128 0xc
 1333 04c3 04       		.byte	0x4
 1334 04c4 0B       		.byte	0xb
 1335 04c5 9D       		.byte	0x9d
 1336 04c6 05       		.byte	0x5
 1337 04c7 D9040000 		.4byte	0x4d9
 1338 04cb 01       		.uleb128 0x1
 1339 04cc C1040000 		.4byte	.LASF35
 1340 04d0 0B       		.byte	0xb
 1341 04d1 A1       		.byte	0xa1
 1342 04d2 1E       		.byte	0x1e
 1343 04d3 49030000 		.4byte	0x349
 1344 04d7 00       		.byte	0
 1345 04d8 00       		.byte	0
 1346 04d9 0C       		.uleb128 0xc
 1347 04da 04       		.byte	0x4
 1348 04db 0B       		.byte	0xb
 1349 04dc A6       		.byte	0xa6
 1350 04dd 05       		.byte	0x5
 1351 04de F0040000 		.4byte	0x4f0
 1352 04e2 01       		.uleb128 0x1
 1353 04e3 CB070000 		.4byte	.LASF80
 1354 04e7 0B       		.byte	0xb
 1355 04e8 AA       		.byte	0xaa
 1356 04e9 1E       		.byte	0x1e
 1357 04ea 49030000 		.4byte	0x349
 1358 04ee 00       		.byte	0
 1359 04ef 00       		.byte	0
 1360 04f0 0C       		.uleb128 0xc
 1361 04f1 08       		.byte	0x8
 1362 04f2 0B       		.byte	0xb
 1363 04f3 AF       		.byte	0xaf
 1364 04f4 05       		.byte	0x5
ARM GAS  C:\Users\DEVELO~1\AppData\Local\Temp\ccpirKJb.s 			page 25


 1365 04f5 14050000 		.4byte	0x514
 1366 04f9 0B       		.uleb128 0xb
 1367 04fa 75703100 		.ascii	"up1\000"
 1368 04fe 0B       		.byte	0xb
 1369 04ff B3       		.byte	0xb3
 1370 0500 1E       		.byte	0x1e
 1371 0501 9D040000 		.4byte	0x49d
 1372 0505 00       		.byte	0
 1373 0506 0B       		.uleb128 0xb
 1374 0507 75703200 		.ascii	"up2\000"
 1375 050b 0B       		.byte	0xb
 1376 050c B7       		.byte	0xb7
 1377 050d 1E       		.byte	0x1e
 1378 050e 9D040000 		.4byte	0x49d
 1379 0512 04       		.byte	0x4
 1380 0513 00       		.byte	0
 1381 0514 18       		.uleb128 0x18
 1382 0515 08       		.byte	0x8
 1383 0516 0B       		.byte	0xb
 1384 0517 7F       		.byte	0x7f
 1385 0518 52050000 		.4byte	0x552
 1386 051c 19       		.uleb128 0x19
 1387 051d 737700   		.ascii	"sw\000"
 1388 0520 8C       		.byte	0x8c
 1389 0521 74040000 		.4byte	0x474
 1390 0525 19       		.uleb128 0x19
 1391 0526 72647900 		.ascii	"rdy\000"
 1392 052a 99       		.byte	0x99
 1393 052b 9F040000 		.4byte	0x49f
 1394 052f 19       		.uleb128 0x19
 1395 0530 69737200 		.ascii	"isr\000"
 1396 0534 A2       		.byte	0xa2
 1397 0535 C2040000 		.4byte	0x4c2
 1398 0539 0D       		.uleb128 0xd
 1399 053a 3B010000 		.4byte	.LASF81
 1400 053e 0B       		.byte	0xb
 1401 053f AB       		.byte	0xab
 1402 0540 07       		.byte	0x7
 1403 0541 D9040000 		.4byte	0x4d9
 1404 0545 0D       		.uleb128 0xd
 1405 0546 2F070000 		.4byte	.LASF82
 1406 054a 0B       		.byte	0xb
 1407 054b B8       		.byte	0xb8
 1408 054c 07       		.byte	0x7
 1409 054d F0040000 		.4byte	0x4f0
 1410 0551 00       		.byte	0
 1411 0552 0C       		.uleb128 0xc
 1412 0553 10       		.byte	0x10
 1413 0554 0B       		.byte	0xb
 1414 0555 6C       		.byte	0x6c
 1415 0556 09       		.byte	0x9
 1416 0557 98050000 		.4byte	0x598
 1417 055b 1A       		.uleb128 0x1a
 1418 055c E1000000 		.4byte	.LASF83
 1419 0560 70       		.byte	0x70
 1420 0561 DF000000 		.4byte	0xdf
 1421 0565 03       		.byte	0x3
ARM GAS  C:\Users\DEVELO~1\AppData\Local\Temp\ccpirKJb.s 			page 26


 1422 0566 00       		.byte	0
 1423 0567 1A       		.uleb128 0x1a
 1424 0568 5B020000 		.4byte	.LASF37
 1425 056c 74       		.byte	0x74
 1426 056d DF000000 		.4byte	0xdf
 1427 0571 05       		.byte	0x5
 1428 0572 03       		.byte	0x3
 1429 0573 1A       		.uleb128 0x1a
 1430 0574 AC050000 		.4byte	.LASF84
 1431 0578 7A       		.byte	0x7a
 1432 0579 DF000000 		.4byte	0xdf
 1433 057d 18       		.byte	0x18
 1434 057e 08       		.byte	0x8
 1435 057f 01       		.uleb128 0x1
 1436 0580 E1060000 		.4byte	.LASF85
 1437 0584 0B       		.byte	0xb
 1438 0585 7E       		.byte	0x7e
 1439 0586 19       		.byte	0x19
 1440 0587 6B030000 		.4byte	0x36b
 1441 058b 04       		.byte	0x4
 1442 058c 0B       		.uleb128 0xb
 1443 058d 7500     		.ascii	"u\000"
 1444 058f 0B       		.byte	0xb
 1445 0590 B9       		.byte	0xb9
 1446 0591 05       		.byte	0x5
 1447 0592 14050000 		.4byte	0x514
 1448 0596 08       		.byte	0x8
 1449 0597 00       		.byte	0
 1450 0598 02       		.uleb128 0x2
 1451 0599 EE000000 		.4byte	.LASF86
 1452 059d 0B       		.byte	0xb
 1453 059e BA       		.byte	0xba
 1454 059f 03       		.byte	0x3
 1455 05a0 52050000 		.4byte	0x552
 1456 05a4 27       		.uleb128 0x27
 1457 05a5 0808     		.2byte	0x808
 1458 05a7 0B       		.byte	0xb
 1459 05a8 C0       		.byte	0xc0
 1460 05a9 09       		.byte	0x9
 1461 05aa E3050000 		.4byte	0x5e3
 1462 05ae 01       		.uleb128 0x1
 1463 05af 3D060000 		.4byte	.LASF87
 1464 05b3 0B       		.byte	0xb
 1465 05b4 C4       		.byte	0xc4
 1466 05b5 19       		.byte	0x19
 1467 05b6 C7000000 		.4byte	0xc7
 1468 05ba 00       		.byte	0
 1469 05bb 01       		.uleb128 0x1
 1470 05bc 1C020000 		.4byte	.LASF88
 1471 05c0 0B       		.byte	0xb
 1472 05c1 C8       		.byte	0xc8
 1473 05c2 19       		.byte	0x19
 1474 05c3 C7000000 		.4byte	0xc7
 1475 05c7 02       		.byte	0x2
 1476 05c8 0B       		.uleb128 0xb
 1477 05c9 70747200 		.ascii	"ptr\000"
 1478 05cd 0B       		.byte	0xb
ARM GAS  C:\Users\DEVELO~1\AppData\Local\Temp\ccpirKJb.s 			page 27


 1479 05ce CC       		.byte	0xcc
 1480 05cf 1A       		.byte	0x1a
 1481 05d0 E3050000 		.4byte	0x5e3
 1482 05d4 04       		.byte	0x4
 1483 05d5 01       		.uleb128 0x1
 1484 05d6 B4080000 		.4byte	.LASF89
 1485 05da 0B       		.byte	0xb
 1486 05db D0       		.byte	0xd0
 1487 05dc 19       		.byte	0x19
 1488 05dd E8050000 		.4byte	0x5e8
 1489 05e1 08       		.byte	0x8
 1490 05e2 00       		.byte	0
 1491 05e3 07       		.uleb128 0x7
 1492 05e4 98050000 		.4byte	0x598
 1493 05e8 28       		.uleb128 0x28
 1494 05e9 98050000 		.4byte	0x598
 1495 05ed F8050000 		.4byte	0x5f8
 1496 05f1 29       		.uleb128 0x29
 1497 05f2 2D000000 		.4byte	0x2d
 1498 05f6 7F       		.byte	0x7f
 1499 05f7 00       		.byte	0
 1500 05f8 02       		.uleb128 0x2
 1501 05f9 A6020000 		.4byte	.LASF90
 1502 05fd 0B       		.byte	0xb
 1503 05fe D1       		.byte	0xd1
 1504 05ff 03       		.byte	0x3
 1505 0600 A4050000 		.4byte	0x5a4
 1506 0604 13       		.uleb128 0x13
 1507 0605 CE000000 		.4byte	.LASF91
 1508 0609 24       		.byte	0x24
 1509 060a 0C       		.byte	0xc
 1510 060b E001     		.2byte	0x1e0
 1511 060d 08       		.byte	0x8
 1512 060e 8A060000 		.4byte	0x68a
 1513 0612 09       		.uleb128 0x9
 1514 0613 723400   		.ascii	"r4\000"
 1515 0616 0C       		.byte	0xc
 1516 0617 F901     		.2byte	0x1f9
 1517 0619 11       		.byte	0x11
 1518 061a DF000000 		.4byte	0xdf
 1519 061e 00       		.byte	0
 1520 061f 09       		.uleb128 0x9
 1521 0620 723500   		.ascii	"r5\000"
 1522 0623 0C       		.byte	0xc
 1523 0624 FA01     		.2byte	0x1fa
 1524 0626 11       		.byte	0x11
 1525 0627 DF000000 		.4byte	0xdf
 1526 062b 04       		.byte	0x4
 1527 062c 09       		.uleb128 0x9
 1528 062d 723600   		.ascii	"r6\000"
 1529 0630 0C       		.byte	0xc
 1530 0631 FB01     		.2byte	0x1fb
 1531 0633 11       		.byte	0x11
 1532 0634 DF000000 		.4byte	0xdf
 1533 0638 08       		.byte	0x8
 1534 0639 09       		.uleb128 0x9
 1535 063a 723700   		.ascii	"r7\000"
ARM GAS  C:\Users\DEVELO~1\AppData\Local\Temp\ccpirKJb.s 			page 28


 1536 063d 0C       		.byte	0xc
 1537 063e FC01     		.2byte	0x1fc
 1538 0640 11       		.byte	0x11
 1539 0641 DF000000 		.4byte	0xdf
 1540 0645 0C       		.byte	0xc
 1541 0646 09       		.uleb128 0x9
 1542 0647 723800   		.ascii	"r8\000"
 1543 064a 0C       		.byte	0xc
 1544 064b FD01     		.2byte	0x1fd
 1545 064d 11       		.byte	0x11
 1546 064e DF000000 		.4byte	0xdf
 1547 0652 10       		.byte	0x10
 1548 0653 09       		.uleb128 0x9
 1549 0654 723900   		.ascii	"r9\000"
 1550 0657 0C       		.byte	0xc
 1551 0658 FE01     		.2byte	0x1fe
 1552 065a 11       		.byte	0x11
 1553 065b DF000000 		.4byte	0xdf
 1554 065f 14       		.byte	0x14
 1555 0660 09       		.uleb128 0x9
 1556 0661 72313000 		.ascii	"r10\000"
 1557 0665 0C       		.byte	0xc
 1558 0666 FF01     		.2byte	0x1ff
 1559 0668 11       		.byte	0x11
 1560 0669 DF000000 		.4byte	0xdf
 1561 066d 18       		.byte	0x18
 1562 066e 09       		.uleb128 0x9
 1563 066f 72313100 		.ascii	"r11\000"
 1564 0673 0C       		.byte	0xc
 1565 0674 0002     		.2byte	0x200
 1566 0676 11       		.byte	0x11
 1567 0677 DF000000 		.4byte	0xdf
 1568 067b 1C       		.byte	0x1c
 1569 067c 09       		.uleb128 0x9
 1570 067d 6C7200   		.ascii	"lr\000"
 1571 0680 0C       		.byte	0xc
 1572 0681 0102     		.2byte	0x201
 1573 0683 11       		.byte	0x11
 1574 0684 DF000000 		.4byte	0xdf
 1575 0688 20       		.byte	0x20
 1576 0689 00       		.byte	0
 1577 068a 13       		.uleb128 0x13
 1578 068b B1060000 		.4byte	.LASF92
 1579 068f 04       		.byte	0x4
 1580 0690 0C       		.byte	0xc
 1581 0691 0A02     		.2byte	0x20a
 1582 0693 08       		.byte	0x8
 1583 0694 A6060000 		.4byte	0x6a6
 1584 0698 09       		.uleb128 0x9
 1585 0699 737000   		.ascii	"sp\000"
 1586 069c 0C       		.byte	0xc
 1587 069d 0B02     		.2byte	0x20b
 1588 069f 1A       		.byte	0x1a
 1589 06a0 A6060000 		.4byte	0x6a6
 1590 06a4 00       		.byte	0
 1591 06a5 00       		.byte	0
 1592 06a6 07       		.uleb128 0x7
ARM GAS  C:\Users\DEVELO~1\AppData\Local\Temp\ccpirKJb.s 			page 29


 1593 06a7 04060000 		.4byte	0x604
 1594 06ab 0A       		.uleb128 0xa
 1595 06ac 12060000 		.4byte	.LASF93
 1596 06b0 18       		.byte	0x18
 1597 06b1 06       		.byte	0x6
 1598 06b2 64       		.byte	0x64
 1599 06b3 10       		.byte	0x10
 1600 06b4 E0060000 		.4byte	0x6e0
 1601 06b8 01       		.uleb128 0x1
 1602 06b9 A4080000 		.4byte	.LASF94
 1603 06bd 06       		.byte	0x6
 1604 06be 68       		.byte	0x68
 1605 06bf 21       		.byte	0x21
 1606 06c0 2E040000 		.4byte	0x42e
 1607 06c4 00       		.byte	0
 1608 06c5 01       		.uleb128 0x1
 1609 06c6 90070000 		.4byte	.LASF95
 1610 06ca 06       		.byte	0x6
 1611 06cb 73       		.byte	0x73
 1612 06cc 21       		.byte	0x21
 1613 06cd 6B030000 		.4byte	0x36b
 1614 06d1 0C       		.byte	0xc
 1615 06d2 01       		.uleb128 0x1
 1616 06d3 B4050000 		.4byte	.LASF96
 1617 06d7 06       		.byte	0x6
 1618 06d8 79       		.byte	0x79
 1619 06d9 21       		.byte	0x21
 1620 06da F7000000 		.4byte	0xf7
 1621 06de 10       		.byte	0x10
 1622 06df 00       		.byte	0
 1623 06e0 02       		.uleb128 0x2
 1624 06e1 E7050000 		.4byte	.LASF97
 1625 06e5 06       		.byte	0x6
 1626 06e6 7B       		.byte	0x7b
 1627 06e7 03       		.byte	0x3
 1628 06e8 AB060000 		.4byte	0x6ab
 1629 06ec 0A       		.uleb128 0xa
 1630 06ed C6020000 		.4byte	.LASF98
 1631 06f1 08       		.byte	0x8
 1632 06f2 06       		.byte	0x6
 1633 06f3 80       		.byte	0x80
 1634 06f4 10       		.byte	0x10
 1635 06f5 07070000 		.4byte	0x707
 1636 06f9 01       		.uleb128 0x1
 1637 06fa C6040000 		.4byte	.LASF99
 1638 06fe 06       		.byte	0x6
 1639 06ff 84       		.byte	0x84
 1640 0700 21       		.byte	0x21
 1641 0701 AF030000 		.4byte	0x3af
 1642 0705 00       		.byte	0
 1643 0706 00       		.byte	0
 1644 0707 02       		.uleb128 0x2
 1645 0708 EF070000 		.4byte	.LASF100
 1646 070c 06       		.byte	0x6
 1647 070d 85       		.byte	0x85
 1648 070e 03       		.byte	0x3
 1649 070f EC060000 		.4byte	0x6ec
ARM GAS  C:\Users\DEVELO~1\AppData\Local\Temp\ccpirKJb.s 			page 30


 1650 0713 02       		.uleb128 0x2
 1651 0714 600A0000 		.4byte	.LASF101
 1652 0718 06       		.byte	0x6
 1653 0719 8A       		.byte	0x8a
 1654 071a 14       		.byte	0x14
 1655 071b 98040000 		.4byte	0x498
 1656 071f 18       		.uleb128 0x18
 1657 0720 0C       		.byte	0xc
 1658 0721 06       		.byte	0x6
 1659 0722 A0       		.byte	0xa0
 1660 0723 4C070000 		.4byte	0x74c
 1661 0727 0D       		.uleb128 0xd
 1662 0728 DB0A0000 		.4byte	.LASF102
 1663 072c 06       		.byte	0x6
 1664 072d A4       		.byte	0xa4
 1665 072e 21       		.byte	0x21
 1666 072f 83030000 		.4byte	0x383
 1667 0733 0D       		.uleb128 0xd
 1668 0734 C6040000 		.4byte	.LASF99
 1669 0738 06       		.byte	0x6
 1670 0739 A8       		.byte	0xa8
 1671 073a 21       		.byte	0x21
 1672 073b AF030000 		.4byte	0x3af
 1673 073f 0D       		.uleb128 0xd
 1674 0740 EC080000 		.4byte	.LASF103
 1675 0744 06       		.byte	0x6
 1676 0745 AC       		.byte	0xac
 1677 0746 21       		.byte	0x21
 1678 0747 E8030000 		.4byte	0x3e8
 1679 074b 00       		.byte	0
 1680 074c 18       		.uleb128 0x18
 1681 074d 04       		.byte	0x4
 1682 074e 06       		.byte	0x6
 1683 074f EB       		.byte	0xeb
 1684 0750 B5070000 		.4byte	0x7b5
 1685 0754 0D       		.uleb128 0xd
 1686 0755 E6090000 		.4byte	.LASF104
 1687 0759 06       		.byte	0x6
 1688 075a F2       		.byte	0xf2
 1689 075b 21       		.byte	0x21
 1690 075c 50010000 		.4byte	0x150
 1691 0760 0D       		.uleb128 0xd
 1692 0761 4B010000 		.4byte	.LASF105
 1693 0765 06       		.byte	0x6
 1694 0766 F9       		.byte	0xf9
 1695 0767 21       		.byte	0x21
 1696 0768 50010000 		.4byte	0x150
 1697 076c 0F       		.uleb128 0xf
 1698 076d 99070000 		.4byte	.LASF79
 1699 0771 0001     		.2byte	0x100
 1700 0773 22       		.byte	0x22
 1701 0774 9D040000 		.4byte	0x49d
 1702 0778 0F       		.uleb128 0xf
 1703 0779 2F000000 		.4byte	.LASF106
 1704 077d 0701     		.2byte	0x107
 1705 077f 22       		.byte	0x22
 1706 0780 B5070000 		.4byte	0x7b5
ARM GAS  C:\Users\DEVELO~1\AppData\Local\Temp\ccpirKJb.s 			page 31


 1707 0784 0F       		.uleb128 0xf
 1708 0785 5F010000 		.4byte	.LASF107
 1709 0789 0C01     		.2byte	0x10c
 1710 078b 21       		.byte	0x21
 1711 078c 50010000 		.4byte	0x150
 1712 0790 0F       		.uleb128 0xf
 1713 0791 C2030000 		.4byte	.LASF108
 1714 0795 1501     		.2byte	0x115
 1715 0797 22       		.byte	0x22
 1716 0798 E2070000 		.4byte	0x7e2
 1717 079c 0F       		.uleb128 0xf
 1718 079d 0E080000 		.4byte	.LASF109
 1719 07a1 1E01     		.2byte	0x11e
 1720 07a3 22       		.byte	0x22
 1721 07a4 1C080000 		.4byte	0x81c
 1722 07a8 0F       		.uleb128 0xf
 1723 07a9 E8040000 		.4byte	.LASF110
 1724 07ad 2601     		.2byte	0x126
 1725 07af 21       		.byte	0x21
 1726 07b0 5C010000 		.4byte	0x15c
 1727 07b4 00       		.byte	0
 1728 07b5 07       		.uleb128 0x7
 1729 07b6 13070000 		.4byte	0x713
 1730 07ba 0A       		.uleb128 0xa
 1731 07bb E2070000 		.4byte	.LASF111
 1732 07bf 0C       		.byte	0xc
 1733 07c0 0D       		.byte	0xd
 1734 07c1 34       		.byte	0x34
 1735 07c2 10       		.byte	0x10
 1736 07c3 E2070000 		.4byte	0x7e2
 1737 07c7 01       		.uleb128 0x1
 1738 07c8 C6040000 		.4byte	.LASF99
 1739 07cc 0D       		.byte	0xd
 1740 07cd 35       		.byte	0x35
 1741 07ce 19       		.byte	0x19
 1742 07cf AF030000 		.4byte	0x3af
 1743 07d3 00       		.byte	0
 1744 07d4 0B       		.uleb128 0xb
 1745 07d5 636E7400 		.ascii	"cnt\000"
 1746 07d9 0D       		.byte	0xd
 1747 07da 37       		.byte	0x37
 1748 07db 19       		.byte	0x19
 1749 07dc 68010000 		.4byte	0x168
 1750 07e0 08       		.byte	0x8
 1751 07e1 00       		.byte	0
 1752 07e2 07       		.uleb128 0x7
 1753 07e3 BA070000 		.4byte	0x7ba
 1754 07e7 0A       		.uleb128 0xa
 1755 07e8 830A0000 		.4byte	.LASF112
 1756 07ec 10       		.byte	0x10
 1757 07ed 0E       		.byte	0xe
 1758 07ee 39       		.byte	0x39
 1759 07ef 08       		.byte	0x8
 1760 07f0 1C080000 		.4byte	0x81c
 1761 07f4 01       		.uleb128 0x1
 1762 07f5 C6040000 		.4byte	.LASF99
 1763 07f9 0E       		.byte	0xe
ARM GAS  C:\Users\DEVELO~1\AppData\Local\Temp\ccpirKJb.s 			page 32


 1764 07fa 3A       		.byte	0x3a
 1765 07fb 19       		.byte	0x19
 1766 07fc AF030000 		.4byte	0x3af
 1767 0800 00       		.byte	0
 1768 0801 01       		.uleb128 0x1
 1769 0802 25080000 		.4byte	.LASF34
 1770 0806 0E       		.byte	0xe
 1771 0807 3C       		.byte	0x3c
 1772 0808 1A       		.byte	0x1a
 1773 0809 98040000 		.4byte	0x498
 1774 080d 08       		.byte	0x8
 1775 080e 01       		.uleb128 0x1
 1776 080f 9A010000 		.4byte	.LASF69
 1777 0813 0E       		.byte	0xe
 1778 0814 3E       		.byte	0x3e
 1779 0815 1A       		.byte	0x1a
 1780 0816 D0080000 		.4byte	0x8d0
 1781 081a 0C       		.byte	0xc
 1782 081b 00       		.byte	0
 1783 081c 07       		.uleb128 0x7
 1784 081d E7070000 		.4byte	0x7e7
 1785 0821 07       		.uleb128 0x7
 1786 0822 69020000 		.4byte	0x269
 1787 0826 07       		.uleb128 0x7
 1788 0827 14010000 		.4byte	0x114
 1789 082b 13       		.uleb128 0x13
 1790 082c 72050000 		.4byte	.LASF113
 1791 0830 10       		.byte	0x10
 1792 0831 06       		.byte	0x6
 1793 0832 5C01     		.2byte	0x15c
 1794 0834 10       		.byte	0x10
 1795 0835 54080000 		.4byte	0x854
 1796 0839 05       		.uleb128 0x5
 1797 083a EC080000 		.4byte	.LASF103
 1798 083e 6101     		.2byte	0x161
 1799 0840 21       		.byte	0x21
 1800 0841 E8030000 		.4byte	0x3e8
 1801 0845 00       		.byte	0
 1802 0846 05       		.uleb128 0x5
 1803 0847 FF060000 		.4byte	.LASF114
 1804 084b 6501     		.2byte	0x165
 1805 084d 22       		.byte	0x22
 1806 084e 98040000 		.4byte	0x498
 1807 0852 0C       		.byte	0xc
 1808 0853 00       		.byte	0
 1809 0854 1B       		.uleb128 0x1b
 1810 0855 22000000 		.4byte	.LASF115
 1811 0859 6601     		.2byte	0x166
 1812 085b 2B080000 		.4byte	0x82b
 1813 085f 13       		.uleb128 0x13
 1814 0860 9B060000 		.4byte	.LASF116
 1815 0864 14       		.byte	0x14
 1816 0865 06       		.byte	0x6
 1817 0866 6B01     		.2byte	0x16b
 1818 0868 10       		.byte	0x10
 1819 0869 AF080000 		.4byte	0x8af
 1820 086d 05       		.uleb128 0x5
ARM GAS  C:\Users\DEVELO~1\AppData\Local\Temp\ccpirKJb.s 			page 33


 1821 086e C1040000 		.4byte	.LASF35
 1822 0872 6F01     		.2byte	0x16f
 1823 0874 22       		.byte	0x22
 1824 0875 49030000 		.4byte	0x349
 1825 0879 00       		.byte	0
 1826 087a 05       		.uleb128 0x5
 1827 087b 56030000 		.4byte	.LASF117
 1828 087f 7501     		.2byte	0x175
 1829 0881 22       		.byte	0x22
 1830 0882 26080000 		.4byte	0x826
 1831 0886 04       		.byte	0x4
 1832 0887 05       		.uleb128 0x5
 1833 0888 83090000 		.4byte	.LASF118
 1834 088c 7901     		.2byte	0x179
 1835 088e 22       		.byte	0x22
 1836 088f 26080000 		.4byte	0x826
 1837 0893 08       		.byte	0x8
 1838 0894 05       		.uleb128 0x5
 1839 0895 A5030000 		.4byte	.LASF119
 1840 0899 7F01     		.2byte	0x17f
 1841 089b 22       		.byte	0x22
 1842 089c 26080000 		.4byte	0x826
 1843 08a0 0C       		.byte	0xc
 1844 08a1 05       		.uleb128 0x5
 1845 08a2 E00A0000 		.4byte	.LASF120
 1846 08a6 8301     		.2byte	0x183
 1847 08a8 22       		.byte	0x22
 1848 08a9 26080000 		.4byte	0x826
 1849 08ad 10       		.byte	0x10
 1850 08ae 00       		.byte	0
 1851 08af 1B       		.uleb128 0x1b
 1852 08b0 FC000000 		.4byte	.LASF121
 1853 08b4 8501     		.2byte	0x185
 1854 08b6 5F080000 		.4byte	0x85f
 1855 08ba 17       		.uleb128 0x17
 1856 08bb AF080000 		.4byte	0x8af
 1857 08bf 07       		.uleb128 0x7
 1858 08c0 BA080000 		.4byte	0x8ba
 1859 08c4 02       		.uleb128 0x2
 1860 08c5 66030000 		.4byte	.LASF122
 1861 08c9 0E       		.byte	0xe
 1862 08ca 34       		.byte	0x34
 1863 08cb 19       		.byte	0x19
 1864 08cc E7070000 		.4byte	0x7e7
 1865 08d0 07       		.uleb128 0x7
 1866 08d1 C4080000 		.4byte	0x8c4
 1867 08d5 08       		.uleb128 0x8
 1868 08d6 01       		.byte	0x1
 1869 08d7 02       		.byte	0x2
 1870 08d8 5E070000 		.4byte	.LASF123
 1871 08dc 17       		.uleb128 0x17
 1872 08dd D5080000 		.4byte	0x8d5
 1873 08e1 16       		.uleb128 0x16
 1874 08e2 DC080000 		.4byte	0x8dc
 1875 08e6 10       		.uleb128 0x10
 1876 08e7 55000000 		.4byte	0x55
 1877 08eb 15       		.byte	0x15
ARM GAS  C:\Users\DEVELO~1\AppData\Local\Temp\ccpirKJb.s 			page 34


 1878 08ec 0F090000 		.4byte	0x90f
 1879 08f0 04       		.uleb128 0x4
 1880 08f1 06020000 		.4byte	.LASF124
 1881 08f5 00       		.byte	0
 1882 08f6 04       		.uleb128 0x4
 1883 08f7 48020000 		.4byte	.LASF125
 1884 08fb 01       		.byte	0x1
 1885 08fc 04       		.uleb128 0x4
 1886 08fd D5060000 		.4byte	.LASF126
 1887 0901 02       		.byte	0x2
 1888 0902 04       		.uleb128 0x4
 1889 0903 D8050000 		.4byte	.LASF127
 1890 0907 03       		.byte	0x3
 1891 0908 04       		.uleb128 0x4
 1892 0909 0A0A0000 		.4byte	.LASF128
 1893 090d 04       		.byte	0x4
 1894 090e 00       		.byte	0
 1895 090f 02       		.uleb128 0x2
 1896 0910 BD070000 		.4byte	.LASF129
 1897 0914 0F       		.byte	0xf
 1898 0915 1B       		.byte	0x1b
 1899 0916 03       		.byte	0x3
 1900 0917 E6080000 		.4byte	0x8e6
 1901 091b 10       		.uleb128 0x10
 1902 091c 55000000 		.4byte	0x55
 1903 0920 20       		.byte	0x20
 1904 0921 4A090000 		.4byte	0x94a
 1905 0925 04       		.uleb128 0x4
 1906 0926 44090000 		.4byte	.LASF130
 1907 092a 00       		.byte	0
 1908 092b 04       		.uleb128 0x4
 1909 092c D2040000 		.4byte	.LASF131
 1910 0930 01       		.byte	0x1
 1911 0931 04       		.uleb128 0x4
 1912 0932 34070000 		.4byte	.LASF132
 1913 0936 02       		.byte	0x2
 1914 0937 04       		.uleb128 0x4
 1915 0938 56080000 		.4byte	.LASF133
 1916 093c 03       		.byte	0x3
 1917 093d 04       		.uleb128 0x4
 1918 093e B1010000 		.4byte	.LASF134
 1919 0942 04       		.byte	0x4
 1920 0943 04       		.uleb128 0x4
 1921 0944 7E010000 		.4byte	.LASF135
 1922 0948 05       		.byte	0x5
 1923 0949 00       		.byte	0
 1924 094a 02       		.uleb128 0x2
 1925 094b 65090000 		.4byte	.LASF136
 1926 094f 0F       		.byte	0xf
 1927 0950 27       		.byte	0x27
 1928 0951 03       		.byte	0x3
 1929 0952 1B090000 		.4byte	0x91b
 1930 0956 10       		.uleb128 0x10
 1931 0957 55000000 		.4byte	0x55
 1932 095b 30       		.byte	0x30
 1933 095c 7F090000 		.4byte	0x97f
 1934 0960 04       		.uleb128 0x4
ARM GAS  C:\Users\DEVELO~1\AppData\Local\Temp\ccpirKJb.s 			page 35


 1935 0961 D1010000 		.4byte	.LASF137
 1936 0965 00       		.byte	0
 1937 0966 04       		.uleb128 0x4
 1938 0967 92090000 		.4byte	.LASF138
 1939 096b 01       		.byte	0x1
 1940 096c 04       		.uleb128 0x4
 1941 096d ED090000 		.4byte	.LASF139
 1942 0971 02       		.byte	0x2
 1943 0972 04       		.uleb128 0x4
 1944 0973 5B060000 		.4byte	.LASF140
 1945 0977 03       		.byte	0x3
 1946 0978 04       		.uleb128 0x4
 1947 0979 86060000 		.4byte	.LASF141
 1948 097d 04       		.byte	0x4
 1949 097e 00       		.byte	0
 1950 097f 02       		.uleb128 0x2
 1951 0980 2A0A0000 		.4byte	.LASF142
 1952 0984 0F       		.byte	0xf
 1953 0985 36       		.byte	0x36
 1954 0986 03       		.byte	0x3
 1955 0987 56090000 		.4byte	0x956
 1956 098b 0C       		.uleb128 0xc
 1957 098c 14       		.byte	0x14
 1958 098d 0F       		.byte	0xf
 1959 098e 3B       		.byte	0x3b
 1960 098f 09       		.byte	0x9
 1961 0990 D5090000 		.4byte	0x9d5
 1962 0994 0B       		.uleb128 0xb
 1963 0995 696400   		.ascii	"id\000"
 1964 0998 0F       		.byte	0xf
 1965 0999 3C       		.byte	0x3c
 1966 099a 15       		.byte	0x15
 1967 099b 7F090000 		.4byte	0x97f
 1968 099f 00       		.byte	0
 1969 09a0 01       		.uleb128 0x1
 1970 09a1 BE050000 		.4byte	.LASF143
 1971 09a5 0F       		.byte	0xf
 1972 09a6 3D       		.byte	0x3d
 1973 09a7 0D       		.byte	0xd
 1974 09a8 FC000000 		.4byte	0xfc
 1975 09ac 04       		.byte	0x4
 1976 09ad 01       		.uleb128 0x1
 1977 09ae 33050000 		.4byte	.LASF144
 1978 09b2 0F       		.byte	0xf
 1979 09b3 3E       		.byte	0x3e
 1980 09b4 0C       		.byte	0xc
 1981 09b5 DF000000 		.4byte	0xdf
 1982 09b9 08       		.byte	0x8
 1983 09ba 01       		.uleb128 0x1
 1984 09bb 240A0000 		.4byte	.LASF38
 1985 09bf 0F       		.byte	0xf
 1986 09c0 3F       		.byte	0x3f
 1987 09c1 0C       		.byte	0xc
 1988 09c2 DF000000 		.4byte	0xdf
 1989 09c6 0C       		.byte	0xc
 1990 09c7 01       		.uleb128 0x1
 1991 09c8 730A0000 		.4byte	.LASF145
ARM GAS  C:\Users\DEVELO~1\AppData\Local\Temp\ccpirKJb.s 			page 36


 1992 09cc 0F       		.byte	0xf
 1993 09cd 40       		.byte	0x40
 1994 09ce 0C       		.byte	0xc
 1995 09cf DF000000 		.4byte	0xdf
 1996 09d3 10       		.byte	0x10
 1997 09d4 00       		.byte	0
 1998 09d5 02       		.uleb128 0x2
 1999 09d6 47060000 		.4byte	.LASF146
 2000 09da 0F       		.byte	0xf
 2001 09db 41       		.byte	0x41
 2002 09dc 03       		.byte	0x3
 2003 09dd 8B090000 		.4byte	0x98b
 2004 09e1 10       		.uleb128 0x10
 2005 09e2 55000000 		.4byte	0x55
 2006 09e6 4E       		.byte	0x4e
 2007 09e7 FE090000 		.4byte	0x9fe
 2008 09eb 04       		.uleb128 0x4
 2009 09ec 38020000 		.4byte	.LASF147
 2010 09f0 00       		.byte	0
 2011 09f1 04       		.uleb128 0x4
 2012 09f2 FC030000 		.4byte	.LASF148
 2013 09f6 01       		.byte	0x1
 2014 09f7 04       		.uleb128 0x4
 2015 09f8 6D010000 		.4byte	.LASF149
 2016 09fc 02       		.byte	0x2
 2017 09fd 00       		.byte	0
 2018 09fe 02       		.uleb128 0x2
 2019 09ff EB060000 		.4byte	.LASF150
 2020 0a03 0F       		.byte	0xf
 2021 0a04 52       		.byte	0x52
 2022 0a05 03       		.byte	0x3
 2023 0a06 E1090000 		.4byte	0x9e1
 2024 0a0a 10       		.uleb128 0x10
 2025 0a0b 55000000 		.4byte	0x55
 2026 0a0f 57       		.byte	0x57
 2027 0a10 330A0000 		.4byte	0xa33
 2028 0a14 04       		.uleb128 0x4
 2029 0a15 30090000 		.4byte	.LASF151
 2030 0a19 00       		.byte	0
 2031 0a1a 04       		.uleb128 0x4
 2032 0a1b 00000000 		.4byte	.LASF152
 2033 0a1f 01       		.byte	0x1
 2034 0a20 04       		.uleb128 0x4
 2035 0a21 D2020000 		.4byte	.LASF153
 2036 0a25 02       		.byte	0x2
 2037 0a26 04       		.uleb128 0x4
 2038 0a27 11050000 		.4byte	.LASF154
 2039 0a2b 03       		.byte	0x3
 2040 0a2c 04       		.uleb128 0x4
 2041 0a2d 7A080000 		.4byte	.LASF155
 2042 0a31 04       		.byte	0x4
 2043 0a32 00       		.byte	0
 2044 0a33 02       		.uleb128 0x2
 2045 0a34 CF080000 		.4byte	.LASF156
 2046 0a38 0F       		.byte	0xf
 2047 0a39 5D       		.byte	0x5d
 2048 0a3a 03       		.byte	0x3
ARM GAS  C:\Users\DEVELO~1\AppData\Local\Temp\ccpirKJb.s 			page 37


 2049 0a3b 0A0A0000 		.4byte	0xa0a
 2050 0a3f 10       		.uleb128 0x10
 2051 0a40 55000000 		.4byte	0x55
 2052 0a44 62       		.byte	0x62
 2053 0a45 560A0000 		.4byte	0xa56
 2054 0a49 04       		.uleb128 0x4
 2055 0a4a 40030000 		.4byte	.LASF157
 2056 0a4e 00       		.byte	0
 2057 0a4f 04       		.uleb128 0x4
 2058 0a50 4D050000 		.4byte	.LASF158
 2059 0a54 01       		.byte	0x1
 2060 0a55 00       		.byte	0
 2061 0a56 02       		.uleb128 0x2
 2062 0a57 8C0A0000 		.4byte	.LASF159
 2063 0a5b 0F       		.byte	0xf
 2064 0a5c 65       		.byte	0x65
 2065 0a5d 03       		.byte	0x3
 2066 0a5e 3F0A0000 		.4byte	0xa3f
 2067 0a62 0C       		.uleb128 0xc
 2068 0a63 20       		.byte	0x20
 2069 0a64 0F       		.byte	0xf
 2070 0a65 6A       		.byte	0x6a
 2071 0a66 09       		.byte	0x9
 2072 0a67 E10A0000 		.4byte	0xae1
 2073 0a6b 01       		.uleb128 0x1
 2074 0a6c E2010000 		.4byte	.LASF160
 2075 0a70 0F       		.byte	0xf
 2076 0a71 6B       		.byte	0x6b
 2077 0a72 17       		.byte	0x17
 2078 0a73 FE090000 		.4byte	0x9fe
 2079 0a77 00       		.byte	0
 2080 0a78 01       		.uleb128 0x1
 2081 0a79 B5030000 		.4byte	.LASF161
 2082 0a7d 0F       		.byte	0xf
 2083 0a7e 6C       		.byte	0x6c
 2084 0a7f 0C       		.byte	0xc
 2085 0a80 DF000000 		.4byte	0xdf
 2086 0a84 04       		.byte	0x4
 2087 0a85 01       		.uleb128 0x1
 2088 0a86 FD050000 		.4byte	.LASF162
 2089 0a8a 0F       		.byte	0xf
 2090 0a8b 6D       		.byte	0x6d
 2091 0a8c 0C       		.byte	0xc
 2092 0a8d DF000000 		.4byte	0xdf
 2093 0a91 08       		.byte	0x8
 2094 0a92 01       		.uleb128 0x1
 2095 0a93 FE0A0000 		.4byte	.LASF163
 2096 0a97 0F       		.byte	0xf
 2097 0a98 6E       		.byte	0x6e
 2098 0a99 0C       		.byte	0xc
 2099 0a9a DF000000 		.4byte	0xdf
 2100 0a9e 0C       		.byte	0xc
 2101 0a9f 01       		.uleb128 0x1
 2102 0aa0 B1090000 		.4byte	.LASF164
 2103 0aa4 0F       		.byte	0xf
 2104 0aa5 6F       		.byte	0x6f
 2105 0aa6 0D       		.byte	0xd
ARM GAS  C:\Users\DEVELO~1\AppData\Local\Temp\ccpirKJb.s 			page 38


 2106 0aa7 FC000000 		.4byte	0xfc
 2107 0aab 10       		.byte	0x10
 2108 0aac 01       		.uleb128 0x1
 2109 0aad 8E010000 		.4byte	.LASF165
 2110 0ab1 0F       		.byte	0xf
 2111 0ab2 70       		.byte	0x70
 2112 0ab3 16       		.byte	0x16
 2113 0ab4 330A0000 		.4byte	0xa33
 2114 0ab8 14       		.byte	0x14
 2115 0ab9 01       		.uleb128 0x1
 2116 0aba 3C0A0000 		.4byte	.LASF166
 2117 0abe 0F       		.byte	0xf
 2118 0abf 71       		.byte	0x71
 2119 0ac0 0C       		.byte	0xc
 2120 0ac1 C7000000 		.4byte	0xc7
 2121 0ac5 16       		.byte	0x16
 2122 0ac6 01       		.uleb128 0x1
 2123 0ac7 D2070000 		.4byte	.LASF167
 2124 0acb 0F       		.byte	0xf
 2125 0acc 72       		.byte	0x72
 2126 0acd 0D       		.byte	0xd
 2127 0ace 6B030000 		.4byte	0x36b
 2128 0ad2 18       		.byte	0x18
 2129 0ad3 01       		.uleb128 0x1
 2130 0ad4 2B080000 		.4byte	.LASF168
 2131 0ad8 0F       		.byte	0xf
 2132 0ad9 73       		.byte	0x73
 2133 0ada 0D       		.byte	0xd
 2134 0adb 6B030000 		.4byte	0x36b
 2135 0adf 1C       		.byte	0x1c
 2136 0ae0 00       		.byte	0
 2137 0ae1 02       		.uleb128 0x2
 2138 0ae2 24030000 		.4byte	.LASF169
 2139 0ae6 0F       		.byte	0xf
 2140 0ae7 74       		.byte	0x74
 2141 0ae8 03       		.byte	0x3
 2142 0ae9 620A0000 		.4byte	0xa62
 2143 0aed 0C       		.uleb128 0xc
 2144 0aee 24       		.byte	0x24
 2145 0aef 10       		.byte	0x10
 2146 0af0 15       		.byte	0x15
 2147 0af1 09       		.byte	0x9
 2148 0af2 2B0B0000 		.4byte	0xb2b
 2149 0af6 01       		.uleb128 0x1
 2150 0af7 5B020000 		.4byte	.LASF37
 2151 0afb 10       		.byte	0x10
 2152 0afc 16       		.byte	0x16
 2153 0afd 11       		.byte	0x11
 2154 0afe 0F090000 		.4byte	0x90f
 2155 0b02 00       		.byte	0
 2156 0b03 01       		.uleb128 0x1
 2157 0b04 FA070000 		.4byte	.LASF170
 2158 0b08 10       		.byte	0x10
 2159 0b09 17       		.byte	0x17
 2160 0b0a 11       		.byte	0x11
 2161 0b0b 4A090000 		.4byte	0x94a
 2162 0b0f 01       		.byte	0x1
ARM GAS  C:\Users\DEVELO~1\AppData\Local\Temp\ccpirKJb.s 			page 39


 2163 0b10 01       		.uleb128 0x1
 2164 0b11 A4090000 		.4byte	.LASF171
 2165 0b15 10       		.byte	0x10
 2166 0b16 18       		.byte	0x18
 2167 0b17 08       		.byte	0x8
 2168 0b18 D5080000 		.4byte	0x8d5
 2169 0b1c 02       		.byte	0x2
 2170 0b1d 01       		.uleb128 0x1
 2171 0b1e CE090000 		.4byte	.LASF172
 2172 0b22 10       		.byte	0x10
 2173 0b23 19       		.byte	0x19
 2174 0b24 17       		.byte	0x17
 2175 0b25 E10A0000 		.4byte	0xae1
 2176 0b29 04       		.byte	0x4
 2177 0b2a 00       		.byte	0
 2178 0b2b 02       		.uleb128 0x2
 2179 0b2c C00A0000 		.4byte	.LASF173
 2180 0b30 10       		.byte	0x10
 2181 0b31 1A       		.byte	0x1a
 2182 0b32 03       		.byte	0x3
 2183 0b33 ED0A0000 		.4byte	0xaed
 2184 0b37 0C       		.uleb128 0xc
 2185 0b38 30       		.byte	0x30
 2186 0b39 10       		.byte	0x10
 2187 0b3a 1F       		.byte	0x1f
 2188 0b3b 09       		.byte	0x9
 2189 0b3c 820B0000 		.4byte	0xb82
 2190 0b40 01       		.uleb128 0x1
 2191 0b41 51080000 		.4byte	.LASF174
 2192 0b45 10       		.byte	0x10
 2193 0b46 20       		.byte	0x20
 2194 0b47 15       		.byte	0x15
 2195 0b48 560A0000 		.4byte	0xa56
 2196 0b4c 00       		.byte	0
 2197 0b4d 01       		.uleb128 0x1
 2198 0b4e 9F010000 		.4byte	.LASF175
 2199 0b52 10       		.byte	0x10
 2200 0b53 21       		.byte	0x21
 2201 0b54 0C       		.byte	0xc
 2202 0b55 DF000000 		.4byte	0xdf
 2203 0b59 04       		.byte	0x4
 2204 0b5a 01       		.uleb128 0x1
 2205 0b5b 6E030000 		.4byte	.LASF176
 2206 0b5f 10       		.byte	0x10
 2207 0b60 22       		.byte	0x22
 2208 0b61 0C       		.byte	0xc
 2209 0b62 DF000000 		.4byte	0xdf
 2210 0b66 08       		.byte	0x8
 2211 0b67 01       		.uleb128 0x1
 2212 0b68 F70A0000 		.4byte	.LASF177
 2213 0b6c 10       		.byte	0x10
 2214 0b6d 23       		.byte	0x23
 2215 0b6e 17       		.byte	0x17
 2216 0b6f E10A0000 		.4byte	0xae1
 2217 0b73 0C       		.byte	0xc
 2218 0b74 01       		.uleb128 0x1
 2219 0b75 96050000 		.4byte	.LASF178
ARM GAS  C:\Users\DEVELO~1\AppData\Local\Temp\ccpirKJb.s 			page 40


 2220 0b79 10       		.byte	0x10
 2221 0b7a 24       		.byte	0x24
 2222 0b7b 18       		.byte	0x18
 2223 0b7c 820B0000 		.4byte	0xb82
 2224 0b80 2C       		.byte	0x2c
 2225 0b81 00       		.byte	0
 2226 0b82 07       		.uleb128 0x7
 2227 0b83 E1080000 		.4byte	0x8e1
 2228 0b87 02       		.uleb128 0x2
 2229 0b88 9E0A0000 		.4byte	.LASF179
 2230 0b8c 10       		.byte	0x10
 2231 0b8d 25       		.byte	0x25
 2232 0b8e 03       		.byte	0x3
 2233 0b8f 370B0000 		.4byte	0xb37
 2234 0b93 2A       		.uleb128 0x2a
 2235 0b94 20010000 		.4byte	.LASF180
 2236 0b98 10       		.byte	0x10
 2237 0b99 3E       		.byte	0x3e
 2238 0b9a 1B       		.byte	0x1b
 2239 0b9b 2B0B0000 		.4byte	0xb2b
 2240 0b9f 2B       		.uleb128 0x2b
 2241 0ba0 930B0000 		.4byte	0xb93
 2242 0ba4 01       		.byte	0x1
 2243 0ba5 09       		.byte	0x9
 2244 0ba6 14       		.byte	0x14
 2245 0ba7 05       		.uleb128 0x5
 2246 0ba8 03       		.byte	0x3
 2247 0ba9 00000000 		.4byte	sdram_ctx
 2248 0bad 2C       		.uleb128 0x2c
 2249 0bae EF020000 		.4byte	.LASF181
 2250 0bb2 01       		.byte	0x1
 2251 0bb3 10       		.byte	0x10
 2252 0bb4 01       		.byte	0x1
 2253 0bb5 C4080000 		.4byte	0x8c4
 2254 0bb9 05       		.uleb128 0x5
 2255 0bba 03       		.byte	0x3
 2256 0bbb 00000000 		.4byte	sdram_ctx_mtx
 2257 0bbf 1C       		.uleb128 0x1c
 2258 0bc0 3F000000 		.4byte	.LASF182
 2259 0bc4 34       		.byte	0x34
 2260 0bc5 D5080000 		.4byte	0x8d5
 2261 0bc9 D80B0000 		.4byte	0xbd8
 2262 0bcd 11       		.uleb128 0x11
 2263 0bce 7F090000 		.4byte	0x97f
 2264 0bd2 11       		.uleb128 0x11
 2265 0bd3 D80B0000 		.4byte	0xbd8
 2266 0bd7 00       		.byte	0
 2267 0bd8 07       		.uleb128 0x7
 2268 0bd9 D5090000 		.4byte	0x9d5
 2269 0bdd 1C       		.uleb128 0x1c
 2270 0bde B5020000 		.4byte	.LASF183
 2271 0be2 39       		.byte	0x39
 2272 0be3 D5080000 		.4byte	0x8d5
 2273 0be7 F10B0000 		.4byte	0xbf1
 2274 0beb 11       		.uleb128 0x11
 2275 0bec F10B0000 		.4byte	0xbf1
 2276 0bf0 00       		.byte	0
ARM GAS  C:\Users\DEVELO~1\AppData\Local\Temp\ccpirKJb.s 			page 41


 2277 0bf1 07       		.uleb128 0x7
 2278 0bf2 870B0000 		.4byte	0xb87
 2279 0bf6 2D       		.uleb128 0x2d
 2280 0bf7 FD020000 		.4byte	.LASF205
 2281 0bfb 10       		.byte	0x10
 2282 0bfc 2D       		.byte	0x2d
 2283 0bfd 06       		.byte	0x6
 2284 0bfe D5080000 		.4byte	0x8d5
 2285 0c02 1D       		.uleb128 0x1d
 2286 0c03 C5010000 		.4byte	.LASF184
 2287 0c07 6B       		.byte	0x6b
 2288 0c08 120C0000 		.4byte	0xc12
 2289 0c0c 11       		.uleb128 0x11
 2290 0c0d D0080000 		.4byte	0x8d0
 2291 0c11 00       		.byte	0
 2292 0c12 1D       		.uleb128 0x1d
 2293 0c13 33060000 		.4byte	.LASF185
 2294 0c17 67       		.byte	0x67
 2295 0c18 220C0000 		.4byte	0xc22
 2296 0c1c 11       		.uleb128 0x11
 2297 0c1d D0080000 		.4byte	0x8d0
 2298 0c21 00       		.byte	0
 2299 0c22 14       		.uleb128 0x14
 2300 0c23 F5010000 		.4byte	.LASF188
 2301 0c27 99       		.byte	0x99
 2302 0c28 06       		.byte	0x6
 2303 0c29 D5080000 		.4byte	0x8d5
 2304 0c2d 00000000 		.4byte	.LFB438
 2305 0c31 50000000 		.4byte	.LFE438-.LFB438
 2306 0c35 01       		.uleb128 0x1
 2307 0c36 9C       		.byte	0x9c
 2308 0c37 ED0C0000 		.4byte	0xced
 2309 0c3b 12       		.uleb128 0x12
 2310 0c3c 9A080000 		.4byte	.LASF186
 2311 0c40 99       		.byte	0x99
 2312 0c41 29       		.byte	0x29
 2313 0c42 7F090000 		.4byte	0x97f
 2314 0c46 14000000 		.4byte	.LLST10
 2315 0c4a 0C000000 		.4byte	.LVUS10
 2316 0c4e 12       		.uleb128 0x12
 2317 0c4f A0070000 		.4byte	.LASF187
 2318 0c53 99       		.byte	0x99
 2319 0c54 49       		.byte	0x49
 2320 0c55 D80B0000 		.4byte	0xbd8
 2321 0c59 3A000000 		.4byte	.LLST11
 2322 0c5d 34000000 		.4byte	.LVUS11
 2323 0c61 0E       		.uleb128 0xe
 2324 0c62 5B020000 		.4byte	.LASF37
 2325 0c66 9F       		.byte	0x9f
 2326 0c67 11       		.byte	0x11
 2327 0c68 0F090000 		.4byte	0x90f
 2328 0c6c 53000000 		.4byte	.LLST12
 2329 0c70 4F000000 		.4byte	.LVUS12
 2330 0c74 0E       		.uleb128 0xe
 2331 0c75 A4090000 		.4byte	.LASF171
 2332 0c79 A0       		.byte	0xa0
 2333 0c7a 08       		.byte	0x8
ARM GAS  C:\Users\DEVELO~1\AppData\Local\Temp\ccpirKJb.s 			page 42


 2334 0c7b D5080000 		.4byte	0x8d5
 2335 0c7f 6B000000 		.4byte	.LLST13
 2336 0c83 67000000 		.4byte	.LVUS13
 2337 0c87 1E       		.uleb128 0x1e
 2338 0c88 57100000 		.4byte	0x1057
 2339 0c8c 30000000 		.4byte	.LBI14
 2340 0c90 01       		.byte	.LVU187
 2341 0c91 18000000 		.4byte	.LLRL14
 2342 0c95 A4       		.byte	0xa4
 2343 0c96 A80C0000 		.4byte	0xca8
 2344 0c9a 1F       		.uleb128 0x1f
 2345 0c9b 61100000 		.4byte	0x1061
 2346 0c9f 81000000 		.4byte	.LLST15
 2347 0ca3 7F000000 		.4byte	.LVUS15
 2348 0ca7 00       		.byte	0
 2349 0ca8 06       		.uleb128 0x6
 2350 0ca9 0E000000 		.4byte	.LVL43
 2351 0cad 120C0000 		.4byte	0xc12
 2352 0cb1 BF0C0000 		.4byte	0xcbf
 2353 0cb5 03       		.uleb128 0x3
 2354 0cb6 01       		.uleb128 0x1
 2355 0cb7 50       		.byte	0x50
 2356 0cb8 05       		.uleb128 0x5
 2357 0cb9 03       		.byte	0x3
 2358 0cba 00000000 		.4byte	.LANCHOR0
 2359 0cbe 00       		.byte	0
 2360 0cbf 06       		.uleb128 0x6
 2361 0cc0 1A000000 		.4byte	.LVL46
 2362 0cc4 020C0000 		.4byte	0xc02
 2363 0cc8 D60C0000 		.4byte	0xcd6
 2364 0ccc 03       		.uleb128 0x3
 2365 0ccd 01       		.uleb128 0x1
 2366 0cce 50       		.byte	0x50
 2367 0ccf 05       		.uleb128 0x5
 2368 0cd0 03       		.byte	0x3
 2369 0cd1 00000000 		.4byte	.LANCHOR0
 2370 0cd5 00       		.byte	0
 2371 0cd6 15       		.uleb128 0x15
 2372 0cd7 2C000000 		.4byte	.LVL47
 2373 0cdb BF0B0000 		.4byte	0xbbf
 2374 0cdf 03       		.uleb128 0x3
 2375 0ce0 01       		.uleb128 0x1
 2376 0ce1 50       		.byte	0x50
 2377 0ce2 02       		.uleb128 0x2
 2378 0ce3 75       		.byte	0x75
 2379 0ce4 00       		.sleb128 0
 2380 0ce5 03       		.uleb128 0x3
 2381 0ce6 01       		.uleb128 0x1
 2382 0ce7 51       		.byte	0x51
 2383 0ce8 02       		.uleb128 0x2
 2384 0ce9 74       		.byte	0x74
 2385 0cea 00       		.sleb128 0
 2386 0ceb 00       		.byte	0
 2387 0cec 00       		.byte	0
 2388 0ced 14       		.uleb128 0x14
 2389 0cee 11010000 		.4byte	.LASF189
 2390 0cf2 67       		.byte	0x67
ARM GAS  C:\Users\DEVELO~1\AppData\Local\Temp\ccpirKJb.s 			page 43


 2391 0cf3 06       		.byte	0x6
 2392 0cf4 D5080000 		.4byte	0x8d5
 2393 0cf8 00000000 		.4byte	.LFB437
 2394 0cfc D0000000 		.4byte	.LFE437-.LFB437
 2395 0d00 01       		.uleb128 0x1
 2396 0d01 9C       		.byte	0x9c
 2397 0d02 060E0000 		.4byte	0xe06
 2398 0d06 12       		.uleb128 0x12
 2399 0d07 51080000 		.4byte	.LASF174
 2400 0d0b 67       		.byte	0x67
 2401 0d0c 27       		.byte	0x27
 2402 0d0d 560A0000 		.4byte	0xa56
 2403 0d11 8E000000 		.4byte	.LLST6
 2404 0d15 8A000000 		.4byte	.LVUS6
 2405 0d19 12       		.uleb128 0x12
 2406 0d1a 40010000 		.4byte	.LASF190
 2407 0d1e 67       		.byte	0x67
 2408 0d1f 42       		.byte	0x42
 2409 0d20 060E0000 		.4byte	0xe06
 2410 0d24 A6000000 		.4byte	.LLST7
 2411 0d28 A2000000 		.4byte	.LVUS7
 2412 0d2c 0E       		.uleb128 0xe
 2413 0d2d E9010000 		.4byte	.LASF191
 2414 0d31 68       		.byte	0x68
 2415 0d32 11       		.byte	0x11
 2416 0d33 0F090000 		.4byte	0x90f
 2417 0d37 B9000000 		.4byte	.LLST8
 2418 0d3b B7000000 		.4byte	.LVUS8
 2419 0d3f 2E       		.uleb128 0x2e
 2420 0d40 63747800 		.ascii	"ctx\000"
 2421 0d44 01       		.byte	0x1
 2422 0d45 75       		.byte	0x75
 2423 0d46 18       		.byte	0x18
 2424 0d47 870B0000 		.4byte	0xb87
 2425 0d4b 03       		.uleb128 0x3
 2426 0d4c 91       		.byte	0x91
 2427 0d4d B07F     		.sleb128 -80
 2428 0d4f 0E       		.uleb128 0xe
 2429 0d50 D30A0000 		.4byte	.LASF192
 2430 0d54 79       		.byte	0x79
 2431 0d55 08       		.byte	0x8
 2432 0d56 D5080000 		.4byte	0x8d5
 2433 0d5a C5000000 		.4byte	.LLST9
 2434 0d5e C3000000 		.4byte	.LVUS9
 2435 0d62 06       		.uleb128 0x6
 2436 0d63 12000000 		.4byte	.LVL30
 2437 0d67 120C0000 		.4byte	0xc12
 2438 0d6b 790D0000 		.4byte	0xd79
 2439 0d6f 03       		.uleb128 0x3
 2440 0d70 01       		.uleb128 0x1
 2441 0d71 50       		.byte	0x50
 2442 0d72 05       		.uleb128 0x5
 2443 0d73 03       		.byte	0x3
 2444 0d74 00000000 		.4byte	.LANCHOR0
 2445 0d78 00       		.byte	0
 2446 0d79 06       		.uleb128 0x6
 2447 0d7a 2E000000 		.4byte	.LVL32
ARM GAS  C:\Users\DEVELO~1\AppData\Local\Temp\ccpirKJb.s 			page 44


 2448 0d7e 020C0000 		.4byte	0xc02
 2449 0d82 900D0000 		.4byte	0xd90
 2450 0d86 03       		.uleb128 0x3
 2451 0d87 01       		.uleb128 0x1
 2452 0d88 50       		.byte	0x50
 2453 0d89 05       		.uleb128 0x5
 2454 0d8a 03       		.byte	0x3
 2455 0d8b 00000000 		.4byte	.LANCHOR0
 2456 0d8f 00       		.byte	0
 2457 0d90 06       		.uleb128 0x6
 2458 0d91 40000000 		.4byte	.LVL34
 2459 0d95 020C0000 		.4byte	0xc02
 2460 0d99 A70D0000 		.4byte	0xda7
 2461 0d9d 03       		.uleb128 0x3
 2462 0d9e 01       		.uleb128 0x1
 2463 0d9f 50       		.byte	0x50
 2464 0da0 05       		.uleb128 0x5
 2465 0da1 03       		.byte	0x3
 2466 0da2 00000000 		.4byte	.LANCHOR0
 2467 0da6 00       		.byte	0
 2468 0da7 06       		.uleb128 0x6
 2469 0da8 4A000000 		.4byte	.LVL35
 2470 0dac 83100000 		.4byte	0x1083
 2471 0db0 C70D0000 		.4byte	0xdc7
 2472 0db4 03       		.uleb128 0x3
 2473 0db5 01       		.uleb128 0x1
 2474 0db6 50       		.byte	0x50
 2475 0db7 02       		.uleb128 0x2
 2476 0db8 7D       		.byte	0x7d
 2477 0db9 00       		.sleb128 0
 2478 0dba 03       		.uleb128 0x3
 2479 0dbb 01       		.uleb128 0x1
 2480 0dbc 51       		.byte	0x51
 2481 0dbd 02       		.uleb128 0x2
 2482 0dbe 78       		.byte	0x78
 2483 0dbf 00       		.sleb128 0
 2484 0dc0 03       		.uleb128 0x3
 2485 0dc1 01       		.uleb128 0x1
 2486 0dc2 52       		.byte	0x52
 2487 0dc3 02       		.uleb128 0x2
 2488 0dc4 08       		.byte	0x8
 2489 0dc5 30       		.byte	0x30
 2490 0dc6 00       		.byte	0
 2491 0dc7 06       		.uleb128 0x6
 2492 0dc8 54000000 		.4byte	.LVL36
 2493 0dcc DD0B0000 		.4byte	0xbdd
 2494 0dd0 DB0D0000 		.4byte	0xddb
 2495 0dd4 03       		.uleb128 0x3
 2496 0dd5 01       		.uleb128 0x1
 2497 0dd6 50       		.byte	0x50
 2498 0dd7 02       		.uleb128 0x2
 2499 0dd8 7D       		.byte	0x7d
 2500 0dd9 00       		.sleb128 0
 2501 0dda 00       		.byte	0
 2502 0ddb 06       		.uleb128 0x6
 2503 0ddc 5C000000 		.4byte	.LVL38
 2504 0de0 120C0000 		.4byte	0xc12
ARM GAS  C:\Users\DEVELO~1\AppData\Local\Temp\ccpirKJb.s 			page 45


 2505 0de4 F20D0000 		.4byte	0xdf2
 2506 0de8 03       		.uleb128 0x3
 2507 0de9 01       		.uleb128 0x1
 2508 0dea 50       		.byte	0x50
 2509 0deb 05       		.uleb128 0x5
 2510 0dec 03       		.byte	0x3
 2511 0ded 00000000 		.4byte	.LANCHOR0
 2512 0df1 00       		.byte	0
 2513 0df2 15       		.uleb128 0x15
 2514 0df3 AC000000 		.4byte	.LVL39
 2515 0df7 020C0000 		.4byte	0xc02
 2516 0dfb 03       		.uleb128 0x3
 2517 0dfc 01       		.uleb128 0x1
 2518 0dfd 50       		.byte	0x50
 2519 0dfe 05       		.uleb128 0x5
 2520 0dff 03       		.byte	0x3
 2521 0e00 00000000 		.4byte	.LANCHOR0
 2522 0e04 00       		.byte	0
 2523 0e05 00       		.byte	0
 2524 0e06 07       		.uleb128 0x7
 2525 0e07 E10A0000 		.4byte	0xae1
 2526 0e0b 14       		.uleb128 0x14
 2527 0e0c 500A0000 		.4byte	.LASF193
 2528 0e10 60       		.byte	0x60
 2529 0e11 0F       		.byte	0xf
 2530 0e12 4A090000 		.4byte	0x94a
 2531 0e16 00000000 		.4byte	.LFB436
 2532 0e1a 20000000 		.4byte	.LFE436-.LFB436
 2533 0e1e 01       		.uleb128 0x1
 2534 0e1f 9C       		.byte	0x9c
 2535 0e20 5F0E0000 		.4byte	0xe5f
 2536 0e24 0E       		.uleb128 0xe
 2537 0e25 12070000 		.4byte	.LASF194
 2538 0e29 62       		.byte	0x62
 2539 0e2a 11       		.byte	0x11
 2540 0e2b 4A090000 		.4byte	0x94a
 2541 0e2f D4000000 		.4byte	.LLST5
 2542 0e33 CE000000 		.4byte	.LVUS5
 2543 0e37 06       		.uleb128 0x6
 2544 0e38 0A000000 		.4byte	.LVL24
 2545 0e3c 120C0000 		.4byte	0xc12
 2546 0e40 4B0E0000 		.4byte	0xe4b
 2547 0e44 03       		.uleb128 0x3
 2548 0e45 01       		.uleb128 0x1
 2549 0e46 50       		.byte	0x50
 2550 0e47 02       		.uleb128 0x2
 2551 0e48 74       		.byte	0x74
 2552 0e49 00       		.sleb128 0
 2553 0e4a 00       		.byte	0
 2554 0e4b 15       		.uleb128 0x15
 2555 0e4c 14000000 		.4byte	.LVL26
 2556 0e50 020C0000 		.4byte	0xc02
 2557 0e54 03       		.uleb128 0x3
 2558 0e55 01       		.uleb128 0x1
 2559 0e56 50       		.byte	0x50
 2560 0e57 05       		.uleb128 0x5
 2561 0e58 03       		.byte	0x3
ARM GAS  C:\Users\DEVELO~1\AppData\Local\Temp\ccpirKJb.s 			page 46


 2562 0e59 00000000 		.4byte	.LANCHOR0
 2563 0e5d 00       		.byte	0
 2564 0e5e 00       		.byte	0
 2565 0e5f 14       		.uleb128 0x14
 2566 0e60 70060000 		.4byte	.LASF195
 2567 0e64 59       		.byte	0x59
 2568 0e65 0F       		.byte	0xf
 2569 0e66 0F090000 		.4byte	0x90f
 2570 0e6a 00000000 		.4byte	.LFB435
 2571 0e6e 20000000 		.4byte	.LFE435-.LFB435
 2572 0e72 01       		.uleb128 0x1
 2573 0e73 9C       		.byte	0x9c
 2574 0e74 B30E0000 		.4byte	0xeb3
 2575 0e78 0E       		.uleb128 0xe
 2576 0e79 5B020000 		.4byte	.LASF37
 2577 0e7d 5B       		.byte	0x5b
 2578 0e7e 11       		.byte	0x11
 2579 0e7f 0F090000 		.4byte	0x90f
 2580 0e83 F3000000 		.4byte	.LLST4
 2581 0e87 ED000000 		.4byte	.LVUS4
 2582 0e8b 06       		.uleb128 0x6
 2583 0e8c 0A000000 		.4byte	.LVL20
 2584 0e90 120C0000 		.4byte	0xc12
 2585 0e94 9F0E0000 		.4byte	0xe9f
 2586 0e98 03       		.uleb128 0x3
 2587 0e99 01       		.uleb128 0x1
 2588 0e9a 50       		.byte	0x50
 2589 0e9b 02       		.uleb128 0x2
 2590 0e9c 74       		.byte	0x74
 2591 0e9d 00       		.sleb128 0
 2592 0e9e 00       		.byte	0
 2593 0e9f 15       		.uleb128 0x15
 2594 0ea0 14000000 		.4byte	.LVL22
 2595 0ea4 020C0000 		.4byte	0xc02
 2596 0ea8 03       		.uleb128 0x3
 2597 0ea9 01       		.uleb128 0x1
 2598 0eaa 50       		.byte	0x50
 2599 0eab 05       		.uleb128 0x5
 2600 0eac 03       		.byte	0x3
 2601 0ead 00000000 		.4byte	.LANCHOR0
 2602 0eb1 00       		.byte	0
 2603 0eb2 00       		.byte	0
 2604 0eb3 2F       		.uleb128 0x2f
 2605 0eb4 61020000 		.4byte	.LASF206
 2606 0eb8 01       		.byte	0x1
 2607 0eb9 23       		.byte	0x23
 2608 0eba 06       		.byte	0x6
 2609 0ebb 00000000 		.4byte	.LFB434
 2610 0ebf CC000000 		.4byte	.LFE434-.LFB434
 2611 0ec3 01       		.uleb128 0x1
 2612 0ec4 9C       		.byte	0x9c
 2613 0ec5 57100000 		.4byte	0x1057
 2614 0ec9 12       		.uleb128 0x12
 2615 0eca EF040000 		.4byte	.LASF196
 2616 0ece 23       		.byte	0x23
 2617 0ecf 16       		.byte	0x16
 2618 0ed0 D5080000 		.4byte	0x8d5
ARM GAS  C:\Users\DEVELO~1\AppData\Local\Temp\ccpirKJb.s 			page 47


 2619 0ed4 10010000 		.4byte	.LLST0
 2620 0ed8 0C010000 		.4byte	.LVUS0
 2621 0edc 30       		.uleb128 0x30
 2622 0edd C5090000 		.4byte	.LASF197
 2623 0ee1 01       		.byte	0x1
 2624 0ee2 40       		.byte	0x40
 2625 0ee3 18       		.byte	0x18
 2626 0ee4 870B0000 		.4byte	0xb87
 2627 0ee8 03       		.uleb128 0x3
 2628 0ee9 91       		.byte	0x91
 2629 0eea B87F     		.sleb128 -72
 2630 0eec 0E       		.uleb128 0xe
 2631 0eed E6000000 		.4byte	.LASF198
 2632 0ef1 48       		.byte	0x48
 2633 0ef2 08       		.byte	0x8
 2634 0ef3 D5080000 		.4byte	0x8d5
 2635 0ef7 28010000 		.4byte	.LLST1
 2636 0efb 24010000 		.4byte	.LVUS1
 2637 0eff 1E       		.uleb128 0x1e
 2638 0f00 6D100000 		.4byte	0x106d
 2639 0f04 B0000000 		.4byte	.LBI10
 2640 0f08 01       		.byte	.LVU66
 2641 0f09 0C000000 		.4byte	.LLRL2
 2642 0f0d 33       		.byte	0x33
 2643 0f0e 200F0000 		.4byte	0xf20
 2644 0f12 1F       		.uleb128 0x1f
 2645 0f13 77100000 		.4byte	0x1077
 2646 0f17 3A010000 		.4byte	.LLST3
 2647 0f1b 38010000 		.4byte	.LVUS3
 2648 0f1f 00       		.byte	0
 2649 0f20 06       		.uleb128 0x6
 2650 0f21 0E000000 		.4byte	.LVL2
 2651 0f25 120C0000 		.4byte	0xc12
 2652 0f29 370F0000 		.4byte	0xf37
 2653 0f2d 03       		.uleb128 0x3
 2654 0f2e 01       		.uleb128 0x1
 2655 0f2f 50       		.byte	0x50
 2656 0f30 05       		.uleb128 0x5
 2657 0f31 03       		.byte	0x3
 2658 0f32 00000000 		.4byte	.LANCHOR0
 2659 0f36 00       		.byte	0
 2660 0f37 06       		.uleb128 0x6
 2661 0f38 1E000000 		.4byte	.LVL3
 2662 0f3c 020C0000 		.4byte	0xc02
 2663 0f40 4E0F0000 		.4byte	0xf4e
 2664 0f44 03       		.uleb128 0x3
 2665 0f45 01       		.uleb128 0x1
 2666 0f46 50       		.byte	0x50
 2667 0f47 05       		.uleb128 0x5
 2668 0f48 03       		.byte	0x3
 2669 0f49 00000000 		.4byte	.LANCHOR0
 2670 0f4d 00       		.byte	0
 2671 0f4e 31       		.uleb128 0x31
 2672 0f4f 22000000 		.4byte	.LVL4
 2673 0f53 F60B0000 		.4byte	0xbf6
 2674 0f57 06       		.uleb128 0x6
 2675 0f58 32000000 		.4byte	.LVL5
ARM GAS  C:\Users\DEVELO~1\AppData\Local\Temp\ccpirKJb.s 			page 48


 2676 0f5c 83100000 		.4byte	0x1083
 2677 0f60 770F0000 		.4byte	0xf77
 2678 0f64 03       		.uleb128 0x3
 2679 0f65 01       		.uleb128 0x1
 2680 0f66 50       		.byte	0x50
 2681 0f67 02       		.uleb128 0x2
 2682 0f68 7D       		.byte	0x7d
 2683 0f69 00       		.sleb128 0
 2684 0f6a 03       		.uleb128 0x3
 2685 0f6b 01       		.uleb128 0x1
 2686 0f6c 51       		.byte	0x51
 2687 0f6d 02       		.uleb128 0x2
 2688 0f6e 76       		.byte	0x76
 2689 0f6f 00       		.sleb128 0
 2690 0f70 03       		.uleb128 0x3
 2691 0f71 01       		.uleb128 0x1
 2692 0f72 52       		.byte	0x52
 2693 0f73 02       		.uleb128 0x2
 2694 0f74 08       		.byte	0x8
 2695 0f75 30       		.byte	0x30
 2696 0f76 00       		.byte	0
 2697 0f77 06       		.uleb128 0x6
 2698 0f78 38000000 		.4byte	.LVL6
 2699 0f7c 120C0000 		.4byte	0xc12
 2700 0f80 8E0F0000 		.4byte	0xf8e
 2701 0f84 03       		.uleb128 0x3
 2702 0f85 01       		.uleb128 0x1
 2703 0f86 50       		.byte	0x50
 2704 0f87 05       		.uleb128 0x5
 2705 0f88 03       		.byte	0x3
 2706 0f89 00000000 		.4byte	.LANCHOR0
 2707 0f8d 00       		.byte	0
 2708 0f8e 06       		.uleb128 0x6
 2709 0f8f 40000000 		.4byte	.LVL7
 2710 0f93 020C0000 		.4byte	0xc02
 2711 0f97 A50F0000 		.4byte	0xfa5
 2712 0f9b 03       		.uleb128 0x3
 2713 0f9c 01       		.uleb128 0x1
 2714 0f9d 50       		.byte	0x50
 2715 0f9e 05       		.uleb128 0x5
 2716 0f9f 03       		.byte	0x3
 2717 0fa0 00000000 		.4byte	.LANCHOR0
 2718 0fa4 00       		.byte	0
 2719 0fa5 06       		.uleb128 0x6
 2720 0fa6 46000000 		.4byte	.LVL8
 2721 0faa DD0B0000 		.4byte	0xbdd
 2722 0fae B90F0000 		.4byte	0xfb9
 2723 0fb2 03       		.uleb128 0x3
 2724 0fb3 01       		.uleb128 0x1
 2725 0fb4 50       		.byte	0x50
 2726 0fb5 02       		.uleb128 0x2
 2727 0fb6 7D       		.byte	0x7d
 2728 0fb7 00       		.sleb128 0
 2729 0fb8 00       		.byte	0
 2730 0fb9 06       		.uleb128 0x6
 2731 0fba 4E000000 		.4byte	.LVL10
 2732 0fbe 120C0000 		.4byte	0xc12
ARM GAS  C:\Users\DEVELO~1\AppData\Local\Temp\ccpirKJb.s 			page 49


 2733 0fc2 D00F0000 		.4byte	0xfd0
 2734 0fc6 03       		.uleb128 0x3
 2735 0fc7 01       		.uleb128 0x1
 2736 0fc8 50       		.byte	0x50
 2737 0fc9 05       		.uleb128 0x5
 2738 0fca 03       		.byte	0x3
 2739 0fcb 00000000 		.4byte	.LANCHOR0
 2740 0fcf 00       		.byte	0
 2741 0fd0 06       		.uleb128 0x6
 2742 0fd1 78000000 		.4byte	.LVL11
 2743 0fd5 020C0000 		.4byte	0xc02
 2744 0fd9 E70F0000 		.4byte	0xfe7
 2745 0fdd 03       		.uleb128 0x3
 2746 0fde 01       		.uleb128 0x1
 2747 0fdf 50       		.byte	0x50
 2748 0fe0 05       		.uleb128 0x5
 2749 0fe1 03       		.byte	0x3
 2750 0fe2 00000000 		.4byte	.LANCHOR0
 2751 0fe6 00       		.byte	0
 2752 0fe7 20       		.uleb128 0x20
 2753 0fe8 88000000 		.4byte	.LVL13
 2754 0fec 020C0000 		.4byte	0xc02
 2755 0ff0 FE0F0000 		.4byte	0xffe
 2756 0ff4 03       		.uleb128 0x3
 2757 0ff5 01       		.uleb128 0x1
 2758 0ff6 50       		.byte	0x50
 2759 0ff7 05       		.uleb128 0x5
 2760 0ff8 03       		.byte	0x3
 2761 0ff9 00000000 		.4byte	.LANCHOR0
 2762 0ffd 00       		.byte	0
 2763 0ffe 06       		.uleb128 0x6
 2764 0fff 8E000000 		.4byte	.LVL14
 2765 1003 120C0000 		.4byte	0xc12
 2766 1007 15100000 		.4byte	0x1015
 2767 100b 03       		.uleb128 0x3
 2768 100c 01       		.uleb128 0x1
 2769 100d 50       		.byte	0x50
 2770 100e 05       		.uleb128 0x5
 2771 100f 03       		.byte	0x3
 2772 1010 00000000 		.4byte	.LANCHOR0
 2773 1014 00       		.byte	0
 2774 1015 20       		.uleb128 0x20
 2775 1016 9E000000 		.4byte	.LVL15
 2776 101a 020C0000 		.4byte	0xc02
 2777 101e 2C100000 		.4byte	0x102c
 2778 1022 03       		.uleb128 0x3
 2779 1023 01       		.uleb128 0x1
 2780 1024 50       		.byte	0x50
 2781 1025 05       		.uleb128 0x5
 2782 1026 03       		.byte	0x3
 2783 1027 00000000 		.4byte	.LANCHOR0
 2784 102b 00       		.byte	0
 2785 102c 06       		.uleb128 0x6
 2786 102d B0000000 		.4byte	.LVL17
 2787 1031 120C0000 		.4byte	0xc12
 2788 1035 43100000 		.4byte	0x1043
 2789 1039 03       		.uleb128 0x3
ARM GAS  C:\Users\DEVELO~1\AppData\Local\Temp\ccpirKJb.s 			page 50


 2790 103a 01       		.uleb128 0x1
 2791 103b 50       		.byte	0x50
 2792 103c 05       		.uleb128 0x5
 2793 103d 03       		.byte	0x3
 2794 103e 00000000 		.4byte	.LANCHOR0
 2795 1042 00       		.byte	0
 2796 1043 32       		.uleb128 0x32
 2797 1044 C2000000 		.4byte	.LVL19
 2798 1048 020C0000 		.4byte	0xc02
 2799 104c 03       		.uleb128 0x3
 2800 104d 01       		.uleb128 0x1
 2801 104e 50       		.byte	0x50
 2802 104f 05       		.uleb128 0x5
 2803 1050 03       		.byte	0x3
 2804 1051 00000000 		.4byte	.LANCHOR0
 2805 1055 00       		.byte	0
 2806 1056 00       		.byte	0
 2807 1057 21       		.uleb128 0x21
 2808 1058 10090000 		.4byte	.LASF199
 2809 105c 17       		.byte	0x17
 2810 105d 6D100000 		.4byte	0x106d
 2811 1061 22       		.uleb128 0x22
 2812 1062 8B070000 		.4byte	.LASF201
 2813 1066 17       		.byte	0x17
 2814 1067 3A       		.byte	0x3a
 2815 1068 D80B0000 		.4byte	0xbd8
 2816 106c 00       		.byte	0
 2817 106d 21       		.uleb128 0x21
 2818 106e BE060000 		.4byte	.LASF200
 2819 1072 12       		.byte	0x12
 2820 1073 83100000 		.4byte	0x1083
 2821 1077 22       		.uleb128 0x22
 2822 1078 12070000 		.4byte	.LASF194
 2823 107c 12       		.byte	0x12
 2824 107d 32       		.byte	0x32
 2825 107e 4A090000 		.4byte	0x94a
 2826 1082 00       		.byte	0
 2827 1083 33       		.uleb128 0x33
 2828 1084 DF090000 		.4byte	.LASF207
 2829 1088 2A010000 		.4byte	.LASF208
 2830 108c 11       		.byte	0x11
 2831 108d 00       		.byte	0
 2832 108e 00       		.byte	0
 2833              		.section	.debug_abbrev,"",%progbits
 2834              	.Ldebug_abbrev0:
 2835 0000 01       		.uleb128 0x1
 2836 0001 0D       		.uleb128 0xd
 2837 0002 00       		.byte	0
 2838 0003 03       		.uleb128 0x3
 2839 0004 0E       		.uleb128 0xe
 2840 0005 3A       		.uleb128 0x3a
 2841 0006 0B       		.uleb128 0xb
 2842 0007 3B       		.uleb128 0x3b
 2843 0008 0B       		.uleb128 0xb
 2844 0009 39       		.uleb128 0x39
 2845 000a 0B       		.uleb128 0xb
 2846 000b 49       		.uleb128 0x49
ARM GAS  C:\Users\DEVELO~1\AppData\Local\Temp\ccpirKJb.s 			page 51


 2847 000c 13       		.uleb128 0x13
 2848 000d 38       		.uleb128 0x38
 2849 000e 0B       		.uleb128 0xb
 2850 000f 00       		.byte	0
 2851 0010 00       		.byte	0
 2852 0011 02       		.uleb128 0x2
 2853 0012 16       		.uleb128 0x16
 2854 0013 00       		.byte	0
 2855 0014 03       		.uleb128 0x3
 2856 0015 0E       		.uleb128 0xe
 2857 0016 3A       		.uleb128 0x3a
 2858 0017 0B       		.uleb128 0xb
 2859 0018 3B       		.uleb128 0x3b
 2860 0019 0B       		.uleb128 0xb
 2861 001a 39       		.uleb128 0x39
 2862 001b 0B       		.uleb128 0xb
 2863 001c 49       		.uleb128 0x49
 2864 001d 13       		.uleb128 0x13
 2865 001e 00       		.byte	0
 2866 001f 00       		.byte	0
 2867 0020 03       		.uleb128 0x3
 2868 0021 49       		.uleb128 0x49
 2869 0022 00       		.byte	0
 2870 0023 02       		.uleb128 0x2
 2871 0024 18       		.uleb128 0x18
 2872 0025 7E       		.uleb128 0x7e
 2873 0026 18       		.uleb128 0x18
 2874 0027 00       		.byte	0
 2875 0028 00       		.byte	0
 2876 0029 04       		.uleb128 0x4
 2877 002a 28       		.uleb128 0x28
 2878 002b 00       		.byte	0
 2879 002c 03       		.uleb128 0x3
 2880 002d 0E       		.uleb128 0xe
 2881 002e 1C       		.uleb128 0x1c
 2882 002f 0B       		.uleb128 0xb
 2883 0030 00       		.byte	0
 2884 0031 00       		.byte	0
 2885 0032 05       		.uleb128 0x5
 2886 0033 0D       		.uleb128 0xd
 2887 0034 00       		.byte	0
 2888 0035 03       		.uleb128 0x3
 2889 0036 0E       		.uleb128 0xe
 2890 0037 3A       		.uleb128 0x3a
 2891 0038 21       		.uleb128 0x21
 2892 0039 06       		.sleb128 6
 2893 003a 3B       		.uleb128 0x3b
 2894 003b 05       		.uleb128 0x5
 2895 003c 39       		.uleb128 0x39
 2896 003d 0B       		.uleb128 0xb
 2897 003e 49       		.uleb128 0x49
 2898 003f 13       		.uleb128 0x13
 2899 0040 38       		.uleb128 0x38
 2900 0041 0B       		.uleb128 0xb
 2901 0042 00       		.byte	0
 2902 0043 00       		.byte	0
 2903 0044 06       		.uleb128 0x6
ARM GAS  C:\Users\DEVELO~1\AppData\Local\Temp\ccpirKJb.s 			page 52


 2904 0045 48       		.uleb128 0x48
 2905 0046 01       		.byte	0x1
 2906 0047 7D       		.uleb128 0x7d
 2907 0048 01       		.uleb128 0x1
 2908 0049 7F       		.uleb128 0x7f
 2909 004a 13       		.uleb128 0x13
 2910 004b 01       		.uleb128 0x1
 2911 004c 13       		.uleb128 0x13
 2912 004d 00       		.byte	0
 2913 004e 00       		.byte	0
 2914 004f 07       		.uleb128 0x7
 2915 0050 0F       		.uleb128 0xf
 2916 0051 00       		.byte	0
 2917 0052 0B       		.uleb128 0xb
 2918 0053 21       		.uleb128 0x21
 2919 0054 04       		.sleb128 4
 2920 0055 49       		.uleb128 0x49
 2921 0056 13       		.uleb128 0x13
 2922 0057 00       		.byte	0
 2923 0058 00       		.byte	0
 2924 0059 08       		.uleb128 0x8
 2925 005a 24       		.uleb128 0x24
 2926 005b 00       		.byte	0
 2927 005c 0B       		.uleb128 0xb
 2928 005d 0B       		.uleb128 0xb
 2929 005e 3E       		.uleb128 0x3e
 2930 005f 0B       		.uleb128 0xb
 2931 0060 03       		.uleb128 0x3
 2932 0061 0E       		.uleb128 0xe
 2933 0062 00       		.byte	0
 2934 0063 00       		.byte	0
 2935 0064 09       		.uleb128 0x9
 2936 0065 0D       		.uleb128 0xd
 2937 0066 00       		.byte	0
 2938 0067 03       		.uleb128 0x3
 2939 0068 08       		.uleb128 0x8
 2940 0069 3A       		.uleb128 0x3a
 2941 006a 0B       		.uleb128 0xb
 2942 006b 3B       		.uleb128 0x3b
 2943 006c 05       		.uleb128 0x5
 2944 006d 39       		.uleb128 0x39
 2945 006e 0B       		.uleb128 0xb
 2946 006f 49       		.uleb128 0x49
 2947 0070 13       		.uleb128 0x13
 2948 0071 38       		.uleb128 0x38
 2949 0072 0B       		.uleb128 0xb
 2950 0073 00       		.byte	0
 2951 0074 00       		.byte	0
 2952 0075 0A       		.uleb128 0xa
 2953 0076 13       		.uleb128 0x13
 2954 0077 01       		.byte	0x1
 2955 0078 03       		.uleb128 0x3
 2956 0079 0E       		.uleb128 0xe
 2957 007a 0B       		.uleb128 0xb
 2958 007b 0B       		.uleb128 0xb
 2959 007c 3A       		.uleb128 0x3a
 2960 007d 0B       		.uleb128 0xb
ARM GAS  C:\Users\DEVELO~1\AppData\Local\Temp\ccpirKJb.s 			page 53


 2961 007e 3B       		.uleb128 0x3b
 2962 007f 0B       		.uleb128 0xb
 2963 0080 39       		.uleb128 0x39
 2964 0081 0B       		.uleb128 0xb
 2965 0082 01       		.uleb128 0x1
 2966 0083 13       		.uleb128 0x13
 2967 0084 00       		.byte	0
 2968 0085 00       		.byte	0
 2969 0086 0B       		.uleb128 0xb
 2970 0087 0D       		.uleb128 0xd
 2971 0088 00       		.byte	0
 2972 0089 03       		.uleb128 0x3
 2973 008a 08       		.uleb128 0x8
 2974 008b 3A       		.uleb128 0x3a
 2975 008c 0B       		.uleb128 0xb
 2976 008d 3B       		.uleb128 0x3b
 2977 008e 0B       		.uleb128 0xb
 2978 008f 39       		.uleb128 0x39
 2979 0090 0B       		.uleb128 0xb
 2980 0091 49       		.uleb128 0x49
 2981 0092 13       		.uleb128 0x13
 2982 0093 38       		.uleb128 0x38
 2983 0094 0B       		.uleb128 0xb
 2984 0095 00       		.byte	0
 2985 0096 00       		.byte	0
 2986 0097 0C       		.uleb128 0xc
 2987 0098 13       		.uleb128 0x13
 2988 0099 01       		.byte	0x1
 2989 009a 0B       		.uleb128 0xb
 2990 009b 0B       		.uleb128 0xb
 2991 009c 3A       		.uleb128 0x3a
 2992 009d 0B       		.uleb128 0xb
 2993 009e 3B       		.uleb128 0x3b
 2994 009f 0B       		.uleb128 0xb
 2995 00a0 39       		.uleb128 0x39
 2996 00a1 0B       		.uleb128 0xb
 2997 00a2 01       		.uleb128 0x1
 2998 00a3 13       		.uleb128 0x13
 2999 00a4 00       		.byte	0
 3000 00a5 00       		.byte	0
 3001 00a6 0D       		.uleb128 0xd
 3002 00a7 0D       		.uleb128 0xd
 3003 00a8 00       		.byte	0
 3004 00a9 03       		.uleb128 0x3
 3005 00aa 0E       		.uleb128 0xe
 3006 00ab 3A       		.uleb128 0x3a
 3007 00ac 0B       		.uleb128 0xb
 3008 00ad 3B       		.uleb128 0x3b
 3009 00ae 0B       		.uleb128 0xb
 3010 00af 39       		.uleb128 0x39
 3011 00b0 0B       		.uleb128 0xb
 3012 00b1 49       		.uleb128 0x49
 3013 00b2 13       		.uleb128 0x13
 3014 00b3 00       		.byte	0
 3015 00b4 00       		.byte	0
 3016 00b5 0E       		.uleb128 0xe
 3017 00b6 34       		.uleb128 0x34
ARM GAS  C:\Users\DEVELO~1\AppData\Local\Temp\ccpirKJb.s 			page 54


 3018 00b7 00       		.byte	0
 3019 00b8 03       		.uleb128 0x3
 3020 00b9 0E       		.uleb128 0xe
 3021 00ba 3A       		.uleb128 0x3a
 3022 00bb 21       		.uleb128 0x21
 3023 00bc 01       		.sleb128 1
 3024 00bd 3B       		.uleb128 0x3b
 3025 00be 0B       		.uleb128 0xb
 3026 00bf 39       		.uleb128 0x39
 3027 00c0 0B       		.uleb128 0xb
 3028 00c1 49       		.uleb128 0x49
 3029 00c2 13       		.uleb128 0x13
 3030 00c3 02       		.uleb128 0x2
 3031 00c4 17       		.uleb128 0x17
 3032 00c5 B742     		.uleb128 0x2137
 3033 00c7 17       		.uleb128 0x17
 3034 00c8 00       		.byte	0
 3035 00c9 00       		.byte	0
 3036 00ca 0F       		.uleb128 0xf
 3037 00cb 0D       		.uleb128 0xd
 3038 00cc 00       		.byte	0
 3039 00cd 03       		.uleb128 0x3
 3040 00ce 0E       		.uleb128 0xe
 3041 00cf 3A       		.uleb128 0x3a
 3042 00d0 21       		.uleb128 0x21
 3043 00d1 06       		.sleb128 6
 3044 00d2 3B       		.uleb128 0x3b
 3045 00d3 05       		.uleb128 0x5
 3046 00d4 39       		.uleb128 0x39
 3047 00d5 0B       		.uleb128 0xb
 3048 00d6 49       		.uleb128 0x49
 3049 00d7 13       		.uleb128 0x13
 3050 00d8 00       		.byte	0
 3051 00d9 00       		.byte	0
 3052 00da 10       		.uleb128 0x10
 3053 00db 04       		.uleb128 0x4
 3054 00dc 01       		.byte	0x1
 3055 00dd 3E       		.uleb128 0x3e
 3056 00de 21       		.uleb128 0x21
 3057 00df 07       		.sleb128 7
 3058 00e0 0B       		.uleb128 0xb
 3059 00e1 21       		.uleb128 0x21
 3060 00e2 01       		.sleb128 1
 3061 00e3 49       		.uleb128 0x49
 3062 00e4 13       		.uleb128 0x13
 3063 00e5 3A       		.uleb128 0x3a
 3064 00e6 21       		.uleb128 0x21
 3065 00e7 0F       		.sleb128 15
 3066 00e8 3B       		.uleb128 0x3b
 3067 00e9 0B       		.uleb128 0xb
 3068 00ea 39       		.uleb128 0x39
 3069 00eb 21       		.uleb128 0x21
 3070 00ec 0E       		.sleb128 14
 3071 00ed 01       		.uleb128 0x1
 3072 00ee 13       		.uleb128 0x13
 3073 00ef 00       		.byte	0
 3074 00f0 00       		.byte	0
ARM GAS  C:\Users\DEVELO~1\AppData\Local\Temp\ccpirKJb.s 			page 55


 3075 00f1 11       		.uleb128 0x11
 3076 00f2 05       		.uleb128 0x5
 3077 00f3 00       		.byte	0
 3078 00f4 49       		.uleb128 0x49
 3079 00f5 13       		.uleb128 0x13
 3080 00f6 00       		.byte	0
 3081 00f7 00       		.byte	0
 3082 00f8 12       		.uleb128 0x12
 3083 00f9 05       		.uleb128 0x5
 3084 00fa 00       		.byte	0
 3085 00fb 03       		.uleb128 0x3
 3086 00fc 0E       		.uleb128 0xe
 3087 00fd 3A       		.uleb128 0x3a
 3088 00fe 21       		.uleb128 0x21
 3089 00ff 01       		.sleb128 1
 3090 0100 3B       		.uleb128 0x3b
 3091 0101 0B       		.uleb128 0xb
 3092 0102 39       		.uleb128 0x39
 3093 0103 0B       		.uleb128 0xb
 3094 0104 49       		.uleb128 0x49
 3095 0105 13       		.uleb128 0x13
 3096 0106 02       		.uleb128 0x2
 3097 0107 17       		.uleb128 0x17
 3098 0108 B742     		.uleb128 0x2137
 3099 010a 17       		.uleb128 0x17
 3100 010b 00       		.byte	0
 3101 010c 00       		.byte	0
 3102 010d 13       		.uleb128 0x13
 3103 010e 13       		.uleb128 0x13
 3104 010f 01       		.byte	0x1
 3105 0110 03       		.uleb128 0x3
 3106 0111 0E       		.uleb128 0xe
 3107 0112 0B       		.uleb128 0xb
 3108 0113 0B       		.uleb128 0xb
 3109 0114 3A       		.uleb128 0x3a
 3110 0115 0B       		.uleb128 0xb
 3111 0116 3B       		.uleb128 0x3b
 3112 0117 05       		.uleb128 0x5
 3113 0118 39       		.uleb128 0x39
 3114 0119 0B       		.uleb128 0xb
 3115 011a 01       		.uleb128 0x1
 3116 011b 13       		.uleb128 0x13
 3117 011c 00       		.byte	0
 3118 011d 00       		.byte	0
 3119 011e 14       		.uleb128 0x14
 3120 011f 2E       		.uleb128 0x2e
 3121 0120 01       		.byte	0x1
 3122 0121 3F       		.uleb128 0x3f
 3123 0122 19       		.uleb128 0x19
 3124 0123 03       		.uleb128 0x3
 3125 0124 0E       		.uleb128 0xe
 3126 0125 3A       		.uleb128 0x3a
 3127 0126 21       		.uleb128 0x21
 3128 0127 01       		.sleb128 1
 3129 0128 3B       		.uleb128 0x3b
 3130 0129 0B       		.uleb128 0xb
 3131 012a 39       		.uleb128 0x39
ARM GAS  C:\Users\DEVELO~1\AppData\Local\Temp\ccpirKJb.s 			page 56


 3132 012b 0B       		.uleb128 0xb
 3133 012c 27       		.uleb128 0x27
 3134 012d 19       		.uleb128 0x19
 3135 012e 49       		.uleb128 0x49
 3136 012f 13       		.uleb128 0x13
 3137 0130 11       		.uleb128 0x11
 3138 0131 01       		.uleb128 0x1
 3139 0132 12       		.uleb128 0x12
 3140 0133 06       		.uleb128 0x6
 3141 0134 40       		.uleb128 0x40
 3142 0135 18       		.uleb128 0x18
 3143 0136 7A       		.uleb128 0x7a
 3144 0137 19       		.uleb128 0x19
 3145 0138 01       		.uleb128 0x1
 3146 0139 13       		.uleb128 0x13
 3147 013a 00       		.byte	0
 3148 013b 00       		.byte	0
 3149 013c 15       		.uleb128 0x15
 3150 013d 48       		.uleb128 0x48
 3151 013e 01       		.byte	0x1
 3152 013f 7D       		.uleb128 0x7d
 3153 0140 01       		.uleb128 0x1
 3154 0141 7F       		.uleb128 0x7f
 3155 0142 13       		.uleb128 0x13
 3156 0143 00       		.byte	0
 3157 0144 00       		.byte	0
 3158 0145 16       		.uleb128 0x16
 3159 0146 35       		.uleb128 0x35
 3160 0147 00       		.byte	0
 3161 0148 49       		.uleb128 0x49
 3162 0149 13       		.uleb128 0x13
 3163 014a 00       		.byte	0
 3164 014b 00       		.byte	0
 3165 014c 17       		.uleb128 0x17
 3166 014d 26       		.uleb128 0x26
 3167 014e 00       		.byte	0
 3168 014f 49       		.uleb128 0x49
 3169 0150 13       		.uleb128 0x13
 3170 0151 00       		.byte	0
 3171 0152 00       		.byte	0
 3172 0153 18       		.uleb128 0x18
 3173 0154 17       		.uleb128 0x17
 3174 0155 01       		.byte	0x1
 3175 0156 0B       		.uleb128 0xb
 3176 0157 0B       		.uleb128 0xb
 3177 0158 3A       		.uleb128 0x3a
 3178 0159 0B       		.uleb128 0xb
 3179 015a 3B       		.uleb128 0x3b
 3180 015b 0B       		.uleb128 0xb
 3181 015c 39       		.uleb128 0x39
 3182 015d 21       		.uleb128 0x21
 3183 015e 03       		.sleb128 3
 3184 015f 01       		.uleb128 0x1
 3185 0160 13       		.uleb128 0x13
 3186 0161 00       		.byte	0
 3187 0162 00       		.byte	0
 3188 0163 19       		.uleb128 0x19
ARM GAS  C:\Users\DEVELO~1\AppData\Local\Temp\ccpirKJb.s 			page 57


 3189 0164 0D       		.uleb128 0xd
 3190 0165 00       		.byte	0
 3191 0166 03       		.uleb128 0x3
 3192 0167 08       		.uleb128 0x8
 3193 0168 3A       		.uleb128 0x3a
 3194 0169 21       		.uleb128 0x21
 3195 016a 0B       		.sleb128 11
 3196 016b 3B       		.uleb128 0x3b
 3197 016c 0B       		.uleb128 0xb
 3198 016d 39       		.uleb128 0x39
 3199 016e 21       		.uleb128 0x21
 3200 016f 07       		.sleb128 7
 3201 0170 49       		.uleb128 0x49
 3202 0171 13       		.uleb128 0x13
 3203 0172 00       		.byte	0
 3204 0173 00       		.byte	0
 3205 0174 1A       		.uleb128 0x1a
 3206 0175 0D       		.uleb128 0xd
 3207 0176 00       		.byte	0
 3208 0177 03       		.uleb128 0x3
 3209 0178 0E       		.uleb128 0xe
 3210 0179 3A       		.uleb128 0x3a
 3211 017a 21       		.uleb128 0x21
 3212 017b 0B       		.sleb128 11
 3213 017c 3B       		.uleb128 0x3b
 3214 017d 0B       		.uleb128 0xb
 3215 017e 39       		.uleb128 0x39
 3216 017f 21       		.uleb128 0x21
 3217 0180 19       		.sleb128 25
 3218 0181 49       		.uleb128 0x49
 3219 0182 13       		.uleb128 0x13
 3220 0183 0D       		.uleb128 0xd
 3221 0184 0B       		.uleb128 0xb
 3222 0185 6B       		.uleb128 0x6b
 3223 0186 0B       		.uleb128 0xb
 3224 0187 00       		.byte	0
 3225 0188 00       		.byte	0
 3226 0189 1B       		.uleb128 0x1b
 3227 018a 16       		.uleb128 0x16
 3228 018b 00       		.byte	0
 3229 018c 03       		.uleb128 0x3
 3230 018d 0E       		.uleb128 0xe
 3231 018e 3A       		.uleb128 0x3a
 3232 018f 21       		.uleb128 0x21
 3233 0190 06       		.sleb128 6
 3234 0191 3B       		.uleb128 0x3b
 3235 0192 05       		.uleb128 0x5
 3236 0193 39       		.uleb128 0x39
 3237 0194 21       		.uleb128 0x21
 3238 0195 03       		.sleb128 3
 3239 0196 49       		.uleb128 0x49
 3240 0197 13       		.uleb128 0x13
 3241 0198 00       		.byte	0
 3242 0199 00       		.byte	0
 3243 019a 1C       		.uleb128 0x1c
 3244 019b 2E       		.uleb128 0x2e
 3245 019c 01       		.byte	0x1
ARM GAS  C:\Users\DEVELO~1\AppData\Local\Temp\ccpirKJb.s 			page 58


 3246 019d 3F       		.uleb128 0x3f
 3247 019e 19       		.uleb128 0x19
 3248 019f 03       		.uleb128 0x3
 3249 01a0 0E       		.uleb128 0xe
 3250 01a1 3A       		.uleb128 0x3a
 3251 01a2 21       		.uleb128 0x21
 3252 01a3 10       		.sleb128 16
 3253 01a4 3B       		.uleb128 0x3b
 3254 01a5 0B       		.uleb128 0xb
 3255 01a6 39       		.uleb128 0x39
 3256 01a7 21       		.uleb128 0x21
 3257 01a8 06       		.sleb128 6
 3258 01a9 27       		.uleb128 0x27
 3259 01aa 19       		.uleb128 0x19
 3260 01ab 49       		.uleb128 0x49
 3261 01ac 13       		.uleb128 0x13
 3262 01ad 3C       		.uleb128 0x3c
 3263 01ae 19       		.uleb128 0x19
 3264 01af 01       		.uleb128 0x1
 3265 01b0 13       		.uleb128 0x13
 3266 01b1 00       		.byte	0
 3267 01b2 00       		.byte	0
 3268 01b3 1D       		.uleb128 0x1d
 3269 01b4 2E       		.uleb128 0x2e
 3270 01b5 01       		.byte	0x1
 3271 01b6 3F       		.uleb128 0x3f
 3272 01b7 19       		.uleb128 0x19
 3273 01b8 03       		.uleb128 0x3
 3274 01b9 0E       		.uleb128 0xe
 3275 01ba 3A       		.uleb128 0x3a
 3276 01bb 21       		.uleb128 0x21
 3277 01bc 0E       		.sleb128 14
 3278 01bd 3B       		.uleb128 0x3b
 3279 01be 0B       		.uleb128 0xb
 3280 01bf 39       		.uleb128 0x39
 3281 01c0 21       		.uleb128 0x21
 3282 01c1 08       		.sleb128 8
 3283 01c2 27       		.uleb128 0x27
 3284 01c3 19       		.uleb128 0x19
 3285 01c4 3C       		.uleb128 0x3c
 3286 01c5 19       		.uleb128 0x19
 3287 01c6 01       		.uleb128 0x1
 3288 01c7 13       		.uleb128 0x13
 3289 01c8 00       		.byte	0
 3290 01c9 00       		.byte	0
 3291 01ca 1E       		.uleb128 0x1e
 3292 01cb 1D       		.uleb128 0x1d
 3293 01cc 01       		.byte	0x1
 3294 01cd 31       		.uleb128 0x31
 3295 01ce 13       		.uleb128 0x13
 3296 01cf 52       		.uleb128 0x52
 3297 01d0 01       		.uleb128 0x1
 3298 01d1 B842     		.uleb128 0x2138
 3299 01d3 0B       		.uleb128 0xb
 3300 01d4 55       		.uleb128 0x55
 3301 01d5 17       		.uleb128 0x17
 3302 01d6 58       		.uleb128 0x58
ARM GAS  C:\Users\DEVELO~1\AppData\Local\Temp\ccpirKJb.s 			page 59


 3303 01d7 21       		.uleb128 0x21
 3304 01d8 01       		.sleb128 1
 3305 01d9 59       		.uleb128 0x59
 3306 01da 0B       		.uleb128 0xb
 3307 01db 57       		.uleb128 0x57
 3308 01dc 21       		.uleb128 0x21
 3309 01dd 05       		.sleb128 5
 3310 01de 01       		.uleb128 0x1
 3311 01df 13       		.uleb128 0x13
 3312 01e0 00       		.byte	0
 3313 01e1 00       		.byte	0
 3314 01e2 1F       		.uleb128 0x1f
 3315 01e3 05       		.uleb128 0x5
 3316 01e4 00       		.byte	0
 3317 01e5 31       		.uleb128 0x31
 3318 01e6 13       		.uleb128 0x13
 3319 01e7 02       		.uleb128 0x2
 3320 01e8 17       		.uleb128 0x17
 3321 01e9 B742     		.uleb128 0x2137
 3322 01eb 17       		.uleb128 0x17
 3323 01ec 00       		.byte	0
 3324 01ed 00       		.byte	0
 3325 01ee 20       		.uleb128 0x20
 3326 01ef 48       		.uleb128 0x48
 3327 01f0 01       		.byte	0x1
 3328 01f1 7D       		.uleb128 0x7d
 3329 01f2 01       		.uleb128 0x1
 3330 01f3 8201     		.uleb128 0x82
 3331 01f5 19       		.uleb128 0x19
 3332 01f6 7F       		.uleb128 0x7f
 3333 01f7 13       		.uleb128 0x13
 3334 01f8 01       		.uleb128 0x1
 3335 01f9 13       		.uleb128 0x13
 3336 01fa 00       		.byte	0
 3337 01fb 00       		.byte	0
 3338 01fc 21       		.uleb128 0x21
 3339 01fd 2E       		.uleb128 0x2e
 3340 01fe 01       		.byte	0x1
 3341 01ff 03       		.uleb128 0x3
 3342 0200 0E       		.uleb128 0xe
 3343 0201 3A       		.uleb128 0x3a
 3344 0202 21       		.uleb128 0x21
 3345 0203 01       		.sleb128 1
 3346 0204 3B       		.uleb128 0x3b
 3347 0205 0B       		.uleb128 0xb
 3348 0206 39       		.uleb128 0x39
 3349 0207 21       		.uleb128 0x21
 3350 0208 0D       		.sleb128 13
 3351 0209 27       		.uleb128 0x27
 3352 020a 19       		.uleb128 0x19
 3353 020b 20       		.uleb128 0x20
 3354 020c 21       		.uleb128 0x21
 3355 020d 01       		.sleb128 1
 3356 020e 01       		.uleb128 0x1
 3357 020f 13       		.uleb128 0x13
 3358 0210 00       		.byte	0
 3359 0211 00       		.byte	0
ARM GAS  C:\Users\DEVELO~1\AppData\Local\Temp\ccpirKJb.s 			page 60


 3360 0212 22       		.uleb128 0x22
 3361 0213 05       		.uleb128 0x5
 3362 0214 00       		.byte	0
 3363 0215 03       		.uleb128 0x3
 3364 0216 0E       		.uleb128 0xe
 3365 0217 3A       		.uleb128 0x3a
 3366 0218 21       		.uleb128 0x21
 3367 0219 01       		.sleb128 1
 3368 021a 3B       		.uleb128 0x3b
 3369 021b 0B       		.uleb128 0xb
 3370 021c 39       		.uleb128 0x39
 3371 021d 0B       		.uleb128 0xb
 3372 021e 49       		.uleb128 0x49
 3373 021f 13       		.uleb128 0x13
 3374 0220 00       		.byte	0
 3375 0221 00       		.byte	0
 3376 0222 23       		.uleb128 0x23
 3377 0223 11       		.uleb128 0x11
 3378 0224 01       		.byte	0x1
 3379 0225 25       		.uleb128 0x25
 3380 0226 0E       		.uleb128 0xe
 3381 0227 13       		.uleb128 0x13
 3382 0228 0B       		.uleb128 0xb
 3383 0229 03       		.uleb128 0x3
 3384 022a 0E       		.uleb128 0xe
 3385 022b 1B       		.uleb128 0x1b
 3386 022c 0E       		.uleb128 0xe
 3387 022d 55       		.uleb128 0x55
 3388 022e 17       		.uleb128 0x17
 3389 022f 11       		.uleb128 0x11
 3390 0230 01       		.uleb128 0x1
 3391 0231 10       		.uleb128 0x10
 3392 0232 17       		.uleb128 0x17
 3393 0233 00       		.byte	0
 3394 0234 00       		.byte	0
 3395 0235 24       		.uleb128 0x24
 3396 0236 24       		.uleb128 0x24
 3397 0237 00       		.byte	0
 3398 0238 0B       		.uleb128 0xb
 3399 0239 0B       		.uleb128 0xb
 3400 023a 3E       		.uleb128 0x3e
 3401 023b 0B       		.uleb128 0xb
 3402 023c 03       		.uleb128 0x3
 3403 023d 08       		.uleb128 0x8
 3404 023e 00       		.byte	0
 3405 023f 00       		.byte	0
 3406 0240 25       		.uleb128 0x25
 3407 0241 13       		.uleb128 0x13
 3408 0242 01       		.byte	0x1
 3409 0243 03       		.uleb128 0x3
 3410 0244 0E       		.uleb128 0xe
 3411 0245 0B       		.uleb128 0xb
 3412 0246 05       		.uleb128 0x5
 3413 0247 3A       		.uleb128 0x3a
 3414 0248 0B       		.uleb128 0xb
 3415 0249 3B       		.uleb128 0x3b
 3416 024a 05       		.uleb128 0x5
ARM GAS  C:\Users\DEVELO~1\AppData\Local\Temp\ccpirKJb.s 			page 61


 3417 024b 39       		.uleb128 0x39
 3418 024c 0B       		.uleb128 0xb
 3419 024d 01       		.uleb128 0x1
 3420 024e 13       		.uleb128 0x13
 3421 024f 00       		.byte	0
 3422 0250 00       		.byte	0
 3423 0251 26       		.uleb128 0x26
 3424 0252 0F       		.uleb128 0xf
 3425 0253 00       		.byte	0
 3426 0254 0B       		.uleb128 0xb
 3427 0255 0B       		.uleb128 0xb
 3428 0256 00       		.byte	0
 3429 0257 00       		.byte	0
 3430 0258 27       		.uleb128 0x27
 3431 0259 13       		.uleb128 0x13
 3432 025a 01       		.byte	0x1
 3433 025b 0B       		.uleb128 0xb
 3434 025c 05       		.uleb128 0x5
 3435 025d 3A       		.uleb128 0x3a
 3436 025e 0B       		.uleb128 0xb
 3437 025f 3B       		.uleb128 0x3b
 3438 0260 0B       		.uleb128 0xb
 3439 0261 39       		.uleb128 0x39
 3440 0262 0B       		.uleb128 0xb
 3441 0263 01       		.uleb128 0x1
 3442 0264 13       		.uleb128 0x13
 3443 0265 00       		.byte	0
 3444 0266 00       		.byte	0
 3445 0267 28       		.uleb128 0x28
 3446 0268 01       		.uleb128 0x1
 3447 0269 01       		.byte	0x1
 3448 026a 49       		.uleb128 0x49
 3449 026b 13       		.uleb128 0x13
 3450 026c 01       		.uleb128 0x1
 3451 026d 13       		.uleb128 0x13
 3452 026e 00       		.byte	0
 3453 026f 00       		.byte	0
 3454 0270 29       		.uleb128 0x29
 3455 0271 21       		.uleb128 0x21
 3456 0272 00       		.byte	0
 3457 0273 49       		.uleb128 0x49
 3458 0274 13       		.uleb128 0x13
 3459 0275 2F       		.uleb128 0x2f
 3460 0276 0B       		.uleb128 0xb
 3461 0277 00       		.byte	0
 3462 0278 00       		.byte	0
 3463 0279 2A       		.uleb128 0x2a
 3464 027a 34       		.uleb128 0x34
 3465 027b 00       		.byte	0
 3466 027c 03       		.uleb128 0x3
 3467 027d 0E       		.uleb128 0xe
 3468 027e 3A       		.uleb128 0x3a
 3469 027f 0B       		.uleb128 0xb
 3470 0280 3B       		.uleb128 0x3b
 3471 0281 0B       		.uleb128 0xb
 3472 0282 39       		.uleb128 0x39
 3473 0283 0B       		.uleb128 0xb
ARM GAS  C:\Users\DEVELO~1\AppData\Local\Temp\ccpirKJb.s 			page 62


 3474 0284 49       		.uleb128 0x49
 3475 0285 13       		.uleb128 0x13
 3476 0286 3F       		.uleb128 0x3f
 3477 0287 19       		.uleb128 0x19
 3478 0288 3C       		.uleb128 0x3c
 3479 0289 19       		.uleb128 0x19
 3480 028a 00       		.byte	0
 3481 028b 00       		.byte	0
 3482 028c 2B       		.uleb128 0x2b
 3483 028d 34       		.uleb128 0x34
 3484 028e 00       		.byte	0
 3485 028f 47       		.uleb128 0x47
 3486 0290 13       		.uleb128 0x13
 3487 0291 3A       		.uleb128 0x3a
 3488 0292 0B       		.uleb128 0xb
 3489 0293 3B       		.uleb128 0x3b
 3490 0294 0B       		.uleb128 0xb
 3491 0295 39       		.uleb128 0x39
 3492 0296 0B       		.uleb128 0xb
 3493 0297 02       		.uleb128 0x2
 3494 0298 18       		.uleb128 0x18
 3495 0299 00       		.byte	0
 3496 029a 00       		.byte	0
 3497 029b 2C       		.uleb128 0x2c
 3498 029c 34       		.uleb128 0x34
 3499 029d 00       		.byte	0
 3500 029e 03       		.uleb128 0x3
 3501 029f 0E       		.uleb128 0xe
 3502 02a0 3A       		.uleb128 0x3a
 3503 02a1 0B       		.uleb128 0xb
 3504 02a2 3B       		.uleb128 0x3b
 3505 02a3 0B       		.uleb128 0xb
 3506 02a4 39       		.uleb128 0x39
 3507 02a5 0B       		.uleb128 0xb
 3508 02a6 49       		.uleb128 0x49
 3509 02a7 13       		.uleb128 0x13
 3510 02a8 3F       		.uleb128 0x3f
 3511 02a9 19       		.uleb128 0x19
 3512 02aa 02       		.uleb128 0x2
 3513 02ab 18       		.uleb128 0x18
 3514 02ac 00       		.byte	0
 3515 02ad 00       		.byte	0
 3516 02ae 2D       		.uleb128 0x2d
 3517 02af 2E       		.uleb128 0x2e
 3518 02b0 00       		.byte	0
 3519 02b1 3F       		.uleb128 0x3f
 3520 02b2 19       		.uleb128 0x19
 3521 02b3 03       		.uleb128 0x3
 3522 02b4 0E       		.uleb128 0xe
 3523 02b5 3A       		.uleb128 0x3a
 3524 02b6 0B       		.uleb128 0xb
 3525 02b7 3B       		.uleb128 0x3b
 3526 02b8 0B       		.uleb128 0xb
 3527 02b9 39       		.uleb128 0x39
 3528 02ba 0B       		.uleb128 0xb
 3529 02bb 27       		.uleb128 0x27
 3530 02bc 19       		.uleb128 0x19
ARM GAS  C:\Users\DEVELO~1\AppData\Local\Temp\ccpirKJb.s 			page 63


 3531 02bd 49       		.uleb128 0x49
 3532 02be 13       		.uleb128 0x13
 3533 02bf 3C       		.uleb128 0x3c
 3534 02c0 19       		.uleb128 0x19
 3535 02c1 00       		.byte	0
 3536 02c2 00       		.byte	0
 3537 02c3 2E       		.uleb128 0x2e
 3538 02c4 34       		.uleb128 0x34
 3539 02c5 00       		.byte	0
 3540 02c6 03       		.uleb128 0x3
 3541 02c7 08       		.uleb128 0x8
 3542 02c8 3A       		.uleb128 0x3a
 3543 02c9 0B       		.uleb128 0xb
 3544 02ca 3B       		.uleb128 0x3b
 3545 02cb 0B       		.uleb128 0xb
 3546 02cc 39       		.uleb128 0x39
 3547 02cd 0B       		.uleb128 0xb
 3548 02ce 49       		.uleb128 0x49
 3549 02cf 13       		.uleb128 0x13
 3550 02d0 02       		.uleb128 0x2
 3551 02d1 18       		.uleb128 0x18
 3552 02d2 00       		.byte	0
 3553 02d3 00       		.byte	0
 3554 02d4 2F       		.uleb128 0x2f
 3555 02d5 2E       		.uleb128 0x2e
 3556 02d6 01       		.byte	0x1
 3557 02d7 3F       		.uleb128 0x3f
 3558 02d8 19       		.uleb128 0x19
 3559 02d9 03       		.uleb128 0x3
 3560 02da 0E       		.uleb128 0xe
 3561 02db 3A       		.uleb128 0x3a
 3562 02dc 0B       		.uleb128 0xb
 3563 02dd 3B       		.uleb128 0x3b
 3564 02de 0B       		.uleb128 0xb
 3565 02df 39       		.uleb128 0x39
 3566 02e0 0B       		.uleb128 0xb
 3567 02e1 27       		.uleb128 0x27
 3568 02e2 19       		.uleb128 0x19
 3569 02e3 11       		.uleb128 0x11
 3570 02e4 01       		.uleb128 0x1
 3571 02e5 12       		.uleb128 0x12
 3572 02e6 06       		.uleb128 0x6
 3573 02e7 40       		.uleb128 0x40
 3574 02e8 18       		.uleb128 0x18
 3575 02e9 7A       		.uleb128 0x7a
 3576 02ea 19       		.uleb128 0x19
 3577 02eb 01       		.uleb128 0x1
 3578 02ec 13       		.uleb128 0x13
 3579 02ed 00       		.byte	0
 3580 02ee 00       		.byte	0
 3581 02ef 30       		.uleb128 0x30
 3582 02f0 34       		.uleb128 0x34
 3583 02f1 00       		.byte	0
 3584 02f2 03       		.uleb128 0x3
 3585 02f3 0E       		.uleb128 0xe
 3586 02f4 3A       		.uleb128 0x3a
 3587 02f5 0B       		.uleb128 0xb
ARM GAS  C:\Users\DEVELO~1\AppData\Local\Temp\ccpirKJb.s 			page 64


 3588 02f6 3B       		.uleb128 0x3b
 3589 02f7 0B       		.uleb128 0xb
 3590 02f8 39       		.uleb128 0x39
 3591 02f9 0B       		.uleb128 0xb
 3592 02fa 49       		.uleb128 0x49
 3593 02fb 13       		.uleb128 0x13
 3594 02fc 02       		.uleb128 0x2
 3595 02fd 18       		.uleb128 0x18
 3596 02fe 00       		.byte	0
 3597 02ff 00       		.byte	0
 3598 0300 31       		.uleb128 0x31
 3599 0301 48       		.uleb128 0x48
 3600 0302 00       		.byte	0
 3601 0303 7D       		.uleb128 0x7d
 3602 0304 01       		.uleb128 0x1
 3603 0305 7F       		.uleb128 0x7f
 3604 0306 13       		.uleb128 0x13
 3605 0307 00       		.byte	0
 3606 0308 00       		.byte	0
 3607 0309 32       		.uleb128 0x32
 3608 030a 48       		.uleb128 0x48
 3609 030b 01       		.byte	0x1
 3610 030c 7D       		.uleb128 0x7d
 3611 030d 01       		.uleb128 0x1
 3612 030e 8201     		.uleb128 0x82
 3613 0310 19       		.uleb128 0x19
 3614 0311 7F       		.uleb128 0x7f
 3615 0312 13       		.uleb128 0x13
 3616 0313 00       		.byte	0
 3617 0314 00       		.byte	0
 3618 0315 33       		.uleb128 0x33
 3619 0316 2E       		.uleb128 0x2e
 3620 0317 00       		.byte	0
 3621 0318 3F       		.uleb128 0x3f
 3622 0319 19       		.uleb128 0x19
 3623 031a 3C       		.uleb128 0x3c
 3624 031b 19       		.uleb128 0x19
 3625 031c 6E       		.uleb128 0x6e
 3626 031d 0E       		.uleb128 0xe
 3627 031e 03       		.uleb128 0x3
 3628 031f 0E       		.uleb128 0xe
 3629 0320 3A       		.uleb128 0x3a
 3630 0321 0B       		.uleb128 0xb
 3631 0322 3B       		.uleb128 0x3b
 3632 0323 0B       		.uleb128 0xb
 3633 0324 00       		.byte	0
 3634 0325 00       		.byte	0
 3635 0326 00       		.byte	0
 3636              		.section	.debug_loclists,"",%progbits
 3637 0000 40010000 		.4byte	.Ldebug_loc3-.Ldebug_loc2
 3638              	.Ldebug_loc2:
 3639 0004 0500     		.2byte	0x5
 3640 0006 04       		.byte	0x4
 3641 0007 00       		.byte	0
 3642 0008 00000000 		.4byte	0
 3643              	.Ldebug_loc0:
 3644              	.LVUS10:
ARM GAS  C:\Users\DEVELO~1\AppData\Local\Temp\ccpirKJb.s 			page 65


 3645 000c 00       		.uleb128 0
 3646 000d 00       		.uleb128 .LVU170
 3647 000e 00       		.uleb128 .LVU170
 3648 000f 00       		.uleb128 .LVU201
 3649 0010 00       		.uleb128 .LVU201
 3650 0011 00       		.uleb128 .LVU202
 3651 0012 00       		.uleb128 .LVU202
 3652 0013 00       		.uleb128 0
 3653              	.LLST10:
 3654 0014 06       		.byte	0x6
 3655 0015 00000000 		.4byte	.LVL41
 3656 0019 04       		.byte	0x4
 3657 001a 00       		.uleb128 .LVL41-.LVL41
 3658 001b 0A       		.uleb128 .LVL42-.LVL41
 3659 001c 01       		.uleb128 0x1
 3660 001d 50       		.byte	0x50
 3661 001e 04       		.byte	0x4
 3662 001f 0A       		.uleb128 .LVL42-.LVL41
 3663 0020 42       		.uleb128 .LVL50-.LVL41
 3664 0021 04       		.uleb128 0x4
 3665 0022 A3       		.byte	0xa3
 3666 0023 01       		.uleb128 0x1
 3667 0024 50       		.byte	0x50
 3668 0025 9F       		.byte	0x9f
 3669 0026 04       		.byte	0x4
 3670 0027 42       		.uleb128 .LVL50-.LVL41
 3671 0028 44       		.uleb128 .LVL51-.LVL41
 3672 0029 01       		.uleb128 0x1
 3673 002a 50       		.byte	0x50
 3674 002b 04       		.byte	0x4
 3675 002c 44       		.uleb128 .LVL51-.LVL41
 3676 002d 50       		.uleb128 .LFE438-.LVL41
 3677 002e 04       		.uleb128 0x4
 3678 002f A3       		.byte	0xa3
 3679 0030 01       		.uleb128 0x1
 3680 0031 50       		.byte	0x50
 3681 0032 9F       		.byte	0x9f
 3682 0033 00       		.byte	0
 3683              	.LVUS11:
 3684 0034 00       		.uleb128 0
 3685 0035 00       		.uleb128 .LVU171
 3686 0036 00       		.uleb128 .LVU171
 3687 0037 00       		.uleb128 .LVU201
 3688 0038 00       		.uleb128 .LVU201
 3689 0039 00       		.uleb128 0
 3690              	.LLST11:
 3691 003a 06       		.byte	0x6
 3692 003b 00000000 		.4byte	.LVL41
 3693 003f 04       		.byte	0x4
 3694 0040 00       		.uleb128 .LVL41-.LVL41
 3695 0041 0D       		.uleb128 .LVL43-1-.LVL41
 3696 0042 01       		.uleb128 0x1
 3697 0043 51       		.byte	0x51
 3698 0044 04       		.byte	0x4
 3699 0045 0D       		.uleb128 .LVL43-1-.LVL41
 3700 0046 42       		.uleb128 .LVL50-.LVL41
 3701 0047 01       		.uleb128 0x1
ARM GAS  C:\Users\DEVELO~1\AppData\Local\Temp\ccpirKJb.s 			page 66


 3702 0048 54       		.byte	0x54
 3703 0049 04       		.byte	0x4
 3704 004a 42       		.uleb128 .LVL50-.LVL41
 3705 004b 50       		.uleb128 .LFE438-.LVL41
 3706 004c 01       		.uleb128 0x1
 3707 004d 51       		.byte	0x51
 3708 004e 00       		.byte	0
 3709              	.LVUS12:
 3710 004f 00       		.uleb128 .LVU175
 3711 0050 00       		.uleb128 .LVU178
 3712 0051 00       		.uleb128 .LVU178
 3713 0052 00       		.uleb128 .LVU201
 3714              	.LLST12:
 3715 0053 06       		.byte	0x6
 3716 0054 14000000 		.4byte	.LVL44
 3717 0058 04       		.byte	0x4
 3718 0059 00       		.uleb128 .LVL44-.LVL44
 3719 005a 05       		.uleb128 .LVL46-1-.LVL44
 3720 005b 05       		.uleb128 0x5
 3721 005c 03       		.byte	0x3
 3722 005d 00000000 		.4byte	sdram_ctx
 3723 0061 04       		.byte	0x4
 3724 0062 05       		.uleb128 .LVL46-1-.LVL44
 3725 0063 2E       		.uleb128 .LVL50-.LVL44
 3726 0064 01       		.uleb128 0x1
 3727 0065 56       		.byte	0x56
 3728 0066 00       		.byte	0
 3729              	.LVUS13:
 3730 0067 00       		.uleb128 .LVU177
 3731 0068 00       		.uleb128 .LVU178
 3732 0069 00       		.uleb128 .LVU178
 3733 006a 00       		.uleb128 .LVU201
 3734              	.LLST13:
 3735 006b 06       		.byte	0x6
 3736 006c 16000000 		.4byte	.LVL45
 3737 0070 04       		.byte	0x4
 3738 0071 00       		.uleb128 .LVL45-.LVL45
 3739 0072 03       		.uleb128 .LVL46-1-.LVL45
 3740 0073 05       		.uleb128 0x5
 3741 0074 03       		.byte	0x3
 3742 0075 02000000 		.4byte	sdram_ctx+2
 3743 0079 04       		.byte	0x4
 3744 007a 03       		.uleb128 .LVL46-1-.LVL45
 3745 007b 2C       		.uleb128 .LVL50-.LVL45
 3746 007c 01       		.uleb128 0x1
 3747 007d 57       		.byte	0x57
 3748 007e 00       		.byte	0
 3749              	.LVUS15:
 3750 007f 01       		.uleb128 .LVU187
 3751 0080 00       		.uleb128 .LVU198
 3752              	.LLST15:
 3753 0081 08       		.byte	0x8
 3754 0082 30000000 		.4byte	.LVL48
 3755 0086 10       		.uleb128 .LVL49-.LVL48
 3756 0087 01       		.uleb128 0x1
 3757 0088 54       		.byte	0x54
 3758 0089 00       		.byte	0
ARM GAS  C:\Users\DEVELO~1\AppData\Local\Temp\ccpirKJb.s 			page 67


 3759              	.LVUS6:
 3760 008a 00       		.uleb128 0
 3761 008b 00       		.uleb128 .LVU109
 3762 008c 00       		.uleb128 .LVU109
 3763 008d 00       		.uleb128 0
 3764              	.LLST6:
 3765 008e 06       		.byte	0x6
 3766 008f 00000000 		.4byte	.LVL28
 3767 0093 04       		.byte	0x4
 3768 0094 00       		.uleb128 .LVL28-.LVL28
 3769 0095 0C       		.uleb128 .LVL29-.LVL28
 3770 0096 01       		.uleb128 0x1
 3771 0097 50       		.byte	0x50
 3772 0098 04       		.byte	0x4
 3773 0099 0C       		.uleb128 .LVL29-.LVL28
 3774 009a D001     		.uleb128 .LFE437-.LVL28
 3775 009c 04       		.uleb128 0x4
 3776 009d A3       		.byte	0xa3
 3777 009e 01       		.uleb128 0x1
 3778 009f 50       		.byte	0x50
 3779 00a0 9F       		.byte	0x9f
 3780 00a1 00       		.byte	0
 3781              	.LVUS7:
 3782 00a2 00       		.uleb128 0
 3783 00a3 00       		.uleb128 .LVU111
 3784 00a4 00       		.uleb128 .LVU111
 3785 00a5 00       		.uleb128 0
 3786              	.LLST7:
 3787 00a6 06       		.byte	0x6
 3788 00a7 00000000 		.4byte	.LVL28
 3789 00ab 04       		.byte	0x4
 3790 00ac 00       		.uleb128 .LVL28-.LVL28
 3791 00ad 11       		.uleb128 .LVL30-1-.LVL28
 3792 00ae 01       		.uleb128 0x1
 3793 00af 51       		.byte	0x51
 3794 00b0 04       		.byte	0x4
 3795 00b1 11       		.uleb128 .LVL30-1-.LVL28
 3796 00b2 D001     		.uleb128 .LFE437-.LVL28
 3797 00b4 01       		.uleb128 0x1
 3798 00b5 54       		.byte	0x54
 3799 00b6 00       		.byte	0
 3800              	.LVUS8:
 3801 00b7 00       		.uleb128 .LVU113
 3802 00b8 00       		.uleb128 0
 3803              	.LLST8:
 3804 00b9 08       		.byte	0x8
 3805 00ba 16000000 		.4byte	.LVL31
 3806 00be BA01     		.uleb128 .LFE437-.LVL31
 3807 00c0 01       		.uleb128 0x1
 3808 00c1 59       		.byte	0x59
 3809 00c2 00       		.byte	0
 3810              	.LVUS9:
 3811 00c3 00       		.uleb128 .LVU134
 3812 00c4 00       		.uleb128 0
 3813              	.LLST9:
 3814 00c5 08       		.byte	0x8
 3815 00c6 56000000 		.4byte	.LVL37
ARM GAS  C:\Users\DEVELO~1\AppData\Local\Temp\ccpirKJb.s 			page 68


 3816 00ca 7A       		.uleb128 .LFE437-.LVL37
 3817 00cb 01       		.uleb128 0x1
 3818 00cc 57       		.byte	0x57
 3819 00cd 00       		.byte	0
 3820              	.LVUS5:
 3821 00ce 00       		.uleb128 .LVU97
 3822 00cf 00       		.uleb128 .LVU98
 3823 00d0 00       		.uleb128 .LVU98
 3824 00d1 00       		.uleb128 .LVU100
 3825 00d2 00       		.uleb128 .LVU100
 3826 00d3 00       		.uleb128 0
 3827              	.LLST5:
 3828 00d4 06       		.byte	0x6
 3829 00d5 10000000 		.4byte	.LVL25
 3830 00d9 04       		.byte	0x4
 3831 00da 00       		.uleb128 .LVL25-.LVL25
 3832 00db 03       		.uleb128 .LVL26-1-.LVL25
 3833 00dc 05       		.uleb128 0x5
 3834 00dd 03       		.byte	0x3
 3835 00de 01000000 		.4byte	sdram_ctx+1
 3836 00e2 04       		.byte	0x4
 3837 00e3 03       		.uleb128 .LVL26-1-.LVL25
 3838 00e4 08       		.uleb128 .LVL27-.LVL25
 3839 00e5 01       		.uleb128 0x1
 3840 00e6 54       		.byte	0x54
 3841 00e7 04       		.byte	0x4
 3842 00e8 08       		.uleb128 .LVL27-.LVL25
 3843 00e9 10       		.uleb128 .LFE436-.LVL25
 3844 00ea 01       		.uleb128 0x1
 3845 00eb 50       		.byte	0x50
 3846 00ec 00       		.byte	0
 3847              	.LVUS4:
 3848 00ed 00       		.uleb128 .LVU85
 3849 00ee 00       		.uleb128 .LVU86
 3850 00ef 00       		.uleb128 .LVU86
 3851 00f0 00       		.uleb128 .LVU88
 3852 00f1 00       		.uleb128 .LVU88
 3853 00f2 00       		.uleb128 0
 3854              	.LLST4:
 3855 00f3 06       		.byte	0x6
 3856 00f4 10000000 		.4byte	.LVL21
 3857 00f8 04       		.byte	0x4
 3858 00f9 00       		.uleb128 .LVL21-.LVL21
 3859 00fa 03       		.uleb128 .LVL22-1-.LVL21
 3860 00fb 05       		.uleb128 0x5
 3861 00fc 03       		.byte	0x3
 3862 00fd 00000000 		.4byte	sdram_ctx
 3863 0101 04       		.byte	0x4
 3864 0102 03       		.uleb128 .LVL22-1-.LVL21
 3865 0103 08       		.uleb128 .LVL23-.LVL21
 3866 0104 01       		.uleb128 0x1
 3867 0105 54       		.byte	0x54
 3868 0106 04       		.byte	0x4
 3869 0107 08       		.uleb128 .LVL23-.LVL21
 3870 0108 10       		.uleb128 .LFE435-.LVL21
 3871 0109 01       		.uleb128 0x1
 3872 010a 50       		.byte	0x50
ARM GAS  C:\Users\DEVELO~1\AppData\Local\Temp\ccpirKJb.s 			page 69


 3873 010b 00       		.byte	0
 3874              	.LVUS0:
 3875 010c 00       		.uleb128 0
 3876 010d 00       		.uleb128 .LVU7
 3877 010e 00       		.uleb128 .LVU7
 3878 010f 00       		.uleb128 0
 3879              	.LLST0:
 3880 0110 06       		.byte	0x6
 3881 0111 00000000 		.4byte	.LVL0
 3882 0115 04       		.byte	0x4
 3883 0116 00       		.uleb128 .LVL0-.LVL0
 3884 0117 0A       		.uleb128 .LVL1-.LVL0
 3885 0118 01       		.uleb128 0x1
 3886 0119 50       		.byte	0x50
 3887 011a 04       		.byte	0x4
 3888 011b 0A       		.uleb128 .LVL1-.LVL0
 3889 011c CC01     		.uleb128 .LFE434-.LVL0
 3890 011e 04       		.uleb128 0x4
 3891 011f A3       		.byte	0xa3
 3892 0120 01       		.uleb128 0x1
 3893 0121 50       		.byte	0x50
 3894 0122 9F       		.byte	0x9f
 3895 0123 00       		.byte	0
 3896              	.LVUS1:
 3897 0124 00       		.uleb128 .LVU36
 3898 0125 00       		.uleb128 .LVU49
 3899 0126 00       		.uleb128 .LVU61
 3900 0127 00       		.uleb128 .LVU64
 3901              	.LLST1:
 3902 0128 06       		.byte	0x6
 3903 0129 4A000000 		.4byte	.LVL9
 3904 012d 04       		.byte	0x4
 3905 012e 00       		.uleb128 .LVL9-.LVL9
 3906 012f 32       		.uleb128 .LVL12-.LVL9
 3907 0130 01       		.uleb128 0x1
 3908 0131 55       		.byte	0x55
 3909 0132 04       		.byte	0x4
 3910 0133 54       		.uleb128 .LVL15-.LVL9
 3911 0134 60       		.uleb128 .LVL16-.LVL9
 3912 0135 01       		.uleb128 0x1
 3913 0136 55       		.byte	0x55
 3914 0137 00       		.byte	0
 3915              	.LVUS3:
 3916 0138 01       		.uleb128 .LVU66
 3917 0139 00       		.uleb128 .LVU72
 3918              	.LLST3:
 3919 013a 08       		.byte	0x8
 3920 013b B0000000 		.4byte	.LVL17
 3921 013f 08       		.uleb128 .LVL18-.LVL17
 3922 0140 02       		.uleb128 0x2
 3923 0141 31       		.byte	0x31
 3924 0142 9F       		.byte	0x9f
 3925 0143 00       		.byte	0
 3926              	.Ldebug_loc3:
 3927              		.section	.debug_aranges,"",%progbits
 3928 0000 3C000000 		.4byte	0x3c
 3929 0004 0200     		.2byte	0x2
ARM GAS  C:\Users\DEVELO~1\AppData\Local\Temp\ccpirKJb.s 			page 70


 3930 0006 00000000 		.4byte	.Ldebug_info0
 3931 000a 04       		.byte	0x4
 3932 000b 00       		.byte	0
 3933 000c 0000     		.2byte	0
 3934 000e 0000     		.2byte	0
 3935 0010 00000000 		.4byte	.LFB434
 3936 0014 CC000000 		.4byte	.LFE434-.LFB434
 3937 0018 00000000 		.4byte	.LFB435
 3938 001c 20000000 		.4byte	.LFE435-.LFB435
 3939 0020 00000000 		.4byte	.LFB436
 3940 0024 20000000 		.4byte	.LFE436-.LFB436
 3941 0028 00000000 		.4byte	.LFB437
 3942 002c D0000000 		.4byte	.LFE437-.LFB437
 3943 0030 00000000 		.4byte	.LFB438
 3944 0034 50000000 		.4byte	.LFE438-.LFB438
 3945 0038 00000000 		.4byte	0
 3946 003c 00000000 		.4byte	0
 3947              		.section	.debug_rnglists,"",%progbits
 3948              	.Ldebug_ranges0:
 3949 0000 41000000 		.4byte	.Ldebug_ranges3-.Ldebug_ranges2
 3950              	.Ldebug_ranges2:
 3951 0004 0500     		.2byte	0x5
 3952 0006 04       		.byte	0x4
 3953 0007 00       		.byte	0
 3954 0008 00000000 		.4byte	0
 3955              	.LLRL2:
 3956 000c 05       		.byte	0x5
 3957 000d B0000000 		.4byte	.LBB10
 3958 0011 04       		.byte	0x4
 3959 0012 00       		.uleb128 .LBB10-.LBB10
 3960 0013 04       		.uleb128 .LBE10-.LBB10
 3961 0014 04       		.byte	0x4
 3962 0015 06       		.uleb128 .LBB13-.LBB10
 3963 0016 08       		.uleb128 .LBE13-.LBB10
 3964 0017 00       		.byte	0
 3965              	.LLRL14:
 3966 0018 05       		.byte	0x5
 3967 0019 30000000 		.4byte	.LBB14
 3968 001d 04       		.byte	0x4
 3969 001e 00       		.uleb128 .LBB14-.LBB14
 3970 001f 04       		.uleb128 .LBE14-.LBB14
 3971 0020 04       		.byte	0x4
 3972 0021 06       		.uleb128 .LBB17-.LBB14
 3973 0022 10       		.uleb128 .LBE17-.LBB14
 3974 0023 00       		.byte	0
 3975              	.LLRL16:
 3976 0024 07       		.byte	0x7
 3977 0025 00000000 		.4byte	.LFB434
 3978 0029 CC01     		.uleb128 .LFE434-.LFB434
 3979 002b 07       		.byte	0x7
 3980 002c 00000000 		.4byte	.LFB435
 3981 0030 20       		.uleb128 .LFE435-.LFB435
 3982 0031 07       		.byte	0x7
 3983 0032 00000000 		.4byte	.LFB436
 3984 0036 20       		.uleb128 .LFE436-.LFB436
 3985 0037 07       		.byte	0x7
 3986 0038 00000000 		.4byte	.LFB437
ARM GAS  C:\Users\DEVELO~1\AppData\Local\Temp\ccpirKJb.s 			page 71


 3987 003c D001     		.uleb128 .LFE437-.LFB437
 3988 003e 07       		.byte	0x7
 3989 003f 00000000 		.4byte	.LFB438
 3990 0043 50       		.uleb128 .LFE438-.LFB438
 3991 0044 00       		.byte	0
 3992              	.Ldebug_ranges3:
 3993              		.section	.debug_line,"",%progbits
 3994              	.Ldebug_line0:
 3995 0000 23050000 		.section	.debug_str,"MS",%progbits,1
 3995      03001B02 
 3995      00000201 
 3995      FB0E0D00 
 3995      01010101 
 3996              	.LASF152:
 3997 0000 53445241 		.ascii	"SDRAM_BIST_ERR_DATA_MISMATCH\000"
 3997      4D5F4249 
 3997      53545F45 
 3997      52525F44 
 3997      4154415F 
 3998              	.LASF72:
 3999 001d 70726576 		.ascii	"prev\000"
 3999      00
 4000              	.LASF115:
 4001 0022 72656164 		.ascii	"ready_list_t\000"
 4001      795F6C69 
 4001      73745F74 
 4001      00
 4002              	.LASF106:
 4003 002f 77747472 		.ascii	"wttrp\000"
 4003      7000
 4004              	.LASF21:
 4005 0035 75696E74 		.ascii	"uintptr_t\000"
 4005      7074725F 
 4005      7400
 4006              	.LASF182:
 4007 003f 73647261 		.ascii	"sdram_query_region_descriptor\000"
 4007      6D5F7175 
 4007      6572795F 
 4007      72656769 
 4007      6F6E5F64 
 4008              	.LASF53:
 4009 005d 72666375 		.ascii	"rfcu\000"
 4009      00
 4010              	.LASF3:
 4011 0062 7369676E 		.ascii	"signed char\000"
 4011      65642063 
 4011      68617200 
 4012              	.LASF6:
 4013 006e 5F5F7569 		.ascii	"__uint8_t\000"
 4013      6E74385F 
 4013      7400
 4014              	.LASF204:
 4015 0078 433A5C50 		.ascii	"C:\\PROJET\\ChibiOS project\\ChibiOS_21.11.4\\demos"
 4015      524F4A45 
 4015      545C4368 
 4015      6962694F 
 4015      53207072 
ARM GAS  C:\Users\DEVELO~1\AppData\Local\Temp\ccpirKJb.s 			page 72


 4016 00a7 5C53544D 		.ascii	"\\STM32\\RT-STM32H743ZI_REV_XY-NUCLEO144\000"
 4016      33325C52 
 4016      542D5354 
 4016      4D333248 
 4016      3734335A 
 4017              	.LASF91:
 4018 00ce 706F7274 		.ascii	"port_intctx\000"
 4018      5F696E74 
 4018      63747800 
 4019              	.LASF50:
 4020 00da 76746C69 		.ascii	"vtlist\000"
 4020      737400
 4021              	.LASF83:
 4022 00e1 74797065 		.ascii	"type\000"
 4022      00
 4023              	.LASF198:
 4024 00e6 62697374 		.ascii	"bist_ok\000"
 4024      5F6F6B00 
 4025              	.LASF86:
 4026 00ee 74726163 		.ascii	"trace_event_t\000"
 4026      655F6576 
 4026      656E745F 
 4026      7400
 4027              	.LASF121:
 4028 00fc 6F735F69 		.ascii	"os_instance_config_t\000"
 4028      6E737461 
 4028      6E63655F 
 4028      636F6E66 
 4028      69675F74 
 4029              	.LASF189:
 4030 0111 73647261 		.ascii	"sdram_run_bist\000"
 4030      6D5F7275 
 4030      6E5F6269 
 4030      737400
 4031              	.LASF180:
 4032 0120 73647261 		.ascii	"sdram_ctx\000"
 4032      6D5F6374 
 4032      7800
 4033              	.LASF208:
 4034 012a 5F5F6275 		.ascii	"__builtin_memset\000"
 4034      696C7469 
 4034      6E5F6D65 
 4034      6D736574 
 4034      00
 4035              	.LASF81:
 4036 013b 68616C74 		.ascii	"halt\000"
 4036      00
 4037              	.LASF190:
 4038 0140 6F75745F 		.ascii	"out_result\000"
 4038      72657375 
 4038      6C7400
 4039              	.LASF105:
 4040 014b 65786974 		.ascii	"exitcode\000"
 4040      636F6465 
 4040      00
 4041              	.LASF55:
 4042 0154 6D61696E 		.ascii	"mainthread\000"
ARM GAS  C:\Users\DEVELO~1\AppData\Local\Temp\ccpirKJb.s 			page 73


 4042      74687265 
 4042      616400
 4043              	.LASF107:
 4044 015f 73656E74 		.ascii	"sentmsg\000"
 4044      6D736700 
 4045              	.LASF78:
 4046 0167 64656C74 		.ascii	"delta\000"
 4046      6100
 4047              	.LASF149:
 4048 016d 53445241 		.ascii	"SDRAM_BIST_ABORT\000"
 4048      4D5F4249 
 4048      53545F41 
 4048      424F5254 
 4048      00
 4049              	.LASF135:
 4050 017e 53445241 		.ascii	"SDRAM_ERR_PARAM\000"
 4050      4D5F4552 
 4050      525F5041 
 4050      52414D00 
 4051              	.LASF165:
 4052 018e 66697273 		.ascii	"first_error\000"
 4052      745F6572 
 4052      726F7200 
 4053              	.LASF69:
 4054 019a 6E657874 		.ascii	"next\000"
 4054      00
 4055              	.LASF175:
 4056 019f 70617474 		.ascii	"patterns_executed\000"
 4056      65726E73 
 4056      5F657865 
 4056      63757465 
 4056      6400
 4057              	.LASF134:
 4058 01b1 53445241 		.ascii	"SDRAM_ERR_BIST_FAIL\000"
 4058      4D5F4552 
 4058      525F4249 
 4058      53545F46 
 4058      41494C00 
 4059              	.LASF184:
 4060 01c5 63684D74 		.ascii	"chMtxUnlock\000"
 4060      78556E6C 
 4060      6F636B00 
 4061              	.LASF137:
 4062 01d1 53445241 		.ascii	"SDRAM_AUDIO_LOOP\000"
 4062      4D5F4155 
 4062      44494F5F 
 4062      4C4F4F50 
 4062      00
 4063              	.LASF160:
 4064 01e2 73746174 		.ascii	"status\000"
 4064      757300
 4065              	.LASF191:
 4066 01e9 656E7472 		.ascii	"entry_state\000"
 4066      795F7374 
 4066      61746500 
 4067              	.LASF188:
 4068 01f5 73647261 		.ascii	"sdram_get_region\000"
ARM GAS  C:\Users\DEVELO~1\AppData\Local\Temp\ccpirKJb.s 			page 74


 4068      6D5F6765 
 4068      745F7265 
 4068      67696F6E 
 4068      00
 4069              	.LASF124:
 4070 0206 53445241 		.ascii	"SDRAM_NOT_INITIALIZED\000"
 4070      4D5F4E4F 
 4070      545F494E 
 4070      49544941 
 4070      4C495A45 
 4071              	.LASF88:
 4072 021c 73697A65 		.ascii	"size\000"
 4072      00
 4073              	.LASF14:
 4074 0221 6C6F6E67 		.ascii	"long long unsigned int\000"
 4074      206C6F6E 
 4074      6720756E 
 4074      7369676E 
 4074      65642069 
 4075              	.LASF147:
 4076 0238 53445241 		.ascii	"SDRAM_BIST_PASS\000"
 4076      4D5F4249 
 4076      53545F50 
 4076      41535300 
 4077              	.LASF125:
 4078 0248 53445241 		.ascii	"SDRAM_INITIALIZING\000"
 4078      4D5F494E 
 4078      49544941 
 4078      4C495A49 
 4078      4E4700
 4079              	.LASF37:
 4080 025b 73746174 		.ascii	"state\000"
 4080      6500
 4081              	.LASF206:
 4082 0261 73647261 		.ascii	"sdram_init\000"
 4082      6D5F696E 
 4082      697400
 4083              	.LASF10:
 4084 026c 6C6F6E67 		.ascii	"long int\000"
 4084      20696E74 
 4084      00
 4085              	.LASF25:
 4086 0275 74737461 		.ascii	"tstate_t\000"
 4086      74655F74 
 4086      00
 4087              	.LASF58:
 4088 027e 63685F72 		.ascii	"ch_rfcu\000"
 4088      66637500 
 4089              	.LASF71:
 4090 0286 63685F71 		.ascii	"ch_queue\000"
 4090      75657565 
 4090      00
 4091              	.LASF1:
 4092 028f 6C6F6E67 		.ascii	"long long int\000"
 4092      206C6F6E 
 4092      6720696E 
 4092      7400
ARM GAS  C:\Users\DEVELO~1\AppData\Local\Temp\ccpirKJb.s 			page 75


 4093              	.LASF17:
 4094 029d 75696E74 		.ascii	"uint16_t\000"
 4094      31365F74 
 4094      00
 4095              	.LASF90:
 4096 02a6 74726163 		.ascii	"trace_buffer_t\000"
 4096      655F6275 
 4096      66666572 
 4096      5F7400
 4097              	.LASF183:
 4098 02b5 73647261 		.ascii	"sdram_bist_start\000"
 4098      6D5F6269 
 4098      73745F73 
 4098      74617274 
 4098      00
 4099              	.LASF98:
 4100 02c6 63685F72 		.ascii	"ch_registry\000"
 4100      65676973 
 4100      74727900 
 4101              	.LASF153:
 4102 02d2 53445241 		.ascii	"SDRAM_BIST_ERR_ADDRESS_ALIAS\000"
 4102      4D5F4249 
 4102      53545F45 
 4102      52525F41 
 4102      44445245 
 4103              	.LASF181:
 4104 02ef 73647261 		.ascii	"sdram_ctx_mtx\000"
 4104      6D5F6374 
 4104      785F6D74 
 4104      7800
 4105              	.LASF205:
 4106 02fd 73647261 		.ascii	"sdram_hw_init_sequence\000"
 4106      6D5F6877 
 4106      5F696E69 
 4106      745F7365 
 4106      7175656E 
 4107              	.LASF11:
 4108 0314 5F5F7569 		.ascii	"__uint32_t\000"
 4108      6E743332 
 4108      5F7400
 4109              	.LASF59:
 4110 031f 6D61736B 		.ascii	"mask\000"
 4110      00
 4111              	.LASF169:
 4112 0324 73647261 		.ascii	"sdram_bist_result_t\000"
 4112      6D5F6269 
 4112      73745F72 
 4112      6573756C 
 4112      745F7400 
 4113              	.LASF40:
 4114 0338 77616974 		.ascii	"waiting\000"
 4114      696E6700 
 4115              	.LASF157:
 4116 0340 53445241 		.ascii	"SDRAM_BIST_MODE_QUICK\000"
 4116      4D5F4249 
 4116      53545F4D 
 4116      4F44455F 
ARM GAS  C:\Users\DEVELO~1\AppData\Local\Temp\ccpirKJb.s 			page 76


 4116      51554943 
 4117              	.LASF117:
 4118 0356 6D61696E 		.ascii	"mainthread_base\000"
 4118      74687265 
 4118      61645F62 
 4118      61736500 
 4119              	.LASF122:
 4120 0366 6D757465 		.ascii	"mutex_t\000"
 4120      785F7400 
 4121              	.LASF176:
 4122 036e 776F7264 		.ascii	"words_target\000"
 4122      735F7461 
 4122      72676574 
 4122      00
 4123              	.LASF66:
 4124 037b 73797369 		.ascii	"sysinterval_t\000"
 4124      6E746572 
 4124      76616C5F 
 4124      7400
 4125              	.LASF30:
 4126 0389 636E745F 		.ascii	"cnt_t\000"
 4126      7400
 4127              	.LASF41:
 4128 038f 6D736771 		.ascii	"msgqueue\000"
 4128      75657565 
 4128      00
 4129              	.LASF0:
 4130 0398 756E7369 		.ascii	"unsigned int\000"
 4130      676E6564 
 4130      20696E74 
 4130      00
 4131              	.LASF119:
 4132 03a5 69646C65 		.ascii	"idlethread_base\000"
 4132      74687265 
 4132      61645F62 
 4132      61736500 
 4133              	.LASF161:
 4134 03b5 776F7264 		.ascii	"words_tested\000"
 4134      735F7465 
 4134      73746564 
 4134      00
 4135              	.LASF108:
 4136 03c2 77747365 		.ascii	"wtsemp\000"
 4136      6D7000
 4137              	.LASF64:
 4138 03c9 73797374 		.ascii	"system_debug_t\000"
 4138      656D5F64 
 4138      65627567 
 4138      5F7400
 4139              	.LASF12:
 4140 03d8 6C6F6E67 		.ascii	"long unsigned int\000"
 4140      20756E73 
 4140      69676E65 
 4140      6420696E 
 4140      7400
 4141              	.LASF33:
 4142 03ea 72717565 		.ascii	"rqueue\000"
ARM GAS  C:\Users\DEVELO~1\AppData\Local\Temp\ccpirKJb.s 			page 77


 4142      756500
 4143              	.LASF70:
 4144 03f1 63685F71 		.ascii	"ch_queue_t\000"
 4144      75657565 
 4144      5F7400
 4145              	.LASF148:
 4146 03fc 53445241 		.ascii	"SDRAM_BIST_FAIL\000"
 4146      4D5F4249 
 4146      53545F46 
 4146      41494C00 
 4147              	.LASF202:
 4148 040c 474E5520 		.ascii	"GNU C17 11.3.1 20220712 -mcpu=cortex-m7 -mthumb -mf"
 4148      43313720 
 4148      31312E33 
 4148      2E312032 
 4148      30323230 
 4149 043f 6C6F6174 		.ascii	"loat-abi=soft -march=armv7e-m -ggdb -O2 -fomit-fram"
 4149      2D616269 
 4149      3D736F66 
 4149      74202D6D 
 4149      61726368 
 4150 0472 652D706F 		.ascii	"e-pointer -falign-functions=16 -ffunction-sections "
 4150      696E7465 
 4150      72202D66 
 4150      616C6967 
 4150      6E2D6675 
 4151 04a5 2D666461 		.ascii	"-fdata-sections -fno-common\000"
 4151      74612D73 
 4151      65637469 
 4151      6F6E7320 
 4151      2D666E6F 
 4152              	.LASF35:
 4153 04c1 6E616D65 		.ascii	"name\000"
 4153      00
 4154              	.LASF99:
 4155 04c6 71756575 		.ascii	"queue\000"
 4155      6500
 4156              	.LASF45:
 4157 04cc 6D706F6F 		.ascii	"mpool\000"
 4157      6C00
 4158              	.LASF131:
 4159 04d2 53445241 		.ascii	"SDRAM_ERR_FMC_TIMEOUT\000"
 4159      4D5F4552 
 4159      525F464D 
 4159      435F5449 
 4159      4D454F55 
 4160              	.LASF110:
 4161 04e8 65776D61 		.ascii	"ewmask\000"
 4161      736B00
 4162              	.LASF196:
 4163 04ef 72756E5F 		.ascii	"run_quick_bist\000"
 4163      71756963 
 4163      6B5F6269 
 4163      737400
 4164              	.LASF8:
 4165 04fe 73686F72 		.ascii	"short unsigned int\000"
 4165      7420756E 
ARM GAS  C:\Users\DEVELO~1\AppData\Local\Temp\ccpirKJb.s 			page 78


 4165      7369676E 
 4165      65642069 
 4165      6E7400
 4166              	.LASF154:
 4167 0511 53445241 		.ascii	"SDRAM_BIST_ERR_STUCK_AT\000"
 4167      4D5F4249 
 4167      53545F45 
 4167      52525F53 
 4167      5455434B 
 4168              	.LASF47:
 4169 0529 63685F74 		.ascii	"ch_thread\000"
 4169      68726561 
 4169      6400
 4170              	.LASF144:
 4171 0533 73697A65 		.ascii	"size_bytes\000"
 4171      5F627974 
 4171      657300
 4172              	.LASF28:
 4173 053e 6D73675F 		.ascii	"msg_t\000"
 4173      7400
 4174              	.LASF42:
 4175 0544 6570656E 		.ascii	"epending\000"
 4175      64696E67 
 4175      00
 4176              	.LASF158:
 4177 054d 53445241 		.ascii	"SDRAM_BIST_MODE_FULL\000"
 4177      4D5F4249 
 4177      53545F4D 
 4177      4F44455F 
 4177      46554C4C 
 4178              	.LASF24:
 4179 0562 746D6F64 		.ascii	"tmode_t\000"
 4179      655F7400 
 4180              	.LASF68:
 4181 056a 63685F6C 		.ascii	"ch_list\000"
 4181      69737400 
 4182              	.LASF113:
 4183 0572 63685F72 		.ascii	"ch_ready_list\000"
 4183      65616479 
 4183      5F6C6973 
 4183      7400
 4184              	.LASF29:
 4185 0580 6576656E 		.ascii	"eventmask_t\000"
 4185      746D6173 
 4185      6B5F7400 
 4186              	.LASF9:
 4187 058c 5F5F696E 		.ascii	"__int32_t\000"
 4187      7433325F 
 4187      7400
 4188              	.LASF178:
 4189 0596 61626F72 		.ascii	"abort_flag\000"
 4189      745F666C 
 4189      616700
 4190              	.LASF23:
 4191 05a1 73746B61 		.ascii	"stkalign_t\000"
 4191      6C69676E 
 4191      5F7400
ARM GAS  C:\Users\DEVELO~1\AppData\Local\Temp\ccpirKJb.s 			page 79


 4192              	.LASF84:
 4193 05ac 72747374 		.ascii	"rtstamp\000"
 4193      616D7000 
 4194              	.LASF96:
 4195 05b4 6C617374 		.ascii	"laststamp\000"
 4195      7374616D 
 4195      7000
 4196              	.LASF143:
 4197 05be 62617365 		.ascii	"base\000"
 4197      00
 4198              	.LASF44:
 4199 05c3 7265616C 		.ascii	"realprio\000"
 4199      7072696F 
 4199      00
 4200              	.LASF57:
 4201 05cc 72666375 		.ascii	"rfcu_mask_t\000"
 4201      5F6D6173 
 4201      6B5F7400 
 4202              	.LASF127:
 4203 05d8 53445241 		.ascii	"SDRAM_DEGRADED\000"
 4203      4D5F4445 
 4203      47524144 
 4203      454400
 4204              	.LASF97:
 4205 05e7 76697274 		.ascii	"virtual_timers_list_t\000"
 4205      75616C5F 
 4205      74696D65 
 4205      72735F6C 
 4205      6973745F 
 4206              	.LASF162:
 4207 05fd 776F7264 		.ascii	"words_covered_unique\000"
 4207      735F636F 
 4207      76657265 
 4207      645F756E 
 4207      69717565 
 4208              	.LASF93:
 4209 0612 63685F76 		.ascii	"ch_virtual_timers_list\000"
 4209      69727475 
 4209      616C5F74 
 4209      696D6572 
 4209      735F6C69 
 4210              	.LASF67:
 4211 0629 63685F6C 		.ascii	"ch_list_t\000"
 4211      6973745F 
 4211      7400
 4212              	.LASF185:
 4213 0633 63684D74 		.ascii	"chMtxLock\000"
 4213      784C6F63 
 4213      6B00
 4214              	.LASF87:
 4215 063d 73757370 		.ascii	"suspended\000"
 4215      656E6465 
 4215      6400
 4216              	.LASF146:
 4217 0647 73647261 		.ascii	"sdram_region_info_t\000"
 4217      6D5F7265 
 4217      67696F6E 
ARM GAS  C:\Users\DEVELO~1\AppData\Local\Temp\ccpirKJb.s 			page 80


 4217      5F696E66 
 4217      6F5F7400 
 4218              	.LASF140:
 4219 065b 53445241 		.ascii	"SDRAM_CACHE_RESIDUAL\000"
 4219      4D5F4341 
 4219      4348455F 
 4219      52455349 
 4219      4455414C 
 4220              	.LASF195:
 4221 0670 73647261 		.ascii	"sdram_status\000"
 4221      6D5F7374 
 4221      61747573 
 4221      00
 4222              	.LASF20:
 4223 067d 75696E74 		.ascii	"uint64_t\000"
 4223      36345F74 
 4223      00
 4224              	.LASF141:
 4225 0686 53445241 		.ascii	"SDRAM_REGION_INVALID\000"
 4225      4D5F5245 
 4225      47494F4E 
 4225      5F494E56 
 4225      414C4944 
 4226              	.LASF116:
 4227 069b 63685F6F 		.ascii	"ch_os_instance_config\000"
 4227      735F696E 
 4227      7374616E 
 4227      63655F63 
 4227      6F6E6669 
 4228              	.LASF92:
 4229 06b1 706F7274 		.ascii	"port_context\000"
 4229      5F636F6E 
 4229      74657874 
 4229      00
 4230              	.LASF200:
 4231 06be 73647261 		.ascii	"sdram_set_fault_locked\000"
 4231      6D5F7365 
 4231      745F6661 
 4231      756C745F 
 4231      6C6F636B 
 4232              	.LASF126:
 4233 06d5 53445241 		.ascii	"SDRAM_READY\000"
 4233      4D5F5245 
 4233      41445900 
 4234              	.LASF85:
 4235 06e1 74696D65 		.ascii	"time\000"
 4235      00
 4236              	.LASF75:
 4237 06e6 7072696F 		.ascii	"prio\000"
 4237      00
 4238              	.LASF150:
 4239 06eb 73647261 		.ascii	"sdram_bist_status_t\000"
 4239      6D5F6269 
 4239      73745F73 
 4239      74617475 
 4239      735F7400 
 4240              	.LASF114:
ARM GAS  C:\Users\DEVELO~1\AppData\Local\Temp\ccpirKJb.s 			page 81


 4241 06ff 63757272 		.ascii	"current\000"
 4241      656E7400 
 4242              	.LASF13:
 4243 0707 5F5F7569 		.ascii	"__uint64_t\000"
 4243      6E743634 
 4243      5F7400
 4244              	.LASF194:
 4245 0712 6572726F 		.ascii	"error\000"
 4245      7200
 4246              	.LASF31:
 4247 0718 636F7265 		.ascii	"core_id_t\000"
 4247      5F69645F 
 4247      7400
 4248              	.LASF26:
 4249 0722 74726566 		.ascii	"trefs_t\000"
 4249      735F7400 
 4250              	.LASF39:
 4251 072a 72656673 		.ascii	"refs\000"
 4251      00
 4252              	.LASF82:
 4253 072f 75736572 		.ascii	"user\000"
 4253      00
 4254              	.LASF132:
 4255 0734 53445241 		.ascii	"SDRAM_ERR_FMC_CMD\000"
 4255      4D5F4552 
 4255      525F464D 
 4255      435F434D 
 4255      4400
 4256              	.LASF27:
 4257 0746 74707269 		.ascii	"tprio_t\000"
 4257      6F5F7400 
 4258              	.LASF61:
 4259 074e 63685F73 		.ascii	"ch_system_debug\000"
 4259      79737465 
 4259      6D5F6465 
 4259      62756700 
 4260              	.LASF123:
 4261 075e 5F426F6F 		.ascii	"_Bool\000"
 4261      6C00
 4262              	.LASF18:
 4263 0764 696E7433 		.ascii	"int32_t\000"
 4263      325F7400 
 4264              	.LASF4:
 4265 076c 756E7369 		.ascii	"unsigned char\000"
 4265      676E6564 
 4265      20636861 
 4265      7200
 4266              	.LASF60:
 4267 077a 72666375 		.ascii	"rfcu_t\000"
 4267      5F7400
 4268              	.LASF5:
 4269 0781 73686F72 		.ascii	"short int\000"
 4269      7420696E 
 4269      7400
 4270              	.LASF201:
 4271 078b 696E666F 		.ascii	"info\000"
 4271      00
ARM GAS  C:\Users\DEVELO~1\AppData\Local\Temp\ccpirKJb.s 			page 82


 4272              	.LASF95:
 4273 0790 6C617374 		.ascii	"lasttime\000"
 4273      74696D65 
 4273      00
 4274              	.LASF79:
 4275 0799 77746F62 		.ascii	"wtobjp\000"
 4275      6A7000
 4276              	.LASF187:
 4277 07a0 6F75745F 		.ascii	"out_info\000"
 4277      696E666F 
 4277      00
 4278              	.LASF15:
 4279 07a9 5F5F7569 		.ascii	"__uintptr_t\000"
 4279      6E747074 
 4279      725F7400 
 4280              	.LASF52:
 4281 07b5 636F7265 		.ascii	"core_id\000"
 4281      5F696400 
 4282              	.LASF129:
 4283 07bd 73647261 		.ascii	"sdram_state_t\000"
 4283      6D5F7374 
 4283      6174655F 
 4283      7400
 4284              	.LASF80:
 4285 07cb 72656173 		.ascii	"reason\000"
 4285      6F6E00
 4286              	.LASF167:
 4287 07d2 74696D65 		.ascii	"timestamp_start\000"
 4287      7374616D 
 4287      705F7374 
 4287      61727400 
 4288              	.LASF111:
 4289 07e2 63685F73 		.ascii	"ch_semaphore\000"
 4289      656D6170 
 4289      686F7265 
 4289      00
 4290              	.LASF100:
 4291 07ef 72656769 		.ascii	"registry_t\000"
 4291      73747279 
 4291      5F7400
 4292              	.LASF170:
 4293 07fa 6C617374 		.ascii	"last_error\000"
 4293      5F657272 
 4293      6F7200
 4294              	.LASF19:
 4295 0805 75696E74 		.ascii	"uint32_t\000"
 4295      33325F74 
 4295      00
 4296              	.LASF109:
 4297 080e 77746D74 		.ascii	"wtmtxp\000"
 4297      787000
 4298              	.LASF22:
 4299 0815 706F7274 		.ascii	"port_stkalign_t\000"
 4299      5F73746B 
 4299      616C6967 
 4299      6E5F7400 
 4300              	.LASF34:
ARM GAS  C:\Users\DEVELO~1\AppData\Local\Temp\ccpirKJb.s 			page 83


 4301 0825 6F776E65 		.ascii	"owner\000"
 4301      7200
 4302              	.LASF168:
 4303 082b 74696D65 		.ascii	"timestamp_end\000"
 4303      7374616D 
 4303      705F656E 
 4303      6400
 4304              	.LASF2:
 4305 0839 6C6F6E67 		.ascii	"long double\000"
 4305      20646F75 
 4305      626C6500 
 4306              	.LASF36:
 4307 0845 77616261 		.ascii	"wabase\000"
 4307      736500
 4308              	.LASF63:
 4309 084c 63686172 		.ascii	"char\000"
 4309      00
 4310              	.LASF174:
 4311 0851 6D6F6465 		.ascii	"mode\000"
 4311      00
 4312              	.LASF133:
 4313 0856 53445241 		.ascii	"SDRAM_ERR_REFRESH\000"
 4313      4D5F4552 
 4313      525F5245 
 4313      46524553 
 4313      4800
 4314              	.LASF54:
 4315 0868 636F6E66 		.ascii	"config\000"
 4315      696700
 4316              	.LASF7:
 4317 086f 5F5F7569 		.ascii	"__uint16_t\000"
 4317      6E743136 
 4317      5F7400
 4318              	.LASF155:
 4319 087a 53445241 		.ascii	"SDRAM_BIST_ERR_TIMEOUT\000"
 4319      4D5F4249 
 4319      53545F45 
 4319      52525F54 
 4319      494D454F 
 4320              	.LASF32:
 4321 0891 74687265 		.ascii	"thread_t\000"
 4321      61645F74 
 4321      00
 4322              	.LASF186:
 4323 089a 72656769 		.ascii	"region_id\000"
 4323      6F6E5F69 
 4323      6400
 4324              	.LASF94:
 4325 08a4 646C6973 		.ascii	"dlist\000"
 4325      7400
 4326              	.LASF65:
 4327 08aa 73797374 		.ascii	"systime_t\000"
 4327      696D655F 
 4327      7400
 4328              	.LASF89:
 4329 08b4 62756666 		.ascii	"buffer\000"
 4329      657200
ARM GAS  C:\Users\DEVELO~1\AppData\Local\Temp\ccpirKJb.s 			page 84


 4330              	.LASF73:
 4331 08bb 63685F70 		.ascii	"ch_priority_queue_t\000"
 4331      72696F72 
 4331      6974795F 
 4331      71756575 
 4331      655F7400 
 4332              	.LASF156:
 4333 08cf 73647261 		.ascii	"sdram_bist_error_t\000"
 4333      6D5F6269 
 4333      73745F65 
 4333      72726F72 
 4333      5F7400
 4334              	.LASF62:
 4335 08e2 70616E69 		.ascii	"panic_msg\000"
 4335      635F6D73 
 4335      6700
 4336              	.LASF103:
 4337 08ec 70717565 		.ascii	"pqueue\000"
 4337      756500
 4338              	.LASF48:
 4339 08f3 63685F6F 		.ascii	"ch_os_instance\000"
 4339      735F696E 
 4339      7374616E 
 4339      636500
 4340              	.LASF46:
 4341 0902 6F735F69 		.ascii	"os_instance_t\000"
 4341      6E737461 
 4341      6E63655F 
 4341      7400
 4342              	.LASF199:
 4343 0910 73647261 		.ascii	"sdram_clear_region_info\000"
 4343      6D5F636C 
 4343      6561725F 
 4343      72656769 
 4343      6F6E5F69 
 4344              	.LASF51:
 4345 0928 7265676C 		.ascii	"reglist\000"
 4345      69737400 
 4346              	.LASF151:
 4347 0930 53445241 		.ascii	"SDRAM_BIST_ERR_NONE\000"
 4347      4D5F4249 
 4347      53545F45 
 4347      52525F4E 
 4347      4F4E4500 
 4348              	.LASF130:
 4349 0944 53445241 		.ascii	"SDRAM_ERR_NONE\000"
 4349      4D5F4552 
 4349      525F4E4F 
 4349      4E4500
 4350              	.LASF74:
 4351 0953 63685F70 		.ascii	"ch_priority_queue\000"
 4351      72696F72 
 4351      6974795F 
 4351      71756575 
 4351      6500
 4352              	.LASF136:
 4353 0965 73647261 		.ascii	"sdram_error_t\000"
ARM GAS  C:\Users\DEVELO~1\AppData\Local\Temp\ccpirKJb.s 			page 85


 4353      6D5F6572 
 4353      726F725F 
 4353      7400
 4354              	.LASF76:
 4355 0973 63685F64 		.ascii	"ch_delta_list_t\000"
 4355      656C7461 
 4355      5F6C6973 
 4355      745F7400 
 4356              	.LASF118:
 4357 0983 6D61696E 		.ascii	"mainthread_end\000"
 4357      74687265 
 4357      61645F65 
 4357      6E6400
 4358              	.LASF138:
 4359 0992 53445241 		.ascii	"SDRAM_AUDIO_DELAY\000"
 4359      4D5F4155 
 4359      44494F5F 
 4359      44454C41 
 4359      5900
 4360              	.LASF171:
 4361 09a4 62697374 		.ascii	"bist_running\000"
 4361      5F72756E 
 4361      6E696E67 
 4361      00
 4362              	.LASF164:
 4363 09b1 66697273 		.ascii	"first_error_address\000"
 4363      745F6572 
 4363      726F725F 
 4363      61646472 
 4363      65737300 
 4364              	.LASF197:
 4365 09c5 62697374 		.ascii	"bist_ctx\000"
 4365      5F637478 
 4365      00
 4366              	.LASF172:
 4367 09ce 6C617374 		.ascii	"last_bist_result\000"
 4367      5F626973 
 4367      745F7265 
 4367      73756C74 
 4367      00
 4368              	.LASF207:
 4369 09df 6D656D73 		.ascii	"memset\000"
 4369      657400
 4370              	.LASF104:
 4371 09e6 7264796D 		.ascii	"rdymsg\000"
 4371      736700
 4372              	.LASF139:
 4373 09ed 53445241 		.ascii	"SDRAM_AUDIO_FX\000"
 4373      4D5F4155 
 4373      44494F5F 
 4373      465800
 4374              	.LASF77:
 4375 09fc 63685F64 		.ascii	"ch_delta_list\000"
 4375      656C7461 
 4375      5F6C6973 
 4375      7400
 4376              	.LASF128:
ARM GAS  C:\Users\DEVELO~1\AppData\Local\Temp\ccpirKJb.s 			page 86


 4377 0a0a 53445241 		.ascii	"SDRAM_FAULT\000"
 4377      4D5F4641 
 4377      554C5400 
 4378              	.LASF49:
 4379 0a16 726C6973 		.ascii	"rlist\000"
 4379      7400
 4380              	.LASF16:
 4381 0a1c 75696E74 		.ascii	"uint8_t\000"
 4381      385F7400 
 4382              	.LASF38:
 4383 0a24 666C6167 		.ascii	"flags\000"
 4383      7300
 4384              	.LASF142:
 4385 0a2a 73647261 		.ascii	"sdram_region_id_t\000"
 4385      6D5F7265 
 4385      67696F6E 
 4385      5F69645F 
 4385      7400
 4386              	.LASF166:
 4387 0a3c 66697273 		.ascii	"first_error_pattern\000"
 4387      745F6572 
 4387      726F725F 
 4387      70617474 
 4387      65726E00 
 4388              	.LASF193:
 4389 0a50 73647261 		.ascii	"sdram_get_error\000"
 4389      6D5F6765 
 4389      745F6572 
 4389      726F7200 
 4390              	.LASF101:
 4391 0a60 74687265 		.ascii	"thread_reference_t\000"
 4391      61645F72 
 4391      65666572 
 4391      656E6365 
 4391      5F7400
 4392              	.LASF145:
 4393 0a73 616C6967 		.ascii	"alignment_bytes\000"
 4393      6E6D656E 
 4393      745F6279 
 4393      74657300 
 4394              	.LASF112:
 4395 0a83 63685F6D 		.ascii	"ch_mutex\000"
 4395      75746578 
 4395      00
 4396              	.LASF159:
 4397 0a8c 73647261 		.ascii	"sdram_bist_mode_t\000"
 4397      6D5F6269 
 4397      73745F6D 
 4397      6F64655F 
 4397      7400
 4398              	.LASF179:
 4399 0a9e 73647261 		.ascii	"sdram_bist_context_t\000"
 4399      6D5F6269 
 4399      73745F63 
 4399      6F6E7465 
 4399      78745F74 
 4400              	.LASF56:
ARM GAS  C:\Users\DEVELO~1\AppData\Local\Temp\ccpirKJb.s 			page 87


 4401 0ab3 74726163 		.ascii	"trace_buffer\000"
 4401      655F6275 
 4401      66666572 
 4401      00
 4402              	.LASF173:
 4403 0ac0 73647261 		.ascii	"sdram_driver_ctx_t\000"
 4403      6D5F6472 
 4403      69766572 
 4403      5F637478 
 4403      5F7400
 4404              	.LASF192:
 4405 0ad3 73746172 		.ascii	"started\000"
 4405      74656400 
 4406              	.LASF102:
 4407 0adb 6C697374 		.ascii	"list\000"
 4407      00
 4408              	.LASF120:
 4409 0ae0 69646C65 		.ascii	"idlethread_end\000"
 4409      74687265 
 4409      61645F65 
 4409      6E6400
 4410              	.LASF43:
 4411 0aef 6D74786C 		.ascii	"mtxlist\000"
 4411      69737400 
 4412              	.LASF177:
 4413 0af7 72657375 		.ascii	"result\000"
 4413      6C7400
 4414              	.LASF163:
 4415 0afe 6572726F 		.ascii	"error_count\000"
 4415      725F636F 
 4415      756E7400 
 4416              	.LASF203:
 4417 0b0a 64726976 		.ascii	"drivers/sdram/sdram_driver.c\000"
 4417      6572732F 
 4417      73647261 
 4417      6D2F7364 
 4417      72616D5F 
 4418              		.ident	"GCC: (Arm GNU Toolchain 11.3.Rel1) 11.3.1 20220712"
ARM GAS  C:\Users\DEVELO~1\AppData\Local\Temp\ccpirKJb.s 			page 88


DEFINED SYMBOLS
                            *ABS*:00000000 sdram_driver.c
C:\Users\DEVELO~1\AppData\Local\Temp\ccpirKJb.s:18     .text.sdram_init:00000000 $t
C:\Users\DEVELO~1\AppData\Local\Temp\ccpirKJb.s:25     .text.sdram_init:00000000 sdram_init
C:\Users\DEVELO~1\AppData\Local\Temp\ccpirKJb.s:257    .text.sdram_init:000000c4 $d
C:\Users\DEVELO~1\AppData\Local\Temp\ccpirKJb.s:263    .text.sdram_status:00000000 $t
C:\Users\DEVELO~1\AppData\Local\Temp\ccpirKJb.s:270    .text.sdram_status:00000000 sdram_status
C:\Users\DEVELO~1\AppData\Local\Temp\ccpirKJb.s:307    .text.sdram_status:00000018 $d
C:\Users\DEVELO~1\AppData\Local\Temp\ccpirKJb.s:313    .text.sdram_get_error:00000000 $t
C:\Users\DEVELO~1\AppData\Local\Temp\ccpirKJb.s:320    .text.sdram_get_error:00000000 sdram_get_error
C:\Users\DEVELO~1\AppData\Local\Temp\ccpirKJb.s:357    .text.sdram_get_error:00000018 $d
C:\Users\DEVELO~1\AppData\Local\Temp\ccpirKJb.s:363    .text.sdram_run_bist:00000000 $t
C:\Users\DEVELO~1\AppData\Local\Temp\ccpirKJb.s:370    .text.sdram_run_bist:00000000 sdram_run_bist
C:\Users\DEVELO~1\AppData\Local\Temp\ccpirKJb.s:546    .text.sdram_run_bist:000000c4 $d
C:\Users\DEVELO~1\AppData\Local\Temp\ccpirKJb.s:553    .text.sdram_get_region:00000000 $t
C:\Users\DEVELO~1\AppData\Local\Temp\ccpirKJb.s:560    .text.sdram_get_region:00000000 sdram_get_region
C:\Users\DEVELO~1\AppData\Local\Temp\ccpirKJb.s:665    .text.sdram_get_region:00000048 $d
C:\Users\DEVELO~1\AppData\Local\Temp\ccpirKJb.s:684    .data.sdram_ctx_mtx:00000000 sdram_ctx_mtx
C:\Users\DEVELO~1\AppData\Local\Temp\ccpirKJb.s:677    .bss.sdram_ctx:00000000 sdram_ctx
C:\Users\DEVELO~1\AppData\Local\Temp\ccpirKJb.s:673    .bss.sdram_ctx:00000000 $d
C:\Users\DEVELO~1\AppData\Local\Temp\ccpirKJb.s:680    .data.sdram_ctx_mtx:00000000 $d

UNDEFINED SYMBOLS
chMtxLock
chMtxUnlock
sdram_hw_init_sequence
memset
sdram_bist_start
sdram_query_region_descriptor
