ARM GAS  C:\Users\DEVELO~1\AppData\Local\Temp\ccc8EdiN.s 			page 1


   1              		.cpu cortex-m7
   2              		.arch armv7e-m
   3              		.fpu softvfp
   4              		.eabi_attribute 20, 1
   5              		.eabi_attribute 21, 1
   6              		.eabi_attribute 23, 3
   7              		.eabi_attribute 24, 1
   8              		.eabi_attribute 25, 1
   9              		.eabi_attribute 26, 1
  10              		.eabi_attribute 30, 2
  11              		.eabi_attribute 34, 1
  12              		.eabi_attribute 18, 4
  13              		.file	"sdram_hw.c"
  14              		.text
  15              	.Ltext0:
  16              		.cfi_sections	.debug_frame
  17              		.section	.text.sdram_hw_init_sequence,"ax",%progbits
  18              		.align	1
  19              		.p2align 4,,15
  20              		.global	sdram_hw_init_sequence
  21              		.syntax unified
  22              		.thumb
  23              		.thumb_func
  24              		.type	sdram_hw_init_sequence, %function
  25              	sdram_hw_init_sequence:
  26              	.LFB434:
  27              		.file 1 "drivers/sdram/sdram_hw.c"
  28              		.loc 1 66 1 view -0
  29              		.cfi_startproc
  30              		@ args = 0, pretend = 0, frame = 0
  31              		@ frame_needed = 0, uses_anonymous_args = 0
  32              		.loc 1 75 3 view .LVU1
  33              		.loc 1 75 11 is_stmt 0 view .LVU2
  34 0000 434B     		ldr	r3, .L82
  35 0002 D3F8D420 		ldr	r2, [r3, #212]
  36              		.loc 1 75 6 view .LVU3
  37 0006 D104     		lsls	r1, r2, #19
  38              		.loc 1 66 1 view .LVU4
  39 0008 10B5     		push	{r4, lr}
  40              		.cfi_def_cfa_offset 8
  41              		.cfi_offset 4, -8
  42              		.cfi_offset 14, -4
  43              		.loc 1 75 6 view .LVU5
  44 000a 07D4     		bmi	.L2
  45              		.loc 1 76 5 is_stmt 1 view .LVU6
  46              		.loc 1 76 18 is_stmt 0 view .LVU7
  47 000c D3F8D420 		ldr	r2, [r3, #212]
  48 0010 42F48052 		orr	r2, r2, #4096
  49 0014 C3F8D420 		str	r2, [r3, #212]
  50              		.loc 1 77 5 is_stmt 1 view .LVU8
  51 0018 D3F8D430 		ldr	r3, [r3, #212]
  52              	.L2:
  53              		.loc 1 80 3 view .LVU9
  54              	.LVL0:
  55              		.loc 1 89 3 view .LVU10
  56              		.loc 1 97 3 view .LVU11
  57              		.loc 1 98 26 is_stmt 0 view .LVU12
ARM GAS  C:\Users\DEVELO~1\AppData\Local\Temp\ccc8EdiN.s 			page 2


  58 001c 3D4B     		ldr	r3, .L82+4
  59              		.loc 1 97 26 view .LVU13
  60 001e 41F65912 		movw	r2, #6489
  61 0022 3D4C     		ldr	r4, .L82+8
  62              		.loc 1 100 3 view .LVU14
  63 0024 0220     		movs	r0, #2
  64              		.loc 1 97 26 view .LVU15
  65 0026 2264     		str	r2, [r4, #64]
  66              		.loc 1 98 3 is_stmt 1 view .LVU16
  67              		.loc 1 98 26 is_stmt 0 view .LVU17
  68 0028 A364     		str	r3, [r4, #72]
  69              		.loc 1 100 3 is_stmt 1 view .LVU18
  70 002a FFF7FEFF 		bl	chThdSleep
  71              	.LVL1:
  72              		.loc 1 102 3 view .LVU19
  73              	.LBB60:
  74              	.LBI60:
  75              		.loc 1 49 13 view .LVU20
  76              	.LBB61:
  77              		.loc 1 51 3 view .LVU21
  78              		.loc 1 57 3 view .LVU22
  79              	.LBB62:
  80              	.LBI62:
  81              		.loc 1 38 13 view .LVU23
  82              	.LBB63:
  83              		.loc 1 40 3 view .LVU24
  84              		.loc 1 40 9 is_stmt 0 view .LVU25
  85 002e 4FF48023 		mov	r3, #262144
  86 0032 01E0     		b	.L3
  87              	.LVL2:
  88              	.L5:
  89              		.loc 1 41 8 view .LVU26
  90 0034 013B     		subs	r3, r3, #1
  91              	.LVL3:
  92              		.loc 1 41 8 view .LVU27
  93 0036 69D0     		beq	.L4
  94              	.LVL4:
  95              	.L3:
  96              		.loc 1 41 5 is_stmt 1 view .LVU28
  97              		.loc 1 40 50 view .LVU29
  98              		.loc 1 40 24 is_stmt 0 view .LVU30
  99 0038 A26D     		ldr	r2, [r4, #88]
 100              		.loc 1 40 50 view .LVU31
 101 003a 9206     		lsls	r2, r2, #26
 102 003c FAD4     		bmi	.L5
 103              	.LVL5:
 104              		.loc 1 40 50 view .LVU32
 105              	.LBE63:
 106              	.LBE62:
 107              		.loc 1 61 3 is_stmt 1 view .LVU33
 108              		.loc 1 61 24 is_stmt 0 view .LVU34
 109 003e 1122     		movs	r2, #17
 110 0040 4FF48023 		mov	r3, #262144
 111              	.LBB64:
 112              	.LBB65:
 113              	.LBB66:
 114              	.LBB67:
ARM GAS  C:\Users\DEVELO~1\AppData\Local\Temp\ccc8EdiN.s 			page 3


 115              		.loc 1 40 24 view .LVU35
 116 0044 3449     		ldr	r1, .L82+8
 117              	.LBE67:
 118              	.LBE66:
 119              	.LBE65:
 120              	.LBE64:
 121              		.loc 1 61 24 view .LVU36
 122 0046 2265     		str	r2, [r4, #80]
 123              		.loc 1 62 3 is_stmt 1 view .LVU37
 124              	.LVL6:
 125              	.LBB71:
 126              	.LBI64:
 127              		.loc 1 49 13 view .LVU38
 128              		.loc 1 49 13 is_stmt 0 view .LVU39
 129 0048 01E0     		b	.L31
 130              	.LVL7:
 131              	.L7:
 132              	.LBB70:
 133              	.LBB69:
 134              	.LBB68:
 135              		.loc 1 41 8 view .LVU40
 136 004a 013B     		subs	r3, r3, #1
 137              	.LVL8:
 138              		.loc 1 41 8 view .LVU41
 139 004c 5ED0     		beq	.L4
 140              	.LVL9:
 141              	.L31:
 142              		.loc 1 41 5 is_stmt 1 view .LVU42
 143              		.loc 1 40 50 view .LVU43
 144              		.loc 1 40 24 is_stmt 0 view .LVU44
 145 004e 8A6D     		ldr	r2, [r1, #88]
 146              		.loc 1 40 50 view .LVU45
 147 0050 9006     		lsls	r0, r2, #26
 148 0052 FAD4     		bmi	.L7
 149              	.LVL10:
 150              		.loc 1 40 50 view .LVU46
 151              	.LBE68:
 152              	.LBE69:
 153              	.LBE70:
 154              	.LBE71:
 155              	.LBE61:
 156              	.LBE60:
 157              		.loc 1 106 3 is_stmt 1 view .LVU47
 158 0054 0A20     		movs	r0, #10
 159 0056 FFF7FEFF 		bl	chThdSleep
 160              	.LVL11:
 161              		.loc 1 108 3 view .LVU48
 162              	.LBB72:
 163              	.LBI72:
 164              		.loc 1 49 13 view .LVU49
 165              	.LBB73:
 166              		.loc 1 51 3 view .LVU50
 167              		.loc 1 57 3 view .LVU51
 168              	.LBB74:
 169              	.LBI74:
 170              		.loc 1 38 13 view .LVU52
 171              	.LBB75:
ARM GAS  C:\Users\DEVELO~1\AppData\Local\Temp\ccc8EdiN.s 			page 4


 172              		.loc 1 40 3 view .LVU53
 173              		.loc 1 40 9 is_stmt 0 view .LVU54
 174 005a 4FF48023 		mov	r3, #262144
 175              		.loc 1 40 24 view .LVU55
 176 005e 2E49     		ldr	r1, .L82+8
 177              		.loc 1 40 9 view .LVU56
 178 0060 01E0     		b	.L30
 179              	.LVL12:
 180              	.L9:
 181              		.loc 1 41 8 view .LVU57
 182 0062 013B     		subs	r3, r3, #1
 183              	.LVL13:
 184              		.loc 1 41 8 view .LVU58
 185 0064 52D0     		beq	.L4
 186              	.LVL14:
 187              	.L30:
 188              		.loc 1 41 5 is_stmt 1 view .LVU59
 189              		.loc 1 40 50 view .LVU60
 190              		.loc 1 40 24 is_stmt 0 view .LVU61
 191 0066 8A6D     		ldr	r2, [r1, #88]
 192              		.loc 1 40 50 view .LVU62
 193 0068 9206     		lsls	r2, r2, #26
 194 006a FAD4     		bmi	.L9
 195              	.LVL15:
 196              		.loc 1 40 50 view .LVU63
 197              	.LBE75:
 198              	.LBE74:
 199              		.loc 1 61 3 is_stmt 1 view .LVU64
 200              		.loc 1 61 24 is_stmt 0 view .LVU65
 201 006c 1222     		movs	r2, #18
 202 006e 4FF48023 		mov	r3, #262144
 203              	.LBB76:
 204              	.LBB77:
 205              	.LBB78:
 206              	.LBB79:
 207              		.loc 1 40 24 view .LVU66
 208 0072 2948     		ldr	r0, .L82+8
 209              	.LBE79:
 210              	.LBE78:
 211              	.LBE77:
 212              	.LBE76:
 213              		.loc 1 61 24 view .LVU67
 214 0074 0A65     		str	r2, [r1, #80]
 215              		.loc 1 62 3 is_stmt 1 view .LVU68
 216              	.LVL16:
 217              	.LBB83:
 218              	.LBI76:
 219              		.loc 1 49 13 view .LVU69
 220              		.loc 1 49 13 is_stmt 0 view .LVU70
 221 0076 01E0     		b	.L29
 222              	.LVL17:
 223              	.L11:
 224              	.LBB82:
 225              	.LBB81:
 226              	.LBB80:
 227              		.loc 1 41 8 view .LVU71
 228 0078 013B     		subs	r3, r3, #1
ARM GAS  C:\Users\DEVELO~1\AppData\Local\Temp\ccc8EdiN.s 			page 5


 229              	.LVL18:
 230              		.loc 1 41 8 view .LVU72
 231 007a 47D0     		beq	.L4
 232              	.LVL19:
 233              	.L29:
 234              		.loc 1 41 5 is_stmt 1 view .LVU73
 235              		.loc 1 40 50 view .LVU74
 236              		.loc 1 40 24 is_stmt 0 view .LVU75
 237 007c 826D     		ldr	r2, [r0, #88]
 238              		.loc 1 40 50 view .LVU76
 239 007e 9406     		lsls	r4, r2, #26
 240 0080 FAD4     		bmi	.L11
 241 0082 4FF48023 		mov	r3, #262144
 242              	.LVL20:
 243              		.loc 1 40 50 view .LVU77
 244              	.LBE80:
 245              	.LBE81:
 246              	.LBE82:
 247              	.LBE83:
 248              	.LBE73:
 249              	.LBE72:
 250              	.LBB84:
 251              	.LBB85:
 252              	.LBB86:
 253              	.LBB87:
 254              		.loc 1 40 24 view .LVU78
 255 0086 2449     		ldr	r1, .L82+8
 256 0088 01E0     		b	.L12
 257              	.LVL21:
 258              	.L13:
 259              		.loc 1 41 8 view .LVU79
 260 008a 013B     		subs	r3, r3, #1
 261              	.LVL22:
 262              		.loc 1 41 8 view .LVU80
 263 008c 3ED0     		beq	.L4
 264              	.LVL23:
 265              	.L12:
 266              		.loc 1 41 5 is_stmt 1 view .LVU81
 267              		.loc 1 40 50 view .LVU82
 268              		.loc 1 40 24 is_stmt 0 view .LVU83
 269 008e 8A6D     		ldr	r2, [r1, #88]
 270              		.loc 1 40 50 view .LVU84
 271 0090 9006     		lsls	r0, r2, #26
 272 0092 FAD4     		bmi	.L13
 273              	.LVL24:
 274              		.loc 1 40 50 view .LVU85
 275              	.LBE87:
 276              	.LBE86:
 277              		.loc 1 61 3 is_stmt 1 view .LVU86
 278              		.loc 1 61 24 is_stmt 0 view .LVU87
 279 0094 7322     		movs	r2, #115
 280 0096 4FF48023 		mov	r3, #262144
 281              	.LBB88:
 282              	.LBB89:
 283              	.LBB90:
 284              	.LBB91:
 285              		.loc 1 40 24 view .LVU88
ARM GAS  C:\Users\DEVELO~1\AppData\Local\Temp\ccc8EdiN.s 			page 6


 286 009a 1F48     		ldr	r0, .L82+8
 287              	.LBE91:
 288              	.LBE90:
 289              	.LBE89:
 290              	.LBE88:
 291              		.loc 1 61 24 view .LVU89
 292 009c 0A65     		str	r2, [r1, #80]
 293              		.loc 1 62 3 is_stmt 1 view .LVU90
 294              	.LVL25:
 295              	.LBB95:
 296              	.LBI88:
 297              		.loc 1 49 13 view .LVU91
 298              		.loc 1 49 13 is_stmt 0 view .LVU92
 299 009e 01E0     		b	.L28
 300              	.LVL26:
 301              	.L15:
 302              	.LBB94:
 303              	.LBB93:
 304              	.LBB92:
 305              		.loc 1 41 8 view .LVU93
 306 00a0 013B     		subs	r3, r3, #1
 307              	.LVL27:
 308              		.loc 1 41 8 view .LVU94
 309 00a2 33D0     		beq	.L4
 310              	.LVL28:
 311              	.L28:
 312              		.loc 1 41 5 is_stmt 1 view .LVU95
 313              		.loc 1 40 50 view .LVU96
 314              		.loc 1 40 24 is_stmt 0 view .LVU97
 315 00a4 826D     		ldr	r2, [r0, #88]
 316              		.loc 1 40 50 view .LVU98
 317 00a6 9106     		lsls	r1, r2, #26
 318 00a8 FAD4     		bmi	.L15
 319 00aa 4FF48023 		mov	r3, #262144
 320              	.LVL29:
 321              		.loc 1 40 50 view .LVU99
 322              	.LBE92:
 323              	.LBE93:
 324              	.LBE94:
 325              	.LBE95:
 326              	.LBE85:
 327              	.LBE84:
 328              	.LBB96:
 329              	.LBB97:
 330              	.LBB98:
 331              	.LBB99:
 332              		.loc 1 40 24 view .LVU100
 333 00ae 1A49     		ldr	r1, .L82+8
 334 00b0 01E0     		b	.L16
 335              	.LVL30:
 336              	.L17:
 337              		.loc 1 41 8 view .LVU101
 338 00b2 013B     		subs	r3, r3, #1
 339              	.LVL31:
 340              		.loc 1 41 8 view .LVU102
 341 00b4 2AD0     		beq	.L4
 342              	.LVL32:
ARM GAS  C:\Users\DEVELO~1\AppData\Local\Temp\ccc8EdiN.s 			page 7


 343              	.L16:
 344              		.loc 1 41 5 is_stmt 1 view .LVU103
 345              		.loc 1 40 50 view .LVU104
 346              		.loc 1 40 24 is_stmt 0 view .LVU105
 347 00b6 8A6D     		ldr	r2, [r1, #88]
 348              		.loc 1 40 50 view .LVU106
 349 00b8 9206     		lsls	r2, r2, #26
 350 00ba FAD4     		bmi	.L17
 351              	.LVL33:
 352              		.loc 1 40 50 view .LVU107
 353              	.LBE99:
 354              	.LBE98:
 355              		.loc 1 61 3 is_stmt 1 view .LVU108
 356              		.loc 1 61 24 is_stmt 0 view .LVU109
 357 00bc 7322     		movs	r2, #115
 358 00be 4FF48023 		mov	r3, #262144
 359              	.LBB100:
 360              	.LBB101:
 361              	.LBB102:
 362              	.LBB103:
 363              		.loc 1 40 24 view .LVU110
 364 00c2 1548     		ldr	r0, .L82+8
 365              	.LBE103:
 366              	.LBE102:
 367              	.LBE101:
 368              	.LBE100:
 369              		.loc 1 61 24 view .LVU111
 370 00c4 0A65     		str	r2, [r1, #80]
 371              		.loc 1 62 3 is_stmt 1 view .LVU112
 372              	.LVL34:
 373              	.LBB107:
 374              	.LBI100:
 375              		.loc 1 49 13 view .LVU113
 376              		.loc 1 49 13 is_stmt 0 view .LVU114
 377 00c6 01E0     		b	.L27
 378              	.LVL35:
 379              	.L19:
 380              	.LBB106:
 381              	.LBB105:
 382              	.LBB104:
 383              		.loc 1 41 8 view .LVU115
 384 00c8 013B     		subs	r3, r3, #1
 385              	.LVL36:
 386              		.loc 1 41 8 view .LVU116
 387 00ca 1FD0     		beq	.L4
 388              	.LVL37:
 389              	.L27:
 390              		.loc 1 41 5 is_stmt 1 view .LVU117
 391              		.loc 1 40 50 view .LVU118
 392              		.loc 1 40 24 is_stmt 0 view .LVU119
 393 00cc 826D     		ldr	r2, [r0, #88]
 394              		.loc 1 40 50 view .LVU120
 395 00ce 9406     		lsls	r4, r2, #26
 396 00d0 FAD4     		bmi	.L19
 397 00d2 4FF48023 		mov	r3, #262144
 398              	.LVL38:
 399              		.loc 1 40 50 view .LVU121
ARM GAS  C:\Users\DEVELO~1\AppData\Local\Temp\ccc8EdiN.s 			page 8


 400              	.LBE104:
 401              	.LBE105:
 402              	.LBE106:
 403              	.LBE107:
 404              	.LBE97:
 405              	.LBE96:
 406              	.LBB108:
 407              	.LBB109:
 408              	.LBB110:
 409              	.LBB111:
 410              		.loc 1 40 24 view .LVU122
 411 00d6 1049     		ldr	r1, .L82+8
 412 00d8 01E0     		b	.L20
 413              	.LVL39:
 414              	.L21:
 415              		.loc 1 41 8 view .LVU123
 416 00da 013B     		subs	r3, r3, #1
 417              	.LVL40:
 418              		.loc 1 41 8 view .LVU124
 419 00dc 16D0     		beq	.L4
 420              	.LVL41:
 421              	.L20:
 422              		.loc 1 41 5 is_stmt 1 view .LVU125
 423              		.loc 1 40 50 view .LVU126
 424              		.loc 1 40 24 is_stmt 0 view .LVU127
 425 00de 8A6D     		ldr	r2, [r1, #88]
 426              		.loc 1 40 50 view .LVU128
 427 00e0 9006     		lsls	r0, r2, #26
 428 00e2 FAD4     		bmi	.L21
 429              	.LVL42:
 430              		.loc 1 40 50 view .LVU129
 431              	.LBE111:
 432              	.LBE110:
 433              		.loc 1 61 3 is_stmt 1 view .LVU130
 434              		.loc 1 61 24 is_stmt 0 view .LVU131
 435 00e4 0D4A     		ldr	r2, .L82+12
 436 00e6 4FF48023 		mov	r3, #262144
 437              	.LBB112:
 438              	.LBB113:
 439              	.LBB114:
 440              	.LBB115:
 441              		.loc 1 40 24 view .LVU132
 442 00ea 0B4C     		ldr	r4, .L82+8
 443              	.LBE115:
 444              	.LBE114:
 445              	.LBE113:
 446              	.LBE112:
 447              		.loc 1 61 24 view .LVU133
 448 00ec 0A65     		str	r2, [r1, #80]
 449              		.loc 1 62 3 is_stmt 1 view .LVU134
 450              	.LVL43:
 451              	.LBB119:
 452              	.LBI112:
 453              		.loc 1 49 13 view .LVU135
 454              		.loc 1 49 13 is_stmt 0 view .LVU136
 455 00ee 01E0     		b	.L26
 456              	.LVL44:
ARM GAS  C:\Users\DEVELO~1\AppData\Local\Temp\ccc8EdiN.s 			page 9


 457              	.L23:
 458              	.LBB118:
 459              	.LBB117:
 460              	.LBB116:
 461              		.loc 1 41 8 view .LVU137
 462 00f0 013B     		subs	r3, r3, #1
 463              	.LVL45:
 464              		.loc 1 41 8 view .LVU138
 465 00f2 0BD0     		beq	.L4
 466              	.LVL46:
 467              	.L26:
 468              		.loc 1 41 5 is_stmt 1 view .LVU139
 469              		.loc 1 40 50 view .LVU140
 470              		.loc 1 40 24 is_stmt 0 view .LVU141
 471 00f4 A26D     		ldr	r2, [r4, #88]
 472              		.loc 1 40 50 view .LVU142
 473 00f6 9206     		lsls	r2, r2, #26
 474 00f8 FAD4     		bmi	.L23
 475              	.LVL47:
 476              		.loc 1 40 50 view .LVU143
 477              	.LBE116:
 478              	.LBE117:
 479              	.LBE118:
 480              	.LBE119:
 481              	.LBE109:
 482              	.LBE108:
 483              		.loc 1 124 3 is_stmt 1 view .LVU144
 484              		.loc 1 124 12 is_stmt 0 view .LVU145
 485 00fa 616D     		ldr	r1, [r4, #84]
 486              	.LVL48:
 487              		.loc 1 125 3 is_stmt 1 view .LVU146
 488              		.loc 1 126 9 is_stmt 0 view .LVU147
 489 00fc 40F2F253 		movw	r3, #1522
 490              		.loc 1 125 9 view .LVU148
 491 0100 074A     		ldr	r2, .L82+16
 492              		.loc 1 129 10 view .LVU149
 493 0102 0120     		movs	r0, #1
 494              		.loc 1 125 9 view .LVU150
 495 0104 0A40     		ands	r2, r2, r1
 496              	.LVL49:
 497              		.loc 1 126 3 is_stmt 1 view .LVU151
 498              		.loc 1 126 9 is_stmt 0 view .LVU152
 499 0106 1343     		orrs	r3, r3, r2
 500              	.LVL50:
 501              		.loc 1 127 3 is_stmt 1 view .LVU153
 502              		.loc 1 127 24 is_stmt 0 view .LVU154
 503 0108 6365     		str	r3, [r4, #84]
 504              		.loc 1 129 3 is_stmt 1 view .LVU155
 505              		.loc 1 130 1 is_stmt 0 view .LVU156
 506 010a 10BD     		pop	{r4, pc}
 507              	.LVL51:
 508              	.L4:
 509              		.loc 1 103 12 view .LVU157
 510 010c 0020     		movs	r0, #0
 511              		.loc 1 130 1 view .LVU158
 512 010e 10BD     		pop	{r4, pc}
 513              	.L83:
ARM GAS  C:\Users\DEVELO~1\AppData\Local\Temp\ccc8EdiN.s 			page 10


 514              		.align	2
 515              	.L82:
 516 0110 00440258 		.word	1476543488
 517 0114 71552202 		.word	35804529
 518 0118 00410052 		.word	1375748352
 519 011c 14600400 		.word	286740
 520 0120 01C0FFFF 		.word	-16383
 521              		.cfi_endproc
 522              	.LFE434:
 523              		.size	sdram_hw_init_sequence, .-sdram_hw_init_sequence
 524              		.text
 525              	.Letext0:
 526              		.file 2 "c:\\chibistudio\\tools\\gnu tools arm embedded\\11.3 2022.08\\arm-none-eabi\\include\\mac
 527              		.file 3 "c:\\chibistudio\\tools\\gnu tools arm embedded\\11.3 2022.08\\arm-none-eabi\\include\\sys
 528              		.file 4 "../../../os/rt/include/chtime.h"
 529              		.file 5 "../../../os/common/ext/ST/STM32H7xx/stm32h743xx.h"
 530              		.file 6 "../../../os/rt/include/chthreads.h"
 531              		.section	.debug_info,"",%progbits
 532              	.Ldebug_info0:
 533 0000 11090000 		.4byte	0x911
 534 0004 0500     		.2byte	0x5
 535 0006 01       		.byte	0x1
 536 0007 04       		.byte	0x4
 537 0008 00000000 		.4byte	.Ldebug_abbrev0
 538 000c 15       		.uleb128 0x15
 539 000d B0000000 		.4byte	.LASF92
 540 0011 1D       		.byte	0x1d
 541 0012 1D000000 		.4byte	.LASF93
 542 0016 E9020000 		.4byte	.LASF94
 543 001a 84000000 		.4byte	.LLRL44
 544 001e 00000000 		.4byte	0
 545 0022 00000000 		.4byte	.Ldebug_line0
 546 0026 16       		.uleb128 0x16
 547 0027 04       		.byte	0x4
 548 0028 05       		.byte	0x5
 549 0029 696E7400 		.ascii	"int\000"
 550 002d 03       		.uleb128 0x3
 551 002e 04       		.byte	0x4
 552 002f 07       		.byte	0x7
 553 0030 D3020000 		.4byte	.LASF0
 554 0034 03       		.uleb128 0x3
 555 0035 08       		.byte	0x8
 556 0036 05       		.byte	0x5
 557 0037 73030000 		.4byte	.LASF1
 558 003b 03       		.uleb128 0x3
 559 003c 08       		.byte	0x8
 560 003d 04       		.byte	0x4
 561 003e 39020000 		.4byte	.LASF2
 562 0042 03       		.uleb128 0x3
 563 0043 01       		.byte	0x1
 564 0044 06       		.byte	0x6
 565 0045 9E020000 		.4byte	.LASF3
 566 0049 03       		.uleb128 0x3
 567 004a 01       		.byte	0x1
 568 004b 08       		.byte	0x8
 569 004c 54020000 		.4byte	.LASF4
 570 0050 03       		.uleb128 0x3
ARM GAS  C:\Users\DEVELO~1\AppData\Local\Temp\ccc8EdiN.s 			page 11


 571 0051 02       		.byte	0x2
 572 0052 05       		.byte	0x5
 573 0053 68000000 		.4byte	.LASF5
 574 0057 03       		.uleb128 0x3
 575 0058 02       		.byte	0x2
 576 0059 07       		.byte	0x7
 577 005a 60030000 		.4byte	.LASF6
 578 005e 03       		.uleb128 0x3
 579 005f 04       		.byte	0x4
 580 0060 05       		.byte	0x5
 581 0061 DA010000 		.4byte	.LASF7
 582 0065 07       		.uleb128 0x7
 583 0066 9B000000 		.4byte	.LASF9
 584 006a 02       		.byte	0x2
 585 006b 4F       		.byte	0x4f
 586 006c 19       		.byte	0x19
 587 006d 71000000 		.4byte	0x71
 588 0071 03       		.uleb128 0x3
 589 0072 04       		.byte	0x4
 590 0073 07       		.byte	0x7
 591 0074 FB030000 		.4byte	.LASF8
 592 0078 07       		.uleb128 0x7
 593 0079 AC030000 		.4byte	.LASF10
 594 007d 02       		.byte	0x2
 595 007e 69       		.byte	0x69
 596 007f 19       		.byte	0x19
 597 0080 84000000 		.4byte	0x84
 598 0084 03       		.uleb128 0x3
 599 0085 08       		.byte	0x8
 600 0086 07       		.byte	0x7
 601 0087 AA020000 		.4byte	.LASF11
 602 008b 07       		.uleb128 0x7
 603 008c CA020000 		.4byte	.LASF12
 604 0090 03       		.byte	0x3
 605 0091 30       		.byte	0x30
 606 0092 14       		.byte	0x14
 607 0093 65000000 		.4byte	0x65
 608 0097 11       		.uleb128 0x11
 609 0098 8B000000 		.4byte	0x8b
 610 009c 17       		.uleb128 0x17
 611 009d 8B000000 		.4byte	0x8b
 612 00a1 07       		.uleb128 0x7
 613 00a2 5F000000 		.4byte	.LASF13
 614 00a6 03       		.byte	0x3
 615 00a7 3C       		.byte	0x3c
 616 00a8 14       		.byte	0x14
 617 00a9 78000000 		.4byte	0x78
 618 00ad 03       		.uleb128 0x3
 619 00ae 01       		.byte	0x1
 620 00af 08       		.byte	0x8
 621 00b0 81030000 		.4byte	.LASF14
 622 00b4 07       		.uleb128 0x7
 623 00b5 9E030000 		.4byte	.LASF15
 624 00b9 04       		.byte	0x4
 625 00ba 79       		.byte	0x79
 626 00bb 12       		.byte	0x12
 627 00bc 8B000000 		.4byte	0x8b
ARM GAS  C:\Users\DEVELO~1\AppData\Local\Temp\ccc8EdiN.s 			page 12


 628 00c0 07       		.uleb128 0x7
 629 00c1 5C040000 		.4byte	.LASF16
 630 00c5 04       		.byte	0x4
 631 00c6 9B       		.byte	0x9b
 632 00c7 12       		.byte	0x12
 633 00c8 A1000000 		.4byte	0xa1
 634 00cc 0F       		.uleb128 0xf
 635 00cd 8B000000 		.4byte	0x8b
 636 00d1 DC000000 		.4byte	0xdc
 637 00d5 10       		.uleb128 0x10
 638 00d6 2D000000 		.4byte	0x2d
 639 00da 03       		.byte	0x3
 640 00db 00       		.byte	0
 641 00dc 0F       		.uleb128 0xf
 642 00dd 97000000 		.4byte	0x97
 643 00e1 EC000000 		.4byte	0xec
 644 00e5 10       		.uleb128 0x10
 645 00e6 2D000000 		.4byte	0x2d
 646 00ea 01       		.byte	0x1
 647 00eb 00       		.byte	0
 648 00ec 11       		.uleb128 0x11
 649 00ed DC000000 		.4byte	0xdc
 650 00f1 0F       		.uleb128 0xf
 651 00f2 8B000000 		.4byte	0x8b
 652 00f6 01010000 		.4byte	0x101
 653 00fa 10       		.uleb128 0x10
 654 00fb 2D000000 		.4byte	0x2d
 655 00ff 08       		.byte	0x8
 656 0100 00       		.byte	0
 657 0101 18       		.uleb128 0x18
 658 0102 1C       		.byte	0x1c
 659 0103 05       		.byte	0x5
 660 0104 F503     		.2byte	0x3f5
 661 0106 09       		.byte	0x9
 662 0107 4D010000 		.4byte	0x14d
 663 010b 01       		.uleb128 0x1
 664 010c 99020000 		.4byte	.LASF17
 665 0110 F703     		.2byte	0x3f7
 666 0112 11       		.byte	0x11
 667 0113 EC000000 		.4byte	0xec
 668 0117 00       		.byte	0
 669 0118 01       		.uleb128 0x1
 670 0119 50000000 		.4byte	.LASF18
 671 011d F803     		.2byte	0x3f8
 672 011f 11       		.byte	0x11
 673 0120 EC000000 		.4byte	0xec
 674 0124 08       		.byte	0x8
 675 0125 01       		.uleb128 0x1
 676 0126 71040000 		.4byte	.LASF19
 677 012a F903     		.2byte	0x3f9
 678 012c 11       		.byte	0x11
 679 012d 97000000 		.4byte	0x97
 680 0131 10       		.byte	0x10
 681 0132 01       		.uleb128 0x1
 682 0133 36000000 		.4byte	.LASF20
 683 0137 FA03     		.2byte	0x3fa
 684 0139 11       		.byte	0x11
ARM GAS  C:\Users\DEVELO~1\AppData\Local\Temp\ccc8EdiN.s 			page 13


 685 013a 97000000 		.4byte	0x97
 686 013e 14       		.byte	0x14
 687 013f 01       		.uleb128 0x1
 688 0140 33040000 		.4byte	.LASF21
 689 0144 FB03     		.2byte	0x3fb
 690 0146 11       		.byte	0x11
 691 0147 97000000 		.4byte	0x97
 692 014b 18       		.byte	0x18
 693 014c 00       		.byte	0
 694 014d 12       		.uleb128 0x12
 695 014e 6F010000 		.4byte	.LASF22
 696 0152 FC03     		.2byte	0x3fc
 697 0154 01010000 		.4byte	0x101
 698 0158 19       		.uleb128 0x19
 699 0159 3001     		.2byte	0x130
 700 015b 05       		.byte	0x5
 701 015c CE04     		.2byte	0x4ce
 702 015e 09       		.byte	0x9
 703 015f B9040000 		.4byte	0x4b9
 704 0163 0C       		.uleb128 0xc
 705 0164 435200   		.ascii	"CR\000"
 706 0167 D004     		.2byte	0x4d0
 707 0169 10       		.byte	0x10
 708 016a 97000000 		.4byte	0x97
 709 016e 00       		.byte	0
 710 016f 01       		.uleb128 0x1
 711 0170 8B000000 		.4byte	.LASF23
 712 0174 D104     		.2byte	0x4d1
 713 0176 10       		.byte	0x10
 714 0177 97000000 		.4byte	0x97
 715 017b 04       		.byte	0x4
 716 017c 01       		.uleb128 0x1
 717 017d 93020000 		.4byte	.LASF24
 718 0181 D204     		.2byte	0x4d2
 719 0183 10       		.byte	0x10
 720 0184 97000000 		.4byte	0x97
 721 0188 08       		.byte	0x8
 722 0189 01       		.uleb128 0x1
 723 018a 27020000 		.4byte	.LASF25
 724 018e D304     		.2byte	0x4d3
 725 0190 10       		.byte	0x10
 726 0191 97000000 		.4byte	0x97
 727 0195 0C       		.byte	0xc
 728 0196 01       		.uleb128 0x1
 729 0197 83010000 		.4byte	.LASF26
 730 019b D404     		.2byte	0x4d4
 731 019d 10       		.byte	0x10
 732 019e 97000000 		.4byte	0x97
 733 01a2 10       		.byte	0x10
 734 01a3 01       		.uleb128 0x1
 735 01a4 CA030000 		.4byte	.LASF27
 736 01a8 D504     		.2byte	0x4d5
 737 01aa 0F       		.byte	0xf
 738 01ab 8B000000 		.4byte	0x8b
 739 01af 14       		.byte	0x14
 740 01b0 01       		.uleb128 0x1
 741 01b1 49030000 		.4byte	.LASF28
ARM GAS  C:\Users\DEVELO~1\AppData\Local\Temp\ccc8EdiN.s 			page 14


 742 01b5 D604     		.2byte	0x4d6
 743 01b7 10       		.byte	0x10
 744 01b8 97000000 		.4byte	0x97
 745 01bc 18       		.byte	0x18
 746 01bd 01       		.uleb128 0x1
 747 01be A1040000 		.4byte	.LASF29
 748 01c2 D704     		.2byte	0x4d7
 749 01c4 10       		.byte	0x10
 750 01c5 97000000 		.4byte	0x97
 751 01c9 1C       		.byte	0x1c
 752 01ca 01       		.uleb128 0x1
 753 01cb 9C010000 		.4byte	.LASF30
 754 01cf D804     		.2byte	0x4d8
 755 01d1 10       		.byte	0x10
 756 01d2 97000000 		.4byte	0x97
 757 01d6 20       		.byte	0x20
 758 01d7 01       		.uleb128 0x1
 759 01d8 D4030000 		.4byte	.LASF31
 760 01dc D904     		.2byte	0x4d9
 761 01de 0F       		.byte	0xf
 762 01df 8B000000 		.4byte	0x8b
 763 01e3 24       		.byte	0x24
 764 01e4 01       		.uleb128 0x1
 765 01e5 C1010000 		.4byte	.LASF32
 766 01e9 DA04     		.2byte	0x4da
 767 01eb 10       		.byte	0x10
 768 01ec 97000000 		.4byte	0x97
 769 01f0 28       		.byte	0x28
 770 01f1 01       		.uleb128 0x1
 771 01f2 58030000 		.4byte	.LASF33
 772 01f6 DB04     		.2byte	0x4db
 773 01f8 10       		.byte	0x10
 774 01f9 97000000 		.4byte	0x97
 775 01fd 2C       		.byte	0x2c
 776 01fe 01       		.uleb128 0x1
 777 01ff B0010000 		.4byte	.LASF34
 778 0203 DC04     		.2byte	0x4dc
 779 0205 10       		.byte	0x10
 780 0206 97000000 		.4byte	0x97
 781 020a 30       		.byte	0x30
 782 020b 01       		.uleb128 0x1
 783 020c 00000000 		.4byte	.LASF35
 784 0210 DD04     		.2byte	0x4dd
 785 0212 10       		.byte	0x10
 786 0213 97000000 		.4byte	0x97
 787 0217 34       		.byte	0x34
 788 0218 01       		.uleb128 0x1
 789 0219 E3010000 		.4byte	.LASF36
 790 021d DE04     		.2byte	0x4de
 791 021f 10       		.byte	0x10
 792 0220 97000000 		.4byte	0x97
 793 0224 38       		.byte	0x38
 794 0225 01       		.uleb128 0x1
 795 0226 62020000 		.4byte	.LASF37
 796 022a DF04     		.2byte	0x4df
 797 022c 10       		.byte	0x10
 798 022d 97000000 		.4byte	0x97
ARM GAS  C:\Users\DEVELO~1\AppData\Local\Temp\ccc8EdiN.s 			page 15


 799 0231 3C       		.byte	0x3c
 800 0232 01       		.uleb128 0x1
 801 0233 C1030000 		.4byte	.LASF38
 802 0237 E004     		.2byte	0x4e0
 803 0239 10       		.byte	0x10
 804 023a 97000000 		.4byte	0x97
 805 023e 40       		.byte	0x40
 806 023f 01       		.uleb128 0x1
 807 0240 CC040000 		.4byte	.LASF39
 808 0244 E104     		.2byte	0x4e1
 809 0246 10       		.byte	0x10
 810 0247 97000000 		.4byte	0x97
 811 024b 44       		.byte	0x44
 812 024c 01       		.uleb128 0x1
 813 024d DE030000 		.4byte	.LASF40
 814 0251 E204     		.2byte	0x4e2
 815 0253 10       		.byte	0x10
 816 0254 8B000000 		.4byte	0x8b
 817 0258 48       		.byte	0x48
 818 0259 01       		.uleb128 0x1
 819 025a 86030000 		.4byte	.LASF41
 820 025e E304     		.2byte	0x4e3
 821 0260 11       		.byte	0x11
 822 0261 97000000 		.4byte	0x97
 823 0265 4C       		.byte	0x4c
 824 0266 01       		.uleb128 0x1
 825 0267 2A040000 		.4byte	.LASF42
 826 026b E404     		.2byte	0x4e4
 827 026d 11       		.byte	0x11
 828 026e 97000000 		.4byte	0x97
 829 0272 50       		.byte	0x50
 830 0273 01       		.uleb128 0x1
 831 0274 47000000 		.4byte	.LASF43
 832 0278 E504     		.2byte	0x4e5
 833 027a 11       		.byte	0x11
 834 027b 97000000 		.4byte	0x97
 835 027f 54       		.byte	0x54
 836 0280 01       		.uleb128 0x1
 837 0281 93000000 		.4byte	.LASF44
 838 0285 E604     		.2byte	0x4e6
 839 0287 11       		.byte	0x11
 840 0288 97000000 		.4byte	0x97
 841 028c 58       		.byte	0x58
 842 028d 01       		.uleb128 0x1
 843 028e E8030000 		.4byte	.LASF45
 844 0292 E704     		.2byte	0x4e7
 845 0294 10       		.byte	0x10
 846 0295 8B000000 		.4byte	0x8b
 847 0299 5C       		.byte	0x5c
 848 029a 01       		.uleb128 0x1
 849 029b D5010000 		.4byte	.LASF46
 850 029f E804     		.2byte	0x4e8
 851 02a1 11       		.byte	0x11
 852 02a2 97000000 		.4byte	0x97
 853 02a6 60       		.byte	0x60
 854 02a7 01       		.uleb128 0x1
 855 02a8 25040000 		.4byte	.LASF47
ARM GAS  C:\Users\DEVELO~1\AppData\Local\Temp\ccc8EdiN.s 			page 16


 856 02ac E904     		.2byte	0x4e9
 857 02ae 11       		.byte	0x11
 858 02af 97000000 		.4byte	0x97
 859 02b3 64       		.byte	0x64
 860 02b4 01       		.uleb128 0x1
 861 02b5 AB000000 		.4byte	.LASF48
 862 02b9 EA04     		.2byte	0x4ea
 863 02bb 11       		.byte	0x11
 864 02bc 97000000 		.4byte	0x97
 865 02c0 68       		.byte	0x68
 866 02c1 01       		.uleb128 0x1
 867 02c2 88010000 		.4byte	.LASF49
 868 02c6 EB04     		.2byte	0x4eb
 869 02c8 0F       		.byte	0xf
 870 02c9 8B000000 		.4byte	0x8b
 871 02cd 6C       		.byte	0x6c
 872 02ce 01       		.uleb128 0x1
 873 02cf 7B000000 		.4byte	.LASF50
 874 02d3 EC04     		.2byte	0x4ec
 875 02d5 11       		.byte	0x11
 876 02d6 97000000 		.4byte	0x97
 877 02da 70       		.byte	0x70
 878 02db 0C       		.uleb128 0xc
 879 02dc 43535200 		.ascii	"CSR\000"
 880 02e0 ED04     		.2byte	0x4ed
 881 02e2 11       		.byte	0x11
 882 02e3 97000000 		.4byte	0x97
 883 02e7 74       		.byte	0x74
 884 02e8 01       		.uleb128 0x1
 885 02e9 92010000 		.4byte	.LASF51
 886 02ed EE04     		.2byte	0x4ee
 887 02ef 0F       		.byte	0xf
 888 02f0 8B000000 		.4byte	0x8b
 889 02f4 78       		.byte	0x78
 890 02f5 01       		.uleb128 0x1
 891 02f6 77040000 		.4byte	.LASF52
 892 02fa EF04     		.2byte	0x4ef
 893 02fc 10       		.byte	0x10
 894 02fd 97000000 		.4byte	0x97
 895 0301 7C       		.byte	0x7c
 896 0302 01       		.uleb128 0x1
 897 0303 68040000 		.4byte	.LASF53
 898 0307 F004     		.2byte	0x4f0
 899 0309 10       		.byte	0x10
 900 030a 97000000 		.4byte	0x97
 901 030e 80       		.byte	0x80
 902 030f 01       		.uleb128 0x1
 903 0310 E0020000 		.4byte	.LASF54
 904 0314 F104     		.2byte	0x4f1
 905 0316 10       		.byte	0x10
 906 0317 97000000 		.4byte	0x97
 907 031b 84       		.byte	0x84
 908 031c 01       		.uleb128 0x1
 909 031d C1020000 		.4byte	.LASF55
 910 0321 F204     		.2byte	0x4f2
 911 0323 10       		.byte	0x10
 912 0324 97000000 		.4byte	0x97
ARM GAS  C:\Users\DEVELO~1\AppData\Local\Temp\ccc8EdiN.s 			page 17


 913 0328 88       		.byte	0x88
 914 0329 01       		.uleb128 0x1
 915 032a F2030000 		.4byte	.LASF56
 916 032e F304     		.2byte	0x4f3
 917 0330 10       		.byte	0x10
 918 0331 97000000 		.4byte	0x97
 919 0335 8C       		.byte	0x8c
 920 0336 01       		.uleb128 0x1
 921 0337 CB010000 		.4byte	.LASF57
 922 033b F404     		.2byte	0x4f4
 923 033d 10       		.byte	0x10
 924 033e 97000000 		.4byte	0x97
 925 0342 90       		.byte	0x90
 926 0343 01       		.uleb128 0x1
 927 0344 55000000 		.4byte	.LASF58
 928 0348 F504     		.2byte	0x4f5
 929 034a 10       		.byte	0x10
 930 034b 97000000 		.4byte	0x97
 931 034f 94       		.byte	0x94
 932 0350 01       		.uleb128 0x1
 933 0351 F8010000 		.4byte	.LASF59
 934 0355 F604     		.2byte	0x4f6
 935 0357 10       		.byte	0x10
 936 0358 97000000 		.4byte	0x97
 937 035c 98       		.byte	0x98
 938 035d 01       		.uleb128 0x1
 939 035e 72000000 		.4byte	.LASF60
 940 0362 F704     		.2byte	0x4f7
 941 0364 10       		.byte	0x10
 942 0365 97000000 		.4byte	0x97
 943 0369 9C       		.byte	0x9c
 944 036a 0C       		.uleb128 0xc
 945 036b 47435200 		.ascii	"GCR\000"
 946 036f F804     		.2byte	0x4f8
 947 0371 10       		.byte	0x10
 948 0372 97000000 		.4byte	0x97
 949 0376 A0       		.byte	0xa0
 950 0377 01       		.uleb128 0x1
 951 0378 0D040000 		.4byte	.LASF61
 952 037c F904     		.2byte	0x4f9
 953 037e 0F       		.byte	0xf
 954 037f 8B000000 		.4byte	0x8b
 955 0383 A4       		.byte	0xa4
 956 0384 01       		.uleb128 0x1
 957 0385 45020000 		.4byte	.LASF62
 958 0389 FA04     		.2byte	0x4fa
 959 038b 10       		.byte	0x10
 960 038c 97000000 		.4byte	0x97
 961 0390 A8       		.byte	0xa8
 962 0391 01       		.uleb128 0x1
 963 0392 6C020000 		.4byte	.LASF63
 964 0396 FB04     		.2byte	0x4fb
 965 0398 0F       		.byte	0xf
 966 0399 F1000000 		.4byte	0xf1
 967 039d AC       		.byte	0xac
 968 039e 0C       		.uleb128 0xc
 969 039f 52535200 		.ascii	"RSR\000"
ARM GAS  C:\Users\DEVELO~1\AppData\Local\Temp\ccc8EdiN.s 			page 18


 970 03a3 FC04     		.2byte	0x4fc
 971 03a5 10       		.byte	0x10
 972 03a6 97000000 		.4byte	0x97
 973 03aa D0       		.byte	0xd0
 974 03ab 01       		.uleb128 0x1
 975 03ac B9010000 		.4byte	.LASF64
 976 03b0 FD04     		.2byte	0x4fd
 977 03b2 10       		.byte	0x10
 978 03b3 97000000 		.4byte	0x97
 979 03b7 D4       		.byte	0xd4
 980 03b8 01       		.uleb128 0x1
 981 03b9 38040000 		.4byte	.LASF65
 982 03bd FE04     		.2byte	0x4fe
 983 03bf 10       		.byte	0x10
 984 03c0 97000000 		.4byte	0x97
 985 03c4 D8       		.byte	0xd8
 986 03c5 01       		.uleb128 0x1
 987 03c6 A8010000 		.4byte	.LASF66
 988 03ca FF04     		.2byte	0x4ff
 989 03cc 10       		.byte	0x10
 990 03cd 97000000 		.4byte	0x97
 991 03d1 DC       		.byte	0xdc
 992 03d2 01       		.uleb128 0x1
 993 03d3 50030000 		.4byte	.LASF67
 994 03d7 0005     		.2byte	0x500
 995 03d9 10       		.byte	0x10
 996 03da 97000000 		.4byte	0x97
 997 03de E0       		.byte	0xe0
 998 03df 01       		.uleb128 0x1
 999 03e0 17040000 		.4byte	.LASF68
 1000 03e4 0105     		.2byte	0x501
 1001 03e6 10       		.byte	0x10
 1002 03e7 97000000 		.4byte	0x97
 1003 03eb E4       		.byte	0xe4
 1004 03ec 01       		.uleb128 0x1
 1005 03ed 8A020000 		.4byte	.LASF69
 1006 03f1 0205     		.2byte	0x502
 1007 03f3 10       		.byte	0x10
 1008 03f4 97000000 		.4byte	0x97
 1009 03f8 E8       		.byte	0xe8
 1010 03f9 01       		.uleb128 0x1
 1011 03fa 4B020000 		.4byte	.LASF70
 1012 03fe 0305     		.2byte	0x503
 1013 0400 10       		.byte	0x10
 1014 0401 97000000 		.4byte	0x97
 1015 0405 EC       		.byte	0xec
 1016 0406 01       		.uleb128 0x1
 1017 0407 82020000 		.4byte	.LASF71
 1018 040b 0405     		.2byte	0x504
 1019 040d 10       		.byte	0x10
 1020 040e 97000000 		.4byte	0x97
 1021 0412 F0       		.byte	0xf0
 1022 0413 01       		.uleb128 0x1
 1023 0414 15000000 		.4byte	.LASF72
 1024 0418 0505     		.2byte	0x505
 1025 041a 10       		.byte	0x10
 1026 041b 97000000 		.4byte	0x97
ARM GAS  C:\Users\DEVELO~1\AppData\Local\Temp\ccc8EdiN.s 			page 19


 1027 041f F4       		.byte	0xf4
 1028 0420 01       		.uleb128 0x1
 1029 0421 77020000 		.4byte	.LASF73
 1030 0425 0605     		.2byte	0x506
 1031 0427 10       		.byte	0x10
 1032 0428 8B000000 		.4byte	0x8b
 1033 042c F8       		.byte	0xf8
 1034 042d 01       		.uleb128 0x1
 1035 042e 65010000 		.4byte	.LASF74
 1036 0432 0705     		.2byte	0x507
 1037 0434 10       		.byte	0x10
 1038 0435 97000000 		.4byte	0x97
 1039 0439 FC       		.byte	0xfc
 1040 043a 04       		.uleb128 0x4
 1041 043b 3F030000 		.4byte	.LASF75
 1042 043f 0805     		.2byte	0x508
 1043 0441 10       		.byte	0x10
 1044 0442 97000000 		.4byte	0x97
 1045 0446 0001     		.2byte	0x100
 1046 0448 04       		.uleb128 0x4
 1047 0449 B7030000 		.4byte	.LASF76
 1048 044d 0905     		.2byte	0x509
 1049 044f 10       		.byte	0x10
 1050 0450 97000000 		.4byte	0x97
 1051 0454 0401     		.2byte	0x104
 1052 0456 04       		.uleb128 0x4
 1053 0457 94030000 		.4byte	.LASF77
 1054 045b 0A05     		.2byte	0x50a
 1055 045d 10       		.byte	0x10
 1056 045e 97000000 		.4byte	0x97
 1057 0462 0801     		.2byte	0x108
 1058 0464 04       		.uleb128 0x4
 1059 0465 2F020000 		.4byte	.LASF78
 1060 0469 0B05     		.2byte	0x50b
 1061 046b 10       		.byte	0x10
 1062 046c 97000000 		.4byte	0x97
 1063 0470 0C01     		.2byte	0x10c
 1064 0472 04       		.uleb128 0x4
 1065 0473 0A000000 		.4byte	.LASF79
 1066 0477 0C05     		.2byte	0x50c
 1067 0479 10       		.byte	0x10
 1068 047a 97000000 		.4byte	0x97
 1069 047e 1001     		.2byte	0x110
 1070 0480 04       		.uleb128 0x4
 1071 0481 3C000000 		.4byte	.LASF80
 1072 0485 0D05     		.2byte	0x50d
 1073 0487 10       		.byte	0x10
 1074 0488 97000000 		.4byte	0x97
 1075 048c 1401     		.2byte	0x114
 1076 048e 04       		.uleb128 0x4
 1077 048f B2040000 		.4byte	.LASF81
 1078 0493 0E05     		.2byte	0x50e
 1079 0495 10       		.byte	0x10
 1080 0496 97000000 		.4byte	0x97
 1081 049a 1801     		.2byte	0x118
 1082 049c 04       		.uleb128 0x4
 1083 049d A8040000 		.4byte	.LASF82
ARM GAS  C:\Users\DEVELO~1\AppData\Local\Temp\ccc8EdiN.s 			page 20


 1084 04a1 0F05     		.2byte	0x50f
 1085 04a3 10       		.byte	0x10
 1086 04a4 97000000 		.4byte	0x97
 1087 04a8 1C01     		.2byte	0x11c
 1088 04aa 04       		.uleb128 0x4
 1089 04ab 13020000 		.4byte	.LASF83
 1090 04af 1005     		.2byte	0x510
 1091 04b1 0F       		.byte	0xf
 1092 04b2 CC000000 		.4byte	0xcc
 1093 04b6 2001     		.2byte	0x120
 1094 04b8 00       		.byte	0
 1095 04b9 12       		.uleb128 0x12
 1096 04ba EC010000 		.4byte	.LASF84
 1097 04be 1205     		.2byte	0x512
 1098 04c0 58010000 		.4byte	0x158
 1099 04c4 03       		.uleb128 0x3
 1100 04c5 01       		.byte	0x1
 1101 04c6 02       		.byte	0x2
 1102 04c7 8E030000 		.4byte	.LASF85
 1103 04cb 1A       		.uleb128 0x1a
 1104 04cc 80000000 		.4byte	.LASF95
 1105 04d0 06       		.byte	0x6
 1106 04d1 4201     		.2byte	0x142
 1107 04d3 08       		.byte	0x8
 1108 04d4 DE040000 		.4byte	0x4de
 1109 04d8 1B       		.uleb128 0x1b
 1110 04d9 B4000000 		.4byte	0xb4
 1111 04dd 00       		.byte	0
 1112 04de 1C       		.uleb128 0x1c
 1113 04df 40040000 		.4byte	.LASF96
 1114 04e3 01       		.byte	0x1
 1115 04e4 41       		.byte	0x41
 1116 04e5 06       		.byte	0x6
 1117 04e6 C4040000 		.4byte	0x4c4
 1118 04ea 00000000 		.4byte	.LFB434
 1119 04ee 24010000 		.4byte	.LFE434-.LFB434
 1120 04f2 01       		.uleb128 0x1
 1121 04f3 9C       		.byte	0x9c
 1122 04f4 BC080000 		.4byte	0x8bc
 1123 04f8 1D       		.uleb128 0x1d
 1124 04f9 A3010000 		.4byte	.LASF86
 1125 04fd 01       		.byte	0x1
 1126 04fe 50       		.byte	0x50
 1127 04ff 12       		.byte	0x12
 1128 0500 9C000000 		.4byte	0x9c
 1129 0504 5919     		.2byte	0x1959
 1130 0506 1E       		.uleb128 0x1e
 1131 0507 57040000 		.4byte	.LASF87
 1132 050b 01       		.byte	0x1
 1133 050c 59       		.byte	0x59
 1134 050d 12       		.byte	0x12
 1135 050e 9C000000 		.4byte	0x9c
 1136 0512 71552202 		.4byte	0x2225571
 1137 0516 1F       		.uleb128 0x1f
 1138 0517 1F040000 		.4byte	.LASF97
 1139 051b 01       		.byte	0x1
 1140 051c 7C       		.byte	0x7c
ARM GAS  C:\Users\DEVELO~1\AppData\Local\Temp\ccc8EdiN.s 			page 21


 1141 051d 0C       		.byte	0xc
 1142 051e 8B000000 		.4byte	0x8b
 1143 0522 12000000 		.4byte	.LLST0
 1144 0526 0C000000 		.4byte	.LVUS0
 1145 052a 0D       		.uleb128 0xd
 1146 052b BC080000 		.4byte	0x8bc
 1147 052f 2E000000 		.4byte	.LBI60
 1148 0533 01       		.byte	.LVU20
 1149 0534 2E000000 		.4byte	.LBB60
 1150 0538 26000000 		.4byte	.LBE60-.LBB60
 1151 053c 66       		.byte	0x66
 1152 053d F3050000 		.4byte	0x5f3
 1153 0541 02       		.uleb128 0x2
 1154 0542 E3080000 		.4byte	0x8e3
 1155 0546 29000000 		.4byte	.LLST1
 1156 054a 27000000 		.4byte	.LVUS1
 1157 054e 02       		.uleb128 0x2
 1158 054f D8080000 		.4byte	0x8d8
 1159 0553 29000000 		.4byte	.LLST1
 1160 0557 27000000 		.4byte	.LVUS1
 1161 055b 02       		.uleb128 0x2
 1162 055c CD080000 		.4byte	0x8cd
 1163 0560 35000000 		.4byte	.LLST3
 1164 0564 33000000 		.4byte	.LVUS3
 1165 0568 13       		.uleb128 0x13
 1166 0569 EE080000 		.4byte	0x8ee
 1167 056d 41000000 		.4byte	.LLST4
 1168 0571 3F000000 		.4byte	.LVUS4
 1169 0575 0D       		.uleb128 0xd
 1170 0576 FB080000 		.4byte	0x8fb
 1171 057a 2E000000 		.4byte	.LBI62
 1172 057e 04       		.byte	.LVU23
 1173 057f 2E000000 		.4byte	.LBB62
 1174 0583 10000000 		.4byte	.LBE62-.LBB62
 1175 0587 39       		.byte	0x39
 1176 0588 9A050000 		.4byte	0x59a
 1177 058c 02       		.uleb128 0x2
 1178 058d 08090000 		.4byte	0x908
 1179 0591 53000000 		.4byte	.LLST5
 1180 0595 4B000000 		.4byte	.LVUS5
 1181 0599 00       		.byte	0
 1182 059a 09       		.uleb128 0x9
 1183 059b BC080000 		.4byte	0x8bc
 1184 059f 48000000 		.4byte	.LBI64
 1185 05a3 01       		.byte	.LVU38
 1186 05a4 0C000000 		.4byte	.LLRL6
 1187 05a8 02       		.uleb128 0x2
 1188 05a9 CD080000 		.4byte	0x8cd
 1189 05ad 78000000 		.4byte	.LLST7
 1190 05b1 76000000 		.4byte	.LVUS7
 1191 05b5 02       		.uleb128 0x2
 1192 05b6 D8080000 		.4byte	0x8d8
 1193 05ba 84000000 		.4byte	.LLST8
 1194 05be 82000000 		.4byte	.LVUS8
 1195 05c2 02       		.uleb128 0x2
 1196 05c3 E3080000 		.4byte	0x8e3
 1197 05c7 84000000 		.4byte	.LLST8
ARM GAS  C:\Users\DEVELO~1\AppData\Local\Temp\ccc8EdiN.s 			page 22


 1198 05cb 82000000 		.4byte	.LVUS8
 1199 05cf 0A       		.uleb128 0xa
 1200 05d0 18000000 		.4byte	.LLRL10
 1201 05d4 06       		.uleb128 0x6
 1202 05d5 EE080000 		.4byte	0x8ee
 1203 05d9 0B       		.uleb128 0xb
 1204 05da FB080000 		.4byte	0x8fb
 1205 05de 18000000 		.4byte	.LLRL10
 1206 05e2 02       		.uleb128 0x2
 1207 05e3 08090000 		.4byte	0x908
 1208 05e7 94000000 		.4byte	.LLST11
 1209 05eb 8E000000 		.4byte	.LVUS11
 1210 05ef 00       		.byte	0
 1211 05f0 00       		.byte	0
 1212 05f1 00       		.byte	0
 1213 05f2 00       		.byte	0
 1214 05f3 0D       		.uleb128 0xd
 1215 05f4 BC080000 		.4byte	0x8bc
 1216 05f8 5A000000 		.4byte	.LBI72
 1217 05fc 01       		.byte	.LVU49
 1218 05fd 5A000000 		.4byte	.LBB72
 1219 0601 2C000000 		.4byte	.LBE72-.LBB72
 1220 0605 6C       		.byte	0x6c
 1221 0606 BC060000 		.4byte	0x6bc
 1222 060a 02       		.uleb128 0x2
 1223 060b E3080000 		.4byte	0x8e3
 1224 060f AF000000 		.4byte	.LLST12
 1225 0613 AD000000 		.4byte	.LVUS12
 1226 0617 02       		.uleb128 0x2
 1227 0618 D8080000 		.4byte	0x8d8
 1228 061c AF000000 		.4byte	.LLST12
 1229 0620 AD000000 		.4byte	.LVUS12
 1230 0624 02       		.uleb128 0x2
 1231 0625 CD080000 		.4byte	0x8cd
 1232 0629 BB000000 		.4byte	.LLST14
 1233 062d B9000000 		.4byte	.LVUS14
 1234 0631 13       		.uleb128 0x13
 1235 0632 EE080000 		.4byte	0x8ee
 1236 0636 C7000000 		.4byte	.LLST15
 1237 063a C5000000 		.4byte	.LVUS15
 1238 063e 0D       		.uleb128 0xd
 1239 063f FB080000 		.4byte	0x8fb
 1240 0643 5A000000 		.4byte	.LBI74
 1241 0647 04       		.byte	.LVU52
 1242 0648 5A000000 		.4byte	.LBB74
 1243 064c 12000000 		.4byte	.LBE74-.LBB74
 1244 0650 39       		.byte	0x39
 1245 0651 63060000 		.4byte	0x663
 1246 0655 02       		.uleb128 0x2
 1247 0656 08090000 		.4byte	0x908
 1248 065a D9000000 		.4byte	.LLST16
 1249 065e D1000000 		.4byte	.LVUS16
 1250 0662 00       		.byte	0
 1251 0663 09       		.uleb128 0x9
 1252 0664 BC080000 		.4byte	0x8bc
 1253 0668 76000000 		.4byte	.LBI76
 1254 066c 01       		.byte	.LVU69
ARM GAS  C:\Users\DEVELO~1\AppData\Local\Temp\ccc8EdiN.s 			page 23


 1255 066d 24000000 		.4byte	.LLRL17
 1256 0671 02       		.uleb128 0x2
 1257 0672 CD080000 		.4byte	0x8cd
 1258 0676 FE000000 		.4byte	.LLST18
 1259 067a FC000000 		.4byte	.LVUS18
 1260 067e 02       		.uleb128 0x2
 1261 067f D8080000 		.4byte	0x8d8
 1262 0683 0A010000 		.4byte	.LLST19
 1263 0687 08010000 		.4byte	.LVUS19
 1264 068b 02       		.uleb128 0x2
 1265 068c E3080000 		.4byte	0x8e3
 1266 0690 0A010000 		.4byte	.LLST19
 1267 0694 08010000 		.4byte	.LVUS19
 1268 0698 0A       		.uleb128 0xa
 1269 0699 30000000 		.4byte	.LLRL21
 1270 069d 06       		.uleb128 0x6
 1271 069e EE080000 		.4byte	0x8ee
 1272 06a2 0B       		.uleb128 0xb
 1273 06a3 FB080000 		.4byte	0x8fb
 1274 06a7 30000000 		.4byte	.LLRL21
 1275 06ab 02       		.uleb128 0x2
 1276 06ac 08090000 		.4byte	0x908
 1277 06b0 1A010000 		.4byte	.LLST22
 1278 06b4 14010000 		.4byte	.LVUS22
 1279 06b8 00       		.byte	0
 1280 06b9 00       		.byte	0
 1281 06ba 00       		.byte	0
 1282 06bb 00       		.byte	0
 1283 06bc 08       		.uleb128 0x8
 1284 06bd BC080000 		.4byte	0x8bc
 1285 06c1 86000000 		.4byte	.LBB84
 1286 06c5 28000000 		.4byte	.LBE84-.LBB84
 1287 06c9 70       		.byte	0x70
 1288 06ca 5B070000 		.4byte	0x75b
 1289 06ce 05       		.uleb128 0x5
 1290 06cf E3080000 		.4byte	0x8e3
 1291 06d3 05       		.uleb128 0x5
 1292 06d4 D8080000 		.4byte	0x8d8
 1293 06d8 05       		.uleb128 0x5
 1294 06d9 CD080000 		.4byte	0x8cd
 1295 06dd 06       		.uleb128 0x6
 1296 06de EE080000 		.4byte	0x8ee
 1297 06e2 08       		.uleb128 0x8
 1298 06e3 FB080000 		.4byte	0x8fb
 1299 06e7 86000000 		.4byte	.LBB86
 1300 06eb 0E000000 		.4byte	.LBE86-.LBB86
 1301 06ef 39       		.byte	0x39
 1302 06f0 02070000 		.4byte	0x702
 1303 06f4 02       		.uleb128 0x2
 1304 06f5 08090000 		.4byte	0x908
 1305 06f9 39010000 		.4byte	.LLST23
 1306 06fd 33010000 		.4byte	.LVUS23
 1307 0701 00       		.byte	0
 1308 0702 09       		.uleb128 0x9
 1309 0703 BC080000 		.4byte	0x8bc
 1310 0707 9E000000 		.4byte	.LBI88
 1311 070b 01       		.byte	.LVU91
ARM GAS  C:\Users\DEVELO~1\AppData\Local\Temp\ccc8EdiN.s 			page 24


 1312 070c 3C000000 		.4byte	.LLRL24
 1313 0710 02       		.uleb128 0x2
 1314 0711 CD080000 		.4byte	0x8cd
 1315 0715 54010000 		.4byte	.LLST25
 1316 0719 52010000 		.4byte	.LVUS25
 1317 071d 02       		.uleb128 0x2
 1318 071e D8080000 		.4byte	0x8d8
 1319 0722 60010000 		.4byte	.LLST26
 1320 0726 5E010000 		.4byte	.LVUS26
 1321 072a 02       		.uleb128 0x2
 1322 072b E3080000 		.4byte	0x8e3
 1323 072f 6C010000 		.4byte	.LLST27
 1324 0733 6A010000 		.4byte	.LVUS27
 1325 0737 0A       		.uleb128 0xa
 1326 0738 48000000 		.4byte	.LLRL28
 1327 073c 06       		.uleb128 0x6
 1328 073d EE080000 		.4byte	0x8ee
 1329 0741 0B       		.uleb128 0xb
 1330 0742 FB080000 		.4byte	0x8fb
 1331 0746 48000000 		.4byte	.LLRL28
 1332 074a 02       		.uleb128 0x2
 1333 074b 08090000 		.4byte	0x908
 1334 074f 7C010000 		.4byte	.LLST29
 1335 0753 76010000 		.4byte	.LVUS29
 1336 0757 00       		.byte	0
 1337 0758 00       		.byte	0
 1338 0759 00       		.byte	0
 1339 075a 00       		.byte	0
 1340 075b 08       		.uleb128 0x8
 1341 075c BC080000 		.4byte	0x8bc
 1342 0760 AE000000 		.4byte	.LBB96
 1343 0764 28000000 		.4byte	.LBE96-.LBB96
 1344 0768 74       		.byte	0x74
 1345 0769 FA070000 		.4byte	0x7fa
 1346 076d 05       		.uleb128 0x5
 1347 076e E3080000 		.4byte	0x8e3
 1348 0772 05       		.uleb128 0x5
 1349 0773 D8080000 		.4byte	0x8d8
 1350 0777 05       		.uleb128 0x5
 1351 0778 CD080000 		.4byte	0x8cd
 1352 077c 06       		.uleb128 0x6
 1353 077d EE080000 		.4byte	0x8ee
 1354 0781 08       		.uleb128 0x8
 1355 0782 FB080000 		.4byte	0x8fb
 1356 0786 AE000000 		.4byte	.LBB98
 1357 078a 0E000000 		.4byte	.LBE98-.LBB98
 1358 078e 39       		.byte	0x39
 1359 078f A1070000 		.4byte	0x7a1
 1360 0793 02       		.uleb128 0x2
 1361 0794 08090000 		.4byte	0x908
 1362 0798 9B010000 		.4byte	.LLST30
 1363 079c 95010000 		.4byte	.LVUS30
 1364 07a0 00       		.byte	0
 1365 07a1 09       		.uleb128 0x9
 1366 07a2 BC080000 		.4byte	0x8bc
 1367 07a6 C6000000 		.4byte	.LBI100
 1368 07aa 01       		.byte	.LVU113
ARM GAS  C:\Users\DEVELO~1\AppData\Local\Temp\ccc8EdiN.s 			page 25


 1369 07ab 54000000 		.4byte	.LLRL31
 1370 07af 02       		.uleb128 0x2
 1371 07b0 CD080000 		.4byte	0x8cd
 1372 07b4 B6010000 		.4byte	.LLST32
 1373 07b8 B4010000 		.4byte	.LVUS32
 1374 07bc 02       		.uleb128 0x2
 1375 07bd D8080000 		.4byte	0x8d8
 1376 07c1 C2010000 		.4byte	.LLST33
 1377 07c5 C0010000 		.4byte	.LVUS33
 1378 07c9 02       		.uleb128 0x2
 1379 07ca E3080000 		.4byte	0x8e3
 1380 07ce CE010000 		.4byte	.LLST34
 1381 07d2 CC010000 		.4byte	.LVUS34
 1382 07d6 0A       		.uleb128 0xa
 1383 07d7 60000000 		.4byte	.LLRL35
 1384 07db 06       		.uleb128 0x6
 1385 07dc EE080000 		.4byte	0x8ee
 1386 07e0 0B       		.uleb128 0xb
 1387 07e1 FB080000 		.4byte	0x8fb
 1388 07e5 60000000 		.4byte	.LLRL35
 1389 07e9 02       		.uleb128 0x2
 1390 07ea 08090000 		.4byte	0x908
 1391 07ee DE010000 		.4byte	.LLST36
 1392 07f2 D8010000 		.4byte	.LVUS36
 1393 07f6 00       		.byte	0
 1394 07f7 00       		.byte	0
 1395 07f8 00       		.byte	0
 1396 07f9 00       		.byte	0
 1397 07fa 08       		.uleb128 0x8
 1398 07fb BC080000 		.4byte	0x8bc
 1399 07ff D6000000 		.4byte	.LBB108
 1400 0803 24000000 		.4byte	.LBE108-.LBB108
 1401 0807 78       		.byte	0x78
 1402 0808 99080000 		.4byte	0x899
 1403 080c 05       		.uleb128 0x5
 1404 080d E3080000 		.4byte	0x8e3
 1405 0811 05       		.uleb128 0x5
 1406 0812 D8080000 		.4byte	0x8d8
 1407 0816 05       		.uleb128 0x5
 1408 0817 CD080000 		.4byte	0x8cd
 1409 081b 06       		.uleb128 0x6
 1410 081c EE080000 		.4byte	0x8ee
 1411 0820 08       		.uleb128 0x8
 1412 0821 FB080000 		.4byte	0x8fb
 1413 0825 D6000000 		.4byte	.LBB110
 1414 0829 0E000000 		.4byte	.LBE110-.LBB110
 1415 082d 39       		.byte	0x39
 1416 082e 40080000 		.4byte	0x840
 1417 0832 02       		.uleb128 0x2
 1418 0833 08090000 		.4byte	0x908
 1419 0837 FD010000 		.4byte	.LLST37
 1420 083b F7010000 		.4byte	.LVUS37
 1421 083f 00       		.byte	0
 1422 0840 09       		.uleb128 0x9
 1423 0841 BC080000 		.4byte	0x8bc
 1424 0845 EE000000 		.4byte	.LBI112
 1425 0849 01       		.byte	.LVU135
ARM GAS  C:\Users\DEVELO~1\AppData\Local\Temp\ccc8EdiN.s 			page 26


 1426 084a 6C000000 		.4byte	.LLRL38
 1427 084e 02       		.uleb128 0x2
 1428 084f CD080000 		.4byte	0x8cd
 1429 0853 18020000 		.4byte	.LLST39
 1430 0857 16020000 		.4byte	.LVUS39
 1431 085b 02       		.uleb128 0x2
 1432 085c D8080000 		.4byte	0x8d8
 1433 0860 24020000 		.4byte	.LLST40
 1434 0864 22020000 		.4byte	.LVUS40
 1435 0868 02       		.uleb128 0x2
 1436 0869 E3080000 		.4byte	0x8e3
 1437 086d 30020000 		.4byte	.LLST41
 1438 0871 2E020000 		.4byte	.LVUS41
 1439 0875 0A       		.uleb128 0xa
 1440 0876 78000000 		.4byte	.LLRL42
 1441 087a 06       		.uleb128 0x6
 1442 087b EE080000 		.4byte	0x8ee
 1443 087f 0B       		.uleb128 0xb
 1444 0880 FB080000 		.4byte	0x8fb
 1445 0884 78000000 		.4byte	.LLRL42
 1446 0888 02       		.uleb128 0x2
 1447 0889 08090000 		.4byte	0x908
 1448 088d 42020000 		.4byte	.LLST43
 1449 0891 3C020000 		.4byte	.LVUS43
 1450 0895 00       		.byte	0
 1451 0896 00       		.byte	0
 1452 0897 00       		.byte	0
 1453 0898 00       		.byte	0
 1454 0899 20       		.uleb128 0x20
 1455 089a 2E000000 		.4byte	.LVL1
 1456 089e CB040000 		.4byte	0x4cb
 1457 08a2 AC080000 		.4byte	0x8ac
 1458 08a6 14       		.uleb128 0x14
 1459 08a7 01       		.uleb128 0x1
 1460 08a8 50       		.byte	0x50
 1461 08a9 01       		.uleb128 0x1
 1462 08aa 32       		.byte	0x32
 1463 08ab 00       		.byte	0
 1464 08ac 21       		.uleb128 0x21
 1465 08ad 5A000000 		.4byte	.LVL11
 1466 08b1 CB040000 		.4byte	0x4cb
 1467 08b5 14       		.uleb128 0x14
 1468 08b6 01       		.uleb128 0x1
 1469 08b7 50       		.byte	0x50
 1470 08b8 01       		.uleb128 0x1
 1471 08b9 3A       		.byte	0x3a
 1472 08ba 00       		.byte	0
 1473 08bb 00       		.byte	0
 1474 08bc 22       		.uleb128 0x22
 1475 08bd 01020000 		.4byte	.LASF98
 1476 08c1 01       		.byte	0x1
 1477 08c2 31       		.byte	0x31
 1478 08c3 0D       		.byte	0xd
 1479 08c4 C4040000 		.4byte	0x4c4
 1480 08c8 01       		.byte	0x1
 1481 08c9 FB080000 		.4byte	0x8fb
 1482 08cd 0E       		.uleb128 0xe
ARM GAS  C:\Users\DEVELO~1\AppData\Local\Temp\ccc8EdiN.s 			page 27


 1483 08ce A6000000 		.4byte	.LASF88
 1484 08d2 31       		.byte	0x31
 1485 08d3 28       		.byte	0x28
 1486 08d4 8B000000 		.4byte	0x8b
 1487 08d8 0E       		.uleb128 0xe
 1488 08d9 94040000 		.4byte	.LASF89
 1489 08dd 31       		.byte	0x31
 1490 08de 37       		.byte	0x37
 1491 08df 8B000000 		.4byte	0x8b
 1492 08e3 0E       		.uleb128 0xe
 1493 08e4 1E020000 		.4byte	.LASF90
 1494 08e8 31       		.byte	0x31
 1495 08e9 4E       		.byte	0x4e
 1496 08ea 8B000000 		.4byte	0x8b
 1497 08ee 23       		.uleb128 0x23
 1498 08ef BC040000 		.4byte	.LASF99
 1499 08f3 01       		.byte	0x1
 1500 08f4 33       		.byte	0x33
 1501 08f5 12       		.byte	0x12
 1502 08f6 9C000000 		.4byte	0x9c
 1503 08fa 00       		.byte	0
 1504 08fb 24       		.uleb128 0x24
 1505 08fc 80040000 		.4byte	.LASF100
 1506 0900 01       		.byte	0x1
 1507 0901 26       		.byte	0x26
 1508 0902 0D       		.byte	0xd
 1509 0903 C4040000 		.4byte	0x4c4
 1510 0907 01       		.byte	0x1
 1511 0908 0E       		.uleb128 0xe
 1512 0909 C4040000 		.4byte	.LASF91
 1513 090d 26       		.byte	0x26
 1514 090e 2A       		.byte	0x2a
 1515 090f 8B000000 		.4byte	0x8b
 1516 0913 00       		.byte	0
 1517 0914 00       		.byte	0
 1518              		.section	.debug_abbrev,"",%progbits
 1519              	.Ldebug_abbrev0:
 1520 0000 01       		.uleb128 0x1
 1521 0001 0D       		.uleb128 0xd
 1522 0002 00       		.byte	0
 1523 0003 03       		.uleb128 0x3
 1524 0004 0E       		.uleb128 0xe
 1525 0005 3A       		.uleb128 0x3a
 1526 0006 21       		.uleb128 0x21
 1527 0007 05       		.sleb128 5
 1528 0008 3B       		.uleb128 0x3b
 1529 0009 05       		.uleb128 0x5
 1530 000a 39       		.uleb128 0x39
 1531 000b 0B       		.uleb128 0xb
 1532 000c 49       		.uleb128 0x49
 1533 000d 13       		.uleb128 0x13
 1534 000e 38       		.uleb128 0x38
 1535 000f 0B       		.uleb128 0xb
 1536 0010 00       		.byte	0
 1537 0011 00       		.byte	0
 1538 0012 02       		.uleb128 0x2
 1539 0013 05       		.uleb128 0x5
ARM GAS  C:\Users\DEVELO~1\AppData\Local\Temp\ccc8EdiN.s 			page 28


 1540 0014 00       		.byte	0
 1541 0015 31       		.uleb128 0x31
 1542 0016 13       		.uleb128 0x13
 1543 0017 02       		.uleb128 0x2
 1544 0018 17       		.uleb128 0x17
 1545 0019 B742     		.uleb128 0x2137
 1546 001b 17       		.uleb128 0x17
 1547 001c 00       		.byte	0
 1548 001d 00       		.byte	0
 1549 001e 03       		.uleb128 0x3
 1550 001f 24       		.uleb128 0x24
 1551 0020 00       		.byte	0
 1552 0021 0B       		.uleb128 0xb
 1553 0022 0B       		.uleb128 0xb
 1554 0023 3E       		.uleb128 0x3e
 1555 0024 0B       		.uleb128 0xb
 1556 0025 03       		.uleb128 0x3
 1557 0026 0E       		.uleb128 0xe
 1558 0027 00       		.byte	0
 1559 0028 00       		.byte	0
 1560 0029 04       		.uleb128 0x4
 1561 002a 0D       		.uleb128 0xd
 1562 002b 00       		.byte	0
 1563 002c 03       		.uleb128 0x3
 1564 002d 0E       		.uleb128 0xe
 1565 002e 3A       		.uleb128 0x3a
 1566 002f 21       		.uleb128 0x21
 1567 0030 05       		.sleb128 5
 1568 0031 3B       		.uleb128 0x3b
 1569 0032 05       		.uleb128 0x5
 1570 0033 39       		.uleb128 0x39
 1571 0034 0B       		.uleb128 0xb
 1572 0035 49       		.uleb128 0x49
 1573 0036 13       		.uleb128 0x13
 1574 0037 38       		.uleb128 0x38
 1575 0038 05       		.uleb128 0x5
 1576 0039 00       		.byte	0
 1577 003a 00       		.byte	0
 1578 003b 05       		.uleb128 0x5
 1579 003c 05       		.uleb128 0x5
 1580 003d 00       		.byte	0
 1581 003e 31       		.uleb128 0x31
 1582 003f 13       		.uleb128 0x13
 1583 0040 00       		.byte	0
 1584 0041 00       		.byte	0
 1585 0042 06       		.uleb128 0x6
 1586 0043 34       		.uleb128 0x34
 1587 0044 00       		.byte	0
 1588 0045 31       		.uleb128 0x31
 1589 0046 13       		.uleb128 0x13
 1590 0047 00       		.byte	0
 1591 0048 00       		.byte	0
 1592 0049 07       		.uleb128 0x7
 1593 004a 16       		.uleb128 0x16
 1594 004b 00       		.byte	0
 1595 004c 03       		.uleb128 0x3
 1596 004d 0E       		.uleb128 0xe
ARM GAS  C:\Users\DEVELO~1\AppData\Local\Temp\ccc8EdiN.s 			page 29


 1597 004e 3A       		.uleb128 0x3a
 1598 004f 0B       		.uleb128 0xb
 1599 0050 3B       		.uleb128 0x3b
 1600 0051 0B       		.uleb128 0xb
 1601 0052 39       		.uleb128 0x39
 1602 0053 0B       		.uleb128 0xb
 1603 0054 49       		.uleb128 0x49
 1604 0055 13       		.uleb128 0x13
 1605 0056 00       		.byte	0
 1606 0057 00       		.byte	0
 1607 0058 08       		.uleb128 0x8
 1608 0059 1D       		.uleb128 0x1d
 1609 005a 01       		.byte	0x1
 1610 005b 31       		.uleb128 0x31
 1611 005c 13       		.uleb128 0x13
 1612 005d 11       		.uleb128 0x11
 1613 005e 01       		.uleb128 0x1
 1614 005f 12       		.uleb128 0x12
 1615 0060 06       		.uleb128 0x6
 1616 0061 58       		.uleb128 0x58
 1617 0062 21       		.uleb128 0x21
 1618 0063 01       		.sleb128 1
 1619 0064 59       		.uleb128 0x59
 1620 0065 0B       		.uleb128 0xb
 1621 0066 57       		.uleb128 0x57
 1622 0067 21       		.uleb128 0x21
 1623 0068 08       		.sleb128 8
 1624 0069 01       		.uleb128 0x1
 1625 006a 13       		.uleb128 0x13
 1626 006b 00       		.byte	0
 1627 006c 00       		.byte	0
 1628 006d 09       		.uleb128 0x9
 1629 006e 1D       		.uleb128 0x1d
 1630 006f 01       		.byte	0x1
 1631 0070 31       		.uleb128 0x31
 1632 0071 13       		.uleb128 0x13
 1633 0072 52       		.uleb128 0x52
 1634 0073 01       		.uleb128 0x1
 1635 0074 B842     		.uleb128 0x2138
 1636 0076 0B       		.uleb128 0xb
 1637 0077 55       		.uleb128 0x55
 1638 0078 17       		.uleb128 0x17
 1639 0079 58       		.uleb128 0x58
 1640 007a 21       		.uleb128 0x21
 1641 007b 01       		.sleb128 1
 1642 007c 59       		.uleb128 0x59
 1643 007d 21       		.uleb128 0x21
 1644 007e 31       		.sleb128 49
 1645 007f 57       		.uleb128 0x57
 1646 0080 21       		.uleb128 0x21
 1647 0081 0D       		.sleb128 13
 1648 0082 00       		.byte	0
 1649 0083 00       		.byte	0
 1650 0084 0A       		.uleb128 0xa
 1651 0085 0B       		.uleb128 0xb
 1652 0086 01       		.byte	0x1
 1653 0087 55       		.uleb128 0x55
ARM GAS  C:\Users\DEVELO~1\AppData\Local\Temp\ccc8EdiN.s 			page 30


 1654 0088 17       		.uleb128 0x17
 1655 0089 00       		.byte	0
 1656 008a 00       		.byte	0
 1657 008b 0B       		.uleb128 0xb
 1658 008c 1D       		.uleb128 0x1d
 1659 008d 01       		.byte	0x1
 1660 008e 31       		.uleb128 0x31
 1661 008f 13       		.uleb128 0x13
 1662 0090 55       		.uleb128 0x55
 1663 0091 17       		.uleb128 0x17
 1664 0092 58       		.uleb128 0x58
 1665 0093 21       		.uleb128 0x21
 1666 0094 01       		.sleb128 1
 1667 0095 59       		.uleb128 0x59
 1668 0096 21       		.uleb128 0x21
 1669 0097 3E       		.sleb128 62
 1670 0098 57       		.uleb128 0x57
 1671 0099 21       		.uleb128 0x21
 1672 009a 0A       		.sleb128 10
 1673 009b 00       		.byte	0
 1674 009c 00       		.byte	0
 1675 009d 0C       		.uleb128 0xc
 1676 009e 0D       		.uleb128 0xd
 1677 009f 00       		.byte	0
 1678 00a0 03       		.uleb128 0x3
 1679 00a1 08       		.uleb128 0x8
 1680 00a2 3A       		.uleb128 0x3a
 1681 00a3 21       		.uleb128 0x21
 1682 00a4 05       		.sleb128 5
 1683 00a5 3B       		.uleb128 0x3b
 1684 00a6 05       		.uleb128 0x5
 1685 00a7 39       		.uleb128 0x39
 1686 00a8 0B       		.uleb128 0xb
 1687 00a9 49       		.uleb128 0x49
 1688 00aa 13       		.uleb128 0x13
 1689 00ab 38       		.uleb128 0x38
 1690 00ac 0B       		.uleb128 0xb
 1691 00ad 00       		.byte	0
 1692 00ae 00       		.byte	0
 1693 00af 0D       		.uleb128 0xd
 1694 00b0 1D       		.uleb128 0x1d
 1695 00b1 01       		.byte	0x1
 1696 00b2 31       		.uleb128 0x31
 1697 00b3 13       		.uleb128 0x13
 1698 00b4 52       		.uleb128 0x52
 1699 00b5 01       		.uleb128 0x1
 1700 00b6 B842     		.uleb128 0x2138
 1701 00b8 0B       		.uleb128 0xb
 1702 00b9 11       		.uleb128 0x11
 1703 00ba 01       		.uleb128 0x1
 1704 00bb 12       		.uleb128 0x12
 1705 00bc 06       		.uleb128 0x6
 1706 00bd 58       		.uleb128 0x58
 1707 00be 21       		.uleb128 0x21
 1708 00bf 01       		.sleb128 1
 1709 00c0 59       		.uleb128 0x59
 1710 00c1 0B       		.uleb128 0xb
ARM GAS  C:\Users\DEVELO~1\AppData\Local\Temp\ccc8EdiN.s 			page 31


 1711 00c2 57       		.uleb128 0x57
 1712 00c3 21       		.uleb128 0x21
 1713 00c4 08       		.sleb128 8
 1714 00c5 01       		.uleb128 0x1
 1715 00c6 13       		.uleb128 0x13
 1716 00c7 00       		.byte	0
 1717 00c8 00       		.byte	0
 1718 00c9 0E       		.uleb128 0xe
 1719 00ca 05       		.uleb128 0x5
 1720 00cb 00       		.byte	0
 1721 00cc 03       		.uleb128 0x3
 1722 00cd 0E       		.uleb128 0xe
 1723 00ce 3A       		.uleb128 0x3a
 1724 00cf 21       		.uleb128 0x21
 1725 00d0 01       		.sleb128 1
 1726 00d1 3B       		.uleb128 0x3b
 1727 00d2 0B       		.uleb128 0xb
 1728 00d3 39       		.uleb128 0x39
 1729 00d4 0B       		.uleb128 0xb
 1730 00d5 49       		.uleb128 0x49
 1731 00d6 13       		.uleb128 0x13
 1732 00d7 00       		.byte	0
 1733 00d8 00       		.byte	0
 1734 00d9 0F       		.uleb128 0xf
 1735 00da 01       		.uleb128 0x1
 1736 00db 01       		.byte	0x1
 1737 00dc 49       		.uleb128 0x49
 1738 00dd 13       		.uleb128 0x13
 1739 00de 01       		.uleb128 0x1
 1740 00df 13       		.uleb128 0x13
 1741 00e0 00       		.byte	0
 1742 00e1 00       		.byte	0
 1743 00e2 10       		.uleb128 0x10
 1744 00e3 21       		.uleb128 0x21
 1745 00e4 00       		.byte	0
 1746 00e5 49       		.uleb128 0x49
 1747 00e6 13       		.uleb128 0x13
 1748 00e7 2F       		.uleb128 0x2f
 1749 00e8 0B       		.uleb128 0xb
 1750 00e9 00       		.byte	0
 1751 00ea 00       		.byte	0
 1752 00eb 11       		.uleb128 0x11
 1753 00ec 35       		.uleb128 0x35
 1754 00ed 00       		.byte	0
 1755 00ee 49       		.uleb128 0x49
 1756 00ef 13       		.uleb128 0x13
 1757 00f0 00       		.byte	0
 1758 00f1 00       		.byte	0
 1759 00f2 12       		.uleb128 0x12
 1760 00f3 16       		.uleb128 0x16
 1761 00f4 00       		.byte	0
 1762 00f5 03       		.uleb128 0x3
 1763 00f6 0E       		.uleb128 0xe
 1764 00f7 3A       		.uleb128 0x3a
 1765 00f8 21       		.uleb128 0x21
 1766 00f9 05       		.sleb128 5
 1767 00fa 3B       		.uleb128 0x3b
ARM GAS  C:\Users\DEVELO~1\AppData\Local\Temp\ccc8EdiN.s 			page 32


 1768 00fb 05       		.uleb128 0x5
 1769 00fc 39       		.uleb128 0x39
 1770 00fd 21       		.uleb128 0x21
 1771 00fe 03       		.sleb128 3
 1772 00ff 49       		.uleb128 0x49
 1773 0100 13       		.uleb128 0x13
 1774 0101 00       		.byte	0
 1775 0102 00       		.byte	0
 1776 0103 13       		.uleb128 0x13
 1777 0104 34       		.uleb128 0x34
 1778 0105 00       		.byte	0
 1779 0106 31       		.uleb128 0x31
 1780 0107 13       		.uleb128 0x13
 1781 0108 02       		.uleb128 0x2
 1782 0109 17       		.uleb128 0x17
 1783 010a B742     		.uleb128 0x2137
 1784 010c 17       		.uleb128 0x17
 1785 010d 00       		.byte	0
 1786 010e 00       		.byte	0
 1787 010f 14       		.uleb128 0x14
 1788 0110 49       		.uleb128 0x49
 1789 0111 00       		.byte	0
 1790 0112 02       		.uleb128 0x2
 1791 0113 18       		.uleb128 0x18
 1792 0114 7E       		.uleb128 0x7e
 1793 0115 18       		.uleb128 0x18
 1794 0116 00       		.byte	0
 1795 0117 00       		.byte	0
 1796 0118 15       		.uleb128 0x15
 1797 0119 11       		.uleb128 0x11
 1798 011a 01       		.byte	0x1
 1799 011b 25       		.uleb128 0x25
 1800 011c 0E       		.uleb128 0xe
 1801 011d 13       		.uleb128 0x13
 1802 011e 0B       		.uleb128 0xb
 1803 011f 03       		.uleb128 0x3
 1804 0120 0E       		.uleb128 0xe
 1805 0121 1B       		.uleb128 0x1b
 1806 0122 0E       		.uleb128 0xe
 1807 0123 55       		.uleb128 0x55
 1808 0124 17       		.uleb128 0x17
 1809 0125 11       		.uleb128 0x11
 1810 0126 01       		.uleb128 0x1
 1811 0127 10       		.uleb128 0x10
 1812 0128 17       		.uleb128 0x17
 1813 0129 00       		.byte	0
 1814 012a 00       		.byte	0
 1815 012b 16       		.uleb128 0x16
 1816 012c 24       		.uleb128 0x24
 1817 012d 00       		.byte	0
 1818 012e 0B       		.uleb128 0xb
 1819 012f 0B       		.uleb128 0xb
 1820 0130 3E       		.uleb128 0x3e
 1821 0131 0B       		.uleb128 0xb
 1822 0132 03       		.uleb128 0x3
 1823 0133 08       		.uleb128 0x8
 1824 0134 00       		.byte	0
ARM GAS  C:\Users\DEVELO~1\AppData\Local\Temp\ccc8EdiN.s 			page 33


 1825 0135 00       		.byte	0
 1826 0136 17       		.uleb128 0x17
 1827 0137 26       		.uleb128 0x26
 1828 0138 00       		.byte	0
 1829 0139 49       		.uleb128 0x49
 1830 013a 13       		.uleb128 0x13
 1831 013b 00       		.byte	0
 1832 013c 00       		.byte	0
 1833 013d 18       		.uleb128 0x18
 1834 013e 13       		.uleb128 0x13
 1835 013f 01       		.byte	0x1
 1836 0140 0B       		.uleb128 0xb
 1837 0141 0B       		.uleb128 0xb
 1838 0142 3A       		.uleb128 0x3a
 1839 0143 0B       		.uleb128 0xb
 1840 0144 3B       		.uleb128 0x3b
 1841 0145 05       		.uleb128 0x5
 1842 0146 39       		.uleb128 0x39
 1843 0147 0B       		.uleb128 0xb
 1844 0148 01       		.uleb128 0x1
 1845 0149 13       		.uleb128 0x13
 1846 014a 00       		.byte	0
 1847 014b 00       		.byte	0
 1848 014c 19       		.uleb128 0x19
 1849 014d 13       		.uleb128 0x13
 1850 014e 01       		.byte	0x1
 1851 014f 0B       		.uleb128 0xb
 1852 0150 05       		.uleb128 0x5
 1853 0151 3A       		.uleb128 0x3a
 1854 0152 0B       		.uleb128 0xb
 1855 0153 3B       		.uleb128 0x3b
 1856 0154 05       		.uleb128 0x5
 1857 0155 39       		.uleb128 0x39
 1858 0156 0B       		.uleb128 0xb
 1859 0157 01       		.uleb128 0x1
 1860 0158 13       		.uleb128 0x13
 1861 0159 00       		.byte	0
 1862 015a 00       		.byte	0
 1863 015b 1A       		.uleb128 0x1a
 1864 015c 2E       		.uleb128 0x2e
 1865 015d 01       		.byte	0x1
 1866 015e 3F       		.uleb128 0x3f
 1867 015f 19       		.uleb128 0x19
 1868 0160 03       		.uleb128 0x3
 1869 0161 0E       		.uleb128 0xe
 1870 0162 3A       		.uleb128 0x3a
 1871 0163 0B       		.uleb128 0xb
 1872 0164 3B       		.uleb128 0x3b
 1873 0165 05       		.uleb128 0x5
 1874 0166 39       		.uleb128 0x39
 1875 0167 0B       		.uleb128 0xb
 1876 0168 27       		.uleb128 0x27
 1877 0169 19       		.uleb128 0x19
 1878 016a 3C       		.uleb128 0x3c
 1879 016b 19       		.uleb128 0x19
 1880 016c 01       		.uleb128 0x1
 1881 016d 13       		.uleb128 0x13
ARM GAS  C:\Users\DEVELO~1\AppData\Local\Temp\ccc8EdiN.s 			page 34


 1882 016e 00       		.byte	0
 1883 016f 00       		.byte	0
 1884 0170 1B       		.uleb128 0x1b
 1885 0171 05       		.uleb128 0x5
 1886 0172 00       		.byte	0
 1887 0173 49       		.uleb128 0x49
 1888 0174 13       		.uleb128 0x13
 1889 0175 00       		.byte	0
 1890 0176 00       		.byte	0
 1891 0177 1C       		.uleb128 0x1c
 1892 0178 2E       		.uleb128 0x2e
 1893 0179 01       		.byte	0x1
 1894 017a 3F       		.uleb128 0x3f
 1895 017b 19       		.uleb128 0x19
 1896 017c 03       		.uleb128 0x3
 1897 017d 0E       		.uleb128 0xe
 1898 017e 3A       		.uleb128 0x3a
 1899 017f 0B       		.uleb128 0xb
 1900 0180 3B       		.uleb128 0x3b
 1901 0181 0B       		.uleb128 0xb
 1902 0182 39       		.uleb128 0x39
 1903 0183 0B       		.uleb128 0xb
 1904 0184 27       		.uleb128 0x27
 1905 0185 19       		.uleb128 0x19
 1906 0186 49       		.uleb128 0x49
 1907 0187 13       		.uleb128 0x13
 1908 0188 11       		.uleb128 0x11
 1909 0189 01       		.uleb128 0x1
 1910 018a 12       		.uleb128 0x12
 1911 018b 06       		.uleb128 0x6
 1912 018c 40       		.uleb128 0x40
 1913 018d 18       		.uleb128 0x18
 1914 018e 7A       		.uleb128 0x7a
 1915 018f 19       		.uleb128 0x19
 1916 0190 01       		.uleb128 0x1
 1917 0191 13       		.uleb128 0x13
 1918 0192 00       		.byte	0
 1919 0193 00       		.byte	0
 1920 0194 1D       		.uleb128 0x1d
 1921 0195 34       		.uleb128 0x34
 1922 0196 00       		.byte	0
 1923 0197 03       		.uleb128 0x3
 1924 0198 0E       		.uleb128 0xe
 1925 0199 3A       		.uleb128 0x3a
 1926 019a 0B       		.uleb128 0xb
 1927 019b 3B       		.uleb128 0x3b
 1928 019c 0B       		.uleb128 0xb
 1929 019d 39       		.uleb128 0x39
 1930 019e 0B       		.uleb128 0xb
 1931 019f 49       		.uleb128 0x49
 1932 01a0 13       		.uleb128 0x13
 1933 01a1 1C       		.uleb128 0x1c
 1934 01a2 05       		.uleb128 0x5
 1935 01a3 00       		.byte	0
 1936 01a4 00       		.byte	0
 1937 01a5 1E       		.uleb128 0x1e
 1938 01a6 34       		.uleb128 0x34
ARM GAS  C:\Users\DEVELO~1\AppData\Local\Temp\ccc8EdiN.s 			page 35


 1939 01a7 00       		.byte	0
 1940 01a8 03       		.uleb128 0x3
 1941 01a9 0E       		.uleb128 0xe
 1942 01aa 3A       		.uleb128 0x3a
 1943 01ab 0B       		.uleb128 0xb
 1944 01ac 3B       		.uleb128 0x3b
 1945 01ad 0B       		.uleb128 0xb
 1946 01ae 39       		.uleb128 0x39
 1947 01af 0B       		.uleb128 0xb
 1948 01b0 49       		.uleb128 0x49
 1949 01b1 13       		.uleb128 0x13
 1950 01b2 1C       		.uleb128 0x1c
 1951 01b3 06       		.uleb128 0x6
 1952 01b4 00       		.byte	0
 1953 01b5 00       		.byte	0
 1954 01b6 1F       		.uleb128 0x1f
 1955 01b7 34       		.uleb128 0x34
 1956 01b8 00       		.byte	0
 1957 01b9 03       		.uleb128 0x3
 1958 01ba 0E       		.uleb128 0xe
 1959 01bb 3A       		.uleb128 0x3a
 1960 01bc 0B       		.uleb128 0xb
 1961 01bd 3B       		.uleb128 0x3b
 1962 01be 0B       		.uleb128 0xb
 1963 01bf 39       		.uleb128 0x39
 1964 01c0 0B       		.uleb128 0xb
 1965 01c1 49       		.uleb128 0x49
 1966 01c2 13       		.uleb128 0x13
 1967 01c3 02       		.uleb128 0x2
 1968 01c4 17       		.uleb128 0x17
 1969 01c5 B742     		.uleb128 0x2137
 1970 01c7 17       		.uleb128 0x17
 1971 01c8 00       		.byte	0
 1972 01c9 00       		.byte	0
 1973 01ca 20       		.uleb128 0x20
 1974 01cb 48       		.uleb128 0x48
 1975 01cc 01       		.byte	0x1
 1976 01cd 7D       		.uleb128 0x7d
 1977 01ce 01       		.uleb128 0x1
 1978 01cf 7F       		.uleb128 0x7f
 1979 01d0 13       		.uleb128 0x13
 1980 01d1 01       		.uleb128 0x1
 1981 01d2 13       		.uleb128 0x13
 1982 01d3 00       		.byte	0
 1983 01d4 00       		.byte	0
 1984 01d5 21       		.uleb128 0x21
 1985 01d6 48       		.uleb128 0x48
 1986 01d7 01       		.byte	0x1
 1987 01d8 7D       		.uleb128 0x7d
 1988 01d9 01       		.uleb128 0x1
 1989 01da 7F       		.uleb128 0x7f
 1990 01db 13       		.uleb128 0x13
 1991 01dc 00       		.byte	0
 1992 01dd 00       		.byte	0
 1993 01de 22       		.uleb128 0x22
 1994 01df 2E       		.uleb128 0x2e
 1995 01e0 01       		.byte	0x1
ARM GAS  C:\Users\DEVELO~1\AppData\Local\Temp\ccc8EdiN.s 			page 36


 1996 01e1 03       		.uleb128 0x3
 1997 01e2 0E       		.uleb128 0xe
 1998 01e3 3A       		.uleb128 0x3a
 1999 01e4 0B       		.uleb128 0xb
 2000 01e5 3B       		.uleb128 0x3b
 2001 01e6 0B       		.uleb128 0xb
 2002 01e7 39       		.uleb128 0x39
 2003 01e8 0B       		.uleb128 0xb
 2004 01e9 27       		.uleb128 0x27
 2005 01ea 19       		.uleb128 0x19
 2006 01eb 49       		.uleb128 0x49
 2007 01ec 13       		.uleb128 0x13
 2008 01ed 20       		.uleb128 0x20
 2009 01ee 0B       		.uleb128 0xb
 2010 01ef 01       		.uleb128 0x1
 2011 01f0 13       		.uleb128 0x13
 2012 01f1 00       		.byte	0
 2013 01f2 00       		.byte	0
 2014 01f3 23       		.uleb128 0x23
 2015 01f4 34       		.uleb128 0x34
 2016 01f5 00       		.byte	0
 2017 01f6 03       		.uleb128 0x3
 2018 01f7 0E       		.uleb128 0xe
 2019 01f8 3A       		.uleb128 0x3a
 2020 01f9 0B       		.uleb128 0xb
 2021 01fa 3B       		.uleb128 0x3b
 2022 01fb 0B       		.uleb128 0xb
 2023 01fc 39       		.uleb128 0x39
 2024 01fd 0B       		.uleb128 0xb
 2025 01fe 49       		.uleb128 0x49
 2026 01ff 13       		.uleb128 0x13
 2027 0200 00       		.byte	0
 2028 0201 00       		.byte	0
 2029 0202 24       		.uleb128 0x24
 2030 0203 2E       		.uleb128 0x2e
 2031 0204 01       		.byte	0x1
 2032 0205 03       		.uleb128 0x3
 2033 0206 0E       		.uleb128 0xe
 2034 0207 3A       		.uleb128 0x3a
 2035 0208 0B       		.uleb128 0xb
 2036 0209 3B       		.uleb128 0x3b
 2037 020a 0B       		.uleb128 0xb
 2038 020b 39       		.uleb128 0x39
 2039 020c 0B       		.uleb128 0xb
 2040 020d 27       		.uleb128 0x27
 2041 020e 19       		.uleb128 0x19
 2042 020f 49       		.uleb128 0x49
 2043 0210 13       		.uleb128 0x13
 2044 0211 20       		.uleb128 0x20
 2045 0212 0B       		.uleb128 0xb
 2046 0213 00       		.byte	0
 2047 0214 00       		.byte	0
 2048 0215 00       		.byte	0
 2049              		.section	.debug_loclists,"",%progbits
 2050 0000 57020000 		.4byte	.Ldebug_loc3-.Ldebug_loc2
 2051              	.Ldebug_loc2:
 2052 0004 0500     		.2byte	0x5
ARM GAS  C:\Users\DEVELO~1\AppData\Local\Temp\ccc8EdiN.s 			page 37


 2053 0006 04       		.byte	0x4
 2054 0007 00       		.byte	0
 2055 0008 00000000 		.4byte	0
 2056              	.Ldebug_loc0:
 2057              	.LVUS0:
 2058 000c 00       		.uleb128 .LVU146
 2059 000d 00       		.uleb128 .LVU151
 2060 000e 00       		.uleb128 .LVU151
 2061 000f 00       		.uleb128 .LVU153
 2062 0010 00       		.uleb128 .LVU153
 2063 0011 00       		.uleb128 .LVU157
 2064              	.LLST0:
 2065 0012 06       		.byte	0x6
 2066 0013 FC000000 		.4byte	.LVL48
 2067 0017 04       		.byte	0x4
 2068 0018 00       		.uleb128 .LVL48-.LVL48
 2069 0019 0A       		.uleb128 .LVL49-.LVL48
 2070 001a 01       		.uleb128 0x1
 2071 001b 51       		.byte	0x51
 2072 001c 04       		.byte	0x4
 2073 001d 0A       		.uleb128 .LVL49-.LVL48
 2074 001e 0C       		.uleb128 .LVL50-.LVL48
 2075 001f 01       		.uleb128 0x1
 2076 0020 52       		.byte	0x52
 2077 0021 04       		.byte	0x4
 2078 0022 0C       		.uleb128 .LVL50-.LVL48
 2079 0023 10       		.uleb128 .LVL51-.LVL48
 2080 0024 01       		.uleb128 0x1
 2081 0025 53       		.byte	0x53
 2082 0026 00       		.byte	0
 2083              	.LVUS1:
 2084 0027 01       		.uleb128 .LVU20
 2085 0028 00       		.uleb128 .LVU46
 2086              	.LLST1:
 2087 0029 08       		.byte	0x8
 2088 002a 2E000000 		.4byte	.LVL1
 2089 002e 26       		.uleb128 .LVL10-.LVL1
 2090 002f 02       		.uleb128 0x2
 2091 0030 30       		.byte	0x30
 2092 0031 9F       		.byte	0x9f
 2093 0032 00       		.byte	0
 2094              	.LVUS3:
 2095 0033 01       		.uleb128 .LVU20
 2096 0034 00       		.uleb128 .LVU46
 2097              	.LLST3:
 2098 0035 08       		.byte	0x8
 2099 0036 2E000000 		.4byte	.LVL1
 2100 003a 26       		.uleb128 .LVL10-.LVL1
 2101 003b 02       		.uleb128 0x2
 2102 003c 31       		.byte	0x31
 2103 003d 9F       		.byte	0x9f
 2104 003e 00       		.byte	0
 2105              	.LVUS4:
 2106 003f 03       		.uleb128 .LVU22
 2107 0040 00       		.uleb128 .LVU46
 2108              	.LLST4:
 2109 0041 08       		.byte	0x8
ARM GAS  C:\Users\DEVELO~1\AppData\Local\Temp\ccc8EdiN.s 			page 38


 2110 0042 2E000000 		.4byte	.LVL1
 2111 0046 26       		.uleb128 .LVL10-.LVL1
 2112 0047 02       		.uleb128 0x2
 2113 0048 41       		.byte	0x41
 2114 0049 9F       		.byte	0x9f
 2115 004a 00       		.byte	0
 2116              	.LVUS5:
 2117 004b 04       		.uleb128 .LVU23
 2118 004c 00       		.uleb128 .LVU26
 2119 004d 00       		.uleb128 .LVU26
 2120 004e 00       		.uleb128 .LVU27
 2121 004f 00       		.uleb128 .LVU27
 2122 0050 00       		.uleb128 .LVU28
 2123 0051 01       		.uleb128 .LVU29
 2124 0052 00       		.uleb128 .LVU32
 2125              	.LLST5:
 2126 0053 06       		.byte	0x6
 2127 0054 2E000000 		.4byte	.LVL1
 2128 0058 04       		.byte	0x4
 2129 0059 00       		.uleb128 .LVL1-.LVL1
 2130 005a 06       		.uleb128 .LVL2-.LVL1
 2131 005b 06       		.uleb128 0x6
 2132 005c 0C       		.byte	0xc
 2133 005d FFFF0300 		.4byte	0x3ffff
 2134 0061 9F       		.byte	0x9f
 2135 0062 04       		.byte	0x4
 2136 0063 06       		.uleb128 .LVL2-.LVL1
 2137 0064 08       		.uleb128 .LVL3-.LVL1
 2138 0065 03       		.uleb128 0x3
 2139 0066 73       		.byte	0x73
 2140 0067 7F       		.sleb128 -1
 2141 0068 9F       		.byte	0x9f
 2142 0069 04       		.byte	0x4
 2143 006a 08       		.uleb128 .LVL3-.LVL1
 2144 006b 0A       		.uleb128 .LVL4-.LVL1
 2145 006c 01       		.uleb128 0x1
 2146 006d 53       		.byte	0x53
 2147 006e 04       		.byte	0x4
 2148 006f 0A       		.uleb128 .LVL4-.LVL1
 2149 0070 10       		.uleb128 .LVL5-.LVL1
 2150 0071 03       		.uleb128 0x3
 2151 0072 73       		.byte	0x73
 2152 0073 7F       		.sleb128 -1
 2153 0074 9F       		.byte	0x9f
 2154 0075 00       		.byte	0
 2155              	.LVUS7:
 2156 0076 02       		.uleb128 .LVU39
 2157 0077 00       		.uleb128 .LVU46
 2158              	.LLST7:
 2159 0078 08       		.byte	0x8
 2160 0079 48000000 		.4byte	.LVL6
 2161 007d 0C       		.uleb128 .LVL10-.LVL6
 2162 007e 02       		.uleb128 0x2
 2163 007f 31       		.byte	0x31
 2164 0080 9F       		.byte	0x9f
 2165 0081 00       		.byte	0
 2166              	.LVUS8:
ARM GAS  C:\Users\DEVELO~1\AppData\Local\Temp\ccc8EdiN.s 			page 39


 2167 0082 02       		.uleb128 .LVU39
 2168 0083 00       		.uleb128 .LVU46
 2169              	.LLST8:
 2170 0084 08       		.byte	0x8
 2171 0085 48000000 		.4byte	.LVL6
 2172 0089 0C       		.uleb128 .LVL10-.LVL6
 2173 008a 02       		.uleb128 0x2
 2174 008b 30       		.byte	0x30
 2175 008c 9F       		.byte	0x9f
 2176 008d 00       		.byte	0
 2177              	.LVUS11:
 2178 008e 00       		.uleb128 .LVU40
 2179 008f 00       		.uleb128 .LVU41
 2180 0090 00       		.uleb128 .LVU41
 2181 0091 00       		.uleb128 .LVU42
 2182 0092 01       		.uleb128 .LVU43
 2183 0093 00       		.uleb128 .LVU46
 2184              	.LLST11:
 2185 0094 06       		.byte	0x6
 2186 0095 4A000000 		.4byte	.LVL7
 2187 0099 04       		.byte	0x4
 2188 009a 00       		.uleb128 .LVL7-.LVL7
 2189 009b 02       		.uleb128 .LVL8-.LVL7
 2190 009c 03       		.uleb128 0x3
 2191 009d 73       		.byte	0x73
 2192 009e 7F       		.sleb128 -1
 2193 009f 9F       		.byte	0x9f
 2194 00a0 04       		.byte	0x4
 2195 00a1 02       		.uleb128 .LVL8-.LVL7
 2196 00a2 04       		.uleb128 .LVL9-.LVL7
 2197 00a3 01       		.uleb128 0x1
 2198 00a4 53       		.byte	0x53
 2199 00a5 04       		.byte	0x4
 2200 00a6 04       		.uleb128 .LVL9-.LVL7
 2201 00a7 0A       		.uleb128 .LVL10-.LVL7
 2202 00a8 03       		.uleb128 0x3
 2203 00a9 73       		.byte	0x73
 2204 00aa 7F       		.sleb128 -1
 2205 00ab 9F       		.byte	0x9f
 2206 00ac 00       		.byte	0
 2207              	.LVUS12:
 2208 00ad 01       		.uleb128 .LVU49
 2209 00ae 00       		.uleb128 .LVU79
 2210              	.LLST12:
 2211 00af 08       		.byte	0x8
 2212 00b0 5A000000 		.4byte	.LVL11
 2213 00b4 30       		.uleb128 .LVL21-.LVL11
 2214 00b5 02       		.uleb128 0x2
 2215 00b6 30       		.byte	0x30
 2216 00b7 9F       		.byte	0x9f
 2217 00b8 00       		.byte	0
 2218              	.LVUS14:
 2219 00b9 01       		.uleb128 .LVU49
 2220 00ba 00       		.uleb128 .LVU79
 2221              	.LLST14:
 2222 00bb 08       		.byte	0x8
 2223 00bc 5A000000 		.4byte	.LVL11
ARM GAS  C:\Users\DEVELO~1\AppData\Local\Temp\ccc8EdiN.s 			page 40


 2224 00c0 30       		.uleb128 .LVL21-.LVL11
 2225 00c1 02       		.uleb128 0x2
 2226 00c2 32       		.byte	0x32
 2227 00c3 9F       		.byte	0x9f
 2228 00c4 00       		.byte	0
 2229              	.LVUS15:
 2230 00c5 03       		.uleb128 .LVU51
 2231 00c6 00       		.uleb128 .LVU79
 2232              	.LLST15:
 2233 00c7 08       		.byte	0x8
 2234 00c8 5A000000 		.4byte	.LVL11
 2235 00cc 30       		.uleb128 .LVL21-.LVL11
 2236 00cd 02       		.uleb128 0x2
 2237 00ce 42       		.byte	0x42
 2238 00cf 9F       		.byte	0x9f
 2239 00d0 00       		.byte	0
 2240              	.LVUS16:
 2241 00d1 04       		.uleb128 .LVU52
 2242 00d2 00       		.uleb128 .LVU57
 2243 00d3 00       		.uleb128 .LVU57
 2244 00d4 00       		.uleb128 .LVU58
 2245 00d5 00       		.uleb128 .LVU58
 2246 00d6 00       		.uleb128 .LVU59
 2247 00d7 01       		.uleb128 .LVU60
 2248 00d8 00       		.uleb128 .LVU63
 2249              	.LLST16:
 2250 00d9 06       		.byte	0x6
 2251 00da 5A000000 		.4byte	.LVL11
 2252 00de 04       		.byte	0x4
 2253 00df 00       		.uleb128 .LVL11-.LVL11
 2254 00e0 08       		.uleb128 .LVL12-.LVL11
 2255 00e1 06       		.uleb128 0x6
 2256 00e2 0C       		.byte	0xc
 2257 00e3 FFFF0300 		.4byte	0x3ffff
 2258 00e7 9F       		.byte	0x9f
 2259 00e8 04       		.byte	0x4
 2260 00e9 08       		.uleb128 .LVL12-.LVL11
 2261 00ea 0A       		.uleb128 .LVL13-.LVL11
 2262 00eb 03       		.uleb128 0x3
 2263 00ec 73       		.byte	0x73
 2264 00ed 7F       		.sleb128 -1
 2265 00ee 9F       		.byte	0x9f
 2266 00ef 04       		.byte	0x4
 2267 00f0 0A       		.uleb128 .LVL13-.LVL11
 2268 00f1 0C       		.uleb128 .LVL14-.LVL11
 2269 00f2 01       		.uleb128 0x1
 2270 00f3 53       		.byte	0x53
 2271 00f4 04       		.byte	0x4
 2272 00f5 0C       		.uleb128 .LVL14-.LVL11
 2273 00f6 12       		.uleb128 .LVL15-.LVL11
 2274 00f7 03       		.uleb128 0x3
 2275 00f8 73       		.byte	0x73
 2276 00f9 7F       		.sleb128 -1
 2277 00fa 9F       		.byte	0x9f
 2278 00fb 00       		.byte	0
 2279              	.LVUS18:
 2280 00fc 02       		.uleb128 .LVU70
ARM GAS  C:\Users\DEVELO~1\AppData\Local\Temp\ccc8EdiN.s 			page 41


 2281 00fd 00       		.uleb128 .LVU79
 2282              	.LLST18:
 2283 00fe 08       		.byte	0x8
 2284 00ff 76000000 		.4byte	.LVL16
 2285 0103 14       		.uleb128 .LVL21-.LVL16
 2286 0104 02       		.uleb128 0x2
 2287 0105 32       		.byte	0x32
 2288 0106 9F       		.byte	0x9f
 2289 0107 00       		.byte	0
 2290              	.LVUS19:
 2291 0108 02       		.uleb128 .LVU70
 2292 0109 00       		.uleb128 .LVU79
 2293              	.LLST19:
 2294 010a 08       		.byte	0x8
 2295 010b 76000000 		.4byte	.LVL16
 2296 010f 14       		.uleb128 .LVL21-.LVL16
 2297 0110 02       		.uleb128 0x2
 2298 0111 30       		.byte	0x30
 2299 0112 9F       		.byte	0x9f
 2300 0113 00       		.byte	0
 2301              	.LVUS22:
 2302 0114 00       		.uleb128 .LVU71
 2303 0115 00       		.uleb128 .LVU72
 2304 0116 00       		.uleb128 .LVU72
 2305 0117 00       		.uleb128 .LVU73
 2306 0118 01       		.uleb128 .LVU74
 2307 0119 00       		.uleb128 .LVU77
 2308              	.LLST22:
 2309 011a 06       		.byte	0x6
 2310 011b 78000000 		.4byte	.LVL17
 2311 011f 04       		.byte	0x4
 2312 0120 00       		.uleb128 .LVL17-.LVL17
 2313 0121 02       		.uleb128 .LVL18-.LVL17
 2314 0122 03       		.uleb128 0x3
 2315 0123 73       		.byte	0x73
 2316 0124 7F       		.sleb128 -1
 2317 0125 9F       		.byte	0x9f
 2318 0126 04       		.byte	0x4
 2319 0127 02       		.uleb128 .LVL18-.LVL17
 2320 0128 04       		.uleb128 .LVL19-.LVL17
 2321 0129 01       		.uleb128 0x1
 2322 012a 53       		.byte	0x53
 2323 012b 04       		.byte	0x4
 2324 012c 04       		.uleb128 .LVL19-.LVL17
 2325 012d 0E       		.uleb128 .LVL20-.LVL17
 2326 012e 03       		.uleb128 0x3
 2327 012f 73       		.byte	0x73
 2328 0130 7F       		.sleb128 -1
 2329 0131 9F       		.byte	0x9f
 2330 0132 00       		.byte	0
 2331              	.LVUS23:
 2332 0133 00       		.uleb128 .LVU79
 2333 0134 00       		.uleb128 .LVU80
 2334 0135 00       		.uleb128 .LVU80
 2335 0136 00       		.uleb128 .LVU81
 2336 0137 01       		.uleb128 .LVU82
 2337 0138 00       		.uleb128 .LVU85
ARM GAS  C:\Users\DEVELO~1\AppData\Local\Temp\ccc8EdiN.s 			page 42


 2338              	.LLST23:
 2339 0139 06       		.byte	0x6
 2340 013a 8A000000 		.4byte	.LVL21
 2341 013e 04       		.byte	0x4
 2342 013f 00       		.uleb128 .LVL21-.LVL21
 2343 0140 02       		.uleb128 .LVL22-.LVL21
 2344 0141 03       		.uleb128 0x3
 2345 0142 73       		.byte	0x73
 2346 0143 7F       		.sleb128 -1
 2347 0144 9F       		.byte	0x9f
 2348 0145 04       		.byte	0x4
 2349 0146 02       		.uleb128 .LVL22-.LVL21
 2350 0147 04       		.uleb128 .LVL23-.LVL21
 2351 0148 01       		.uleb128 0x1
 2352 0149 53       		.byte	0x53
 2353 014a 04       		.byte	0x4
 2354 014b 04       		.uleb128 .LVL23-.LVL21
 2355 014c 0A       		.uleb128 .LVL24-.LVL21
 2356 014d 03       		.uleb128 0x3
 2357 014e 73       		.byte	0x73
 2358 014f 7F       		.sleb128 -1
 2359 0150 9F       		.byte	0x9f
 2360 0151 00       		.byte	0
 2361              	.LVUS25:
 2362 0152 02       		.uleb128 .LVU92
 2363 0153 00       		.uleb128 .LVU101
 2364              	.LLST25:
 2365 0154 08       		.byte	0x8
 2366 0155 9E000000 		.4byte	.LVL25
 2367 0159 14       		.uleb128 .LVL30-.LVL25
 2368 015a 02       		.uleb128 0x2
 2369 015b 33       		.byte	0x33
 2370 015c 9F       		.byte	0x9f
 2371 015d 00       		.byte	0
 2372              	.LVUS26:
 2373 015e 02       		.uleb128 .LVU92
 2374 015f 00       		.uleb128 .LVU101
 2375              	.LLST26:
 2376 0160 08       		.byte	0x8
 2377 0161 9E000000 		.4byte	.LVL25
 2378 0165 14       		.uleb128 .LVL30-.LVL25
 2379 0166 02       		.uleb128 0x2
 2380 0167 34       		.byte	0x34
 2381 0168 9F       		.byte	0x9f
 2382 0169 00       		.byte	0
 2383              	.LVUS27:
 2384 016a 02       		.uleb128 .LVU92
 2385 016b 00       		.uleb128 .LVU101
 2386              	.LLST27:
 2387 016c 08       		.byte	0x8
 2388 016d 9E000000 		.4byte	.LVL25
 2389 0171 14       		.uleb128 .LVL30-.LVL25
 2390 0172 02       		.uleb128 0x2
 2391 0173 30       		.byte	0x30
 2392 0174 9F       		.byte	0x9f
 2393 0175 00       		.byte	0
 2394              	.LVUS29:
ARM GAS  C:\Users\DEVELO~1\AppData\Local\Temp\ccc8EdiN.s 			page 43


 2395 0176 00       		.uleb128 .LVU93
 2396 0177 00       		.uleb128 .LVU94
 2397 0178 00       		.uleb128 .LVU94
 2398 0179 00       		.uleb128 .LVU95
 2399 017a 01       		.uleb128 .LVU96
 2400 017b 00       		.uleb128 .LVU99
 2401              	.LLST29:
 2402 017c 06       		.byte	0x6
 2403 017d A0000000 		.4byte	.LVL26
 2404 0181 04       		.byte	0x4
 2405 0182 00       		.uleb128 .LVL26-.LVL26
 2406 0183 02       		.uleb128 .LVL27-.LVL26
 2407 0184 03       		.uleb128 0x3
 2408 0185 73       		.byte	0x73
 2409 0186 7F       		.sleb128 -1
 2410 0187 9F       		.byte	0x9f
 2411 0188 04       		.byte	0x4
 2412 0189 02       		.uleb128 .LVL27-.LVL26
 2413 018a 04       		.uleb128 .LVL28-.LVL26
 2414 018b 01       		.uleb128 0x1
 2415 018c 53       		.byte	0x53
 2416 018d 04       		.byte	0x4
 2417 018e 04       		.uleb128 .LVL28-.LVL26
 2418 018f 0E       		.uleb128 .LVL29-.LVL26
 2419 0190 03       		.uleb128 0x3
 2420 0191 73       		.byte	0x73
 2421 0192 7F       		.sleb128 -1
 2422 0193 9F       		.byte	0x9f
 2423 0194 00       		.byte	0
 2424              	.LVUS30:
 2425 0195 00       		.uleb128 .LVU101
 2426 0196 00       		.uleb128 .LVU102
 2427 0197 00       		.uleb128 .LVU102
 2428 0198 00       		.uleb128 .LVU103
 2429 0199 01       		.uleb128 .LVU104
 2430 019a 00       		.uleb128 .LVU107
 2431              	.LLST30:
 2432 019b 06       		.byte	0x6
 2433 019c B2000000 		.4byte	.LVL30
 2434 01a0 04       		.byte	0x4
 2435 01a1 00       		.uleb128 .LVL30-.LVL30
 2436 01a2 02       		.uleb128 .LVL31-.LVL30
 2437 01a3 03       		.uleb128 0x3
 2438 01a4 73       		.byte	0x73
 2439 01a5 7F       		.sleb128 -1
 2440 01a6 9F       		.byte	0x9f
 2441 01a7 04       		.byte	0x4
 2442 01a8 02       		.uleb128 .LVL31-.LVL30
 2443 01a9 04       		.uleb128 .LVL32-.LVL30
 2444 01aa 01       		.uleb128 0x1
 2445 01ab 53       		.byte	0x53
 2446 01ac 04       		.byte	0x4
 2447 01ad 04       		.uleb128 .LVL32-.LVL30
 2448 01ae 0A       		.uleb128 .LVL33-.LVL30
 2449 01af 03       		.uleb128 0x3
 2450 01b0 73       		.byte	0x73
 2451 01b1 7F       		.sleb128 -1
ARM GAS  C:\Users\DEVELO~1\AppData\Local\Temp\ccc8EdiN.s 			page 44


 2452 01b2 9F       		.byte	0x9f
 2453 01b3 00       		.byte	0
 2454              	.LVUS32:
 2455 01b4 02       		.uleb128 .LVU114
 2456 01b5 00       		.uleb128 .LVU123
 2457              	.LLST32:
 2458 01b6 08       		.byte	0x8
 2459 01b7 C6000000 		.4byte	.LVL34
 2460 01bb 14       		.uleb128 .LVL39-.LVL34
 2461 01bc 02       		.uleb128 0x2
 2462 01bd 33       		.byte	0x33
 2463 01be 9F       		.byte	0x9f
 2464 01bf 00       		.byte	0
 2465              	.LVUS33:
 2466 01c0 02       		.uleb128 .LVU114
 2467 01c1 00       		.uleb128 .LVU123
 2468              	.LLST33:
 2469 01c2 08       		.byte	0x8
 2470 01c3 C6000000 		.4byte	.LVL34
 2471 01c7 14       		.uleb128 .LVL39-.LVL34
 2472 01c8 02       		.uleb128 0x2
 2473 01c9 34       		.byte	0x34
 2474 01ca 9F       		.byte	0x9f
 2475 01cb 00       		.byte	0
 2476              	.LVUS34:
 2477 01cc 02       		.uleb128 .LVU114
 2478 01cd 00       		.uleb128 .LVU123
 2479              	.LLST34:
 2480 01ce 08       		.byte	0x8
 2481 01cf C6000000 		.4byte	.LVL34
 2482 01d3 14       		.uleb128 .LVL39-.LVL34
 2483 01d4 02       		.uleb128 0x2
 2484 01d5 30       		.byte	0x30
 2485 01d6 9F       		.byte	0x9f
 2486 01d7 00       		.byte	0
 2487              	.LVUS36:
 2488 01d8 00       		.uleb128 .LVU115
 2489 01d9 00       		.uleb128 .LVU116
 2490 01da 00       		.uleb128 .LVU116
 2491 01db 00       		.uleb128 .LVU117
 2492 01dc 01       		.uleb128 .LVU118
 2493 01dd 00       		.uleb128 .LVU121
 2494              	.LLST36:
 2495 01de 06       		.byte	0x6
 2496 01df C8000000 		.4byte	.LVL35
 2497 01e3 04       		.byte	0x4
 2498 01e4 00       		.uleb128 .LVL35-.LVL35
 2499 01e5 02       		.uleb128 .LVL36-.LVL35
 2500 01e6 03       		.uleb128 0x3
 2501 01e7 73       		.byte	0x73
 2502 01e8 7F       		.sleb128 -1
 2503 01e9 9F       		.byte	0x9f
 2504 01ea 04       		.byte	0x4
 2505 01eb 02       		.uleb128 .LVL36-.LVL35
 2506 01ec 04       		.uleb128 .LVL37-.LVL35
 2507 01ed 01       		.uleb128 0x1
 2508 01ee 53       		.byte	0x53
ARM GAS  C:\Users\DEVELO~1\AppData\Local\Temp\ccc8EdiN.s 			page 45


 2509 01ef 04       		.byte	0x4
 2510 01f0 04       		.uleb128 .LVL37-.LVL35
 2511 01f1 0E       		.uleb128 .LVL38-.LVL35
 2512 01f2 03       		.uleb128 0x3
 2513 01f3 73       		.byte	0x73
 2514 01f4 7F       		.sleb128 -1
 2515 01f5 9F       		.byte	0x9f
 2516 01f6 00       		.byte	0
 2517              	.LVUS37:
 2518 01f7 00       		.uleb128 .LVU123
 2519 01f8 00       		.uleb128 .LVU124
 2520 01f9 00       		.uleb128 .LVU124
 2521 01fa 00       		.uleb128 .LVU125
 2522 01fb 01       		.uleb128 .LVU126
 2523 01fc 00       		.uleb128 .LVU129
 2524              	.LLST37:
 2525 01fd 06       		.byte	0x6
 2526 01fe DA000000 		.4byte	.LVL39
 2527 0202 04       		.byte	0x4
 2528 0203 00       		.uleb128 .LVL39-.LVL39
 2529 0204 02       		.uleb128 .LVL40-.LVL39
 2530 0205 03       		.uleb128 0x3
 2531 0206 73       		.byte	0x73
 2532 0207 7F       		.sleb128 -1
 2533 0208 9F       		.byte	0x9f
 2534 0209 04       		.byte	0x4
 2535 020a 02       		.uleb128 .LVL40-.LVL39
 2536 020b 04       		.uleb128 .LVL41-.LVL39
 2537 020c 01       		.uleb128 0x1
 2538 020d 53       		.byte	0x53
 2539 020e 04       		.byte	0x4
 2540 020f 04       		.uleb128 .LVL41-.LVL39
 2541 0210 0A       		.uleb128 .LVL42-.LVL39
 2542 0211 03       		.uleb128 0x3
 2543 0212 73       		.byte	0x73
 2544 0213 7F       		.sleb128 -1
 2545 0214 9F       		.byte	0x9f
 2546 0215 00       		.byte	0
 2547              	.LVUS39:
 2548 0216 02       		.uleb128 .LVU136
 2549 0217 00       		.uleb128 .LVU143
 2550              	.LLST39:
 2551 0218 08       		.byte	0x8
 2552 0219 EE000000 		.4byte	.LVL43
 2553 021d 0C       		.uleb128 .LVL47-.LVL43
 2554 021e 02       		.uleb128 0x2
 2555 021f 34       		.byte	0x34
 2556 0220 9F       		.byte	0x9f
 2557 0221 00       		.byte	0
 2558              	.LVUS40:
 2559 0222 02       		.uleb128 .LVU136
 2560 0223 00       		.uleb128 .LVU143
 2561              	.LLST40:
 2562 0224 08       		.byte	0x8
 2563 0225 EE000000 		.4byte	.LVL43
 2564 0229 0C       		.uleb128 .LVL47-.LVL43
 2565 022a 02       		.uleb128 0x2
ARM GAS  C:\Users\DEVELO~1\AppData\Local\Temp\ccc8EdiN.s 			page 46


 2566 022b 30       		.byte	0x30
 2567 022c 9F       		.byte	0x9f
 2568 022d 00       		.byte	0
 2569              	.LVUS41:
 2570 022e 02       		.uleb128 .LVU136
 2571 022f 00       		.uleb128 .LVU143
 2572              	.LLST41:
 2573 0230 08       		.byte	0x8
 2574 0231 EE000000 		.4byte	.LVL43
 2575 0235 0C       		.uleb128 .LVL47-.LVL43
 2576 0236 04       		.uleb128 0x4
 2577 0237 0A       		.byte	0xa
 2578 0238 3002     		.2byte	0x230
 2579 023a 9F       		.byte	0x9f
 2580 023b 00       		.byte	0
 2581              	.LVUS43:
 2582 023c 00       		.uleb128 .LVU137
 2583 023d 00       		.uleb128 .LVU138
 2584 023e 00       		.uleb128 .LVU138
 2585 023f 00       		.uleb128 .LVU139
 2586 0240 01       		.uleb128 .LVU140
 2587 0241 00       		.uleb128 .LVU143
 2588              	.LLST43:
 2589 0242 06       		.byte	0x6
 2590 0243 F0000000 		.4byte	.LVL44
 2591 0247 04       		.byte	0x4
 2592 0248 00       		.uleb128 .LVL44-.LVL44
 2593 0249 02       		.uleb128 .LVL45-.LVL44
 2594 024a 03       		.uleb128 0x3
 2595 024b 73       		.byte	0x73
 2596 024c 7F       		.sleb128 -1
 2597 024d 9F       		.byte	0x9f
 2598 024e 04       		.byte	0x4
 2599 024f 02       		.uleb128 .LVL45-.LVL44
 2600 0250 04       		.uleb128 .LVL46-.LVL44
 2601 0251 01       		.uleb128 0x1
 2602 0252 53       		.byte	0x53
 2603 0253 04       		.byte	0x4
 2604 0254 04       		.uleb128 .LVL46-.LVL44
 2605 0255 0A       		.uleb128 .LVL47-.LVL44
 2606 0256 03       		.uleb128 0x3
 2607 0257 73       		.byte	0x73
 2608 0258 7F       		.sleb128 -1
 2609 0259 9F       		.byte	0x9f
 2610 025a 00       		.byte	0
 2611              	.Ldebug_loc3:
 2612              		.section	.debug_aranges,"",%progbits
 2613 0000 1C000000 		.4byte	0x1c
 2614 0004 0200     		.2byte	0x2
 2615 0006 00000000 		.4byte	.Ldebug_info0
 2616 000a 04       		.byte	0x4
 2617 000b 00       		.byte	0
 2618 000c 0000     		.2byte	0
 2619 000e 0000     		.2byte	0
 2620 0010 00000000 		.4byte	.LFB434
 2621 0014 24010000 		.4byte	.LFE434-.LFB434
 2622 0018 00000000 		.4byte	0
ARM GAS  C:\Users\DEVELO~1\AppData\Local\Temp\ccc8EdiN.s 			page 47


 2623 001c 00000000 		.4byte	0
 2624              		.section	.debug_rnglists,"",%progbits
 2625              	.Ldebug_ranges0:
 2626 0000 88000000 		.4byte	.Ldebug_ranges3-.Ldebug_ranges2
 2627              	.Ldebug_ranges2:
 2628 0004 0500     		.2byte	0x5
 2629 0006 04       		.byte	0x4
 2630 0007 00       		.byte	0
 2631 0008 00000000 		.4byte	0
 2632              	.LLRL6:
 2633 000c 05       		.byte	0x5
 2634 000d 44000000 		.4byte	.LBB64
 2635 0011 04       		.byte	0x4
 2636 0012 00       		.uleb128 .LBB64-.LBB64
 2637 0013 02       		.uleb128 .LBE64-.LBB64
 2638 0014 04       		.byte	0x4
 2639 0015 04       		.uleb128 .LBB71-.LBB64
 2640 0016 10       		.uleb128 .LBE71-.LBB64
 2641 0017 00       		.byte	0
 2642              	.LLRL10:
 2643 0018 05       		.byte	0x5
 2644 0019 44000000 		.4byte	.LBB65
 2645 001d 04       		.byte	0x4
 2646 001e 00       		.uleb128 .LBB65-.LBB65
 2647 001f 02       		.uleb128 .LBE65-.LBB65
 2648 0020 04       		.byte	0x4
 2649 0021 06       		.uleb128 .LBB70-.LBB65
 2650 0022 10       		.uleb128 .LBE70-.LBB65
 2651 0023 00       		.byte	0
 2652              	.LLRL17:
 2653 0024 05       		.byte	0x5
 2654 0025 72000000 		.4byte	.LBB76
 2655 0029 04       		.byte	0x4
 2656 002a 00       		.uleb128 .LBB76-.LBB76
 2657 002b 02       		.uleb128 .LBE76-.LBB76
 2658 002c 04       		.byte	0x4
 2659 002d 04       		.uleb128 .LBB83-.LBB76
 2660 002e 14       		.uleb128 .LBE83-.LBB76
 2661 002f 00       		.byte	0
 2662              	.LLRL21:
 2663 0030 05       		.byte	0x5
 2664 0031 72000000 		.4byte	.LBB77
 2665 0035 04       		.byte	0x4
 2666 0036 00       		.uleb128 .LBB77-.LBB77
 2667 0037 02       		.uleb128 .LBE77-.LBB77
 2668 0038 04       		.byte	0x4
 2669 0039 06       		.uleb128 .LBB82-.LBB77
 2670 003a 14       		.uleb128 .LBE82-.LBB77
 2671 003b 00       		.byte	0
 2672              	.LLRL24:
 2673 003c 05       		.byte	0x5
 2674 003d 9A000000 		.4byte	.LBB88
 2675 0041 04       		.byte	0x4
 2676 0042 00       		.uleb128 .LBB88-.LBB88
 2677 0043 02       		.uleb128 .LBE88-.LBB88
 2678 0044 04       		.byte	0x4
 2679 0045 04       		.uleb128 .LBB95-.LBB88
ARM GAS  C:\Users\DEVELO~1\AppData\Local\Temp\ccc8EdiN.s 			page 48


 2680 0046 14       		.uleb128 .LBE95-.LBB88
 2681 0047 00       		.byte	0
 2682              	.LLRL28:
 2683 0048 05       		.byte	0x5
 2684 0049 9A000000 		.4byte	.LBB89
 2685 004d 04       		.byte	0x4
 2686 004e 00       		.uleb128 .LBB89-.LBB89
 2687 004f 02       		.uleb128 .LBE89-.LBB89
 2688 0050 04       		.byte	0x4
 2689 0051 06       		.uleb128 .LBB94-.LBB89
 2690 0052 14       		.uleb128 .LBE94-.LBB89
 2691 0053 00       		.byte	0
 2692              	.LLRL31:
 2693 0054 05       		.byte	0x5
 2694 0055 C2000000 		.4byte	.LBB100
 2695 0059 04       		.byte	0x4
 2696 005a 00       		.uleb128 .LBB100-.LBB100
 2697 005b 02       		.uleb128 .LBE100-.LBB100
 2698 005c 04       		.byte	0x4
 2699 005d 04       		.uleb128 .LBB107-.LBB100
 2700 005e 14       		.uleb128 .LBE107-.LBB100
 2701 005f 00       		.byte	0
 2702              	.LLRL35:
 2703 0060 05       		.byte	0x5
 2704 0061 C2000000 		.4byte	.LBB101
 2705 0065 04       		.byte	0x4
 2706 0066 00       		.uleb128 .LBB101-.LBB101
 2707 0067 02       		.uleb128 .LBE101-.LBB101
 2708 0068 04       		.byte	0x4
 2709 0069 06       		.uleb128 .LBB106-.LBB101
 2710 006a 14       		.uleb128 .LBE106-.LBB101
 2711 006b 00       		.byte	0
 2712              	.LLRL38:
 2713 006c 05       		.byte	0x5
 2714 006d EA000000 		.4byte	.LBB112
 2715 0071 04       		.byte	0x4
 2716 0072 00       		.uleb128 .LBB112-.LBB112
 2717 0073 02       		.uleb128 .LBE112-.LBB112
 2718 0074 04       		.byte	0x4
 2719 0075 04       		.uleb128 .LBB119-.LBB112
 2720 0076 10       		.uleb128 .LBE119-.LBB112
 2721 0077 00       		.byte	0
 2722              	.LLRL42:
 2723 0078 05       		.byte	0x5
 2724 0079 EA000000 		.4byte	.LBB113
 2725 007d 04       		.byte	0x4
 2726 007e 00       		.uleb128 .LBB113-.LBB113
 2727 007f 02       		.uleb128 .LBE113-.LBB113
 2728 0080 04       		.byte	0x4
 2729 0081 06       		.uleb128 .LBB118-.LBB113
 2730 0082 10       		.uleb128 .LBE118-.LBB113
 2731 0083 00       		.byte	0
 2732              	.LLRL44:
 2733 0084 07       		.byte	0x7
 2734 0085 00000000 		.4byte	.LFB434
 2735 0089 A402     		.uleb128 .LFE434-.LFB434
 2736 008b 00       		.byte	0
ARM GAS  C:\Users\DEVELO~1\AppData\Local\Temp\ccc8EdiN.s 			page 49


 2737              	.Ldebug_ranges3:
 2738              		.section	.debug_line,"",%progbits
 2739              	.Ldebug_line0:
 2740 0000 86030000 		.section	.debug_str,"MS",%progbits,1
 2740      03006101 
 2740      00000201 
 2740      FB0E0D00 
 2740      01010101 
 2741              	.LASF35:
 2742 0000 504C4C31 		.ascii	"PLL1FRACR\000"
 2742      46524143 
 2742      5200
 2743              	.LASF79:
 2744 000a 41504231 		.ascii	"APB1LLPENR\000"
 2744      4C4C5045 
 2744      4E5200
 2745              	.LASF72:
 2746 0015 41504234 		.ascii	"APB4ENR\000"
 2746      454E5200 
 2747              	.LASF93:
 2748 001d 64726976 		.ascii	"drivers/sdram/sdram_hw.c\000"
 2748      6572732F 
 2748      73647261 
 2748      6D2F7364 
 2748      72616D5F 
 2749              	.LASF20:
 2750 0036 53445254 		.ascii	"SDRTR\000"
 2750      5200
 2751              	.LASF80:
 2752 003c 41504231 		.ascii	"APB1HLPENR\000"
 2752      484C5045 
 2752      4E5200
 2753              	.LASF43:
 2754 0047 44324343 		.ascii	"D2CCIP2R\000"
 2754      49503252 
 2754      00
 2755              	.LASF18:
 2756 0050 53445452 		.ascii	"SDTR\000"
 2756      00
 2757              	.LASF58:
 2758 0055 41504231 		.ascii	"APB1HRSTR\000"
 2758      48525354 
 2758      5200
 2759              	.LASF13:
 2760 005f 75696E74 		.ascii	"uint64_t\000"
 2760      36345F74 
 2760      00
 2761              	.LASF5:
 2762 0068 73686F72 		.ascii	"short int\000"
 2762      7420696E 
 2762      7400
 2763              	.LASF60:
 2764 0072 41504234 		.ascii	"APB4RSTR\000"
 2764      52535452 
 2764      00
 2765              	.LASF50:
 2766 007b 42444352 		.ascii	"BDCR\000"
ARM GAS  C:\Users\DEVELO~1\AppData\Local\Temp\ccc8EdiN.s 			page 50


 2766      00
 2767              	.LASF95:
 2768 0080 63685468 		.ascii	"chThdSleep\000"
 2768      64536C65 
 2768      657000
 2769              	.LASF23:
 2770 008b 48534943 		.ascii	"HSICFGR\000"
 2770      46475200 
 2771              	.LASF44:
 2772 0093 44334343 		.ascii	"D3CCIPR\000"
 2772      49505200 
 2773              	.LASF9:
 2774 009b 5F5F7569 		.ascii	"__uint32_t\000"
 2774      6E743332 
 2774      5F7400
 2775              	.LASF88:
 2776 00a6 6D6F6465 		.ascii	"mode\000"
 2776      00
 2777              	.LASF48:
 2778 00ab 43494352 		.ascii	"CICR\000"
 2778      00
 2779              	.LASF92:
 2780 00b0 474E5520 		.ascii	"GNU C17 11.3.1 20220712 -mcpu=cortex-m7 -mthumb -mf"
 2780      43313720 
 2780      31312E33 
 2780      2E312032 
 2780      30323230 
 2781 00e3 6C6F6174 		.ascii	"loat-abi=soft -march=armv7e-m -ggdb -O2 -fomit-fram"
 2781      2D616269 
 2781      3D736F66 
 2781      74202D6D 
 2781      61726368 
 2782 0116 652D706F 		.ascii	"e-pointer -falign-functions=16 -ffunction-sections "
 2782      696E7465 
 2782      72202D66 
 2782      616C6967 
 2782      6E2D6675 
 2783 0149 2D666461 		.ascii	"-fdata-sections -fno-common\000"
 2783      74612D73 
 2783      65637469 
 2783      6F6E7320 
 2783      2D666E6F 
 2784              	.LASF74:
 2785 0165 41484233 		.ascii	"AHB3LPENR\000"
 2785      4C50454E 
 2785      5200
 2786              	.LASF22:
 2787 016f 464D435F 		.ascii	"FMC_Bank5_6_TypeDef\000"
 2787      42616E6B 
 2787      355F365F 
 2787      54797065 
 2787      44656600 
 2788              	.LASF26:
 2789 0183 43464752 		.ascii	"CFGR\000"
 2789      00
 2790              	.LASF49:
 2791 0188 52455345 		.ascii	"RESERVED5\000"
ARM GAS  C:\Users\DEVELO~1\AppData\Local\Temp\ccc8EdiN.s 			page 51


 2791      52564544 
 2791      3500
 2792              	.LASF51:
 2793 0192 52455345 		.ascii	"RESERVED6\000"
 2793      52564544 
 2793      3600
 2794              	.LASF30:
 2795 019c 44334346 		.ascii	"D3CFGR\000"
 2795      475200
 2796              	.LASF86:
 2797 01a3 73646372 		.ascii	"sdcr\000"
 2797      00
 2798              	.LASF66:
 2799 01a8 41484232 		.ascii	"AHB2ENR\000"
 2799      454E5200 
 2800              	.LASF34:
 2801 01b0 504C4C31 		.ascii	"PLL1DIVR\000"
 2801      44495652 
 2801      00
 2802              	.LASF64:
 2803 01b9 41484233 		.ascii	"AHB3ENR\000"
 2803      454E5200 
 2804              	.LASF32:
 2805 01c1 504C4C43 		.ascii	"PLLCKSELR\000"
 2805      4B53454C 
 2805      5200
 2806              	.LASF57:
 2807 01cb 41504231 		.ascii	"APB1LRSTR\000"
 2807      4C525354 
 2807      5200
 2808              	.LASF46:
 2809 01d5 43494552 		.ascii	"CIER\000"
 2809      00
 2810              	.LASF7:
 2811 01da 6C6F6E67 		.ascii	"long int\000"
 2811      20696E74 
 2811      00
 2812              	.LASF36:
 2813 01e3 504C4C32 		.ascii	"PLL2DIVR\000"
 2813      44495652 
 2813      00
 2814              	.LASF84:
 2815 01ec 5243435F 		.ascii	"RCC_TypeDef\000"
 2815      54797065 
 2815      44656600 
 2816              	.LASF59:
 2817 01f8 41504232 		.ascii	"APB2RSTR\000"
 2817      52535452 
 2817      00
 2818              	.LASF98:
 2819 0201 666D635F 		.ascii	"fmc_issue_command\000"
 2819      69737375 
 2819      655F636F 
 2819      6D6D616E 
 2819      6400
 2820              	.LASF83:
 2821 0213 52455345 		.ascii	"RESERVED13\000"
ARM GAS  C:\Users\DEVELO~1\AppData\Local\Temp\ccc8EdiN.s 			page 52


 2821      52564544 
 2821      313300
 2822              	.LASF90:
 2823 021e 6D6F6465 		.ascii	"mode_reg\000"
 2823      5F726567 
 2823      00
 2824              	.LASF25:
 2825 0227 43534943 		.ascii	"CSICFGR\000"
 2825      46475200 
 2826              	.LASF78:
 2827 022f 41504233 		.ascii	"APB3LPENR\000"
 2827      4C50454E 
 2827      5200
 2828              	.LASF2:
 2829 0239 6C6F6E67 		.ascii	"long double\000"
 2829      20646F75 
 2829      626C6500 
 2830              	.LASF62:
 2831 0245 4433414D 		.ascii	"D3AMR\000"
 2831      5200
 2832              	.LASF70:
 2833 024b 41504231 		.ascii	"APB1HENR\000"
 2833      48454E52 
 2833      00
 2834              	.LASF4:
 2835 0254 756E7369 		.ascii	"unsigned char\000"
 2835      676E6564 
 2835      20636861 
 2835      7200
 2836              	.LASF37:
 2837 0262 504C4C32 		.ascii	"PLL2FRACR\000"
 2837      46524143 
 2837      5200
 2838              	.LASF63:
 2839 026c 52455345 		.ascii	"RESERVED11\000"
 2839      52564544 
 2839      313100
 2840              	.LASF73:
 2841 0277 52455345 		.ascii	"RESERVED12\000"
 2841      52564544 
 2841      313200
 2842              	.LASF71:
 2843 0282 41504232 		.ascii	"APB2ENR\000"
 2843      454E5200 
 2844              	.LASF69:
 2845 028a 41504231 		.ascii	"APB1LENR\000"
 2845      4C454E52 
 2845      00
 2846              	.LASF24:
 2847 0293 43525243 		.ascii	"CRRCR\000"
 2847      5200
 2848              	.LASF17:
 2849 0299 53444352 		.ascii	"SDCR\000"
 2849      00
 2850              	.LASF3:
 2851 029e 7369676E 		.ascii	"signed char\000"
 2851      65642063 
ARM GAS  C:\Users\DEVELO~1\AppData\Local\Temp\ccc8EdiN.s 			page 53


 2851      68617200 
 2852              	.LASF11:
 2853 02aa 6C6F6E67 		.ascii	"long long unsigned int\000"
 2853      206C6F6E 
 2853      6720756E 
 2853      7369676E 
 2853      65642069 
 2854              	.LASF55:
 2855 02c1 41484234 		.ascii	"AHB4RSTR\000"
 2855      52535452 
 2855      00
 2856              	.LASF12:
 2857 02ca 75696E74 		.ascii	"uint32_t\000"
 2857      33325F74 
 2857      00
 2858              	.LASF0:
 2859 02d3 756E7369 		.ascii	"unsigned int\000"
 2859      676E6564 
 2859      20696E74 
 2859      00
 2860              	.LASF54:
 2861 02e0 41484232 		.ascii	"AHB2RSTR\000"
 2861      52535452 
 2861      00
 2862              	.LASF94:
 2863 02e9 433A5C50 		.ascii	"C:\\PROJET\\ChibiOS project\\ChibiOS_21.11.4\\demos"
 2863      524F4A45 
 2863      545C4368 
 2863      6962694F 
 2863      53207072 
 2864 0318 5C53544D 		.ascii	"\\STM32\\RT-STM32H743ZI_REV_XY-NUCLEO144\000"
 2864      33325C52 
 2864      542D5354 
 2864      4D333248 
 2864      3734335A 
 2865              	.LASF75:
 2866 033f 41484231 		.ascii	"AHB1LPENR\000"
 2866      4C50454E 
 2866      5200
 2867              	.LASF28:
 2868 0349 44314346 		.ascii	"D1CFGR\000"
 2868      475200
 2869              	.LASF67:
 2870 0350 41484234 		.ascii	"AHB4ENR\000"
 2870      454E5200 
 2871              	.LASF33:
 2872 0358 504C4C43 		.ascii	"PLLCFGR\000"
 2872      46475200 
 2873              	.LASF6:
 2874 0360 73686F72 		.ascii	"short unsigned int\000"
 2874      7420756E 
 2874      7369676E 
 2874      65642069 
 2874      6E7400
 2875              	.LASF1:
 2876 0373 6C6F6E67 		.ascii	"long long int\000"
 2876      206C6F6E 
ARM GAS  C:\Users\DEVELO~1\AppData\Local\Temp\ccc8EdiN.s 			page 54


 2876      6720696E 
 2876      7400
 2877              	.LASF14:
 2878 0381 63686172 		.ascii	"char\000"
 2878      00
 2879              	.LASF41:
 2880 0386 44314343 		.ascii	"D1CCIPR\000"
 2880      49505200 
 2881              	.LASF85:
 2882 038e 5F426F6F 		.ascii	"_Bool\000"
 2882      6C00
 2883              	.LASF77:
 2884 0394 41484234 		.ascii	"AHB4LPENR\000"
 2884      4C50454E 
 2884      5200
 2885              	.LASF15:
 2886 039e 73797369 		.ascii	"sysinterval_t\000"
 2886      6E746572 
 2886      76616C5F 
 2886      7400
 2887              	.LASF10:
 2888 03ac 5F5F7569 		.ascii	"__uint64_t\000"
 2888      6E743634 
 2888      5F7400
 2889              	.LASF76:
 2890 03b7 41484232 		.ascii	"AHB2LPENR\000"
 2890      4C50454E 
 2890      5200
 2891              	.LASF38:
 2892 03c1 504C4C33 		.ascii	"PLL3DIVR\000"
 2892      44495652 
 2892      00
 2893              	.LASF27:
 2894 03ca 52455345 		.ascii	"RESERVED1\000"
 2894      52564544 
 2894      3100
 2895              	.LASF31:
 2896 03d4 52455345 		.ascii	"RESERVED2\000"
 2896      52564544 
 2896      3200
 2897              	.LASF40:
 2898 03de 52455345 		.ascii	"RESERVED3\000"
 2898      52564544 
 2898      3300
 2899              	.LASF45:
 2900 03e8 52455345 		.ascii	"RESERVED4\000"
 2900      52564544 
 2900      3400
 2901              	.LASF56:
 2902 03f2 41504233 		.ascii	"APB3RSTR\000"
 2902      52535452 
 2902      00
 2903              	.LASF8:
 2904 03fb 6C6F6E67 		.ascii	"long unsigned int\000"
 2904      20756E73 
 2904      69676E65 
 2904      6420696E 
ARM GAS  C:\Users\DEVELO~1\AppData\Local\Temp\ccc8EdiN.s 			page 55


 2904      7400
 2905              	.LASF61:
 2906 040d 52455345 		.ascii	"RESERVED8\000"
 2906      52564544 
 2906      3800
 2907              	.LASF68:
 2908 0417 41504233 		.ascii	"APB3ENR\000"
 2908      454E5200 
 2909              	.LASF97:
 2910 041f 73647274 		.ascii	"sdrtr\000"
 2910      7200
 2911              	.LASF47:
 2912 0425 43494652 		.ascii	"CIFR\000"
 2912      00
 2913              	.LASF42:
 2914 042a 44324343 		.ascii	"D2CCIP1R\000"
 2914      49503152 
 2914      00
 2915              	.LASF21:
 2916 0433 53445352 		.ascii	"SDSR\000"
 2916      00
 2917              	.LASF65:
 2918 0438 41484231 		.ascii	"AHB1ENR\000"
 2918      454E5200 
 2919              	.LASF96:
 2920 0440 73647261 		.ascii	"sdram_hw_init_sequence\000"
 2920      6D5F6877 
 2920      5F696E69 
 2920      745F7365 
 2920      7175656E 
 2921              	.LASF87:
 2922 0457 73647472 		.ascii	"sdtr\000"
 2922      00
 2923              	.LASF16:
 2924 045c 74696D65 		.ascii	"time_conv_t\000"
 2924      5F636F6E 
 2924      765F7400 
 2925              	.LASF53:
 2926 0468 41484231 		.ascii	"AHB1RSTR\000"
 2926      52535452 
 2926      00
 2927              	.LASF19:
 2928 0471 5344434D 		.ascii	"SDCMR\000"
 2928      5200
 2929              	.LASF52:
 2930 0477 41484233 		.ascii	"AHB3RSTR\000"
 2930      52535452 
 2930      00
 2931              	.LASF100:
 2932 0480 666D635F 		.ascii	"fmc_wait_while_busy\000"
 2932      77616974 
 2932      5F776869 
 2932      6C655F62 
 2932      75737900 
 2933              	.LASF89:
 2934 0494 6175746F 		.ascii	"auto_refresh\000"
 2934      5F726566 
ARM GAS  C:\Users\DEVELO~1\AppData\Local\Temp\ccc8EdiN.s 			page 56


 2934      72657368 
 2934      00
 2935              	.LASF29:
 2936 04a1 44324346 		.ascii	"D2CFGR\000"
 2936      475200
 2937              	.LASF82:
 2938 04a8 41504234 		.ascii	"APB4LPENR\000"
 2938      4C50454E 
 2938      5200
 2939              	.LASF81:
 2940 04b2 41504232 		.ascii	"APB2LPENR\000"
 2940      4C50454E 
 2940      5200
 2941              	.LASF99:
 2942 04bc 636F6D6D 		.ascii	"command\000"
 2942      616E6400 
 2943              	.LASF91:
 2944 04c4 74696D65 		.ascii	"timeout\000"
 2944      6F757400 
 2945              	.LASF39:
 2946 04cc 504C4C33 		.ascii	"PLL3FRACR\000"
 2946      46524143 
 2946      5200
 2947              		.ident	"GCC: (Arm GNU Toolchain 11.3.Rel1) 11.3.1 20220712"
ARM GAS  C:\Users\DEVELO~1\AppData\Local\Temp\ccc8EdiN.s 			page 57


DEFINED SYMBOLS
                            *ABS*:00000000 sdram_hw.c
C:\Users\DEVELO~1\AppData\Local\Temp\ccc8EdiN.s:18     .text.sdram_hw_init_sequence:00000000 $t
C:\Users\DEVELO~1\AppData\Local\Temp\ccc8EdiN.s:25     .text.sdram_hw_init_sequence:00000000 sdram_hw_init_sequence
C:\Users\DEVELO~1\AppData\Local\Temp\ccc8EdiN.s:516    .text.sdram_hw_init_sequence:00000110 $d

UNDEFINED SYMBOLS
chThdSleep
