ARM GAS  C:\Users\DEVELO~1\AppData\Local\Temp\ccl8MZFw.s 			page 1


   1              		.cpu cortex-m7
   2              		.arch armv7e-m
   3              		.fpu softvfp
   4              		.eabi_attribute 20, 1
   5              		.eabi_attribute 21, 1
   6              		.eabi_attribute 23, 3
   7              		.eabi_attribute 24, 1
   8              		.eabi_attribute 25, 1
   9              		.eabi_attribute 26, 1
  10              		.eabi_attribute 30, 2
  11              		.eabi_attribute 34, 1
  12              		.eabi_attribute 18, 4
  13              		.file	"sdram_driver.c"
  14              		.text
  15              	.Ltext0:
  16              		.cfi_sections	.debug_frame
  17              		.section	.text.sdram_init,"ax",%progbits
  18              		.align	1
  19              		.p2align 4,,15
  20              		.global	sdram_init
  21              		.syntax unified
  22              		.thumb
  23              		.thumb_func
  24              		.type	sdram_init, %function
  25              	sdram_init:
  26              	.LVL0:
  27              	.LFB434:
  28              		.file 1 "drivers/sdram/sdram_driver.c"
  29              		.loc 1 36 38 view -0
  30              		.cfi_startproc
  31              		@ args = 0, pretend = 0, frame = 48
  32              		@ frame_needed = 0, uses_anonymous_args = 0
  33              		.loc 1 39 3 view .LVU1
  34              		.loc 1 36 38 is_stmt 0 view .LVU2
  35 0000 F0B5     		push	{r4, r5, r6, r7, lr}
  36              		.cfi_def_cfa_offset 20
  37              		.cfi_offset 4, -20
  38              		.cfi_offset 5, -16
  39              		.cfi_offset 6, -12
  40              		.cfi_offset 7, -8
  41              		.cfi_offset 14, -4
  42              		.loc 1 40 16 view .LVU3
  43 0002 2C4C     		ldr	r4, .L23
  44              		.loc 1 36 38 view .LVU4
  45 0004 8DB0     		sub	sp, sp, #52
  46              		.cfi_def_cfa_offset 72
  47              		.loc 1 36 38 view .LVU5
  48 0006 0546     		mov	r5, r0
  49              		.loc 1 39 3 view .LVU6
  50 0008 2B48     		ldr	r0, .L23+4
  51              	.LVL1:
  52              		.loc 1 39 3 view .LVU7
  53 000a FFF7FEFF 		bl	chMtxLock
  54              	.LVL2:
  55              		.loc 1 40 3 is_stmt 1 view .LVU8
  56              		.loc 1 40 6 is_stmt 0 view .LVU9
  57 000e 2678     		ldrb	r6, [r4]	@ zero_extendqisi2
ARM GAS  C:\Users\DEVELO~1\AppData\Local\Temp\ccl8MZFw.s 			page 2


  58 0010 002E     		cmp	r6, #0
  59 0012 44D1     		bne	.L20
  60              		.loc 1 44 3 is_stmt 1 view .LVU10
  61              		.loc 1 45 3 view .LVU11
  62              		.loc 1 46 3 view .LVU12
  63              		.loc 1 44 19 is_stmt 0 view .LVU13
  64 0014 0127     		movs	r7, #1
  65              		.loc 1 47 3 view .LVU14
  66 0016 2848     		ldr	r0, .L23+4
  67              		.loc 1 46 26 view .LVU15
  68 0018 A670     		strb	r6, [r4, #2]
  69              		.loc 1 47 3 is_stmt 1 view .LVU16
  70              		.loc 1 44 19 is_stmt 0 view .LVU17
  71 001a 2780     		strh	r7, [r4]	@ movhi
  72              		.loc 1 47 3 view .LVU18
  73 001c FFF7FEFF 		bl	chMtxUnlock
  74              	.LVL3:
  75              		.loc 1 50 3 is_stmt 1 view .LVU19
  76              		.loc 1 50 8 is_stmt 0 view .LVU20
  77 0020 FFF7FEFF 		bl	sdram_hw_init_sequence
  78              	.LVL4:
  79              		.loc 1 50 6 view .LVU21
  80 0024 78B3     		cbz	r0, .L21
  81              		.loc 1 60 3 is_stmt 1 view .LVU22
  82 0026 2448     		ldr	r0, .L23+4
  83 0028 FFF7FEFF 		bl	chMtxLock
  84              	.LVL5:
  85              		.loc 1 61 3 view .LVU23
  86              		.loc 1 62 3 view .LVU24
  87              		.loc 1 61 19 is_stmt 0 view .LVU25
  88 002c 0223     		movs	r3, #2
  89              		.loc 1 63 3 view .LVU26
  90 002e 2248     		ldr	r0, .L23+4
  91              		.loc 1 61 19 view .LVU27
  92 0030 2380     		strh	r3, [r4]	@ movhi
  93              		.loc 1 63 3 is_stmt 1 view .LVU28
  94 0032 FFF7FEFF 		bl	chMtxUnlock
  95              	.LVL6:
  96              		.loc 1 66 3 view .LVU29
  97              		.loc 1 66 6 is_stmt 0 view .LVU30
  98 0036 25B3     		cbz	r5, .L1
  99              		.loc 1 70 3 is_stmt 1 view .LVU31
 100              		.loc 1 70 24 is_stmt 0 view .LVU32
 101 0038 3022     		movs	r2, #48
 102 003a 3146     		mov	r1, r6
 103 003c 6846     		mov	r0, sp
 104              		.loc 1 82 30 view .LVU33
 105 003e 251D     		adds	r5, r4, #4
 106              		.loc 1 70 24 view .LVU34
 107 0040 FFF7FEFF 		bl	memset
 108              	.LVL7:
 109              		.loc 1 71 3 is_stmt 1 view .LVU35
 110              		.loc 1 72 3 view .LVU36
 111              		.loc 1 74 3 view .LVU37
 112 0044 1C48     		ldr	r0, .L23+4
 113 0046 FFF7FEFF 		bl	chMtxLock
 114              	.LVL8:
ARM GAS  C:\Users\DEVELO~1\AppData\Local\Temp\ccl8MZFw.s 			page 3


 115              		.loc 1 75 3 view .LVU38
 116              		.loc 1 76 3 is_stmt 0 view .LVU39
 117 004a 1B48     		ldr	r0, .L23+4
 118              		.loc 1 75 26 view .LVU40
 119 004c A770     		strb	r7, [r4, #2]
 120              		.loc 1 76 3 is_stmt 1 view .LVU41
 121 004e FFF7FEFF 		bl	chMtxUnlock
 122              	.LVL9:
 123              		.loc 1 78 3 view .LVU42
 124              		.loc 1 78 13 is_stmt 0 view .LVU43
 125 0052 6846     		mov	r0, sp
 126 0054 FFF7FEFF 		bl	sdram_bist_start
 127              	.LVL10:
 128 0058 0746     		mov	r7, r0
 129              		.loc 1 80 3 view .LVU44
 130 005a 1748     		ldr	r0, .L23+4
 131              	.LVL11:
 132              		.loc 1 80 3 is_stmt 1 view .LVU45
 133 005c FFF7FEFF 		bl	chMtxLock
 134              	.LVL12:
 135              		.loc 1 81 3 view .LVU46
 136              		.loc 1 82 30 is_stmt 0 view .LVU47
 137 0060 0DF10C0C 		add	ip, sp, #12
 138              		.loc 1 81 26 view .LVU48
 139 0064 A670     		strb	r6, [r4, #2]
 140              		.loc 1 82 3 is_stmt 1 view .LVU49
 141              		.loc 1 82 30 is_stmt 0 view .LVU50
 142 0066 BCE80F00 		ldmia	ip!, {r0, r1, r2, r3}
 143 006a 0FC5     		stmia	r5!, {r0, r1, r2, r3}
 144 006c 9CE80F00 		ldm	ip, {r0, r1, r2, r3}
 145 0070 85E80F00 		stm	r5, {r0, r1, r2, r3}
 146              		.loc 1 84 3 is_stmt 1 view .LVU51
 147              		.loc 1 84 6 is_stmt 0 view .LVU52
 148 0074 CFB9     		cbnz	r7, .L22
 149              	.L5:
 150              		.loc 1 85 5 is_stmt 1 view .LVU53
 151              		.loc 1 86 5 view .LVU54
 152              		.loc 1 85 21 is_stmt 0 view .LVU55
 153 0076 40F20343 		movw	r3, #1027
 154 007a 2380     		strh	r3, [r4]	@ movhi
 155              	.L6:
 156              		.loc 1 88 3 is_stmt 1 view .LVU56
 157 007c 0E48     		ldr	r0, .L23+4
 158 007e FFF7FEFF 		bl	chMtxUnlock
 159              	.LVL13:
 160              	.L1:
 161              		.loc 1 89 1 is_stmt 0 view .LVU57
 162 0082 0DB0     		add	sp, sp, #52
 163              		.cfi_remember_state
 164              		.cfi_def_cfa_offset 20
 165              		@ sp needed
 166 0084 F0BD     		pop	{r4, r5, r6, r7, pc}
 167              	.L21:
 168              		.cfi_restore_state
 169              		.loc 1 51 5 is_stmt 1 view .LVU58
 170 0086 0C48     		ldr	r0, .L23+4
 171 0088 FFF7FEFF 		bl	chMtxLock
ARM GAS  C:\Users\DEVELO~1\AppData\Local\Temp\ccl8MZFw.s 			page 4


 172              	.LVL14:
 173              		.loc 1 52 5 view .LVU59
 174              	.LBB8:
 175              	.LBI8:
 176              		.loc 1 20 13 view .LVU60
 177              	.LBB9:
 178              		.loc 1 21 3 view .LVU61
 179              		.loc 1 22 3 view .LVU62
 180              		.loc 1 21 19 is_stmt 0 view .LVU63
 181 008c 4FF48273 		mov	r3, #260
 182              	.LBE9:
 183              	.LBE8:
 184              		.loc 1 53 5 view .LVU64
 185 0090 0948     		ldr	r0, .L23+4
 186              	.LBB11:
 187              	.LBB10:
 188              		.loc 1 21 19 view .LVU65
 189 0092 2380     		strh	r3, [r4]	@ movhi
 190              	.LVL15:
 191              		.loc 1 21 19 view .LVU66
 192              	.LBE10:
 193              	.LBE11:
 194              		.loc 1 53 5 is_stmt 1 view .LVU67
 195              		.loc 1 89 1 is_stmt 0 view .LVU68
 196 0094 0DB0     		add	sp, sp, #52
 197              		.cfi_remember_state
 198              		.cfi_def_cfa_offset 20
 199              		@ sp needed
 200 0096 BDE8F040 		pop	{r4, r5, r6, r7, lr}
 201              		.cfi_restore 14
 202              		.cfi_restore 7
 203              		.cfi_restore 6
 204              		.cfi_restore 5
 205              		.cfi_restore 4
 206              		.cfi_def_cfa_offset 0
 207              		.loc 1 53 5 view .LVU69
 208 009a FFF7FEBF 		b	chMtxUnlock
 209              	.LVL16:
 210              	.L20:
 211              		.cfi_restore_state
 212              		.loc 1 41 5 is_stmt 1 view .LVU70
 213 009e 0648     		ldr	r0, .L23+4
 214              		.loc 1 53 5 view .LVU71
 215              		.loc 1 89 1 is_stmt 0 view .LVU72
 216 00a0 0DB0     		add	sp, sp, #52
 217              		.cfi_remember_state
 218              		.cfi_def_cfa_offset 20
 219              		@ sp needed
 220 00a2 BDE8F040 		pop	{r4, r5, r6, r7, lr}
 221              		.cfi_restore 14
 222              		.cfi_restore 7
 223              		.cfi_restore 6
 224              		.cfi_restore 5
 225              		.cfi_restore 4
 226              		.cfi_def_cfa_offset 0
 227              		.loc 1 53 5 view .LVU73
 228 00a6 FFF7FEBF 		b	chMtxUnlock
ARM GAS  C:\Users\DEVELO~1\AppData\Local\Temp\ccl8MZFw.s 			page 5


 229              	.LVL17:
 230              	.L22:
 231              		.cfi_restore_state
 232              		.loc 1 84 11 discriminator 1 view .LVU74
 233 00aa 9DF80C30 		ldrb	r3, [sp, #12]	@ zero_extendqisi2
 234 00ae 002B     		cmp	r3, #0
 235 00b0 E4D0     		beq	.L6
 236 00b2 E0E7     		b	.L5
 237              	.L24:
 238              		.align	2
 239              	.L23:
 240 00b4 00000000 		.word	.LANCHOR1
 241 00b8 00000000 		.word	.LANCHOR0
 242              		.cfi_endproc
 243              	.LFE434:
 244              		.size	sdram_init, .-sdram_init
 245              		.section	.text.sdram_is_initialized,"ax",%progbits
 246              		.align	1
 247              		.p2align 4,,15
 248              		.global	sdram_is_initialized
 249              		.syntax unified
 250              		.thumb
 251              		.thumb_func
 252              		.type	sdram_is_initialized, %function
 253              	sdram_is_initialized:
 254              	.LFB435:
 255              		.loc 1 91 33 is_stmt 1 view -0
 256              		.cfi_startproc
 257              		@ args = 0, pretend = 0, frame = 0
 258              		@ frame_needed = 0, uses_anonymous_args = 0
 259              		.loc 1 92 3 view .LVU76
 260              		.loc 1 91 33 is_stmt 0 view .LVU77
 261 0000 10B5     		push	{r4, lr}
 262              		.cfi_def_cfa_offset 8
 263              		.cfi_offset 4, -8
 264              		.cfi_offset 14, -4
 265              		.loc 1 92 3 view .LVU78
 266 0002 084C     		ldr	r4, .L27
 267 0004 2046     		mov	r0, r4
 268 0006 FFF7FEFF 		bl	chMtxLock
 269              	.LVL18:
 270              		.loc 1 93 3 is_stmt 1 view .LVU79
 271              		.loc 1 93 23 is_stmt 0 view .LVU80
 272 000a 074B     		ldr	r3, .L27+4
 273              		.loc 1 95 3 view .LVU81
 274 000c 2046     		mov	r0, r4
 275              		.loc 1 93 45 view .LVU82
 276 000e 1C78     		ldrb	r4, [r3]	@ zero_extendqisi2
 277              		.loc 1 93 8 view .LVU83
 278 0010 023C     		subs	r4, r4, #2
 279 0012 012C     		cmp	r4, #1
 280 0014 8CBF     		ite	hi
 281 0016 0024     		movhi	r4, #0
 282 0018 0124     		movls	r4, #1
 283              	.LVL19:
 284              		.loc 1 95 3 is_stmt 1 view .LVU84
 285 001a FFF7FEFF 		bl	chMtxUnlock
ARM GAS  C:\Users\DEVELO~1\AppData\Local\Temp\ccl8MZFw.s 			page 6


 286              	.LVL20:
 287              		.loc 1 96 3 view .LVU85
 288              		.loc 1 97 1 is_stmt 0 view .LVU86
 289 001e 2046     		mov	r0, r4
 290 0020 10BD     		pop	{r4, pc}
 291              	.LVL21:
 292              	.L28:
 293              		.loc 1 97 1 view .LVU87
 294 0022 00BF     		.align	2
 295              	.L27:
 296 0024 00000000 		.word	.LANCHOR0
 297 0028 00000000 		.word	.LANCHOR1
 298              		.cfi_endproc
 299              	.LFE435:
 300              		.size	sdram_is_initialized, .-sdram_is_initialized
 301              		.section	.text.sdram_status,"ax",%progbits
 302              		.align	1
 303              		.p2align 4,,15
 304              		.global	sdram_status
 305              		.syntax unified
 306              		.thumb
 307              		.thumb_func
 308              		.type	sdram_status, %function
 309              	sdram_status:
 310              	.LFB436:
 311              		.loc 1 99 34 is_stmt 1 view -0
 312              		.cfi_startproc
 313              		@ args = 0, pretend = 0, frame = 0
 314              		@ frame_needed = 0, uses_anonymous_args = 0
 315              		.loc 1 100 3 view .LVU89
 316              		.loc 1 99 34 is_stmt 0 view .LVU90
 317 0000 10B5     		push	{r4, lr}
 318              		.cfi_def_cfa_offset 8
 319              		.cfi_offset 4, -8
 320              		.cfi_offset 14, -4
 321              		.loc 1 100 3 view .LVU91
 322 0002 054C     		ldr	r4, .L31
 323 0004 2046     		mov	r0, r4
 324 0006 FFF7FEFF 		bl	chMtxLock
 325              	.LVL22:
 326              		.loc 1 101 3 is_stmt 1 view .LVU92
 327              		.loc 1 101 17 is_stmt 0 view .LVU93
 328 000a 044B     		ldr	r3, .L31+4
 329              		.loc 1 102 3 view .LVU94
 330 000c 2046     		mov	r0, r4
 331              		.loc 1 101 17 view .LVU95
 332 000e 1C78     		ldrb	r4, [r3]	@ zero_extendqisi2
 333              	.LVL23:
 334              		.loc 1 102 3 is_stmt 1 view .LVU96
 335 0010 FFF7FEFF 		bl	chMtxUnlock
 336              	.LVL24:
 337              		.loc 1 103 3 view .LVU97
 338              		.loc 1 104 1 is_stmt 0 view .LVU98
 339 0014 2046     		mov	r0, r4
 340 0016 10BD     		pop	{r4, pc}
 341              	.LVL25:
 342              	.L32:
ARM GAS  C:\Users\DEVELO~1\AppData\Local\Temp\ccl8MZFw.s 			page 7


 343              		.loc 1 104 1 view .LVU99
 344              		.align	2
 345              	.L31:
 346 0018 00000000 		.word	.LANCHOR0
 347 001c 00000000 		.word	.LANCHOR1
 348              		.cfi_endproc
 349              	.LFE436:
 350              		.size	sdram_status, .-sdram_status
 351              		.section	.text.sdram_get_error,"ax",%progbits
 352              		.align	1
 353              		.p2align 4,,15
 354              		.global	sdram_get_error
 355              		.syntax unified
 356              		.thumb
 357              		.thumb_func
 358              		.type	sdram_get_error, %function
 359              	sdram_get_error:
 360              	.LFB437:
 361              		.loc 1 106 37 is_stmt 1 view -0
 362              		.cfi_startproc
 363              		@ args = 0, pretend = 0, frame = 0
 364              		@ frame_needed = 0, uses_anonymous_args = 0
 365              		.loc 1 107 3 view .LVU101
 366              		.loc 1 106 37 is_stmt 0 view .LVU102
 367 0000 10B5     		push	{r4, lr}
 368              		.cfi_def_cfa_offset 8
 369              		.cfi_offset 4, -8
 370              		.cfi_offset 14, -4
 371              		.loc 1 107 3 view .LVU103
 372 0002 054C     		ldr	r4, .L35
 373 0004 2046     		mov	r0, r4
 374 0006 FFF7FEFF 		bl	chMtxLock
 375              	.LVL26:
 376              		.loc 1 108 3 is_stmt 1 view .LVU104
 377              		.loc 1 108 17 is_stmt 0 view .LVU105
 378 000a 044B     		ldr	r3, .L35+4
 379              		.loc 1 109 3 view .LVU106
 380 000c 2046     		mov	r0, r4
 381              		.loc 1 108 17 view .LVU107
 382 000e 5C78     		ldrb	r4, [r3, #1]	@ zero_extendqisi2
 383              	.LVL27:
 384              		.loc 1 109 3 is_stmt 1 view .LVU108
 385 0010 FFF7FEFF 		bl	chMtxUnlock
 386              	.LVL28:
 387              		.loc 1 110 3 view .LVU109
 388              		.loc 1 111 1 is_stmt 0 view .LVU110
 389 0014 2046     		mov	r0, r4
 390 0016 10BD     		pop	{r4, pc}
 391              	.LVL29:
 392              	.L36:
 393              		.loc 1 111 1 view .LVU111
 394              		.align	2
 395              	.L35:
 396 0018 00000000 		.word	.LANCHOR0
 397 001c 00000000 		.word	.LANCHOR1
 398              		.cfi_endproc
 399              	.LFE437:
ARM GAS  C:\Users\DEVELO~1\AppData\Local\Temp\ccl8MZFw.s 			page 8


 400              		.size	sdram_get_error, .-sdram_get_error
 401              		.section	.text.sdram_run_bist,"ax",%progbits
 402              		.align	1
 403              		.p2align 4,,15
 404              		.global	sdram_run_bist
 405              		.syntax unified
 406              		.thumb
 407              		.thumb_func
 408              		.type	sdram_run_bist, %function
 409              	sdram_run_bist:
 410              	.LVL30:
 411              	.LFB438:
 412              		.loc 1 113 78 is_stmt 1 view -0
 413              		.cfi_startproc
 414              		@ args = 0, pretend = 0, frame = 48
 415              		@ frame_needed = 0, uses_anonymous_args = 0
 416              		.loc 1 115 3 view .LVU113
 417              		.loc 1 113 78 is_stmt 0 view .LVU114
 418 0000 2DE9F041 		push	{r4, r5, r6, r7, r8, lr}
 419              		.cfi_def_cfa_offset 24
 420              		.cfi_offset 4, -24
 421              		.cfi_offset 5, -20
 422              		.cfi_offset 6, -16
 423              		.cfi_offset 7, -12
 424              		.cfi_offset 8, -8
 425              		.cfi_offset 14, -4
 426              		.loc 1 116 16 view .LVU115
 427 0004 274E     		ldr	r6, .L57
 428              		.loc 1 113 78 view .LVU116
 429 0006 8CB0     		sub	sp, sp, #48
 430              		.cfi_def_cfa_offset 72
 431              		.loc 1 113 78 view .LVU117
 432 0008 8046     		mov	r8, r0
 433              		.loc 1 115 3 view .LVU118
 434 000a 2748     		ldr	r0, .L57+4
 435              	.LVL31:
 436              		.loc 1 113 78 view .LVU119
 437 000c 0D46     		mov	r5, r1
 438              		.loc 1 115 3 view .LVU120
 439 000e FFF7FEFF 		bl	chMtxLock
 440              	.LVL32:
 441              		.loc 1 116 3 is_stmt 1 view .LVU121
 442              		.loc 1 116 6 is_stmt 0 view .LVU122
 443 0012 B478     		ldrb	r4, [r6, #2]	@ zero_extendqisi2
 444 0014 0CB9     		cbnz	r4, .L38
 445              		.loc 1 116 30 discriminator 1 view .LVU123
 446 0016 3378     		ldrb	r3, [r6]	@ zero_extendqisi2
 447 0018 3BB9     		cbnz	r3, .L39
 448              	.L38:
 449              		.loc 1 117 5 is_stmt 1 view .LVU124
 450              		.loc 1 118 12 is_stmt 0 view .LVU125
 451 001a 0027     		movs	r7, #0
 452              		.loc 1 117 5 view .LVU126
 453 001c 2248     		ldr	r0, .L57+4
 454 001e FFF7FEFF 		bl	chMtxUnlock
 455              	.LVL33:
 456              		.loc 1 118 5 is_stmt 1 view .LVU127
ARM GAS  C:\Users\DEVELO~1\AppData\Local\Temp\ccl8MZFw.s 			page 9


 457              		.loc 1 146 1 is_stmt 0 view .LVU128
 458 0022 3846     		mov	r0, r7
 459 0024 0CB0     		add	sp, sp, #48
 460              		.cfi_remember_state
 461              		.cfi_def_cfa_offset 24
 462              		@ sp needed
 463 0026 BDE8F081 		pop	{r4, r5, r6, r7, r8, pc}
 464              	.LVL34:
 465              	.L39:
 466              		.cfi_restore_state
 467              		.loc 1 120 3 is_stmt 1 view .LVU129
 468              		.loc 1 120 26 is_stmt 0 view .LVU130
 469 002a 0123     		movs	r3, #1
 470              		.loc 1 121 3 view .LVU131
 471 002c 1E48     		ldr	r0, .L57+4
 472              		.loc 1 120 26 view .LVU132
 473 002e B370     		strb	r3, [r6, #2]
 474              		.loc 1 121 3 is_stmt 1 view .LVU133
 475 0030 FFF7FEFF 		bl	chMtxUnlock
 476              	.LVL35:
 477              		.loc 1 123 3 view .LVU134
 478              		.loc 1 123 24 is_stmt 0 view .LVU135
 479 0034 2146     		mov	r1, r4
 480 0036 3022     		movs	r2, #48
 481 0038 6846     		mov	r0, sp
 482 003a FFF7FEFF 		bl	memset
 483              	.LVL36:
 484              		.loc 1 124 3 is_stmt 1 view .LVU136
 485              		.loc 1 127 13 is_stmt 0 view .LVU137
 486 003e 6846     		mov	r0, sp
 487              		.loc 1 124 12 view .LVU138
 488 0040 8DF80080 		strb	r8, [sp]
 489              		.loc 1 125 3 is_stmt 1 view .LVU139
 490              		.loc 1 127 3 view .LVU140
 491              		.loc 1 127 13 is_stmt 0 view .LVU141
 492 0044 FFF7FEFF 		bl	sdram_bist_start
 493              	.LVL37:
 494 0048 0746     		mov	r7, r0
 495              	.LVL38:
 496              		.loc 1 129 3 is_stmt 1 view .LVU142
 497 004a 1748     		ldr	r0, .L57+4
 498 004c FFF7FEFF 		bl	chMtxLock
 499              	.LVL39:
 500              		.loc 1 130 3 view .LVU143
 501              		.loc 1 130 26 is_stmt 0 view .LVU144
 502 0050 B470     		strb	r4, [r6, #2]
 503              		.loc 1 131 3 is_stmt 1 view .LVU145
 504              		.loc 1 131 30 is_stmt 0 view .LVU146
 505 0052 03AC     		add	r4, sp, #12
 506 0054 06F1040E 		add	lr, r6, #4
 507 0058 0FCC     		ldmia	r4!, {r0, r1, r2, r3}
 508 005a AEE80F00 		stmia	lr!, {r0, r1, r2, r3}
 509 005e 94E80F00 		ldm	r4, {r0, r1, r2, r3}
 510 0062 8EE80F00 		stm	lr, {r0, r1, r2, r3}
 511              		.loc 1 133 3 is_stmt 1 view .LVU147
 512              		.loc 1 133 6 is_stmt 0 view .LVU148
 513 0066 C7B9     		cbnz	r7, .L56
ARM GAS  C:\Users\DEVELO~1\AppData\Local\Temp\ccl8MZFw.s 			page 10


 514              	.L41:
 515              		.loc 1 134 5 is_stmt 1 view .LVU149
 516              		.loc 1 136 25 is_stmt 0 view .LVU150
 517 0068 B8F1010F 		cmp	r8, #1
 518 006c 0CBF     		ite	eq
 519 006e 0423     		moveq	r3, #4
 520 0070 0323     		movne	r3, #3
 521              		.loc 1 134 21 view .LVU151
 522 0072 3370     		strb	r3, [r6]
 523              		.loc 1 137 5 is_stmt 1 view .LVU152
 524              		.loc 1 137 26 is_stmt 0 view .LVU153
 525 0074 0423     		movs	r3, #4
 526 0076 7370     		strb	r3, [r6, #1]
 527              	.L42:
 528              		.loc 1 140 3 is_stmt 1 view .LVU154
 529              		.loc 1 140 6 is_stmt 0 view .LVU155
 530 0078 45B1     		cbz	r5, .L44
 531              		.loc 1 141 5 is_stmt 1 view .LVU156
 532              		.loc 1 141 17 is_stmt 0 view .LVU157
 533 007a 03AC     		add	r4, sp, #12
 534 007c AC46     		mov	ip, r5
 535 007e 0FCC     		ldmia	r4!, {r0, r1, r2, r3}
 536 0080 ACE80F00 		stmia	ip!, {r0, r1, r2, r3}
 537 0084 94E80F00 		ldm	r4, {r0, r1, r2, r3}
 538 0088 8CE80F00 		stm	ip, {r0, r1, r2, r3}
 539              	.L44:
 540              		.loc 1 143 3 is_stmt 1 view .LVU158
 541 008c 0648     		ldr	r0, .L57+4
 542 008e FFF7FEFF 		bl	chMtxUnlock
 543              	.LVL40:
 544              		.loc 1 145 3 view .LVU159
 545              		.loc 1 146 1 is_stmt 0 view .LVU160
 546 0092 3846     		mov	r0, r7
 547 0094 0CB0     		add	sp, sp, #48
 548              		.cfi_remember_state
 549              		.cfi_def_cfa_offset 24
 550              		@ sp needed
 551 0096 BDE8F081 		pop	{r4, r5, r6, r7, r8, pc}
 552              	.LVL41:
 553              	.L56:
 554              		.cfi_restore_state
 555              		.loc 1 133 11 discriminator 1 view .LVU161
 556 009a 9DF80C30 		ldrb	r3, [sp, #12]	@ zero_extendqisi2
 557 009e 002B     		cmp	r3, #0
 558 00a0 EAD0     		beq	.L42
 559 00a2 E1E7     		b	.L41
 560              	.L58:
 561              		.align	2
 562              	.L57:
 563 00a4 00000000 		.word	.LANCHOR1
 564 00a8 00000000 		.word	.LANCHOR0
 565              		.cfi_endproc
 566              	.LFE438:
 567              		.size	sdram_run_bist, .-sdram_run_bist
 568              		.section	.text.sdram_get_region,"ax",%progbits
 569              		.align	1
 570              		.p2align 4,,15
ARM GAS  C:\Users\DEVELO~1\AppData\Local\Temp\ccl8MZFw.s 			page 11


 571              		.global	sdram_get_region
 572              		.syntax unified
 573              		.thumb
 574              		.thumb_func
 575              		.type	sdram_get_region, %function
 576              	sdram_get_region:
 577              	.LVL42:
 578              	.LFB439:
 579              		.loc 1 149 54 is_stmt 1 view -0
 580              		.cfi_startproc
 581              		@ args = 0, pretend = 0, frame = 0
 582              		@ frame_needed = 0, uses_anonymous_args = 0
 583              		.loc 1 151 3 view .LVU163
 584              		.loc 1 149 54 is_stmt 0 view .LVU164
 585 0000 38B5     		push	{r3, r4, r5, lr}
 586              		.cfi_def_cfa_offset 16
 587              		.cfi_offset 3, -16
 588              		.cfi_offset 4, -12
 589              		.cfi_offset 5, -8
 590              		.cfi_offset 14, -4
 591              		.loc 1 151 6 view .LVU165
 592 0002 0C46     		mov	r4, r1
 593 0004 21B3     		cbz	r1, .L63
 594 0006 0546     		mov	r5, r0
 595              		.loc 1 153 3 is_stmt 1 view .LVU166
 596 0008 1248     		ldr	r0, .L68
 597              	.LVL43:
 598              		.loc 1 153 3 is_stmt 0 view .LVU167
 599 000a FFF7FEFF 		bl	chMtxLock
 600              	.LVL44:
 601              		.loc 1 154 3 is_stmt 1 view .LVU168
 602              		.loc 1 154 16 is_stmt 0 view .LVU169
 603 000e 124B     		ldr	r3, .L68+4
 604              		.loc 1 155 5 view .LVU170
 605 0010 1048     		ldr	r0, .L68
 606              		.loc 1 154 6 view .LVU171
 607 0012 1A78     		ldrb	r2, [r3]	@ zero_extendqisi2
 608 0014 042A     		cmp	r2, #4
 609 0016 01D0     		beq	.L61
 610              		.loc 1 154 38 discriminator 1 view .LVU172
 611 0018 9B78     		ldrb	r3, [r3, #2]	@ zero_extendqisi2
 612 001a 53B1     		cbz	r3, .L62
 613              	.L61:
 614              		.loc 1 155 5 is_stmt 1 view .LVU173
 615 001c FFF7FEFF 		bl	chMtxUnlock
 616              	.LVL45:
 617              		.loc 1 156 5 view .LVU174
 618              	.LBB12:
 619              	.LBI12:
 620              		.loc 1 25 13 view .LVU175
 621              	.LBB13:
 622              		.loc 1 26 3 view .LVU176
 623              		.loc 1 27 3 view .LVU177
 624              		.loc 1 28 14 is_stmt 0 view .LVU178
 625 0020 0023     		movs	r3, #0
 626              		.loc 1 27 12 view .LVU179
 627 0022 0422     		movs	r2, #4
ARM GAS  C:\Users\DEVELO~1\AppData\Local\Temp\ccl8MZFw.s 			page 12


 628              	.LBE13:
 629              	.LBE12:
 630              		.loc 1 157 12 view .LVU180
 631 0024 1846     		mov	r0, r3
 632              	.LBB15:
 633              	.LBB14:
 634              		.loc 1 28 14 view .LVU181
 635 0026 6360     		str	r3, [r4, #4]
 636              		.loc 1 27 12 view .LVU182
 637 0028 2270     		strb	r2, [r4]
 638              		.loc 1 28 3 is_stmt 1 view .LVU183
 639              		.loc 1 29 3 view .LVU184
 640              		.loc 1 31 25 is_stmt 0 view .LVU185
 641 002a 2361     		str	r3, [r4, #16]
 642              		.loc 1 30 15 view .LVU186
 643 002c C4E90233 		strd	r3, r3, [r4, #8]
 644              		.loc 1 31 3 is_stmt 1 view .LVU187
 645              	.LVL46:
 646              		.loc 1 31 3 is_stmt 0 view .LVU188
 647              	.LBE14:
 648              	.LBE15:
 649              		.loc 1 157 5 is_stmt 1 view .LVU189
 650              	.L60:
 651              		.loc 1 167 1 is_stmt 0 view .LVU190
 652 0030 38BD     		pop	{r3, r4, r5, pc}
 653              	.LVL47:
 654              	.L62:
 655              		.loc 1 159 3 is_stmt 1 view .LVU191
 656 0032 FFF7FEFF 		bl	chMtxUnlock
 657              	.LVL48:
 658              		.loc 1 161 3 view .LVU192
 659              		.loc 1 161 8 is_stmt 0 view .LVU193
 660 0036 2146     		mov	r1, r4
 661 0038 2846     		mov	r0, r5
 662 003a FFF7FEFF 		bl	sdram_query_region_descriptor
 663              	.LVL49:
 664              		.loc 1 161 6 view .LVU194
 665 003e 0028     		cmp	r0, #0
 666 0040 F6D1     		bne	.L60
 667              		.loc 1 162 5 is_stmt 1 view .LVU195
 668              	.LVL50:
 669              	.LBB16:
 670              	.LBI16:
 671              		.loc 1 25 13 view .LVU196
 672              	.LBB17:
 673              		.loc 1 26 3 view .LVU197
 674              		.loc 1 27 3 view .LVU198
 675              		.loc 1 27 12 is_stmt 0 view .LVU199
 676 0042 0423     		movs	r3, #4
 677              		.loc 1 30 15 view .LVU200
 678 0044 E060     		str	r0, [r4, #12]
 679              		.loc 1 31 25 view .LVU201
 680 0046 2061     		str	r0, [r4, #16]
 681              		.loc 1 27 12 view .LVU202
 682 0048 2370     		strb	r3, [r4]
 683              		.loc 1 28 3 is_stmt 1 view .LVU203
 684              		.loc 1 29 3 view .LVU204
ARM GAS  C:\Users\DEVELO~1\AppData\Local\Temp\ccl8MZFw.s 			page 13


 685              		.loc 1 30 3 view .LVU205
 686              		.loc 1 31 3 view .LVU206
 687              	.LVL51:
 688              		.loc 1 31 3 is_stmt 0 view .LVU207
 689              	.LBE17:
 690              	.LBE16:
 691              		.loc 1 163 5 is_stmt 1 view .LVU208
 692              	.LBB19:
 693              	.LBB18:
 694              		.loc 1 29 20 is_stmt 0 view .LVU209
 695 004a C4E90100 		strd	r0, r0, [r4, #4]
 696              	.LBE18:
 697              	.LBE19:
 698              		.loc 1 167 1 view .LVU210
 699 004e 38BD     		pop	{r3, r4, r5, pc}
 700              	.LVL52:
 701              	.L63:
 702              		.loc 1 151 25 view .LVU211
 703 0050 0846     		mov	r0, r1
 704              	.LVL53:
 705              		.loc 1 167 1 view .LVU212
 706 0052 38BD     		pop	{r3, r4, r5, pc}
 707              	.L69:
 708              		.align	2
 709              	.L68:
 710 0054 00000000 		.word	.LANCHOR0
 711 0058 00000000 		.word	.LANCHOR1
 712              		.cfi_endproc
 713              	.LFE439:
 714              		.size	sdram_get_region, .-sdram_get_region
 715              		.global	sdram_ctx_mtx
 716              		.global	sdram_ctx
 717              		.section	.bss.sdram_ctx,"aw",%nobits
 718              		.align	2
 719              		.set	.LANCHOR1,. + 0
 720              		.type	sdram_ctx, %object
 721              		.size	sdram_ctx, 36
 722              	sdram_ctx:
 723 0000 00000000 		.space	36
 723      00000000 
 723      00000000 
 723      00000000 
 723      00000000 
 724              		.section	.data.sdram_ctx_mtx,"aw"
 725              		.align	2
 726              		.set	.LANCHOR0,. + 0
 727              		.type	sdram_ctx_mtx, %object
 728              		.size	sdram_ctx_mtx, 16
 729              	sdram_ctx_mtx:
 730 0000 00000000 		.word	sdram_ctx_mtx
 731 0004 00000000 		.word	sdram_ctx_mtx
 732 0008 00000000 		.word	0
 733 000c 00000000 		.word	0
 734              		.text
 735              	.Letext0:
 736              		.file 2 "c:\\chibistudio\\tools\\gnu tools arm embedded\\11.3 2022.08\\arm-none-eabi\\include\\mac
 737              		.file 3 "c:\\chibistudio\\tools\\gnu tools arm embedded\\11.3 2022.08\\arm-none-eabi\\include\\sys
ARM GAS  C:\Users\DEVELO~1\AppData\Local\Temp\ccl8MZFw.s 			page 14


 738              		.file 4 "../../../os/common/ports/ARM-common/chtypes.h"
 739              		.file 5 "../../../os/rt/include/chearly.h"
 740              		.file 6 "../../../os/rt/include/chobjects.h"
 741              		.file 7 "../../../os/rt/include/chrfcu.h"
 742              		.file 8 "../../../os/rt/include/chdebug.h"
 743              		.file 9 "../../../os/rt/include/chtime.h"
 744              		.file 10 "../../../os/rt/include/chlists.h"
 745              		.file 11 "../../../os/rt/include/chtrace.h"
 746              		.file 12 "../../../os/common/ports/ARMv7-M/chcore.h"
 747              		.file 13 "../../../os/rt/include/chsem.h"
 748              		.file 14 "../../../os/rt/include/chmtx.h"
 749              		.file 15 "drivers/sdram/sdram_driver.h"
 750              		.file 16 "drivers/sdram/sdram_driver_priv.h"
 751              		.file 17 "<built-in>"
 752              		.section	.debug_info,"",%progbits
 753              	.Ldebug_info0:
 754 0000 BE100000 		.4byte	0x10be
 755 0004 0500     		.2byte	0x5
 756 0006 01       		.byte	0x1
 757 0007 04       		.byte	0x4
 758 0008 00000000 		.4byte	.Ldebug_abbrev0
 759 000c 23       		.uleb128 0x23
 760 000d 13040000 		.4byte	.LASF200
 761 0011 1D       		.byte	0x1d
 762 0012 030B0000 		.4byte	.LASF201
 763 0016 78000000 		.4byte	.LASF202
 764 001a 30000000 		.4byte	.LLRL16
 765 001e 00000000 		.4byte	0
 766 0022 00000000 		.4byte	.Ldebug_line0
 767 0026 24       		.uleb128 0x24
 768 0027 04       		.byte	0x4
 769 0028 05       		.byte	0x5
 770 0029 696E7400 		.ascii	"int\000"
 771 002d 08       		.uleb128 0x8
 772 002e 04       		.byte	0x4
 773 002f 07       		.byte	0x7
 774 0030 9F030000 		.4byte	.LASF0
 775 0034 08       		.uleb128 0x8
 776 0035 08       		.byte	0x8
 777 0036 05       		.byte	0x5
 778 0037 96020000 		.4byte	.LASF1
 779 003b 08       		.uleb128 0x8
 780 003c 08       		.byte	0x8
 781 003d 04       		.byte	0x4
 782 003e 4C080000 		.4byte	.LASF2
 783 0042 08       		.uleb128 0x8
 784 0043 01       		.byte	0x1
 785 0044 06       		.byte	0x6
 786 0045 62000000 		.4byte	.LASF3
 787 0049 02       		.uleb128 0x2
 788 004a 6E000000 		.4byte	.LASF6
 789 004e 02       		.byte	0x2
 790 004f 2B       		.byte	0x2b
 791 0050 18       		.byte	0x18
 792 0051 55000000 		.4byte	0x55
 793 0055 08       		.uleb128 0x8
 794 0056 01       		.byte	0x1
ARM GAS  C:\Users\DEVELO~1\AppData\Local\Temp\ccl8MZFw.s 			page 15


 795 0057 08       		.byte	0x8
 796 0058 7F070000 		.4byte	.LASF4
 797 005c 08       		.uleb128 0x8
 798 005d 02       		.byte	0x2
 799 005e 05       		.byte	0x5
 800 005f 94070000 		.4byte	.LASF5
 801 0063 02       		.uleb128 0x2
 802 0064 82080000 		.4byte	.LASF7
 803 0068 02       		.byte	0x2
 804 0069 39       		.byte	0x39
 805 006a 19       		.byte	0x19
 806 006b 6F000000 		.4byte	0x6f
 807 006f 08       		.uleb128 0x8
 808 0070 02       		.byte	0x2
 809 0071 07       		.byte	0x7
 810 0072 FE040000 		.4byte	.LASF8
 811 0076 02       		.uleb128 0x2
 812 0077 8C050000 		.4byte	.LASF9
 813 007b 02       		.byte	0x2
 814 007c 4D       		.byte	0x4d
 815 007d 18       		.byte	0x18
 816 007e 82000000 		.4byte	0x82
 817 0082 08       		.uleb128 0x8
 818 0083 04       		.byte	0x4
 819 0084 05       		.byte	0x5
 820 0085 73020000 		.4byte	.LASF10
 821 0089 02       		.uleb128 0x2
 822 008a 1B030000 		.4byte	.LASF11
 823 008e 02       		.byte	0x2
 824 008f 4F       		.byte	0x4f
 825 0090 19       		.byte	0x19
 826 0091 95000000 		.4byte	0x95
 827 0095 08       		.uleb128 0x8
 828 0096 04       		.byte	0x4
 829 0097 07       		.byte	0x7
 830 0098 DF030000 		.4byte	.LASF12
 831 009c 02       		.uleb128 0x2
 832 009d 07070000 		.4byte	.LASF13
 833 00a1 02       		.byte	0x2
 834 00a2 69       		.byte	0x69
 835 00a3 19       		.byte	0x19
 836 00a4 A8000000 		.4byte	0xa8
 837 00a8 08       		.uleb128 0x8
 838 00a9 08       		.byte	0x8
 839 00aa 07       		.byte	0x7
 840 00ab 26020000 		.4byte	.LASF14
 841 00af 02       		.uleb128 0x2
 842 00b0 BC070000 		.4byte	.LASF15
 843 00b4 02       		.byte	0x2
 844 00b5 E8       		.byte	0xe8
 845 00b6 1A       		.byte	0x1a
 846 00b7 2D000000 		.4byte	0x2d
 847 00bb 02       		.uleb128 0x2
 848 00bc 2F0A0000 		.4byte	.LASF16
 849 00c0 03       		.byte	0x3
 850 00c1 18       		.byte	0x18
 851 00c2 13       		.byte	0x13
ARM GAS  C:\Users\DEVELO~1\AppData\Local\Temp\ccl8MZFw.s 			page 16


 852 00c3 49000000 		.4byte	0x49
 853 00c7 02       		.uleb128 0x2
 854 00c8 A4020000 		.4byte	.LASF17
 855 00cc 03       		.byte	0x3
 856 00cd 24       		.byte	0x24
 857 00ce 14       		.byte	0x14
 858 00cf 63000000 		.4byte	0x63
 859 00d3 02       		.uleb128 0x2
 860 00d4 77070000 		.4byte	.LASF18
 861 00d8 03       		.byte	0x3
 862 00d9 2C       		.byte	0x2c
 863 00da 13       		.byte	0x13
 864 00db 76000000 		.4byte	0x76
 865 00df 02       		.uleb128 0x2
 866 00e0 18080000 		.4byte	.LASF19
 867 00e4 03       		.byte	0x3
 868 00e5 30       		.byte	0x30
 869 00e6 14       		.byte	0x14
 870 00e7 89000000 		.4byte	0x89
 871 00eb 02       		.uleb128 0x2
 872 00ec 7D060000 		.4byte	.LASF20
 873 00f0 03       		.byte	0x3
 874 00f1 3C       		.byte	0x3c
 875 00f2 14       		.byte	0x14
 876 00f3 9C000000 		.4byte	0x9c
 877 00f7 16       		.uleb128 0x16
 878 00f8 EB000000 		.4byte	0xeb
 879 00fc 02       		.uleb128 0x2
 880 00fd 35000000 		.4byte	.LASF21
 881 0101 03       		.byte	0x3
 882 0102 52       		.byte	0x52
 883 0103 15       		.byte	0x15
 884 0104 AF000000 		.4byte	0xaf
 885 0108 02       		.uleb128 0x2
 886 0109 28080000 		.4byte	.LASF22
 887 010d 04       		.byte	0x4
 888 010e 48       		.byte	0x48
 889 010f 1D       		.byte	0x1d
 890 0110 EB000000 		.4byte	0xeb
 891 0114 02       		.uleb128 0x2
 892 0115 A1050000 		.4byte	.LASF23
 893 0119 05       		.byte	0x5
 894 011a 50       		.byte	0x50
 895 011b 19       		.byte	0x19
 896 011c 08010000 		.4byte	0x108
 897 0120 02       		.uleb128 0x2
 898 0121 62050000 		.4byte	.LASF24
 899 0125 05       		.byte	0x5
 900 0126 53       		.byte	0x53
 901 0127 19       		.byte	0x19
 902 0128 BB000000 		.4byte	0xbb
 903 012c 02       		.uleb128 0x2
 904 012d 7C020000 		.4byte	.LASF25
 905 0131 05       		.byte	0x5
 906 0132 54       		.byte	0x54
 907 0133 19       		.byte	0x19
 908 0134 BB000000 		.4byte	0xbb
ARM GAS  C:\Users\DEVELO~1\AppData\Local\Temp\ccl8MZFw.s 			page 17


 909 0138 02       		.uleb128 0x2
 910 0139 22070000 		.4byte	.LASF26
 911 013d 05       		.byte	0x5
 912 013e 55       		.byte	0x55
 913 013f 19       		.byte	0x19
 914 0140 BB000000 		.4byte	0xbb
 915 0144 02       		.uleb128 0x2
 916 0145 59070000 		.4byte	.LASF27
 917 0149 05       		.byte	0x5
 918 014a 57       		.byte	0x57
 919 014b 19       		.byte	0x19
 920 014c DF000000 		.4byte	0xdf
 921 0150 02       		.uleb128 0x2
 922 0151 3E050000 		.4byte	.LASF28
 923 0155 05       		.byte	0x5
 924 0156 58       		.byte	0x58
 925 0157 19       		.byte	0x19
 926 0158 D3000000 		.4byte	0xd3
 927 015c 02       		.uleb128 0x2
 928 015d 80050000 		.4byte	.LASF29
 929 0161 05       		.byte	0x5
 930 0162 5A       		.byte	0x5a
 931 0163 19       		.byte	0x19
 932 0164 DF000000 		.4byte	0xdf
 933 0168 02       		.uleb128 0x2
 934 0169 90030000 		.4byte	.LASF30
 935 016d 05       		.byte	0x5
 936 016e 5C       		.byte	0x5c
 937 016f 19       		.byte	0x19
 938 0170 D3000000 		.4byte	0xd3
 939 0174 02       		.uleb128 0x2
 940 0175 18070000 		.4byte	.LASF31
 941 0179 05       		.byte	0x5
 942 017a 80       		.byte	0x80
 943 017b 12       		.byte	0x12
 944 017c 2D000000 		.4byte	0x2d
 945 0180 02       		.uleb128 0x2
 946 0181 A4080000 		.4byte	.LASF32
 947 0185 05       		.byte	0x5
 948 0186 85       		.byte	0x85
 949 0187 1A       		.byte	0x1a
 950 0188 8C010000 		.4byte	0x18c
 951 018c 0A       		.uleb128 0xa
 952 018d 29050000 		.4byte	.LASF47
 953 0191 48       		.byte	0x48
 954 0192 06       		.byte	0x6
 955 0193 9C       		.byte	0x9c
 956 0194 08       		.byte	0x8
 957 0195 69020000 		.4byte	0x269
 958 0199 0B       		.uleb128 0xb
 959 019a 68647200 		.ascii	"hdr\000"
 960 019e 06       		.byte	0x6
 961 019f AD       		.byte	0xad
 962 01a0 05       		.byte	0x5
 963 01a1 1F070000 		.4byte	0x71f
 964 01a5 00       		.byte	0
 965 01a6 0B       		.uleb128 0xb
ARM GAS  C:\Users\DEVELO~1\AppData\Local\Temp\ccl8MZFw.s 			page 18


 966 01a7 63747800 		.ascii	"ctx\000"
 967 01ab 06       		.byte	0x6
 968 01ac B1       		.byte	0xb1
 969 01ad 21       		.byte	0x21
 970 01ae 8A060000 		.4byte	0x68a
 971 01b2 0C       		.byte	0xc
 972 01b3 01       		.uleb128 0x1
 973 01b4 F1030000 		.4byte	.LASF33
 974 01b8 06       		.byte	0x6
 975 01b9 B6       		.byte	0xb6
 976 01ba 21       		.byte	0x21
 977 01bb AF030000 		.4byte	0x3af
 978 01bf 10       		.byte	0x10
 979 01c0 01       		.uleb128 0x1
 980 01c1 38080000 		.4byte	.LASF34
 981 01c5 06       		.byte	0x6
 982 01c6 BB       		.byte	0xbb
 983 01c7 22       		.byte	0x22
 984 01c8 21080000 		.4byte	0x821
 985 01cc 18       		.byte	0x18
 986 01cd 01       		.uleb128 0x1
 987 01ce C8040000 		.4byte	.LASF35
 988 01d2 06       		.byte	0x6
 989 01d3 C0       		.byte	0xc0
 990 01d4 22       		.byte	0x22
 991 01d5 49030000 		.4byte	0x349
 992 01d9 1C       		.byte	0x1c
 993 01da 01       		.uleb128 0x1
 994 01db 58080000 		.4byte	.LASF36
 995 01df 06       		.byte	0x6
 996 01e0 C9       		.byte	0xc9
 997 01e1 22       		.byte	0x22
 998 01e2 26080000 		.4byte	0x826
 999 01e6 20       		.byte	0x20
 1000 01e7 01       		.uleb128 0x1
 1001 01e8 62020000 		.4byte	.LASF37
 1002 01ec 06       		.byte	0x6
 1003 01ed CE       		.byte	0xce
 1004 01ee 21       		.byte	0x21
 1005 01ef 2C010000 		.4byte	0x12c
 1006 01f3 24       		.byte	0x24
 1007 01f4 01       		.uleb128 0x1
 1008 01f5 370A0000 		.4byte	.LASF38
 1009 01f9 06       		.byte	0x6
 1010 01fa D2       		.byte	0xd2
 1011 01fb 21       		.byte	0x21
 1012 01fc 20010000 		.4byte	0x120
 1013 0200 25       		.byte	0x25
 1014 0201 01       		.uleb128 0x1
 1015 0202 2A070000 		.4byte	.LASF39
 1016 0206 06       		.byte	0x6
 1017 0207 D7       		.byte	0xd7
 1018 0208 21       		.byte	0x21
 1019 0209 38010000 		.4byte	0x138
 1020 020d 26       		.byte	0x26
 1021 020e 09       		.uleb128 0x9
 1022 020f 7500     		.ascii	"u\000"
ARM GAS  C:\Users\DEVELO~1\AppData\Local\Temp\ccl8MZFw.s 			page 19


 1023 0211 06       		.byte	0x6
 1024 0212 2801     		.2byte	0x128
 1025 0214 21       		.byte	0x21
 1026 0215 4C070000 		.4byte	0x74c
 1027 0219 28       		.byte	0x28
 1028 021a 05       		.uleb128 0x5
 1029 021b 3F030000 		.4byte	.LASF40
 1030 021f 2D01     		.2byte	0x12d
 1031 0221 21       		.byte	0x21
 1032 0222 83030000 		.4byte	0x383
 1033 0226 2C       		.byte	0x2c
 1034 0227 05       		.uleb128 0x5
 1035 0228 96030000 		.4byte	.LASF41
 1036 022c 3301     		.2byte	0x133
 1037 022e 21       		.byte	0x21
 1038 022f AF030000 		.4byte	0x3af
 1039 0233 30       		.byte	0x30
 1040 0234 05       		.uleb128 0x5
 1041 0235 44050000 		.4byte	.LASF42
 1042 0239 3901     		.2byte	0x139
 1043 023b 21       		.byte	0x21
 1044 023c 5C010000 		.4byte	0x15c
 1045 0240 38       		.byte	0x38
 1046 0241 05       		.uleb128 0x5
 1047 0242 E80A0000 		.4byte	.LASF43
 1048 0246 4001     		.2byte	0x140
 1049 0248 22       		.byte	0x22
 1050 0249 1C080000 		.4byte	0x81c
 1051 024d 3C       		.byte	0x3c
 1052 024e 05       		.uleb128 0x5
 1053 024f C3050000 		.4byte	.LASF44
 1054 0253 4401     		.2byte	0x144
 1055 0255 21       		.byte	0x21
 1056 0256 44010000 		.4byte	0x144
 1057 025a 40       		.byte	0x40
 1058 025b 05       		.uleb128 0x5
 1059 025c D3040000 		.4byte	.LASF45
 1060 0260 4B01     		.2byte	0x14b
 1061 0262 22       		.byte	0x22
 1062 0263 9D040000 		.4byte	0x49d
 1063 0267 44       		.byte	0x44
 1064 0268 00       		.byte	0
 1065 0269 02       		.uleb128 0x2
 1066 026a 15090000 		.4byte	.LASF46
 1067 026e 05       		.byte	0x5
 1068 026f 8A       		.byte	0x8a
 1069 0270 1F       		.byte	0x1f
 1070 0271 75020000 		.4byte	0x275
 1071 0275 25       		.uleb128 0x25
 1072 0276 06090000 		.4byte	.LASF48
 1073 027a 9008     		.2byte	0x890
 1074 027c 06       		.byte	0x6
 1075 027d 8A01     		.2byte	0x18a
 1076 027f 08       		.byte	0x8
 1077 0280 FB020000 		.4byte	0x2fb
 1078 0284 05       		.uleb128 0x5
 1079 0285 290A0000 		.4byte	.LASF49
ARM GAS  C:\Users\DEVELO~1\AppData\Local\Temp\ccl8MZFw.s 			page 20


 1080 0289 8E01     		.2byte	0x18e
 1081 028b 21       		.byte	0x21
 1082 028c 54080000 		.4byte	0x854
 1083 0290 00       		.byte	0
 1084 0291 05       		.uleb128 0x5
 1085 0292 DA000000 		.4byte	.LASF50
 1086 0296 9201     		.2byte	0x192
 1087 0298 21       		.byte	0x21
 1088 0299 E0060000 		.4byte	0x6e0
 1089 029d 10       		.byte	0x10
 1090 029e 05       		.uleb128 0x5
 1091 029f 3B090000 		.4byte	.LASF51
 1092 02a3 9901     		.2byte	0x199
 1093 02a5 21       		.byte	0x21
 1094 02a6 07070000 		.4byte	0x707
 1095 02aa 28       		.byte	0x28
 1096 02ab 05       		.uleb128 0x5
 1097 02ac C8070000 		.4byte	.LASF52
 1098 02b0 9E01     		.2byte	0x19e
 1099 02b2 21       		.byte	0x21
 1100 02b3 74010000 		.4byte	0x174
 1101 02b7 30       		.byte	0x30
 1102 02b8 05       		.uleb128 0x5
 1103 02b9 5D000000 		.4byte	.LASF53
 1104 02bd A401     		.2byte	0x1a4
 1105 02bf 21       		.byte	0x21
 1106 02c0 22030000 		.4byte	0x322
 1107 02c4 34       		.byte	0x34
 1108 02c5 05       		.uleb128 0x5
 1109 02c6 7B080000 		.4byte	.LASF54
 1110 02ca A901     		.2byte	0x1a9
 1111 02cc 22       		.byte	0x22
 1112 02cd BF080000 		.4byte	0x8bf
 1113 02d1 38       		.byte	0x38
 1114 02d2 05       		.uleb128 0x5
 1115 02d3 5E010000 		.4byte	.LASF55
 1116 02d7 AD01     		.2byte	0x1ad
 1117 02d9 21       		.byte	0x21
 1118 02da 80010000 		.4byte	0x180
 1119 02de 3C       		.byte	0x3c
 1120 02df 09       		.uleb128 0x9
 1121 02e0 64626700 		.ascii	"dbg\000"
 1122 02e4 06       		.byte	0x6
 1123 02e5 B101     		.2byte	0x1b1
 1124 02e7 21       		.byte	0x21
 1125 02e8 5F030000 		.4byte	0x35f
 1126 02ec 84       		.byte	0x84
 1127 02ed 05       		.uleb128 0x5
 1128 02ee B40A0000 		.4byte	.LASF56
 1129 02f2 B601     		.2byte	0x1b6
 1130 02f4 21       		.byte	0x21
 1131 02f5 F8050000 		.4byte	0x5f8
 1132 02f9 88       		.byte	0x88
 1133 02fa 00       		.byte	0
 1134 02fb 02       		.uleb128 0x2
 1135 02fc CC050000 		.4byte	.LASF57
 1136 0300 07       		.byte	0x7
ARM GAS  C:\Users\DEVELO~1\AppData\Local\Temp\ccl8MZFw.s 			page 21


 1137 0301 3F       		.byte	0x3f
 1138 0302 12       		.byte	0x12
 1139 0303 DF000000 		.4byte	0xdf
 1140 0307 0A       		.uleb128 0xa
 1141 0308 85020000 		.4byte	.LASF58
 1142 030c 04       		.byte	0x4
 1143 030d 07       		.byte	0x7
 1144 030e 44       		.byte	0x44
 1145 030f 10       		.byte	0x10
 1146 0310 22030000 		.4byte	0x322
 1147 0314 01       		.uleb128 0x1
 1148 0315 26030000 		.4byte	.LASF59
 1149 0319 07       		.byte	0x7
 1150 031a 48       		.byte	0x48
 1151 031b 21       		.byte	0x21
 1152 031c FB020000 		.4byte	0x2fb
 1153 0320 00       		.byte	0
 1154 0321 00       		.byte	0
 1155 0322 02       		.uleb128 0x2
 1156 0323 8D070000 		.4byte	.LASF60
 1157 0327 07       		.byte	0x7
 1158 0328 49       		.byte	0x49
 1159 0329 03       		.byte	0x3
 1160 032a 07030000 		.4byte	0x307
 1161 032e 0A       		.uleb128 0xa
 1162 032f 61070000 		.4byte	.LASF61
 1163 0333 04       		.byte	0x4
 1164 0334 08       		.byte	0x8
 1165 0335 3E       		.byte	0x3e
 1166 0336 10       		.byte	0x10
 1167 0337 49030000 		.4byte	0x349
 1168 033b 01       		.uleb128 0x1
 1169 033c F5080000 		.4byte	.LASF62
 1170 0340 08       		.byte	0x8
 1171 0341 46       		.byte	0x46
 1172 0342 24       		.byte	0x24
 1173 0343 4E030000 		.4byte	0x34e
 1174 0347 00       		.byte	0
 1175 0348 00       		.byte	0
 1176 0349 07       		.uleb128 0x7
 1177 034a 5A030000 		.4byte	0x35a
 1178 034e 16       		.uleb128 0x16
 1179 034f 49030000 		.4byte	0x349
 1180 0353 08       		.uleb128 0x8
 1181 0354 01       		.byte	0x1
 1182 0355 08       		.byte	0x8
 1183 0356 5F080000 		.4byte	.LASF63
 1184 035a 17       		.uleb128 0x17
 1185 035b 53030000 		.4byte	0x353
 1186 035f 02       		.uleb128 0x2
 1187 0360 D0030000 		.4byte	.LASF64
 1188 0364 08       		.byte	0x8
 1189 0365 51       		.byte	0x51
 1190 0366 03       		.byte	0x3
 1191 0367 2E030000 		.4byte	0x32e
 1192 036b 02       		.uleb128 0x2
 1193 036c BD080000 		.4byte	.LASF65
ARM GAS  C:\Users\DEVELO~1\AppData\Local\Temp\ccl8MZFw.s 			page 22


 1194 0370 09       		.byte	0x9
 1195 0371 6D       		.byte	0x6d
 1196 0372 12       		.byte	0x12
 1197 0373 DF000000 		.4byte	0xdf
 1198 0377 02       		.uleb128 0x2
 1199 0378 82030000 		.4byte	.LASF66
 1200 037c 09       		.byte	0x9
 1201 037d 79       		.byte	0x79
 1202 037e 12       		.byte	0x12
 1203 037f DF000000 		.4byte	0xdf
 1204 0383 02       		.uleb128 0x2
 1205 0384 29060000 		.4byte	.LASF67
 1206 0388 0A       		.byte	0xa
 1207 0389 32       		.byte	0x32
 1208 038a 18       		.byte	0x18
 1209 038b 8F030000 		.4byte	0x38f
 1210 038f 0A       		.uleb128 0xa
 1211 0390 6A050000 		.4byte	.LASF68
 1212 0394 04       		.byte	0x4
 1213 0395 0A       		.byte	0xa
 1214 0396 38       		.byte	0x38
 1215 0397 08       		.byte	0x8
 1216 0398 AA030000 		.4byte	0x3aa
 1217 039c 01       		.uleb128 0x1
 1218 039d A4010000 		.4byte	.LASF69
 1219 03a1 0A       		.byte	0xa
 1220 03a2 39       		.byte	0x39
 1221 03a3 1A       		.byte	0x1a
 1222 03a4 AA030000 		.4byte	0x3aa
 1223 03a8 00       		.byte	0
 1224 03a9 00       		.byte	0
 1225 03aa 07       		.uleb128 0x7
 1226 03ab 83030000 		.4byte	0x383
 1227 03af 02       		.uleb128 0x2
 1228 03b0 F8030000 		.4byte	.LASF70
 1229 03b4 0A       		.byte	0xa
 1230 03b5 3F       		.byte	0x3f
 1231 03b6 19       		.byte	0x19
 1232 03b7 BB030000 		.4byte	0x3bb
 1233 03bb 0A       		.uleb128 0xa
 1234 03bc 8D020000 		.4byte	.LASF71
 1235 03c0 08       		.byte	0x8
 1236 03c1 0A       		.byte	0xa
 1237 03c2 45       		.byte	0x45
 1238 03c3 08       		.byte	0x8
 1239 03c4 E3030000 		.4byte	0x3e3
 1240 03c8 01       		.uleb128 0x1
 1241 03c9 A4010000 		.4byte	.LASF69
 1242 03cd 0A       		.byte	0xa
 1243 03ce 46       		.byte	0x46
 1244 03cf 1A       		.byte	0x1a
 1245 03d0 E3030000 		.4byte	0x3e3
 1246 03d4 00       		.byte	0
 1247 03d5 01       		.uleb128 0x1
 1248 03d6 1D000000 		.4byte	.LASF72
 1249 03da 0A       		.byte	0xa
 1250 03db 47       		.byte	0x47
ARM GAS  C:\Users\DEVELO~1\AppData\Local\Temp\ccl8MZFw.s 			page 23


 1251 03dc 1A       		.byte	0x1a
 1252 03dd E3030000 		.4byte	0x3e3
 1253 03e1 04       		.byte	0x4
 1254 03e2 00       		.byte	0
 1255 03e3 07       		.uleb128 0x7
 1256 03e4 AF030000 		.4byte	0x3af
 1257 03e8 02       		.uleb128 0x2
 1258 03e9 CE080000 		.4byte	.LASF73
 1259 03ed 0A       		.byte	0xa
 1260 03ee 4E       		.byte	0x4e
 1261 03ef 22       		.byte	0x22
 1262 03f0 F4030000 		.4byte	0x3f4
 1263 03f4 0A       		.uleb128 0xa
 1264 03f5 66090000 		.4byte	.LASF74
 1265 03f9 0C       		.byte	0xc
 1266 03fa 0A       		.byte	0xa
 1267 03fb 55       		.byte	0x55
 1268 03fc 08       		.byte	0x8
 1269 03fd 29040000 		.4byte	0x429
 1270 0401 01       		.uleb128 0x1
 1271 0402 A4010000 		.4byte	.LASF69
 1272 0406 0A       		.byte	0xa
 1273 0407 56       		.byte	0x56
 1274 0408 1A       		.byte	0x1a
 1275 0409 29040000 		.4byte	0x429
 1276 040d 00       		.byte	0
 1277 040e 01       		.uleb128 0x1
 1278 040f 1D000000 		.4byte	.LASF72
 1279 0413 0A       		.byte	0xa
 1280 0414 57       		.byte	0x57
 1281 0415 1A       		.byte	0x1a
 1282 0416 29040000 		.4byte	0x429
 1283 041a 04       		.byte	0x4
 1284 041b 01       		.uleb128 0x1
 1285 041c E6060000 		.4byte	.LASF75
 1286 0420 0A       		.byte	0xa
 1287 0421 58       		.byte	0x58
 1288 0422 19       		.byte	0x19
 1289 0423 44010000 		.4byte	0x144
 1290 0427 08       		.byte	0x8
 1291 0428 00       		.byte	0
 1292 0429 07       		.uleb128 0x7
 1293 042a E8030000 		.4byte	0x3e8
 1294 042e 02       		.uleb128 0x2
 1295 042f 86090000 		.4byte	.LASF76
 1296 0433 0A       		.byte	0xa
 1297 0434 5F       		.byte	0x5f
 1298 0435 1E       		.byte	0x1e
 1299 0436 3A040000 		.4byte	0x43a
 1300 043a 0A       		.uleb128 0xa
 1301 043b 0F0A0000 		.4byte	.LASF77
 1302 043f 0C       		.byte	0xc
 1303 0440 0A       		.byte	0xa
 1304 0441 64       		.byte	0x64
 1305 0442 08       		.byte	0x8
 1306 0443 6F040000 		.4byte	0x46f
 1307 0447 01       		.uleb128 0x1
ARM GAS  C:\Users\DEVELO~1\AppData\Local\Temp\ccl8MZFw.s 			page 24


 1308 0448 A4010000 		.4byte	.LASF69
 1309 044c 0A       		.byte	0xa
 1310 044d 65       		.byte	0x65
 1311 044e 1A       		.byte	0x1a
 1312 044f 6F040000 		.4byte	0x46f
 1313 0453 00       		.byte	0
 1314 0454 01       		.uleb128 0x1
 1315 0455 1D000000 		.4byte	.LASF72
 1316 0459 0A       		.byte	0xa
 1317 045a 66       		.byte	0x66
 1318 045b 1A       		.byte	0x1a
 1319 045c 6F040000 		.4byte	0x46f
 1320 0460 04       		.byte	0x4
 1321 0461 01       		.uleb128 0x1
 1322 0462 71010000 		.4byte	.LASF78
 1323 0466 0A       		.byte	0xa
 1324 0467 67       		.byte	0x67
 1325 0468 19       		.byte	0x19
 1326 0469 77030000 		.4byte	0x377
 1327 046d 08       		.byte	0x8
 1328 046e 00       		.byte	0
 1329 046f 07       		.uleb128 0x7
 1330 0470 2E040000 		.4byte	0x42e
 1331 0474 0C       		.uleb128 0xc
 1332 0475 08       		.byte	0x8
 1333 0476 0B       		.byte	0xb
 1334 0477 83       		.byte	0x83
 1335 0478 05       		.byte	0x5
 1336 0479 98040000 		.4byte	0x498
 1337 047d 0B       		.uleb128 0xb
 1338 047e 6E747000 		.ascii	"ntp\000"
 1339 0482 0B       		.byte	0xb
 1340 0483 87       		.byte	0x87
 1341 0484 1E       		.byte	0x1e
 1342 0485 98040000 		.4byte	0x498
 1343 0489 00       		.byte	0
 1344 048a 01       		.uleb128 0x1
 1345 048b AC070000 		.4byte	.LASF79
 1346 048f 0B       		.byte	0xb
 1347 0490 8B       		.byte	0x8b
 1348 0491 1E       		.byte	0x1e
 1349 0492 9D040000 		.4byte	0x49d
 1350 0496 04       		.byte	0x4
 1351 0497 00       		.byte	0
 1352 0498 07       		.uleb128 0x7
 1353 0499 80010000 		.4byte	0x180
 1354 049d 26       		.uleb128 0x26
 1355 049e 04       		.byte	0x4
 1356 049f 0C       		.uleb128 0xc
 1357 04a0 08       		.byte	0x8
 1358 04a1 0B       		.byte	0xb
 1359 04a2 90       		.byte	0x90
 1360 04a3 05       		.byte	0x5
 1361 04a4 C2040000 		.4byte	0x4c2
 1362 04a8 0B       		.uleb128 0xb
 1363 04a9 747000   		.ascii	"tp\000"
 1364 04ac 0B       		.byte	0xb
ARM GAS  C:\Users\DEVELO~1\AppData\Local\Temp\ccl8MZFw.s 			page 25


 1365 04ad 94       		.byte	0x94
 1366 04ae 1E       		.byte	0x1e
 1367 04af 98040000 		.4byte	0x498
 1368 04b3 00       		.byte	0
 1369 04b4 0B       		.uleb128 0xb
 1370 04b5 6D736700 		.ascii	"msg\000"
 1371 04b9 0B       		.byte	0xb
 1372 04ba 98       		.byte	0x98
 1373 04bb 1D       		.byte	0x1d
 1374 04bc 50010000 		.4byte	0x150
 1375 04c0 04       		.byte	0x4
 1376 04c1 00       		.byte	0
 1377 04c2 0C       		.uleb128 0xc
 1378 04c3 04       		.byte	0x4
 1379 04c4 0B       		.byte	0xb
 1380 04c5 9D       		.byte	0x9d
 1381 04c6 05       		.byte	0x5
 1382 04c7 D9040000 		.4byte	0x4d9
 1383 04cb 01       		.uleb128 0x1
 1384 04cc C8040000 		.4byte	.LASF35
 1385 04d0 0B       		.byte	0xb
 1386 04d1 A1       		.byte	0xa1
 1387 04d2 1E       		.byte	0x1e
 1388 04d3 49030000 		.4byte	0x349
 1389 04d7 00       		.byte	0
 1390 04d8 00       		.byte	0
 1391 04d9 0C       		.uleb128 0xc
 1392 04da 04       		.byte	0x4
 1393 04db 0B       		.byte	0xb
 1394 04dc A6       		.byte	0xa6
 1395 04dd 05       		.byte	0x5
 1396 04de F0040000 		.4byte	0x4f0
 1397 04e2 01       		.uleb128 0x1
 1398 04e3 DE070000 		.4byte	.LASF80
 1399 04e7 0B       		.byte	0xb
 1400 04e8 AA       		.byte	0xaa
 1401 04e9 1E       		.byte	0x1e
 1402 04ea 49030000 		.4byte	0x349
 1403 04ee 00       		.byte	0
 1404 04ef 00       		.byte	0
 1405 04f0 0C       		.uleb128 0xc
 1406 04f1 08       		.byte	0x8
 1407 04f2 0B       		.byte	0xb
 1408 04f3 AF       		.byte	0xaf
 1409 04f4 05       		.byte	0x5
 1410 04f5 14050000 		.4byte	0x514
 1411 04f9 0B       		.uleb128 0xb
 1412 04fa 75703100 		.ascii	"up1\000"
 1413 04fe 0B       		.byte	0xb
 1414 04ff B3       		.byte	0xb3
 1415 0500 1E       		.byte	0x1e
 1416 0501 9D040000 		.4byte	0x49d
 1417 0505 00       		.byte	0
 1418 0506 0B       		.uleb128 0xb
 1419 0507 75703200 		.ascii	"up2\000"
 1420 050b 0B       		.byte	0xb
 1421 050c B7       		.byte	0xb7
ARM GAS  C:\Users\DEVELO~1\AppData\Local\Temp\ccl8MZFw.s 			page 26


 1422 050d 1E       		.byte	0x1e
 1423 050e 9D040000 		.4byte	0x49d
 1424 0512 04       		.byte	0x4
 1425 0513 00       		.byte	0
 1426 0514 18       		.uleb128 0x18
 1427 0515 08       		.byte	0x8
 1428 0516 0B       		.byte	0xb
 1429 0517 7F       		.byte	0x7f
 1430 0518 52050000 		.4byte	0x552
 1431 051c 19       		.uleb128 0x19
 1432 051d 737700   		.ascii	"sw\000"
 1433 0520 8C       		.byte	0x8c
 1434 0521 74040000 		.4byte	0x474
 1435 0525 19       		.uleb128 0x19
 1436 0526 72647900 		.ascii	"rdy\000"
 1437 052a 99       		.byte	0x99
 1438 052b 9F040000 		.4byte	0x49f
 1439 052f 19       		.uleb128 0x19
 1440 0530 69737200 		.ascii	"isr\000"
 1441 0534 A2       		.byte	0xa2
 1442 0535 C2040000 		.4byte	0x4c2
 1443 0539 0D       		.uleb128 0xd
 1444 053a 45010000 		.4byte	.LASF81
 1445 053e 0B       		.byte	0xb
 1446 053f AB       		.byte	0xab
 1447 0540 07       		.byte	0x7
 1448 0541 D9040000 		.4byte	0x4d9
 1449 0545 0D       		.uleb128 0xd
 1450 0546 42070000 		.4byte	.LASF82
 1451 054a 0B       		.byte	0xb
 1452 054b B8       		.byte	0xb8
 1453 054c 07       		.byte	0x7
 1454 054d F0040000 		.4byte	0x4f0
 1455 0551 00       		.byte	0
 1456 0552 0C       		.uleb128 0xc
 1457 0553 10       		.byte	0x10
 1458 0554 0B       		.byte	0xb
 1459 0555 6C       		.byte	0x6c
 1460 0556 09       		.byte	0x9
 1461 0557 98050000 		.4byte	0x598
 1462 055b 1A       		.uleb128 0x1a
 1463 055c E1000000 		.4byte	.LASF83
 1464 0560 70       		.byte	0x70
 1465 0561 DF000000 		.4byte	0xdf
 1466 0565 03       		.byte	0x3
 1467 0566 00       		.byte	0
 1468 0567 1A       		.uleb128 0x1a
 1469 0568 62020000 		.4byte	.LASF37
 1470 056c 74       		.byte	0x74
 1471 056d DF000000 		.4byte	0xdf
 1472 0571 05       		.byte	0x5
 1473 0572 03       		.byte	0x3
 1474 0573 1A       		.uleb128 0x1a
 1475 0574 AC050000 		.4byte	.LASF84
 1476 0578 7A       		.byte	0x7a
 1477 0579 DF000000 		.4byte	0xdf
 1478 057d 18       		.byte	0x18
ARM GAS  C:\Users\DEVELO~1\AppData\Local\Temp\ccl8MZFw.s 			page 27


 1479 057e 08       		.byte	0x8
 1480 057f 01       		.uleb128 0x1
 1481 0580 E1060000 		.4byte	.LASF85
 1482 0584 0B       		.byte	0xb
 1483 0585 7E       		.byte	0x7e
 1484 0586 19       		.byte	0x19
 1485 0587 6B030000 		.4byte	0x36b
 1486 058b 04       		.byte	0x4
 1487 058c 0B       		.uleb128 0xb
 1488 058d 7500     		.ascii	"u\000"
 1489 058f 0B       		.byte	0xb
 1490 0590 B9       		.byte	0xb9
 1491 0591 05       		.byte	0x5
 1492 0592 14050000 		.4byte	0x514
 1493 0596 08       		.byte	0x8
 1494 0597 00       		.byte	0
 1495 0598 02       		.uleb128 0x2
 1496 0599 F8000000 		.4byte	.LASF86
 1497 059d 0B       		.byte	0xb
 1498 059e BA       		.byte	0xba
 1499 059f 03       		.byte	0x3
 1500 05a0 52050000 		.4byte	0x552
 1501 05a4 27       		.uleb128 0x27
 1502 05a5 0808     		.2byte	0x808
 1503 05a7 0B       		.byte	0xb
 1504 05a8 C0       		.byte	0xc0
 1505 05a9 09       		.byte	0x9
 1506 05aa E3050000 		.4byte	0x5e3
 1507 05ae 01       		.uleb128 0x1
 1508 05af 3D060000 		.4byte	.LASF87
 1509 05b3 0B       		.byte	0xb
 1510 05b4 C4       		.byte	0xc4
 1511 05b5 19       		.byte	0x19
 1512 05b6 C7000000 		.4byte	0xc7
 1513 05ba 00       		.byte	0
 1514 05bb 01       		.uleb128 0x1
 1515 05bc 21020000 		.4byte	.LASF88
 1516 05c0 0B       		.byte	0xb
 1517 05c1 C8       		.byte	0xc8
 1518 05c2 19       		.byte	0x19
 1519 05c3 C7000000 		.4byte	0xc7
 1520 05c7 02       		.byte	0x2
 1521 05c8 0B       		.uleb128 0xb
 1522 05c9 70747200 		.ascii	"ptr\000"
 1523 05cd 0B       		.byte	0xb
 1524 05ce CC       		.byte	0xcc
 1525 05cf 1A       		.byte	0x1a
 1526 05d0 E3050000 		.4byte	0x5e3
 1527 05d4 04       		.byte	0x4
 1528 05d5 01       		.uleb128 0x1
 1529 05d6 C7080000 		.4byte	.LASF89
 1530 05da 0B       		.byte	0xb
 1531 05db D0       		.byte	0xd0
 1532 05dc 19       		.byte	0x19
 1533 05dd E8050000 		.4byte	0x5e8
 1534 05e1 08       		.byte	0x8
 1535 05e2 00       		.byte	0
ARM GAS  C:\Users\DEVELO~1\AppData\Local\Temp\ccl8MZFw.s 			page 28


 1536 05e3 07       		.uleb128 0x7
 1537 05e4 98050000 		.4byte	0x598
 1538 05e8 28       		.uleb128 0x28
 1539 05e9 98050000 		.4byte	0x598
 1540 05ed F8050000 		.4byte	0x5f8
 1541 05f1 29       		.uleb128 0x29
 1542 05f2 2D000000 		.4byte	0x2d
 1543 05f6 7F       		.byte	0x7f
 1544 05f7 00       		.byte	0
 1545 05f8 02       		.uleb128 0x2
 1546 05f9 AD020000 		.4byte	.LASF90
 1547 05fd 0B       		.byte	0xb
 1548 05fe D1       		.byte	0xd1
 1549 05ff 03       		.byte	0x3
 1550 0600 A4050000 		.4byte	0x5a4
 1551 0604 15       		.uleb128 0x15
 1552 0605 CE000000 		.4byte	.LASF91
 1553 0609 24       		.byte	0x24
 1554 060a 0C       		.byte	0xc
 1555 060b E001     		.2byte	0x1e0
 1556 060d 08       		.byte	0x8
 1557 060e 8A060000 		.4byte	0x68a
 1558 0612 09       		.uleb128 0x9
 1559 0613 723400   		.ascii	"r4\000"
 1560 0616 0C       		.byte	0xc
 1561 0617 F901     		.2byte	0x1f9
 1562 0619 11       		.byte	0x11
 1563 061a DF000000 		.4byte	0xdf
 1564 061e 00       		.byte	0
 1565 061f 09       		.uleb128 0x9
 1566 0620 723500   		.ascii	"r5\000"
 1567 0623 0C       		.byte	0xc
 1568 0624 FA01     		.2byte	0x1fa
 1569 0626 11       		.byte	0x11
 1570 0627 DF000000 		.4byte	0xdf
 1571 062b 04       		.byte	0x4
 1572 062c 09       		.uleb128 0x9
 1573 062d 723600   		.ascii	"r6\000"
 1574 0630 0C       		.byte	0xc
 1575 0631 FB01     		.2byte	0x1fb
 1576 0633 11       		.byte	0x11
 1577 0634 DF000000 		.4byte	0xdf
 1578 0638 08       		.byte	0x8
 1579 0639 09       		.uleb128 0x9
 1580 063a 723700   		.ascii	"r7\000"
 1581 063d 0C       		.byte	0xc
 1582 063e FC01     		.2byte	0x1fc
 1583 0640 11       		.byte	0x11
 1584 0641 DF000000 		.4byte	0xdf
 1585 0645 0C       		.byte	0xc
 1586 0646 09       		.uleb128 0x9
 1587 0647 723800   		.ascii	"r8\000"
 1588 064a 0C       		.byte	0xc
 1589 064b FD01     		.2byte	0x1fd
 1590 064d 11       		.byte	0x11
 1591 064e DF000000 		.4byte	0xdf
 1592 0652 10       		.byte	0x10
ARM GAS  C:\Users\DEVELO~1\AppData\Local\Temp\ccl8MZFw.s 			page 29


 1593 0653 09       		.uleb128 0x9
 1594 0654 723900   		.ascii	"r9\000"
 1595 0657 0C       		.byte	0xc
 1596 0658 FE01     		.2byte	0x1fe
 1597 065a 11       		.byte	0x11
 1598 065b DF000000 		.4byte	0xdf
 1599 065f 14       		.byte	0x14
 1600 0660 09       		.uleb128 0x9
 1601 0661 72313000 		.ascii	"r10\000"
 1602 0665 0C       		.byte	0xc
 1603 0666 FF01     		.2byte	0x1ff
 1604 0668 11       		.byte	0x11
 1605 0669 DF000000 		.4byte	0xdf
 1606 066d 18       		.byte	0x18
 1607 066e 09       		.uleb128 0x9
 1608 066f 72313100 		.ascii	"r11\000"
 1609 0673 0C       		.byte	0xc
 1610 0674 0002     		.2byte	0x200
 1611 0676 11       		.byte	0x11
 1612 0677 DF000000 		.4byte	0xdf
 1613 067b 1C       		.byte	0x1c
 1614 067c 09       		.uleb128 0x9
 1615 067d 6C7200   		.ascii	"lr\000"
 1616 0680 0C       		.byte	0xc
 1617 0681 0102     		.2byte	0x201
 1618 0683 11       		.byte	0x11
 1619 0684 DF000000 		.4byte	0xdf
 1620 0688 20       		.byte	0x20
 1621 0689 00       		.byte	0
 1622 068a 15       		.uleb128 0x15
 1623 068b B1060000 		.4byte	.LASF92
 1624 068f 04       		.byte	0x4
 1625 0690 0C       		.byte	0xc
 1626 0691 0A02     		.2byte	0x20a
 1627 0693 08       		.byte	0x8
 1628 0694 A6060000 		.4byte	0x6a6
 1629 0698 09       		.uleb128 0x9
 1630 0699 737000   		.ascii	"sp\000"
 1631 069c 0C       		.byte	0xc
 1632 069d 0B02     		.2byte	0x20b
 1633 069f 1A       		.byte	0x1a
 1634 06a0 A6060000 		.4byte	0x6a6
 1635 06a4 00       		.byte	0
 1636 06a5 00       		.byte	0
 1637 06a6 07       		.uleb128 0x7
 1638 06a7 04060000 		.4byte	0x604
 1639 06ab 0A       		.uleb128 0xa
 1640 06ac 12060000 		.4byte	.LASF93
 1641 06b0 18       		.byte	0x18
 1642 06b1 06       		.byte	0x6
 1643 06b2 64       		.byte	0x64
 1644 06b3 10       		.byte	0x10
 1645 06b4 E0060000 		.4byte	0x6e0
 1646 06b8 01       		.uleb128 0x1
 1647 06b9 B7080000 		.4byte	.LASF94
 1648 06bd 06       		.byte	0x6
 1649 06be 68       		.byte	0x68
ARM GAS  C:\Users\DEVELO~1\AppData\Local\Temp\ccl8MZFw.s 			page 30


 1650 06bf 21       		.byte	0x21
 1651 06c0 2E040000 		.4byte	0x42e
 1652 06c4 00       		.byte	0
 1653 06c5 01       		.uleb128 0x1
 1654 06c6 A3070000 		.4byte	.LASF95
 1655 06ca 06       		.byte	0x6
 1656 06cb 73       		.byte	0x73
 1657 06cc 21       		.byte	0x21
 1658 06cd 6B030000 		.4byte	0x36b
 1659 06d1 0C       		.byte	0xc
 1660 06d2 01       		.uleb128 0x1
 1661 06d3 B4050000 		.4byte	.LASF96
 1662 06d7 06       		.byte	0x6
 1663 06d8 79       		.byte	0x79
 1664 06d9 21       		.byte	0x21
 1665 06da F7000000 		.4byte	0xf7
 1666 06de 10       		.byte	0x10
 1667 06df 00       		.byte	0
 1668 06e0 02       		.uleb128 0x2
 1669 06e1 E7050000 		.4byte	.LASF97
 1670 06e5 06       		.byte	0x6
 1671 06e6 7B       		.byte	0x7b
 1672 06e7 03       		.byte	0x3
 1673 06e8 AB060000 		.4byte	0x6ab
 1674 06ec 0A       		.uleb128 0xa
 1675 06ed CD020000 		.4byte	.LASF98
 1676 06f1 08       		.byte	0x8
 1677 06f2 06       		.byte	0x6
 1678 06f3 80       		.byte	0x80
 1679 06f4 10       		.byte	0x10
 1680 06f5 07070000 		.4byte	0x707
 1681 06f9 01       		.uleb128 0x1
 1682 06fa CD040000 		.4byte	.LASF99
 1683 06fe 06       		.byte	0x6
 1684 06ff 84       		.byte	0x84
 1685 0700 21       		.byte	0x21
 1686 0701 AF030000 		.4byte	0x3af
 1687 0705 00       		.byte	0
 1688 0706 00       		.byte	0
 1689 0707 02       		.uleb128 0x2
 1690 0708 02080000 		.4byte	.LASF100
 1691 070c 06       		.byte	0x6
 1692 070d 85       		.byte	0x85
 1693 070e 03       		.byte	0x3
 1694 070f EC060000 		.4byte	0x6ec
 1695 0713 02       		.uleb128 0x2
 1696 0714 610A0000 		.4byte	.LASF101
 1697 0718 06       		.byte	0x6
 1698 0719 8A       		.byte	0x8a
 1699 071a 14       		.byte	0x14
 1700 071b 98040000 		.4byte	0x498
 1701 071f 18       		.uleb128 0x18
 1702 0720 0C       		.byte	0xc
 1703 0721 06       		.byte	0x6
 1704 0722 A0       		.byte	0xa0
 1705 0723 4C070000 		.4byte	0x74c
 1706 0727 0D       		.uleb128 0xd
ARM GAS  C:\Users\DEVELO~1\AppData\Local\Temp\ccl8MZFw.s 			page 31


 1707 0728 D40A0000 		.4byte	.LASF102
 1708 072c 06       		.byte	0x6
 1709 072d A4       		.byte	0xa4
 1710 072e 21       		.byte	0x21
 1711 072f 83030000 		.4byte	0x383
 1712 0733 0D       		.uleb128 0xd
 1713 0734 CD040000 		.4byte	.LASF99
 1714 0738 06       		.byte	0x6
 1715 0739 A8       		.byte	0xa8
 1716 073a 21       		.byte	0x21
 1717 073b AF030000 		.4byte	0x3af
 1718 073f 0D       		.uleb128 0xd
 1719 0740 FF080000 		.4byte	.LASF103
 1720 0744 06       		.byte	0x6
 1721 0745 AC       		.byte	0xac
 1722 0746 21       		.byte	0x21
 1723 0747 E8030000 		.4byte	0x3e8
 1724 074b 00       		.byte	0
 1725 074c 18       		.uleb128 0x18
 1726 074d 04       		.byte	0x4
 1727 074e 06       		.byte	0x6
 1728 074f EB       		.byte	0xeb
 1729 0750 B5070000 		.4byte	0x7b5
 1730 0754 0D       		.uleb128 0xd
 1731 0755 F9090000 		.4byte	.LASF104
 1732 0759 06       		.byte	0x6
 1733 075a F2       		.byte	0xf2
 1734 075b 21       		.byte	0x21
 1735 075c 50010000 		.4byte	0x150
 1736 0760 0D       		.uleb128 0xd
 1737 0761 55010000 		.4byte	.LASF105
 1738 0765 06       		.byte	0x6
 1739 0766 F9       		.byte	0xf9
 1740 0767 21       		.byte	0x21
 1741 0768 50010000 		.4byte	0x150
 1742 076c 0E       		.uleb128 0xe
 1743 076d AC070000 		.4byte	.LASF79
 1744 0771 0001     		.2byte	0x100
 1745 0773 22       		.byte	0x22
 1746 0774 9D040000 		.4byte	0x49d
 1747 0778 0E       		.uleb128 0xe
 1748 0779 2F000000 		.4byte	.LASF106
 1749 077d 0701     		.2byte	0x107
 1750 077f 22       		.byte	0x22
 1751 0780 B5070000 		.4byte	0x7b5
 1752 0784 0E       		.uleb128 0xe
 1753 0785 69010000 		.4byte	.LASF107
 1754 0789 0C01     		.2byte	0x10c
 1755 078b 21       		.byte	0x21
 1756 078c 50010000 		.4byte	0x150
 1757 0790 0E       		.uleb128 0xe
 1758 0791 C9030000 		.4byte	.LASF108
 1759 0795 1501     		.2byte	0x115
 1760 0797 22       		.byte	0x22
 1761 0798 E2070000 		.4byte	0x7e2
 1762 079c 0E       		.uleb128 0xe
 1763 079d 21080000 		.4byte	.LASF109
ARM GAS  C:\Users\DEVELO~1\AppData\Local\Temp\ccl8MZFw.s 			page 32


 1764 07a1 1E01     		.2byte	0x11e
 1765 07a3 22       		.byte	0x22
 1766 07a4 1C080000 		.4byte	0x81c
 1767 07a8 0E       		.uleb128 0xe
 1768 07a9 F3010000 		.4byte	.LASF110
 1769 07ad 2601     		.2byte	0x126
 1770 07af 21       		.byte	0x21
 1771 07b0 5C010000 		.4byte	0x15c
 1772 07b4 00       		.byte	0
 1773 07b5 07       		.uleb128 0x7
 1774 07b6 13070000 		.4byte	0x713
 1775 07ba 0A       		.uleb128 0xa
 1776 07bb F5070000 		.4byte	.LASF111
 1777 07bf 0C       		.byte	0xc
 1778 07c0 0D       		.byte	0xd
 1779 07c1 34       		.byte	0x34
 1780 07c2 10       		.byte	0x10
 1781 07c3 E2070000 		.4byte	0x7e2
 1782 07c7 01       		.uleb128 0x1
 1783 07c8 CD040000 		.4byte	.LASF99
 1784 07cc 0D       		.byte	0xd
 1785 07cd 35       		.byte	0x35
 1786 07ce 19       		.byte	0x19
 1787 07cf AF030000 		.4byte	0x3af
 1788 07d3 00       		.byte	0
 1789 07d4 0B       		.uleb128 0xb
 1790 07d5 636E7400 		.ascii	"cnt\000"
 1791 07d9 0D       		.byte	0xd
 1792 07da 37       		.byte	0x37
 1793 07db 19       		.byte	0x19
 1794 07dc 68010000 		.4byte	0x168
 1795 07e0 08       		.byte	0x8
 1796 07e1 00       		.byte	0
 1797 07e2 07       		.uleb128 0x7
 1798 07e3 BA070000 		.4byte	0x7ba
 1799 07e7 0A       		.uleb128 0xa
 1800 07e8 840A0000 		.4byte	.LASF112
 1801 07ec 10       		.byte	0x10
 1802 07ed 0E       		.byte	0xe
 1803 07ee 39       		.byte	0x39
 1804 07ef 08       		.byte	0x8
 1805 07f0 1C080000 		.4byte	0x81c
 1806 07f4 01       		.uleb128 0x1
 1807 07f5 CD040000 		.4byte	.LASF99
 1808 07f9 0E       		.byte	0xe
 1809 07fa 3A       		.byte	0x3a
 1810 07fb 19       		.byte	0x19
 1811 07fc AF030000 		.4byte	0x3af
 1812 0800 00       		.byte	0
 1813 0801 01       		.uleb128 0x1
 1814 0802 38080000 		.4byte	.LASF34
 1815 0806 0E       		.byte	0xe
 1816 0807 3C       		.byte	0x3c
 1817 0808 1A       		.byte	0x1a
 1818 0809 98040000 		.4byte	0x498
 1819 080d 08       		.byte	0x8
 1820 080e 01       		.uleb128 0x1
ARM GAS  C:\Users\DEVELO~1\AppData\Local\Temp\ccl8MZFw.s 			page 33


 1821 080f A4010000 		.4byte	.LASF69
 1822 0813 0E       		.byte	0xe
 1823 0814 3E       		.byte	0x3e
 1824 0815 1A       		.byte	0x1a
 1825 0816 D0080000 		.4byte	0x8d0
 1826 081a 0C       		.byte	0xc
 1827 081b 00       		.byte	0
 1828 081c 07       		.uleb128 0x7
 1829 081d E7070000 		.4byte	0x7e7
 1830 0821 07       		.uleb128 0x7
 1831 0822 69020000 		.4byte	0x269
 1832 0826 07       		.uleb128 0x7
 1833 0827 14010000 		.4byte	0x114
 1834 082b 15       		.uleb128 0x15
 1835 082c 72050000 		.4byte	.LASF113
 1836 0830 10       		.byte	0x10
 1837 0831 06       		.byte	0x6
 1838 0832 5C01     		.2byte	0x15c
 1839 0834 10       		.byte	0x10
 1840 0835 54080000 		.4byte	0x854
 1841 0839 05       		.uleb128 0x5
 1842 083a FF080000 		.4byte	.LASF103
 1843 083e 6101     		.2byte	0x161
 1844 0840 21       		.byte	0x21
 1845 0841 E8030000 		.4byte	0x3e8
 1846 0845 00       		.byte	0
 1847 0846 05       		.uleb128 0x5
 1848 0847 FF060000 		.4byte	.LASF114
 1849 084b 6501     		.2byte	0x165
 1850 084d 22       		.byte	0x22
 1851 084e 98040000 		.4byte	0x498
 1852 0852 0C       		.byte	0xc
 1853 0853 00       		.byte	0
 1854 0854 1E       		.uleb128 0x1e
 1855 0855 22000000 		.4byte	.LASF115
 1856 0859 6601     		.2byte	0x166
 1857 085b 2B080000 		.4byte	0x82b
 1858 085f 15       		.uleb128 0x15
 1859 0860 9B060000 		.4byte	.LASF116
 1860 0864 14       		.byte	0x14
 1861 0865 06       		.byte	0x6
 1862 0866 6B01     		.2byte	0x16b
 1863 0868 10       		.byte	0x10
 1864 0869 AF080000 		.4byte	0x8af
 1865 086d 05       		.uleb128 0x5
 1866 086e C8040000 		.4byte	.LASF35
 1867 0872 6F01     		.2byte	0x16f
 1868 0874 22       		.byte	0x22
 1869 0875 49030000 		.4byte	0x349
 1870 0879 00       		.byte	0
 1871 087a 05       		.uleb128 0x5
 1872 087b 5D030000 		.4byte	.LASF117
 1873 087f 7501     		.2byte	0x175
 1874 0881 22       		.byte	0x22
 1875 0882 26080000 		.4byte	0x826
 1876 0886 04       		.byte	0x4
 1877 0887 05       		.uleb128 0x5
ARM GAS  C:\Users\DEVELO~1\AppData\Local\Temp\ccl8MZFw.s 			page 34


 1878 0888 96090000 		.4byte	.LASF118
 1879 088c 7901     		.2byte	0x179
 1880 088e 22       		.byte	0x22
 1881 088f 26080000 		.4byte	0x826
 1882 0893 08       		.byte	0x8
 1883 0894 05       		.uleb128 0x5
 1884 0895 AC030000 		.4byte	.LASF119
 1885 0899 7F01     		.2byte	0x17f
 1886 089b 22       		.byte	0x22
 1887 089c 26080000 		.4byte	0x826
 1888 08a0 0C       		.byte	0xc
 1889 08a1 05       		.uleb128 0x5
 1890 08a2 D90A0000 		.4byte	.LASF120
 1891 08a6 8301     		.2byte	0x183
 1892 08a8 22       		.byte	0x22
 1893 08a9 26080000 		.4byte	0x826
 1894 08ad 10       		.byte	0x10
 1895 08ae 00       		.byte	0
 1896 08af 1E       		.uleb128 0x1e
 1897 08b0 06010000 		.4byte	.LASF121
 1898 08b4 8501     		.2byte	0x185
 1899 08b6 5F080000 		.4byte	0x85f
 1900 08ba 17       		.uleb128 0x17
 1901 08bb AF080000 		.4byte	0x8af
 1902 08bf 07       		.uleb128 0x7
 1903 08c0 BA080000 		.4byte	0x8ba
 1904 08c4 02       		.uleb128 0x2
 1905 08c5 6D030000 		.4byte	.LASF122
 1906 08c9 0E       		.byte	0xe
 1907 08ca 34       		.byte	0x34
 1908 08cb 19       		.byte	0x19
 1909 08cc E7070000 		.4byte	0x7e7
 1910 08d0 07       		.uleb128 0x7
 1911 08d1 C4080000 		.4byte	0x8c4
 1912 08d5 08       		.uleb128 0x8
 1913 08d6 01       		.byte	0x1
 1914 08d7 02       		.byte	0x2
 1915 08d8 71070000 		.4byte	.LASF123
 1916 08dc 17       		.uleb128 0x17
 1917 08dd D5080000 		.4byte	0x8d5
 1918 08e1 16       		.uleb128 0x16
 1919 08e2 DC080000 		.4byte	0x8dc
 1920 08e6 0F       		.uleb128 0xf
 1921 08e7 55000000 		.4byte	0x55
 1922 08eb 15       		.byte	0x15
 1923 08ec 0F090000 		.4byte	0x90f
 1924 08f0 04       		.uleb128 0x4
 1925 08f1 0B020000 		.4byte	.LASF124
 1926 08f5 00       		.byte	0
 1927 08f6 04       		.uleb128 0x4
 1928 08f7 2F070000 		.4byte	.LASF125
 1929 08fb 01       		.byte	0x1
 1930 08fc 04       		.uleb128 0x4
 1931 08fd D5060000 		.4byte	.LASF126
 1932 0901 02       		.byte	0x2
 1933 0902 04       		.uleb128 0x4
 1934 0903 D8050000 		.4byte	.LASF127
ARM GAS  C:\Users\DEVELO~1\AppData\Local\Temp\ccl8MZFw.s 			page 35


 1935 0907 03       		.byte	0x3
 1936 0908 04       		.uleb128 0x4
 1937 0909 1D0A0000 		.4byte	.LASF128
 1938 090d 04       		.byte	0x4
 1939 090e 00       		.byte	0
 1940 090f 02       		.uleb128 0x2
 1941 0910 D0070000 		.4byte	.LASF129
 1942 0914 0F       		.byte	0xf
 1943 0915 1B       		.byte	0x1b
 1944 0916 03       		.byte	0x3
 1945 0917 E6080000 		.4byte	0x8e6
 1946 091b 0F       		.uleb128 0xf
 1947 091c 55000000 		.4byte	0x55
 1948 0920 20       		.byte	0x20
 1949 0921 4A090000 		.4byte	0x94a
 1950 0925 04       		.uleb128 0x4
 1951 0926 57090000 		.4byte	.LASF130
 1952 092a 00       		.byte	0
 1953 092b 04       		.uleb128 0x4
 1954 092c D9040000 		.4byte	.LASF131
 1955 0930 01       		.byte	0x1
 1956 0931 04       		.uleb128 0x4
 1957 0932 47070000 		.4byte	.LASF132
 1958 0936 02       		.byte	0x2
 1959 0937 04       		.uleb128 0x4
 1960 0938 69080000 		.4byte	.LASF133
 1961 093c 03       		.byte	0x3
 1962 093d 04       		.uleb128 0x4
 1963 093e BB010000 		.4byte	.LASF134
 1964 0942 04       		.byte	0x4
 1965 0943 04       		.uleb128 0x4
 1966 0944 88010000 		.4byte	.LASF135
 1967 0948 05       		.byte	0x5
 1968 0949 00       		.byte	0
 1969 094a 02       		.uleb128 0x2
 1970 094b 78090000 		.4byte	.LASF136
 1971 094f 0F       		.byte	0xf
 1972 0950 27       		.byte	0x27
 1973 0951 03       		.byte	0x3
 1974 0952 1B090000 		.4byte	0x91b
 1975 0956 0F       		.uleb128 0xf
 1976 0957 55000000 		.4byte	0x55
 1977 095b 30       		.byte	0x30
 1978 095c 7F090000 		.4byte	0x97f
 1979 0960 04       		.uleb128 0x4
 1980 0961 DB010000 		.4byte	.LASF137
 1981 0965 00       		.byte	0
 1982 0966 04       		.uleb128 0x4
 1983 0967 A5090000 		.4byte	.LASF138
 1984 096b 01       		.byte	0x1
 1985 096c 04       		.uleb128 0x4
 1986 096d 000A0000 		.4byte	.LASF139
 1987 0971 02       		.byte	0x2
 1988 0972 04       		.uleb128 0x4
 1989 0973 5B060000 		.4byte	.LASF140
 1990 0977 03       		.byte	0x3
 1991 0978 04       		.uleb128 0x4
ARM GAS  C:\Users\DEVELO~1\AppData\Local\Temp\ccl8MZFw.s 			page 36


 1992 0979 86060000 		.4byte	.LASF141
 1993 097d 04       		.byte	0x4
 1994 097e 00       		.byte	0
 1995 097f 02       		.uleb128 0x2
 1996 0980 E6000000 		.4byte	.LASF142
 1997 0984 0F       		.byte	0xf
 1998 0985 36       		.byte	0x36
 1999 0986 03       		.byte	0x3
 2000 0987 56090000 		.4byte	0x956
 2001 098b 0C       		.uleb128 0xc
 2002 098c 14       		.byte	0x14
 2003 098d 0F       		.byte	0xf
 2004 098e 3B       		.byte	0x3b
 2005 098f 09       		.byte	0x9
 2006 0990 D5090000 		.4byte	0x9d5
 2007 0994 0B       		.uleb128 0xb
 2008 0995 696400   		.ascii	"id\000"
 2009 0998 0F       		.byte	0xf
 2010 0999 3C       		.byte	0x3c
 2011 099a 15       		.byte	0x15
 2012 099b 7F090000 		.4byte	0x97f
 2013 099f 00       		.byte	0
 2014 09a0 01       		.uleb128 0x1
 2015 09a1 BE050000 		.4byte	.LASF143
 2016 09a5 0F       		.byte	0xf
 2017 09a6 3D       		.byte	0x3d
 2018 09a7 0D       		.byte	0xd
 2019 09a8 FC000000 		.4byte	0xfc
 2020 09ac 04       		.byte	0x4
 2021 09ad 01       		.uleb128 0x1
 2022 09ae 33050000 		.4byte	.LASF144
 2023 09b2 0F       		.byte	0xf
 2024 09b3 3E       		.byte	0x3e
 2025 09b4 0C       		.byte	0xc
 2026 09b5 DF000000 		.4byte	0xdf
 2027 09b9 08       		.byte	0x8
 2028 09ba 01       		.uleb128 0x1
 2029 09bb 370A0000 		.4byte	.LASF38
 2030 09bf 0F       		.byte	0xf
 2031 09c0 3F       		.byte	0x3f
 2032 09c1 0C       		.byte	0xc
 2033 09c2 DF000000 		.4byte	0xdf
 2034 09c6 0C       		.byte	0xc
 2035 09c7 01       		.uleb128 0x1
 2036 09c8 740A0000 		.4byte	.LASF145
 2037 09cc 0F       		.byte	0xf
 2038 09cd 40       		.byte	0x40
 2039 09ce 0C       		.byte	0xc
 2040 09cf DF000000 		.4byte	0xdf
 2041 09d3 10       		.byte	0x10
 2042 09d4 00       		.byte	0
 2043 09d5 02       		.uleb128 0x2
 2044 09d6 47060000 		.4byte	.LASF146
 2045 09da 0F       		.byte	0xf
 2046 09db 41       		.byte	0x41
 2047 09dc 03       		.byte	0x3
 2048 09dd 8B090000 		.4byte	0x98b
ARM GAS  C:\Users\DEVELO~1\AppData\Local\Temp\ccl8MZFw.s 			page 37


 2049 09e1 0F       		.uleb128 0xf
 2050 09e2 55000000 		.4byte	0x55
 2051 09e6 4E       		.byte	0x4e
 2052 09e7 FE090000 		.4byte	0x9fe
 2053 09eb 04       		.uleb128 0x4
 2054 09ec 3D020000 		.4byte	.LASF147
 2055 09f0 00       		.byte	0
 2056 09f1 04       		.uleb128 0x4
 2057 09f2 03040000 		.4byte	.LASF148
 2058 09f6 01       		.byte	0x1
 2059 09f7 04       		.uleb128 0x4
 2060 09f8 77010000 		.4byte	.LASF149
 2061 09fc 02       		.byte	0x2
 2062 09fd 00       		.byte	0
 2063 09fe 02       		.uleb128 0x2
 2064 09ff EB060000 		.4byte	.LASF150
 2065 0a03 0F       		.byte	0xf
 2066 0a04 52       		.byte	0x52
 2067 0a05 03       		.byte	0x3
 2068 0a06 E1090000 		.4byte	0x9e1
 2069 0a0a 0F       		.uleb128 0xf
 2070 0a0b 55000000 		.4byte	0x55
 2071 0a0f 57       		.byte	0x57
 2072 0a10 330A0000 		.4byte	0xa33
 2073 0a14 04       		.uleb128 0x4
 2074 0a15 43090000 		.4byte	.LASF151
 2075 0a19 00       		.byte	0
 2076 0a1a 04       		.uleb128 0x4
 2077 0a1b 00000000 		.4byte	.LASF152
 2078 0a1f 01       		.byte	0x1
 2079 0a20 04       		.uleb128 0x4
 2080 0a21 D9020000 		.4byte	.LASF153
 2081 0a25 02       		.byte	0x2
 2082 0a26 04       		.uleb128 0x4
 2083 0a27 11050000 		.4byte	.LASF154
 2084 0a2b 03       		.byte	0x3
 2085 0a2c 04       		.uleb128 0x4
 2086 0a2d 8D080000 		.4byte	.LASF155
 2087 0a31 04       		.byte	0x4
 2088 0a32 00       		.byte	0
 2089 0a33 02       		.uleb128 0x2
 2090 0a34 E2080000 		.4byte	.LASF156
 2091 0a38 0F       		.byte	0xf
 2092 0a39 5D       		.byte	0x5d
 2093 0a3a 03       		.byte	0x3
 2094 0a3b 0A0A0000 		.4byte	0xa0a
 2095 0a3f 0F       		.uleb128 0xf
 2096 0a40 55000000 		.4byte	0x55
 2097 0a44 62       		.byte	0x62
 2098 0a45 560A0000 		.4byte	0xa56
 2099 0a49 04       		.uleb128 0x4
 2100 0a4a 47030000 		.4byte	.LASF157
 2101 0a4e 00       		.byte	0
 2102 0a4f 04       		.uleb128 0x4
 2103 0a50 4D050000 		.4byte	.LASF158
 2104 0a54 01       		.byte	0x1
 2105 0a55 00       		.byte	0
ARM GAS  C:\Users\DEVELO~1\AppData\Local\Temp\ccl8MZFw.s 			page 38


 2106 0a56 02       		.uleb128 0x2
 2107 0a57 8D0A0000 		.4byte	.LASF159
 2108 0a5b 0F       		.byte	0xf
 2109 0a5c 65       		.byte	0x65
 2110 0a5d 03       		.byte	0x3
 2111 0a5e 3F0A0000 		.4byte	0xa3f
 2112 0a62 0C       		.uleb128 0xc
 2113 0a63 20       		.byte	0x20
 2114 0a64 0F       		.byte	0xf
 2115 0a65 6A       		.byte	0x6a
 2116 0a66 09       		.byte	0x9
 2117 0a67 E10A0000 		.4byte	0xae1
 2118 0a6b 01       		.uleb128 0x1
 2119 0a6c EC010000 		.4byte	.LASF160
 2120 0a70 0F       		.byte	0xf
 2121 0a71 6B       		.byte	0x6b
 2122 0a72 17       		.byte	0x17
 2123 0a73 FE090000 		.4byte	0x9fe
 2124 0a77 00       		.byte	0
 2125 0a78 01       		.uleb128 0x1
 2126 0a79 BC030000 		.4byte	.LASF161
 2127 0a7d 0F       		.byte	0xf
 2128 0a7e 6C       		.byte	0x6c
 2129 0a7f 0C       		.byte	0xc
 2130 0a80 DF000000 		.4byte	0xdf
 2131 0a84 04       		.byte	0x4
 2132 0a85 01       		.uleb128 0x1
 2133 0a86 FD050000 		.4byte	.LASF162
 2134 0a8a 0F       		.byte	0xf
 2135 0a8b 6D       		.byte	0x6d
 2136 0a8c 0C       		.byte	0xc
 2137 0a8d DF000000 		.4byte	0xdf
 2138 0a91 08       		.byte	0x8
 2139 0a92 01       		.uleb128 0x1
 2140 0a93 F70A0000 		.4byte	.LASF163
 2141 0a97 0F       		.byte	0xf
 2142 0a98 6E       		.byte	0x6e
 2143 0a99 0C       		.byte	0xc
 2144 0a9a DF000000 		.4byte	0xdf
 2145 0a9e 0C       		.byte	0xc
 2146 0a9f 01       		.uleb128 0x1
 2147 0aa0 C4090000 		.4byte	.LASF164
 2148 0aa4 0F       		.byte	0xf
 2149 0aa5 6F       		.byte	0x6f
 2150 0aa6 0D       		.byte	0xd
 2151 0aa7 FC000000 		.4byte	0xfc
 2152 0aab 10       		.byte	0x10
 2153 0aac 01       		.uleb128 0x1
 2154 0aad 98010000 		.4byte	.LASF165
 2155 0ab1 0F       		.byte	0xf
 2156 0ab2 70       		.byte	0x70
 2157 0ab3 16       		.byte	0x16
 2158 0ab4 330A0000 		.4byte	0xa33
 2159 0ab8 14       		.byte	0x14
 2160 0ab9 01       		.uleb128 0x1
 2161 0aba 3D0A0000 		.4byte	.LASF166
 2162 0abe 0F       		.byte	0xf
ARM GAS  C:\Users\DEVELO~1\AppData\Local\Temp\ccl8MZFw.s 			page 39


 2163 0abf 71       		.byte	0x71
 2164 0ac0 0C       		.byte	0xc
 2165 0ac1 C7000000 		.4byte	0xc7
 2166 0ac5 16       		.byte	0x16
 2167 0ac6 01       		.uleb128 0x1
 2168 0ac7 E5070000 		.4byte	.LASF167
 2169 0acb 0F       		.byte	0xf
 2170 0acc 72       		.byte	0x72
 2171 0acd 0D       		.byte	0xd
 2172 0ace 6B030000 		.4byte	0x36b
 2173 0ad2 18       		.byte	0x18
 2174 0ad3 01       		.uleb128 0x1
 2175 0ad4 3E080000 		.4byte	.LASF168
 2176 0ad8 0F       		.byte	0xf
 2177 0ad9 73       		.byte	0x73
 2178 0ada 0D       		.byte	0xd
 2179 0adb 6B030000 		.4byte	0x36b
 2180 0adf 1C       		.byte	0x1c
 2181 0ae0 00       		.byte	0
 2182 0ae1 02       		.uleb128 0x2
 2183 0ae2 2B030000 		.4byte	.LASF169
 2184 0ae6 0F       		.byte	0xf
 2185 0ae7 74       		.byte	0x74
 2186 0ae8 03       		.byte	0x3
 2187 0ae9 620A0000 		.4byte	0xa62
 2188 0aed 0C       		.uleb128 0xc
 2189 0aee 24       		.byte	0x24
 2190 0aef 10       		.byte	0x10
 2191 0af0 15       		.byte	0x15
 2192 0af1 09       		.byte	0x9
 2193 0af2 2B0B0000 		.4byte	0xb2b
 2194 0af6 01       		.uleb128 0x1
 2195 0af7 62020000 		.4byte	.LASF37
 2196 0afb 10       		.byte	0x10
 2197 0afc 16       		.byte	0x16
 2198 0afd 11       		.byte	0x11
 2199 0afe 0F090000 		.4byte	0x90f
 2200 0b02 00       		.byte	0
 2201 0b03 01       		.uleb128 0x1
 2202 0b04 0D080000 		.4byte	.LASF170
 2203 0b08 10       		.byte	0x10
 2204 0b09 17       		.byte	0x17
 2205 0b0a 11       		.byte	0x11
 2206 0b0b 4A090000 		.4byte	0x94a
 2207 0b0f 01       		.byte	0x1
 2208 0b10 01       		.uleb128 0x1
 2209 0b11 B7090000 		.4byte	.LASF171
 2210 0b15 10       		.byte	0x10
 2211 0b16 18       		.byte	0x18
 2212 0b17 08       		.byte	0x8
 2213 0b18 D5080000 		.4byte	0x8d5
 2214 0b1c 02       		.byte	0x2
 2215 0b1d 01       		.uleb128 0x1
 2216 0b1e E1090000 		.4byte	.LASF172
 2217 0b22 10       		.byte	0x10
 2218 0b23 19       		.byte	0x19
 2219 0b24 17       		.byte	0x17
ARM GAS  C:\Users\DEVELO~1\AppData\Local\Temp\ccl8MZFw.s 			page 40


 2220 0b25 E10A0000 		.4byte	0xae1
 2221 0b29 04       		.byte	0x4
 2222 0b2a 00       		.byte	0
 2223 0b2b 02       		.uleb128 0x2
 2224 0b2c C10A0000 		.4byte	.LASF173
 2225 0b30 10       		.byte	0x10
 2226 0b31 1A       		.byte	0x1a
 2227 0b32 03       		.byte	0x3
 2228 0b33 ED0A0000 		.4byte	0xaed
 2229 0b37 0C       		.uleb128 0xc
 2230 0b38 30       		.byte	0x30
 2231 0b39 10       		.byte	0x10
 2232 0b3a 1F       		.byte	0x1f
 2233 0b3b 09       		.byte	0x9
 2234 0b3c 820B0000 		.4byte	0xb82
 2235 0b40 01       		.uleb128 0x1
 2236 0b41 64080000 		.4byte	.LASF174
 2237 0b45 10       		.byte	0x10
 2238 0b46 20       		.byte	0x20
 2239 0b47 15       		.byte	0x15
 2240 0b48 560A0000 		.4byte	0xa56
 2241 0b4c 00       		.byte	0
 2242 0b4d 01       		.uleb128 0x1
 2243 0b4e A9010000 		.4byte	.LASF175
 2244 0b52 10       		.byte	0x10
 2245 0b53 21       		.byte	0x21
 2246 0b54 0C       		.byte	0xc
 2247 0b55 DF000000 		.4byte	0xdf
 2248 0b59 04       		.byte	0x4
 2249 0b5a 01       		.uleb128 0x1
 2250 0b5b 75030000 		.4byte	.LASF176
 2251 0b5f 10       		.byte	0x10
 2252 0b60 22       		.byte	0x22
 2253 0b61 0C       		.byte	0xc
 2254 0b62 DF000000 		.4byte	0xdf
 2255 0b66 08       		.byte	0x8
 2256 0b67 01       		.uleb128 0x1
 2257 0b68 F00A0000 		.4byte	.LASF177
 2258 0b6c 10       		.byte	0x10
 2259 0b6d 23       		.byte	0x23
 2260 0b6e 17       		.byte	0x17
 2261 0b6f E10A0000 		.4byte	0xae1
 2262 0b73 0C       		.byte	0xc
 2263 0b74 01       		.uleb128 0x1
 2264 0b75 96050000 		.4byte	.LASF178
 2265 0b79 10       		.byte	0x10
 2266 0b7a 24       		.byte	0x24
 2267 0b7b 18       		.byte	0x18
 2268 0b7c 820B0000 		.4byte	0xb82
 2269 0b80 2C       		.byte	0x2c
 2270 0b81 00       		.byte	0
 2271 0b82 07       		.uleb128 0x7
 2272 0b83 E1080000 		.4byte	0x8e1
 2273 0b87 02       		.uleb128 0x2
 2274 0b88 9F0A0000 		.4byte	.LASF179
 2275 0b8c 10       		.byte	0x10
 2276 0b8d 25       		.byte	0x25
ARM GAS  C:\Users\DEVELO~1\AppData\Local\Temp\ccl8MZFw.s 			page 41


 2277 0b8e 03       		.byte	0x3
 2278 0b8f 370B0000 		.4byte	0xb37
 2279 0b93 2A       		.uleb128 0x2a
 2280 0b94 2A010000 		.4byte	.LASF180
 2281 0b98 10       		.byte	0x10
 2282 0b99 3E       		.byte	0x3e
 2283 0b9a 1B       		.byte	0x1b
 2284 0b9b 2B0B0000 		.4byte	0xb2b
 2285 0b9f 2B       		.uleb128 0x2b
 2286 0ba0 930B0000 		.4byte	0xb93
 2287 0ba4 01       		.byte	0x1
 2288 0ba5 09       		.byte	0x9
 2289 0ba6 14       		.byte	0x14
 2290 0ba7 05       		.uleb128 0x5
 2291 0ba8 03       		.byte	0x3
 2292 0ba9 00000000 		.4byte	sdram_ctx
 2293 0bad 2C       		.uleb128 0x2c
 2294 0bae F6020000 		.4byte	.LASF181
 2295 0bb2 01       		.byte	0x1
 2296 0bb3 10       		.byte	0x10
 2297 0bb4 01       		.byte	0x1
 2298 0bb5 C4080000 		.4byte	0x8c4
 2299 0bb9 05       		.uleb128 0x5
 2300 0bba 03       		.byte	0x3
 2301 0bbb 00000000 		.4byte	sdram_ctx_mtx
 2302 0bbf 1F       		.uleb128 0x1f
 2303 0bc0 3F000000 		.4byte	.LASF182
 2304 0bc4 34       		.byte	0x34
 2305 0bc5 D5080000 		.4byte	0x8d5
 2306 0bc9 D80B0000 		.4byte	0xbd8
 2307 0bcd 10       		.uleb128 0x10
 2308 0bce 7F090000 		.4byte	0x97f
 2309 0bd2 10       		.uleb128 0x10
 2310 0bd3 D80B0000 		.4byte	0xbd8
 2311 0bd7 00       		.byte	0
 2312 0bd8 07       		.uleb128 0x7
 2313 0bd9 D5090000 		.4byte	0x9d5
 2314 0bdd 1F       		.uleb128 0x1f
 2315 0bde BC020000 		.4byte	.LASF183
 2316 0be2 39       		.byte	0x39
 2317 0be3 D5080000 		.4byte	0x8d5
 2318 0be7 F10B0000 		.4byte	0xbf1
 2319 0beb 10       		.uleb128 0x10
 2320 0bec F10B0000 		.4byte	0xbf1
 2321 0bf0 00       		.byte	0
 2322 0bf1 07       		.uleb128 0x7
 2323 0bf2 870B0000 		.4byte	0xb87
 2324 0bf6 2D       		.uleb128 0x2d
 2325 0bf7 04030000 		.4byte	.LASF203
 2326 0bfb 10       		.byte	0x10
 2327 0bfc 2D       		.byte	0x2d
 2328 0bfd 06       		.byte	0x6
 2329 0bfe D5080000 		.4byte	0x8d5
 2330 0c02 20       		.uleb128 0x20
 2331 0c03 CF010000 		.4byte	.LASF184
 2332 0c07 6B       		.byte	0x6b
 2333 0c08 120C0000 		.4byte	0xc12
ARM GAS  C:\Users\DEVELO~1\AppData\Local\Temp\ccl8MZFw.s 			page 42


 2334 0c0c 10       		.uleb128 0x10
 2335 0c0d D0080000 		.4byte	0x8d0
 2336 0c11 00       		.byte	0
 2337 0c12 20       		.uleb128 0x20
 2338 0c13 33060000 		.4byte	.LASF185
 2339 0c17 67       		.byte	0x67
 2340 0c18 220C0000 		.4byte	0xc22
 2341 0c1c 10       		.uleb128 0x10
 2342 0c1d D0080000 		.4byte	0x8d0
 2343 0c21 00       		.byte	0
 2344 0c22 11       		.uleb128 0x11
 2345 0c23 FA010000 		.4byte	.LASF188
 2346 0c27 94       		.byte	0x94
 2347 0c28 06       		.byte	0x6
 2348 0c29 D5080000 		.4byte	0x8d5
 2349 0c2d 00000000 		.4byte	.LFB439
 2350 0c31 5C000000 		.4byte	.LFE439-.LFB439
 2351 0c35 01       		.uleb128 0x1
 2352 0c36 9C       		.byte	0x9c
 2353 0c37 E30C0000 		.4byte	0xce3
 2354 0c3b 12       		.uleb128 0x12
 2355 0c3c AD080000 		.4byte	.LASF186
 2356 0c40 94       		.byte	0x94
 2357 0c41 29       		.byte	0x29
 2358 0c42 7F090000 		.4byte	0x97f
 2359 0c46 14000000 		.4byte	.LLST10
 2360 0c4a 0C000000 		.4byte	.LVUS10
 2361 0c4e 12       		.uleb128 0x12
 2362 0c4f B3070000 		.4byte	.LASF187
 2363 0c53 95       		.byte	0x95
 2364 0c54 2C       		.byte	0x2c
 2365 0c55 D80B0000 		.4byte	0xbd8
 2366 0c59 3A000000 		.4byte	.LLST11
 2367 0c5d 34000000 		.4byte	.LVUS11
 2368 0c61 1B       		.uleb128 0x1b
 2369 0c62 8A100000 		.4byte	0x108a
 2370 0c66 20000000 		.4byte	.LBI12
 2371 0c6a 01       		.byte	.LVU175
 2372 0c6b 18000000 		.4byte	.LLRL12
 2373 0c6f 9C       		.byte	0x9c
 2374 0c70 820C0000 		.4byte	0xc82
 2375 0c74 1C       		.uleb128 0x1c
 2376 0c75 94100000 		.4byte	0x1094
 2377 0c79 51000000 		.4byte	.LLST13
 2378 0c7d 4F000000 		.4byte	.LVUS13
 2379 0c81 00       		.byte	0
 2380 0c82 1B       		.uleb128 0x1b
 2381 0c83 8A100000 		.4byte	0x108a
 2382 0c87 42000000 		.4byte	.LBI16
 2383 0c8b 01       		.byte	.LVU196
 2384 0c8c 24000000 		.4byte	.LLRL14
 2385 0c90 A2       		.byte	0xa2
 2386 0c91 A30C0000 		.4byte	0xca3
 2387 0c95 1C       		.uleb128 0x1c
 2388 0c96 94100000 		.4byte	0x1094
 2389 0c9a 5C000000 		.4byte	.LLST15
 2390 0c9e 5A000000 		.4byte	.LVUS15
ARM GAS  C:\Users\DEVELO~1\AppData\Local\Temp\ccl8MZFw.s 			page 43


 2391 0ca2 00       		.byte	0
 2392 0ca3 06       		.uleb128 0x6
 2393 0ca4 0E000000 		.4byte	.LVL44
 2394 0ca8 120C0000 		.4byte	0xc12
 2395 0cac BA0C0000 		.4byte	0xcba
 2396 0cb0 03       		.uleb128 0x3
 2397 0cb1 01       		.uleb128 0x1
 2398 0cb2 50       		.byte	0x50
 2399 0cb3 05       		.uleb128 0x5
 2400 0cb4 03       		.byte	0x3
 2401 0cb5 00000000 		.4byte	.LANCHOR0
 2402 0cb9 00       		.byte	0
 2403 0cba 1D       		.uleb128 0x1d
 2404 0cbb 20000000 		.4byte	.LVL45
 2405 0cbf 020C0000 		.4byte	0xc02
 2406 0cc3 1D       		.uleb128 0x1d
 2407 0cc4 36000000 		.4byte	.LVL48
 2408 0cc8 020C0000 		.4byte	0xc02
 2409 0ccc 13       		.uleb128 0x13
 2410 0ccd 3E000000 		.4byte	.LVL49
 2411 0cd1 BF0B0000 		.4byte	0xbbf
 2412 0cd5 03       		.uleb128 0x3
 2413 0cd6 01       		.uleb128 0x1
 2414 0cd7 50       		.byte	0x50
 2415 0cd8 02       		.uleb128 0x2
 2416 0cd9 75       		.byte	0x75
 2417 0cda 00       		.sleb128 0
 2418 0cdb 03       		.uleb128 0x3
 2419 0cdc 01       		.uleb128 0x1
 2420 0cdd 51       		.byte	0x51
 2421 0cde 02       		.uleb128 0x2
 2422 0cdf 74       		.byte	0x74
 2423 0ce0 00       		.sleb128 0
 2424 0ce1 00       		.byte	0
 2425 0ce2 00       		.byte	0
 2426 0ce3 11       		.uleb128 0x11
 2427 0ce4 1B010000 		.4byte	.LASF189
 2428 0ce8 71       		.byte	0x71
 2429 0ce9 06       		.byte	0x6
 2430 0cea D5080000 		.4byte	0x8d5
 2431 0cee 00000000 		.4byte	.LFB438
 2432 0cf2 AC000000 		.4byte	.LFE438-.LFB438
 2433 0cf6 01       		.uleb128 0x1
 2434 0cf7 9C       		.byte	0x9c
 2435 0cf8 E80D0000 		.4byte	0xde8
 2436 0cfc 12       		.uleb128 0x12
 2437 0cfd 64080000 		.4byte	.LASF174
 2438 0d01 71       		.byte	0x71
 2439 0d02 27       		.byte	0x27
 2440 0d03 560A0000 		.4byte	0xa56
 2441 0d07 69000000 		.4byte	.LLST7
 2442 0d0b 65000000 		.4byte	.LVUS7
 2443 0d0f 12       		.uleb128 0x12
 2444 0d10 4A010000 		.4byte	.LASF190
 2445 0d14 71       		.byte	0x71
 2446 0d15 42       		.byte	0x42
 2447 0d16 E80D0000 		.4byte	0xde8
ARM GAS  C:\Users\DEVELO~1\AppData\Local\Temp\ccl8MZFw.s 			page 44


 2448 0d1a 81000000 		.4byte	.LLST8
 2449 0d1e 7D000000 		.4byte	.LVUS8
 2450 0d22 2E       		.uleb128 0x2e
 2451 0d23 63747800 		.ascii	"ctx\000"
 2452 0d27 01       		.byte	0x1
 2453 0d28 7B       		.byte	0x7b
 2454 0d29 18       		.byte	0x18
 2455 0d2a 870B0000 		.4byte	0xb87
 2456 0d2e 03       		.uleb128 0x3
 2457 0d2f 91       		.byte	0x91
 2458 0d30 B87F     		.sleb128 -72
 2459 0d32 14       		.uleb128 0x14
 2460 0d33 6F6B00   		.ascii	"ok\000"
 2461 0d36 7F       		.byte	0x7f
 2462 0d37 08       		.byte	0x8
 2463 0d38 D5080000 		.4byte	0x8d5
 2464 0d3c 94000000 		.4byte	.LLST9
 2465 0d40 92000000 		.4byte	.LVUS9
 2466 0d44 06       		.uleb128 0x6
 2467 0d45 12000000 		.4byte	.LVL32
 2468 0d49 120C0000 		.4byte	0xc12
 2469 0d4d 5B0D0000 		.4byte	0xd5b
 2470 0d51 03       		.uleb128 0x3
 2471 0d52 01       		.uleb128 0x1
 2472 0d53 50       		.byte	0x50
 2473 0d54 05       		.uleb128 0x5
 2474 0d55 03       		.byte	0x3
 2475 0d56 00000000 		.4byte	.LANCHOR0
 2476 0d5a 00       		.byte	0
 2477 0d5b 06       		.uleb128 0x6
 2478 0d5c 22000000 		.4byte	.LVL33
 2479 0d60 020C0000 		.4byte	0xc02
 2480 0d64 720D0000 		.4byte	0xd72
 2481 0d68 03       		.uleb128 0x3
 2482 0d69 01       		.uleb128 0x1
 2483 0d6a 50       		.byte	0x50
 2484 0d6b 05       		.uleb128 0x5
 2485 0d6c 03       		.byte	0x3
 2486 0d6d 00000000 		.4byte	.LANCHOR0
 2487 0d71 00       		.byte	0
 2488 0d72 06       		.uleb128 0x6
 2489 0d73 34000000 		.4byte	.LVL35
 2490 0d77 020C0000 		.4byte	0xc02
 2491 0d7b 890D0000 		.4byte	0xd89
 2492 0d7f 03       		.uleb128 0x3
 2493 0d80 01       		.uleb128 0x1
 2494 0d81 50       		.byte	0x50
 2495 0d82 05       		.uleb128 0x5
 2496 0d83 03       		.byte	0x3
 2497 0d84 00000000 		.4byte	.LANCHOR0
 2498 0d88 00       		.byte	0
 2499 0d89 06       		.uleb128 0x6
 2500 0d8a 3E000000 		.4byte	.LVL36
 2501 0d8e B6100000 		.4byte	0x10b6
 2502 0d92 A90D0000 		.4byte	0xda9
 2503 0d96 03       		.uleb128 0x3
 2504 0d97 01       		.uleb128 0x1
ARM GAS  C:\Users\DEVELO~1\AppData\Local\Temp\ccl8MZFw.s 			page 45


 2505 0d98 50       		.byte	0x50
 2506 0d99 02       		.uleb128 0x2
 2507 0d9a 7D       		.byte	0x7d
 2508 0d9b 00       		.sleb128 0
 2509 0d9c 03       		.uleb128 0x3
 2510 0d9d 01       		.uleb128 0x1
 2511 0d9e 51       		.byte	0x51
 2512 0d9f 02       		.uleb128 0x2
 2513 0da0 74       		.byte	0x74
 2514 0da1 00       		.sleb128 0
 2515 0da2 03       		.uleb128 0x3
 2516 0da3 01       		.uleb128 0x1
 2517 0da4 52       		.byte	0x52
 2518 0da5 02       		.uleb128 0x2
 2519 0da6 08       		.byte	0x8
 2520 0da7 30       		.byte	0x30
 2521 0da8 00       		.byte	0
 2522 0da9 06       		.uleb128 0x6
 2523 0daa 48000000 		.4byte	.LVL37
 2524 0dae DD0B0000 		.4byte	0xbdd
 2525 0db2 BD0D0000 		.4byte	0xdbd
 2526 0db6 03       		.uleb128 0x3
 2527 0db7 01       		.uleb128 0x1
 2528 0db8 50       		.byte	0x50
 2529 0db9 02       		.uleb128 0x2
 2530 0dba 7D       		.byte	0x7d
 2531 0dbb 00       		.sleb128 0
 2532 0dbc 00       		.byte	0
 2533 0dbd 06       		.uleb128 0x6
 2534 0dbe 50000000 		.4byte	.LVL39
 2535 0dc2 120C0000 		.4byte	0xc12
 2536 0dc6 D40D0000 		.4byte	0xdd4
 2537 0dca 03       		.uleb128 0x3
 2538 0dcb 01       		.uleb128 0x1
 2539 0dcc 50       		.byte	0x50
 2540 0dcd 05       		.uleb128 0x5
 2541 0dce 03       		.byte	0x3
 2542 0dcf 00000000 		.4byte	.LANCHOR0
 2543 0dd3 00       		.byte	0
 2544 0dd4 13       		.uleb128 0x13
 2545 0dd5 92000000 		.4byte	.LVL40
 2546 0dd9 020C0000 		.4byte	0xc02
 2547 0ddd 03       		.uleb128 0x3
 2548 0dde 01       		.uleb128 0x1
 2549 0ddf 50       		.byte	0x50
 2550 0de0 05       		.uleb128 0x5
 2551 0de1 03       		.byte	0x3
 2552 0de2 00000000 		.4byte	.LANCHOR0
 2553 0de6 00       		.byte	0
 2554 0de7 00       		.byte	0
 2555 0de8 07       		.uleb128 0x7
 2556 0de9 E10A0000 		.4byte	0xae1
 2557 0ded 11       		.uleb128 0x11
 2558 0dee 510A0000 		.4byte	.LASF191
 2559 0df2 6A       		.byte	0x6a
 2560 0df3 0F       		.byte	0xf
 2561 0df4 4A090000 		.4byte	0x94a
ARM GAS  C:\Users\DEVELO~1\AppData\Local\Temp\ccl8MZFw.s 			page 46


 2562 0df8 00000000 		.4byte	.LFB437
 2563 0dfc 20000000 		.4byte	.LFE437-.LFB437
 2564 0e00 01       		.uleb128 0x1
 2565 0e01 9C       		.byte	0x9c
 2566 0e02 410E0000 		.4byte	0xe41
 2567 0e06 14       		.uleb128 0x14
 2568 0e07 65727200 		.ascii	"err\000"
 2569 0e0b 6C       		.byte	0x6c
 2570 0e0c 11       		.byte	0x11
 2571 0e0d 4A090000 		.4byte	0x94a
 2572 0e11 A3000000 		.4byte	.LLST6
 2573 0e15 9D000000 		.4byte	.LVUS6
 2574 0e19 06       		.uleb128 0x6
 2575 0e1a 0A000000 		.4byte	.LVL26
 2576 0e1e 120C0000 		.4byte	0xc12
 2577 0e22 2D0E0000 		.4byte	0xe2d
 2578 0e26 03       		.uleb128 0x3
 2579 0e27 01       		.uleb128 0x1
 2580 0e28 50       		.byte	0x50
 2581 0e29 02       		.uleb128 0x2
 2582 0e2a 74       		.byte	0x74
 2583 0e2b 00       		.sleb128 0
 2584 0e2c 00       		.byte	0
 2585 0e2d 13       		.uleb128 0x13
 2586 0e2e 14000000 		.4byte	.LVL28
 2587 0e32 020C0000 		.4byte	0xc02
 2588 0e36 03       		.uleb128 0x3
 2589 0e37 01       		.uleb128 0x1
 2590 0e38 50       		.byte	0x50
 2591 0e39 05       		.uleb128 0x5
 2592 0e3a 03       		.byte	0x3
 2593 0e3b 00000000 		.4byte	.LANCHOR0
 2594 0e3f 00       		.byte	0
 2595 0e40 00       		.byte	0
 2596 0e41 11       		.uleb128 0x11
 2597 0e42 70060000 		.4byte	.LASF192
 2598 0e46 63       		.byte	0x63
 2599 0e47 0F       		.byte	0xf
 2600 0e48 0F090000 		.4byte	0x90f
 2601 0e4c 00000000 		.4byte	.LFB436
 2602 0e50 20000000 		.4byte	.LFE436-.LFB436
 2603 0e54 01       		.uleb128 0x1
 2604 0e55 9C       		.byte	0x9c
 2605 0e56 940E0000 		.4byte	0xe94
 2606 0e5a 14       		.uleb128 0x14
 2607 0e5b 737400   		.ascii	"st\000"
 2608 0e5e 65       		.byte	0x65
 2609 0e5f 11       		.byte	0x11
 2610 0e60 0F090000 		.4byte	0x90f
 2611 0e64 C2000000 		.4byte	.LLST5
 2612 0e68 BC000000 		.4byte	.LVUS5
 2613 0e6c 06       		.uleb128 0x6
 2614 0e6d 0A000000 		.4byte	.LVL22
 2615 0e71 120C0000 		.4byte	0xc12
 2616 0e75 800E0000 		.4byte	0xe80
 2617 0e79 03       		.uleb128 0x3
 2618 0e7a 01       		.uleb128 0x1
ARM GAS  C:\Users\DEVELO~1\AppData\Local\Temp\ccl8MZFw.s 			page 47


 2619 0e7b 50       		.byte	0x50
 2620 0e7c 02       		.uleb128 0x2
 2621 0e7d 74       		.byte	0x74
 2622 0e7e 00       		.sleb128 0
 2623 0e7f 00       		.byte	0
 2624 0e80 13       		.uleb128 0x13
 2625 0e81 14000000 		.4byte	.LVL24
 2626 0e85 020C0000 		.4byte	0xc02
 2627 0e89 03       		.uleb128 0x3
 2628 0e8a 01       		.uleb128 0x1
 2629 0e8b 50       		.byte	0x50
 2630 0e8c 05       		.uleb128 0x5
 2631 0e8d 03       		.byte	0x3
 2632 0e8e 00000000 		.4byte	.LANCHOR0
 2633 0e92 00       		.byte	0
 2634 0e93 00       		.byte	0
 2635 0e94 11       		.uleb128 0x11
 2636 0e95 4D020000 		.4byte	.LASF193
 2637 0e99 5B       		.byte	0x5b
 2638 0e9a 06       		.byte	0x6
 2639 0e9b D5080000 		.4byte	0x8d5
 2640 0e9f 00000000 		.4byte	.LFB435
 2641 0ea3 2C000000 		.4byte	.LFE435-.LFB435
 2642 0ea7 01       		.uleb128 0x1
 2643 0ea8 9C       		.byte	0x9c
 2644 0ea9 E70E0000 		.4byte	0xee7
 2645 0ead 14       		.uleb128 0x14
 2646 0eae 6F6B00   		.ascii	"ok\000"
 2647 0eb1 5D       		.byte	0x5d
 2648 0eb2 08       		.byte	0x8
 2649 0eb3 D5080000 		.4byte	0x8d5
 2650 0eb7 DF000000 		.4byte	.LLST4
 2651 0ebb DB000000 		.4byte	.LVUS4
 2652 0ebf 06       		.uleb128 0x6
 2653 0ec0 0A000000 		.4byte	.LVL18
 2654 0ec4 120C0000 		.4byte	0xc12
 2655 0ec8 D30E0000 		.4byte	0xed3
 2656 0ecc 03       		.uleb128 0x3
 2657 0ecd 01       		.uleb128 0x1
 2658 0ece 50       		.byte	0x50
 2659 0ecf 02       		.uleb128 0x2
 2660 0ed0 74       		.byte	0x74
 2661 0ed1 00       		.sleb128 0
 2662 0ed2 00       		.byte	0
 2663 0ed3 13       		.uleb128 0x13
 2664 0ed4 1E000000 		.4byte	.LVL20
 2665 0ed8 020C0000 		.4byte	0xc02
 2666 0edc 03       		.uleb128 0x3
 2667 0edd 01       		.uleb128 0x1
 2668 0ede 50       		.byte	0x50
 2669 0edf 05       		.uleb128 0x5
 2670 0ee0 03       		.byte	0x3
 2671 0ee1 00000000 		.4byte	.LANCHOR0
 2672 0ee5 00       		.byte	0
 2673 0ee6 00       		.byte	0
 2674 0ee7 2F       		.uleb128 0x2f
 2675 0ee8 68020000 		.4byte	.LASF204
ARM GAS  C:\Users\DEVELO~1\AppData\Local\Temp\ccl8MZFw.s 			page 48


 2676 0eec 01       		.byte	0x1
 2677 0eed 24       		.byte	0x24
 2678 0eee 06       		.byte	0x6
 2679 0eef 00000000 		.4byte	.LFB434
 2680 0ef3 BC000000 		.4byte	.LFE434-.LFB434
 2681 0ef7 01       		.uleb128 0x1
 2682 0ef8 9C       		.byte	0x9c
 2683 0ef9 8A100000 		.4byte	0x108a
 2684 0efd 12       		.uleb128 0x12
 2685 0efe EF040000 		.4byte	.LASF194
 2686 0f02 24       		.byte	0x24
 2687 0f03 16       		.byte	0x16
 2688 0f04 D5080000 		.4byte	0x8d5
 2689 0f08 F3000000 		.4byte	.LLST0
 2690 0f0c EF000000 		.4byte	.LVUS0
 2691 0f10 30       		.uleb128 0x30
 2692 0f11 D8090000 		.4byte	.LASF195
 2693 0f15 01       		.byte	0x1
 2694 0f16 46       		.byte	0x46
 2695 0f17 18       		.byte	0x18
 2696 0f18 870B0000 		.4byte	0xb87
 2697 0f1c 03       		.uleb128 0x3
 2698 0f1d 91       		.byte	0x91
 2699 0f1e B87F     		.sleb128 -72
 2700 0f20 14       		.uleb128 0x14
 2701 0f21 6F6B00   		.ascii	"ok\000"
 2702 0f24 4E       		.byte	0x4e
 2703 0f25 08       		.byte	0x8
 2704 0f26 D5080000 		.4byte	0x8d5
 2705 0f2a 0B010000 		.4byte	.LLST1
 2706 0f2e 07010000 		.4byte	.LVUS1
 2707 0f32 1B       		.uleb128 0x1b
 2708 0f33 A0100000 		.4byte	0x10a0
 2709 0f37 8C000000 		.4byte	.LBI8
 2710 0f3b 01       		.byte	.LVU60
 2711 0f3c 0C000000 		.4byte	.LLRL2
 2712 0f40 34       		.byte	0x34
 2713 0f41 530F0000 		.4byte	0xf53
 2714 0f45 1C       		.uleb128 0x1c
 2715 0f46 AA100000 		.4byte	0x10aa
 2716 0f4a 1D010000 		.4byte	.LLST3
 2717 0f4e 1B010000 		.4byte	.LVUS3
 2718 0f52 00       		.byte	0
 2719 0f53 06       		.uleb128 0x6
 2720 0f54 0E000000 		.4byte	.LVL2
 2721 0f58 120C0000 		.4byte	0xc12
 2722 0f5c 6A0F0000 		.4byte	0xf6a
 2723 0f60 03       		.uleb128 0x3
 2724 0f61 01       		.uleb128 0x1
 2725 0f62 50       		.byte	0x50
 2726 0f63 05       		.uleb128 0x5
 2727 0f64 03       		.byte	0x3
 2728 0f65 00000000 		.4byte	.LANCHOR0
 2729 0f69 00       		.byte	0
 2730 0f6a 06       		.uleb128 0x6
 2731 0f6b 20000000 		.4byte	.LVL3
 2732 0f6f 020C0000 		.4byte	0xc02
ARM GAS  C:\Users\DEVELO~1\AppData\Local\Temp\ccl8MZFw.s 			page 49


 2733 0f73 810F0000 		.4byte	0xf81
 2734 0f77 03       		.uleb128 0x3
 2735 0f78 01       		.uleb128 0x1
 2736 0f79 50       		.byte	0x50
 2737 0f7a 05       		.uleb128 0x5
 2738 0f7b 03       		.byte	0x3
 2739 0f7c 00000000 		.4byte	.LANCHOR0
 2740 0f80 00       		.byte	0
 2741 0f81 1D       		.uleb128 0x1d
 2742 0f82 24000000 		.4byte	.LVL4
 2743 0f86 F60B0000 		.4byte	0xbf6
 2744 0f8a 06       		.uleb128 0x6
 2745 0f8b 2C000000 		.4byte	.LVL5
 2746 0f8f 120C0000 		.4byte	0xc12
 2747 0f93 A10F0000 		.4byte	0xfa1
 2748 0f97 03       		.uleb128 0x3
 2749 0f98 01       		.uleb128 0x1
 2750 0f99 50       		.byte	0x50
 2751 0f9a 05       		.uleb128 0x5
 2752 0f9b 03       		.byte	0x3
 2753 0f9c 00000000 		.4byte	.LANCHOR0
 2754 0fa0 00       		.byte	0
 2755 0fa1 06       		.uleb128 0x6
 2756 0fa2 36000000 		.4byte	.LVL6
 2757 0fa6 020C0000 		.4byte	0xc02
 2758 0faa B80F0000 		.4byte	0xfb8
 2759 0fae 03       		.uleb128 0x3
 2760 0faf 01       		.uleb128 0x1
 2761 0fb0 50       		.byte	0x50
 2762 0fb1 05       		.uleb128 0x5
 2763 0fb2 03       		.byte	0x3
 2764 0fb3 00000000 		.4byte	.LANCHOR0
 2765 0fb7 00       		.byte	0
 2766 0fb8 06       		.uleb128 0x6
 2767 0fb9 44000000 		.4byte	.LVL7
 2768 0fbd B6100000 		.4byte	0x10b6
 2769 0fc1 D80F0000 		.4byte	0xfd8
 2770 0fc5 03       		.uleb128 0x3
 2771 0fc6 01       		.uleb128 0x1
 2772 0fc7 50       		.byte	0x50
 2773 0fc8 02       		.uleb128 0x2
 2774 0fc9 7D       		.byte	0x7d
 2775 0fca 00       		.sleb128 0
 2776 0fcb 03       		.uleb128 0x3
 2777 0fcc 01       		.uleb128 0x1
 2778 0fcd 51       		.byte	0x51
 2779 0fce 02       		.uleb128 0x2
 2780 0fcf 76       		.byte	0x76
 2781 0fd0 00       		.sleb128 0
 2782 0fd1 03       		.uleb128 0x3
 2783 0fd2 01       		.uleb128 0x1
 2784 0fd3 52       		.byte	0x52
 2785 0fd4 02       		.uleb128 0x2
 2786 0fd5 08       		.byte	0x8
 2787 0fd6 30       		.byte	0x30
 2788 0fd7 00       		.byte	0
 2789 0fd8 06       		.uleb128 0x6
ARM GAS  C:\Users\DEVELO~1\AppData\Local\Temp\ccl8MZFw.s 			page 50


 2790 0fd9 4A000000 		.4byte	.LVL8
 2791 0fdd 120C0000 		.4byte	0xc12
 2792 0fe1 EF0F0000 		.4byte	0xfef
 2793 0fe5 03       		.uleb128 0x3
 2794 0fe6 01       		.uleb128 0x1
 2795 0fe7 50       		.byte	0x50
 2796 0fe8 05       		.uleb128 0x5
 2797 0fe9 03       		.byte	0x3
 2798 0fea 00000000 		.4byte	.LANCHOR0
 2799 0fee 00       		.byte	0
 2800 0fef 06       		.uleb128 0x6
 2801 0ff0 52000000 		.4byte	.LVL9
 2802 0ff4 020C0000 		.4byte	0xc02
 2803 0ff8 06100000 		.4byte	0x1006
 2804 0ffc 03       		.uleb128 0x3
 2805 0ffd 01       		.uleb128 0x1
 2806 0ffe 50       		.byte	0x50
 2807 0fff 05       		.uleb128 0x5
 2808 1000 03       		.byte	0x3
 2809 1001 00000000 		.4byte	.LANCHOR0
 2810 1005 00       		.byte	0
 2811 1006 06       		.uleb128 0x6
 2812 1007 58000000 		.4byte	.LVL10
 2813 100b DD0B0000 		.4byte	0xbdd
 2814 100f 1A100000 		.4byte	0x101a
 2815 1013 03       		.uleb128 0x3
 2816 1014 01       		.uleb128 0x1
 2817 1015 50       		.byte	0x50
 2818 1016 02       		.uleb128 0x2
 2819 1017 7D       		.byte	0x7d
 2820 1018 00       		.sleb128 0
 2821 1019 00       		.byte	0
 2822 101a 06       		.uleb128 0x6
 2823 101b 60000000 		.4byte	.LVL12
 2824 101f 120C0000 		.4byte	0xc12
 2825 1023 31100000 		.4byte	0x1031
 2826 1027 03       		.uleb128 0x3
 2827 1028 01       		.uleb128 0x1
 2828 1029 50       		.byte	0x50
 2829 102a 05       		.uleb128 0x5
 2830 102b 03       		.byte	0x3
 2831 102c 00000000 		.4byte	.LANCHOR0
 2832 1030 00       		.byte	0
 2833 1031 06       		.uleb128 0x6
 2834 1032 82000000 		.4byte	.LVL13
 2835 1036 020C0000 		.4byte	0xc02
 2836 103a 48100000 		.4byte	0x1048
 2837 103e 03       		.uleb128 0x3
 2838 103f 01       		.uleb128 0x1
 2839 1040 50       		.byte	0x50
 2840 1041 05       		.uleb128 0x5
 2841 1042 03       		.byte	0x3
 2842 1043 00000000 		.4byte	.LANCHOR0
 2843 1047 00       		.byte	0
 2844 1048 06       		.uleb128 0x6
 2845 1049 8C000000 		.4byte	.LVL14
 2846 104d 120C0000 		.4byte	0xc12
ARM GAS  C:\Users\DEVELO~1\AppData\Local\Temp\ccl8MZFw.s 			page 51


 2847 1051 5F100000 		.4byte	0x105f
 2848 1055 03       		.uleb128 0x3
 2849 1056 01       		.uleb128 0x1
 2850 1057 50       		.byte	0x50
 2851 1058 05       		.uleb128 0x5
 2852 1059 03       		.byte	0x3
 2853 105a 00000000 		.4byte	.LANCHOR0
 2854 105e 00       		.byte	0
 2855 105f 31       		.uleb128 0x31
 2856 1060 9E000000 		.4byte	.LVL16
 2857 1064 020C0000 		.4byte	0xc02
 2858 1068 76100000 		.4byte	0x1076
 2859 106c 03       		.uleb128 0x3
 2860 106d 01       		.uleb128 0x1
 2861 106e 50       		.byte	0x50
 2862 106f 05       		.uleb128 0x5
 2863 1070 03       		.byte	0x3
 2864 1071 00000000 		.4byte	.LANCHOR0
 2865 1075 00       		.byte	0
 2866 1076 32       		.uleb128 0x32
 2867 1077 AA000000 		.4byte	.LVL17
 2868 107b 020C0000 		.4byte	0xc02
 2869 107f 03       		.uleb128 0x3
 2870 1080 01       		.uleb128 0x1
 2871 1081 50       		.byte	0x50
 2872 1082 05       		.uleb128 0x5
 2873 1083 03       		.byte	0x3
 2874 1084 00000000 		.4byte	.LANCHOR0
 2875 1088 00       		.byte	0
 2876 1089 00       		.byte	0
 2877 108a 21       		.uleb128 0x21
 2878 108b 23090000 		.4byte	.LASF196
 2879 108f 19       		.byte	0x19
 2880 1090 A0100000 		.4byte	0x10a0
 2881 1094 22       		.uleb128 0x22
 2882 1095 9E070000 		.4byte	.LASF198
 2883 1099 19       		.byte	0x19
 2884 109a 3A       		.byte	0x3a
 2885 109b D80B0000 		.4byte	0xbd8
 2886 109f 00       		.byte	0
 2887 10a0 21       		.uleb128 0x21
 2888 10a1 BE060000 		.4byte	.LASF197
 2889 10a5 14       		.byte	0x14
 2890 10a6 B6100000 		.4byte	0x10b6
 2891 10aa 22       		.uleb128 0x22
 2892 10ab 12070000 		.4byte	.LASF199
 2893 10af 14       		.byte	0x14
 2894 10b0 32       		.byte	0x32
 2895 10b1 4A090000 		.4byte	0x94a
 2896 10b5 00       		.byte	0
 2897 10b6 33       		.uleb128 0x33
 2898 10b7 F2090000 		.4byte	.LASF205
 2899 10bb 34010000 		.4byte	.LASF206
 2900 10bf 11       		.byte	0x11
 2901 10c0 00       		.byte	0
 2902 10c1 00       		.byte	0
 2903              		.section	.debug_abbrev,"",%progbits
ARM GAS  C:\Users\DEVELO~1\AppData\Local\Temp\ccl8MZFw.s 			page 52


 2904              	.Ldebug_abbrev0:
 2905 0000 01       		.uleb128 0x1
 2906 0001 0D       		.uleb128 0xd
 2907 0002 00       		.byte	0
 2908 0003 03       		.uleb128 0x3
 2909 0004 0E       		.uleb128 0xe
 2910 0005 3A       		.uleb128 0x3a
 2911 0006 0B       		.uleb128 0xb
 2912 0007 3B       		.uleb128 0x3b
 2913 0008 0B       		.uleb128 0xb
 2914 0009 39       		.uleb128 0x39
 2915 000a 0B       		.uleb128 0xb
 2916 000b 49       		.uleb128 0x49
 2917 000c 13       		.uleb128 0x13
 2918 000d 38       		.uleb128 0x38
 2919 000e 0B       		.uleb128 0xb
 2920 000f 00       		.byte	0
 2921 0010 00       		.byte	0
 2922 0011 02       		.uleb128 0x2
 2923 0012 16       		.uleb128 0x16
 2924 0013 00       		.byte	0
 2925 0014 03       		.uleb128 0x3
 2926 0015 0E       		.uleb128 0xe
 2927 0016 3A       		.uleb128 0x3a
 2928 0017 0B       		.uleb128 0xb
 2929 0018 3B       		.uleb128 0x3b
 2930 0019 0B       		.uleb128 0xb
 2931 001a 39       		.uleb128 0x39
 2932 001b 0B       		.uleb128 0xb
 2933 001c 49       		.uleb128 0x49
 2934 001d 13       		.uleb128 0x13
 2935 001e 00       		.byte	0
 2936 001f 00       		.byte	0
 2937 0020 03       		.uleb128 0x3
 2938 0021 49       		.uleb128 0x49
 2939 0022 00       		.byte	0
 2940 0023 02       		.uleb128 0x2
 2941 0024 18       		.uleb128 0x18
 2942 0025 7E       		.uleb128 0x7e
 2943 0026 18       		.uleb128 0x18
 2944 0027 00       		.byte	0
 2945 0028 00       		.byte	0
 2946 0029 04       		.uleb128 0x4
 2947 002a 28       		.uleb128 0x28
 2948 002b 00       		.byte	0
 2949 002c 03       		.uleb128 0x3
 2950 002d 0E       		.uleb128 0xe
 2951 002e 1C       		.uleb128 0x1c
 2952 002f 0B       		.uleb128 0xb
 2953 0030 00       		.byte	0
 2954 0031 00       		.byte	0
 2955 0032 05       		.uleb128 0x5
 2956 0033 0D       		.uleb128 0xd
 2957 0034 00       		.byte	0
 2958 0035 03       		.uleb128 0x3
 2959 0036 0E       		.uleb128 0xe
 2960 0037 3A       		.uleb128 0x3a
ARM GAS  C:\Users\DEVELO~1\AppData\Local\Temp\ccl8MZFw.s 			page 53


 2961 0038 21       		.uleb128 0x21
 2962 0039 06       		.sleb128 6
 2963 003a 3B       		.uleb128 0x3b
 2964 003b 05       		.uleb128 0x5
 2965 003c 39       		.uleb128 0x39
 2966 003d 0B       		.uleb128 0xb
 2967 003e 49       		.uleb128 0x49
 2968 003f 13       		.uleb128 0x13
 2969 0040 38       		.uleb128 0x38
 2970 0041 0B       		.uleb128 0xb
 2971 0042 00       		.byte	0
 2972 0043 00       		.byte	0
 2973 0044 06       		.uleb128 0x6
 2974 0045 48       		.uleb128 0x48
 2975 0046 01       		.byte	0x1
 2976 0047 7D       		.uleb128 0x7d
 2977 0048 01       		.uleb128 0x1
 2978 0049 7F       		.uleb128 0x7f
 2979 004a 13       		.uleb128 0x13
 2980 004b 01       		.uleb128 0x1
 2981 004c 13       		.uleb128 0x13
 2982 004d 00       		.byte	0
 2983 004e 00       		.byte	0
 2984 004f 07       		.uleb128 0x7
 2985 0050 0F       		.uleb128 0xf
 2986 0051 00       		.byte	0
 2987 0052 0B       		.uleb128 0xb
 2988 0053 21       		.uleb128 0x21
 2989 0054 04       		.sleb128 4
 2990 0055 49       		.uleb128 0x49
 2991 0056 13       		.uleb128 0x13
 2992 0057 00       		.byte	0
 2993 0058 00       		.byte	0
 2994 0059 08       		.uleb128 0x8
 2995 005a 24       		.uleb128 0x24
 2996 005b 00       		.byte	0
 2997 005c 0B       		.uleb128 0xb
 2998 005d 0B       		.uleb128 0xb
 2999 005e 3E       		.uleb128 0x3e
 3000 005f 0B       		.uleb128 0xb
 3001 0060 03       		.uleb128 0x3
 3002 0061 0E       		.uleb128 0xe
 3003 0062 00       		.byte	0
 3004 0063 00       		.byte	0
 3005 0064 09       		.uleb128 0x9
 3006 0065 0D       		.uleb128 0xd
 3007 0066 00       		.byte	0
 3008 0067 03       		.uleb128 0x3
 3009 0068 08       		.uleb128 0x8
 3010 0069 3A       		.uleb128 0x3a
 3011 006a 0B       		.uleb128 0xb
 3012 006b 3B       		.uleb128 0x3b
 3013 006c 05       		.uleb128 0x5
 3014 006d 39       		.uleb128 0x39
 3015 006e 0B       		.uleb128 0xb
 3016 006f 49       		.uleb128 0x49
 3017 0070 13       		.uleb128 0x13
ARM GAS  C:\Users\DEVELO~1\AppData\Local\Temp\ccl8MZFw.s 			page 54


 3018 0071 38       		.uleb128 0x38
 3019 0072 0B       		.uleb128 0xb
 3020 0073 00       		.byte	0
 3021 0074 00       		.byte	0
 3022 0075 0A       		.uleb128 0xa
 3023 0076 13       		.uleb128 0x13
 3024 0077 01       		.byte	0x1
 3025 0078 03       		.uleb128 0x3
 3026 0079 0E       		.uleb128 0xe
 3027 007a 0B       		.uleb128 0xb
 3028 007b 0B       		.uleb128 0xb
 3029 007c 3A       		.uleb128 0x3a
 3030 007d 0B       		.uleb128 0xb
 3031 007e 3B       		.uleb128 0x3b
 3032 007f 0B       		.uleb128 0xb
 3033 0080 39       		.uleb128 0x39
 3034 0081 0B       		.uleb128 0xb
 3035 0082 01       		.uleb128 0x1
 3036 0083 13       		.uleb128 0x13
 3037 0084 00       		.byte	0
 3038 0085 00       		.byte	0
 3039 0086 0B       		.uleb128 0xb
 3040 0087 0D       		.uleb128 0xd
 3041 0088 00       		.byte	0
 3042 0089 03       		.uleb128 0x3
 3043 008a 08       		.uleb128 0x8
 3044 008b 3A       		.uleb128 0x3a
 3045 008c 0B       		.uleb128 0xb
 3046 008d 3B       		.uleb128 0x3b
 3047 008e 0B       		.uleb128 0xb
 3048 008f 39       		.uleb128 0x39
 3049 0090 0B       		.uleb128 0xb
 3050 0091 49       		.uleb128 0x49
 3051 0092 13       		.uleb128 0x13
 3052 0093 38       		.uleb128 0x38
 3053 0094 0B       		.uleb128 0xb
 3054 0095 00       		.byte	0
 3055 0096 00       		.byte	0
 3056 0097 0C       		.uleb128 0xc
 3057 0098 13       		.uleb128 0x13
 3058 0099 01       		.byte	0x1
 3059 009a 0B       		.uleb128 0xb
 3060 009b 0B       		.uleb128 0xb
 3061 009c 3A       		.uleb128 0x3a
 3062 009d 0B       		.uleb128 0xb
 3063 009e 3B       		.uleb128 0x3b
 3064 009f 0B       		.uleb128 0xb
 3065 00a0 39       		.uleb128 0x39
 3066 00a1 0B       		.uleb128 0xb
 3067 00a2 01       		.uleb128 0x1
 3068 00a3 13       		.uleb128 0x13
 3069 00a4 00       		.byte	0
 3070 00a5 00       		.byte	0
 3071 00a6 0D       		.uleb128 0xd
 3072 00a7 0D       		.uleb128 0xd
 3073 00a8 00       		.byte	0
 3074 00a9 03       		.uleb128 0x3
ARM GAS  C:\Users\DEVELO~1\AppData\Local\Temp\ccl8MZFw.s 			page 55


 3075 00aa 0E       		.uleb128 0xe
 3076 00ab 3A       		.uleb128 0x3a
 3077 00ac 0B       		.uleb128 0xb
 3078 00ad 3B       		.uleb128 0x3b
 3079 00ae 0B       		.uleb128 0xb
 3080 00af 39       		.uleb128 0x39
 3081 00b0 0B       		.uleb128 0xb
 3082 00b1 49       		.uleb128 0x49
 3083 00b2 13       		.uleb128 0x13
 3084 00b3 00       		.byte	0
 3085 00b4 00       		.byte	0
 3086 00b5 0E       		.uleb128 0xe
 3087 00b6 0D       		.uleb128 0xd
 3088 00b7 00       		.byte	0
 3089 00b8 03       		.uleb128 0x3
 3090 00b9 0E       		.uleb128 0xe
 3091 00ba 3A       		.uleb128 0x3a
 3092 00bb 21       		.uleb128 0x21
 3093 00bc 06       		.sleb128 6
 3094 00bd 3B       		.uleb128 0x3b
 3095 00be 05       		.uleb128 0x5
 3096 00bf 39       		.uleb128 0x39
 3097 00c0 0B       		.uleb128 0xb
 3098 00c1 49       		.uleb128 0x49
 3099 00c2 13       		.uleb128 0x13
 3100 00c3 00       		.byte	0
 3101 00c4 00       		.byte	0
 3102 00c5 0F       		.uleb128 0xf
 3103 00c6 04       		.uleb128 0x4
 3104 00c7 01       		.byte	0x1
 3105 00c8 3E       		.uleb128 0x3e
 3106 00c9 21       		.uleb128 0x21
 3107 00ca 07       		.sleb128 7
 3108 00cb 0B       		.uleb128 0xb
 3109 00cc 21       		.uleb128 0x21
 3110 00cd 01       		.sleb128 1
 3111 00ce 49       		.uleb128 0x49
 3112 00cf 13       		.uleb128 0x13
 3113 00d0 3A       		.uleb128 0x3a
 3114 00d1 21       		.uleb128 0x21
 3115 00d2 0F       		.sleb128 15
 3116 00d3 3B       		.uleb128 0x3b
 3117 00d4 0B       		.uleb128 0xb
 3118 00d5 39       		.uleb128 0x39
 3119 00d6 21       		.uleb128 0x21
 3120 00d7 0E       		.sleb128 14
 3121 00d8 01       		.uleb128 0x1
 3122 00d9 13       		.uleb128 0x13
 3123 00da 00       		.byte	0
 3124 00db 00       		.byte	0
 3125 00dc 10       		.uleb128 0x10
 3126 00dd 05       		.uleb128 0x5
 3127 00de 00       		.byte	0
 3128 00df 49       		.uleb128 0x49
 3129 00e0 13       		.uleb128 0x13
 3130 00e1 00       		.byte	0
 3131 00e2 00       		.byte	0
ARM GAS  C:\Users\DEVELO~1\AppData\Local\Temp\ccl8MZFw.s 			page 56


 3132 00e3 11       		.uleb128 0x11
 3133 00e4 2E       		.uleb128 0x2e
 3134 00e5 01       		.byte	0x1
 3135 00e6 3F       		.uleb128 0x3f
 3136 00e7 19       		.uleb128 0x19
 3137 00e8 03       		.uleb128 0x3
 3138 00e9 0E       		.uleb128 0xe
 3139 00ea 3A       		.uleb128 0x3a
 3140 00eb 21       		.uleb128 0x21
 3141 00ec 01       		.sleb128 1
 3142 00ed 3B       		.uleb128 0x3b
 3143 00ee 0B       		.uleb128 0xb
 3144 00ef 39       		.uleb128 0x39
 3145 00f0 0B       		.uleb128 0xb
 3146 00f1 27       		.uleb128 0x27
 3147 00f2 19       		.uleb128 0x19
 3148 00f3 49       		.uleb128 0x49
 3149 00f4 13       		.uleb128 0x13
 3150 00f5 11       		.uleb128 0x11
 3151 00f6 01       		.uleb128 0x1
 3152 00f7 12       		.uleb128 0x12
 3153 00f8 06       		.uleb128 0x6
 3154 00f9 40       		.uleb128 0x40
 3155 00fa 18       		.uleb128 0x18
 3156 00fb 7A       		.uleb128 0x7a
 3157 00fc 19       		.uleb128 0x19
 3158 00fd 01       		.uleb128 0x1
 3159 00fe 13       		.uleb128 0x13
 3160 00ff 00       		.byte	0
 3161 0100 00       		.byte	0
 3162 0101 12       		.uleb128 0x12
 3163 0102 05       		.uleb128 0x5
 3164 0103 00       		.byte	0
 3165 0104 03       		.uleb128 0x3
 3166 0105 0E       		.uleb128 0xe
 3167 0106 3A       		.uleb128 0x3a
 3168 0107 21       		.uleb128 0x21
 3169 0108 01       		.sleb128 1
 3170 0109 3B       		.uleb128 0x3b
 3171 010a 0B       		.uleb128 0xb
 3172 010b 39       		.uleb128 0x39
 3173 010c 0B       		.uleb128 0xb
 3174 010d 49       		.uleb128 0x49
 3175 010e 13       		.uleb128 0x13
 3176 010f 02       		.uleb128 0x2
 3177 0110 17       		.uleb128 0x17
 3178 0111 B742     		.uleb128 0x2137
 3179 0113 17       		.uleb128 0x17
 3180 0114 00       		.byte	0
 3181 0115 00       		.byte	0
 3182 0116 13       		.uleb128 0x13
 3183 0117 48       		.uleb128 0x48
 3184 0118 01       		.byte	0x1
 3185 0119 7D       		.uleb128 0x7d
 3186 011a 01       		.uleb128 0x1
 3187 011b 7F       		.uleb128 0x7f
 3188 011c 13       		.uleb128 0x13
ARM GAS  C:\Users\DEVELO~1\AppData\Local\Temp\ccl8MZFw.s 			page 57


 3189 011d 00       		.byte	0
 3190 011e 00       		.byte	0
 3191 011f 14       		.uleb128 0x14
 3192 0120 34       		.uleb128 0x34
 3193 0121 00       		.byte	0
 3194 0122 03       		.uleb128 0x3
 3195 0123 08       		.uleb128 0x8
 3196 0124 3A       		.uleb128 0x3a
 3197 0125 21       		.uleb128 0x21
 3198 0126 01       		.sleb128 1
 3199 0127 3B       		.uleb128 0x3b
 3200 0128 0B       		.uleb128 0xb
 3201 0129 39       		.uleb128 0x39
 3202 012a 0B       		.uleb128 0xb
 3203 012b 49       		.uleb128 0x49
 3204 012c 13       		.uleb128 0x13
 3205 012d 02       		.uleb128 0x2
 3206 012e 17       		.uleb128 0x17
 3207 012f B742     		.uleb128 0x2137
 3208 0131 17       		.uleb128 0x17
 3209 0132 00       		.byte	0
 3210 0133 00       		.byte	0
 3211 0134 15       		.uleb128 0x15
 3212 0135 13       		.uleb128 0x13
 3213 0136 01       		.byte	0x1
 3214 0137 03       		.uleb128 0x3
 3215 0138 0E       		.uleb128 0xe
 3216 0139 0B       		.uleb128 0xb
 3217 013a 0B       		.uleb128 0xb
 3218 013b 3A       		.uleb128 0x3a
 3219 013c 0B       		.uleb128 0xb
 3220 013d 3B       		.uleb128 0x3b
 3221 013e 05       		.uleb128 0x5
 3222 013f 39       		.uleb128 0x39
 3223 0140 0B       		.uleb128 0xb
 3224 0141 01       		.uleb128 0x1
 3225 0142 13       		.uleb128 0x13
 3226 0143 00       		.byte	0
 3227 0144 00       		.byte	0
 3228 0145 16       		.uleb128 0x16
 3229 0146 35       		.uleb128 0x35
 3230 0147 00       		.byte	0
 3231 0148 49       		.uleb128 0x49
 3232 0149 13       		.uleb128 0x13
 3233 014a 00       		.byte	0
 3234 014b 00       		.byte	0
 3235 014c 17       		.uleb128 0x17
 3236 014d 26       		.uleb128 0x26
 3237 014e 00       		.byte	0
 3238 014f 49       		.uleb128 0x49
 3239 0150 13       		.uleb128 0x13
 3240 0151 00       		.byte	0
 3241 0152 00       		.byte	0
 3242 0153 18       		.uleb128 0x18
 3243 0154 17       		.uleb128 0x17
 3244 0155 01       		.byte	0x1
 3245 0156 0B       		.uleb128 0xb
ARM GAS  C:\Users\DEVELO~1\AppData\Local\Temp\ccl8MZFw.s 			page 58


 3246 0157 0B       		.uleb128 0xb
 3247 0158 3A       		.uleb128 0x3a
 3248 0159 0B       		.uleb128 0xb
 3249 015a 3B       		.uleb128 0x3b
 3250 015b 0B       		.uleb128 0xb
 3251 015c 39       		.uleb128 0x39
 3252 015d 21       		.uleb128 0x21
 3253 015e 03       		.sleb128 3
 3254 015f 01       		.uleb128 0x1
 3255 0160 13       		.uleb128 0x13
 3256 0161 00       		.byte	0
 3257 0162 00       		.byte	0
 3258 0163 19       		.uleb128 0x19
 3259 0164 0D       		.uleb128 0xd
 3260 0165 00       		.byte	0
 3261 0166 03       		.uleb128 0x3
 3262 0167 08       		.uleb128 0x8
 3263 0168 3A       		.uleb128 0x3a
 3264 0169 21       		.uleb128 0x21
 3265 016a 0B       		.sleb128 11
 3266 016b 3B       		.uleb128 0x3b
 3267 016c 0B       		.uleb128 0xb
 3268 016d 39       		.uleb128 0x39
 3269 016e 21       		.uleb128 0x21
 3270 016f 07       		.sleb128 7
 3271 0170 49       		.uleb128 0x49
 3272 0171 13       		.uleb128 0x13
 3273 0172 00       		.byte	0
 3274 0173 00       		.byte	0
 3275 0174 1A       		.uleb128 0x1a
 3276 0175 0D       		.uleb128 0xd
 3277 0176 00       		.byte	0
 3278 0177 03       		.uleb128 0x3
 3279 0178 0E       		.uleb128 0xe
 3280 0179 3A       		.uleb128 0x3a
 3281 017a 21       		.uleb128 0x21
 3282 017b 0B       		.sleb128 11
 3283 017c 3B       		.uleb128 0x3b
 3284 017d 0B       		.uleb128 0xb
 3285 017e 39       		.uleb128 0x39
 3286 017f 21       		.uleb128 0x21
 3287 0180 19       		.sleb128 25
 3288 0181 49       		.uleb128 0x49
 3289 0182 13       		.uleb128 0x13
 3290 0183 0D       		.uleb128 0xd
 3291 0184 0B       		.uleb128 0xb
 3292 0185 6B       		.uleb128 0x6b
 3293 0186 0B       		.uleb128 0xb
 3294 0187 00       		.byte	0
 3295 0188 00       		.byte	0
 3296 0189 1B       		.uleb128 0x1b
 3297 018a 1D       		.uleb128 0x1d
 3298 018b 01       		.byte	0x1
 3299 018c 31       		.uleb128 0x31
 3300 018d 13       		.uleb128 0x13
 3301 018e 52       		.uleb128 0x52
 3302 018f 01       		.uleb128 0x1
ARM GAS  C:\Users\DEVELO~1\AppData\Local\Temp\ccl8MZFw.s 			page 59


 3303 0190 B842     		.uleb128 0x2138
 3304 0192 0B       		.uleb128 0xb
 3305 0193 55       		.uleb128 0x55
 3306 0194 17       		.uleb128 0x17
 3307 0195 58       		.uleb128 0x58
 3308 0196 21       		.uleb128 0x21
 3309 0197 01       		.sleb128 1
 3310 0198 59       		.uleb128 0x59
 3311 0199 0B       		.uleb128 0xb
 3312 019a 57       		.uleb128 0x57
 3313 019b 21       		.uleb128 0x21
 3314 019c 05       		.sleb128 5
 3315 019d 01       		.uleb128 0x1
 3316 019e 13       		.uleb128 0x13
 3317 019f 00       		.byte	0
 3318 01a0 00       		.byte	0
 3319 01a1 1C       		.uleb128 0x1c
 3320 01a2 05       		.uleb128 0x5
 3321 01a3 00       		.byte	0
 3322 01a4 31       		.uleb128 0x31
 3323 01a5 13       		.uleb128 0x13
 3324 01a6 02       		.uleb128 0x2
 3325 01a7 17       		.uleb128 0x17
 3326 01a8 B742     		.uleb128 0x2137
 3327 01aa 17       		.uleb128 0x17
 3328 01ab 00       		.byte	0
 3329 01ac 00       		.byte	0
 3330 01ad 1D       		.uleb128 0x1d
 3331 01ae 48       		.uleb128 0x48
 3332 01af 00       		.byte	0
 3333 01b0 7D       		.uleb128 0x7d
 3334 01b1 01       		.uleb128 0x1
 3335 01b2 7F       		.uleb128 0x7f
 3336 01b3 13       		.uleb128 0x13
 3337 01b4 00       		.byte	0
 3338 01b5 00       		.byte	0
 3339 01b6 1E       		.uleb128 0x1e
 3340 01b7 16       		.uleb128 0x16
 3341 01b8 00       		.byte	0
 3342 01b9 03       		.uleb128 0x3
 3343 01ba 0E       		.uleb128 0xe
 3344 01bb 3A       		.uleb128 0x3a
 3345 01bc 21       		.uleb128 0x21
 3346 01bd 06       		.sleb128 6
 3347 01be 3B       		.uleb128 0x3b
 3348 01bf 05       		.uleb128 0x5
 3349 01c0 39       		.uleb128 0x39
 3350 01c1 21       		.uleb128 0x21
 3351 01c2 03       		.sleb128 3
 3352 01c3 49       		.uleb128 0x49
 3353 01c4 13       		.uleb128 0x13
 3354 01c5 00       		.byte	0
 3355 01c6 00       		.byte	0
 3356 01c7 1F       		.uleb128 0x1f
 3357 01c8 2E       		.uleb128 0x2e
 3358 01c9 01       		.byte	0x1
 3359 01ca 3F       		.uleb128 0x3f
ARM GAS  C:\Users\DEVELO~1\AppData\Local\Temp\ccl8MZFw.s 			page 60


 3360 01cb 19       		.uleb128 0x19
 3361 01cc 03       		.uleb128 0x3
 3362 01cd 0E       		.uleb128 0xe
 3363 01ce 3A       		.uleb128 0x3a
 3364 01cf 21       		.uleb128 0x21
 3365 01d0 10       		.sleb128 16
 3366 01d1 3B       		.uleb128 0x3b
 3367 01d2 0B       		.uleb128 0xb
 3368 01d3 39       		.uleb128 0x39
 3369 01d4 21       		.uleb128 0x21
 3370 01d5 06       		.sleb128 6
 3371 01d6 27       		.uleb128 0x27
 3372 01d7 19       		.uleb128 0x19
 3373 01d8 49       		.uleb128 0x49
 3374 01d9 13       		.uleb128 0x13
 3375 01da 3C       		.uleb128 0x3c
 3376 01db 19       		.uleb128 0x19
 3377 01dc 01       		.uleb128 0x1
 3378 01dd 13       		.uleb128 0x13
 3379 01de 00       		.byte	0
 3380 01df 00       		.byte	0
 3381 01e0 20       		.uleb128 0x20
 3382 01e1 2E       		.uleb128 0x2e
 3383 01e2 01       		.byte	0x1
 3384 01e3 3F       		.uleb128 0x3f
 3385 01e4 19       		.uleb128 0x19
 3386 01e5 03       		.uleb128 0x3
 3387 01e6 0E       		.uleb128 0xe
 3388 01e7 3A       		.uleb128 0x3a
 3389 01e8 21       		.uleb128 0x21
 3390 01e9 0E       		.sleb128 14
 3391 01ea 3B       		.uleb128 0x3b
 3392 01eb 0B       		.uleb128 0xb
 3393 01ec 39       		.uleb128 0x39
 3394 01ed 21       		.uleb128 0x21
 3395 01ee 08       		.sleb128 8
 3396 01ef 27       		.uleb128 0x27
 3397 01f0 19       		.uleb128 0x19
 3398 01f1 3C       		.uleb128 0x3c
 3399 01f2 19       		.uleb128 0x19
 3400 01f3 01       		.uleb128 0x1
 3401 01f4 13       		.uleb128 0x13
 3402 01f5 00       		.byte	0
 3403 01f6 00       		.byte	0
 3404 01f7 21       		.uleb128 0x21
 3405 01f8 2E       		.uleb128 0x2e
 3406 01f9 01       		.byte	0x1
 3407 01fa 03       		.uleb128 0x3
 3408 01fb 0E       		.uleb128 0xe
 3409 01fc 3A       		.uleb128 0x3a
 3410 01fd 21       		.uleb128 0x21
 3411 01fe 01       		.sleb128 1
 3412 01ff 3B       		.uleb128 0x3b
 3413 0200 0B       		.uleb128 0xb
 3414 0201 39       		.uleb128 0x39
 3415 0202 21       		.uleb128 0x21
 3416 0203 0D       		.sleb128 13
ARM GAS  C:\Users\DEVELO~1\AppData\Local\Temp\ccl8MZFw.s 			page 61


 3417 0204 27       		.uleb128 0x27
 3418 0205 19       		.uleb128 0x19
 3419 0206 20       		.uleb128 0x20
 3420 0207 21       		.uleb128 0x21
 3421 0208 01       		.sleb128 1
 3422 0209 01       		.uleb128 0x1
 3423 020a 13       		.uleb128 0x13
 3424 020b 00       		.byte	0
 3425 020c 00       		.byte	0
 3426 020d 22       		.uleb128 0x22
 3427 020e 05       		.uleb128 0x5
 3428 020f 00       		.byte	0
 3429 0210 03       		.uleb128 0x3
 3430 0211 0E       		.uleb128 0xe
 3431 0212 3A       		.uleb128 0x3a
 3432 0213 21       		.uleb128 0x21
 3433 0214 01       		.sleb128 1
 3434 0215 3B       		.uleb128 0x3b
 3435 0216 0B       		.uleb128 0xb
 3436 0217 39       		.uleb128 0x39
 3437 0218 0B       		.uleb128 0xb
 3438 0219 49       		.uleb128 0x49
 3439 021a 13       		.uleb128 0x13
 3440 021b 00       		.byte	0
 3441 021c 00       		.byte	0
 3442 021d 23       		.uleb128 0x23
 3443 021e 11       		.uleb128 0x11
 3444 021f 01       		.byte	0x1
 3445 0220 25       		.uleb128 0x25
 3446 0221 0E       		.uleb128 0xe
 3447 0222 13       		.uleb128 0x13
 3448 0223 0B       		.uleb128 0xb
 3449 0224 03       		.uleb128 0x3
 3450 0225 0E       		.uleb128 0xe
 3451 0226 1B       		.uleb128 0x1b
 3452 0227 0E       		.uleb128 0xe
 3453 0228 55       		.uleb128 0x55
 3454 0229 17       		.uleb128 0x17
 3455 022a 11       		.uleb128 0x11
 3456 022b 01       		.uleb128 0x1
 3457 022c 10       		.uleb128 0x10
 3458 022d 17       		.uleb128 0x17
 3459 022e 00       		.byte	0
 3460 022f 00       		.byte	0
 3461 0230 24       		.uleb128 0x24
 3462 0231 24       		.uleb128 0x24
 3463 0232 00       		.byte	0
 3464 0233 0B       		.uleb128 0xb
 3465 0234 0B       		.uleb128 0xb
 3466 0235 3E       		.uleb128 0x3e
 3467 0236 0B       		.uleb128 0xb
 3468 0237 03       		.uleb128 0x3
 3469 0238 08       		.uleb128 0x8
 3470 0239 00       		.byte	0
 3471 023a 00       		.byte	0
 3472 023b 25       		.uleb128 0x25
 3473 023c 13       		.uleb128 0x13
ARM GAS  C:\Users\DEVELO~1\AppData\Local\Temp\ccl8MZFw.s 			page 62


 3474 023d 01       		.byte	0x1
 3475 023e 03       		.uleb128 0x3
 3476 023f 0E       		.uleb128 0xe
 3477 0240 0B       		.uleb128 0xb
 3478 0241 05       		.uleb128 0x5
 3479 0242 3A       		.uleb128 0x3a
 3480 0243 0B       		.uleb128 0xb
 3481 0244 3B       		.uleb128 0x3b
 3482 0245 05       		.uleb128 0x5
 3483 0246 39       		.uleb128 0x39
 3484 0247 0B       		.uleb128 0xb
 3485 0248 01       		.uleb128 0x1
 3486 0249 13       		.uleb128 0x13
 3487 024a 00       		.byte	0
 3488 024b 00       		.byte	0
 3489 024c 26       		.uleb128 0x26
 3490 024d 0F       		.uleb128 0xf
 3491 024e 00       		.byte	0
 3492 024f 0B       		.uleb128 0xb
 3493 0250 0B       		.uleb128 0xb
 3494 0251 00       		.byte	0
 3495 0252 00       		.byte	0
 3496 0253 27       		.uleb128 0x27
 3497 0254 13       		.uleb128 0x13
 3498 0255 01       		.byte	0x1
 3499 0256 0B       		.uleb128 0xb
 3500 0257 05       		.uleb128 0x5
 3501 0258 3A       		.uleb128 0x3a
 3502 0259 0B       		.uleb128 0xb
 3503 025a 3B       		.uleb128 0x3b
 3504 025b 0B       		.uleb128 0xb
 3505 025c 39       		.uleb128 0x39
 3506 025d 0B       		.uleb128 0xb
 3507 025e 01       		.uleb128 0x1
 3508 025f 13       		.uleb128 0x13
 3509 0260 00       		.byte	0
 3510 0261 00       		.byte	0
 3511 0262 28       		.uleb128 0x28
 3512 0263 01       		.uleb128 0x1
 3513 0264 01       		.byte	0x1
 3514 0265 49       		.uleb128 0x49
 3515 0266 13       		.uleb128 0x13
 3516 0267 01       		.uleb128 0x1
 3517 0268 13       		.uleb128 0x13
 3518 0269 00       		.byte	0
 3519 026a 00       		.byte	0
 3520 026b 29       		.uleb128 0x29
 3521 026c 21       		.uleb128 0x21
 3522 026d 00       		.byte	0
 3523 026e 49       		.uleb128 0x49
 3524 026f 13       		.uleb128 0x13
 3525 0270 2F       		.uleb128 0x2f
 3526 0271 0B       		.uleb128 0xb
 3527 0272 00       		.byte	0
 3528 0273 00       		.byte	0
 3529 0274 2A       		.uleb128 0x2a
 3530 0275 34       		.uleb128 0x34
ARM GAS  C:\Users\DEVELO~1\AppData\Local\Temp\ccl8MZFw.s 			page 63


 3531 0276 00       		.byte	0
 3532 0277 03       		.uleb128 0x3
 3533 0278 0E       		.uleb128 0xe
 3534 0279 3A       		.uleb128 0x3a
 3535 027a 0B       		.uleb128 0xb
 3536 027b 3B       		.uleb128 0x3b
 3537 027c 0B       		.uleb128 0xb
 3538 027d 39       		.uleb128 0x39
 3539 027e 0B       		.uleb128 0xb
 3540 027f 49       		.uleb128 0x49
 3541 0280 13       		.uleb128 0x13
 3542 0281 3F       		.uleb128 0x3f
 3543 0282 19       		.uleb128 0x19
 3544 0283 3C       		.uleb128 0x3c
 3545 0284 19       		.uleb128 0x19
 3546 0285 00       		.byte	0
 3547 0286 00       		.byte	0
 3548 0287 2B       		.uleb128 0x2b
 3549 0288 34       		.uleb128 0x34
 3550 0289 00       		.byte	0
 3551 028a 47       		.uleb128 0x47
 3552 028b 13       		.uleb128 0x13
 3553 028c 3A       		.uleb128 0x3a
 3554 028d 0B       		.uleb128 0xb
 3555 028e 3B       		.uleb128 0x3b
 3556 028f 0B       		.uleb128 0xb
 3557 0290 39       		.uleb128 0x39
 3558 0291 0B       		.uleb128 0xb
 3559 0292 02       		.uleb128 0x2
 3560 0293 18       		.uleb128 0x18
 3561 0294 00       		.byte	0
 3562 0295 00       		.byte	0
 3563 0296 2C       		.uleb128 0x2c
 3564 0297 34       		.uleb128 0x34
 3565 0298 00       		.byte	0
 3566 0299 03       		.uleb128 0x3
 3567 029a 0E       		.uleb128 0xe
 3568 029b 3A       		.uleb128 0x3a
 3569 029c 0B       		.uleb128 0xb
 3570 029d 3B       		.uleb128 0x3b
 3571 029e 0B       		.uleb128 0xb
 3572 029f 39       		.uleb128 0x39
 3573 02a0 0B       		.uleb128 0xb
 3574 02a1 49       		.uleb128 0x49
 3575 02a2 13       		.uleb128 0x13
 3576 02a3 3F       		.uleb128 0x3f
 3577 02a4 19       		.uleb128 0x19
 3578 02a5 02       		.uleb128 0x2
 3579 02a6 18       		.uleb128 0x18
 3580 02a7 00       		.byte	0
 3581 02a8 00       		.byte	0
 3582 02a9 2D       		.uleb128 0x2d
 3583 02aa 2E       		.uleb128 0x2e
 3584 02ab 00       		.byte	0
 3585 02ac 3F       		.uleb128 0x3f
 3586 02ad 19       		.uleb128 0x19
 3587 02ae 03       		.uleb128 0x3
ARM GAS  C:\Users\DEVELO~1\AppData\Local\Temp\ccl8MZFw.s 			page 64


 3588 02af 0E       		.uleb128 0xe
 3589 02b0 3A       		.uleb128 0x3a
 3590 02b1 0B       		.uleb128 0xb
 3591 02b2 3B       		.uleb128 0x3b
 3592 02b3 0B       		.uleb128 0xb
 3593 02b4 39       		.uleb128 0x39
 3594 02b5 0B       		.uleb128 0xb
 3595 02b6 27       		.uleb128 0x27
 3596 02b7 19       		.uleb128 0x19
 3597 02b8 49       		.uleb128 0x49
 3598 02b9 13       		.uleb128 0x13
 3599 02ba 3C       		.uleb128 0x3c
 3600 02bb 19       		.uleb128 0x19
 3601 02bc 00       		.byte	0
 3602 02bd 00       		.byte	0
 3603 02be 2E       		.uleb128 0x2e
 3604 02bf 34       		.uleb128 0x34
 3605 02c0 00       		.byte	0
 3606 02c1 03       		.uleb128 0x3
 3607 02c2 08       		.uleb128 0x8
 3608 02c3 3A       		.uleb128 0x3a
 3609 02c4 0B       		.uleb128 0xb
 3610 02c5 3B       		.uleb128 0x3b
 3611 02c6 0B       		.uleb128 0xb
 3612 02c7 39       		.uleb128 0x39
 3613 02c8 0B       		.uleb128 0xb
 3614 02c9 49       		.uleb128 0x49
 3615 02ca 13       		.uleb128 0x13
 3616 02cb 02       		.uleb128 0x2
 3617 02cc 18       		.uleb128 0x18
 3618 02cd 00       		.byte	0
 3619 02ce 00       		.byte	0
 3620 02cf 2F       		.uleb128 0x2f
 3621 02d0 2E       		.uleb128 0x2e
 3622 02d1 01       		.byte	0x1
 3623 02d2 3F       		.uleb128 0x3f
 3624 02d3 19       		.uleb128 0x19
 3625 02d4 03       		.uleb128 0x3
 3626 02d5 0E       		.uleb128 0xe
 3627 02d6 3A       		.uleb128 0x3a
 3628 02d7 0B       		.uleb128 0xb
 3629 02d8 3B       		.uleb128 0x3b
 3630 02d9 0B       		.uleb128 0xb
 3631 02da 39       		.uleb128 0x39
 3632 02db 0B       		.uleb128 0xb
 3633 02dc 27       		.uleb128 0x27
 3634 02dd 19       		.uleb128 0x19
 3635 02de 11       		.uleb128 0x11
 3636 02df 01       		.uleb128 0x1
 3637 02e0 12       		.uleb128 0x12
 3638 02e1 06       		.uleb128 0x6
 3639 02e2 40       		.uleb128 0x40
 3640 02e3 18       		.uleb128 0x18
 3641 02e4 7A       		.uleb128 0x7a
 3642 02e5 19       		.uleb128 0x19
 3643 02e6 01       		.uleb128 0x1
 3644 02e7 13       		.uleb128 0x13
ARM GAS  C:\Users\DEVELO~1\AppData\Local\Temp\ccl8MZFw.s 			page 65


 3645 02e8 00       		.byte	0
 3646 02e9 00       		.byte	0
 3647 02ea 30       		.uleb128 0x30
 3648 02eb 34       		.uleb128 0x34
 3649 02ec 00       		.byte	0
 3650 02ed 03       		.uleb128 0x3
 3651 02ee 0E       		.uleb128 0xe
 3652 02ef 3A       		.uleb128 0x3a
 3653 02f0 0B       		.uleb128 0xb
 3654 02f1 3B       		.uleb128 0x3b
 3655 02f2 0B       		.uleb128 0xb
 3656 02f3 39       		.uleb128 0x39
 3657 02f4 0B       		.uleb128 0xb
 3658 02f5 49       		.uleb128 0x49
 3659 02f6 13       		.uleb128 0x13
 3660 02f7 02       		.uleb128 0x2
 3661 02f8 18       		.uleb128 0x18
 3662 02f9 00       		.byte	0
 3663 02fa 00       		.byte	0
 3664 02fb 31       		.uleb128 0x31
 3665 02fc 48       		.uleb128 0x48
 3666 02fd 01       		.byte	0x1
 3667 02fe 7D       		.uleb128 0x7d
 3668 02ff 01       		.uleb128 0x1
 3669 0300 8201     		.uleb128 0x82
 3670 0302 19       		.uleb128 0x19
 3671 0303 7F       		.uleb128 0x7f
 3672 0304 13       		.uleb128 0x13
 3673 0305 01       		.uleb128 0x1
 3674 0306 13       		.uleb128 0x13
 3675 0307 00       		.byte	0
 3676 0308 00       		.byte	0
 3677 0309 32       		.uleb128 0x32
 3678 030a 48       		.uleb128 0x48
 3679 030b 01       		.byte	0x1
 3680 030c 7D       		.uleb128 0x7d
 3681 030d 01       		.uleb128 0x1
 3682 030e 8201     		.uleb128 0x82
 3683 0310 19       		.uleb128 0x19
 3684 0311 7F       		.uleb128 0x7f
 3685 0312 13       		.uleb128 0x13
 3686 0313 00       		.byte	0
 3687 0314 00       		.byte	0
 3688 0315 33       		.uleb128 0x33
 3689 0316 2E       		.uleb128 0x2e
 3690 0317 00       		.byte	0
 3691 0318 3F       		.uleb128 0x3f
 3692 0319 19       		.uleb128 0x19
 3693 031a 3C       		.uleb128 0x3c
 3694 031b 19       		.uleb128 0x19
 3695 031c 6E       		.uleb128 0x6e
 3696 031d 0E       		.uleb128 0xe
 3697 031e 03       		.uleb128 0x3
 3698 031f 0E       		.uleb128 0xe
 3699 0320 3A       		.uleb128 0x3a
 3700 0321 0B       		.uleb128 0xb
 3701 0322 3B       		.uleb128 0x3b
ARM GAS  C:\Users\DEVELO~1\AppData\Local\Temp\ccl8MZFw.s 			page 66


 3702 0323 0B       		.uleb128 0xb
 3703 0324 00       		.byte	0
 3704 0325 00       		.byte	0
 3705 0326 00       		.byte	0
 3706              		.section	.debug_loclists,"",%progbits
 3707 0000 23010000 		.4byte	.Ldebug_loc3-.Ldebug_loc2
 3708              	.Ldebug_loc2:
 3709 0004 0500     		.2byte	0x5
 3710 0006 04       		.byte	0x4
 3711 0007 00       		.byte	0
 3712 0008 00000000 		.4byte	0
 3713              	.Ldebug_loc0:
 3714              	.LVUS10:
 3715 000c 00       		.uleb128 0
 3716 000d 00       		.uleb128 .LVU167
 3717 000e 00       		.uleb128 .LVU167
 3718 000f 00       		.uleb128 .LVU211
 3719 0010 00       		.uleb128 .LVU211
 3720 0011 00       		.uleb128 .LVU212
 3721 0012 00       		.uleb128 .LVU212
 3722 0013 00       		.uleb128 0
 3723              	.LLST10:
 3724 0014 06       		.byte	0x6
 3725 0015 00000000 		.4byte	.LVL42
 3726 0019 04       		.byte	0x4
 3727 001a 00       		.uleb128 .LVL42-.LVL42
 3728 001b 0A       		.uleb128 .LVL43-.LVL42
 3729 001c 01       		.uleb128 0x1
 3730 001d 50       		.byte	0x50
 3731 001e 04       		.byte	0x4
 3732 001f 0A       		.uleb128 .LVL43-.LVL42
 3733 0020 50       		.uleb128 .LVL52-.LVL42
 3734 0021 04       		.uleb128 0x4
 3735 0022 A3       		.byte	0xa3
 3736 0023 01       		.uleb128 0x1
 3737 0024 50       		.byte	0x50
 3738 0025 9F       		.byte	0x9f
 3739 0026 04       		.byte	0x4
 3740 0027 50       		.uleb128 .LVL52-.LVL42
 3741 0028 52       		.uleb128 .LVL53-.LVL42
 3742 0029 01       		.uleb128 0x1
 3743 002a 50       		.byte	0x50
 3744 002b 04       		.byte	0x4
 3745 002c 52       		.uleb128 .LVL53-.LVL42
 3746 002d 5C       		.uleb128 .LFE439-.LVL42
 3747 002e 04       		.uleb128 0x4
 3748 002f A3       		.byte	0xa3
 3749 0030 01       		.uleb128 0x1
 3750 0031 50       		.byte	0x50
 3751 0032 9F       		.byte	0x9f
 3752 0033 00       		.byte	0
 3753              	.LVUS11:
 3754 0034 00       		.uleb128 0
 3755 0035 00       		.uleb128 .LVU168
 3756 0036 00       		.uleb128 .LVU168
 3757 0037 00       		.uleb128 .LVU211
 3758 0038 00       		.uleb128 .LVU211
ARM GAS  C:\Users\DEVELO~1\AppData\Local\Temp\ccl8MZFw.s 			page 67


 3759 0039 00       		.uleb128 0
 3760              	.LLST11:
 3761 003a 06       		.byte	0x6
 3762 003b 00000000 		.4byte	.LVL42
 3763 003f 04       		.byte	0x4
 3764 0040 00       		.uleb128 .LVL42-.LVL42
 3765 0041 0D       		.uleb128 .LVL44-1-.LVL42
 3766 0042 01       		.uleb128 0x1
 3767 0043 51       		.byte	0x51
 3768 0044 04       		.byte	0x4
 3769 0045 0D       		.uleb128 .LVL44-1-.LVL42
 3770 0046 50       		.uleb128 .LVL52-.LVL42
 3771 0047 01       		.uleb128 0x1
 3772 0048 54       		.byte	0x54
 3773 0049 04       		.byte	0x4
 3774 004a 50       		.uleb128 .LVL52-.LVL42
 3775 004b 5C       		.uleb128 .LFE439-.LVL42
 3776 004c 01       		.uleb128 0x1
 3777 004d 51       		.byte	0x51
 3778 004e 00       		.byte	0
 3779              	.LVUS13:
 3780 004f 01       		.uleb128 .LVU175
 3781 0050 01       		.uleb128 .LVU188
 3782              	.LLST13:
 3783 0051 08       		.byte	0x8
 3784 0052 20000000 		.4byte	.LVL45
 3785 0056 10       		.uleb128 .LVL46-.LVL45
 3786 0057 01       		.uleb128 0x1
 3787 0058 54       		.byte	0x54
 3788 0059 00       		.byte	0
 3789              	.LVUS15:
 3790 005a 01       		.uleb128 .LVU196
 3791 005b 04       		.uleb128 .LVU207
 3792              	.LLST15:
 3793 005c 08       		.byte	0x8
 3794 005d 42000000 		.4byte	.LVL50
 3795 0061 08       		.uleb128 .LVL51-.LVL50
 3796 0062 01       		.uleb128 0x1
 3797 0063 54       		.byte	0x54
 3798 0064 00       		.byte	0
 3799              	.LVUS7:
 3800 0065 00       		.uleb128 0
 3801 0066 00       		.uleb128 .LVU119
 3802 0067 00       		.uleb128 .LVU119
 3803 0068 00       		.uleb128 0
 3804              	.LLST7:
 3805 0069 06       		.byte	0x6
 3806 006a 00000000 		.4byte	.LVL30
 3807 006e 04       		.byte	0x4
 3808 006f 00       		.uleb128 .LVL30-.LVL30
 3809 0070 0C       		.uleb128 .LVL31-.LVL30
 3810 0071 01       		.uleb128 0x1
 3811 0072 50       		.byte	0x50
 3812 0073 04       		.byte	0x4
 3813 0074 0C       		.uleb128 .LVL31-.LVL30
 3814 0075 AC01     		.uleb128 .LFE438-.LVL30
 3815 0077 04       		.uleb128 0x4
ARM GAS  C:\Users\DEVELO~1\AppData\Local\Temp\ccl8MZFw.s 			page 68


 3816 0078 A3       		.byte	0xa3
 3817 0079 01       		.uleb128 0x1
 3818 007a 50       		.byte	0x50
 3819 007b 9F       		.byte	0x9f
 3820 007c 00       		.byte	0
 3821              	.LVUS8:
 3822 007d 00       		.uleb128 0
 3823 007e 00       		.uleb128 .LVU121
 3824 007f 00       		.uleb128 .LVU121
 3825 0080 00       		.uleb128 0
 3826              	.LLST8:
 3827 0081 06       		.byte	0x6
 3828 0082 00000000 		.4byte	.LVL30
 3829 0086 04       		.byte	0x4
 3830 0087 00       		.uleb128 .LVL30-.LVL30
 3831 0088 11       		.uleb128 .LVL32-1-.LVL30
 3832 0089 01       		.uleb128 0x1
 3833 008a 51       		.byte	0x51
 3834 008b 04       		.byte	0x4
 3835 008c 11       		.uleb128 .LVL32-1-.LVL30
 3836 008d AC01     		.uleb128 .LFE438-.LVL30
 3837 008f 01       		.uleb128 0x1
 3838 0090 55       		.byte	0x55
 3839 0091 00       		.byte	0
 3840              	.LVUS9:
 3841 0092 00       		.uleb128 .LVU142
 3842 0093 00       		.uleb128 0
 3843              	.LLST9:
 3844 0094 08       		.byte	0x8
 3845 0095 4A000000 		.4byte	.LVL38
 3846 0099 62       		.uleb128 .LFE438-.LVL38
 3847 009a 01       		.uleb128 0x1
 3848 009b 57       		.byte	0x57
 3849 009c 00       		.byte	0
 3850              	.LVUS6:
 3851 009d 00       		.uleb128 .LVU108
 3852 009e 00       		.uleb128 .LVU109
 3853 009f 00       		.uleb128 .LVU109
 3854 00a0 00       		.uleb128 .LVU111
 3855 00a1 00       		.uleb128 .LVU111
 3856 00a2 00       		.uleb128 0
 3857              	.LLST6:
 3858 00a3 06       		.byte	0x6
 3859 00a4 10000000 		.4byte	.LVL27
 3860 00a8 04       		.byte	0x4
 3861 00a9 00       		.uleb128 .LVL27-.LVL27
 3862 00aa 03       		.uleb128 .LVL28-1-.LVL27
 3863 00ab 05       		.uleb128 0x5
 3864 00ac 03       		.byte	0x3
 3865 00ad 01000000 		.4byte	sdram_ctx+1
 3866 00b1 04       		.byte	0x4
 3867 00b2 03       		.uleb128 .LVL28-1-.LVL27
 3868 00b3 08       		.uleb128 .LVL29-.LVL27
 3869 00b4 01       		.uleb128 0x1
 3870 00b5 54       		.byte	0x54
 3871 00b6 04       		.byte	0x4
 3872 00b7 08       		.uleb128 .LVL29-.LVL27
ARM GAS  C:\Users\DEVELO~1\AppData\Local\Temp\ccl8MZFw.s 			page 69


 3873 00b8 10       		.uleb128 .LFE437-.LVL27
 3874 00b9 01       		.uleb128 0x1
 3875 00ba 50       		.byte	0x50
 3876 00bb 00       		.byte	0
 3877              	.LVUS5:
 3878 00bc 00       		.uleb128 .LVU96
 3879 00bd 00       		.uleb128 .LVU97
 3880 00be 00       		.uleb128 .LVU97
 3881 00bf 00       		.uleb128 .LVU99
 3882 00c0 00       		.uleb128 .LVU99
 3883 00c1 00       		.uleb128 0
 3884              	.LLST5:
 3885 00c2 06       		.byte	0x6
 3886 00c3 10000000 		.4byte	.LVL23
 3887 00c7 04       		.byte	0x4
 3888 00c8 00       		.uleb128 .LVL23-.LVL23
 3889 00c9 03       		.uleb128 .LVL24-1-.LVL23
 3890 00ca 05       		.uleb128 0x5
 3891 00cb 03       		.byte	0x3
 3892 00cc 00000000 		.4byte	sdram_ctx
 3893 00d0 04       		.byte	0x4
 3894 00d1 03       		.uleb128 .LVL24-1-.LVL23
 3895 00d2 08       		.uleb128 .LVL25-.LVL23
 3896 00d3 01       		.uleb128 0x1
 3897 00d4 54       		.byte	0x54
 3898 00d5 04       		.byte	0x4
 3899 00d6 08       		.uleb128 .LVL25-.LVL23
 3900 00d7 10       		.uleb128 .LFE436-.LVL23
 3901 00d8 01       		.uleb128 0x1
 3902 00d9 50       		.byte	0x50
 3903 00da 00       		.byte	0
 3904              	.LVUS4:
 3905 00db 00       		.uleb128 .LVU84
 3906 00dc 00       		.uleb128 .LVU87
 3907 00dd 00       		.uleb128 .LVU87
 3908 00de 00       		.uleb128 0
 3909              	.LLST4:
 3910 00df 06       		.byte	0x6
 3911 00e0 1A000000 		.4byte	.LVL19
 3912 00e4 04       		.byte	0x4
 3913 00e5 00       		.uleb128 .LVL19-.LVL19
 3914 00e6 08       		.uleb128 .LVL21-.LVL19
 3915 00e7 01       		.uleb128 0x1
 3916 00e8 54       		.byte	0x54
 3917 00e9 04       		.byte	0x4
 3918 00ea 08       		.uleb128 .LVL21-.LVL19
 3919 00eb 12       		.uleb128 .LFE435-.LVL19
 3920 00ec 01       		.uleb128 0x1
 3921 00ed 50       		.byte	0x50
 3922 00ee 00       		.byte	0
 3923              	.LVUS0:
 3924 00ef 00       		.uleb128 0
 3925 00f0 00       		.uleb128 .LVU7
 3926 00f1 00       		.uleb128 .LVU7
 3927 00f2 00       		.uleb128 0
 3928              	.LLST0:
 3929 00f3 06       		.byte	0x6
ARM GAS  C:\Users\DEVELO~1\AppData\Local\Temp\ccl8MZFw.s 			page 70


 3930 00f4 00000000 		.4byte	.LVL0
 3931 00f8 04       		.byte	0x4
 3932 00f9 00       		.uleb128 .LVL0-.LVL0
 3933 00fa 0A       		.uleb128 .LVL1-.LVL0
 3934 00fb 01       		.uleb128 0x1
 3935 00fc 50       		.byte	0x50
 3936 00fd 04       		.byte	0x4
 3937 00fe 0A       		.uleb128 .LVL1-.LVL0
 3938 00ff BC01     		.uleb128 .LFE434-.LVL0
 3939 0101 04       		.uleb128 0x4
 3940 0102 A3       		.byte	0xa3
 3941 0103 01       		.uleb128 0x1
 3942 0104 50       		.byte	0x50
 3943 0105 9F       		.byte	0x9f
 3944 0106 00       		.byte	0
 3945              	.LVUS1:
 3946 0107 00       		.uleb128 .LVU45
 3947 0108 00       		.uleb128 .LVU57
 3948 0109 00       		.uleb128 .LVU74
 3949 010a 00       		.uleb128 0
 3950              	.LLST1:
 3951 010b 06       		.byte	0x6
 3952 010c 5C000000 		.4byte	.LVL11
 3953 0110 04       		.byte	0x4
 3954 0111 00       		.uleb128 .LVL11-.LVL11
 3955 0112 26       		.uleb128 .LVL13-.LVL11
 3956 0113 01       		.uleb128 0x1
 3957 0114 57       		.byte	0x57
 3958 0115 04       		.byte	0x4
 3959 0116 4E       		.uleb128 .LVL17-.LVL11
 3960 0117 60       		.uleb128 .LFE434-.LVL11
 3961 0118 01       		.uleb128 0x1
 3962 0119 57       		.byte	0x57
 3963 011a 00       		.byte	0
 3964              	.LVUS3:
 3965 011b 01       		.uleb128 .LVU60
 3966 011c 00       		.uleb128 .LVU66
 3967              	.LLST3:
 3968 011d 08       		.byte	0x8
 3969 011e 8C000000 		.4byte	.LVL14
 3970 0122 08       		.uleb128 .LVL15-.LVL14
 3971 0123 02       		.uleb128 0x2
 3972 0124 31       		.byte	0x31
 3973 0125 9F       		.byte	0x9f
 3974 0126 00       		.byte	0
 3975              	.Ldebug_loc3:
 3976              		.section	.debug_aranges,"",%progbits
 3977 0000 44000000 		.4byte	0x44
 3978 0004 0200     		.2byte	0x2
 3979 0006 00000000 		.4byte	.Ldebug_info0
 3980 000a 04       		.byte	0x4
 3981 000b 00       		.byte	0
 3982 000c 0000     		.2byte	0
 3983 000e 0000     		.2byte	0
 3984 0010 00000000 		.4byte	.LFB434
 3985 0014 BC000000 		.4byte	.LFE434-.LFB434
 3986 0018 00000000 		.4byte	.LFB435
ARM GAS  C:\Users\DEVELO~1\AppData\Local\Temp\ccl8MZFw.s 			page 71


 3987 001c 2C000000 		.4byte	.LFE435-.LFB435
 3988 0020 00000000 		.4byte	.LFB436
 3989 0024 20000000 		.4byte	.LFE436-.LFB436
 3990 0028 00000000 		.4byte	.LFB437
 3991 002c 20000000 		.4byte	.LFE437-.LFB437
 3992 0030 00000000 		.4byte	.LFB438
 3993 0034 AC000000 		.4byte	.LFE438-.LFB438
 3994 0038 00000000 		.4byte	.LFB439
 3995 003c 5C000000 		.4byte	.LFE439-.LFB439
 3996 0040 00000000 		.4byte	0
 3997 0044 00000000 		.4byte	0
 3998              		.section	.debug_rnglists,"",%progbits
 3999              	.Ldebug_ranges0:
 4000 0000 53000000 		.4byte	.Ldebug_ranges3-.Ldebug_ranges2
 4001              	.Ldebug_ranges2:
 4002 0004 0500     		.2byte	0x5
 4003 0006 04       		.byte	0x4
 4004 0007 00       		.byte	0
 4005 0008 00000000 		.4byte	0
 4006              	.LLRL2:
 4007 000c 05       		.byte	0x5
 4008 000d 8C000000 		.4byte	.LBB8
 4009 0011 04       		.byte	0x4
 4010 0012 00       		.uleb128 .LBB8-.LBB8
 4011 0013 04       		.uleb128 .LBE8-.LBB8
 4012 0014 04       		.byte	0x4
 4013 0015 06       		.uleb128 .LBB11-.LBB8
 4014 0016 08       		.uleb128 .LBE11-.LBB8
 4015 0017 00       		.byte	0
 4016              	.LLRL12:
 4017 0018 05       		.byte	0x5
 4018 0019 20000000 		.4byte	.LBB12
 4019 001d 04       		.byte	0x4
 4020 001e 00       		.uleb128 .LBB12-.LBB12
 4021 001f 04       		.uleb128 .LBE12-.LBB12
 4022 0020 04       		.byte	0x4
 4023 0021 06       		.uleb128 .LBB15-.LBB12
 4024 0022 10       		.uleb128 .LBE15-.LBB12
 4025 0023 00       		.byte	0
 4026              	.LLRL14:
 4027 0024 05       		.byte	0x5
 4028 0025 42000000 		.4byte	.LBB16
 4029 0029 04       		.byte	0x4
 4030 002a 00       		.uleb128 .LBB16-.LBB16
 4031 002b 08       		.uleb128 .LBE16-.LBB16
 4032 002c 04       		.byte	0x4
 4033 002d 08       		.uleb128 .LBB19-.LBB16
 4034 002e 0C       		.uleb128 .LBE19-.LBB16
 4035 002f 00       		.byte	0
 4036              	.LLRL16:
 4037 0030 07       		.byte	0x7
 4038 0031 00000000 		.4byte	.LFB434
 4039 0035 BC01     		.uleb128 .LFE434-.LFB434
 4040 0037 07       		.byte	0x7
 4041 0038 00000000 		.4byte	.LFB435
 4042 003c 2C       		.uleb128 .LFE435-.LFB435
 4043 003d 07       		.byte	0x7
ARM GAS  C:\Users\DEVELO~1\AppData\Local\Temp\ccl8MZFw.s 			page 72


 4044 003e 00000000 		.4byte	.LFB436
 4045 0042 20       		.uleb128 .LFE436-.LFB436
 4046 0043 07       		.byte	0x7
 4047 0044 00000000 		.4byte	.LFB437
 4048 0048 20       		.uleb128 .LFE437-.LFB437
 4049 0049 07       		.byte	0x7
 4050 004a 00000000 		.4byte	.LFB438
 4051 004e AC01     		.uleb128 .LFE438-.LFB438
 4052 0050 07       		.byte	0x7
 4053 0051 00000000 		.4byte	.LFB439
 4054 0055 5C       		.uleb128 .LFE439-.LFB439
 4055 0056 00       		.byte	0
 4056              	.Ldebug_ranges3:
 4057              		.section	.debug_line,"",%progbits
 4058              	.Ldebug_line0:
 4059 0000 4D050000 		.section	.debug_str,"MS",%progbits,1
 4059      03001B02 
 4059      00000201 
 4059      FB0E0D00 
 4059      01010101 
 4060              	.LASF152:
 4061 0000 53445241 		.ascii	"SDRAM_BIST_ERR_DATA_MISMATCH\000"
 4061      4D5F4249 
 4061      53545F45 
 4061      52525F44 
 4061      4154415F 
 4062              	.LASF72:
 4063 001d 70726576 		.ascii	"prev\000"
 4063      00
 4064              	.LASF115:
 4065 0022 72656164 		.ascii	"ready_list_t\000"
 4065      795F6C69 
 4065      73745F74 
 4065      00
 4066              	.LASF106:
 4067 002f 77747472 		.ascii	"wttrp\000"
 4067      7000
 4068              	.LASF21:
 4069 0035 75696E74 		.ascii	"uintptr_t\000"
 4069      7074725F 
 4069      7400
 4070              	.LASF182:
 4071 003f 73647261 		.ascii	"sdram_query_region_descriptor\000"
 4071      6D5F7175 
 4071      6572795F 
 4071      72656769 
 4071      6F6E5F64 
 4072              	.LASF53:
 4073 005d 72666375 		.ascii	"rfcu\000"
 4073      00
 4074              	.LASF3:
 4075 0062 7369676E 		.ascii	"signed char\000"
 4075      65642063 
 4075      68617200 
 4076              	.LASF6:
 4077 006e 5F5F7569 		.ascii	"__uint8_t\000"
 4077      6E74385F 
ARM GAS  C:\Users\DEVELO~1\AppData\Local\Temp\ccl8MZFw.s 			page 73


 4077      7400
 4078              	.LASF202:
 4079 0078 433A5C50 		.ascii	"C:\\PROJET\\ChibiOS project\\ChibiOS_21.11.4\\demos"
 4079      524F4A45 
 4079      545C4368 
 4079      6962694F 
 4079      53207072 
 4080 00a7 5C53544D 		.ascii	"\\STM32\\RT-STM32H743ZI_REV_XY-NUCLEO144\000"
 4080      33325C52 
 4080      542D5354 
 4080      4D333248 
 4080      3734335A 
 4081              	.LASF91:
 4082 00ce 706F7274 		.ascii	"port_intctx\000"
 4082      5F696E74 
 4082      63747800 
 4083              	.LASF50:
 4084 00da 76746C69 		.ascii	"vtlist\000"
 4084      737400
 4085              	.LASF83:
 4086 00e1 74797065 		.ascii	"type\000"
 4086      00
 4087              	.LASF142:
 4088 00e6 73647261 		.ascii	"sdram_region_id_t\000"
 4088      6D5F7265 
 4088      67696F6E 
 4088      5F69645F 
 4088      7400
 4089              	.LASF86:
 4090 00f8 74726163 		.ascii	"trace_event_t\000"
 4090      655F6576 
 4090      656E745F 
 4090      7400
 4091              	.LASF121:
 4092 0106 6F735F69 		.ascii	"os_instance_config_t\000"
 4092      6E737461 
 4092      6E63655F 
 4092      636F6E66 
 4092      69675F74 
 4093              	.LASF189:
 4094 011b 73647261 		.ascii	"sdram_run_bist\000"
 4094      6D5F7275 
 4094      6E5F6269 
 4094      737400
 4095              	.LASF180:
 4096 012a 73647261 		.ascii	"sdram_ctx\000"
 4096      6D5F6374 
 4096      7800
 4097              	.LASF206:
 4098 0134 5F5F6275 		.ascii	"__builtin_memset\000"
 4098      696C7469 
 4098      6E5F6D65 
 4098      6D736574 
 4098      00
 4099              	.LASF81:
 4100 0145 68616C74 		.ascii	"halt\000"
 4100      00
ARM GAS  C:\Users\DEVELO~1\AppData\Local\Temp\ccl8MZFw.s 			page 74


 4101              	.LASF190:
 4102 014a 6F75745F 		.ascii	"out_result\000"
 4102      72657375 
 4102      6C7400
 4103              	.LASF105:
 4104 0155 65786974 		.ascii	"exitcode\000"
 4104      636F6465 
 4104      00
 4105              	.LASF55:
 4106 015e 6D61696E 		.ascii	"mainthread\000"
 4106      74687265 
 4106      616400
 4107              	.LASF107:
 4108 0169 73656E74 		.ascii	"sentmsg\000"
 4108      6D736700 
 4109              	.LASF78:
 4110 0171 64656C74 		.ascii	"delta\000"
 4110      6100
 4111              	.LASF149:
 4112 0177 53445241 		.ascii	"SDRAM_BIST_ABORT\000"
 4112      4D5F4249 
 4112      53545F41 
 4112      424F5254 
 4112      00
 4113              	.LASF135:
 4114 0188 53445241 		.ascii	"SDRAM_ERR_PARAM\000"
 4114      4D5F4552 
 4114      525F5041 
 4114      52414D00 
 4115              	.LASF165:
 4116 0198 66697273 		.ascii	"first_error\000"
 4116      745F6572 
 4116      726F7200 
 4117              	.LASF69:
 4118 01a4 6E657874 		.ascii	"next\000"
 4118      00
 4119              	.LASF175:
 4120 01a9 70617474 		.ascii	"patterns_executed\000"
 4120      65726E73 
 4120      5F657865 
 4120      63757465 
 4120      6400
 4121              	.LASF134:
 4122 01bb 53445241 		.ascii	"SDRAM_ERR_BIST_FAIL\000"
 4122      4D5F4552 
 4122      525F4249 
 4122      53545F46 
 4122      41494C00 
 4123              	.LASF184:
 4124 01cf 63684D74 		.ascii	"chMtxUnlock\000"
 4124      78556E6C 
 4124      6F636B00 
 4125              	.LASF137:
 4126 01db 53445241 		.ascii	"SDRAM_AUDIO_LOOP\000"
 4126      4D5F4155 
 4126      44494F5F 
 4126      4C4F4F50 
ARM GAS  C:\Users\DEVELO~1\AppData\Local\Temp\ccl8MZFw.s 			page 75


 4126      00
 4127              	.LASF160:
 4128 01ec 73746174 		.ascii	"status\000"
 4128      757300
 4129              	.LASF110:
 4130 01f3 65776D61 		.ascii	"ewmask\000"
 4130      736B00
 4131              	.LASF188:
 4132 01fa 73647261 		.ascii	"sdram_get_region\000"
 4132      6D5F6765 
 4132      745F7265 
 4132      67696F6E 
 4132      00
 4133              	.LASF124:
 4134 020b 53445241 		.ascii	"SDRAM_NOT_INITIALIZED\000"
 4134      4D5F4E4F 
 4134      545F494E 
 4134      49544941 
 4134      4C495A45 
 4135              	.LASF88:
 4136 0221 73697A65 		.ascii	"size\000"
 4136      00
 4137              	.LASF14:
 4138 0226 6C6F6E67 		.ascii	"long long unsigned int\000"
 4138      206C6F6E 
 4138      6720756E 
 4138      7369676E 
 4138      65642069 
 4139              	.LASF147:
 4140 023d 53445241 		.ascii	"SDRAM_BIST_PASS\000"
 4140      4D5F4249 
 4140      53545F50 
 4140      41535300 
 4141              	.LASF193:
 4142 024d 73647261 		.ascii	"sdram_is_initialized\000"
 4142      6D5F6973 
 4142      5F696E69 
 4142      7469616C 
 4142      697A6564 
 4143              	.LASF37:
 4144 0262 73746174 		.ascii	"state\000"
 4144      6500
 4145              	.LASF204:
 4146 0268 73647261 		.ascii	"sdram_init\000"
 4146      6D5F696E 
 4146      697400
 4147              	.LASF10:
 4148 0273 6C6F6E67 		.ascii	"long int\000"
 4148      20696E74 
 4148      00
 4149              	.LASF25:
 4150 027c 74737461 		.ascii	"tstate_t\000"
 4150      74655F74 
 4150      00
 4151              	.LASF58:
 4152 0285 63685F72 		.ascii	"ch_rfcu\000"
 4152      66637500 
ARM GAS  C:\Users\DEVELO~1\AppData\Local\Temp\ccl8MZFw.s 			page 76


 4153              	.LASF71:
 4154 028d 63685F71 		.ascii	"ch_queue\000"
 4154      75657565 
 4154      00
 4155              	.LASF1:
 4156 0296 6C6F6E67 		.ascii	"long long int\000"
 4156      206C6F6E 
 4156      6720696E 
 4156      7400
 4157              	.LASF17:
 4158 02a4 75696E74 		.ascii	"uint16_t\000"
 4158      31365F74 
 4158      00
 4159              	.LASF90:
 4160 02ad 74726163 		.ascii	"trace_buffer_t\000"
 4160      655F6275 
 4160      66666572 
 4160      5F7400
 4161              	.LASF183:
 4162 02bc 73647261 		.ascii	"sdram_bist_start\000"
 4162      6D5F6269 
 4162      73745F73 
 4162      74617274 
 4162      00
 4163              	.LASF98:
 4164 02cd 63685F72 		.ascii	"ch_registry\000"
 4164      65676973 
 4164      74727900 
 4165              	.LASF153:
 4166 02d9 53445241 		.ascii	"SDRAM_BIST_ERR_ADDRESS_ALIAS\000"
 4166      4D5F4249 
 4166      53545F45 
 4166      52525F41 
 4166      44445245 
 4167              	.LASF181:
 4168 02f6 73647261 		.ascii	"sdram_ctx_mtx\000"
 4168      6D5F6374 
 4168      785F6D74 
 4168      7800
 4169              	.LASF203:
 4170 0304 73647261 		.ascii	"sdram_hw_init_sequence\000"
 4170      6D5F6877 
 4170      5F696E69 
 4170      745F7365 
 4170      7175656E 
 4171              	.LASF11:
 4172 031b 5F5F7569 		.ascii	"__uint32_t\000"
 4172      6E743332 
 4172      5F7400
 4173              	.LASF59:
 4174 0326 6D61736B 		.ascii	"mask\000"
 4174      00
 4175              	.LASF169:
 4176 032b 73647261 		.ascii	"sdram_bist_result_t\000"
 4176      6D5F6269 
 4176      73745F72 
 4176      6573756C 
ARM GAS  C:\Users\DEVELO~1\AppData\Local\Temp\ccl8MZFw.s 			page 77


 4176      745F7400 
 4177              	.LASF40:
 4178 033f 77616974 		.ascii	"waiting\000"
 4178      696E6700 
 4179              	.LASF157:
 4180 0347 53445241 		.ascii	"SDRAM_BIST_MODE_QUICK\000"
 4180      4D5F4249 
 4180      53545F4D 
 4180      4F44455F 
 4180      51554943 
 4181              	.LASF117:
 4182 035d 6D61696E 		.ascii	"mainthread_base\000"
 4182      74687265 
 4182      61645F62 
 4182      61736500 
 4183              	.LASF122:
 4184 036d 6D757465 		.ascii	"mutex_t\000"
 4184      785F7400 
 4185              	.LASF176:
 4186 0375 776F7264 		.ascii	"words_target\000"
 4186      735F7461 
 4186      72676574 
 4186      00
 4187              	.LASF66:
 4188 0382 73797369 		.ascii	"sysinterval_t\000"
 4188      6E746572 
 4188      76616C5F 
 4188      7400
 4189              	.LASF30:
 4190 0390 636E745F 		.ascii	"cnt_t\000"
 4190      7400
 4191              	.LASF41:
 4192 0396 6D736771 		.ascii	"msgqueue\000"
 4192      75657565 
 4192      00
 4193              	.LASF0:
 4194 039f 756E7369 		.ascii	"unsigned int\000"
 4194      676E6564 
 4194      20696E74 
 4194      00
 4195              	.LASF119:
 4196 03ac 69646C65 		.ascii	"idlethread_base\000"
 4196      74687265 
 4196      61645F62 
 4196      61736500 
 4197              	.LASF161:
 4198 03bc 776F7264 		.ascii	"words_tested\000"
 4198      735F7465 
 4198      73746564 
 4198      00
 4199              	.LASF108:
 4200 03c9 77747365 		.ascii	"wtsemp\000"
 4200      6D7000
 4201              	.LASF64:
 4202 03d0 73797374 		.ascii	"system_debug_t\000"
 4202      656D5F64 
 4202      65627567 
ARM GAS  C:\Users\DEVELO~1\AppData\Local\Temp\ccl8MZFw.s 			page 78


 4202      5F7400
 4203              	.LASF12:
 4204 03df 6C6F6E67 		.ascii	"long unsigned int\000"
 4204      20756E73 
 4204      69676E65 
 4204      6420696E 
 4204      7400
 4205              	.LASF33:
 4206 03f1 72717565 		.ascii	"rqueue\000"
 4206      756500
 4207              	.LASF70:
 4208 03f8 63685F71 		.ascii	"ch_queue_t\000"
 4208      75657565 
 4208      5F7400
 4209              	.LASF148:
 4210 0403 53445241 		.ascii	"SDRAM_BIST_FAIL\000"
 4210      4D5F4249 
 4210      53545F46 
 4210      41494C00 
 4211              	.LASF200:
 4212 0413 474E5520 		.ascii	"GNU C17 11.3.1 20220712 -mcpu=cortex-m7 -mthumb -mf"
 4212      43313720 
 4212      31312E33 
 4212      2E312032 
 4212      30323230 
 4213 0446 6C6F6174 		.ascii	"loat-abi=soft -march=armv7e-m -ggdb -O2 -fomit-fram"
 4213      2D616269 
 4213      3D736F66 
 4213      74202D6D 
 4213      61726368 
 4214 0479 652D706F 		.ascii	"e-pointer -falign-functions=16 -ffunction-sections "
 4214      696E7465 
 4214      72202D66 
 4214      616C6967 
 4214      6E2D6675 
 4215 04ac 2D666461 		.ascii	"-fdata-sections -fno-common\000"
 4215      74612D73 
 4215      65637469 
 4215      6F6E7320 
 4215      2D666E6F 
 4216              	.LASF35:
 4217 04c8 6E616D65 		.ascii	"name\000"
 4217      00
 4218              	.LASF99:
 4219 04cd 71756575 		.ascii	"queue\000"
 4219      6500
 4220              	.LASF45:
 4221 04d3 6D706F6F 		.ascii	"mpool\000"
 4221      6C00
 4222              	.LASF131:
 4223 04d9 53445241 		.ascii	"SDRAM_ERR_FMC_TIMEOUT\000"
 4223      4D5F4552 
 4223      525F464D 
 4223      435F5449 
 4223      4D454F55 
 4224              	.LASF194:
 4225 04ef 72756E5F 		.ascii	"run_quick_bist\000"
ARM GAS  C:\Users\DEVELO~1\AppData\Local\Temp\ccl8MZFw.s 			page 79


 4225      71756963 
 4225      6B5F6269 
 4225      737400
 4226              	.LASF8:
 4227 04fe 73686F72 		.ascii	"short unsigned int\000"
 4227      7420756E 
 4227      7369676E 
 4227      65642069 
 4227      6E7400
 4228              	.LASF154:
 4229 0511 53445241 		.ascii	"SDRAM_BIST_ERR_STUCK_AT\000"
 4229      4D5F4249 
 4229      53545F45 
 4229      52525F53 
 4229      5455434B 
 4230              	.LASF47:
 4231 0529 63685F74 		.ascii	"ch_thread\000"
 4231      68726561 
 4231      6400
 4232              	.LASF144:
 4233 0533 73697A65 		.ascii	"size_bytes\000"
 4233      5F627974 
 4233      657300
 4234              	.LASF28:
 4235 053e 6D73675F 		.ascii	"msg_t\000"
 4235      7400
 4236              	.LASF42:
 4237 0544 6570656E 		.ascii	"epending\000"
 4237      64696E67 
 4237      00
 4238              	.LASF158:
 4239 054d 53445241 		.ascii	"SDRAM_BIST_MODE_FULL\000"
 4239      4D5F4249 
 4239      53545F4D 
 4239      4F44455F 
 4239      46554C4C 
 4240              	.LASF24:
 4241 0562 746D6F64 		.ascii	"tmode_t\000"
 4241      655F7400 
 4242              	.LASF68:
 4243 056a 63685F6C 		.ascii	"ch_list\000"
 4243      69737400 
 4244              	.LASF113:
 4245 0572 63685F72 		.ascii	"ch_ready_list\000"
 4245      65616479 
 4245      5F6C6973 
 4245      7400
 4246              	.LASF29:
 4247 0580 6576656E 		.ascii	"eventmask_t\000"
 4247      746D6173 
 4247      6B5F7400 
 4248              	.LASF9:
 4249 058c 5F5F696E 		.ascii	"__int32_t\000"
 4249      7433325F 
 4249      7400
 4250              	.LASF178:
 4251 0596 61626F72 		.ascii	"abort_flag\000"
ARM GAS  C:\Users\DEVELO~1\AppData\Local\Temp\ccl8MZFw.s 			page 80


 4251      745F666C 
 4251      616700
 4252              	.LASF23:
 4253 05a1 73746B61 		.ascii	"stkalign_t\000"
 4253      6C69676E 
 4253      5F7400
 4254              	.LASF84:
 4255 05ac 72747374 		.ascii	"rtstamp\000"
 4255      616D7000 
 4256              	.LASF96:
 4257 05b4 6C617374 		.ascii	"laststamp\000"
 4257      7374616D 
 4257      7000
 4258              	.LASF143:
 4259 05be 62617365 		.ascii	"base\000"
 4259      00
 4260              	.LASF44:
 4261 05c3 7265616C 		.ascii	"realprio\000"
 4261      7072696F 
 4261      00
 4262              	.LASF57:
 4263 05cc 72666375 		.ascii	"rfcu_mask_t\000"
 4263      5F6D6173 
 4263      6B5F7400 
 4264              	.LASF127:
 4265 05d8 53445241 		.ascii	"SDRAM_DEGRADED\000"
 4265      4D5F4445 
 4265      47524144 
 4265      454400
 4266              	.LASF97:
 4267 05e7 76697274 		.ascii	"virtual_timers_list_t\000"
 4267      75616C5F 
 4267      74696D65 
 4267      72735F6C 
 4267      6973745F 
 4268              	.LASF162:
 4269 05fd 776F7264 		.ascii	"words_covered_unique\000"
 4269      735F636F 
 4269      76657265 
 4269      645F756E 
 4269      69717565 
 4270              	.LASF93:
 4271 0612 63685F76 		.ascii	"ch_virtual_timers_list\000"
 4271      69727475 
 4271      616C5F74 
 4271      696D6572 
 4271      735F6C69 
 4272              	.LASF67:
 4273 0629 63685F6C 		.ascii	"ch_list_t\000"
 4273      6973745F 
 4273      7400
 4274              	.LASF185:
 4275 0633 63684D74 		.ascii	"chMtxLock\000"
 4275      784C6F63 
 4275      6B00
 4276              	.LASF87:
 4277 063d 73757370 		.ascii	"suspended\000"
ARM GAS  C:\Users\DEVELO~1\AppData\Local\Temp\ccl8MZFw.s 			page 81


 4277      656E6465 
 4277      6400
 4278              	.LASF146:
 4279 0647 73647261 		.ascii	"sdram_region_info_t\000"
 4279      6D5F7265 
 4279      67696F6E 
 4279      5F696E66 
 4279      6F5F7400 
 4280              	.LASF140:
 4281 065b 53445241 		.ascii	"SDRAM_CACHE_RESIDUAL\000"
 4281      4D5F4341 
 4281      4348455F 
 4281      52455349 
 4281      4455414C 
 4282              	.LASF192:
 4283 0670 73647261 		.ascii	"sdram_status\000"
 4283      6D5F7374 
 4283      61747573 
 4283      00
 4284              	.LASF20:
 4285 067d 75696E74 		.ascii	"uint64_t\000"
 4285      36345F74 
 4285      00
 4286              	.LASF141:
 4287 0686 53445241 		.ascii	"SDRAM_REGION_INVALID\000"
 4287      4D5F5245 
 4287      47494F4E 
 4287      5F494E56 
 4287      414C4944 
 4288              	.LASF116:
 4289 069b 63685F6F 		.ascii	"ch_os_instance_config\000"
 4289      735F696E 
 4289      7374616E 
 4289      63655F63 
 4289      6F6E6669 
 4290              	.LASF92:
 4291 06b1 706F7274 		.ascii	"port_context\000"
 4291      5F636F6E 
 4291      74657874 
 4291      00
 4292              	.LASF197:
 4293 06be 73647261 		.ascii	"sdram_set_fault_locked\000"
 4293      6D5F7365 
 4293      745F6661 
 4293      756C745F 
 4293      6C6F636B 
 4294              	.LASF126:
 4295 06d5 53445241 		.ascii	"SDRAM_READY\000"
 4295      4D5F5245 
 4295      41445900 
 4296              	.LASF85:
 4297 06e1 74696D65 		.ascii	"time\000"
 4297      00
 4298              	.LASF75:
 4299 06e6 7072696F 		.ascii	"prio\000"
 4299      00
 4300              	.LASF150:
ARM GAS  C:\Users\DEVELO~1\AppData\Local\Temp\ccl8MZFw.s 			page 82


 4301 06eb 73647261 		.ascii	"sdram_bist_status_t\000"
 4301      6D5F6269 
 4301      73745F73 
 4301      74617475 
 4301      735F7400 
 4302              	.LASF114:
 4303 06ff 63757272 		.ascii	"current\000"
 4303      656E7400 
 4304              	.LASF13:
 4305 0707 5F5F7569 		.ascii	"__uint64_t\000"
 4305      6E743634 
 4305      5F7400
 4306              	.LASF199:
 4307 0712 6572726F 		.ascii	"error\000"
 4307      7200
 4308              	.LASF31:
 4309 0718 636F7265 		.ascii	"core_id_t\000"
 4309      5F69645F 
 4309      7400
 4310              	.LASF26:
 4311 0722 74726566 		.ascii	"trefs_t\000"
 4311      735F7400 
 4312              	.LASF39:
 4313 072a 72656673 		.ascii	"refs\000"
 4313      00
 4314              	.LASF125:
 4315 072f 53445241 		.ascii	"SDRAM_INITIALIZING\000"
 4315      4D5F494E 
 4315      49544941 
 4315      4C495A49 
 4315      4E4700
 4316              	.LASF82:
 4317 0742 75736572 		.ascii	"user\000"
 4317      00
 4318              	.LASF132:
 4319 0747 53445241 		.ascii	"SDRAM_ERR_FMC_CMD\000"
 4319      4D5F4552 
 4319      525F464D 
 4319      435F434D 
 4319      4400
 4320              	.LASF27:
 4321 0759 74707269 		.ascii	"tprio_t\000"
 4321      6F5F7400 
 4322              	.LASF61:
 4323 0761 63685F73 		.ascii	"ch_system_debug\000"
 4323      79737465 
 4323      6D5F6465 
 4323      62756700 
 4324              	.LASF123:
 4325 0771 5F426F6F 		.ascii	"_Bool\000"
 4325      6C00
 4326              	.LASF18:
 4327 0777 696E7433 		.ascii	"int32_t\000"
 4327      325F7400 
 4328              	.LASF4:
 4329 077f 756E7369 		.ascii	"unsigned char\000"
 4329      676E6564 
ARM GAS  C:\Users\DEVELO~1\AppData\Local\Temp\ccl8MZFw.s 			page 83


 4329      20636861 
 4329      7200
 4330              	.LASF60:
 4331 078d 72666375 		.ascii	"rfcu_t\000"
 4331      5F7400
 4332              	.LASF5:
 4333 0794 73686F72 		.ascii	"short int\000"
 4333      7420696E 
 4333      7400
 4334              	.LASF198:
 4335 079e 696E666F 		.ascii	"info\000"
 4335      00
 4336              	.LASF95:
 4337 07a3 6C617374 		.ascii	"lasttime\000"
 4337      74696D65 
 4337      00
 4338              	.LASF79:
 4339 07ac 77746F62 		.ascii	"wtobjp\000"
 4339      6A7000
 4340              	.LASF187:
 4341 07b3 6F75745F 		.ascii	"out_info\000"
 4341      696E666F 
 4341      00
 4342              	.LASF15:
 4343 07bc 5F5F7569 		.ascii	"__uintptr_t\000"
 4343      6E747074 
 4343      725F7400 
 4344              	.LASF52:
 4345 07c8 636F7265 		.ascii	"core_id\000"
 4345      5F696400 
 4346              	.LASF129:
 4347 07d0 73647261 		.ascii	"sdram_state_t\000"
 4347      6D5F7374 
 4347      6174655F 
 4347      7400
 4348              	.LASF80:
 4349 07de 72656173 		.ascii	"reason\000"
 4349      6F6E00
 4350              	.LASF167:
 4351 07e5 74696D65 		.ascii	"timestamp_start\000"
 4351      7374616D 
 4351      705F7374 
 4351      61727400 
 4352              	.LASF111:
 4353 07f5 63685F73 		.ascii	"ch_semaphore\000"
 4353      656D6170 
 4353      686F7265 
 4353      00
 4354              	.LASF100:
 4355 0802 72656769 		.ascii	"registry_t\000"
 4355      73747279 
 4355      5F7400
 4356              	.LASF170:
 4357 080d 6C617374 		.ascii	"last_error\000"
 4357      5F657272 
 4357      6F7200
 4358              	.LASF19:
ARM GAS  C:\Users\DEVELO~1\AppData\Local\Temp\ccl8MZFw.s 			page 84


 4359 0818 75696E74 		.ascii	"uint32_t\000"
 4359      33325F74 
 4359      00
 4360              	.LASF109:
 4361 0821 77746D74 		.ascii	"wtmtxp\000"
 4361      787000
 4362              	.LASF22:
 4363 0828 706F7274 		.ascii	"port_stkalign_t\000"
 4363      5F73746B 
 4363      616C6967 
 4363      6E5F7400 
 4364              	.LASF34:
 4365 0838 6F776E65 		.ascii	"owner\000"
 4365      7200
 4366              	.LASF168:
 4367 083e 74696D65 		.ascii	"timestamp_end\000"
 4367      7374616D 
 4367      705F656E 
 4367      6400
 4368              	.LASF2:
 4369 084c 6C6F6E67 		.ascii	"long double\000"
 4369      20646F75 
 4369      626C6500 
 4370              	.LASF36:
 4371 0858 77616261 		.ascii	"wabase\000"
 4371      736500
 4372              	.LASF63:
 4373 085f 63686172 		.ascii	"char\000"
 4373      00
 4374              	.LASF174:
 4375 0864 6D6F6465 		.ascii	"mode\000"
 4375      00
 4376              	.LASF133:
 4377 0869 53445241 		.ascii	"SDRAM_ERR_REFRESH\000"
 4377      4D5F4552 
 4377      525F5245 
 4377      46524553 
 4377      4800
 4378              	.LASF54:
 4379 087b 636F6E66 		.ascii	"config\000"
 4379      696700
 4380              	.LASF7:
 4381 0882 5F5F7569 		.ascii	"__uint16_t\000"
 4381      6E743136 
 4381      5F7400
 4382              	.LASF155:
 4383 088d 53445241 		.ascii	"SDRAM_BIST_ERR_TIMEOUT\000"
 4383      4D5F4249 
 4383      53545F45 
 4383      52525F54 
 4383      494D454F 
 4384              	.LASF32:
 4385 08a4 74687265 		.ascii	"thread_t\000"
 4385      61645F74 
 4385      00
 4386              	.LASF186:
 4387 08ad 72656769 		.ascii	"region_id\000"
ARM GAS  C:\Users\DEVELO~1\AppData\Local\Temp\ccl8MZFw.s 			page 85


 4387      6F6E5F69 
 4387      6400
 4388              	.LASF94:
 4389 08b7 646C6973 		.ascii	"dlist\000"
 4389      7400
 4390              	.LASF65:
 4391 08bd 73797374 		.ascii	"systime_t\000"
 4391      696D655F 
 4391      7400
 4392              	.LASF89:
 4393 08c7 62756666 		.ascii	"buffer\000"
 4393      657200
 4394              	.LASF73:
 4395 08ce 63685F70 		.ascii	"ch_priority_queue_t\000"
 4395      72696F72 
 4395      6974795F 
 4395      71756575 
 4395      655F7400 
 4396              	.LASF156:
 4397 08e2 73647261 		.ascii	"sdram_bist_error_t\000"
 4397      6D5F6269 
 4397      73745F65 
 4397      72726F72 
 4397      5F7400
 4398              	.LASF62:
 4399 08f5 70616E69 		.ascii	"panic_msg\000"
 4399      635F6D73 
 4399      6700
 4400              	.LASF103:
 4401 08ff 70717565 		.ascii	"pqueue\000"
 4401      756500
 4402              	.LASF48:
 4403 0906 63685F6F 		.ascii	"ch_os_instance\000"
 4403      735F696E 
 4403      7374616E 
 4403      636500
 4404              	.LASF46:
 4405 0915 6F735F69 		.ascii	"os_instance_t\000"
 4405      6E737461 
 4405      6E63655F 
 4405      7400
 4406              	.LASF196:
 4407 0923 73647261 		.ascii	"sdram_clear_region_info\000"
 4407      6D5F636C 
 4407      6561725F 
 4407      72656769 
 4407      6F6E5F69 
 4408              	.LASF51:
 4409 093b 7265676C 		.ascii	"reglist\000"
 4409      69737400 
 4410              	.LASF151:
 4411 0943 53445241 		.ascii	"SDRAM_BIST_ERR_NONE\000"
 4411      4D5F4249 
 4411      53545F45 
 4411      52525F4E 
 4411      4F4E4500 
 4412              	.LASF130:
ARM GAS  C:\Users\DEVELO~1\AppData\Local\Temp\ccl8MZFw.s 			page 86


 4413 0957 53445241 		.ascii	"SDRAM_ERR_NONE\000"
 4413      4D5F4552 
 4413      525F4E4F 
 4413      4E4500
 4414              	.LASF74:
 4415 0966 63685F70 		.ascii	"ch_priority_queue\000"
 4415      72696F72 
 4415      6974795F 
 4415      71756575 
 4415      6500
 4416              	.LASF136:
 4417 0978 73647261 		.ascii	"sdram_error_t\000"
 4417      6D5F6572 
 4417      726F725F 
 4417      7400
 4418              	.LASF76:
 4419 0986 63685F64 		.ascii	"ch_delta_list_t\000"
 4419      656C7461 
 4419      5F6C6973 
 4419      745F7400 
 4420              	.LASF118:
 4421 0996 6D61696E 		.ascii	"mainthread_end\000"
 4421      74687265 
 4421      61645F65 
 4421      6E6400
 4422              	.LASF138:
 4423 09a5 53445241 		.ascii	"SDRAM_AUDIO_DELAY\000"
 4423      4D5F4155 
 4423      44494F5F 
 4423      44454C41 
 4423      5900
 4424              	.LASF171:
 4425 09b7 62697374 		.ascii	"bist_running\000"
 4425      5F72756E 
 4425      6E696E67 
 4425      00
 4426              	.LASF164:
 4427 09c4 66697273 		.ascii	"first_error_address\000"
 4427      745F6572 
 4427      726F725F 
 4427      61646472 
 4427      65737300 
 4428              	.LASF195:
 4429 09d8 62697374 		.ascii	"bist_ctx\000"
 4429      5F637478 
 4429      00
 4430              	.LASF172:
 4431 09e1 6C617374 		.ascii	"last_bist_result\000"
 4431      5F626973 
 4431      745F7265 
 4431      73756C74 
 4431      00
 4432              	.LASF205:
 4433 09f2 6D656D73 		.ascii	"memset\000"
 4433      657400
 4434              	.LASF104:
 4435 09f9 7264796D 		.ascii	"rdymsg\000"
ARM GAS  C:\Users\DEVELO~1\AppData\Local\Temp\ccl8MZFw.s 			page 87


 4435      736700
 4436              	.LASF139:
 4437 0a00 53445241 		.ascii	"SDRAM_AUDIO_FX\000"
 4437      4D5F4155 
 4437      44494F5F 
 4437      465800
 4438              	.LASF77:
 4439 0a0f 63685F64 		.ascii	"ch_delta_list\000"
 4439      656C7461 
 4439      5F6C6973 
 4439      7400
 4440              	.LASF128:
 4441 0a1d 53445241 		.ascii	"SDRAM_FAULT\000"
 4441      4D5F4641 
 4441      554C5400 
 4442              	.LASF49:
 4443 0a29 726C6973 		.ascii	"rlist\000"
 4443      7400
 4444              	.LASF16:
 4445 0a2f 75696E74 		.ascii	"uint8_t\000"
 4445      385F7400 
 4446              	.LASF38:
 4447 0a37 666C6167 		.ascii	"flags\000"
 4447      7300
 4448              	.LASF166:
 4449 0a3d 66697273 		.ascii	"first_error_pattern\000"
 4449      745F6572 
 4449      726F725F 
 4449      70617474 
 4449      65726E00 
 4450              	.LASF191:
 4451 0a51 73647261 		.ascii	"sdram_get_error\000"
 4451      6D5F6765 
 4451      745F6572 
 4451      726F7200 
 4452              	.LASF101:
 4453 0a61 74687265 		.ascii	"thread_reference_t\000"
 4453      61645F72 
 4453      65666572 
 4453      656E6365 
 4453      5F7400
 4454              	.LASF145:
 4455 0a74 616C6967 		.ascii	"alignment_bytes\000"
 4455      6E6D656E 
 4455      745F6279 
 4455      74657300 
 4456              	.LASF112:
 4457 0a84 63685F6D 		.ascii	"ch_mutex\000"
 4457      75746578 
 4457      00
 4458              	.LASF159:
 4459 0a8d 73647261 		.ascii	"sdram_bist_mode_t\000"
 4459      6D5F6269 
 4459      73745F6D 
 4459      6F64655F 
 4459      7400
 4460              	.LASF179:
ARM GAS  C:\Users\DEVELO~1\AppData\Local\Temp\ccl8MZFw.s 			page 88


 4461 0a9f 73647261 		.ascii	"sdram_bist_context_t\000"
 4461      6D5F6269 
 4461      73745F63 
 4461      6F6E7465 
 4461      78745F74 
 4462              	.LASF56:
 4463 0ab4 74726163 		.ascii	"trace_buffer\000"
 4463      655F6275 
 4463      66666572 
 4463      00
 4464              	.LASF173:
 4465 0ac1 73647261 		.ascii	"sdram_driver_ctx_t\000"
 4465      6D5F6472 
 4465      69766572 
 4465      5F637478 
 4465      5F7400
 4466              	.LASF102:
 4467 0ad4 6C697374 		.ascii	"list\000"
 4467      00
 4468              	.LASF120:
 4469 0ad9 69646C65 		.ascii	"idlethread_end\000"
 4469      74687265 
 4469      61645F65 
 4469      6E6400
 4470              	.LASF43:
 4471 0ae8 6D74786C 		.ascii	"mtxlist\000"
 4471      69737400 
 4472              	.LASF177:
 4473 0af0 72657375 		.ascii	"result\000"
 4473      6C7400
 4474              	.LASF163:
 4475 0af7 6572726F 		.ascii	"error_count\000"
 4475      725F636F 
 4475      756E7400 
 4476              	.LASF201:
 4477 0b03 64726976 		.ascii	"drivers/sdram/sdram_driver.c\000"
 4477      6572732F 
 4477      73647261 
 4477      6D2F7364 
 4477      72616D5F 
 4478              		.ident	"GCC: (Arm GNU Toolchain 11.3.Rel1) 11.3.1 20220712"
ARM GAS  C:\Users\DEVELO~1\AppData\Local\Temp\ccl8MZFw.s 			page 89


DEFINED SYMBOLS
                            *ABS*:00000000 sdram_driver.c
C:\Users\DEVELO~1\AppData\Local\Temp\ccl8MZFw.s:18     .text.sdram_init:00000000 $t
C:\Users\DEVELO~1\AppData\Local\Temp\ccl8MZFw.s:25     .text.sdram_init:00000000 sdram_init
C:\Users\DEVELO~1\AppData\Local\Temp\ccl8MZFw.s:240    .text.sdram_init:000000b4 $d
C:\Users\DEVELO~1\AppData\Local\Temp\ccl8MZFw.s:246    .text.sdram_is_initialized:00000000 $t
C:\Users\DEVELO~1\AppData\Local\Temp\ccl8MZFw.s:253    .text.sdram_is_initialized:00000000 sdram_is_initialized
C:\Users\DEVELO~1\AppData\Local\Temp\ccl8MZFw.s:296    .text.sdram_is_initialized:00000024 $d
C:\Users\DEVELO~1\AppData\Local\Temp\ccl8MZFw.s:302    .text.sdram_status:00000000 $t
C:\Users\DEVELO~1\AppData\Local\Temp\ccl8MZFw.s:309    .text.sdram_status:00000000 sdram_status
C:\Users\DEVELO~1\AppData\Local\Temp\ccl8MZFw.s:346    .text.sdram_status:00000018 $d
C:\Users\DEVELO~1\AppData\Local\Temp\ccl8MZFw.s:352    .text.sdram_get_error:00000000 $t
C:\Users\DEVELO~1\AppData\Local\Temp\ccl8MZFw.s:359    .text.sdram_get_error:00000000 sdram_get_error
C:\Users\DEVELO~1\AppData\Local\Temp\ccl8MZFw.s:396    .text.sdram_get_error:00000018 $d
C:\Users\DEVELO~1\AppData\Local\Temp\ccl8MZFw.s:402    .text.sdram_run_bist:00000000 $t
C:\Users\DEVELO~1\AppData\Local\Temp\ccl8MZFw.s:409    .text.sdram_run_bist:00000000 sdram_run_bist
C:\Users\DEVELO~1\AppData\Local\Temp\ccl8MZFw.s:563    .text.sdram_run_bist:000000a4 $d
C:\Users\DEVELO~1\AppData\Local\Temp\ccl8MZFw.s:569    .text.sdram_get_region:00000000 $t
C:\Users\DEVELO~1\AppData\Local\Temp\ccl8MZFw.s:576    .text.sdram_get_region:00000000 sdram_get_region
C:\Users\DEVELO~1\AppData\Local\Temp\ccl8MZFw.s:710    .text.sdram_get_region:00000054 $d
C:\Users\DEVELO~1\AppData\Local\Temp\ccl8MZFw.s:729    .data.sdram_ctx_mtx:00000000 sdram_ctx_mtx
C:\Users\DEVELO~1\AppData\Local\Temp\ccl8MZFw.s:722    .bss.sdram_ctx:00000000 sdram_ctx
C:\Users\DEVELO~1\AppData\Local\Temp\ccl8MZFw.s:718    .bss.sdram_ctx:00000000 $d
C:\Users\DEVELO~1\AppData\Local\Temp\ccl8MZFw.s:725    .data.sdram_ctx_mtx:00000000 $d

UNDEFINED SYMBOLS
chMtxLock
chMtxUnlock
sdram_hw_init_sequence
memset
sdram_bist_start
sdram_query_region_descriptor
