ARM GAS  C:\Users\DEVELO~1\AppData\Local\Temp\ccHliN1u.s 			page 1


   1              		.cpu cortex-m7
   2              		.arch armv7e-m
   3              		.fpu softvfp
   4              		.eabi_attribute 20, 1
   5              		.eabi_attribute 21, 1
   6              		.eabi_attribute 23, 3
   7              		.eabi_attribute 24, 1
   8              		.eabi_attribute 25, 1
   9              		.eabi_attribute 26, 1
  10              		.eabi_attribute 30, 2
  11              		.eabi_attribute 34, 1
  12              		.eabi_attribute 18, 4
  13              		.file	"stm32h7xx_hal_dma.c"
  14              		.text
  15              	.Ltext0:
  16              		.cfi_sections	.debug_frame
  17              		.section	.text.DMA_SetConfig,"ax",%progbits
  18              		.align	1
  19              		.p2align 4,,15
  20              		.syntax unified
  21              		.thumb
  22              		.thumb_func
  23              		.type	DMA_SetConfig, %function
  24              	DMA_SetConfig:
  25              	.LVL0:
  26              	.LFB153:
  27              		.file 1 "drivers/stm32h7xx-hal-driver/Src/stm32h7xx_hal_dma.c"
  28              		.loc 1 1774 1 view -0
  29              		.cfi_startproc
  30              		@ args = 0, pretend = 0, frame = 0
  31              		@ frame_needed = 0, uses_anonymous_args = 0
  32              		.loc 1 1776 3 view .LVU1
  33              		.loc 1 1774 1 is_stmt 0 view .LVU2
  34 0000 F0B5     		push	{r4, r5, r6, r7, lr}
  35              		.cfi_def_cfa_offset 20
  36              		.cfi_offset 4, -20
  37              		.cfi_offset 5, -16
  38              		.cfi_offset 6, -12
  39              		.cfi_offset 7, -8
  40              		.cfi_offset 14, -4
  41              		.loc 1 1779 6 view .LVU3
  42 0002 0468     		ldr	r4, [r0]
  43 0004 614D     		ldr	r5, .L20
  44              		.loc 1 1776 24 view .LVU4
  45 0006 866D     		ldr	r6, [r0, #88]
  46              	.LVL1:
  47              		.loc 1 1777 3 is_stmt 1 view .LVU5
  48              		.loc 1 1779 3 view .LVU6
  49              		.loc 1 1779 6 is_stmt 0 view .LVU7
  50 0008 AC42     		cmp	r4, r5
  51 000a 00F0A280 		beq	.L2
  52 000e 1835     		adds	r5, r5, #24
  53 0010 AC42     		cmp	r4, r5
  54 0012 00F09E80 		beq	.L2
  55              		.loc 1 1779 6 discriminator 4 view .LVU8
  56 0016 1835     		adds	r5, r5, #24
  57 0018 5D4F     		ldr	r7, .L20+4
ARM GAS  C:\Users\DEVELO~1\AppData\Local\Temp\ccHliN1u.s 			page 2


  58 001a DFF878C1 		ldr	ip, .L20+8
  59 001e BC42     		cmp	r4, r7
  60 0020 18BF     		it	ne
  61 0022 AC42     		cmpne	r4, r5
  62 0024 07F11807 		add	r7, r7, #24
  63 0028 0CBF     		ite	eq
  64 002a 0125     		moveq	r5, #1
  65 002c 0025     		movne	r5, #0
  66 002e BC42     		cmp	r4, r7
  67 0030 08BF     		it	eq
  68 0032 45F00105 		orreq	r5, r5, #1
  69 0036 1837     		adds	r7, r7, #24
  70 0038 BC42     		cmp	r4, r7
  71 003a 08BF     		it	eq
  72 003c 45F00105 		orreq	r5, r5, #1
  73 0040 1837     		adds	r7, r7, #24
  74 0042 BC42     		cmp	r4, r7
  75 0044 08BF     		it	eq
  76 0046 45F00105 		orreq	r5, r5, #1
  77 004a 1837     		adds	r7, r7, #24
  78 004c BC42     		cmp	r4, r7
  79 004e 08BF     		it	eq
  80 0050 45F00105 		orreq	r5, r5, #1
  81 0054 07F55677 		add	r7, r7, #856
  82 0058 BC42     		cmp	r4, r7
  83 005a 08BF     		it	eq
  84 005c 45F00105 		orreq	r5, r5, #1
  85 0060 4D4F     		ldr	r7, .L20+12
  86 0062 6445     		cmp	r4, ip
  87 0064 18BF     		it	ne
  88 0066 BC42     		cmpne	r4, r7
  89 0068 DFF830C1 		ldr	ip, .L20+16
  90 006c 0CBF     		ite	eq
  91 006e 0127     		moveq	r7, #1
  92 0070 0027     		movne	r7, #0
  93 0072 6445     		cmp	r4, ip
  94 0074 08BF     		it	eq
  95 0076 45F00105 		orreq	r5, r5, #1
  96 007a DFF824C1 		ldr	ip, .L20+20
  97 007e 6445     		cmp	r4, ip
  98 0080 08BF     		it	eq
  99 0082 47F00107 		orreq	r7, r7, #1
 100 0086 DFF81CC1 		ldr	ip, .L20+24
 101 008a 6445     		cmp	r4, ip
 102 008c 08BF     		it	eq
 103 008e 45F00105 		orreq	r5, r5, #1
 104 0092 DFF814C1 		ldr	ip, .L20+28
 105 0096 6445     		cmp	r4, ip
 106 0098 08BF     		it	eq
 107 009a 47F00107 		orreq	r7, r7, #1
 108 009e DFF80CC1 		ldr	ip, .L20+32
 109 00a2 6445     		cmp	r4, ip
 110 00a4 08BF     		it	eq
 111 00a6 45F00105 		orreq	r5, r5, #1
 112 00aa 0CF1C05C 		add	ip, ip, #402653184
 113 00ae 0CF5A04C 		add	ip, ip, #20480
 114 00b2 6445     		cmp	r4, ip
ARM GAS  C:\Users\DEVELO~1\AppData\Local\Temp\ccHliN1u.s 			page 3


 115 00b4 08BF     		it	eq
 116 00b6 47F00107 		orreq	r7, r7, #1
 117 00ba DFF8F4C0 		ldr	ip, .L20+36
 118 00be 6445     		cmp	r4, ip
 119 00c0 08BF     		it	eq
 120 00c2 45F00105 		orreq	r5, r5, #1
 121 00c6 DFF8ECC0 		ldr	ip, .L20+40
 122 00ca 6445     		cmp	r4, ip
 123 00cc 08BF     		it	eq
 124 00ce 47F00107 		orreq	r7, r7, #1
 125 00d2 DFF8E4C0 		ldr	ip, .L20+44
 126 00d6 6445     		cmp	r4, ip
 127 00d8 08BF     		it	eq
 128 00da 45F00105 		orreq	r5, r5, #1
 129 00de DFF8DCC0 		ldr	ip, .L20+48
 130 00e2 6445     		cmp	r4, ip
 131 00e4 08BF     		it	eq
 132 00e6 47F00107 		orreq	r7, r7, #1
 133 00ea DFF8D4C0 		ldr	ip, .L20+52
 134 00ee 6445     		cmp	r4, ip
 135 00f0 08BF     		it	eq
 136 00f2 45F00105 		orreq	r5, r5, #1
 137 00f6 DFF8CCC0 		ldr	ip, .L20+56
 138 00fa 6445     		cmp	r4, ip
 139 00fc 14BF     		ite	ne
 140 00fe BE46     		movne	lr, r7
 141 0100 47F0010E 		orreq	lr, r7, #1
 142 0104 DFF8C0C0 		ldr	ip, .L20+60
 143 0108 6445     		cmp	r4, ip
 144 010a 08BF     		it	eq
 145 010c 45F00105 		orreq	r5, r5, #1
 146 0110 BEF1000F 		cmp	lr, #0
 147 0114 00D1     		bne	.L3
 148 0116 DDB1     		cbz	r5, .L1
 149              	.L3:
 150              		.loc 1 1782 5 is_stmt 1 view .LVU9
 151              		.loc 1 1782 36 is_stmt 0 view .LVU10
 152 0118 D0E9197C 		ldrd	r7, ip, [r0, #100]
 153 011c C7F804C0 		str	ip, [r7, #4]
 154              		.loc 1 1784 5 is_stmt 1 view .LVU11
 155              		.loc 1 1784 7 is_stmt 0 view .LVU12
 156 0120 C76E     		ldr	r7, [r0, #108]
 157 0122 07B3     		cbz	r7, .L19
 158              		.loc 1 1787 7 is_stmt 1 view .LVU13
 159              		.loc 1 1787 43 is_stmt 0 view .LVU14
 160 0124 D0E91C7C 		ldrd	r7, ip, [r0, #112]
 161 0128 C7F804C0 		str	ip, [r7, #4]
 162              		.loc 1 1791 3 is_stmt 1 view .LVU15
 163              		.loc 1 1791 6 is_stmt 0 view .LVU16
 164 012c 05B3     		cbz	r5, .L6
 165              	.L11:
 166              		.loc 1 1794 5 is_stmt 1 view .LVU17
 167              		.loc 1 1794 51 is_stmt 0 view .LVU18
 168 012e C56D     		ldr	r5, [r0, #92]
 169              		.loc 1 1803 7 view .LVU19
 170 0130 8768     		ldr	r7, [r0, #8]
 171              		.loc 1 1794 29 view .LVU20
ARM GAS  C:\Users\DEVELO~1\AppData\Local\Temp\ccHliN1u.s 			page 4


 172 0132 3F20     		movs	r0, #63
 173              	.LVL2:
 174              		.loc 1 1794 51 view .LVU21
 175 0134 05F01F05 		and	r5, r5, #31
 176              		.loc 1 1803 7 view .LVU22
 177 0138 402F     		cmp	r7, #64
 178              		.loc 1 1794 29 view .LVU23
 179 013a 00FA05F0 		lsl	r0, r0, r5
 180              		.loc 1 1794 20 view .LVU24
 181 013e B060     		str	r0, [r6, #8]
 182              		.loc 1 1797 5 is_stmt 1 view .LVU25
 183              		.loc 1 1797 48 is_stmt 0 view .LVU26
 184 0140 2068     		ldr	r0, [r4]
 185 0142 20F48020 		bic	r0, r0, #262144
 186 0146 2060     		str	r0, [r4]
 187              		.loc 1 1800 5 is_stmt 1 view .LVU27
 188              		.loc 1 1800 50 is_stmt 0 view .LVU28
 189 0148 6360     		str	r3, [r4, #4]
 190              		.loc 1 1803 5 is_stmt 1 view .LVU29
 191              		.loc 1 1803 7 is_stmt 0 view .LVU30
 192 014a 1CD0     		beq	.L17
 193              	.L8:
 194              		.loc 1 1842 7 is_stmt 1 view .LVU31
 195              		.loc 1 1842 54 is_stmt 0 view .LVU32
 196 014c A160     		str	r1, [r4, #8]
 197              		.loc 1 1845 7 is_stmt 1 view .LVU33
 198              		.loc 1 1845 55 is_stmt 0 view .LVU34
 199 014e E260     		str	r2, [r4, #12]
 200              		.loc 1 1851 3 is_stmt 1 view .LVU35
 201              	.L1:
 202              		.loc 1 1852 1 is_stmt 0 view .LVU36
 203 0150 F0BD     		pop	{r4, r5, r6, r7, pc}
 204              	.LVL3:
 205              	.L2:
 206              		.loc 1 1782 5 is_stmt 1 view .LVU37
 207              		.loc 1 1782 42 is_stmt 0 view .LVU38
 208 0152 D0E91957 		ldrd	r5, r7, [r0, #100]
 209              		.loc 1 1782 36 view .LVU39
 210 0156 6F60     		str	r7, [r5, #4]
 211              		.loc 1 1784 5 is_stmt 1 view .LVU40
 212              		.loc 1 1784 7 is_stmt 0 view .LVU41
 213 0158 C56E     		ldr	r5, [r0, #108]
 214 015a 002D     		cmp	r5, #0
 215 015c E7D0     		beq	.L11
 216              		.loc 1 1787 7 is_stmt 1 view .LVU42
 217              		.loc 1 1787 49 is_stmt 0 view .LVU43
 218 015e D0E91C57 		ldrd	r5, r7, [r0, #112]
 219              		.loc 1 1787 43 view .LVU44
 220 0162 6F60     		str	r7, [r5, #4]
 221              		.loc 1 1791 3 is_stmt 1 view .LVU45
 222 0164 E3E7     		b	.L11
 223              	.L19:
 224              		.loc 1 1791 6 is_stmt 0 view .LVU46
 225 0166 002D     		cmp	r5, #0
 226 0168 E1D1     		bne	.L11
 227              		.loc 1 1821 8 is_stmt 1 view .LVU47
 228              		.loc 1 1821 11 is_stmt 0 view .LVU48
ARM GAS  C:\Users\DEVELO~1\AppData\Local\Temp\ccHliN1u.s 			page 5


 229 016a BEF1000F 		cmp	lr, #0
 230 016e EFD0     		beq	.L1
 231              	.L6:
 232              		.loc 1 1824 5 is_stmt 1 view .LVU49
 233              		.loc 1 1824 61 is_stmt 0 view .LVU50
 234 0170 C56D     		ldr	r5, [r0, #92]
 235              		.loc 1 1830 7 view .LVU51
 236 0172 8768     		ldr	r7, [r0, #8]
 237              		.loc 1 1824 39 view .LVU52
 238 0174 0120     		movs	r0, #1
 239              	.LVL4:
 240              		.loc 1 1824 61 view .LVU53
 241 0176 05F01F05 		and	r5, r5, #31
 242              		.loc 1 1830 7 view .LVU54
 243 017a 402F     		cmp	r7, #64
 244              		.loc 1 1824 39 view .LVU55
 245 017c 00FA05F0 		lsl	r0, r0, r5
 246              		.loc 1 1824 21 view .LVU56
 247 0180 7060     		str	r0, [r6, #4]
 248              		.loc 1 1827 5 is_stmt 1 view .LVU57
 249              		.loc 1 1827 53 is_stmt 0 view .LVU58
 250 0182 6360     		str	r3, [r4, #4]
 251              		.loc 1 1830 5 is_stmt 1 view .LVU59
 252              		.loc 1 1830 7 is_stmt 0 view .LVU60
 253 0184 E2D1     		bne	.L8
 254              	.L17:
 255              		.loc 1 1833 7 is_stmt 1 view .LVU61
 256              		.loc 1 1833 54 is_stmt 0 view .LVU62
 257 0186 A260     		str	r2, [r4, #8]
 258              		.loc 1 1836 7 is_stmt 1 view .LVU63
 259              		.loc 1 1836 55 is_stmt 0 view .LVU64
 260 0188 E160     		str	r1, [r4, #12]
 261              		.loc 1 1852 1 view .LVU65
 262 018a F0BD     		pop	{r4, r5, r6, r7, pc}
 263              	.LVL5:
 264              	.L21:
 265              		.loc 1 1852 1 view .LVU66
 266              		.align	2
 267              	.L20:
 268 018c 10000240 		.word	1073872912
 269 0190 58000240 		.word	1073872984
 270 0194 08540258 		.word	1476547592
 271 0198 1C540258 		.word	1476547612
 272 019c 28040240 		.word	1073873960
 273 01a0 30540258 		.word	1476547632
 274 01a4 40040240 		.word	1073873984
 275 01a8 44540258 		.word	1476547652
 276 01ac 58040240 		.word	1073874008
 277 01b0 70040240 		.word	1073874032
 278 01b4 6C540258 		.word	1476547692
 279 01b8 88040240 		.word	1073874056
 280 01bc 80540258 		.word	1476547712
 281 01c0 A0040240 		.word	1073874080
 282 01c4 94540258 		.word	1476547732
 283 01c8 B8040240 		.word	1073874104
 284              		.cfi_endproc
 285              	.LFE153:
ARM GAS  C:\Users\DEVELO~1\AppData\Local\Temp\ccHliN1u.s 			page 6


 286              		.size	DMA_SetConfig, .-DMA_SetConfig
 287              		.section	.text.DMA_CalcBaseAndBitshift,"ax",%progbits
 288              		.align	1
 289              		.p2align 4,,15
 290              		.syntax unified
 291              		.thumb
 292              		.thumb_func
 293              		.type	DMA_CalcBaseAndBitshift, %function
 294              	DMA_CalcBaseAndBitshift:
 295              	.LVL6:
 296              	.LFB154:
 297              		.loc 1 1861 1 is_stmt 1 view -0
 298              		.cfi_startproc
 299              		@ args = 0, pretend = 0, frame = 0
 300              		@ frame_needed = 0, uses_anonymous_args = 0
 301              		@ link register save eliminated.
 302              		.loc 1 1862 3 view .LVU68
 303              		.loc 1 1862 6 is_stmt 0 view .LVU69
 304 0000 0268     		ldr	r2, [r0]
 305              		.loc 1 1861 1 view .LVU70
 306 0002 0146     		mov	r1, r0
 307              		.loc 1 1862 6 view .LVU71
 308 0004 324B     		ldr	r3, .L28
 309 0006 3348     		ldr	r0, .L28+4
 310              	.LVL7:
 311              		.loc 1 1861 1 view .LVU72
 312 0008 70B4     		push	{r4, r5, r6}
 313              		.cfi_def_cfa_offset 12
 314              		.cfi_offset 4, -12
 315              		.cfi_offset 5, -8
 316              		.cfi_offset 6, -4
 317              		.loc 1 1862 6 view .LVU73
 318 000a 334E     		ldr	r6, .L28+8
 319 000c 334D     		ldr	r5, .L28+12
 320 000e B242     		cmp	r2, r6
 321 0010 18BF     		it	ne
 322 0012 9A42     		cmpne	r2, r3
 323 0014 324C     		ldr	r4, .L28+16
 324 0016 0CBF     		ite	eq
 325 0018 0123     		moveq	r3, #1
 326 001a 0023     		movne	r3, #0
 327 001c AA42     		cmp	r2, r5
 328 001e 08BF     		it	eq
 329 0020 43F00103 		orreq	r3, r3, #1
 330 0024 A242     		cmp	r2, r4
 331 0026 08BF     		it	eq
 332 0028 43F00103 		orreq	r3, r3, #1
 333 002c 3034     		adds	r4, r4, #48
 334 002e 8242     		cmp	r2, r0
 335 0030 08BF     		it	eq
 336 0032 43F00103 		orreq	r3, r3, #1
 337 0036 3030     		adds	r0, r0, #48
 338 0038 A242     		cmp	r2, r4
 339 003a 08BF     		it	eq
 340 003c 43F00103 		orreq	r3, r3, #1
 341 0040 3034     		adds	r4, r4, #48
 342 0042 8242     		cmp	r2, r0
ARM GAS  C:\Users\DEVELO~1\AppData\Local\Temp\ccHliN1u.s 			page 7


 343 0044 08BF     		it	eq
 344 0046 43F00103 		orreq	r3, r3, #1
 345 004a 00F55C70 		add	r0, r0, #880
 346 004e A242     		cmp	r2, r4
 347 0050 08BF     		it	eq
 348 0052 43F00103 		orreq	r3, r3, #1
 349 0056 04F55C74 		add	r4, r4, #880
 350 005a 8242     		cmp	r2, r0
 351 005c 08BF     		it	eq
 352 005e 43F00103 		orreq	r3, r3, #1
 353 0062 3030     		adds	r0, r0, #48
 354 0064 A242     		cmp	r2, r4
 355 0066 08BF     		it	eq
 356 0068 43F00103 		orreq	r3, r3, #1
 357 006c 3034     		adds	r4, r4, #48
 358 006e 8242     		cmp	r2, r0
 359 0070 08BF     		it	eq
 360 0072 43F00103 		orreq	r3, r3, #1
 361 0076 3030     		adds	r0, r0, #48
 362 0078 A242     		cmp	r2, r4
 363 007a 08BF     		it	eq
 364 007c 43F00103 		orreq	r3, r3, #1
 365 0080 3034     		adds	r4, r4, #48
 366 0082 8242     		cmp	r2, r0
 367 0084 08BF     		it	eq
 368 0086 43F00103 		orreq	r3, r3, #1
 369 008a 3030     		adds	r0, r0, #48
 370 008c A242     		cmp	r2, r4
 371 008e 08BF     		it	eq
 372 0090 43F00103 		orreq	r3, r3, #1
 373 0094 8242     		cmp	r2, r0
 374 0096 08BF     		it	eq
 375 0098 43F00103 		orreq	r3, r3, #1
 376 009c 13B9     		cbnz	r3, .L23
 377 009e 114B     		ldr	r3, .L28+20
 378 00a0 9A42     		cmp	r2, r3
 379 00a2 12D1     		bne	.L27
 380              	.L23:
 381              	.LBB2:
 382              		.loc 1 1864 5 is_stmt 1 view .LVU74
 383              		.loc 1 1864 70 is_stmt 0 view .LVU75
 384 00a4 D3B2     		uxtb	r3, r2
 385              		.loc 1 1864 14 view .LVU76
 386 00a6 1048     		ldr	r0, .L28+24
 387              		.loc 1 1868 43 view .LVU77
 388 00a8 104C     		ldr	r4, .L28+28
 389              		.loc 1 1864 79 view .LVU78
 390 00aa 103B     		subs	r3, r3, #16
 391              	.LVL8:
 392              		.loc 1 1867 5 is_stmt 1 view .LVU79
 393              		.loc 1 1868 5 view .LVU80
 394              		.loc 1 1864 14 is_stmt 0 view .LVU81
 395 00ac A0FB0350 		umull	r5, r0, r0, r3
 396              		.loc 1 1870 8 view .LVU82
 397 00b0 5F2B     		cmp	r3, #95
 398              		.loc 1 1864 14 view .LVU83
 399 00b2 4FEA1010 		lsr	r0, r0, #4
ARM GAS  C:\Users\DEVELO~1\AppData\Local\Temp\ccHliN1u.s 			page 8


 400              		.loc 1 1868 43 view .LVU84
 401 00b6 205C     		ldrb	r0, [r4, r0]	@ zero_extendqisi2
 402 00b8 C865     		str	r0, [r1, #92]
 403              		.loc 1 1870 5 is_stmt 1 view .LVU85
 404              		.loc 1 1873 7 view .LVU86
 405              		.loc 1 1873 73 is_stmt 0 view .LVU87
 406 00ba 0D48     		ldr	r0, .L28+32
 407 00bc 00EA0200 		and	r0, r0, r2
 408              		.loc 1 1873 96 view .LVU88
 409 00c0 88BF     		it	hi
 410 00c2 0430     		addhi	r0, r0, #4
 411              	.LVL9:
 412              	.L24:
 413              		.loc 1 1878 31 view .LVU89
 414 00c4 8865     		str	r0, [r1, #88]
 415              	.LBE2:
 416              		.loc 1 1887 3 is_stmt 1 view .LVU90
 417              		.loc 1 1888 1 is_stmt 0 view .LVU91
 418 00c6 70BC     		pop	{r4, r5, r6}
 419              		.cfi_remember_state
 420              		.cfi_restore 6
 421              		.cfi_restore 5
 422              		.cfi_restore 4
 423              		.cfi_def_cfa_offset 0
 424 00c8 7047     		bx	lr
 425              	.L27:
 426              		.cfi_restore_state
 427              		.loc 1 1884 5 is_stmt 1 view .LVU92
 428              		.loc 1 1884 70 is_stmt 0 view .LVU93
 429 00ca 22F0FF00 		bic	r0, r2, #255
 430 00ce F9E7     		b	.L24
 431              	.L29:
 432              		.align	2
 433              	.L28:
 434 00d0 10000240 		.word	1073872912
 435 00d4 70000240 		.word	1073873008
 436 00d8 28000240 		.word	1073872936
 437 00dc 40000240 		.word	1073872960
 438 00e0 58000240 		.word	1073872984
 439 00e4 B8040240 		.word	1073874104
 440 00e8 ABAAAAAA 		.word	-1431655765
 441 00ec 00000000 		.word	.LANCHOR0
 442 00f0 00FCFFFF 		.word	-1024
 443              		.cfi_endproc
 444              	.LFE154:
 445              		.size	DMA_CalcBaseAndBitshift, .-DMA_CalcBaseAndBitshift
 446              		.section	.text.DMA_CalcDMAMUXChannelBaseAndMask,"ax",%progbits
 447              		.align	1
 448              		.p2align 4,,15
 449              		.syntax unified
 450              		.thumb
 451              		.thumb_func
 452              		.type	DMA_CalcDMAMUXChannelBaseAndMask, %function
 453              	DMA_CalcDMAMUXChannelBaseAndMask:
 454              	.LVL10:
 455              	.LFB156:
 456              		.loc 1 1991 1 is_stmt 1 view -0
ARM GAS  C:\Users\DEVELO~1\AppData\Local\Temp\ccHliN1u.s 			page 9


 457              		.cfi_startproc
 458              		@ args = 0, pretend = 0, frame = 0
 459              		@ frame_needed = 0, uses_anonymous_args = 0
 460              		@ link register save eliminated.
 461              		.loc 1 1992 3 view .LVU95
 462              		.loc 1 1993 3 view .LVU96
 463              		.loc 1 1993 59 is_stmt 0 view .LVU97
 464 0000 0368     		ldr	r3, [r0]
 465              	.LVL11:
 466              		.loc 1 1995 3 is_stmt 1 view .LVU98
 467              		.loc 1 1995 6 is_stmt 0 view .LVU99
 468 0002 274A     		ldr	r2, .L37
 469 0004 2749     		ldr	r1, .L37+4
 470              		.loc 1 1991 1 view .LVU100
 471 0006 30B4     		push	{r4, r5}
 472              		.cfi_def_cfa_offset 8
 473              		.cfi_offset 4, -8
 474              		.cfi_offset 5, -4
 475              		.loc 1 1995 6 view .LVU101
 476 0008 274D     		ldr	r5, .L37+8
 477 000a 284C     		ldr	r4, .L37+12
 478 000c AB42     		cmp	r3, r5
 479 000e 18BF     		it	ne
 480 0010 9342     		cmpne	r3, r2
 481 0012 0CBF     		ite	eq
 482 0014 0122     		moveq	r2, #1
 483 0016 0022     		movne	r2, #0
 484 0018 8B42     		cmp	r3, r1
 485 001a 08BF     		it	eq
 486 001c 42F00102 		orreq	r2, r2, #1
 487 0020 2831     		adds	r1, r1, #40
 488 0022 A342     		cmp	r3, r4
 489 0024 08BF     		it	eq
 490 0026 42F00102 		orreq	r2, r2, #1
 491 002a 2834     		adds	r4, r4, #40
 492 002c 8B42     		cmp	r3, r1
 493 002e 08BF     		it	eq
 494 0030 42F00102 		orreq	r2, r2, #1
 495 0034 2831     		adds	r1, r1, #40
 496 0036 A342     		cmp	r3, r4
 497 0038 08BF     		it	eq
 498 003a 42F00102 		orreq	r2, r2, #1
 499 003e 8B42     		cmp	r3, r1
 500 0040 08BF     		it	eq
 501 0042 42F00102 		orreq	r2, r2, #1
 502 0046 12B9     		cbnz	r2, .L31
 503 0048 194A     		ldr	r2, .L37+16
 504 004a 9342     		cmp	r3, r2
 505 004c 13D1     		bne	.L36
 506              	.L31:
 507              		.loc 1 1998 5 is_stmt 1 view .LVU102
 508              		.loc 1 1998 61 is_stmt 0 view .LVU103
 509 004e DBB2     		uxtb	r3, r3
 510              	.LVL12:
 511              		.loc 1 1998 19 view .LVU104
 512 0050 1849     		ldr	r1, .L37+20
 513              		.loc 1 1999 54 view .LVU105
ARM GAS  C:\Users\DEVELO~1\AppData\Local\Temp\ccHliN1u.s 			page 10


 514 0052 194A     		ldr	r2, .L37+24
 515              		.loc 1 1998 70 view .LVU106
 516 0054 083B     		subs	r3, r3, #8
 517 0056 194C     		ldr	r4, .L37+28
 518              		.loc 1 1998 19 view .LVU107
 519 0058 A1FB0313 		umull	r1, r3, r1, r3
 520              	.LVL13:
 521              		.loc 1 1999 5 is_stmt 1 view .LVU108
 522              		.loc 1 2001 41 is_stmt 0 view .LVU109
 523 005c 0121     		movs	r1, #1
 524              		.loc 1 1999 54 view .LVU110
 525 005e 02EB1312 		add	r2, r2, r3, lsr #4
 526              		.loc 1 2001 59 view .LVU111
 527 0062 C3F30413 		ubfx	r3, r3, #4, #5
 528              	.LVL14:
 529              		.loc 1 1999 54 view .LVU112
 530 0066 9200     		lsls	r2, r2, #2
 531              		.loc 1 2000 5 is_stmt 1 view .LVU113
 532              		.loc 1 2001 5 view .LVU114
 533              		.loc 1 2001 41 is_stmt 0 view .LVU115
 534 0068 01FA03F3 		lsl	r3, r1, r3
 535              	.L34:
 536              		.loc 1 2001 35 view .LVU116
 537 006c 8366     		str	r3, [r0, #104]
 538              		.loc 1 2000 31 view .LVU117
 539 006e C0E91824 		strd	r2, r4, [r0, #96]
 540              		.loc 1 2017 1 view .LVU118
 541 0072 30BC     		pop	{r4, r5}
 542              		.cfi_remember_state
 543              		.cfi_restore 5
 544              		.cfi_restore 4
 545              		.cfi_def_cfa_offset 0
 546 0074 7047     		bx	lr
 547              	.LVL15:
 548              	.L36:
 549              		.cfi_restore_state
 550              		.loc 1 2006 5 is_stmt 1 view .LVU119
 551              		.loc 1 2006 61 is_stmt 0 view .LVU120
 552 0076 D9B2     		uxtb	r1, r3
 553              		.loc 1 2008 58 view .LVU121
 554 0078 114A     		ldr	r2, .L37+32
 555              		.loc 1 2006 19 view .LVU122
 556 007a 124C     		ldr	r4, .L37+36
 557              		.loc 1 2006 70 view .LVU123
 558 007c 1039     		subs	r1, r1, #16
 559              		.loc 1 2008 58 view .LVU124
 560 007e 1A44     		add	r2, r2, r3
 561              		.loc 1 2006 19 view .LVU125
 562 0080 A4FB0141 		umull	r4, r1, r4, r1
 563              		.loc 1 2008 7 view .LVU126
 564 0084 A82A     		cmp	r2, #168
 565              		.loc 1 2006 19 view .LVU127
 566 0086 4FEA1111 		lsr	r1, r1, #4
 567              	.LVL16:
 568              		.loc 1 2008 5 is_stmt 1 view .LVU128
 569              		.loc 1 2008 7 is_stmt 0 view .LVU129
 570 008a 00D8     		bhi	.L33
ARM GAS  C:\Users\DEVELO~1\AppData\Local\Temp\ccHliN1u.s 			page 11


 571              		.loc 1 2011 7 is_stmt 1 view .LVU130
 572              		.loc 1 2011 21 is_stmt 0 view .LVU131
 573 008c 0831     		adds	r1, r1, #8
 574              	.LVL17:
 575              	.L33:
 576              		.loc 1 2013 5 is_stmt 1 view .LVU132
 577              		.loc 1 2013 54 is_stmt 0 view .LVU133
 578 008e 0E4A     		ldr	r2, .L37+40
 579              		.loc 1 2015 59 view .LVU134
 580 0090 01F01F04 		and	r4, r1, #31
 581              		.loc 1 2015 41 view .LVU135
 582 0094 0123     		movs	r3, #1
 583              	.LVL18:
 584              		.loc 1 2013 54 view .LVU136
 585 0096 0A44     		add	r2, r2, r1
 586              		.loc 1 2015 41 view .LVU137
 587 0098 A340     		lsls	r3, r3, r4
 588 009a 0C4C     		ldr	r4, .L37+44
 589              		.loc 1 2013 54 view .LVU138
 590 009c 9200     		lsls	r2, r2, #2
 591              		.loc 1 2014 5 is_stmt 1 view .LVU139
 592              		.loc 1 2015 5 view .LVU140
 593 009e E5E7     		b	.L34
 594              	.L38:
 595              		.align	2
 596              	.L37:
 597 00a0 08540258 		.word	1476547592
 598 00a4 30540258 		.word	1476547632
 599 00a8 1C540258 		.word	1476547612
 600 00ac 44540258 		.word	1476547652
 601 00b0 94540258 		.word	1476547732
 602 00b4 CDCCCCCC 		.word	-858993459
 603 00b8 00960016 		.word	369137152
 604 00bc 80580258 		.word	1476548736
 605 00c0 F0FBFDBF 		.word	-1073873936
 606 00c4 ABAAAAAA 		.word	-1431655765
 607 00c8 00820010 		.word	268468736
 608 00cc 80080240 		.word	1073875072
 609              		.cfi_endproc
 610              	.LFE156:
 611              		.size	DMA_CalcDMAMUXChannelBaseAndMask, .-DMA_CalcDMAMUXChannelBaseAndMask
 612              		.section	.text.DMA_CalcDMAMUXRequestGenBaseAndMask,"ax",%progbits
 613              		.align	1
 614              		.p2align 4,,15
 615              		.syntax unified
 616              		.thumb
 617              		.thumb_func
 618              		.type	DMA_CalcDMAMUXRequestGenBaseAndMask, %function
 619              	DMA_CalcDMAMUXRequestGenBaseAndMask:
 620              	.LVL19:
 621              	.LFB157:
 622              		.loc 1 2026 1 view -0
 623              		.cfi_startproc
 624              		@ args = 0, pretend = 0, frame = 0
 625              		@ frame_needed = 0, uses_anonymous_args = 0
 626              		@ link register save eliminated.
 627              		.loc 1 2027 3 view .LVU142
ARM GAS  C:\Users\DEVELO~1\AppData\Local\Temp\ccHliN1u.s 			page 12


 628              		.loc 1 2027 12 is_stmt 0 view .LVU143
 629 0000 90F804C0 		ldrb	ip, [r0, #4]	@ zero_extendqisi2
 630              	.LVL20:
 631              		.loc 1 2029 3 is_stmt 1 view .LVU144
 632              		.loc 1 2029 42 is_stmt 0 view .LVU145
 633 0004 0CF1FF31 		add	r1, ip, #-1
 634              		.loc 1 2029 5 view .LVU146
 635 0008 0729     		cmp	r1, #7
 636 000a 32D8     		bhi	.L44
 637              		.loc 1 2031 5 is_stmt 1 view .LVU147
 638              		.loc 1 2031 8 is_stmt 0 view .LVU148
 639 000c 0268     		ldr	r2, [r0]
 640 000e 1C4B     		ldr	r3, .L48
 641              		.loc 1 2026 1 view .LVU149
 642 0010 10B4     		push	{r4}
 643              		.cfi_def_cfa_offset 4
 644              		.cfi_offset 4, -4
 645              		.loc 1 2031 8 view .LVU150
 646 0012 1C4C     		ldr	r4, .L48+4
 647 0014 A242     		cmp	r2, r4
 648 0016 18BF     		it	ne
 649 0018 9A42     		cmpne	r2, r3
 650 001a 04F11404 		add	r4, r4, #20
 651 001e 0CBF     		ite	eq
 652 0020 0123     		moveq	r3, #1
 653 0022 0023     		movne	r3, #0
 654 0024 A242     		cmp	r2, r4
 655 0026 08BF     		it	eq
 656 0028 43F00103 		orreq	r3, r3, #1
 657 002c 1434     		adds	r4, r4, #20
 658 002e A242     		cmp	r2, r4
 659 0030 08BF     		it	eq
 660 0032 43F00103 		orreq	r3, r3, #1
 661 0036 1434     		adds	r4, r4, #20
 662 0038 A242     		cmp	r2, r4
 663 003a 08BF     		it	eq
 664 003c 43F00103 		orreq	r3, r3, #1
 665 0040 1434     		adds	r4, r4, #20
 666 0042 A242     		cmp	r2, r4
 667 0044 08BF     		it	eq
 668 0046 43F00103 		orreq	r3, r3, #1
 669 004a 1434     		adds	r4, r4, #20
 670 004c A242     		cmp	r2, r4
 671 004e 08BF     		it	eq
 672 0050 43F00103 		orreq	r3, r3, #1
 673 0054 13B9     		cbnz	r3, .L41
 674 0056 0C4B     		ldr	r3, .L48+8
 675 0058 9A42     		cmp	r2, r3
 676 005a 0BD1     		bne	.L47
 677              	.L41:
 678              		.loc 1 2034 7 is_stmt 1 view .LVU151
 679              		.loc 1 2034 62 is_stmt 0 view .LVU152
 680 005c 0B4B     		ldr	r3, .L48+12
 681 005e 0C4C     		ldr	r4, .L48+16
 682 0060 6344     		add	r3, r3, ip
 683 0062 9B00     		lsls	r3, r3, #2
 684              		.loc 1 2036 7 is_stmt 1 view .LVU153
ARM GAS  C:\Users\DEVELO~1\AppData\Local\Temp\ccHliN1u.s 			page 13


 685              	.L42:
 686              		.loc 1 2046 44 is_stmt 0 view .LVU154
 687 0064 0122     		movs	r2, #1
 688 0066 8A40     		lsls	r2, r2, r1
 689              		.loc 1 2036 36 view .LVU155
 690 0068 C0E91B34 		strd	r3, r4, [r0, #108]
 691              		.loc 1 2046 5 is_stmt 1 view .LVU156
 692              		.loc 1 2046 38 is_stmt 0 view .LVU157
 693 006c 4267     		str	r2, [r0, #116]
 694              		.loc 1 2048 1 view .LVU158
 695 006e 10BC     		pop	{r4}
 696              		.cfi_restore 4
 697              		.cfi_def_cfa_offset 0
 698 0070 7047     		bx	lr
 699              	.L44:
 700              		.loc 1 2048 1 view .LVU159
 701 0072 7047     		bx	lr
 702              	.L47:
 703              		.cfi_def_cfa_offset 4
 704              		.cfi_offset 4, -4
 705              		.loc 1 2041 7 is_stmt 1 view .LVU160
 706              		.loc 1 2041 62 is_stmt 0 view .LVU161
 707 0074 074B     		ldr	r3, .L48+20
 708              		.loc 1 2041 32 view .LVU162
 709 0076 084C     		ldr	r4, .L48+24
 710              		.loc 1 2041 62 view .LVU163
 711 0078 6344     		add	r3, r3, ip
 712 007a 9B00     		lsls	r3, r3, #2
 713              		.loc 1 2043 7 is_stmt 1 view .LVU164
 714 007c F2E7     		b	.L42
 715              	.L49:
 716 007e 00BF     		.align	2
 717              	.L48:
 718 0080 08540258 		.word	1476547592
 719 0084 1C540258 		.word	1476547612
 720 0088 94540258 		.word	1476547732
 721 008c 3F960016 		.word	369137215
 722 0090 40590258 		.word	1476548928
 723 0094 3F820010 		.word	268468799
 724 0098 40090240 		.word	1073875264
 725              		.cfi_endproc
 726              	.LFE157:
 727              		.size	DMA_CalcDMAMUXRequestGenBaseAndMask, .-DMA_CalcDMAMUXRequestGenBaseAndMask
 728              		.section	.text.HAL_DMA_Init,"ax",%progbits
 729              		.align	1
 730              		.p2align 4,,15
 731              		.global	HAL_DMA_Init
 732              		.syntax unified
 733              		.thumb
 734              		.thumb_func
 735              		.type	HAL_DMA_Init, %function
 736              	HAL_DMA_Init:
 737              	.LVL21:
 738              	.LFB141:
 739              		.loc 1 217 1 view -0
 740              		.cfi_startproc
 741              		@ args = 0, pretend = 0, frame = 0
ARM GAS  C:\Users\DEVELO~1\AppData\Local\Temp\ccHliN1u.s 			page 14


 742              		@ frame_needed = 0, uses_anonymous_args = 0
 743              		.loc 1 218 3 view .LVU166
 744              		.loc 1 219 3 view .LVU167
 745              		.loc 1 217 1 is_stmt 0 view .LVU168
 746 0000 F8B5     		push	{r3, r4, r5, r6, r7, lr}
 747              		.cfi_def_cfa_offset 24
 748              		.cfi_offset 3, -24
 749              		.cfi_offset 4, -20
 750              		.cfi_offset 5, -16
 751              		.cfi_offset 6, -12
 752              		.cfi_offset 7, -8
 753              		.cfi_offset 14, -4
 754              		.loc 1 217 1 view .LVU169
 755 0002 0546     		mov	r5, r0
 756              		.loc 1 219 24 view .LVU170
 757 0004 FFF7FEFF 		bl	HAL_GetTick
 758              	.LVL22:
 759              		.loc 1 220 3 is_stmt 1 view .LVU171
 760              		.loc 1 221 3 view .LVU172
 761              		.loc 1 224 3 view .LVU173
 762              		.loc 1 224 5 is_stmt 0 view .LVU174
 763 0008 002D     		cmp	r5, #0
 764 000a 00F07781 		beq	.L81
 765              		.loc 1 230 3 is_stmt 1 view .LVU175
 766              		.loc 1 231 3 view .LVU176
 767              		.loc 1 232 3 view .LVU177
 768              		.loc 1 233 3 view .LVU178
 769              		.loc 1 234 3 view .LVU179
 770              		.loc 1 235 3 view .LVU180
 771              		.loc 1 236 3 view .LVU181
 772              		.loc 1 237 3 view .LVU182
 773              		.loc 1 239 3 view .LVU183
 774              		.loc 1 239 6 is_stmt 0 view .LVU184
 775 000e 2C68     		ldr	r4, [r5]
 776 0010 0646     		mov	r6, r0
 777 0012 A34B     		ldr	r3, .L109
 778 0014 9C42     		cmp	r4, r3
 779 0016 48D0     		beq	.L52
 780 0018 1833     		adds	r3, r3, #24
 781 001a 9C42     		cmp	r4, r3
 782 001c 45D0     		beq	.L52
 783              		.loc 1 239 6 discriminator 4 view .LVU185
 784 001e 1833     		adds	r3, r3, #24
 785 0020 A04A     		ldr	r2, .L109+4
 786 0022 9442     		cmp	r4, r2
 787 0024 18BF     		it	ne
 788 0026 9C42     		cmpne	r4, r3
 789 0028 02F11802 		add	r2, r2, #24
 790 002c 0CBF     		ite	eq
 791 002e 0123     		moveq	r3, #1
 792 0030 0023     		movne	r3, #0
 793 0032 9442     		cmp	r4, r2
 794 0034 08BF     		it	eq
 795 0036 43F00103 		orreq	r3, r3, #1
 796 003a 1832     		adds	r2, r2, #24
 797 003c 9442     		cmp	r4, r2
 798 003e 08BF     		it	eq
ARM GAS  C:\Users\DEVELO~1\AppData\Local\Temp\ccHliN1u.s 			page 15


 799 0040 43F00103 		orreq	r3, r3, #1
 800 0044 1832     		adds	r2, r2, #24
 801 0046 9442     		cmp	r4, r2
 802 0048 08BF     		it	eq
 803 004a 43F00103 		orreq	r3, r3, #1
 804 004e 1832     		adds	r2, r2, #24
 805 0050 9442     		cmp	r4, r2
 806 0052 08BF     		it	eq
 807 0054 43F00103 		orreq	r3, r3, #1
 808 0058 02F55672 		add	r2, r2, #856
 809 005c 9442     		cmp	r4, r2
 810 005e 08BF     		it	eq
 811 0060 43F00103 		orreq	r3, r3, #1
 812 0064 1832     		adds	r2, r2, #24
 813 0066 9442     		cmp	r4, r2
 814 0068 08BF     		it	eq
 815 006a 43F00103 		orreq	r3, r3, #1
 816 006e 1832     		adds	r2, r2, #24
 817 0070 9442     		cmp	r4, r2
 818 0072 08BF     		it	eq
 819 0074 43F00103 		orreq	r3, r3, #1
 820 0078 1832     		adds	r2, r2, #24
 821 007a 9442     		cmp	r4, r2
 822 007c 08BF     		it	eq
 823 007e 43F00103 		orreq	r3, r3, #1
 824 0082 1832     		adds	r2, r2, #24
 825 0084 9442     		cmp	r4, r2
 826 0086 08BF     		it	eq
 827 0088 43F00103 		orreq	r3, r3, #1
 828 008c 1832     		adds	r2, r2, #24
 829 008e 9442     		cmp	r4, r2
 830 0090 08BF     		it	eq
 831 0092 43F00103 		orreq	r3, r3, #1
 832 0096 1832     		adds	r2, r2, #24
 833 0098 9442     		cmp	r4, r2
 834 009a 08BF     		it	eq
 835 009c 43F00103 		orreq	r3, r3, #1
 836 00a0 1BB9     		cbnz	r3, .L52
 837 00a2 814B     		ldr	r3, .L109+8
 838 00a4 9C42     		cmp	r4, r3
 839 00a6 40F06281 		bne	.L103
 840              	.L52:
 841              		.loc 1 241 5 is_stmt 1 view .LVU186
 842              		.loc 1 242 5 view .LVU187
 843              		.loc 1 245 5 view .LVU188
 844              		.loc 1 247 7 view .LVU189
 845              		.loc 1 248 7 view .LVU190
 846              		.loc 1 249 7 view .LVU191
 847              		.loc 1 253 5 view .LVU192
 848              		.loc 1 253 17 is_stmt 0 view .LVU193
 849 00aa 0223     		movs	r3, #2
 850 00ac 85F83530 		strb	r3, [r5, #53]
 851              		.loc 1 256 5 is_stmt 1 view .LVU194
 852              		.loc 1 256 5 view .LVU195
 853              		.loc 1 256 5 view .LVU196
 854              		.loc 1 259 5 view .LVU197
 855              		.loc 1 256 5 is_stmt 0 view .LVU198
ARM GAS  C:\Users\DEVELO~1\AppData\Local\Temp\ccHliN1u.s 			page 16


 856 00b0 0023     		movs	r3, #0
 857 00b2 85F83430 		strb	r3, [r5, #52]
 858              		.loc 1 259 5 view .LVU199
 859 00b6 2368     		ldr	r3, [r4]
 860 00b8 23F00103 		bic	r3, r3, #1
 861 00bc 2360     		str	r3, [r4]
 862 00be 06E0     		b	.L56
 863              	.LVL23:
 864              	.L58:
 865              		.loc 1 265 11 view .LVU200
 866 00c0 FFF7FEFF 		bl	HAL_GetTick
 867              	.LVL24:
 868              		.loc 1 265 25 view .LVU201
 869 00c4 831B     		subs	r3, r0, r6
 870              		.loc 1 265 9 view .LVU202
 871 00c6 052B     		cmp	r3, #5
 872 00c8 00F20081 		bhi	.L104
 873              		.loc 1 262 41 view .LVU203
 874 00cc 2C68     		ldr	r4, [r5]
 875              	.L56:
 876              		.loc 1 265 7 is_stmt 1 view .LVU204
 877              		.loc 1 262 72 view .LVU205
 878              		.loc 1 262 52 is_stmt 0 view .LVU206
 879 00ce 2368     		ldr	r3, [r4]
 880              		.loc 1 262 72 view .LVU207
 881 00d0 DF07     		lsls	r7, r3, #31
 882 00d2 F5D4     		bmi	.L58
 883              		.loc 1 278 5 is_stmt 1 view .LVU208
 884              		.loc 1 287 54 is_stmt 0 view .LVU209
 885 00d4 D5E90230 		ldrd	r3, r0, [r5, #8]
 886              		.loc 1 288 44 view .LVU210
 887 00d8 2969     		ldr	r1, [r5, #16]
 888              		.loc 1 287 54 view .LVU211
 889 00da 0343     		orrs	r3, r3, r0
 890              		.loc 1 289 56 view .LVU212
 891 00dc AA69     		ldr	r2, [r5, #24]
 892              		.loc 1 278 19 view .LVU213
 893 00de 2068     		ldr	r0, [r4]
 894              	.LVL25:
 895              		.loc 1 281 5 is_stmt 1 view .LVU214
 896              		.loc 1 288 44 is_stmt 0 view .LVU215
 897 00e0 0B43     		orrs	r3, r3, r1
 898              		.loc 1 288 74 view .LVU216
 899 00e2 6969     		ldr	r1, [r5, #20]
 900 00e4 0B43     		orrs	r3, r3, r1
 901              		.loc 1 289 74 view .LVU217
 902 00e6 E969     		ldr	r1, [r5, #28]
 903              		.loc 1 289 44 view .LVU218
 904 00e8 1343     		orrs	r3, r3, r2
 905              		.loc 1 289 74 view .LVU219
 906 00ea 0B43     		orrs	r3, r3, r1
 907              		.loc 1 281 19 view .LVU220
 908 00ec 6F49     		ldr	r1, .L109+12
 909 00ee 0140     		ands	r1, r1, r0
 910              	.LVL26:
 911              		.loc 1 287 5 is_stmt 1 view .LVU221
 912              		.loc 1 290 44 is_stmt 0 view .LVU222
ARM GAS  C:\Users\DEVELO~1\AppData\Local\Temp\ccHliN1u.s 			page 17


 913 00f0 286A     		ldr	r0, [r5, #32]
 914 00f2 0343     		orrs	r3, r3, r0
 915              		.loc 1 302 15 view .LVU223
 916 00f4 6E48     		ldr	r0, .L109+16
 917              		.loc 1 287 19 view .LVU224
 918 00f6 0B43     		orrs	r3, r3, r1
 919              	.LVL27:
 920              		.loc 1 293 5 is_stmt 1 view .LVU225
 921              		.loc 1 293 18 is_stmt 0 view .LVU226
 922 00f8 696A     		ldr	r1, [r5, #36]
 923              		.loc 1 293 7 view .LVU227
 924 00fa 0429     		cmp	r1, #4
 925 00fc 00F00081 		beq	.L105
 926              		.loc 1 302 5 is_stmt 1 view .LVU228
 927              		.loc 1 302 15 is_stmt 0 view .LVU229
 928 0100 0668     		ldr	r6, [r0]
 929              	.LVL28:
 930              		.loc 1 302 24 view .LVU230
 931 0102 6C48     		ldr	r0, .L109+20
 932 0104 3040     		ands	r0, r0, r6
 933              		.loc 1 302 7 view .LVU231
 934 0106 B0F1005F 		cmp	r0, #536870912
 935 010a 80F0A680 		bcs	.L79
 936              		.loc 1 314 5 is_stmt 1 view .LVU232
 937              		.loc 1 314 50 is_stmt 0 view .LVU233
 938 010e 2360     		str	r3, [r4]
 939              		.loc 1 317 5 is_stmt 1 view .LVU234
 940              		.loc 1 317 19 is_stmt 0 view .LVU235
 941 0110 6369     		ldr	r3, [r4, #20]
 942              	.LVL29:
 943              		.loc 1 320 5 is_stmt 1 view .LVU236
 944              		.loc 1 320 19 is_stmt 0 view .LVU237
 945 0112 23F00703 		bic	r3, r3, #7
 946              	.LVL30:
 947              		.loc 1 323 5 is_stmt 1 view .LVU238
 948              		.loc 1 323 19 is_stmt 0 view .LVU239
 949 0116 0B43     		orrs	r3, r3, r1
 950              	.LVL31:
 951              		.loc 1 326 5 is_stmt 1 view .LVU240
 952              	.L64:
 953              		.loc 1 349 5 view .LVU241
 954              		.loc 1 349 51 is_stmt 0 view .LVU242
 955 0118 6361     		str	r3, [r4, #20]
 956              		.loc 1 353 5 is_stmt 1 view .LVU243
 957              		.loc 1 353 38 is_stmt 0 view .LVU244
 958 011a 2846     		mov	r0, r5
 959 011c FFF7FEFF 		bl	DMA_CalcBaseAndBitshift
 960              	.LVL32:
 961              		.loc 1 356 51 view .LVU245
 962 0120 EA6D     		ldr	r2, [r5, #92]
 963              		.loc 1 356 29 view .LVU246
 964 0122 3F23     		movs	r3, #63
 965              	.LVL33:
 966              		.loc 1 356 5 is_stmt 1 view .LVU247
 967              		.loc 1 411 6 is_stmt 0 view .LVU248
 968 0124 6449     		ldr	r1, .L109+24
 969              		.loc 1 356 51 view .LVU249
ARM GAS  C:\Users\DEVELO~1\AppData\Local\Temp\ccHliN1u.s 			page 18


 970 0126 02F01F02 		and	r2, r2, #31
 971              		.loc 1 356 29 view .LVU250
 972 012a 03FA02F2 		lsl	r2, r3, r2
 973              		.loc 1 411 6 view .LVU251
 974 012e 5C4B     		ldr	r3, .L109
 975 0130 8C42     		cmp	r4, r1
 976 0132 18BF     		it	ne
 977 0134 9C42     		cmpne	r4, r3
 978              		.loc 1 356 20 view .LVU252
 979 0136 8260     		str	r2, [r0, #8]
 980              		.loc 1 411 3 is_stmt 1 view .LVU253
 981              		.loc 1 411 6 is_stmt 0 view .LVU254
 982 0138 604A     		ldr	r2, .L109+28
 983 013a 01F13001 		add	r1, r1, #48
 984 013e 0CBF     		ite	eq
 985 0140 0123     		moveq	r3, #1
 986 0142 0023     		movne	r3, #0
 987 0144 9442     		cmp	r4, r2
 988 0146 08BF     		it	eq
 989 0148 43F00103 		orreq	r3, r3, #1
 990 014c 3032     		adds	r2, r2, #48
 991 014e 8C42     		cmp	r4, r1
 992 0150 08BF     		it	eq
 993 0152 43F00103 		orreq	r3, r3, #1
 994 0156 3031     		adds	r1, r1, #48
 995 0158 9442     		cmp	r4, r2
 996 015a 08BF     		it	eq
 997 015c 43F00103 		orreq	r3, r3, #1
 998 0160 3032     		adds	r2, r2, #48
 999 0162 8C42     		cmp	r4, r1
 1000 0164 08BF     		it	eq
 1001 0166 43F00103 		orreq	r3, r3, #1
 1002 016a 3031     		adds	r1, r1, #48
 1003 016c 9442     		cmp	r4, r2
 1004 016e 08BF     		it	eq
 1005 0170 43F00103 		orreq	r3, r3, #1
 1006 0174 02F55C72 		add	r2, r2, #880
 1007 0178 8C42     		cmp	r4, r1
 1008 017a 08BF     		it	eq
 1009 017c 43F00103 		orreq	r3, r3, #1
 1010 0180 01F55C71 		add	r1, r1, #880
 1011 0184 9442     		cmp	r4, r2
 1012 0186 08BF     		it	eq
 1013 0188 43F00103 		orreq	r3, r3, #1
 1014 018c 3032     		adds	r2, r2, #48
 1015 018e 8C42     		cmp	r4, r1
 1016 0190 08BF     		it	eq
 1017 0192 43F00103 		orreq	r3, r3, #1
 1018 0196 3031     		adds	r1, r1, #48
 1019 0198 9442     		cmp	r4, r2
 1020 019a 08BF     		it	eq
 1021 019c 43F00103 		orreq	r3, r3, #1
 1022 01a0 3032     		adds	r2, r2, #48
 1023 01a2 8C42     		cmp	r4, r1
 1024 01a4 08BF     		it	eq
 1025 01a6 43F00103 		orreq	r3, r3, #1
 1026 01aa 3031     		adds	r1, r1, #48
ARM GAS  C:\Users\DEVELO~1\AppData\Local\Temp\ccHliN1u.s 			page 19


 1027 01ac 9442     		cmp	r4, r2
 1028 01ae 08BF     		it	eq
 1029 01b0 43F00103 		orreq	r3, r3, #1
 1030 01b4 3032     		adds	r2, r2, #48
 1031 01b6 8C42     		cmp	r4, r1
 1032 01b8 08BF     		it	eq
 1033 01ba 43F00103 		orreq	r3, r3, #1
 1034 01be 3031     		adds	r1, r1, #48
 1035 01c0 9442     		cmp	r4, r2
 1036 01c2 08BF     		it	eq
 1037 01c4 43F00103 		orreq	r3, r3, #1
 1038 01c8 3D4A     		ldr	r2, .L109+32
 1039 01ca 8C42     		cmp	r4, r1
 1040 01cc 08BF     		it	eq
 1041 01ce 43F00103 		orreq	r3, r3, #1
 1042 01d2 3C49     		ldr	r1, .L109+36
 1043 01d4 9442     		cmp	r4, r2
 1044 01d6 08BF     		it	eq
 1045 01d8 43F00103 		orreq	r3, r3, #1
 1046 01dc 2832     		adds	r2, r2, #40
 1047 01de 8C42     		cmp	r4, r1
 1048 01e0 08BF     		it	eq
 1049 01e2 43F00103 		orreq	r3, r3, #1
 1050 01e6 2831     		adds	r1, r1, #40
 1051 01e8 9442     		cmp	r4, r2
 1052 01ea 08BF     		it	eq
 1053 01ec 43F00103 		orreq	r3, r3, #1
 1054 01f0 2832     		adds	r2, r2, #40
 1055 01f2 8C42     		cmp	r4, r1
 1056 01f4 08BF     		it	eq
 1057 01f6 43F00103 		orreq	r3, r3, #1
 1058 01fa 2831     		adds	r1, r1, #40
 1059 01fc 9442     		cmp	r4, r2
 1060 01fe 08BF     		it	eq
 1061 0200 43F00103 		orreq	r3, r3, #1
 1062 0204 2832     		adds	r2, r2, #40
 1063 0206 8C42     		cmp	r4, r1
 1064 0208 08BF     		it	eq
 1065 020a 43F00103 		orreq	r3, r3, #1
 1066 020e 9442     		cmp	r4, r2
 1067 0210 08BF     		it	eq
 1068 0212 43F00103 		orreq	r3, r3, #1
 1069 0216 13B9     		cbnz	r3, .L72
 1070 0218 2B4B     		ldr	r3, .L109+40
 1071 021a 9C42     		cmp	r4, r3
 1072 021c 17D1     		bne	.L73
 1073              	.LVL34:
 1074              	.L72:
 1075              		.loc 1 416 5 is_stmt 1 view .LVU255
 1076 021e 2846     		mov	r0, r5
 1077 0220 FFF7FEFF 		bl	DMA_CalcDMAMUXChannelBaseAndMask
 1078              	.LVL35:
 1079              		.loc 1 418 5 view .LVU256
 1080              		.loc 1 418 7 is_stmt 0 view .LVU257
 1081 0224 AB68     		ldr	r3, [r5, #8]
 1082 0226 802B     		cmp	r3, #128
 1083 0228 5CD0     		beq	.L106
ARM GAS  C:\Users\DEVELO~1\AppData\Local\Temp\ccHliN1u.s 			page 20


 1084              	.LVL36:
 1085              		.loc 1 425 5 is_stmt 1 view .LVU258
 1086              		.loc 1 425 43 is_stmt 0 view .LVU259
 1087 022a 6B68     		ldr	r3, [r5, #4]
 1088              		.loc 1 425 9 view .LVU260
 1089 022c 2A6E     		ldr	r2, [r5, #96]
 1090              		.loc 1 425 52 view .LVU261
 1091 022e D9B2     		uxtb	r1, r3
 1092              		.loc 1 433 55 view .LVU262
 1093 0230 013B     		subs	r3, r3, #1
 1094              		.loc 1 425 30 view .LVU263
 1095 0232 1160     		str	r1, [r2]
 1096              		.loc 1 428 5 is_stmt 1 view .LVU264
 1097              		.loc 1 433 7 is_stmt 0 view .LVU265
 1098 0234 072B     		cmp	r3, #7
 1099              		.loc 1 428 42 view .LVU266
 1100 0236 D5E91921 		ldrd	r2, r1, [r5, #100]
 1101              		.loc 1 428 36 view .LVU267
 1102 023a 5160     		str	r1, [r2, #4]
 1103              		.loc 1 433 5 is_stmt 1 view .LVU268
 1104              		.loc 1 433 7 is_stmt 0 view .LVU269
 1105 023c 59D8     		bhi	.L76
 1106              		.loc 1 437 7 is_stmt 1 view .LVU270
 1107 023e FFF7FEFF 		bl	DMA_CalcDMAMUXRequestGenBaseAndMask
 1108              	.LVL37:
 1109              		.loc 1 440 7 view .LVU271
 1110              		.loc 1 440 11 is_stmt 0 view .LVU272
 1111 0242 E96E     		ldr	r1, [r5, #108]
 1112              		.loc 1 440 36 view .LVU273
 1113 0244 0020     		movs	r0, #0
 1114              	.LVL38:
 1115              		.loc 1 443 49 view .LVU274
 1116 0246 D5E91C32 		ldrd	r3, r2, [r5, #112]
 1117              		.loc 1 440 36 view .LVU275
 1118 024a 0860     		str	r0, [r1]
 1119              		.loc 1 443 7 is_stmt 1 view .LVU276
 1120              		.loc 1 443 43 is_stmt 0 view .LVU277
 1121 024c 5A60     		str	r2, [r3, #4]
 1122              	.L73:
 1123              		.loc 1 454 3 is_stmt 1 view .LVU278
 1124              		.loc 1 454 19 is_stmt 0 view .LVU279
 1125 024e 0020     		movs	r0, #0
 1126              		.loc 1 457 15 view .LVU280
 1127 0250 0123     		movs	r3, #1
 1128              		.loc 1 454 19 view .LVU281
 1129 0252 6865     		str	r0, [r5, #84]
 1130              		.loc 1 457 3 is_stmt 1 view .LVU282
 1131              		.loc 1 457 15 is_stmt 0 view .LVU283
 1132 0254 85F83530 		strb	r3, [r5, #53]
 1133              		.loc 1 459 3 is_stmt 1 view .LVU284
 1134              		.loc 1 460 1 is_stmt 0 view .LVU285
 1135 0258 F8BD     		pop	{r3, r4, r5, r6, r7, pc}
 1136              	.LVL39:
 1137              	.L79:
 1138              		.loc 1 305 7 is_stmt 1 view .LVU286
 1139              		.loc 1 305 10 is_stmt 0 view .LVU287
 1140 025a 6868     		ldr	r0, [r5, #4]
ARM GAS  C:\Users\DEVELO~1\AppData\Local\Temp\ccHliN1u.s 			page 21


 1141 025c A0F12906 		sub	r6, r0, #41
 1142 0260 1F2E     		cmp	r6, #31
 1143 0262 3AD9     		bls	.L61
 1144 0264 4F38     		subs	r0, r0, #79
 1145 0266 0328     		cmp	r0, #3
 1146 0268 01D8     		bhi	.L63
 1147              	.L62:
 1148              		.loc 1 307 9 is_stmt 1 view .LVU288
 1149              		.loc 1 307 23 is_stmt 0 view .LVU289
 1150 026a 43F48013 		orr	r3, r3, #1048576
 1151              	.LVL40:
 1152              	.L63:
 1153              		.loc 1 314 5 is_stmt 1 view .LVU290
 1154              		.loc 1 314 50 is_stmt 0 view .LVU291
 1155 026e 2360     		str	r3, [r4]
 1156              		.loc 1 317 5 is_stmt 1 view .LVU292
 1157              		.loc 1 326 7 is_stmt 0 view .LVU293
 1158 0270 0429     		cmp	r1, #4
 1159              		.loc 1 317 19 view .LVU294
 1160 0272 6369     		ldr	r3, [r4, #20]
 1161              	.LVL41:
 1162              		.loc 1 320 5 is_stmt 1 view .LVU295
 1163              		.loc 1 320 19 is_stmt 0 view .LVU296
 1164 0274 23F00703 		bic	r3, r3, #7
 1165              	.LVL42:
 1166              		.loc 1 323 5 is_stmt 1 view .LVU297
 1167              		.loc 1 323 19 is_stmt 0 view .LVU298
 1168 0278 43EA0103 		orr	r3, r3, r1
 1169              	.LVL43:
 1170              		.loc 1 326 5 is_stmt 1 view .LVU299
 1171              		.loc 1 326 7 is_stmt 0 view .LVU300
 1172 027c 7FF44CAF 		bne	.L64
 1173 0280 E86A     		ldr	r0, [r5, #44]
 1174              	.L78:
 1175              		.loc 1 329 7 is_stmt 1 view .LVU301
 1176              		.loc 1 329 34 is_stmt 0 view .LVU302
 1177 0282 A96A     		ldr	r1, [r5, #40]
 1178              		.loc 1 329 21 view .LVU303
 1179 0284 0B43     		orrs	r3, r3, r1
 1180              	.LVL44:
 1181              		.loc 1 333 7 is_stmt 1 view .LVU304
 1182              		.loc 1 333 9 is_stmt 0 view .LVU305
 1183 0286 0028     		cmp	r0, #0
 1184 0288 3FF446AF 		beq	.L64
 1185              		.loc 1 335 9 is_stmt 1 view .LVU306
 1186              	.LVL45:
 1187              	.LBB5:
 1188              	.LBI5:
 1189              		.loc 1 1896 26 view .LVU307
 1190              	.LBB6:
 1191              		.loc 1 1898 3 view .LVU308
 1192              		.loc 1 1901 3 view .LVU309
 1193              		.loc 1 1901 6 is_stmt 0 view .LVU310
 1194 028c 002A     		cmp	r2, #0
 1195 028e 48D1     		bne	.L65
 1196              		.loc 1 1903 5 is_stmt 1 view .LVU311
 1197 0290 0129     		cmp	r1, #1
ARM GAS  C:\Users\DEVELO~1\AppData\Local\Temp\ccHliN1u.s 			page 22


 1198 0292 67D0     		beq	.L69
 1199 0294 31F00202 		bics	r2, r1, #2
 1200 0298 7FF43EAF 		bne	.L64
 1201 029c 49E0     		b	.L101
 1202              	.L110:
 1203 029e 00BF     		.align	2
 1204              	.L109:
 1205 02a0 10000240 		.word	1073872912
 1206 02a4 58000240 		.word	1073872984
 1207 02a8 B8040240 		.word	1073874104
 1208 02ac 3F8010FE 		.word	-32473025
 1209 02b0 0010005C 		.word	1543507968
 1210 02b4 0000FFFF 		.word	-65536
 1211 02b8 28000240 		.word	1073872936
 1212 02bc 40000240 		.word	1073872960
 1213 02c0 08540258 		.word	1476547592
 1214 02c4 1C540258 		.word	1476547612
 1215 02c8 94540258 		.word	1476547732
 1216              	.LVL46:
 1217              	.L104:
 1218              		.loc 1 1903 5 is_stmt 0 view .LVU312
 1219              	.LBE6:
 1220              	.LBE5:
 1221              		.loc 1 268 9 is_stmt 1 view .LVU313
 1222              		.loc 1 268 25 is_stmt 0 view .LVU314
 1223 02cc 2022     		movs	r2, #32
 1224              		.loc 1 271 21 view .LVU315
 1225 02ce 0323     		movs	r3, #3
 1226              		.loc 1 273 16 view .LVU316
 1227 02d0 0120     		movs	r0, #1
 1228              		.loc 1 268 25 view .LVU317
 1229 02d2 6A65     		str	r2, [r5, #84]
 1230              		.loc 1 271 9 is_stmt 1 view .LVU318
 1231              		.loc 1 271 21 is_stmt 0 view .LVU319
 1232 02d4 85F83530 		strb	r3, [r5, #53]
 1233              		.loc 1 273 9 is_stmt 1 view .LVU320
 1234              		.loc 1 460 1 is_stmt 0 view .LVU321
 1235 02d8 F8BD     		pop	{r3, r4, r5, r6, r7, pc}
 1236              	.LVL47:
 1237              	.L61:
 1238              		.loc 1 305 10 view .LVU322
 1239 02da 5848     		ldr	r0, .L111
 1240 02dc F040     		lsrs	r0, r0, r6
 1241 02de C007     		lsls	r0, r0, #31
 1242 02e0 C5D5     		bpl	.L63
 1243 02e2 C2E7     		b	.L62
 1244              	.LVL48:
 1245              	.L106:
 1246              		.loc 1 421 7 is_stmt 1 view .LVU323
 1247              		.loc 1 421 26 is_stmt 0 view .LVU324
 1248 02e4 0023     		movs	r3, #0
 1249              		.loc 1 428 42 view .LVU325
 1250 02e6 A96E     		ldr	r1, [r5, #104]
 1251              		.loc 1 428 9 view .LVU326
 1252 02e8 D5E91802 		ldrd	r0, r2, [r5, #96]
 1253              	.LVL49:
 1254              		.loc 1 421 26 view .LVU327
ARM GAS  C:\Users\DEVELO~1\AppData\Local\Temp\ccHliN1u.s 			page 23


 1255 02ec 6B60     		str	r3, [r5, #4]
 1256              		.loc 1 425 5 is_stmt 1 view .LVU328
 1257              		.loc 1 425 30 is_stmt 0 view .LVU329
 1258 02ee 0360     		str	r3, [r0]
 1259              		.loc 1 428 5 is_stmt 1 view .LVU330
 1260              		.loc 1 428 36 is_stmt 0 view .LVU331
 1261 02f0 5160     		str	r1, [r2, #4]
 1262              		.loc 1 433 5 is_stmt 1 view .LVU332
 1263              	.L76:
 1264              		.loc 1 447 7 view .LVU333
 1265              		.loc 1 447 30 is_stmt 0 view .LVU334
 1266 02f2 0023     		movs	r3, #0
 1267              		.loc 1 448 36 view .LVU335
 1268 02f4 C5E91B33 		strd	r3, r3, [r5, #108]
 1269              		.loc 1 449 7 is_stmt 1 view .LVU336
 1270              		.loc 1 449 40 is_stmt 0 view .LVU337
 1271 02f8 6B67     		str	r3, [r5, #116]
 1272 02fa A8E7     		b	.L73
 1273              	.LVL50:
 1274              	.L81:
 1275              		.loc 1 226 12 view .LVU338
 1276 02fc 0120     		movs	r0, #1
 1277              	.LVL51:
 1278              		.loc 1 460 1 view .LVU339
 1279 02fe F8BD     		pop	{r3, r4, r5, r6, r7, pc}
 1280              	.LVL52:
 1281              	.L105:
 1282              		.loc 1 296 7 is_stmt 1 view .LVU340
 1283              		.loc 1 302 15 is_stmt 0 view .LVU341
 1284 0300 0768     		ldr	r7, [r0]
 1285              		.loc 1 296 45 view .LVU342
 1286 0302 D5E90B06 		ldrd	r0, r6, [r5, #44]
 1287              	.LVL53:
 1288              		.loc 1 296 45 view .LVU343
 1289 0306 0643     		orrs	r6, r6, r0
 1290              		.loc 1 296 21 view .LVU344
 1291 0308 3343     		orrs	r3, r3, r6
 1292              	.LVL54:
 1293              		.loc 1 302 5 is_stmt 1 view .LVU345
 1294              		.loc 1 302 24 is_stmt 0 view .LVU346
 1295 030a 4D4E     		ldr	r6, .L111+4
 1296 030c 3E40     		ands	r6, r6, r7
 1297              		.loc 1 302 7 view .LVU347
 1298 030e B6F1005F 		cmp	r6, #536870912
 1299 0312 A2D2     		bcs	.L79
 1300              		.loc 1 314 5 is_stmt 1 view .LVU348
 1301              		.loc 1 314 50 is_stmt 0 view .LVU349
 1302 0314 2360     		str	r3, [r4]
 1303              		.loc 1 317 5 is_stmt 1 view .LVU350
 1304              		.loc 1 317 19 is_stmt 0 view .LVU351
 1305 0316 6369     		ldr	r3, [r4, #20]
 1306              	.LVL55:
 1307              		.loc 1 320 5 is_stmt 1 view .LVU352
 1308              		.loc 1 320 19 is_stmt 0 view .LVU353
 1309 0318 23F00703 		bic	r3, r3, #7
 1310              	.LVL56:
 1311              		.loc 1 323 5 is_stmt 1 view .LVU354
ARM GAS  C:\Users\DEVELO~1\AppData\Local\Temp\ccHliN1u.s 			page 24


 1312              		.loc 1 323 19 is_stmt 0 view .LVU355
 1313 031c 43F00403 		orr	r3, r3, #4
 1314              	.LVL57:
 1315              		.loc 1 326 5 is_stmt 1 view .LVU356
 1316 0320 AFE7     		b	.L78
 1317              	.LVL58:
 1318              	.L65:
 1319              	.LBB9:
 1320              	.LBB7:
 1321              		.loc 1 1930 8 view .LVU357
 1322              		.loc 1 1930 11 is_stmt 0 view .LVU358
 1323 0322 B2F5005F 		cmp	r2, #8192
 1324 0326 0ED0     		beq	.L107
 1325              		.loc 1 1961 5 is_stmt 1 view .LVU359
 1326 0328 0229     		cmp	r1, #2
 1327 032a 05D9     		bls	.L67
 1328 032c 0329     		cmp	r1, #3
 1329 032e 7FF4F3AE 		bne	.L64
 1330              	.L101:
 1331              		.loc 1 1970 9 view .LVU360
 1332              		.loc 1 1970 12 is_stmt 0 view .LVU361
 1333 0332 C201     		lsls	r2, r0, #7
 1334 0334 7FF5F0AE 		bpl	.L64
 1335              	.L67:
 1336              	.LVL59:
 1337              		.loc 1 1970 12 view .LVU362
 1338              	.LBE7:
 1339              	.LBE9:
 1340              		.loc 1 338 11 is_stmt 1 view .LVU363
 1341              		.loc 1 341 23 is_stmt 0 view .LVU364
 1342 0338 0123     		movs	r3, #1
 1343              	.LVL60:
 1344              		.loc 1 338 27 view .LVU365
 1345 033a 4022     		movs	r2, #64
 1346              		.loc 1 343 18 view .LVU366
 1347 033c 1846     		mov	r0, r3
 1348              		.loc 1 338 27 view .LVU367
 1349 033e 6A65     		str	r2, [r5, #84]
 1350              		.loc 1 341 11 is_stmt 1 view .LVU368
 1351              		.loc 1 341 23 is_stmt 0 view .LVU369
 1352 0340 85F83530 		strb	r3, [r5, #53]
 1353              		.loc 1 343 11 is_stmt 1 view .LVU370
 1354              		.loc 1 460 1 is_stmt 0 view .LVU371
 1355 0344 F8BD     		pop	{r3, r4, r5, r6, r7, pc}
 1356              	.LVL61:
 1357              	.L107:
 1358              	.LBB10:
 1359              	.LBB8:
 1360              		.loc 1 1932 5 is_stmt 1 view .LVU372
 1361 0346 0329     		cmp	r1, #3
 1362 0348 3FF6E6AE 		bhi	.L64
 1363 034c 01A2     		adr	r2, .L70
 1364 034e 52F821F0 		ldr	pc, [r2, r1, lsl #2]
 1365 0352 00BF     		.p2align 2
 1366              	.L70:
 1367 0354 39030000 		.word	.L67+1
 1368 0358 33030000 		.word	.L101+1
ARM GAS  C:\Users\DEVELO~1\AppData\Local\Temp\ccHliN1u.s 			page 25


 1369 035c 39030000 		.word	.L67+1
 1370 0360 65030000 		.word	.L69+1
 1371              		.p2align 1
 1372              	.L69:
 1373              		.loc 1 1947 9 view .LVU373
 1374              		.loc 1 1947 12 is_stmt 0 view .LVU374
 1375 0364 B0F1C07F 		cmp	r0, #25165824
 1376 0368 7FF4D6AE 		bne	.L64
 1377 036c E4E7     		b	.L67
 1378              	.LVL62:
 1379              	.L103:
 1380              		.loc 1 1947 12 view .LVU375
 1381              	.LBE8:
 1382              	.LBE10:
 1383              		.loc 1 358 8 is_stmt 1 view .LVU376
 1384              		.loc 1 358 11 is_stmt 0 view .LVU377
 1385 036e 354B     		ldr	r3, .L111+8
 1386 0370 3549     		ldr	r1, .L111+12
 1387 0372 364A     		ldr	r2, .L111+16
 1388 0374 8C42     		cmp	r4, r1
 1389 0376 18BF     		it	ne
 1390 0378 9C42     		cmpne	r4, r3
 1391 037a 01F12801 		add	r1, r1, #40
 1392 037e 0CBF     		ite	eq
 1393 0380 0123     		moveq	r3, #1
 1394 0382 0023     		movne	r3, #0
 1395 0384 9442     		cmp	r4, r2
 1396 0386 08BF     		it	eq
 1397 0388 43F00103 		orreq	r3, r3, #1
 1398 038c 2832     		adds	r2, r2, #40
 1399 038e 8C42     		cmp	r4, r1
 1400 0390 08BF     		it	eq
 1401 0392 43F00103 		orreq	r3, r3, #1
 1402 0396 2831     		adds	r1, r1, #40
 1403 0398 9442     		cmp	r4, r2
 1404 039a 08BF     		it	eq
 1405 039c 43F00103 		orreq	r3, r3, #1
 1406 03a0 2832     		adds	r2, r2, #40
 1407 03a2 8C42     		cmp	r4, r1
 1408 03a4 08BF     		it	eq
 1409 03a6 43F00103 		orreq	r3, r3, #1
 1410 03aa 9442     		cmp	r4, r2
 1411 03ac 08BF     		it	eq
 1412 03ae 43F00103 		orreq	r3, r3, #1
 1413 03b2 13B9     		cbnz	r3, .L54
 1414 03b4 264B     		ldr	r3, .L111+20
 1415 03b6 9C42     		cmp	r4, r3
 1416 03b8 39D1     		bne	.L108
 1417              	.L54:
 1418              		.loc 1 360 5 is_stmt 1 view .LVU378
 1419              		.loc 1 363 7 view .LVU379
 1420              		.loc 1 367 5 view .LVU380
 1421              		.loc 1 370 5 is_stmt 0 view .LVU381
 1422 03ba 0023     		movs	r3, #0
 1423              		.loc 1 367 17 view .LVU382
 1424 03bc 0222     		movs	r2, #2
 1425              		.loc 1 376 19 view .LVU383
ARM GAS  C:\Users\DEVELO~1\AppData\Local\Temp\ccHliN1u.s 			page 26


 1426 03be 2548     		ldr	r0, .L111+24
 1427              	.LVL63:
 1428              		.loc 1 367 17 view .LVU384
 1429 03c0 85F83520 		strb	r2, [r5, #53]
 1430              		.loc 1 370 5 is_stmt 1 view .LVU385
 1431              		.loc 1 370 5 view .LVU386
 1432 03c4 85F83430 		strb	r3, [r5, #52]
 1433              		.loc 1 370 5 view .LVU387
 1434              		.loc 1 373 5 view .LVU388
 1435              		.loc 1 373 19 is_stmt 0 view .LVU389
 1436 03c8 2368     		ldr	r3, [r4]
 1437              	.LVL64:
 1438              		.loc 1 376 5 is_stmt 1 view .LVU390
 1439              		.loc 1 376 19 is_stmt 0 view .LVU391
 1440 03ca 1840     		ands	r0, r0, r3
 1441              	.LVL65:
 1442              		.loc 1 382 5 is_stmt 1 view .LVU392
 1443              		.loc 1 382 23 is_stmt 0 view .LVU393
 1444 03cc AB68     		ldr	r3, [r5, #8]
 1445 03ce 402B     		cmp	r3, #64
 1446 03d0 2BD0     		beq	.L82
 1447              		.loc 1 382 23 discriminator 1 view .LVU394
 1448 03d2 A3F18003 		sub	r3, #128
 1449 03d6 B3FA83F3 		clz	r3, r3
 1450 03da 5B09     		lsrs	r3, r3, #5
 1451 03dc 9903     		lsls	r1, r3, #14
 1452              	.L74:
 1453              		.loc 1 388 23 view .LVU395
 1454 03de 2E6A     		ldr	r6, [r5, #32]
 1455              	.LVL66:
 1456              		.loc 1 384 23 view .LVU396
 1457 03e0 D5E90323 		ldrd	r2, r3, [r5, #12]
 1458 03e4 DB08     		lsrs	r3, r3, #3
 1459 03e6 43EAD203 		orr	r3, r3, r2, lsr #3
 1460              		.loc 1 385 23 view .LVU397
 1461 03ea 6A69     		ldr	r2, [r5, #20]
 1462 03ec 43EAD203 		orr	r3, r3, r2, lsr #3
 1463              		.loc 1 386 23 view .LVU398
 1464 03f0 AA69     		ldr	r2, [r5, #24]
 1465 03f2 43EAD203 		orr	r3, r3, r2, lsr #3
 1466              		.loc 1 387 23 view .LVU399
 1467 03f6 EA69     		ldr	r2, [r5, #28]
 1468 03f8 43EAD203 		orr	r3, r3, r2, lsr #3
 1469              		.loc 1 394 65 view .LVU400
 1470 03fc 164A     		ldr	r2, .L111+28
 1471 03fe 43EA1613 		orr	r3, r3, r6, lsr #4
 1472 0402 2244     		add	r2, r2, r4
 1473 0404 0343     		orrs	r3, r3, r0
 1474              		.loc 1 398 40 view .LVU401
 1475 0406 2846     		mov	r0, r5
 1476              	.LVL67:
 1477              		.loc 1 382 19 view .LVU402
 1478 0408 1943     		orrs	r1, r1, r3
 1479              	.LVL68:
 1480              		.loc 1 391 5 is_stmt 1 view .LVU403
 1481              		.loc 1 394 92 is_stmt 0 view .LVU404
 1482 040a 144B     		ldr	r3, .L111+32
ARM GAS  C:\Users\DEVELO~1\AppData\Local\Temp\ccHliN1u.s 			page 27


 1483 040c A3FB0223 		umull	r2, r3, r3, r2
 1484              		.loc 1 391 51 view .LVU405
 1485 0410 2160     		str	r1, [r4]
 1486              		.loc 1 394 5 is_stmt 1 view .LVU406
 1487              		.loc 1 394 92 is_stmt 0 view .LVU407
 1488 0412 1B09     		lsrs	r3, r3, #4
 1489              		.loc 1 394 147 view .LVU408
 1490 0414 9B00     		lsls	r3, r3, #2
 1491              		.loc 1 394 23 view .LVU409
 1492 0416 EB65     		str	r3, [r5, #92]
 1493              		.loc 1 398 5 is_stmt 1 view .LVU410
 1494              		.loc 1 398 40 is_stmt 0 view .LVU411
 1495 0418 FFF7FEFF 		bl	DMA_CalcBaseAndBitshift
 1496              	.LVL69:
 1497              		.loc 1 401 64 view .LVU412
 1498 041c E96D     		ldr	r1, [r5, #92]
 1499              		.loc 1 401 42 view .LVU413
 1500 041e 0122     		movs	r2, #1
 1501              	.LVL70:
 1502              		.loc 1 401 5 is_stmt 1 view .LVU414
 1503              		.loc 1 401 64 is_stmt 0 view .LVU415
 1504 0420 01F01F01 		and	r1, r1, #31
 1505              		.loc 1 401 42 view .LVU416
 1506 0424 8A40     		lsls	r2, r2, r1
 1507              		.loc 1 401 21 view .LVU417
 1508 0426 4260     		str	r2, [r0, #4]
 1509              		.loc 1 411 3 is_stmt 1 view .LVU418
 1510 0428 F9E6     		b	.L72
 1511              	.LVL71:
 1512              	.L82:
 1513              		.loc 1 382 23 is_stmt 0 view .LVU419
 1514 042a 1021     		movs	r1, #16
 1515 042c D7E7     		b	.L74
 1516              	.LVL72:
 1517              	.L108:
 1518              		.loc 1 405 5 is_stmt 1 view .LVU420
 1519              		.loc 1 405 21 is_stmt 0 view .LVU421
 1520 042e 4022     		movs	r2, #64
 1521              		.loc 1 406 21 view .LVU422
 1522 0430 0323     		movs	r3, #3
 1523              		.loc 1 408 12 view .LVU423
 1524 0432 0120     		movs	r0, #1
 1525              	.LVL73:
 1526              		.loc 1 405 21 view .LVU424
 1527 0434 6A65     		str	r2, [r5, #84]
 1528              		.loc 1 406 5 is_stmt 1 view .LVU425
 1529              		.loc 1 406 21 is_stmt 0 view .LVU426
 1530 0436 85F83530 		strb	r3, [r5, #53]
 1531              		.loc 1 408 5 is_stmt 1 view .LVU427
 1532              		.loc 1 460 1 is_stmt 0 view .LVU428
 1533 043a F8BD     		pop	{r3, r4, r5, r6, r7, pc}
 1534              	.LVL74:
 1535              	.L112:
 1536              		.loc 1 460 1 view .LVU429
 1537              		.align	2
 1538              	.L111:
 1539 043c 3F00C0C3 		.word	-1010827201
ARM GAS  C:\Users\DEVELO~1\AppData\Local\Temp\ccHliN1u.s 			page 28


 1540 0440 0000FFFF 		.word	-65536
 1541 0444 08540258 		.word	1476547592
 1542 0448 1C540258 		.word	1476547612
 1543 044c 30540258 		.word	1476547632
 1544 0450 94540258 		.word	1476547732
 1545 0454 0F00FEFF 		.word	-131057
 1546 0458 F8ABFDA7 		.word	-1476547592
 1547 045c CDCCCCCC 		.word	-858993459
 1548              		.cfi_endproc
 1549              	.LFE141:
 1550              		.size	HAL_DMA_Init, .-HAL_DMA_Init
 1551              		.section	.text.HAL_DMA_DeInit,"ax",%progbits
 1552              		.align	1
 1553              		.p2align 4,,15
 1554              		.global	HAL_DMA_DeInit
 1555              		.syntax unified
 1556              		.thumb
 1557              		.thumb_func
 1558              		.type	HAL_DMA_DeInit, %function
 1559              	HAL_DMA_DeInit:
 1560              	.LVL75:
 1561              	.LFB142:
 1562              		.loc 1 469 1 is_stmt 1 view -0
 1563              		.cfi_startproc
 1564              		@ args = 0, pretend = 0, frame = 0
 1565              		@ frame_needed = 0, uses_anonymous_args = 0
 1566              		.loc 1 470 3 view .LVU431
 1567              		.loc 1 471 3 view .LVU432
 1568              		.loc 1 474 3 view .LVU433
 1569              		.loc 1 474 5 is_stmt 0 view .LVU434
 1570 0000 0028     		cmp	r0, #0
 1571 0002 00F0CB80 		beq	.L134
 1572              		.loc 1 480 3 is_stmt 1 view .LVU435
 1573 0006 0268     		ldr	r2, [r0]
 1574 0008 6549     		ldr	r1, .L136
 1575              		.loc 1 469 1 is_stmt 0 view .LVU436
 1576 000a 38B5     		push	{r3, r4, r5, lr}
 1577              		.cfi_def_cfa_offset 16
 1578              		.cfi_offset 3, -16
 1579              		.cfi_offset 4, -12
 1580              		.cfi_offset 5, -8
 1581              		.cfi_offset 14, -4
 1582              		.loc 1 480 3 view .LVU437
 1583 000c 654B     		ldr	r3, .L136+4
 1584 000e 0446     		mov	r4, r0
 1585 0010 6548     		ldr	r0, .L136+8
 1586              	.LVL76:
 1587              		.loc 1 480 3 view .LVU438
 1588 0012 8242     		cmp	r2, r0
 1589 0014 18BF     		it	ne
 1590 0016 9A42     		cmpne	r2, r3
 1591 0018 00F14800 		add	r0, r0, #72
 1592 001c 0CBF     		ite	eq
 1593 001e 0123     		moveq	r3, #1
 1594 0020 0023     		movne	r3, #0
 1595 0022 8A42     		cmp	r2, r1
 1596 0024 08BF     		it	eq
ARM GAS  C:\Users\DEVELO~1\AppData\Local\Temp\ccHliN1u.s 			page 29


 1597 0026 43F00103 		orreq	r3, r3, #1
 1598 002a 3031     		adds	r1, r1, #48
 1599 002c 8242     		cmp	r2, r0
 1600 002e 08BF     		it	eq
 1601 0030 43F00103 		orreq	r3, r3, #1
 1602 0034 3030     		adds	r0, r0, #48
 1603 0036 8A42     		cmp	r2, r1
 1604 0038 08BF     		it	eq
 1605 003a 43F00103 		orreq	r3, r3, #1
 1606 003e 01F55C71 		add	r1, r1, #880
 1607 0042 8242     		cmp	r2, r0
 1608 0044 08BF     		it	eq
 1609 0046 43F00103 		orreq	r3, r3, #1
 1610 004a 00F55C70 		add	r0, r0, #880
 1611 004e 8A42     		cmp	r2, r1
 1612 0050 08BF     		it	eq
 1613 0052 43F00103 		orreq	r3, r3, #1
 1614 0056 3031     		adds	r1, r1, #48
 1615 0058 8242     		cmp	r2, r0
 1616 005a 08BF     		it	eq
 1617 005c 43F00103 		orreq	r3, r3, #1
 1618 0060 3030     		adds	r0, r0, #48
 1619 0062 8A42     		cmp	r2, r1
 1620 0064 08BF     		it	eq
 1621 0066 43F00103 		orreq	r3, r3, #1
 1622 006a 3031     		adds	r1, r1, #48
 1623 006c 8242     		cmp	r2, r0
 1624 006e 08BF     		it	eq
 1625 0070 43F00103 		orreq	r3, r3, #1
 1626 0074 3030     		adds	r0, r0, #48
 1627 0076 8A42     		cmp	r2, r1
 1628 0078 08BF     		it	eq
 1629 007a 43F00103 		orreq	r3, r3, #1
 1630 007e 3031     		adds	r1, r1, #48
 1631 0080 8242     		cmp	r2, r0
 1632 0082 08BF     		it	eq
 1633 0084 43F00103 		orreq	r3, r3, #1
 1634 0088 8A42     		cmp	r2, r1
 1635 008a 08BF     		it	eq
 1636 008c 43F00103 		orreq	r3, r3, #1
 1637 0090 1831     		adds	r1, r1, #24
 1638 0092 8A42     		cmp	r2, r1
 1639 0094 08BF     		it	eq
 1640 0096 43F00103 		orreq	r3, r3, #1
 1641 009a 33B9     		cbnz	r3, .L123
 1642 009c A1F59561 		sub	r1, r1, #1192
 1643 00a0 424B     		ldr	r3, .L136+12
 1644 00a2 9A42     		cmp	r2, r3
 1645 00a4 18BF     		it	ne
 1646 00a6 8A42     		cmpne	r2, r1
 1647 00a8 3DD1     		bne	.L116
 1648              	.L123:
 1649              		.loc 1 480 3 discriminator 29 view .LVU439
 1650 00aa 1168     		ldr	r1, [r2]
 1651              		.loc 1 485 52 discriminator 29 view .LVU440
 1652 00ac 0023     		movs	r3, #0
 1653              		.loc 1 500 52 discriminator 29 view .LVU441
ARM GAS  C:\Users\DEVELO~1\AppData\Local\Temp\ccHliN1u.s 			page 30


 1654 00ae 2125     		movs	r5, #33
 1655              		.loc 1 503 38 discriminator 29 view .LVU442
 1656 00b0 2046     		mov	r0, r4
 1657              		.loc 1 480 3 discriminator 29 view .LVU443
 1658 00b2 21F00101 		bic	r1, r1, #1
 1659 00b6 1160     		str	r1, [r2]
 1660              		.loc 1 482 3 is_stmt 1 discriminator 29 view .LVU444
 1661              		.loc 1 485 5 discriminator 29 view .LVU445
 1662              		.loc 1 485 52 is_stmt 0 discriminator 29 view .LVU446
 1663 00b8 1360     		str	r3, [r2]
 1664              		.loc 1 488 5 is_stmt 1 discriminator 29 view .LVU447
 1665              		.loc 1 488 52 is_stmt 0 discriminator 29 view .LVU448
 1666 00ba 5360     		str	r3, [r2, #4]
 1667              		.loc 1 491 5 is_stmt 1 discriminator 29 view .LVU449
 1668              		.loc 1 491 52 is_stmt 0 discriminator 29 view .LVU450
 1669 00bc 9360     		str	r3, [r2, #8]
 1670              		.loc 1 494 5 is_stmt 1 discriminator 29 view .LVU451
 1671              		.loc 1 494 52 is_stmt 0 discriminator 29 view .LVU452
 1672 00be D360     		str	r3, [r2, #12]
 1673              		.loc 1 497 5 is_stmt 1 discriminator 29 view .LVU453
 1674              		.loc 1 497 52 is_stmt 0 discriminator 29 view .LVU454
 1675 00c0 1361     		str	r3, [r2, #16]
 1676              		.loc 1 500 5 is_stmt 1 discriminator 29 view .LVU455
 1677              		.loc 1 500 52 is_stmt 0 discriminator 29 view .LVU456
 1678 00c2 5561     		str	r5, [r2, #20]
 1679              		.loc 1 503 5 is_stmt 1 discriminator 29 view .LVU457
 1680              		.loc 1 503 38 is_stmt 0 discriminator 29 view .LVU458
 1681 00c4 FFF7FEFF 		bl	DMA_CalcBaseAndBitshift
 1682              	.LVL77:
 1683              		.loc 1 506 51 discriminator 29 view .LVU459
 1684 00c8 E26D     		ldr	r2, [r4, #92]
 1685              		.loc 1 506 29 discriminator 29 view .LVU460
 1686 00ca 3F23     		movs	r3, #63
 1687              	.LVL78:
 1688              		.loc 1 506 5 is_stmt 1 discriminator 29 view .LVU461
 1689              		.loc 1 506 51 is_stmt 0 discriminator 29 view .LVU462
 1690 00cc 02F01F02 		and	r2, r2, #31
 1691              		.loc 1 506 29 discriminator 29 view .LVU463
 1692 00d0 9340     		lsls	r3, r3, r2
 1693              		.loc 1 506 20 discriminator 29 view .LVU464
 1694 00d2 8360     		str	r3, [r0, #8]
 1695              	.LVL79:
 1696              	.L118:
 1697              		.loc 1 543 5 is_stmt 1 view .LVU465
 1698 00d4 2046     		mov	r0, r4
 1699 00d6 FFF7FEFF 		bl	DMA_CalcDMAMUXChannelBaseAndMask
 1700              	.LVL80:
 1701              		.loc 1 545 5 view .LVU466
 1702              		.loc 1 545 12 is_stmt 0 view .LVU467
 1703 00da 236E     		ldr	r3, [r4, #96]
 1704              		.loc 1 545 7 view .LVU468
 1705 00dc 23B1     		cbz	r3, .L121
 1706              	.LVL81:
 1707              		.loc 1 548 7 is_stmt 1 view .LVU469
 1708              		.loc 1 548 32 is_stmt 0 view .LVU470
 1709 00de 0020     		movs	r0, #0
 1710              	.LVL82:
ARM GAS  C:\Users\DEVELO~1\AppData\Local\Temp\ccHliN1u.s 			page 31


 1711              		.loc 1 551 44 view .LVU471
 1712 00e0 D4E91921 		ldrd	r2, r1, [r4, #100]
 1713              		.loc 1 548 32 view .LVU472
 1714 00e4 1860     		str	r0, [r3]
 1715              		.loc 1 551 7 is_stmt 1 view .LVU473
 1716              		.loc 1 551 38 is_stmt 0 view .LVU474
 1717 00e6 5160     		str	r1, [r2, #4]
 1718              	.L121:
 1719              		.loc 1 554 5 is_stmt 1 view .LVU475
 1720              		.loc 1 554 55 is_stmt 0 view .LVU476
 1721 00e8 6368     		ldr	r3, [r4, #4]
 1722 00ea 013B     		subs	r3, r3, #1
 1723              		.loc 1 554 7 view .LVU477
 1724 00ec 072B     		cmp	r3, #7
 1725 00ee 10D9     		bls	.L135
 1726              	.L122:
 1727              		.loc 1 567 5 is_stmt 1 view .LVU478
 1728              		.loc 1 567 28 is_stmt 0 view .LVU479
 1729 00f0 0023     		movs	r3, #0
 1730              		.loc 1 582 19 view .LVU480
 1731 00f2 6365     		str	r3, [r4, #84]
 1732              		.loc 1 590 10 view .LVU481
 1733 00f4 1846     		mov	r0, r3
 1734              		.loc 1 569 38 view .LVU482
 1735 00f6 6367     		str	r3, [r4, #116]
 1736              		.loc 1 585 15 view .LVU483
 1737 00f8 84F83530 		strb	r3, [r4, #53]
 1738              		.loc 1 588 3 view .LVU484
 1739 00fc 84F83430 		strb	r3, [r4, #52]
 1740              		.loc 1 568 34 view .LVU485
 1741 0100 C4E91B33 		strd	r3, r3, [r4, #108]
 1742              		.loc 1 569 5 is_stmt 1 view .LVU486
 1743              		.loc 1 574 3 view .LVU487
 1744              		.loc 1 575 32 is_stmt 0 view .LVU488
 1745 0104 C4E90F33 		strd	r3, r3, [r4, #60]
 1746              		.loc 1 576 3 is_stmt 1 view .LVU489
 1747              		.loc 1 577 32 is_stmt 0 view .LVU490
 1748 0108 C4E91133 		strd	r3, r3, [r4, #68]
 1749              		.loc 1 578 3 is_stmt 1 view .LVU491
 1750              		.loc 1 579 32 is_stmt 0 view .LVU492
 1751 010c C4E91333 		strd	r3, r3, [r4, #76]
 1752              		.loc 1 582 3 is_stmt 1 view .LVU493
 1753              		.loc 1 585 3 view .LVU494
 1754              		.loc 1 588 3 view .LVU495
 1755              		.loc 1 588 3 view .LVU496
 1756              		.loc 1 588 3 view .LVU497
 1757              		.loc 1 590 3 view .LVU498
 1758              		.loc 1 591 1 is_stmt 0 view .LVU499
 1759 0110 38BD     		pop	{r3, r4, r5, pc}
 1760              	.LVL83:
 1761              	.L135:
 1762              		.loc 1 558 7 is_stmt 1 view .LVU500
 1763 0112 2046     		mov	r0, r4
 1764 0114 FFF7FEFF 		bl	DMA_CalcDMAMUXRequestGenBaseAndMask
 1765              	.LVL84:
 1766              		.loc 1 561 7 view .LVU501
 1767              		.loc 1 561 11 is_stmt 0 view .LVU502
ARM GAS  C:\Users\DEVELO~1\AppData\Local\Temp\ccHliN1u.s 			page 32


 1768 0118 E16E     		ldr	r1, [r4, #108]
 1769              		.loc 1 561 36 view .LVU503
 1770 011a 0020     		movs	r0, #0
 1771              		.loc 1 564 49 view .LVU504
 1772 011c D4E91C32 		ldrd	r3, r2, [r4, #112]
 1773              		.loc 1 561 36 view .LVU505
 1774 0120 0860     		str	r0, [r1]
 1775              		.loc 1 564 7 is_stmt 1 view .LVU506
 1776              		.loc 1 564 43 is_stmt 0 view .LVU507
 1777 0122 5A60     		str	r2, [r3, #4]
 1778 0124 E4E7     		b	.L122
 1779              	.L116:
 1780              		.loc 1 508 11 discriminator 30 view .LVU508
 1781 0126 224B     		ldr	r3, .L136+16
 1782 0128 224D     		ldr	r5, .L136+20
 1783 012a 2348     		ldr	r0, .L136+24
 1784 012c AA42     		cmp	r2, r5
 1785 012e 18BF     		it	ne
 1786 0130 9A42     		cmpne	r2, r3
 1787              		.loc 1 480 3 discriminator 30 view .LVU509
 1788 0132 1168     		ldr	r1, [r2]
 1789              		.loc 1 508 11 discriminator 30 view .LVU510
 1790 0134 0CBF     		ite	eq
 1791 0136 0123     		moveq	r3, #1
 1792 0138 0023     		movne	r3, #0
 1793              		.loc 1 480 3 discriminator 30 view .LVU511
 1794 013a 21F00101 		bic	r1, r1, #1
 1795              		.loc 1 508 11 discriminator 30 view .LVU512
 1796 013e 8242     		cmp	r2, r0
 1797 0140 08BF     		it	eq
 1798 0142 43F00103 		orreq	r3, r3, #1
 1799 0146 1430     		adds	r0, r0, #20
 1800              		.loc 1 480 3 discriminator 30 view .LVU513
 1801 0148 1160     		str	r1, [r2]
 1802              		.loc 1 482 3 is_stmt 1 discriminator 30 view .LVU514
 1803              		.loc 1 508 8 discriminator 30 view .LVU515
 1804              		.loc 1 508 11 is_stmt 0 discriminator 30 view .LVU516
 1805 014a 8242     		cmp	r2, r0
 1806 014c 08BF     		it	eq
 1807 014e 43F00103 		orreq	r3, r3, #1
 1808 0152 1A49     		ldr	r1, .L136+28
 1809 0154 2830     		adds	r0, r0, #40
 1810 0156 8A42     		cmp	r2, r1
 1811 0158 08BF     		it	eq
 1812 015a 43F00103 		orreq	r3, r3, #1
 1813 015e 2831     		adds	r1, r1, #40
 1814 0160 8242     		cmp	r2, r0
 1815 0162 08BF     		it	eq
 1816 0164 43F00103 		orreq	r3, r3, #1
 1817 0168 8A42     		cmp	r2, r1
 1818 016a 08BF     		it	eq
 1819 016c 43F00103 		orreq	r3, r3, #1
 1820 0170 13B9     		cbnz	r3, .L124
 1821 0172 134B     		ldr	r3, .L136+32
 1822 0174 9A42     		cmp	r2, r3
 1823 0176 0FD1     		bne	.L119
 1824              	.L124:
ARM GAS  C:\Users\DEVELO~1\AppData\Local\Temp\ccHliN1u.s 			page 33


 1825              		.loc 1 511 5 is_stmt 1 view .LVU517
 1826              		.loc 1 511 52 is_stmt 0 view .LVU518
 1827 0178 0023     		movs	r3, #0
 1828              		.loc 1 526 40 view .LVU519
 1829 017a 2046     		mov	r0, r4
 1830              		.loc 1 511 52 view .LVU520
 1831 017c 1360     		str	r3, [r2]
 1832              		.loc 1 514 5 is_stmt 1 view .LVU521
 1833              		.loc 1 514 53 is_stmt 0 view .LVU522
 1834 017e 5360     		str	r3, [r2, #4]
 1835              		.loc 1 517 5 is_stmt 1 view .LVU523
 1836              		.loc 1 517 53 is_stmt 0 view .LVU524
 1837 0180 9360     		str	r3, [r2, #8]
 1838              		.loc 1 520 5 is_stmt 1 view .LVU525
 1839              		.loc 1 520 53 is_stmt 0 view .LVU526
 1840 0182 D360     		str	r3, [r2, #12]
 1841              		.loc 1 523 5 is_stmt 1 view .LVU527
 1842              		.loc 1 523 53 is_stmt 0 view .LVU528
 1843 0184 1361     		str	r3, [r2, #16]
 1844              		.loc 1 526 5 is_stmt 1 view .LVU529
 1845              		.loc 1 526 40 is_stmt 0 view .LVU530
 1846 0186 FFF7FEFF 		bl	DMA_CalcBaseAndBitshift
 1847              	.LVL85:
 1848              		.loc 1 529 64 view .LVU531
 1849 018a E26D     		ldr	r2, [r4, #92]
 1850              		.loc 1 529 42 view .LVU532
 1851 018c 0123     		movs	r3, #1
 1852              	.LVL86:
 1853              		.loc 1 529 5 is_stmt 1 view .LVU533
 1854              		.loc 1 529 64 is_stmt 0 view .LVU534
 1855 018e 02F01F02 		and	r2, r2, #31
 1856              		.loc 1 529 42 view .LVU535
 1857 0192 9340     		lsls	r3, r3, r2
 1858              		.loc 1 529 21 view .LVU536
 1859 0194 4360     		str	r3, [r0, #4]
 1860 0196 9DE7     		b	.L118
 1861              	.LVL87:
 1862              	.L119:
 1863              		.loc 1 476 12 view .LVU537
 1864 0198 0120     		movs	r0, #1
 1865              		.loc 1 591 1 view .LVU538
 1866 019a 38BD     		pop	{r3, r4, r5, pc}
 1867              	.LVL88:
 1868              	.L134:
 1869              		.cfi_def_cfa_offset 0
 1870              		.cfi_restore 3
 1871              		.cfi_restore 4
 1872              		.cfi_restore 5
 1873              		.cfi_restore 14
 1874              		.loc 1 476 12 view .LVU539
 1875 019c 0120     		movs	r0, #1
 1876              	.LVL89:
 1877              		.loc 1 591 1 view .LVU540
 1878 019e 7047     		bx	lr
 1879              	.L137:
 1880              		.align	2
 1881              	.L136:
ARM GAS  C:\Users\DEVELO~1\AppData\Local\Temp\ccHliN1u.s 			page 34


 1882 01a0 70000240 		.word	1073873008
 1883 01a4 58000240 		.word	1073872984
 1884 01a8 40000240 		.word	1073872960
 1885 01ac 28000240 		.word	1073872936
 1886 01b0 08540258 		.word	1476547592
 1887 01b4 1C540258 		.word	1476547612
 1888 01b8 30540258 		.word	1476547632
 1889 01bc 58540258 		.word	1476547672
 1890 01c0 94540258 		.word	1476547732
 1891              		.cfi_endproc
 1892              	.LFE142:
 1893              		.size	HAL_DMA_DeInit, .-HAL_DMA_DeInit
 1894              		.section	.text.HAL_DMA_Start,"ax",%progbits
 1895              		.align	1
 1896              		.p2align 4,,15
 1897              		.global	HAL_DMA_Start
 1898              		.syntax unified
 1899              		.thumb
 1900              		.thumb_func
 1901              		.type	HAL_DMA_Start, %function
 1902              	HAL_DMA_Start:
 1903              	.LVL90:
 1904              	.LFB143:
 1905              		.loc 1 626 1 is_stmt 1 view -0
 1906              		.cfi_startproc
 1907              		@ args = 0, pretend = 0, frame = 0
 1908              		@ frame_needed = 0, uses_anonymous_args = 0
 1909              		.loc 1 627 3 view .LVU542
 1910              		.loc 1 630 3 view .LVU543
 1911              		.loc 1 633 3 view .LVU544
 1912              		.loc 1 633 5 is_stmt 0 view .LVU545
 1913 0000 0028     		cmp	r0, #0
 1914 0002 00F08F80 		beq	.L143
 1915 0006 8446     		mov	ip, r0
 1916              		.loc 1 639 3 is_stmt 1 view .LVU546
 1917              		.loc 1 639 3 view .LVU547
 1918              		.loc 1 626 1 is_stmt 0 view .LVU548
 1919 0008 2DE9F041 		push	{r4, r5, r6, r7, r8, lr}
 1920              		.cfi_def_cfa_offset 24
 1921              		.cfi_offset 4, -24
 1922              		.cfi_offset 5, -20
 1923              		.cfi_offset 6, -16
 1924              		.cfi_offset 7, -12
 1925              		.cfi_offset 8, -8
 1926              		.cfi_offset 14, -4
 1927              		.loc 1 639 3 view .LVU549
 1928 000c 90F83440 		ldrb	r4, [r0, #52]	@ zero_extendqisi2
 1929 0010 012C     		cmp	r4, #1
 1930 0012 00F08980 		beq	.L144
 1931              		.loc 1 639 3 is_stmt 1 discriminator 2 view .LVU550
 1932 0016 0124     		movs	r4, #1
 1933              		.loc 1 641 33 is_stmt 0 discriminator 2 view .LVU551
 1934 0018 90F83550 		ldrb	r5, [r0, #53]	@ zero_extendqisi2
 1935              		.loc 1 641 5 discriminator 2 view .LVU552
 1936 001c A542     		cmp	r5, r4
 1937              		.loc 1 639 3 discriminator 2 view .LVU553
 1938 001e 80F83440 		strb	r4, [r0, #52]
ARM GAS  C:\Users\DEVELO~1\AppData\Local\Temp\ccHliN1u.s 			page 35


 1939              		.loc 1 639 3 is_stmt 1 discriminator 2 view .LVU554
 1940              		.loc 1 641 3 discriminator 2 view .LVU555
 1941              		.loc 1 641 5 is_stmt 0 discriminator 2 view .LVU556
 1942 0022 09D0     		beq	.L151
 1943              		.loc 1 661 5 is_stmt 1 view .LVU557
 1944              		.loc 1 661 21 is_stmt 0 view .LVU558
 1945 0024 4FF40062 		mov	r2, #2048
 1946              	.LVL91:
 1947              		.loc 1 664 5 view .LVU559
 1948 0028 0023     		movs	r3, #0
 1949              	.LVL92:
 1950              		.loc 1 667 12 view .LVU560
 1951 002a 2046     		mov	r0, r4
 1952              	.LVL93:
 1953              		.loc 1 661 21 view .LVU561
 1954 002c CCF85420 		str	r2, [ip, #84]
 1955              		.loc 1 664 5 is_stmt 1 view .LVU562
 1956              		.loc 1 664 5 view .LVU563
 1957 0030 8CF83430 		strb	r3, [ip, #52]
 1958              		.loc 1 664 5 view .LVU564
 1959              		.loc 1 667 5 view .LVU565
 1960              	.LVL94:
 1961              		.loc 1 670 1 is_stmt 0 view .LVU566
 1962 0034 BDE8F081 		pop	{r4, r5, r6, r7, r8, pc}
 1963              	.LVL95:
 1964              	.L151:
 1965              		.loc 1 644 5 is_stmt 1 view .LVU567
 1966              		.loc 1 650 5 is_stmt 0 view .LVU568
 1967 0038 0568     		ldr	r5, [r0]
 1968 003a 8E46     		mov	lr, r1
 1969 003c 3C4C     		ldr	r4, .L152
 1970 003e 1646     		mov	r6, r2
 1971 0040 DFF8F080 		ldr	r8, .L152+4
 1972 0044 1F46     		mov	r7, r3
 1973 0046 4545     		cmp	r5, r8
 1974 0048 18BF     		it	ne
 1975 004a A542     		cmpne	r5, r4
 1976 004c 08F13008 		add	r8, r8, #48
 1977 0050 0CBF     		ite	eq
 1978 0052 0124     		moveq	r4, #1
 1979 0054 0024     		movne	r4, #0
 1980 0056 4545     		cmp	r5, r8
 1981 0058 08BF     		it	eq
 1982 005a 44F00104 		orreq	r4, r4, #1
 1983 005e 08F11808 		add	r8, r8, #24
 1984 0062 4545     		cmp	r5, r8
 1985 0064 08BF     		it	eq
 1986 0066 44F00104 		orreq	r4, r4, #1
 1987 006a 08F11808 		add	r8, r8, #24
 1988 006e 4545     		cmp	r5, r8
 1989 0070 08BF     		it	eq
 1990 0072 44F00104 		orreq	r4, r4, #1
 1991 0076 08F11808 		add	r8, r8, #24
 1992 007a 4545     		cmp	r5, r8
 1993 007c 08BF     		it	eq
 1994 007e 44F00104 		orreq	r4, r4, #1
 1995 0082 08F55678 		add	r8, r8, #856
ARM GAS  C:\Users\DEVELO~1\AppData\Local\Temp\ccHliN1u.s 			page 36


 1996 0086 4545     		cmp	r5, r8
 1997 0088 08BF     		it	eq
 1998 008a 44F00104 		orreq	r4, r4, #1
 1999 008e 08F11808 		add	r8, r8, #24
 2000 0092 4545     		cmp	r5, r8
 2001 0094 08BF     		it	eq
 2002 0096 44F00104 		orreq	r4, r4, #1
 2003 009a 08F11808 		add	r8, r8, #24
 2004 009e 4545     		cmp	r5, r8
 2005 00a0 08BF     		it	eq
 2006 00a2 44F00104 		orreq	r4, r4, #1
 2007 00a6 08F11808 		add	r8, r8, #24
 2008 00aa 4545     		cmp	r5, r8
 2009 00ac 08BF     		it	eq
 2010 00ae 44F00104 		orreq	r4, r4, #1
 2011 00b2 08F11808 		add	r8, r8, #24
 2012 00b6 4545     		cmp	r5, r8
 2013 00b8 08BF     		it	eq
 2014 00ba 44F00104 		orreq	r4, r4, #1
 2015 00be 08F11808 		add	r8, r8, #24
 2016 00c2 4545     		cmp	r5, r8
 2017 00c4 08BF     		it	eq
 2018 00c6 44F00104 		orreq	r4, r4, #1
 2019 00ca 08F11808 		add	r8, r8, #24
 2020 00ce 4545     		cmp	r5, r8
 2021 00d0 08BF     		it	eq
 2022 00d2 44F00104 		orreq	r4, r4, #1
 2023 00d6 08F11808 		add	r8, r8, #24
 2024 00da 4545     		cmp	r5, r8
 2025 00dc 08BF     		it	eq
 2026 00de 44F00104 		orreq	r4, r4, #1
 2027              		.loc 1 644 17 view .LVU569
 2028 00e2 4FF00208 		mov	r8, #2
 2029 00e6 80F83580 		strb	r8, [r0, #53]
 2030              		.loc 1 647 5 is_stmt 1 view .LVU570
 2031              		.loc 1 647 21 is_stmt 0 view .LVU571
 2032 00ea 4FF00008 		mov	r8, #0
 2033 00ee C0F85480 		str	r8, [r0, #84]
 2034              		.loc 1 650 5 is_stmt 1 view .LVU572
 2035 00f2 34B9     		cbnz	r4, .L145
 2036              		.loc 1 650 5 is_stmt 0 view .LVU573
 2037 00f4 DFF84080 		ldr	r8, .L152+8
 2038 00f8 104C     		ldr	r4, .L152+12
 2039 00fa A542     		cmp	r5, r4
 2040 00fc 18BF     		it	ne
 2041 00fe 4545     		cmpne	r5, r8
 2042 0100 03D1     		bne	.L150
 2043              	.L145:
 2044              		.loc 1 653 5 discriminator 29 view .LVU574
 2045 0102 3B46     		mov	r3, r7
 2046              	.LVL96:
 2047              		.loc 1 653 5 discriminator 29 view .LVU575
 2048 0104 3246     		mov	r2, r6
 2049              	.LVL97:
 2050              		.loc 1 653 5 discriminator 29 view .LVU576
 2051 0106 7146     		mov	r1, lr
 2052              	.LVL98:
ARM GAS  C:\Users\DEVELO~1\AppData\Local\Temp\ccHliN1u.s 			page 37


 2053              		.loc 1 653 5 discriminator 29 view .LVU577
 2054 0108 6046     		mov	r0, ip
 2055              	.LVL99:
 2056              	.L150:
 2057              		.loc 1 650 5 discriminator 29 view .LVU578
 2058 010a 2C68     		ldr	r4, [r5]
 2059 010c 24F00104 		bic	r4, r4, #1
 2060 0110 2C60     		str	r4, [r5]
 2061              		.loc 1 653 5 is_stmt 1 discriminator 29 view .LVU579
 2062 0112 FFF7FEFF 		bl	DMA_SetConfig
 2063              	.LVL100:
 2064              		.loc 1 656 5 discriminator 29 view .LVU580
 2065 0116 2B68     		ldr	r3, [r5]
 2066              	.LVL101:
 2067              		.loc 1 627 21 is_stmt 0 discriminator 29 view .LVU581
 2068 0118 0020     		movs	r0, #0
 2069              		.loc 1 656 5 discriminator 29 view .LVU582
 2070 011a 43F00103 		orr	r3, r3, #1
 2071 011e 2B60     		str	r3, [r5]
 2072              	.LVL102:
 2073              		.loc 1 670 1 discriminator 29 view .LVU583
 2074 0120 BDE8F081 		pop	{r4, r5, r6, r7, r8, pc}
 2075              	.LVL103:
 2076              	.L143:
 2077              		.cfi_def_cfa_offset 0
 2078              		.cfi_restore 4
 2079              		.cfi_restore 5
 2080              		.cfi_restore 6
 2081              		.cfi_restore 7
 2082              		.cfi_restore 8
 2083              		.cfi_restore 14
 2084              		.loc 1 635 12 view .LVU584
 2085 0124 0120     		movs	r0, #1
 2086              	.LVL104:
 2087              		.loc 1 670 1 view .LVU585
 2088 0126 7047     		bx	lr
 2089              	.LVL105:
 2090              	.L144:
 2091              		.cfi_def_cfa_offset 24
 2092              		.cfi_offset 4, -24
 2093              		.cfi_offset 5, -20
 2094              		.cfi_offset 6, -16
 2095              		.cfi_offset 7, -12
 2096              		.cfi_offset 8, -8
 2097              		.cfi_offset 14, -4
 2098              		.loc 1 639 3 view .LVU586
 2099 0128 0220     		movs	r0, #2
 2100              	.LVL106:
 2101              		.loc 1 670 1 view .LVU587
 2102 012a BDE8F081 		pop	{r4, r5, r6, r7, r8, pc}
 2103              	.L153:
 2104 012e 00BF     		.align	2
 2105              	.L152:
 2106 0130 58000240 		.word	1073872984
 2107 0134 40000240 		.word	1073872960
 2108 0138 10000240 		.word	1073872912
 2109 013c 28000240 		.word	1073872936
ARM GAS  C:\Users\DEVELO~1\AppData\Local\Temp\ccHliN1u.s 			page 38


 2110              		.cfi_endproc
 2111              	.LFE143:
 2112              		.size	HAL_DMA_Start, .-HAL_DMA_Start
 2113              		.section	.text.HAL_DMA_Start_IT,"ax",%progbits
 2114              		.align	1
 2115              		.p2align 4,,15
 2116              		.global	HAL_DMA_Start_IT
 2117              		.syntax unified
 2118              		.thumb
 2119              		.thumb_func
 2120              		.type	HAL_DMA_Start_IT, %function
 2121              	HAL_DMA_Start_IT:
 2122              	.LVL107:
 2123              	.LFB144:
 2124              		.loc 1 682 1 is_stmt 1 view -0
 2125              		.cfi_startproc
 2126              		@ args = 0, pretend = 0, frame = 0
 2127              		@ frame_needed = 0, uses_anonymous_args = 0
 2128              		.loc 1 683 3 view .LVU589
 2129              		.loc 1 686 3 view .LVU590
 2130              		.loc 1 689 3 view .LVU591
 2131              		.loc 1 689 5 is_stmt 0 view .LVU592
 2132 0000 0028     		cmp	r0, #0
 2133 0002 00F0AA80 		beq	.L171
 2134              		.loc 1 682 1 view .LVU593
 2135 0006 2DE9F843 		push	{r3, r4, r5, r6, r7, r8, r9, lr}
 2136              		.cfi_def_cfa_offset 32
 2137              		.cfi_offset 3, -32
 2138              		.cfi_offset 4, -28
 2139              		.cfi_offset 5, -24
 2140              		.cfi_offset 6, -20
 2141              		.cfi_offset 7, -16
 2142              		.cfi_offset 8, -12
 2143              		.cfi_offset 9, -8
 2144              		.cfi_offset 14, -4
 2145              		.loc 1 695 3 view .LVU594
 2146 000a 90F83450 		ldrb	r5, [r0, #52]	@ zero_extendqisi2
 2147 000e 0446     		mov	r4, r0
 2148              		.loc 1 695 3 is_stmt 1 view .LVU595
 2149              		.loc 1 695 3 view .LVU596
 2150 0010 012D     		cmp	r5, #1
 2151 0012 00F0A480 		beq	.L172
 2152              		.loc 1 695 3 discriminator 2 view .LVU597
 2153 0016 0125     		movs	r5, #1
 2154              		.loc 1 697 33 is_stmt 0 discriminator 2 view .LVU598
 2155 0018 90F83560 		ldrb	r6, [r0, #53]	@ zero_extendqisi2
 2156              		.loc 1 697 5 discriminator 2 view .LVU599
 2157 001c AE42     		cmp	r6, r5
 2158              		.loc 1 695 3 discriminator 2 view .LVU600
 2159 001e 80F83450 		strb	r5, [r0, #52]
 2160              		.loc 1 695 3 is_stmt 1 discriminator 2 view .LVU601
 2161              		.loc 1 697 3 discriminator 2 view .LVU602
 2162              		.loc 1 697 5 is_stmt 0 discriminator 2 view .LVU603
 2163 0022 08D0     		beq	.L190
 2164              		.loc 1 757 5 is_stmt 1 view .LVU604
 2165              		.loc 1 757 21 is_stmt 0 view .LVU605
 2166 0024 4FF40062 		mov	r2, #2048
ARM GAS  C:\Users\DEVELO~1\AppData\Local\Temp\ccHliN1u.s 			page 39


 2167              	.LVL108:
 2168              		.loc 1 760 5 view .LVU606
 2169 0028 0023     		movs	r3, #0
 2170              	.LVL109:
 2171              		.loc 1 763 12 view .LVU607
 2172 002a 2846     		mov	r0, r5
 2173              	.LVL110:
 2174              		.loc 1 757 21 view .LVU608
 2175 002c 6265     		str	r2, [r4, #84]
 2176              		.loc 1 760 5 is_stmt 1 view .LVU609
 2177              		.loc 1 760 5 view .LVU610
 2178 002e 84F83430 		strb	r3, [r4, #52]
 2179              		.loc 1 760 5 view .LVU611
 2180              		.loc 1 763 5 view .LVU612
 2181              	.LVL111:
 2182              		.loc 1 767 1 is_stmt 0 view .LVU613
 2183 0032 BDE8F883 		pop	{r3, r4, r5, r6, r7, r8, r9, pc}
 2184              	.LVL112:
 2185              	.L190:
 2186              		.loc 1 700 5 is_stmt 1 view .LVU614
 2187              		.loc 1 706 5 is_stmt 0 view .LVU615
 2188 0036 0668     		ldr	r6, [r0]
 2189 0038 8C46     		mov	ip, r1
 2190 003a 674D     		ldr	r5, .L191
 2191 003c 9646     		mov	lr, r2
 2192 003e DFF89C81 		ldr	r8, .L191+4
 2193 0042 1F46     		mov	r7, r3
 2194 0044 DFF89891 		ldr	r9, .L191+8
 2195 0048 4645     		cmp	r6, r8
 2196 004a 18BF     		it	ne
 2197 004c AE42     		cmpne	r6, r5
 2198 004e 08F13008 		add	r8, r8, #48
 2199 0052 0CBF     		ite	eq
 2200 0054 0125     		moveq	r5, #1
 2201 0056 0025     		movne	r5, #0
 2202 0058 4645     		cmp	r6, r8
 2203 005a 08BF     		it	eq
 2204 005c 45F00105 		orreq	r5, r5, #1
 2205 0060 08F11808 		add	r8, r8, #24
 2206 0064 4645     		cmp	r6, r8
 2207 0066 08BF     		it	eq
 2208 0068 45F00105 		orreq	r5, r5, #1
 2209 006c 08F11808 		add	r8, r8, #24
 2210 0070 4645     		cmp	r6, r8
 2211 0072 08BF     		it	eq
 2212 0074 45F00105 		orreq	r5, r5, #1
 2213 0078 08F11808 		add	r8, r8, #24
 2214 007c 4645     		cmp	r6, r8
 2215 007e 08BF     		it	eq
 2216 0080 45F00105 		orreq	r5, r5, #1
 2217 0084 08F55678 		add	r8, r8, #856
 2218 0088 4645     		cmp	r6, r8
 2219 008a 08BF     		it	eq
 2220 008c 45F00105 		orreq	r5, r5, #1
 2221 0090 08F11808 		add	r8, r8, #24
 2222 0094 4645     		cmp	r6, r8
 2223 0096 08BF     		it	eq
ARM GAS  C:\Users\DEVELO~1\AppData\Local\Temp\ccHliN1u.s 			page 40


 2224 0098 45F00105 		orreq	r5, r5, #1
 2225 009c 08F11808 		add	r8, r8, #24
 2226 00a0 4645     		cmp	r6, r8
 2227 00a2 08BF     		it	eq
 2228 00a4 45F00105 		orreq	r5, r5, #1
 2229 00a8 08F11808 		add	r8, r8, #24
 2230 00ac 4645     		cmp	r6, r8
 2231 00ae 08BF     		it	eq
 2232 00b0 45F00105 		orreq	r5, r5, #1
 2233 00b4 08F11808 		add	r8, r8, #24
 2234 00b8 4645     		cmp	r6, r8
 2235 00ba 08BF     		it	eq
 2236 00bc 45F00105 		orreq	r5, r5, #1
 2237 00c0 08F11808 		add	r8, r8, #24
 2238 00c4 4645     		cmp	r6, r8
 2239 00c6 08BF     		it	eq
 2240 00c8 45F00105 		orreq	r5, r5, #1
 2241 00cc 08F11808 		add	r8, r8, #24
 2242 00d0 4645     		cmp	r6, r8
 2243 00d2 08BF     		it	eq
 2244 00d4 45F00105 		orreq	r5, r5, #1
 2245              		.loc 1 700 17 view .LVU616
 2246 00d8 4FF00208 		mov	r8, #2
 2247 00dc 80F83580 		strb	r8, [r0, #53]
 2248              		.loc 1 703 5 is_stmt 1 view .LVU617
 2249              		.loc 1 703 21 is_stmt 0 view .LVU618
 2250 00e0 4FF00008 		mov	r8, #0
 2251 00e4 C0F85480 		str	r8, [r0, #84]
 2252              		.loc 1 706 5 is_stmt 1 view .LVU619
 2253 00e8 DFF8F880 		ldr	r8, .L191+12
 2254 00ec 4645     		cmp	r6, r8
 2255 00ee 08BF     		it	eq
 2256 00f0 45F00105 		orreq	r5, r5, #1
 2257 00f4 A8F59568 		sub	r8, r8, #1192
 2258 00f8 4E45     		cmp	r6, r9
 2259 00fa 18BF     		it	ne
 2260 00fc 4645     		cmpne	r6, r8
 2261 00fe 01D0     		beq	.L173
 2262              		.loc 1 706 5 is_stmt 0 view .LVU620
 2263 0100 002D     		cmp	r5, #0
 2264 0102 2FD0     		beq	.L157
 2265              	.L173:
 2266              		.loc 1 706 5 discriminator 29 view .LVU621
 2267 0104 3068     		ldr	r0, [r6]
 2268              	.LVL113:
 2269              		.loc 1 709 5 discriminator 29 view .LVU622
 2270 0106 3B46     		mov	r3, r7
 2271              	.LVL114:
 2272              		.loc 1 709 5 discriminator 29 view .LVU623
 2273 0108 7246     		mov	r2, lr
 2274              	.LVL115:
 2275              		.loc 1 709 5 discriminator 29 view .LVU624
 2276 010a 6146     		mov	r1, ip
 2277              	.LVL116:
 2278              		.loc 1 706 5 discriminator 29 view .LVU625
 2279 010c 20F00100 		bic	r0, r0, #1
 2280 0110 3060     		str	r0, [r6]
ARM GAS  C:\Users\DEVELO~1\AppData\Local\Temp\ccHliN1u.s 			page 41


 2281              		.loc 1 709 5 is_stmt 1 discriminator 29 view .LVU626
 2282 0112 2046     		mov	r0, r4
 2283 0114 FFF7FEFF 		bl	DMA_SetConfig
 2284              	.LVL117:
 2285              		.loc 1 711 5 discriminator 29 view .LVU627
 2286              		.loc 1 714 7 discriminator 29 view .LVU628
 2287 0118 3368     		ldr	r3, [r6]
 2288 011a 23F01E03 		bic	r3, r3, #30
 2289 011e 43F01603 		orr	r3, r3, #22
 2290 0122 3360     		str	r3, [r6]
 2291              		.loc 1 716 7 discriminator 29 view .LVU629
 2292              		.loc 1 716 9 is_stmt 0 discriminator 29 view .LVU630
 2293 0124 236C     		ldr	r3, [r4, #64]
 2294 0126 1BB1     		cbz	r3, .L169
 2295              		.loc 1 719 9 is_stmt 1 view .LVU631
 2296              		.loc 1 719 55 is_stmt 0 view .LVU632
 2297 0128 3368     		ldr	r3, [r6]
 2298 012a 43F00803 		orr	r3, r3, #8
 2299 012e 3360     		str	r3, [r6]
 2300              		.loc 1 734 5 is_stmt 1 view .LVU633
 2301              	.LVL118:
 2302              	.L169:
 2303              		.loc 1 737 7 view .LVU634
 2304              		.loc 1 737 15 is_stmt 0 view .LVU635
 2305 0130 236E     		ldr	r3, [r4, #96]
 2306              		.loc 1 737 30 view .LVU636
 2307 0132 1A68     		ldr	r2, [r3]
 2308              		.loc 1 737 9 view .LVU637
 2309 0134 D203     		lsls	r2, r2, #15
 2310 0136 03D5     		bpl	.L166
 2311              		.loc 1 740 9 is_stmt 1 view .LVU638
 2312              		.loc 1 740 34 is_stmt 0 view .LVU639
 2313 0138 1A68     		ldr	r2, [r3]
 2314 013a 42F48072 		orr	r2, r2, #256
 2315 013e 1A60     		str	r2, [r3]
 2316              	.L166:
 2317              		.loc 1 743 7 is_stmt 1 view .LVU640
 2318              		.loc 1 743 14 is_stmt 0 view .LVU641
 2319 0140 E36E     		ldr	r3, [r4, #108]
 2320              		.loc 1 743 9 view .LVU642
 2321 0142 1BB1     		cbz	r3, .L164
 2322              		.loc 1 747 9 is_stmt 1 view .LVU643
 2323              		.loc 1 747 38 is_stmt 0 view .LVU644
 2324 0144 1A68     		ldr	r2, [r3]
 2325 0146 42F48072 		orr	r2, r2, #256
 2326 014a 1A60     		str	r2, [r3]
 2327              		.loc 1 752 5 is_stmt 1 view .LVU645
 2328              	.L164:
 2329              		.loc 1 752 5 is_stmt 0 discriminator 30 view .LVU646
 2330 014c 3368     		ldr	r3, [r6]
 2331              		.loc 1 683 21 discriminator 30 view .LVU647
 2332 014e 0020     		movs	r0, #0
 2333              		.loc 1 752 5 discriminator 30 view .LVU648
 2334 0150 43F00103 		orr	r3, r3, #1
 2335 0154 3360     		str	r3, [r6]
 2336              		.loc 1 767 1 discriminator 30 view .LVU649
 2337 0156 BDE8F883 		pop	{r3, r4, r5, r6, r7, r8, r9, pc}
ARM GAS  C:\Users\DEVELO~1\AppData\Local\Temp\ccHliN1u.s 			page 42


 2338              	.LVL119:
 2339              	.L171:
 2340              		.cfi_def_cfa_offset 0
 2341              		.cfi_restore 3
 2342              		.cfi_restore 4
 2343              		.cfi_restore 5
 2344              		.cfi_restore 6
 2345              		.cfi_restore 7
 2346              		.cfi_restore 8
 2347              		.cfi_restore 9
 2348              		.cfi_restore 14
 2349              		.loc 1 691 12 view .LVU650
 2350 015a 0120     		movs	r0, #1
 2351              	.LVL120:
 2352              		.loc 1 767 1 view .LVU651
 2353 015c 7047     		bx	lr
 2354              	.LVL121:
 2355              	.L172:
 2356              		.cfi_def_cfa_offset 32
 2357              		.cfi_offset 3, -32
 2358              		.cfi_offset 4, -28
 2359              		.cfi_offset 5, -24
 2360              		.cfi_offset 6, -20
 2361              		.cfi_offset 7, -16
 2362              		.cfi_offset 8, -12
 2363              		.cfi_offset 9, -8
 2364              		.cfi_offset 14, -4
 2365              		.loc 1 695 3 view .LVU652
 2366 015e 0220     		movs	r0, #2
 2367              	.LVL122:
 2368              		.loc 1 767 1 view .LVU653
 2369 0160 BDE8F883 		pop	{r3, r4, r5, r6, r7, r8, r9, pc}
 2370              	.LVL123:
 2371              	.L157:
 2372              		.loc 1 706 5 discriminator 30 view .LVU654
 2373 0164 3768     		ldr	r7, [r6]
 2374 0166 27F00107 		bic	r7, r7, #1
 2375 016a 3760     		str	r7, [r6]
 2376              		.loc 1 709 5 is_stmt 1 discriminator 30 view .LVU655
 2377 016c FFF7FEFF 		bl	DMA_SetConfig
 2378              	.LVL124:
 2379              		.loc 1 711 5 discriminator 30 view .LVU656
 2380              		.loc 1 725 7 discriminator 30 view .LVU657
 2381 0170 3368     		ldr	r3, [r6]
 2382              	.LVL125:
 2383              		.loc 1 725 7 is_stmt 0 discriminator 30 view .LVU658
 2384 0172 23F00E03 		bic	r3, r3, #14
 2385 0176 43F00A03 		orr	r3, r3, #10
 2386 017a 3360     		str	r3, [r6]
 2387              		.loc 1 727 7 is_stmt 1 discriminator 30 view .LVU659
 2388              		.loc 1 727 9 is_stmt 0 discriminator 30 view .LVU660
 2389 017c 236C     		ldr	r3, [r4, #64]
 2390 017e 1BB1     		cbz	r3, .L162
 2391              		.loc 1 730 9 is_stmt 1 view .LVU661
 2392              		.loc 1 730 58 is_stmt 0 view .LVU662
 2393 0180 3368     		ldr	r3, [r6]
 2394 0182 43F00403 		orr	r3, r3, #4
ARM GAS  C:\Users\DEVELO~1\AppData\Local\Temp\ccHliN1u.s 			page 43


 2395 0186 3360     		str	r3, [r6]
 2396              	.L162:
 2397              		.loc 1 734 8 discriminator 2 view .LVU663
 2398 0188 174B     		ldr	r3, .L191+16
 2399 018a 184A     		ldr	r2, .L191+20
 2400              	.LVL126:
 2401              		.loc 1 734 8 discriminator 2 view .LVU664
 2402 018c 9642     		cmp	r6, r2
 2403 018e 18BF     		it	ne
 2404 0190 9E42     		cmpne	r6, r3
 2405 0192 02F12802 		add	r2, r2, #40
 2406 0196 0CBF     		ite	eq
 2407 0198 0123     		moveq	r3, #1
 2408 019a 0023     		movne	r3, #0
 2409 019c 9642     		cmp	r6, r2
 2410 019e 08BF     		it	eq
 2411 01a0 43F00103 		orreq	r3, r3, #1
 2412 01a4 1432     		adds	r2, r2, #20
 2413 01a6 9642     		cmp	r6, r2
 2414 01a8 08BF     		it	eq
 2415 01aa 43F00103 		orreq	r3, r3, #1
 2416 01ae 1432     		adds	r2, r2, #20
 2417 01b0 9642     		cmp	r6, r2
 2418 01b2 08BF     		it	eq
 2419 01b4 43F00103 		orreq	r3, r3, #1
 2420 01b8 1432     		adds	r2, r2, #20
 2421 01ba 9642     		cmp	r6, r2
 2422 01bc 08BF     		it	eq
 2423 01be 43F00103 		orreq	r3, r3, #1
 2424 01c2 1432     		adds	r2, r2, #20
 2425 01c4 9642     		cmp	r6, r2
 2426 01c6 08BF     		it	eq
 2427 01c8 43F00103 		orreq	r3, r3, #1
 2428 01cc 002B     		cmp	r3, #0
 2429 01ce AFD1     		bne	.L169
 2430 01d0 074B     		ldr	r3, .L191+24
 2431 01d2 9E42     		cmp	r6, r3
 2432 01d4 ACD0     		beq	.L169
 2433 01d6 B9E7     		b	.L164
 2434              	.L192:
 2435              		.align	2
 2436              	.L191:
 2437 01d8 58000240 		.word	1073872984
 2438 01dc 40000240 		.word	1073872960
 2439 01e0 28000240 		.word	1073872936
 2440 01e4 B8040240 		.word	1073874104
 2441 01e8 1C540258 		.word	1476547612
 2442 01ec 08540258 		.word	1476547592
 2443 01f0 94540258 		.word	1476547732
 2444              		.cfi_endproc
 2445              	.LFE144:
 2446              		.size	HAL_DMA_Start_IT, .-HAL_DMA_Start_IT
 2447              		.section	.text.HAL_DMA_Abort,"ax",%progbits
 2448              		.align	1
 2449              		.p2align 4,,15
 2450              		.global	HAL_DMA_Abort
 2451              		.syntax unified
ARM GAS  C:\Users\DEVELO~1\AppData\Local\Temp\ccHliN1u.s 			page 44


 2452              		.thumb
 2453              		.thumb_func
 2454              		.type	HAL_DMA_Abort, %function
 2455              	HAL_DMA_Abort:
 2456              	.LVL127:
 2457              	.LFB145:
 2458              		.loc 1 782 1 is_stmt 1 view -0
 2459              		.cfi_startproc
 2460              		@ args = 0, pretend = 0, frame = 0
 2461              		@ frame_needed = 0, uses_anonymous_args = 0
 2462              		.loc 1 784 3 view .LVU666
 2463              		.loc 1 785 3 view .LVU667
 2464              		.loc 1 786 3 view .LVU668
 2465              		.loc 1 788 3 view .LVU669
 2466              		.loc 1 782 1 is_stmt 0 view .LVU670
 2467 0000 70B5     		push	{r4, r5, r6, lr}
 2468              		.cfi_def_cfa_offset 16
 2469              		.cfi_offset 4, -16
 2470              		.cfi_offset 5, -12
 2471              		.cfi_offset 6, -8
 2472              		.cfi_offset 14, -4
 2473              		.loc 1 782 1 view .LVU671
 2474 0002 0546     		mov	r5, r0
 2475              		.loc 1 788 24 view .LVU672
 2476 0004 FFF7FEFF 		bl	HAL_GetTick
 2477              	.LVL128:
 2478              		.loc 1 791 3 is_stmt 1 view .LVU673
 2479              		.loc 1 791 5 is_stmt 0 view .LVU674
 2480 0008 002D     		cmp	r5, #0
 2481 000a 00F02481 		beq	.L209
 2482              		.loc 1 797 3 is_stmt 1 view .LVU675
 2483              		.loc 1 797 10 is_stmt 0 view .LVU676
 2484 000e 95F83530 		ldrb	r3, [r5, #53]	@ zero_extendqisi2
 2485              		.loc 1 797 5 view .LVU677
 2486 0012 022B     		cmp	r3, #2
 2487 0014 40F0DD80 		bne	.L213
 2488              		.loc 1 809 5 is_stmt 1 view .LVU678
 2489              		.loc 1 809 8 is_stmt 0 view .LVU679
 2490 0018 2C68     		ldr	r4, [r5]
 2491 001a 0646     		mov	r6, r0
 2492 001c 8F4B     		ldr	r3, .L217
 2493 001e 9048     		ldr	r0, .L217+4
 2494              	.LVL129:
 2495              		.loc 1 809 8 view .LVU680
 2496 0020 904A     		ldr	r2, .L217+8
 2497 0022 8442     		cmp	r4, r0
 2498 0024 18BF     		it	ne
 2499 0026 9C42     		cmpne	r4, r3
 2500 0028 00F13000 		add	r0, r0, #48
 2501 002c 8E49     		ldr	r1, .L217+12
 2502 002e 0CBF     		ite	eq
 2503 0030 0123     		moveq	r3, #1
 2504 0032 0023     		movne	r3, #0
 2505 0034 8442     		cmp	r4, r0
 2506 0036 08BF     		it	eq
 2507 0038 43F00103 		orreq	r3, r3, #1
 2508 003c 1830     		adds	r0, r0, #24
ARM GAS  C:\Users\DEVELO~1\AppData\Local\Temp\ccHliN1u.s 			page 45


 2509 003e 8442     		cmp	r4, r0
 2510 0040 08BF     		it	eq
 2511 0042 43F00103 		orreq	r3, r3, #1
 2512 0046 1830     		adds	r0, r0, #24
 2513 0048 8442     		cmp	r4, r0
 2514 004a 08BF     		it	eq
 2515 004c 43F00103 		orreq	r3, r3, #1
 2516 0050 1830     		adds	r0, r0, #24
 2517 0052 8442     		cmp	r4, r0
 2518 0054 08BF     		it	eq
 2519 0056 43F00103 		orreq	r3, r3, #1
 2520 005a 00F55670 		add	r0, r0, #856
 2521 005e 8442     		cmp	r4, r0
 2522 0060 08BF     		it	eq
 2523 0062 43F00103 		orreq	r3, r3, #1
 2524 0066 1830     		adds	r0, r0, #24
 2525 0068 8442     		cmp	r4, r0
 2526 006a 08BF     		it	eq
 2527 006c 43F00103 		orreq	r3, r3, #1
 2528 0070 1830     		adds	r0, r0, #24
 2529 0072 8442     		cmp	r4, r0
 2530 0074 08BF     		it	eq
 2531 0076 43F00103 		orreq	r3, r3, #1
 2532 007a 1830     		adds	r0, r0, #24
 2533 007c 8442     		cmp	r4, r0
 2534 007e 08BF     		it	eq
 2535 0080 43F00103 		orreq	r3, r3, #1
 2536 0084 1830     		adds	r0, r0, #24
 2537 0086 8442     		cmp	r4, r0
 2538 0088 08BF     		it	eq
 2539 008a 43F00103 		orreq	r3, r3, #1
 2540 008e 1830     		adds	r0, r0, #24
 2541 0090 8442     		cmp	r4, r0
 2542 0092 08BF     		it	eq
 2543 0094 43F00103 		orreq	r3, r3, #1
 2544 0098 1830     		adds	r0, r0, #24
 2545 009a 8442     		cmp	r4, r0
 2546 009c 08BF     		it	eq
 2547 009e 43F00103 		orreq	r3, r3, #1
 2548 00a2 1830     		adds	r0, r0, #24
 2549 00a4 8442     		cmp	r4, r0
 2550 00a6 08BF     		it	eq
 2551 00a8 43F00103 		orreq	r3, r3, #1
 2552 00ac 8C42     		cmp	r4, r1
 2553 00ae 18BF     		it	ne
 2554 00b0 9442     		cmpne	r4, r2
 2555 00b2 0CBF     		ite	eq
 2556 00b4 0122     		moveq	r2, #1
 2557 00b6 0022     		movne	r2, #0
 2558 00b8 02D0     		beq	.L196
 2559 00ba 002B     		cmp	r3, #0
 2560 00bc 00F09080 		beq	.L214
 2561              	.L196:
 2562              		.loc 1 812 7 is_stmt 1 view .LVU681
 2563              		.loc 1 812 53 is_stmt 0 view .LVU682
 2564 00c0 2168     		ldr	r1, [r4]
 2565 00c2 21F01E01 		bic	r1, r1, #30
ARM GAS  C:\Users\DEVELO~1\AppData\Local\Temp\ccHliN1u.s 			page 46


 2566 00c6 2160     		str	r1, [r4]
 2567              		.loc 1 813 7 is_stmt 1 view .LVU683
 2568              		.loc 1 813 53 is_stmt 0 view .LVU684
 2569 00c8 6169     		ldr	r1, [r4, #20]
 2570 00ca 21F08001 		bic	r1, r1, #128
 2571 00ce 6161     		str	r1, [r4, #20]
 2572              		.loc 1 815 7 is_stmt 1 view .LVU685
 2573              	.LVL130:
 2574              		.loc 1 825 5 view .LVU686
 2575              		.loc 1 825 8 is_stmt 0 view .LVU687
 2576 00d0 002A     		cmp	r2, #0
 2577 00d2 00F0B080 		beq	.L197
 2578              		.loc 1 828 7 is_stmt 1 view .LVU688
 2579              		.loc 1 828 11 is_stmt 0 view .LVU689
 2580 00d6 2A6E     		ldr	r2, [r5, #96]
 2581              		.loc 1 828 32 view .LVU690
 2582 00d8 1368     		ldr	r3, [r2]
 2583 00da 23F48073 		bic	r3, r3, #256
 2584 00de 1360     		str	r3, [r2]
 2585              		.loc 1 832 5 is_stmt 1 view .LVU691
 2586              	.L198:
 2587              		.loc 1 832 5 is_stmt 0 discriminator 30 view .LVU692
 2588 00e0 2368     		ldr	r3, [r4]
 2589 00e2 23F00103 		bic	r3, r3, #1
 2590 00e6 2360     		str	r3, [r4]
 2591 00e8 05E0     		b	.L200
 2592              	.L202:
 2593              		.loc 1 838 11 view .LVU693
 2594 00ea FFF7FEFF 		bl	HAL_GetTick
 2595              	.LVL131:
 2596              		.loc 1 838 25 view .LVU694
 2597 00ee 831B     		subs	r3, r0, r6
 2598              		.loc 1 838 9 view .LVU695
 2599 00f0 052B     		cmp	r3, #5
 2600 00f2 00F2A680 		bhi	.L215
 2601              	.L200:
 2602              		.loc 1 838 7 is_stmt 1 view .LVU696
 2603              		.loc 1 835 45 view .LVU697
 2604              		.loc 1 835 13 is_stmt 0 view .LVU698
 2605 00f6 2368     		ldr	r3, [r4]
 2606              		.loc 1 835 45 view .LVU699
 2607 00f8 DB07     		lsls	r3, r3, #31
 2608 00fa F6D4     		bmi	.L202
 2609              		.loc 1 854 5 is_stmt 1 view .LVU700
 2610              		.loc 1 854 8 is_stmt 0 view .LVU701
 2611 00fc 2A68     		ldr	r2, [r5]
 2612 00fe 574B     		ldr	r3, .L217
 2613 0100 5748     		ldr	r0, .L217+4
 2614 0102 5A49     		ldr	r1, .L217+16
 2615 0104 8242     		cmp	r2, r0
 2616 0106 18BF     		it	ne
 2617 0108 9A42     		cmpne	r2, r3
 2618 010a 00F14800 		add	r0, r0, #72
 2619 010e 0CBF     		ite	eq
 2620 0110 0123     		moveq	r3, #1
 2621 0112 0023     		movne	r3, #0
 2622 0114 8A42     		cmp	r2, r1
ARM GAS  C:\Users\DEVELO~1\AppData\Local\Temp\ccHliN1u.s 			page 47


 2623 0116 08BF     		it	eq
 2624 0118 43F00103 		orreq	r3, r3, #1
 2625 011c 3031     		adds	r1, r1, #48
 2626 011e 8242     		cmp	r2, r0
 2627 0120 08BF     		it	eq
 2628 0122 43F00103 		orreq	r3, r3, #1
 2629 0126 3030     		adds	r0, r0, #48
 2630 0128 8A42     		cmp	r2, r1
 2631 012a 08BF     		it	eq
 2632 012c 43F00103 		orreq	r3, r3, #1
 2633 0130 01F55C71 		add	r1, r1, #880
 2634 0134 8242     		cmp	r2, r0
 2635 0136 08BF     		it	eq
 2636 0138 43F00103 		orreq	r3, r3, #1
 2637 013c 00F55C70 		add	r0, r0, #880
 2638 0140 8A42     		cmp	r2, r1
 2639 0142 08BF     		it	eq
 2640 0144 43F00103 		orreq	r3, r3, #1
 2641 0148 3031     		adds	r1, r1, #48
 2642 014a 8242     		cmp	r2, r0
 2643 014c 08BF     		it	eq
 2644 014e 43F00103 		orreq	r3, r3, #1
 2645 0152 3030     		adds	r0, r0, #48
 2646 0154 8A42     		cmp	r2, r1
 2647 0156 08BF     		it	eq
 2648 0158 43F00103 		orreq	r3, r3, #1
 2649 015c 3031     		adds	r1, r1, #48
 2650 015e 8242     		cmp	r2, r0
 2651 0160 08BF     		it	eq
 2652 0162 43F00103 		orreq	r3, r3, #1
 2653 0166 3030     		adds	r0, r0, #48
 2654 0168 8A42     		cmp	r2, r1
 2655 016a 08BF     		it	eq
 2656 016c 43F00103 		orreq	r3, r3, #1
 2657 0170 3031     		adds	r1, r1, #48
 2658 0172 8242     		cmp	r2, r0
 2659 0174 08BF     		it	eq
 2660 0176 43F00103 		orreq	r3, r3, #1
 2661 017a 8A42     		cmp	r2, r1
 2662 017c 08BF     		it	eq
 2663 017e 43F00103 		orreq	r3, r3, #1
 2664 0182 1831     		adds	r1, r1, #24
 2665 0184 8A42     		cmp	r2, r1
 2666 0186 08BF     		it	eq
 2667 0188 43F00103 		orreq	r3, r3, #1
 2668 018c 33B9     		cbnz	r3, .L203
 2669 018e A1F59561 		sub	r1, r1, #1192
 2670 0192 354B     		ldr	r3, .L217+12
 2671 0194 9A42     		cmp	r2, r3
 2672 0196 18BF     		it	ne
 2673 0198 8A42     		cmpne	r2, r1
 2674 019a 6FD1     		bne	.L216
 2675              	.L203:
 2676              		.loc 1 856 7 is_stmt 1 view .LVU702
 2677              		.loc 1 857 53 is_stmt 0 view .LVU703
 2678 019c EA6D     		ldr	r2, [r5, #92]
 2679              		.loc 1 857 31 view .LVU704
ARM GAS  C:\Users\DEVELO~1\AppData\Local\Temp\ccHliN1u.s 			page 48


 2680 019e 3F23     		movs	r3, #63
 2681              		.loc 1 856 16 view .LVU705
 2682 01a0 A96D     		ldr	r1, [r5, #88]
 2683              	.LVL132:
 2684              		.loc 1 857 7 is_stmt 1 view .LVU706
 2685              		.loc 1 857 53 is_stmt 0 view .LVU707
 2686 01a2 02F01F02 		and	r2, r2, #31
 2687              		.loc 1 857 31 view .LVU708
 2688 01a6 9340     		lsls	r3, r3, r2
 2689              		.loc 1 857 22 view .LVU709
 2690 01a8 8B60     		str	r3, [r1, #8]
 2691              		.loc 1 865 5 is_stmt 1 view .LVU710
 2692              	.LVL133:
 2693              	.L204:
 2694              		.loc 1 868 7 view .LVU711
 2695              		.loc 1 870 14 is_stmt 0 view .LVU712
 2696 01aa EB6E     		ldr	r3, [r5, #108]
 2697              		.loc 1 868 44 view .LVU713
 2698 01ac D5E91921 		ldrd	r2, r1, [r5, #100]
 2699              		.loc 1 868 38 view .LVU714
 2700 01b0 5160     		str	r1, [r2, #4]
 2701              		.loc 1 870 7 is_stmt 1 view .LVU715
 2702              		.loc 1 870 9 is_stmt 0 view .LVU716
 2703 01b2 33B1     		cbz	r3, .L207
 2704              		.loc 1 874 9 is_stmt 1 view .LVU717
 2705              		.loc 1 874 38 is_stmt 0 view .LVU718
 2706 01b4 1A68     		ldr	r2, [r3]
 2707              		.loc 1 877 51 view .LVU719
 2708 01b6 D5E91C10 		ldrd	r1, r0, [r5, #112]
 2709              		.loc 1 874 38 view .LVU720
 2710 01ba 22F48072 		bic	r2, r2, #256
 2711 01be 1A60     		str	r2, [r3]
 2712              		.loc 1 877 9 is_stmt 1 view .LVU721
 2713              		.loc 1 877 45 is_stmt 0 view .LVU722
 2714 01c0 4860     		str	r0, [r1, #4]
 2715              	.L207:
 2716              		.loc 1 882 5 is_stmt 1 view .LVU723
 2717              		.loc 1 885 5 is_stmt 0 view .LVU724
 2718 01c2 0023     		movs	r3, #0
 2719              		.loc 1 882 17 view .LVU725
 2720 01c4 0122     		movs	r2, #1
 2721              		.loc 1 888 10 view .LVU726
 2722 01c6 1846     		mov	r0, r3
 2723              		.loc 1 882 17 view .LVU727
 2724 01c8 85F83520 		strb	r2, [r5, #53]
 2725              		.loc 1 885 5 is_stmt 1 view .LVU728
 2726              		.loc 1 885 5 view .LVU729
 2727 01cc 85F83430 		strb	r3, [r5, #52]
 2728              		.loc 1 885 5 view .LVU730
 2729              		.loc 1 888 3 view .LVU731
 2730              		.loc 1 889 1 is_stmt 0 view .LVU732
 2731 01d0 70BD     		pop	{r4, r5, r6, pc}
 2732              	.LVL134:
 2733              	.L213:
 2734              		.loc 1 799 5 is_stmt 1 view .LVU733
 2735              		.loc 1 799 21 is_stmt 0 view .LVU734
 2736 01d2 8022     		movs	r2, #128
ARM GAS  C:\Users\DEVELO~1\AppData\Local\Temp\ccHliN1u.s 			page 49


 2737              		.loc 1 802 5 view .LVU735
 2738 01d4 0023     		movs	r3, #0
 2739              		.loc 1 804 12 view .LVU736
 2740 01d6 0120     		movs	r0, #1
 2741              	.LVL135:
 2742              		.loc 1 799 21 view .LVU737
 2743 01d8 6A65     		str	r2, [r5, #84]
 2744              		.loc 1 802 5 is_stmt 1 view .LVU738
 2745              		.loc 1 802 5 view .LVU739
 2746 01da 85F83430 		strb	r3, [r5, #52]
 2747              		.loc 1 802 5 view .LVU740
 2748              		.loc 1 804 5 view .LVU741
 2749              		.loc 1 889 1 is_stmt 0 view .LVU742
 2750 01de 70BD     		pop	{r4, r5, r6, pc}
 2751              	.LVL136:
 2752              	.L214:
 2753              		.loc 1 820 7 is_stmt 1 view .LVU743
 2754              		.loc 1 820 56 is_stmt 0 view .LVU744
 2755 01e0 2268     		ldr	r2, [r4]
 2756              		.loc 1 825 8 view .LVU745
 2757 01e2 2349     		ldr	r1, .L217+20
 2758              		.loc 1 820 56 view .LVU746
 2759 01e4 22F00E02 		bic	r2, r2, #14
 2760 01e8 2260     		str	r2, [r4]
 2761              		.loc 1 822 7 is_stmt 1 view .LVU747
 2762              	.LVL137:
 2763              		.loc 1 825 5 view .LVU748
 2764              		.loc 1 825 8 is_stmt 0 view .LVU749
 2765 01ea 224A     		ldr	r2, .L217+24
 2766 01ec 8C42     		cmp	r4, r1
 2767 01ee 18BF     		it	ne
 2768 01f0 9442     		cmpne	r4, r2
 2769 01f2 01F12801 		add	r1, r1, #40
 2770 01f6 0CBF     		ite	eq
 2771 01f8 0122     		moveq	r2, #1
 2772 01fa 0022     		movne	r2, #0
 2773 01fc 8C42     		cmp	r4, r1
 2774 01fe 08BF     		it	eq
 2775 0200 42F00102 		orreq	r2, r2, #1
 2776 0204 1431     		adds	r1, r1, #20
 2777 0206 8C42     		cmp	r4, r1
 2778 0208 08BF     		it	eq
 2779 020a 42F00102 		orreq	r2, r2, #1
 2780 020e 1431     		adds	r1, r1, #20
 2781 0210 8C42     		cmp	r4, r1
 2782 0212 08BF     		it	eq
 2783 0214 42F00102 		orreq	r2, r2, #1
 2784 0218 1431     		adds	r1, r1, #20
 2785 021a 8C42     		cmp	r4, r1
 2786 021c 08BF     		it	eq
 2787 021e 42F00102 		orreq	r2, r2, #1
 2788 0222 1431     		adds	r1, r1, #20
 2789 0224 8C42     		cmp	r4, r1
 2790 0226 08BF     		it	eq
 2791 0228 42F00102 		orreq	r2, r2, #1
 2792 022c 1AB9     		cbnz	r2, .L197
 2793 022e 124A     		ldr	r2, .L217+28
ARM GAS  C:\Users\DEVELO~1\AppData\Local\Temp\ccHliN1u.s 			page 50


 2794 0230 9442     		cmp	r4, r2
 2795 0232 7FF455AF 		bne	.L198
 2796              	.L197:
 2797              		.loc 1 828 7 is_stmt 1 view .LVU750
 2798              		.loc 1 828 11 is_stmt 0 view .LVU751
 2799 0236 296E     		ldr	r1, [r5, #96]
 2800              		.loc 1 828 32 view .LVU752
 2801 0238 0A68     		ldr	r2, [r1]
 2802 023a 22F48072 		bic	r2, r2, #256
 2803 023e 0A60     		str	r2, [r1]
 2804              		.loc 1 832 5 is_stmt 1 view .LVU753
 2805              		.loc 1 832 5 is_stmt 0 view .LVU754
 2806 0240 4EE7     		b	.L198
 2807              	.L215:
 2808              		.loc 1 841 9 is_stmt 1 view .LVU755
 2809              		.loc 1 841 25 is_stmt 0 view .LVU756
 2810 0242 2021     		movs	r1, #32
 2811              		.loc 1 844 21 view .LVU757
 2812 0244 0322     		movs	r2, #3
 2813              		.loc 1 847 9 view .LVU758
 2814 0246 0023     		movs	r3, #0
 2815              		.loc 1 849 16 view .LVU759
 2816 0248 0120     		movs	r0, #1
 2817              		.loc 1 841 25 view .LVU760
 2818 024a 6965     		str	r1, [r5, #84]
 2819              		.loc 1 844 9 is_stmt 1 view .LVU761
 2820              		.loc 1 847 9 is_stmt 0 view .LVU762
 2821 024c 85F83430 		strb	r3, [r5, #52]
 2822              		.loc 1 844 21 view .LVU763
 2823 0250 85F83520 		strb	r2, [r5, #53]
 2824              		.loc 1 847 9 is_stmt 1 view .LVU764
 2825              		.loc 1 847 9 view .LVU765
 2826              		.loc 1 847 9 view .LVU766
 2827              		.loc 1 849 9 view .LVU767
 2828              		.loc 1 889 1 is_stmt 0 view .LVU768
 2829 0254 70BD     		pop	{r4, r5, r6, pc}
 2830              	.LVL138:
 2831              	.L209:
 2832              		.loc 1 793 12 view .LVU769
 2833 0256 0120     		movs	r0, #1
 2834              	.LVL139:
 2835              		.loc 1 889 1 view .LVU770
 2836 0258 70BD     		pop	{r4, r5, r6, pc}
 2837              	.LVL140:
 2838              	.L218:
 2839              		.loc 1 889 1 view .LVU771
 2840 025a 00BF     		.align	2
 2841              	.L217:
 2842 025c 58000240 		.word	1073872984
 2843 0260 40000240 		.word	1073872960
 2844 0264 10000240 		.word	1073872912
 2845 0268 28000240 		.word	1073872936
 2846 026c 70000240 		.word	1073873008
 2847 0270 08540258 		.word	1476547592
 2848 0274 1C540258 		.word	1476547612
 2849 0278 94540258 		.word	1476547732
 2850              	.LVL141:
ARM GAS  C:\Users\DEVELO~1\AppData\Local\Temp\ccHliN1u.s 			page 51


 2851              	.L216:
 2852              		.loc 1 861 7 is_stmt 1 view .LVU772
 2853              		.loc 1 862 66 is_stmt 0 view .LVU773
 2854 027c E86D     		ldr	r0, [r5, #92]
 2855              		.loc 1 862 44 view .LVU774
 2856 027e 0121     		movs	r1, #1
 2857              		.loc 1 865 8 view .LVU775
 2858 0280 164B     		ldr	r3, .L219
 2859              		.loc 1 862 66 view .LVU776
 2860 0282 00F01F00 		and	r0, r0, #31
 2861              		.loc 1 865 8 view .LVU777
 2862 0286 164C     		ldr	r4, .L219+4
 2863              	.LVL142:
 2864              		.loc 1 862 44 view .LVU778
 2865 0288 8140     		lsls	r1, r1, r0
 2866              		.loc 1 865 8 view .LVU779
 2867 028a A242     		cmp	r2, r4
 2868 028c 18BF     		it	ne
 2869 028e 9A42     		cmpne	r2, r3
 2870              		.loc 1 861 17 view .LVU780
 2871 0290 A86D     		ldr	r0, [r5, #88]
 2872              	.LVL143:
 2873              		.loc 1 862 7 is_stmt 1 view .LVU781
 2874              		.loc 1 865 8 is_stmt 0 view .LVU782
 2875 0292 0CBF     		ite	eq
 2876 0294 0123     		moveq	r3, #1
 2877 0296 0023     		movne	r3, #0
 2878              		.loc 1 862 23 view .LVU783
 2879 0298 4160     		str	r1, [r0, #4]
 2880              		.loc 1 865 5 is_stmt 1 view .LVU784
 2881              		.loc 1 865 8 is_stmt 0 view .LVU785
 2882 029a 1248     		ldr	r0, .L219+8
 2883              	.LVL144:
 2884              		.loc 1 865 8 view .LVU786
 2885 029c 1249     		ldr	r1, .L219+12
 2886 029e 8242     		cmp	r2, r0
 2887 02a0 08BF     		it	eq
 2888 02a2 43F00103 		orreq	r3, r3, #1
 2889 02a6 2830     		adds	r0, r0, #40
 2890 02a8 8A42     		cmp	r2, r1
 2891 02aa 08BF     		it	eq
 2892 02ac 43F00103 		orreq	r3, r3, #1
 2893 02b0 2831     		adds	r1, r1, #40
 2894 02b2 8242     		cmp	r2, r0
 2895 02b4 08BF     		it	eq
 2896 02b6 43F00103 		orreq	r3, r3, #1
 2897 02ba 8A42     		cmp	r2, r1
 2898 02bc 08BF     		it	eq
 2899 02be 43F00103 		orreq	r3, r3, #1
 2900 02c2 1431     		adds	r1, r1, #20
 2901 02c4 8A42     		cmp	r2, r1
 2902 02c6 08BF     		it	eq
 2903 02c8 43F00103 		orreq	r3, r3, #1
 2904 02cc 002B     		cmp	r3, #0
 2905 02ce 7FF46CAF 		bne	.L204
 2906 02d2 064B     		ldr	r3, .L219+16
 2907 02d4 9A42     		cmp	r2, r3
ARM GAS  C:\Users\DEVELO~1\AppData\Local\Temp\ccHliN1u.s 			page 52


 2908 02d6 3FF468AF 		beq	.L204
 2909 02da 72E7     		b	.L207
 2910              	.L220:
 2911              		.align	2
 2912              	.L219:
 2913 02dc 1C540258 		.word	1476547612
 2914 02e0 08540258 		.word	1476547592
 2915 02e4 30540258 		.word	1476547632
 2916 02e8 44540258 		.word	1476547652
 2917 02ec 94540258 		.word	1476547732
 2918              		.cfi_endproc
 2919              	.LFE145:
 2920              		.size	HAL_DMA_Abort, .-HAL_DMA_Abort
 2921              		.section	.text.HAL_DMA_Abort_IT,"ax",%progbits
 2922              		.align	1
 2923              		.p2align 4,,15
 2924              		.global	HAL_DMA_Abort_IT
 2925              		.syntax unified
 2926              		.thumb
 2927              		.thumb_func
 2928              		.type	HAL_DMA_Abort_IT, %function
 2929              	HAL_DMA_Abort_IT:
 2930              	.LVL145:
 2931              	.LFB146:
 2932              		.loc 1 898 1 is_stmt 1 view -0
 2933              		.cfi_startproc
 2934              		@ args = 0, pretend = 0, frame = 0
 2935              		@ frame_needed = 0, uses_anonymous_args = 0
 2936              		.loc 1 899 3 view .LVU788
 2937              		.loc 1 902 3 view .LVU789
 2938              		.loc 1 902 5 is_stmt 0 view .LVU790
 2939 0000 0028     		cmp	r0, #0
 2940 0002 5FD0     		beq	.L230
 2941              		.loc 1 907 3 is_stmt 1 view .LVU791
 2942              		.loc 1 898 1 is_stmt 0 view .LVU792
 2943 0004 38B5     		push	{r3, r4, r5, lr}
 2944              		.cfi_def_cfa_offset 16
 2945              		.cfi_offset 3, -16
 2946              		.cfi_offset 4, -12
 2947              		.cfi_offset 5, -8
 2948              		.cfi_offset 14, -4
 2949              		.loc 1 907 10 view .LVU793
 2950 0006 90F83520 		ldrb	r2, [r0, #53]	@ zero_extendqisi2
 2951 000a 0346     		mov	r3, r0
 2952              		.loc 1 907 5 view .LVU794
 2953 000c 022A     		cmp	r2, #2
 2954 000e 55D1     		bne	.L240
 2955              		.loc 1 914 5 is_stmt 1 view .LVU795
 2956              		.loc 1 914 8 is_stmt 0 view .LVU796
 2957 0010 0168     		ldr	r1, [r0]
 2958 0012 574A     		ldr	r2, .L242
 2959 0014 9142     		cmp	r1, r2
 2960 0016 48D0     		beq	.L225
 2961 0018 1832     		adds	r2, r2, #24
 2962 001a 9142     		cmp	r1, r2
 2963 001c 45D0     		beq	.L225
 2964              		.loc 1 914 8 discriminator 4 view .LVU797
ARM GAS  C:\Users\DEVELO~1\AppData\Local\Temp\ccHliN1u.s 			page 53


 2965 001e 3032     		adds	r2, r2, #48
 2966 0020 544C     		ldr	r4, .L242+4
 2967 0022 5548     		ldr	r0, .L242+8
 2968              	.LVL146:
 2969              		.loc 1 914 8 discriminator 4 view .LVU798
 2970 0024 A142     		cmp	r1, r4
 2971 0026 18BF     		it	ne
 2972 0028 9142     		cmpne	r1, r2
 2973 002a 04F14804 		add	r4, r4, #72
 2974 002e 0CBF     		ite	eq
 2975 0030 0122     		moveq	r2, #1
 2976 0032 0022     		movne	r2, #0
 2977 0034 8142     		cmp	r1, r0
 2978 0036 08BF     		it	eq
 2979 0038 42F00102 		orreq	r2, r2, #1
 2980 003c 3030     		adds	r0, r0, #48
 2981 003e A142     		cmp	r1, r4
 2982 0040 08BF     		it	eq
 2983 0042 42F00102 		orreq	r2, r2, #1
 2984 0046 3034     		adds	r4, r4, #48
 2985 0048 8142     		cmp	r1, r0
 2986 004a 08BF     		it	eq
 2987 004c 42F00102 		orreq	r2, r2, #1
 2988 0050 00F55C70 		add	r0, r0, #880
 2989 0054 A142     		cmp	r1, r4
 2990 0056 08BF     		it	eq
 2991 0058 42F00102 		orreq	r2, r2, #1
 2992 005c 04F55C74 		add	r4, r4, #880
 2993 0060 8142     		cmp	r1, r0
 2994 0062 08BF     		it	eq
 2995 0064 42F00102 		orreq	r2, r2, #1
 2996 0068 3030     		adds	r0, r0, #48
 2997 006a A142     		cmp	r1, r4
 2998 006c 08BF     		it	eq
 2999 006e 42F00102 		orreq	r2, r2, #1
 3000 0072 3034     		adds	r4, r4, #48
 3001 0074 8142     		cmp	r1, r0
 3002 0076 08BF     		it	eq
 3003 0078 42F00102 		orreq	r2, r2, #1
 3004 007c 3030     		adds	r0, r0, #48
 3005 007e A142     		cmp	r1, r4
 3006 0080 08BF     		it	eq
 3007 0082 42F00102 		orreq	r2, r2, #1
 3008 0086 3034     		adds	r4, r4, #48
 3009 0088 8142     		cmp	r1, r0
 3010 008a 08BF     		it	eq
 3011 008c 42F00102 		orreq	r2, r2, #1
 3012 0090 3030     		adds	r0, r0, #48
 3013 0092 A142     		cmp	r1, r4
 3014 0094 08BF     		it	eq
 3015 0096 42F00102 		orreq	r2, r2, #1
 3016 009a 8142     		cmp	r1, r0
 3017 009c 08BF     		it	eq
 3018 009e 42F00102 		orreq	r2, r2, #1
 3019 00a2 12B9     		cbnz	r2, .L225
 3020 00a4 354A     		ldr	r2, .L242+12
 3021 00a6 9142     		cmp	r1, r2
ARM GAS  C:\Users\DEVELO~1\AppData\Local\Temp\ccHliN1u.s 			page 54


 3022 00a8 0ED1     		bne	.L241
 3023              	.L225:
 3024              		.loc 1 917 7 is_stmt 1 view .LVU799
 3025              		.loc 1 917 19 is_stmt 0 view .LVU800
 3026 00aa 0422     		movs	r2, #4
 3027              		.loc 1 967 10 view .LVU801
 3028 00ac 0020     		movs	r0, #0
 3029              		.loc 1 917 19 view .LVU802
 3030 00ae 83F83520 		strb	r2, [r3, #53]
 3031              		.loc 1 920 7 is_stmt 1 view .LVU803
 3032 00b2 0B68     		ldr	r3, [r1]
 3033              	.LVL147:
 3034              		.loc 1 920 7 is_stmt 0 view .LVU804
 3035 00b4 23F00103 		bic	r3, r3, #1
 3036 00b8 0B60     		str	r3, [r1]
 3037              		.loc 1 968 1 view .LVU805
 3038 00ba 38BD     		pop	{r3, r4, r5, pc}
 3039              	.LVL148:
 3040              	.L240:
 3041              		.loc 1 909 5 is_stmt 1 view .LVU806
 3042              		.loc 1 909 21 is_stmt 0 view .LVU807
 3043 00bc 8022     		movs	r2, #128
 3044              		.loc 1 910 12 view .LVU808
 3045 00be 0120     		movs	r0, #1
 3046              	.LVL149:
 3047              		.loc 1 909 21 view .LVU809
 3048 00c0 5A65     		str	r2, [r3, #84]
 3049              		.loc 1 910 5 is_stmt 1 view .LVU810
 3050              		.loc 1 968 1 is_stmt 0 view .LVU811
 3051 00c2 38BD     		pop	{r3, r4, r5, pc}
 3052              	.LVL150:
 3053              	.L230:
 3054              		.cfi_def_cfa_offset 0
 3055              		.cfi_restore 3
 3056              		.cfi_restore 4
 3057              		.cfi_restore 5
 3058              		.cfi_restore 14
 3059              		.loc 1 904 12 view .LVU812
 3060 00c4 0120     		movs	r0, #1
 3061              	.LVL151:
 3062              		.loc 1 968 1 view .LVU813
 3063 00c6 7047     		bx	lr
 3064              	.LVL152:
 3065              	.L241:
 3066              		.cfi_def_cfa_offset 16
 3067              		.cfi_offset 3, -16
 3068              		.cfi_offset 4, -12
 3069              		.cfi_offset 5, -8
 3070              		.cfi_offset 14, -4
 3071              		.loc 1 925 7 is_stmt 1 view .LVU814
 3072              		.loc 1 930 10 is_stmt 0 view .LVU815
 3073 00c8 2D4A     		ldr	r2, .L242+16
 3074 00ca 2E4D     		ldr	r5, .L242+20
 3075              		.loc 1 925 56 view .LVU816
 3076 00cc 0868     		ldr	r0, [r1]
 3077              		.loc 1 930 10 view .LVU817
 3078 00ce A942     		cmp	r1, r5
ARM GAS  C:\Users\DEVELO~1\AppData\Local\Temp\ccHliN1u.s 			page 55


 3079 00d0 18BF     		it	ne
 3080 00d2 9142     		cmpne	r1, r2
 3081 00d4 2C4C     		ldr	r4, .L242+24
 3082              		.loc 1 925 56 view .LVU818
 3083 00d6 20F00E00 		bic	r0, r0, #14
 3084              		.loc 1 930 10 view .LVU819
 3085 00da 05F13C05 		add	r5, r5, #60
 3086 00de 0CBF     		ite	eq
 3087 00e0 0122     		moveq	r2, #1
 3088 00e2 0022     		movne	r2, #0
 3089              		.loc 1 925 56 view .LVU820
 3090 00e4 0860     		str	r0, [r1]
 3091              		.loc 1 928 7 is_stmt 1 view .LVU821
 3092              		.loc 1 930 10 is_stmt 0 view .LVU822
 3093 00e6 A142     		cmp	r1, r4
 3094 00e8 08BF     		it	eq
 3095 00ea 42F00102 		orreq	r2, r2, #1
 3096              		.loc 1 928 7 view .LVU823
 3097 00ee 0868     		ldr	r0, [r1]
 3098              		.loc 1 930 10 view .LVU824
 3099 00f0 2834     		adds	r4, r4, #40
 3100 00f2 A942     		cmp	r1, r5
 3101 00f4 08BF     		it	eq
 3102 00f6 42F00102 		orreq	r2, r2, #1
 3103              		.loc 1 928 7 view .LVU825
 3104 00fa 20F00100 		bic	r0, r0, #1
 3105              		.loc 1 930 10 view .LVU826
 3106 00fe A142     		cmp	r1, r4
 3107 0100 08BF     		it	eq
 3108 0102 42F00102 		orreq	r2, r2, #1
 3109 0106 1434     		adds	r4, r4, #20
 3110              		.loc 1 928 7 view .LVU827
 3111 0108 0860     		str	r0, [r1]
 3112              		.loc 1 930 7 is_stmt 1 view .LVU828
 3113              		.loc 1 930 10 is_stmt 0 view .LVU829
 3114 010a A142     		cmp	r1, r4
 3115 010c 08BF     		it	eq
 3116 010e 42F00102 		orreq	r2, r2, #1
 3117 0112 1E48     		ldr	r0, .L242+28
 3118 0114 8142     		cmp	r1, r0
 3119 0116 08BF     		it	eq
 3120 0118 42F00102 		orreq	r2, r2, #1
 3121 011c 12B9     		cbnz	r2, .L226
 3122 011e 1C4A     		ldr	r2, .L242+32
 3123 0120 9142     		cmp	r1, r2
 3124 0122 17D1     		bne	.L227
 3125              	.L226:
 3126              		.loc 1 933 9 is_stmt 1 view .LVU830
 3127              		.loc 1 937 46 is_stmt 0 view .LVU831
 3128 0124 0122     		movs	r2, #1
 3129              		.loc 1 936 19 view .LVU832
 3130 0126 9D6D     		ldr	r5, [r3, #88]
 3131              		.loc 1 937 68 view .LVU833
 3132 0128 D3E91704 		ldrd	r0, r4, [r3, #92]
 3133              		.loc 1 933 34 view .LVU834
 3134 012c 2168     		ldr	r1, [r4]
 3135              		.loc 1 937 68 view .LVU835
ARM GAS  C:\Users\DEVELO~1\AppData\Local\Temp\ccHliN1u.s 			page 56


 3136 012e 00F01F00 		and	r0, r0, #31
 3137              		.loc 1 933 34 view .LVU836
 3138 0132 21F48071 		bic	r1, r1, #256
 3139              		.loc 1 937 46 view .LVU837
 3140 0136 8240     		lsls	r2, r2, r0
 3141              		.loc 1 933 34 view .LVU838
 3142 0138 2160     		str	r1, [r4]
 3143              		.loc 1 936 9 is_stmt 1 view .LVU839
 3144              	.LVL153:
 3145              		.loc 1 937 9 view .LVU840
 3146              		.loc 1 937 25 is_stmt 0 view .LVU841
 3147 013a 6A60     		str	r2, [r5, #4]
 3148              		.loc 1 940 9 is_stmt 1 view .LVU842
 3149              		.loc 1 942 16 is_stmt 0 view .LVU843
 3150 013c DA6E     		ldr	r2, [r3, #108]
 3151              		.loc 1 940 46 view .LVU844
 3152 013e D3E91910 		ldrd	r1, r0, [r3, #100]
 3153              		.loc 1 940 40 view .LVU845
 3154 0142 4860     		str	r0, [r1, #4]
 3155              		.loc 1 942 9 is_stmt 1 view .LVU846
 3156              		.loc 1 942 11 is_stmt 0 view .LVU847
 3157 0144 32B1     		cbz	r2, .L227
 3158              		.loc 1 946 11 is_stmt 1 view .LVU848
 3159              		.loc 1 946 40 is_stmt 0 view .LVU849
 3160 0146 1168     		ldr	r1, [r2]
 3161              		.loc 1 949 53 view .LVU850
 3162 0148 D3E91C04 		ldrd	r0, r4, [r3, #112]
 3163              		.loc 1 946 40 view .LVU851
 3164 014c 21F48071 		bic	r1, r1, #256
 3165 0150 1160     		str	r1, [r2]
 3166              		.loc 1 949 11 is_stmt 1 view .LVU852
 3167              		.loc 1 949 47 is_stmt 0 view .LVU853
 3168 0152 4460     		str	r4, [r0, #4]
 3169              	.LVL154:
 3170              	.L227:
 3171              		.loc 1 954 7 is_stmt 1 view .LVU854
 3172              		.loc 1 954 19 is_stmt 0 view .LVU855
 3173 0154 0121     		movs	r1, #1
 3174              		.loc 1 957 7 view .LVU856
 3175 0156 0024     		movs	r4, #0
 3176              		.loc 1 960 14 view .LVU857
 3177 0158 1A6D     		ldr	r2, [r3, #80]
 3178              		.loc 1 954 19 view .LVU858
 3179 015a 83F83510 		strb	r1, [r3, #53]
 3180              		.loc 1 957 7 is_stmt 1 view .LVU859
 3181              		.loc 1 957 7 view .LVU860
 3182 015e 83F83440 		strb	r4, [r3, #52]
 3183              		.loc 1 957 7 view .LVU861
 3184              		.loc 1 960 7 view .LVU862
 3185              		.loc 1 960 9 is_stmt 0 view .LVU863
 3186 0162 1AB1     		cbz	r2, .L231
 3187              		.loc 1 962 9 is_stmt 1 view .LVU864
 3188 0164 1846     		mov	r0, r3
 3189 0166 9047     		blx	r2
 3190              	.LVL155:
 3191              		.loc 1 967 10 is_stmt 0 view .LVU865
 3192 0168 2046     		mov	r0, r4
ARM GAS  C:\Users\DEVELO~1\AppData\Local\Temp\ccHliN1u.s 			page 57


 3193              		.loc 1 968 1 view .LVU866
 3194 016a 38BD     		pop	{r3, r4, r5, pc}
 3195              	.LVL156:
 3196              	.L231:
 3197              		.loc 1 967 10 view .LVU867
 3198 016c 1046     		mov	r0, r2
 3199              		.loc 1 968 1 view .LVU868
 3200 016e 38BD     		pop	{r3, r4, r5, pc}
 3201              	.LVL157:
 3202              	.L243:
 3203              		.loc 1 968 1 view .LVU869
 3204              		.align	2
 3205              	.L242:
 3206 0170 10000240 		.word	1073872912
 3207 0174 40000240 		.word	1073872960
 3208 0178 70000240 		.word	1073873008
 3209 017c B8040240 		.word	1073874104
 3210 0180 1C540258 		.word	1476547612
 3211 0184 08540258 		.word	1476547592
 3212 0188 30540258 		.word	1476547632
 3213 018c 80540258 		.word	1476547712
 3214 0190 94540258 		.word	1476547732
 3215              		.cfi_endproc
 3216              	.LFE146:
 3217              		.size	HAL_DMA_Abort_IT, .-HAL_DMA_Abort_IT
 3218              		.section	.text.HAL_DMA_PollForTransfer,"ax",%progbits
 3219              		.align	1
 3220              		.p2align 4,,15
 3221              		.global	HAL_DMA_PollForTransfer
 3222              		.syntax unified
 3223              		.thumb
 3224              		.thumb_func
 3225              		.type	HAL_DMA_PollForTransfer, %function
 3226              	HAL_DMA_PollForTransfer:
 3227              	.LVL158:
 3228              	.LFB147:
 3229              		.loc 1 982 1 is_stmt 1 view -0
 3230              		.cfi_startproc
 3231              		@ args = 0, pretend = 0, frame = 16
 3232              		@ frame_needed = 0, uses_anonymous_args = 0
 3233              		.loc 1 983 3 view .LVU871
 3234              		.loc 1 984 3 view .LVU872
 3235              		.loc 1 985 3 view .LVU873
 3236              		.loc 1 982 1 is_stmt 0 view .LVU874
 3237 0000 2DE9F04F 		push	{r4, r5, r6, r7, r8, r9, r10, fp, lr}
 3238              		.cfi_def_cfa_offset 36
 3239              		.cfi_offset 4, -36
 3240              		.cfi_offset 5, -32
 3241              		.cfi_offset 6, -28
 3242              		.cfi_offset 7, -24
 3243              		.cfi_offset 8, -20
 3244              		.cfi_offset 9, -16
 3245              		.cfi_offset 10, -12
 3246              		.cfi_offset 11, -8
 3247              		.cfi_offset 14, -4
 3248 0004 0446     		mov	r4, r0
 3249 0006 85B0     		sub	sp, sp, #20
ARM GAS  C:\Users\DEVELO~1\AppData\Local\Temp\ccHliN1u.s 			page 58


 3250              		.cfi_def_cfa_offset 56
 3251              		.loc 1 982 1 view .LVU875
 3252 0008 1646     		mov	r6, r2
 3253 000a 0391     		str	r1, [sp, #12]
 3254              		.loc 1 985 24 view .LVU876
 3255 000c FFF7FEFF 		bl	HAL_GetTick
 3256              	.LVL159:
 3257              		.loc 1 985 24 view .LVU877
 3258 0010 0290     		str	r0, [sp, #8]
 3259              	.LVL160:
 3260              		.loc 1 988 3 is_stmt 1 view .LVU878
 3261              		.loc 1 990 3 view .LVU879
 3262              		.loc 1 993 3 view .LVU880
 3263              		.loc 1 993 5 is_stmt 0 view .LVU881
 3264 0012 002C     		cmp	r4, #0
 3265 0014 00F01E82 		beq	.L276
 3266              		.loc 1 998 3 is_stmt 1 view .LVU882
 3267              		.loc 1 998 32 is_stmt 0 view .LVU883
 3268 0018 94F83530 		ldrb	r3, [r4, #53]	@ zero_extendqisi2
 3269              		.loc 1 998 5 view .LVU884
 3270 001c 022B     		cmp	r3, #2
 3271              		.loc 1 998 32 view .LVU885
 3272 001e DAB2     		uxtb	r2, r3
 3273              		.loc 1 998 5 view .LVU886
 3274 0020 40F00782 		bne	.L300
 3275              		.loc 1 1007 3 is_stmt 1 view .LVU887
 3276              		.loc 1 1007 6 is_stmt 0 view .LVU888
 3277 0024 2168     		ldr	r1, [r4]
 3278 0026 344B     		ldr	r3, .L308
 3279 0028 3448     		ldr	r0, .L308+4
 3280              	.LVL161:
 3281              		.loc 1 1007 6 view .LVU889
 3282 002a 8142     		cmp	r1, r0
 3283 002c 18BF     		it	ne
 3284 002e 9942     		cmpne	r1, r3
 3285 0030 00F11800 		add	r0, r0, #24
 3286 0034 0CBF     		ite	eq
 3287 0036 0123     		moveq	r3, #1
 3288 0038 0023     		movne	r3, #0
 3289 003a 8142     		cmp	r1, r0
 3290 003c 08BF     		it	eq
 3291 003e 43F00103 		orreq	r3, r3, #1
 3292 0042 1830     		adds	r0, r0, #24
 3293 0044 8142     		cmp	r1, r0
 3294 0046 08BF     		it	eq
 3295 0048 43F00103 		orreq	r3, r3, #1
 3296 004c 1830     		adds	r0, r0, #24
 3297 004e 8142     		cmp	r1, r0
 3298 0050 08BF     		it	eq
 3299 0052 43F00103 		orreq	r3, r3, #1
 3300 0056 1830     		adds	r0, r0, #24
 3301 0058 8142     		cmp	r1, r0
 3302 005a 08BF     		it	eq
 3303 005c 43F00103 		orreq	r3, r3, #1
 3304 0060 1830     		adds	r0, r0, #24
 3305 0062 8142     		cmp	r1, r0
 3306 0064 08BF     		it	eq
ARM GAS  C:\Users\DEVELO~1\AppData\Local\Temp\ccHliN1u.s 			page 59


 3307 0066 43F00103 		orreq	r3, r3, #1
 3308 006a 1830     		adds	r0, r0, #24
 3309 006c 8142     		cmp	r1, r0
 3310 006e 08BF     		it	eq
 3311 0070 43F00103 		orreq	r3, r3, #1
 3312 0074 00F55670 		add	r0, r0, #856
 3313 0078 8142     		cmp	r1, r0
 3314 007a 08BF     		it	eq
 3315 007c 43F00103 		orreq	r3, r3, #1
 3316 0080 1830     		adds	r0, r0, #24
 3317 0082 8142     		cmp	r1, r0
 3318 0084 08BF     		it	eq
 3319 0086 43F00103 		orreq	r3, r3, #1
 3320 008a 1830     		adds	r0, r0, #24
 3321 008c 8142     		cmp	r1, r0
 3322 008e 08BF     		it	eq
 3323 0090 43F00103 		orreq	r3, r3, #1
 3324 0094 1830     		adds	r0, r0, #24
 3325 0096 8142     		cmp	r1, r0
 3326 0098 08BF     		it	eq
 3327 009a 43F00103 		orreq	r3, r3, #1
 3328 009e 1830     		adds	r0, r0, #24
 3329 00a0 8142     		cmp	r1, r0
 3330 00a2 08BF     		it	eq
 3331 00a4 43F00103 		orreq	r3, r3, #1
 3332 00a8 1830     		adds	r0, r0, #24
 3333 00aa 8142     		cmp	r1, r0
 3334 00ac 08BF     		it	eq
 3335 00ae 43F00103 		orreq	r3, r3, #1
 3336 00b2 1830     		adds	r0, r0, #24
 3337 00b4 8142     		cmp	r1, r0
 3338 00b6 08BF     		it	eq
 3339 00b8 43F00103 		orreq	r3, r3, #1
 3340 00bc 1BB9     		cbnz	r3, .L247
 3341 00be 104B     		ldr	r3, .L308+8
 3342 00c0 9942     		cmp	r1, r3
 3343 00c2 40F04D82 		bne	.L301
 3344              	.L247:
 3345              		.loc 1 1010 5 is_stmt 1 view .LVU890
 3346              		.loc 1 1010 50 is_stmt 0 view .LVU891
 3347 00c6 0B68     		ldr	r3, [r1]
 3348              		.loc 1 1010 8 view .LVU892
 3349 00c8 DA05     		lsls	r2, r3, #23
 3350 00ca 00F1C781 		bmi	.L248
 3351              		.loc 1 1017 5 is_stmt 1 view .LVU893
 3352              		.loc 1 1017 7 is_stmt 0 view .LVU894
 3353 00ce 039B     		ldr	r3, [sp, #12]
 3354 00d0 002B     		cmp	r3, #0
 3355 00d2 00F0B781 		beq	.L302
 3356              		.loc 1 1025 7 is_stmt 1 view .LVU895
 3357              		.loc 1 1025 49 is_stmt 0 view .LVU896
 3358 00d6 E36D     		ldr	r3, [r4, #92]
 3359              		.loc 1 1025 63 view .LVU897
 3360 00d8 03F01F0C 		and	ip, r3, #31
 3361              		.loc 1 1025 22 view .LVU898
 3362 00dc 1023     		movs	r3, #16
 3363 00de 03FA0CF3 		lsl	r3, r3, ip
ARM GAS  C:\Users\DEVELO~1\AppData\Local\Temp\ccHliN1u.s 			page 60


 3364 00e2 0193     		str	r3, [sp, #4]
 3365              	.LVL162:
 3366              	.L252:
 3367              		.loc 1 1028 5 is_stmt 1 view .LVU899
 3368              		.loc 1 1028 19 is_stmt 0 view .LVU900
 3369 00e4 A56D     		ldr	r5, [r4, #88]
 3370              	.LVL163:
 3371              		.loc 1 1029 5 is_stmt 1 view .LVU901
 3372              		.loc 1 1029 14 is_stmt 0 view .LVU902
 3373 00e6 05F10803 		add	r3, r5, #8
 3374 00ea 0093     		str	r3, [sp]
 3375              	.LVL164:
 3376              	.L253:
 3377              		.loc 1 1058 8 view .LVU903
 3378 00ec 024A     		ldr	r2, .L308
 3379 00ee B246     		mov	r10, r6
 3380 00f0 DFF810B0 		ldr	fp, .L308+12
 3381 00f4 17E1     		b	.L268
 3382              	.L309:
 3383 00f6 00BF     		.align	2
 3384              	.L308:
 3385 00f8 10000240 		.word	1073872912
 3386 00fc 28000240 		.word	1073872936
 3387 0100 B8040240 		.word	1073874104
 3388 0104 40000240 		.word	1073872960
 3389              	.LVL165:
 3390              	.L269:
 3391              		.loc 1 1058 5 is_stmt 1 view .LVU904
 3392              		.loc 1 1058 8 is_stmt 0 view .LVU905
 3393 0108 4945     		cmp	r1, r9
 3394 010a 18BF     		it	ne
 3395 010c 9142     		cmpne	r1, r2
 3396 010e 9D48     		ldr	r0, .L310
 3397              	.LVL166:
 3398              		.loc 1 1058 8 view .LVU906
 3399 0110 0CBF     		ite	eq
 3400 0112 0123     		moveq	r3, #1
 3401 0114 0023     		movne	r3, #0
 3402 0116 5945     		cmp	r1, fp
 3403 0118 08BF     		it	eq
 3404 011a 43F00103 		orreq	r3, r3, #1
 3405 011e 4145     		cmp	r1, r8
 3406 0120 08BF     		it	eq
 3407 0122 43F00103 		orreq	r3, r3, #1
 3408 0126 B942     		cmp	r1, r7
 3409 0128 08BF     		it	eq
 3410 012a 43F00103 		orreq	r3, r3, #1
 3411 012e B142     		cmp	r1, r6
 3412 0130 08BF     		it	eq
 3413 0132 43F00103 		orreq	r3, r3, #1
 3414 0136 8142     		cmp	r1, r0
 3415 0138 08BF     		it	eq
 3416 013a 43F00103 		orreq	r3, r3, #1
 3417 013e 1830     		adds	r0, r0, #24
 3418 0140 8142     		cmp	r1, r0
 3419 0142 08BF     		it	eq
 3420 0144 43F00103 		orreq	r3, r3, #1
ARM GAS  C:\Users\DEVELO~1\AppData\Local\Temp\ccHliN1u.s 			page 61


 3421 0148 00F55670 		add	r0, r0, #856
 3422 014c 8142     		cmp	r1, r0
 3423 014e 08BF     		it	eq
 3424 0150 43F00103 		orreq	r3, r3, #1
 3425 0154 1830     		adds	r0, r0, #24
 3426 0156 8142     		cmp	r1, r0
 3427 0158 08BF     		it	eq
 3428 015a 43F00103 		orreq	r3, r3, #1
 3429 015e 1830     		adds	r0, r0, #24
 3430 0160 8142     		cmp	r1, r0
 3431 0162 08BF     		it	eq
 3432 0164 43F00103 		orreq	r3, r3, #1
 3433 0168 1830     		adds	r0, r0, #24
 3434 016a 8142     		cmp	r1, r0
 3435 016c 08BF     		it	eq
 3436 016e 43F00103 		orreq	r3, r3, #1
 3437 0172 1830     		adds	r0, r0, #24
 3438 0174 8142     		cmp	r1, r0
 3439 0176 08BF     		it	eq
 3440 0178 43F00103 		orreq	r3, r3, #1
 3441 017c 1830     		adds	r0, r0, #24
 3442 017e 8142     		cmp	r1, r0
 3443 0180 08BF     		it	eq
 3444 0182 43F00103 		orreq	r3, r3, #1
 3445 0186 1830     		adds	r0, r0, #24
 3446 0188 8142     		cmp	r1, r0
 3447 018a 08BF     		it	eq
 3448 018c 43F00103 		orreq	r3, r3, #1
 3449 0190 1830     		adds	r0, r0, #24
 3450 0192 8142     		cmp	r1, r0
 3451 0194 08BF     		it	eq
 3452 0196 43F00103 		orreq	r3, r3, #1
 3453 019a 002B     		cmp	r3, #0
 3454 019c 00F0D381 		beq	.L303
 3455              		.loc 1 1060 7 is_stmt 1 view .LVU907
 3456              		.loc 1 1060 12 is_stmt 0 view .LVU908
 3457 01a0 2B68     		ldr	r3, [r5]
 3458              		.loc 1 1060 75 view .LVU909
 3459 01a2 23FA0CF3 		lsr	r3, r3, ip
 3460              		.loc 1 1060 9 view .LVU910
 3461 01a6 DB07     		lsls	r3, r3, #31
 3462 01a8 0BD5     		bpl	.L259
 3463              		.loc 1 1063 9 is_stmt 1 view .LVU911
 3464              		.loc 1 1063 25 is_stmt 0 view .LVU912
 3465 01aa 636D     		ldr	r3, [r4, #84]
 3466              		.loc 1 1066 21 view .LVU913
 3467 01ac 0098     		ldr	r0, [sp]
 3468              		.loc 1 1063 25 view .LVU914
 3469 01ae 43F00203 		orr	r3, r3, #2
 3470 01b2 6365     		str	r3, [r4, #84]
 3471              		.loc 1 1066 9 is_stmt 1 view .LVU915
 3472              		.loc 1 1066 40 is_stmt 0 view .LVU916
 3473 01b4 0123     		movs	r3, #1
 3474 01b6 03FA0CF3 		lsl	r3, r3, ip
 3475              		.loc 1 1066 21 view .LVU917
 3476 01ba 0360     		str	r3, [r0]
 3477              		.loc 1 1069 51 view .LVU918
ARM GAS  C:\Users\DEVELO~1\AppData\Local\Temp\ccHliN1u.s 			page 62


 3478 01bc E06D     		ldr	r0, [r4, #92]
 3479              		.loc 1 1069 65 view .LVU919
 3480 01be 00F01F0C 		and	ip, r0, #31
 3481              	.L259:
 3482              		.loc 1 1069 7 is_stmt 1 view .LVU920
 3483              		.loc 1 1069 43 is_stmt 0 view .LVU921
 3484 01c2 0423     		movs	r3, #4
 3485              		.loc 1 1069 12 view .LVU922
 3486 01c4 2868     		ldr	r0, [r5]
 3487              		.loc 1 1069 43 view .LVU923
 3488 01c6 03FA0CF3 		lsl	r3, r3, ip
 3489              		.loc 1 1069 9 view .LVU924
 3490 01ca 1842     		tst	r0, r3
 3491 01cc 08D0     		beq	.L260
 3492              		.loc 1 1072 9 is_stmt 1 view .LVU925
 3493              		.loc 1 1072 25 is_stmt 0 view .LVU926
 3494 01ce 606D     		ldr	r0, [r4, #84]
 3495 01d0 40F00400 		orr	r0, r0, #4
 3496 01d4 6065     		str	r0, [r4, #84]
 3497              		.loc 1 1075 9 is_stmt 1 view .LVU927
 3498              		.loc 1 1075 21 is_stmt 0 view .LVU928
 3499 01d6 0098     		ldr	r0, [sp]
 3500 01d8 0360     		str	r3, [r0]
 3501              		.loc 1 1078 50 view .LVU929
 3502 01da E06D     		ldr	r0, [r4, #92]
 3503              		.loc 1 1078 64 view .LVU930
 3504 01dc 00F01F0C 		and	ip, r0, #31
 3505              	.L260:
 3506              		.loc 1 1078 7 is_stmt 1 view .LVU931
 3507              		.loc 1 1078 42 is_stmt 0 view .LVU932
 3508 01e0 0823     		movs	r3, #8
 3509              		.loc 1 1078 12 view .LVU933
 3510 01e2 2868     		ldr	r0, [r5]
 3511              		.loc 1 1078 42 view .LVU934
 3512 01e4 03FA0CF3 		lsl	r3, r3, ip
 3513              		.loc 1 1078 9 view .LVU935
 3514 01e8 1842     		tst	r0, r3
 3515 01ea 40F03E81 		bne	.L304
 3516              		.loc 1 1118 5 is_stmt 1 view .LVU936
 3517              		.loc 1 1118 7 is_stmt 0 view .LVU937
 3518 01ee BAF1FF3F 		cmp	r10, #-1
 3519 01f2 00F08280 		beq	.L275
 3520              	.L274:
 3521              		.loc 1 1120 7 is_stmt 1 view .LVU938
 3522              		.loc 1 1120 12 is_stmt 0 view .LVU939
 3523 01f6 FFF7FEFF 		bl	HAL_GetTick
 3524              	.LVL167:
 3525              		.loc 1 1120 26 view .LVU940
 3526 01fa 029B     		ldr	r3, [sp, #8]
 3527 01fc C01A     		subs	r0, r0, r3
 3528              		.loc 1 1120 50 view .LVU941
 3529 01fe 5045     		cmp	r0, r10
 3530 0200 00F24081 		bhi	.L263
 3531 0204 BAF1000F 		cmp	r10, #0
 3532 0208 00F03C81 		beq	.L263
 3533              		.loc 1 1139 8 view .LVU942
 3534 020c 2168     		ldr	r1, [r4]
ARM GAS  C:\Users\DEVELO~1\AppData\Local\Temp\ccHliN1u.s 			page 63


 3535 020e 5E4A     		ldr	r2, .L310+4
 3536 0210 DFF878E1 		ldr	lr, .L310+8
 3537 0214 4945     		cmp	r1, r9
 3538 0216 18BF     		it	ne
 3539 0218 9142     		cmpne	r1, r2
 3540 021a DFF874C1 		ldr	ip, .L310+12
 3541 021e 5948     		ldr	r0, .L310
 3542 0220 0CBF     		ite	eq
 3543 0222 0123     		moveq	r3, #1
 3544 0224 0023     		movne	r3, #0
 3545 0226 7145     		cmp	r1, lr
 3546 0228 08BF     		it	eq
 3547 022a 43F00103 		orreq	r3, r3, #1
 3548 022e 6145     		cmp	r1, ip
 3549 0230 08BF     		it	eq
 3550 0232 43F00103 		orreq	r3, r3, #1
 3551 0236 B142     		cmp	r1, r6
 3552 0238 08BF     		it	eq
 3553 023a 43F00103 		orreq	r3, r3, #1
 3554 023e B942     		cmp	r1, r7
 3555 0240 08BF     		it	eq
 3556 0242 43F00103 		orreq	r3, r3, #1
 3557 0246 4145     		cmp	r1, r8
 3558 0248 08BF     		it	eq
 3559 024a 43F00103 		orreq	r3, r3, #1
 3560 024e 5945     		cmp	r1, fp
 3561 0250 08BF     		it	eq
 3562 0252 43F00103 		orreq	r3, r3, #1
 3563 0256 8142     		cmp	r1, r0
 3564 0258 08BF     		it	eq
 3565 025a 43F00103 		orreq	r3, r3, #1
 3566 025e 00F58360 		add	r0, r0, #1048
 3567 0262 8142     		cmp	r1, r0
 3568 0264 08BF     		it	eq
 3569 0266 43F00103 		orreq	r3, r3, #1
 3570 026a 1838     		subs	r0, r0, #24
 3571 026c 8142     		cmp	r1, r0
 3572 026e 08BF     		it	eq
 3573 0270 43F00103 		orreq	r3, r3, #1
 3574 0274 1838     		subs	r0, r0, #24
 3575 0276 8142     		cmp	r1, r0
 3576 0278 08BF     		it	eq
 3577 027a 43F00103 		orreq	r3, r3, #1
 3578 027e 1838     		subs	r0, r0, #24
 3579 0280 8142     		cmp	r1, r0
 3580 0282 08BF     		it	eq
 3581 0284 43F00103 		orreq	r3, r3, #1
 3582 0288 1838     		subs	r0, r0, #24
 3583 028a 8142     		cmp	r1, r0
 3584 028c 08BF     		it	eq
 3585 028e 43F00103 		orreq	r3, r3, #1
 3586 0292 1838     		subs	r0, r0, #24
 3587 0294 8142     		cmp	r1, r0
 3588 0296 08BF     		it	eq
 3589 0298 43F00103 		orreq	r3, r3, #1
 3590 029c 1838     		subs	r0, r0, #24
 3591 029e 8142     		cmp	r1, r0
ARM GAS  C:\Users\DEVELO~1\AppData\Local\Temp\ccHliN1u.s 			page 64


 3592 02a0 08BF     		it	eq
 3593 02a2 43F00103 		orreq	r3, r3, #1
 3594              		.loc 1 1097 47 view .LVU943
 3595 02a6 E06D     		ldr	r0, [r4, #92]
 3596 02a8 00F01F0C 		and	ip, r0, #31
 3597              	.L262:
 3598              		.loc 1 1139 5 is_stmt 1 view .LVU944
 3599              		.loc 1 1139 8 is_stmt 0 view .LVU945
 3600 02ac 3948     		ldr	r0, .L310+16
 3601 02ae DFF8E8E0 		ldr	lr, .L310+20
 3602 02b2 7145     		cmp	r1, lr
 3603 02b4 18BF     		it	ne
 3604 02b6 8142     		cmpne	r1, r0
 3605 02b8 0CBF     		ite	eq
 3606 02ba 0120     		moveq	r0, #1
 3607 02bc 0020     		movne	r0, #0
 3608 02be 0343     		orrs	r3, r3, r0
 3609 02c0 3648     		ldr	r0, .L310+24
 3610 02c2 8142     		cmp	r1, r0
 3611 02c4 08BF     		it	eq
 3612 02c6 43F00103 		orreq	r3, r3, #1
 3613 02ca 1430     		adds	r0, r0, #20
 3614 02cc 8142     		cmp	r1, r0
 3615 02ce 08BF     		it	eq
 3616 02d0 43F00103 		orreq	r3, r3, #1
 3617 02d4 1430     		adds	r0, r0, #20
 3618 02d6 8142     		cmp	r1, r0
 3619 02d8 08BF     		it	eq
 3620 02da 43F00103 		orreq	r3, r3, #1
 3621 02de 1430     		adds	r0, r0, #20
 3622 02e0 8142     		cmp	r1, r0
 3623 02e2 08BF     		it	eq
 3624 02e4 43F00103 		orreq	r3, r3, #1
 3625 02e8 1430     		adds	r0, r0, #20
 3626 02ea 8142     		cmp	r1, r0
 3627 02ec 08BF     		it	eq
 3628 02ee 43F00103 		orreq	r3, r3, #1
 3629 02f2 13B9     		cbnz	r3, .L275
 3630 02f4 2A4B     		ldr	r3, .L310+28
 3631 02f6 9942     		cmp	r1, r3
 3632 02f8 1BD1     		bne	.L264
 3633              	.L275:
 3634              		.loc 1 1142 7 is_stmt 1 view .LVU946
 3635              		.loc 1 1142 9 is_stmt 0 view .LVU947
 3636 02fa E36E     		ldr	r3, [r4, #108]
 3637 02fc 4BB1     		cbz	r3, .L266
 3638              		.loc 1 1145 9 is_stmt 1 view .LVU948
 3639              		.loc 1 1145 54 is_stmt 0 view .LVU949
 3640 02fe D4E91C30 		ldrd	r3, r0, [r4, #112]
 3641              		.loc 1 1145 41 view .LVU950
 3642 0302 1E68     		ldr	r6, [r3]
 3643              		.loc 1 1145 11 view .LVU951
 3644 0304 0642     		tst	r6, r0
 3645 0306 04D0     		beq	.L266
 3646              		.loc 1 1148 11 is_stmt 1 view .LVU952
 3647              		.loc 1 1148 47 is_stmt 0 view .LVU953
 3648 0308 5860     		str	r0, [r3, #4]
ARM GAS  C:\Users\DEVELO~1\AppData\Local\Temp\ccHliN1u.s 			page 65


 3649              		.loc 1 1151 11 is_stmt 1 view .LVU954
 3650              		.loc 1 1151 27 is_stmt 0 view .LVU955
 3651 030a 636D     		ldr	r3, [r4, #84]
 3652 030c 43F48063 		orr	r3, r3, #1024
 3653 0310 6365     		str	r3, [r4, #84]
 3654              	.L266:
 3655              		.loc 1 1156 7 is_stmt 1 view .LVU956
 3656              		.loc 1 1156 48 is_stmt 0 view .LVU957
 3657 0312 D4E91930 		ldrd	r3, r0, [r4, #100]
 3658              		.loc 1 1156 36 view .LVU958
 3659 0316 1E68     		ldr	r6, [r3]
 3660              		.loc 1 1156 9 view .LVU959
 3661 0318 0642     		tst	r6, r0
 3662 031a 08D0     		beq	.L267
 3663              		.loc 1 1159 9 is_stmt 1 view .LVU960
 3664              		.loc 1 1159 40 is_stmt 0 view .LVU961
 3665 031c 5860     		str	r0, [r3, #4]
 3666              		.loc 1 1162 9 is_stmt 1 view .LVU962
 3667              		.loc 1 1162 25 is_stmt 0 view .LVU963
 3668 031e 636D     		ldr	r3, [r4, #84]
 3669 0320 43F40073 		orr	r3, r3, #512
 3670 0324 6365     		str	r3, [r4, #84]
 3671              	.L268:
 3672              		.loc 1 1058 8 view .LVU964
 3673 0326 DFF87C90 		ldr	r9, .L310+32
 3674 032a DFF87C80 		ldr	r8, .L310+36
 3675              	.L267:
 3676 032e 1F4F     		ldr	r7, .L310+40
 3677 0330 1F4E     		ldr	r6, .L310+44
 3678              	.L264:
 3679              		.loc 1 1056 39 is_stmt 1 view .LVU965
 3680              		.loc 1 1056 11 is_stmt 0 view .LVU966
 3681 0332 2B68     		ldr	r3, [r5]
 3682              		.loc 1 1056 39 view .LVU967
 3683 0334 0198     		ldr	r0, [sp, #4]
 3684 0336 0342     		tst	r3, r0
 3685 0338 3FF4E6AE 		beq	.L269
 3686              		.loc 1 1169 3 is_stmt 1 view .LVU968
 3687              		.loc 1 1169 5 is_stmt 0 view .LVU969
 3688 033c 039B     		ldr	r3, [sp, #12]
 3689 033e 002B     		cmp	r3, #0
 3690 0340 40F0A780 		bne	.L270
 3691              		.loc 1 1172 5 is_stmt 1 view .LVU970
 3692              		.loc 1 1172 8 is_stmt 0 view .LVU971
 3693 0344 104B     		ldr	r3, .L310+4
 3694 0346 174A     		ldr	r2, .L310+32
 3695 0348 9142     		cmp	r1, r2
 3696 034a 18BF     		it	ne
 3697 034c 9942     		cmpne	r1, r3
 3698 034e 02F11802 		add	r2, r2, #24
 3699 0352 0CBF     		ite	eq
 3700 0354 0123     		moveq	r3, #1
 3701 0356 0023     		movne	r3, #0
 3702 0358 9142     		cmp	r1, r2
 3703 035a 08BF     		it	eq
 3704 035c 43F00103 		orreq	r3, r3, #1
 3705 0360 1832     		adds	r2, r2, #24
ARM GAS  C:\Users\DEVELO~1\AppData\Local\Temp\ccHliN1u.s 			page 66


 3706 0362 9142     		cmp	r1, r2
 3707 0364 08BF     		it	eq
 3708 0366 43F00103 		orreq	r3, r3, #1
 3709 036a 1832     		adds	r2, r2, #24
 3710 036c 9142     		cmp	r1, r2
 3711 036e 08BF     		it	eq
 3712 0370 43F00103 		orreq	r3, r3, #1
 3713 0374 1832     		adds	r2, r2, #24
 3714 0376 9142     		cmp	r1, r2
 3715 0378 08BF     		it	eq
 3716 037a 43F00103 		orreq	r3, r3, #1
 3717 037e 1832     		adds	r2, r2, #24
 3718 0380 18E0     		b	.L311
 3719              	.L312:
 3720 0382 00BF     		.align	2
 3721              	.L310:
 3722 0384 A0000240 		.word	1073873056
 3723 0388 10000240 		.word	1073872912
 3724 038c 10040240 		.word	1073873936
 3725 0390 B8000240 		.word	1073873080
 3726 0394 1C540258 		.word	1476547612
 3727 0398 08540258 		.word	1476547592
 3728 039c 30540258 		.word	1476547632
 3729 03a0 94540258 		.word	1476547732
 3730 03a4 28000240 		.word	1073872936
 3731 03a8 58000240 		.word	1073872984
 3732 03ac 70000240 		.word	1073873008
 3733 03b0 88000240 		.word	1073873032
 3734              	.L311:
 3735 03b4 9142     		cmp	r1, r2
 3736 03b6 08BF     		it	eq
 3737 03b8 43F00103 		orreq	r3, r3, #1
 3738 03bc 1832     		adds	r2, r2, #24
 3739 03be 9142     		cmp	r1, r2
 3740 03c0 08BF     		it	eq
 3741 03c2 43F00103 		orreq	r3, r3, #1
 3742 03c6 02F55672 		add	r2, r2, #856
 3743 03ca 9142     		cmp	r1, r2
 3744 03cc 08BF     		it	eq
 3745 03ce 43F00103 		orreq	r3, r3, #1
 3746 03d2 1832     		adds	r2, r2, #24
 3747 03d4 9142     		cmp	r1, r2
 3748 03d6 08BF     		it	eq
 3749 03d8 43F00103 		orreq	r3, r3, #1
 3750 03dc 1832     		adds	r2, r2, #24
 3751 03de 9142     		cmp	r1, r2
 3752 03e0 08BF     		it	eq
 3753 03e2 43F00103 		orreq	r3, r3, #1
 3754 03e6 1832     		adds	r2, r2, #24
 3755 03e8 9142     		cmp	r1, r2
 3756 03ea 08BF     		it	eq
 3757 03ec 43F00103 		orreq	r3, r3, #1
 3758 03f0 1832     		adds	r2, r2, #24
 3759 03f2 9142     		cmp	r1, r2
 3760 03f4 08BF     		it	eq
 3761 03f6 43F00103 		orreq	r3, r3, #1
 3762 03fa 1832     		adds	r2, r2, #24
ARM GAS  C:\Users\DEVELO~1\AppData\Local\Temp\ccHliN1u.s 			page 67


 3763 03fc 9142     		cmp	r1, r2
 3764 03fe 08BF     		it	eq
 3765 0400 43F00103 		orreq	r3, r3, #1
 3766 0404 1832     		adds	r2, r2, #24
 3767 0406 9142     		cmp	r1, r2
 3768 0408 08BF     		it	eq
 3769 040a 43F00103 		orreq	r3, r3, #1
 3770 040e 1BB9     		cbnz	r3, .L271
 3771 0410 6C4B     		ldr	r3, .L313
 3772 0412 9942     		cmp	r1, r3
 3773 0414 40F0CF80 		bne	.L305
 3774              	.L271:
 3775              		.loc 1 1174 7 is_stmt 1 view .LVU972
 3776              		.loc 1 1174 59 is_stmt 0 view .LVU973
 3777 0418 3023     		movs	r3, #48
 3778              		.loc 1 1174 19 view .LVU974
 3779 041a 009A     		ldr	r2, [sp]
 3780              		.loc 1 1174 59 view .LVU975
 3781 041c 03FA0CF3 		lsl	r3, r3, ip
 3782              		.loc 1 1174 19 view .LVU976
 3783 0420 1360     		str	r3, [r2]
 3784              	.L272:
 3785              		.loc 1 1181 5 is_stmt 1 view .LVU977
 3786              		.loc 1 1184 5 is_stmt 0 view .LVU978
 3787 0422 0023     		movs	r3, #0
 3788              		.loc 1 1181 17 view .LVU979
 3789 0424 0122     		movs	r2, #1
 3790              		.loc 1 1199 10 view .LVU980
 3791 0426 1846     		mov	r0, r3
 3792              		.loc 1 1181 17 view .LVU981
 3793 0428 84F83520 		strb	r2, [r4, #53]
 3794              		.loc 1 1184 5 is_stmt 1 view .LVU982
 3795              		.loc 1 1184 5 view .LVU983
 3796 042c 84F83430 		strb	r3, [r4, #52]
 3797              		.loc 1 1184 5 view .LVU984
 3798 0430 05E0     		b	.L296
 3799              	.LVL168:
 3800              	.L300:
 3801              		.loc 1 1001 5 view .LVU985
 3802              		.loc 1 1001 21 is_stmt 0 view .LVU986
 3803 0432 8022     		movs	r2, #128
 3804              		.loc 1 1002 5 view .LVU987
 3805 0434 0023     		movs	r3, #0
 3806              		.loc 1 1004 12 view .LVU988
 3807 0436 0120     		movs	r0, #1
 3808              	.LVL169:
 3809              		.loc 1 1001 21 view .LVU989
 3810 0438 6265     		str	r2, [r4, #84]
 3811              		.loc 1 1002 5 is_stmt 1 view .LVU990
 3812              		.loc 1 1002 5 view .LVU991
 3813 043a 84F83430 		strb	r3, [r4, #52]
 3814              		.loc 1 1002 5 view .LVU992
 3815              		.loc 1 1004 5 view .LVU993
 3816              	.LVL170:
 3817              	.L296:
 3818              		.loc 1 1200 1 is_stmt 0 view .LVU994
 3819 043e 05B0     		add	sp, sp, #20
ARM GAS  C:\Users\DEVELO~1\AppData\Local\Temp\ccHliN1u.s 			page 68


 3820              		.cfi_remember_state
 3821              		.cfi_def_cfa_offset 36
 3822              		@ sp needed
 3823 0440 BDE8F08F 		pop	{r4, r5, r6, r7, r8, r9, r10, fp, pc}
 3824              	.LVL171:
 3825              	.L302:
 3826              		.cfi_restore_state
 3827              		.loc 1 1020 7 is_stmt 1 view .LVU995
 3828              		.loc 1 1020 49 is_stmt 0 view .LVU996
 3829 0444 E36D     		ldr	r3, [r4, #92]
 3830              		.loc 1 1020 63 view .LVU997
 3831 0446 03F01F0C 		and	ip, r3, #31
 3832              		.loc 1 1020 22 view .LVU998
 3833 044a 2023     		movs	r3, #32
 3834 044c 03FA0CF3 		lsl	r3, r3, ip
 3835 0450 0193     		str	r3, [sp, #4]
 3836              	.LVL172:
 3837              		.loc 1 1020 22 view .LVU999
 3838 0452 47E6     		b	.L252
 3839              	.LVL173:
 3840              	.L276:
 3841              		.loc 1 995 12 view .LVU1000
 3842 0454 0120     		movs	r0, #1
 3843              	.LVL174:
 3844              		.loc 1 1200 1 view .LVU1001
 3845 0456 05B0     		add	sp, sp, #20
 3846              		.cfi_remember_state
 3847              		.cfi_def_cfa_offset 36
 3848              		@ sp needed
 3849 0458 BDE8F08F 		pop	{r4, r5, r6, r7, r8, r9, r10, fp, pc}
 3850              	.LVL175:
 3851              	.L248:
 3852              		.cfi_restore_state
 3853              		.loc 1 1036 7 is_stmt 1 view .LVU1002
 3854              		.loc 1 1036 23 is_stmt 0 view .LVU1003
 3855 045c 4FF48073 		mov	r3, #256
 3856              		.loc 1 1037 14 view .LVU1004
 3857 0460 0120     		movs	r0, #1
 3858              		.loc 1 1036 23 view .LVU1005
 3859 0462 6365     		str	r3, [r4, #84]
 3860              		.loc 1 1037 7 is_stmt 1 view .LVU1006
 3861              		.loc 1 1200 1 is_stmt 0 view .LVU1007
 3862 0464 05B0     		add	sp, sp, #20
 3863              		.cfi_remember_state
 3864              		.cfi_def_cfa_offset 36
 3865              		@ sp needed
 3866 0466 BDE8F08F 		pop	{r4, r5, r6, r7, r8, r9, r10, fp, pc}
 3867              	.LVL176:
 3868              	.L304:
 3869              		.cfi_restore_state
 3870              		.loc 1 1081 9 is_stmt 1 view .LVU1008
 3871              		.loc 1 1081 25 is_stmt 0 view .LVU1009
 3872 046a 626D     		ldr	r2, [r4, #84]
 3873              		.loc 1 1087 21 view .LVU1010
 3874 046c 0121     		movs	r1, #1
 3875              		.loc 1 1081 25 view .LVU1011
 3876 046e 0A43     		orrs	r2, r2, r1
ARM GAS  C:\Users\DEVELO~1\AppData\Local\Temp\ccHliN1u.s 			page 69


 3877              		.loc 1 1092 16 view .LVU1012
 3878 0470 0846     		mov	r0, r1
 3879              		.loc 1 1081 25 view .LVU1013
 3880 0472 6265     		str	r2, [r4, #84]
 3881              		.loc 1 1084 9 is_stmt 1 view .LVU1014
 3882              		.loc 1 1084 21 is_stmt 0 view .LVU1015
 3883 0474 009A     		ldr	r2, [sp]
 3884 0476 1360     		str	r3, [r2]
 3885              		.loc 1 1087 9 is_stmt 1 view .LVU1016
 3886              		.loc 1 1090 9 is_stmt 0 view .LVU1017
 3887 0478 0023     		movs	r3, #0
 3888              		.loc 1 1087 21 view .LVU1018
 3889 047a 84F83510 		strb	r1, [r4, #53]
 3890              		.loc 1 1090 9 is_stmt 1 view .LVU1019
 3891              		.loc 1 1090 9 view .LVU1020
 3892 047e 84F83430 		strb	r3, [r4, #52]
 3893              		.loc 1 1090 9 view .LVU1021
 3894              		.loc 1 1092 9 view .LVU1022
 3895              		.loc 1 1092 16 is_stmt 0 view .LVU1023
 3896 0482 DCE7     		b	.L296
 3897              	.L263:
 3898              		.loc 1 1123 9 is_stmt 1 view .LVU1024
 3899              		.loc 1 1123 25 is_stmt 0 view .LVU1025
 3900 0484 2023     		movs	r3, #32
 3901              		.loc 1 1127 16 view .LVU1026
 3902 0486 2046     		mov	r0, r4
 3903              		.loc 1 1123 25 view .LVU1027
 3904 0488 6365     		str	r3, [r4, #84]
 3905              		.loc 1 1127 9 is_stmt 1 view .LVU1028
 3906              		.loc 1 1127 16 is_stmt 0 view .LVU1029
 3907 048a FFF7FEFF 		bl	HAL_DMA_Abort
 3908              	.LVL177:
 3909              		.loc 1 1135 9 is_stmt 1 view .LVU1030
 3910              		.loc 1 1135 16 is_stmt 0 view .LVU1031
 3911 048e 0120     		movs	r0, #1
 3912 0490 D5E7     		b	.L296
 3913              	.LVL178:
 3914              	.L270:
 3915              		.loc 1 1189 5 is_stmt 1 view .LVU1032
 3916              		.loc 1 1189 8 is_stmt 0 view .LVU1033
 3917 0492 4D4B     		ldr	r3, .L313+4
 3918 0494 4D4A     		ldr	r2, .L313+8
 3919 0496 9142     		cmp	r1, r2
 3920 0498 18BF     		it	ne
 3921 049a 9942     		cmpne	r1, r3
 3922 049c 02F11802 		add	r2, r2, #24
 3923 04a0 0CBF     		ite	eq
 3924 04a2 0123     		moveq	r3, #1
 3925 04a4 0023     		movne	r3, #0
 3926 04a6 9142     		cmp	r1, r2
 3927 04a8 08BF     		it	eq
 3928 04aa 43F00103 		orreq	r3, r3, #1
 3929 04ae 1832     		adds	r2, r2, #24
 3930 04b0 9142     		cmp	r1, r2
 3931 04b2 08BF     		it	eq
 3932 04b4 43F00103 		orreq	r3, r3, #1
 3933 04b8 1832     		adds	r2, r2, #24
ARM GAS  C:\Users\DEVELO~1\AppData\Local\Temp\ccHliN1u.s 			page 70


 3934 04ba 9142     		cmp	r1, r2
 3935 04bc 08BF     		it	eq
 3936 04be 43F00103 		orreq	r3, r3, #1
 3937 04c2 1832     		adds	r2, r2, #24
 3938 04c4 9142     		cmp	r1, r2
 3939 04c6 08BF     		it	eq
 3940 04c8 43F00103 		orreq	r3, r3, #1
 3941 04cc 1832     		adds	r2, r2, #24
 3942 04ce 9142     		cmp	r1, r2
 3943 04d0 08BF     		it	eq
 3944 04d2 43F00103 		orreq	r3, r3, #1
 3945 04d6 1832     		adds	r2, r2, #24
 3946 04d8 9142     		cmp	r1, r2
 3947 04da 08BF     		it	eq
 3948 04dc 43F00103 		orreq	r3, r3, #1
 3949 04e0 02F55672 		add	r2, r2, #856
 3950 04e4 9142     		cmp	r1, r2
 3951 04e6 08BF     		it	eq
 3952 04e8 43F00103 		orreq	r3, r3, #1
 3953 04ec 1832     		adds	r2, r2, #24
 3954 04ee 9142     		cmp	r1, r2
 3955 04f0 08BF     		it	eq
 3956 04f2 43F00103 		orreq	r3, r3, #1
 3957 04f6 1832     		adds	r2, r2, #24
 3958 04f8 9142     		cmp	r1, r2
 3959 04fa 08BF     		it	eq
 3960 04fc 43F00103 		orreq	r3, r3, #1
 3961 0500 1832     		adds	r2, r2, #24
 3962 0502 9142     		cmp	r1, r2
 3963 0504 08BF     		it	eq
 3964 0506 43F00103 		orreq	r3, r3, #1
 3965 050a 1832     		adds	r2, r2, #24
 3966 050c 9142     		cmp	r1, r2
 3967 050e 08BF     		it	eq
 3968 0510 43F00103 		orreq	r3, r3, #1
 3969 0514 1832     		adds	r2, r2, #24
 3970 0516 9142     		cmp	r1, r2
 3971 0518 08BF     		it	eq
 3972 051a 43F00103 		orreq	r3, r3, #1
 3973 051e 1832     		adds	r2, r2, #24
 3974 0520 9142     		cmp	r1, r2
 3975 0522 08BF     		it	eq
 3976 0524 43F00103 		orreq	r3, r3, #1
 3977 0528 33B9     		cbnz	r3, .L273
 3978 052a 264B     		ldr	r3, .L313
 3979 052c C91A     		subs	r1, r1, r3
 3980 052e B1FA81F1 		clz	r1, r1
 3981 0532 4909     		lsrs	r1, r1, #5
 3982 0534 0029     		cmp	r1, #0
 3983 0536 37D0     		beq	.L306
 3984              	.L273:
 3985              		.loc 1 1191 7 is_stmt 1 view .LVU1034
 3986              		.loc 1 1191 40 is_stmt 0 view .LVU1035
 3987 0538 1023     		movs	r3, #16
 3988              		.loc 1 1191 19 view .LVU1036
 3989 053a 009A     		ldr	r2, [sp]
 3990              		.loc 1 1199 10 view .LVU1037
ARM GAS  C:\Users\DEVELO~1\AppData\Local\Temp\ccHliN1u.s 			page 71


 3991 053c 0020     		movs	r0, #0
 3992              	.LVL179:
 3993              		.loc 1 1191 40 view .LVU1038
 3994 053e 03FA0CF3 		lsl	r3, r3, ip
 3995              		.loc 1 1191 19 view .LVU1039
 3996 0542 1360     		str	r3, [r2]
 3997 0544 7BE7     		b	.L296
 3998              	.L303:
 3999              		.loc 1 1097 7 is_stmt 1 view .LVU1040
 4000              		.loc 1 1097 39 is_stmt 0 view .LVU1041
 4001 0546 0820     		movs	r0, #8
 4002              		.loc 1 1097 12 view .LVU1042
 4003 0548 D5F800E0 		ldr	lr, [r5]
 4004              		.loc 1 1097 39 view .LVU1043
 4005 054c 00FA0CF0 		lsl	r0, r0, ip
 4006              		.loc 1 1097 9 view .LVU1044
 4007 0550 10EA0E0F 		tst	r0, lr
 4008 0554 15D1     		bne	.L307
 4009              		.loc 1 1118 5 is_stmt 1 view .LVU1045
 4010              		.loc 1 1118 7 is_stmt 0 view .LVU1046
 4011 0556 BAF1FF3F 		cmp	r10, #-1
 4012 055a 3FF4A7AE 		beq	.L262
 4013 055e 4AE6     		b	.L274
 4014              	.LVL180:
 4015              	.L301:
 4016              		.loc 1 1034 5 is_stmt 1 view .LVU1047
 4017              		.loc 1 1034 52 is_stmt 0 view .LVU1048
 4018 0560 0B68     		ldr	r3, [r1]
 4019              		.loc 1 1034 8 view .LVU1049
 4020 0562 9806     		lsls	r0, r3, #26
 4021 0564 3FF57AAF 		bmi	.L248
 4022              		.loc 1 1041 5 is_stmt 1 view .LVU1050
 4023              		.loc 1 1041 7 is_stmt 0 view .LVU1051
 4024 0568 039B     		ldr	r3, [sp, #12]
 4025 056a ABB9     		cbnz	r3, .L254
 4026              		.loc 1 1044 7 is_stmt 1 view .LVU1052
 4027              		.loc 1 1044 60 is_stmt 0 view .LVU1053
 4028 056c E36D     		ldr	r3, [r4, #92]
 4029 056e 03F01F00 		and	r0, r3, #31
 4030              		.loc 1 1044 22 view .LVU1054
 4031 0572 8240     		lsls	r2, r2, r0
 4032 0574 0192     		str	r2, [sp, #4]
 4033              	.LVL181:
 4034              	.L255:
 4035              		.loc 1 1052 5 is_stmt 1 view .LVU1055
 4036              		.loc 1 1052 19 is_stmt 0 view .LVU1056
 4037 0576 A56D     		ldr	r5, [r4, #88]
 4038              	.LVL182:
 4039              		.loc 1 1053 5 is_stmt 1 view .LVU1057
 4040 0578 03F01F0C 		and	ip, r3, #31
 4041              		.loc 1 1053 14 is_stmt 0 view .LVU1058
 4042 057c 2B1D     		adds	r3, r5, #4
 4043 057e 0093     		str	r3, [sp]
 4044              	.LVL183:
 4045              		.loc 1 1053 14 view .LVU1059
 4046 0580 B4E5     		b	.L253
 4047              	.LVL184:
ARM GAS  C:\Users\DEVELO~1\AppData\Local\Temp\ccHliN1u.s 			page 72


 4048              	.L307:
 4049              		.loc 1 1102 9 is_stmt 1 view .LVU1060
 4050              		.loc 1 1102 39 is_stmt 0 view .LVU1061
 4051 0582 0122     		movs	r2, #1
 4052 0584 02FA0CF1 		lsl	r1, r2, ip
 4053              		.loc 1 1113 16 view .LVU1062
 4054 0588 1046     		mov	r0, r2
 4055              		.loc 1 1102 20 view .LVU1063
 4056 058a 2960     		str	r1, [r5]
 4057              		.loc 1 1105 9 is_stmt 1 view .LVU1064
 4058              		.loc 1 1105 25 is_stmt 0 view .LVU1065
 4059 058c 6265     		str	r2, [r4, #84]
 4060              		.loc 1 1108 9 is_stmt 1 view .LVU1066
 4061              		.loc 1 1111 9 is_stmt 0 view .LVU1067
 4062 058e 84F83430 		strb	r3, [r4, #52]
 4063              		.loc 1 1108 21 view .LVU1068
 4064 0592 84F83520 		strb	r2, [r4, #53]
 4065              		.loc 1 1111 9 is_stmt 1 view .LVU1069
 4066              		.loc 1 1111 9 view .LVU1070
 4067              		.loc 1 1111 9 view .LVU1071
 4068              		.loc 1 1113 9 view .LVU1072
 4069              		.loc 1 1113 16 is_stmt 0 view .LVU1073
 4070 0596 52E7     		b	.L296
 4071              	.LVL185:
 4072              	.L254:
 4073              		.loc 1 1049 7 is_stmt 1 view .LVU1074
 4074              		.loc 1 1049 60 is_stmt 0 view .LVU1075
 4075 0598 E36D     		ldr	r3, [r4, #92]
 4076              		.loc 1 1049 22 view .LVU1076
 4077 059a 0420     		movs	r0, #4
 4078              		.loc 1 1049 60 view .LVU1077
 4079 059c 03F01F02 		and	r2, r3, #31
 4080              		.loc 1 1049 22 view .LVU1078
 4081 05a0 00FA02F2 		lsl	r2, r0, r2
 4082 05a4 0192     		str	r2, [sp, #4]
 4083              	.LVL186:
 4084              		.loc 1 1049 22 view .LVU1079
 4085 05a6 E6E7     		b	.L255
 4086              	.LVL187:
 4087              	.L306:
 4088              		.loc 1 1195 7 is_stmt 1 view .LVU1080
 4089              		.loc 1 1195 36 is_stmt 0 view .LVU1081
 4090 05a8 0423     		movs	r3, #4
 4091              		.loc 1 1195 19 view .LVU1082
 4092 05aa 009A     		ldr	r2, [sp]
 4093              		.loc 1 1199 10 view .LVU1083
 4094 05ac 0846     		mov	r0, r1
 4095              	.LVL188:
 4096              		.loc 1 1195 36 view .LVU1084
 4097 05ae 03FA0CF3 		lsl	r3, r3, ip
 4098              		.loc 1 1195 19 view .LVU1085
 4099 05b2 1360     		str	r3, [r2]
 4100 05b4 43E7     		b	.L296
 4101              	.LVL189:
 4102              	.L305:
 4103              		.loc 1 1178 7 is_stmt 1 view .LVU1086
 4104              		.loc 1 1178 36 is_stmt 0 view .LVU1087
ARM GAS  C:\Users\DEVELO~1\AppData\Local\Temp\ccHliN1u.s 			page 73


 4105 05b6 0223     		movs	r3, #2
 4106              		.loc 1 1178 19 view .LVU1088
 4107 05b8 009A     		ldr	r2, [sp]
 4108              		.loc 1 1178 36 view .LVU1089
 4109 05ba 03FA0CF3 		lsl	r3, r3, ip
 4110              		.loc 1 1178 19 view .LVU1090
 4111 05be 1360     		str	r3, [r2]
 4112 05c0 2FE7     		b	.L272
 4113              	.L314:
 4114 05c2 00BF     		.align	2
 4115              	.L313:
 4116 05c4 B8040240 		.word	1073874104
 4117 05c8 10000240 		.word	1073872912
 4118 05cc 28000240 		.word	1073872936
 4119              		.cfi_endproc
 4120              	.LFE147:
 4121              		.size	HAL_DMA_PollForTransfer, .-HAL_DMA_PollForTransfer
 4122              		.section	.text.HAL_DMA_IRQHandler,"ax",%progbits
 4123              		.align	1
 4124              		.p2align 4,,15
 4125              		.global	HAL_DMA_IRQHandler
 4126              		.syntax unified
 4127              		.thumb
 4128              		.thumb_func
 4129              		.type	HAL_DMA_IRQHandler, %function
 4130              	HAL_DMA_IRQHandler:
 4131              	.LVL190:
 4132              	.LFB148:
 4133              		.loc 1 1209 1 is_stmt 1 view -0
 4134              		.cfi_startproc
 4135              		@ args = 0, pretend = 0, frame = 8
 4136              		@ frame_needed = 0, uses_anonymous_args = 0
 4137              		.loc 1 1210 3 view .LVU1092
 4138              		.loc 1 1211 3 view .LVU1093
 4139              		.loc 1 1212 3 view .LVU1094
 4140              		.loc 1 1209 1 is_stmt 0 view .LVU1095
 4141 0000 2DE9F041 		push	{r4, r5, r6, r7, r8, lr}
 4142              		.cfi_def_cfa_offset 24
 4143              		.cfi_offset 4, -24
 4144              		.cfi_offset 5, -20
 4145              		.cfi_offset 6, -16
 4146              		.cfi_offset 7, -12
 4147              		.cfi_offset 8, -8
 4148              		.cfi_offset 14, -4
 4149              		.loc 1 1212 17 view .LVU1096
 4150 0004 0022     		movs	r2, #0
 4151              		.loc 1 1213 38 view .LVU1097
 4152 0006 9E4B     		ldr	r3, .L490
 4153              		.loc 1 1209 1 view .LVU1098
 4154 0008 82B0     		sub	sp, sp, #8
 4155              		.cfi_def_cfa_offset 32
 4156              		.loc 1 1216 24 view .LVU1099
 4157 000a 846D     		ldr	r4, [r0, #88]
 4158              		.loc 1 1209 1 view .LVU1100
 4159 000c 0646     		mov	r6, r0
 4160              		.loc 1 1213 38 view .LVU1101
 4161 000e 1D68     		ldr	r5, [r3]
ARM GAS  C:\Users\DEVELO~1\AppData\Local\Temp\ccHliN1u.s 			page 74


 4162              		.loc 1 1212 17 view .LVU1102
 4163 0010 0192     		str	r2, [sp, #4]
 4164              		.loc 1 1213 3 is_stmt 1 view .LVU1103
 4165              	.LVL191:
 4166              		.loc 1 1216 3 view .LVU1104
 4167              		.loc 1 1217 3 view .LVU1105
 4168              		.loc 1 1219 3 view .LVU1106
 4169              		.loc 1 1222 6 is_stmt 0 view .LVU1107
 4170 0012 0368     		ldr	r3, [r0]
 4171 0014 9B4A     		ldr	r2, .L490+4
 4172 0016 9C48     		ldr	r0, .L490+8
 4173              	.LVL192:
 4174              		.loc 1 1219 15 view .LVU1108
 4175 0018 2768     		ldr	r7, [r4]
 4176              	.LVL193:
 4177              		.loc 1 1220 3 is_stmt 1 view .LVU1109
 4178              		.loc 1 1222 6 is_stmt 0 view .LVU1110
 4179 001a 9342     		cmp	r3, r2
 4180 001c 18BF     		it	ne
 4181 001e 8342     		cmpne	r3, r0
 4182              		.loc 1 1220 15 view .LVU1111
 4183 0020 2168     		ldr	r1, [r4]
 4184              	.LVL194:
 4185              		.loc 1 1222 3 is_stmt 1 view .LVU1112
 4186              		.loc 1 1222 6 is_stmt 0 view .LVU1113
 4187 0022 0CBF     		ite	eq
 4188 0024 0120     		moveq	r0, #1
 4189 0026 0020     		movne	r0, #0
 4190 0028 4FD0     		beq	.L317
 4191              		.loc 1 1222 6 discriminator 4 view .LVU1114
 4192 002a 1832     		adds	r2, r2, #24
 4193 002c DFF85CC2 		ldr	ip, .L490+12
 4194 0030 6345     		cmp	r3, ip
 4195 0032 18BF     		it	ne
 4196 0034 9342     		cmpne	r3, r2
 4197 0036 0CF1180C 		add	ip, ip, #24
 4198 003a 0CBF     		ite	eq
 4199 003c 0122     		moveq	r2, #1
 4200 003e 0022     		movne	r2, #0
 4201 0040 6345     		cmp	r3, ip
 4202 0042 08BF     		it	eq
 4203 0044 42F00102 		orreq	r2, r2, #1
 4204 0048 0CF1180C 		add	ip, ip, #24
 4205 004c 6345     		cmp	r3, ip
 4206 004e 08BF     		it	eq
 4207 0050 42F00102 		orreq	r2, r2, #1
 4208 0054 0CF1180C 		add	ip, ip, #24
 4209 0058 6345     		cmp	r3, ip
 4210 005a 08BF     		it	eq
 4211 005c 42F00102 		orreq	r2, r2, #1
 4212 0060 0CF1180C 		add	ip, ip, #24
 4213 0064 6345     		cmp	r3, ip
 4214 0066 08BF     		it	eq
 4215 0068 42F00102 		orreq	r2, r2, #1
 4216 006c 0CF5567C 		add	ip, ip, #856
 4217 0070 6345     		cmp	r3, ip
 4218 0072 08BF     		it	eq
ARM GAS  C:\Users\DEVELO~1\AppData\Local\Temp\ccHliN1u.s 			page 75


 4219 0074 42F00102 		orreq	r2, r2, #1
 4220 0078 0CF1180C 		add	ip, ip, #24
 4221 007c 6345     		cmp	r3, ip
 4222 007e 08BF     		it	eq
 4223 0080 42F00102 		orreq	r2, r2, #1
 4224 0084 0CF1180C 		add	ip, ip, #24
 4225 0088 6345     		cmp	r3, ip
 4226 008a 08BF     		it	eq
 4227 008c 42F00102 		orreq	r2, r2, #1
 4228 0090 0CF1180C 		add	ip, ip, #24
 4229 0094 6345     		cmp	r3, ip
 4230 0096 08BF     		it	eq
 4231 0098 42F00102 		orreq	r2, r2, #1
 4232 009c 0CF1180C 		add	ip, ip, #24
 4233 00a0 6345     		cmp	r3, ip
 4234 00a2 08BF     		it	eq
 4235 00a4 42F00102 		orreq	r2, r2, #1
 4236 00a8 0CF1180C 		add	ip, ip, #24
 4237 00ac 6345     		cmp	r3, ip
 4238 00ae 08BF     		it	eq
 4239 00b0 42F00102 		orreq	r2, r2, #1
 4240 00b4 0CF1180C 		add	ip, ip, #24
 4241 00b8 6345     		cmp	r3, ip
 4242 00ba 08BF     		it	eq
 4243 00bc 42F00102 		orreq	r2, r2, #1
 4244 00c0 1AB9     		cbnz	r2, .L317
 4245 00c2 734A     		ldr	r2, .L490+16
 4246 00c4 9342     		cmp	r3, r2
 4247 00c6 40F04B82 		bne	.L484
 4248              	.L317:
 4249              		.loc 1 1225 5 is_stmt 1 view .LVU1115
 4250              		.loc 1 1225 63 is_stmt 0 view .LVU1116
 4251 00ca F16D     		ldr	r1, [r6, #92]
 4252              	.LVL195:
 4253              		.loc 1 1225 41 view .LVU1117
 4254 00cc 0822     		movs	r2, #8
 4255              		.loc 1 1225 63 view .LVU1118
 4256 00ce 01F01F0C 		and	ip, r1, #31
 4257              		.loc 1 1225 41 view .LVU1119
 4258 00d2 02FA0CF2 		lsl	r2, r2, ip
 4259              		.loc 1 1225 8 view .LVU1120
 4260 00d6 1742     		tst	r7, r2
 4261 00d8 40F07D81 		bne	.L369
 4262              		.loc 1 1240 5 is_stmt 1 view .LVU1121
 4263              		.loc 1 1240 74 is_stmt 0 view .LVU1122
 4264 00dc 27FA0CF2 		lsr	r2, r7, ip
 4265              		.loc 1 1240 8 view .LVU1123
 4266 00e0 D207     		lsls	r2, r2, #31
 4267 00e2 0AD5     		bpl	.L321
 4268              	.L371:
 4269              		.loc 1 1242 10 discriminator 29 view .LVU1124
 4270 00e4 5A69     		ldr	r2, [r3, #20]
 4271              		.loc 1 1242 9 discriminator 29 view .LVU1125
 4272 00e6 1206     		lsls	r2, r2, #24
 4273 00e8 07D5     		bpl	.L321
 4274              		.loc 1 1245 9 is_stmt 1 view .LVU1126
 4275              		.loc 1 1245 43 is_stmt 0 view .LVU1127
ARM GAS  C:\Users\DEVELO~1\AppData\Local\Temp\ccHliN1u.s 			page 76


 4276 00ea 0122     		movs	r2, #1
 4277 00ec 02FA0CF2 		lsl	r2, r2, ip
 4278              		.loc 1 1245 24 view .LVU1128
 4279 00f0 A260     		str	r2, [r4, #8]
 4280              		.loc 1 1248 9 is_stmt 1 view .LVU1129
 4281              		.loc 1 1248 25 is_stmt 0 view .LVU1130
 4282 00f2 726D     		ldr	r2, [r6, #84]
 4283 00f4 42F00202 		orr	r2, r2, #2
 4284 00f8 7265     		str	r2, [r6, #84]
 4285              	.L321:
 4286              		.loc 1 1252 5 is_stmt 1 view .LVU1131
 4287              		.loc 1 1252 42 is_stmt 0 view .LVU1132
 4288 00fa 4FF0040E 		mov	lr, #4
 4289 00fe 0EFA0CFE 		lsl	lr, lr, ip
 4290              		.loc 1 1252 8 view .LVU1133
 4291 0102 1EEA070F 		tst	lr, r7
 4292 0106 5AD0     		beq	.L327
 4293              		.loc 1 1254 7 is_stmt 1 view .LVU1134
 4294              		.loc 1 1254 52 is_stmt 0 view .LVU1135
 4295 0108 0028     		cmp	r0, #0
 4296 010a 4FD1     		bne	.L328
 4297              		.loc 1 1254 10 discriminator 2 view .LVU1136
 4298 010c 5F4A     		ldr	r2, .L490+12
 4299 010e DFF88481 		ldr	r8, .L490+20
 4300 0112 4345     		cmp	r3, r8
 4301 0114 18BF     		it	ne
 4302 0116 9342     		cmpne	r3, r2
 4303 0118 08F13008 		add	r8, r8, #48
 4304 011c 0CBF     		ite	eq
 4305 011e 0122     		moveq	r2, #1
 4306 0120 0022     		movne	r2, #0
 4307 0122 4345     		cmp	r3, r8
 4308 0124 08BF     		it	eq
 4309 0126 42F00102 		orreq	r2, r2, #1
 4310 012a 08F11808 		add	r8, r8, #24
 4311 012e 4345     		cmp	r3, r8
 4312 0130 08BF     		it	eq
 4313 0132 42F00102 		orreq	r2, r2, #1
 4314 0136 08F11808 		add	r8, r8, #24
 4315 013a 4345     		cmp	r3, r8
 4316 013c 08BF     		it	eq
 4317 013e 42F00102 		orreq	r2, r2, #1
 4318 0142 08F11808 		add	r8, r8, #24
 4319 0146 4345     		cmp	r3, r8
 4320 0148 08BF     		it	eq
 4321 014a 42F00102 		orreq	r2, r2, #1
 4322 014e 08F55678 		add	r8, r8, #856
 4323 0152 4345     		cmp	r3, r8
 4324 0154 08BF     		it	eq
 4325 0156 42F00102 		orreq	r2, r2, #1
 4326 015a 08F11808 		add	r8, r8, #24
 4327 015e 4345     		cmp	r3, r8
 4328 0160 08BF     		it	eq
 4329 0162 42F00102 		orreq	r2, r2, #1
 4330 0166 08F11808 		add	r8, r8, #24
 4331 016a 4345     		cmp	r3, r8
 4332 016c 08BF     		it	eq
ARM GAS  C:\Users\DEVELO~1\AppData\Local\Temp\ccHliN1u.s 			page 77


 4333 016e 42F00102 		orreq	r2, r2, #1
 4334 0172 08F11808 		add	r8, r8, #24
 4335 0176 4345     		cmp	r3, r8
 4336 0178 08BF     		it	eq
 4337 017a 42F00102 		orreq	r2, r2, #1
 4338 017e 08F11808 		add	r8, r8, #24
 4339 0182 4345     		cmp	r3, r8
 4340 0184 08BF     		it	eq
 4341 0186 42F00102 		orreq	r2, r2, #1
 4342 018a 08F11808 		add	r8, r8, #24
 4343 018e 4345     		cmp	r3, r8
 4344 0190 08BF     		it	eq
 4345 0192 42F00102 		orreq	r2, r2, #1
 4346 0196 08F11808 		add	r8, r8, #24
 4347 019a 4345     		cmp	r3, r8
 4348 019c 08BF     		it	eq
 4349 019e 42F00102 		orreq	r2, r2, #1
 4350 01a2 1AB9     		cbnz	r2, .L328
 4351 01a4 3A4A     		ldr	r2, .L490+16
 4352 01a6 9342     		cmp	r3, r2
 4353 01a8 40F01482 		bne	.L325
 4354              	.L328:
 4355              		.loc 1 1254 10 discriminator 29 view .LVU1137
 4356 01ac 1A68     		ldr	r2, [r3]
 4357              		.loc 1 1254 9 discriminator 29 view .LVU1138
 4358 01ae 9207     		lsls	r2, r2, #30
 4359 01b0 05D5     		bpl	.L327
 4360              		.loc 1 1257 9 is_stmt 1 view .LVU1139
 4361              		.loc 1 1257 24 is_stmt 0 view .LVU1140
 4362 01b2 C4F808E0 		str	lr, [r4, #8]
 4363              		.loc 1 1260 9 is_stmt 1 view .LVU1141
 4364              		.loc 1 1260 25 is_stmt 0 view .LVU1142
 4365 01b6 726D     		ldr	r2, [r6, #84]
 4366 01b8 42F00402 		orr	r2, r2, #4
 4367 01bc 7265     		str	r2, [r6, #84]
 4368              	.L327:
 4369              		.loc 1 1264 5 is_stmt 1 view .LVU1143
 4370              		.loc 1 1264 41 is_stmt 0 view .LVU1144
 4371 01be 1022     		movs	r2, #16
 4372 01c0 02FA0CFC 		lsl	ip, r2, ip
 4373              		.loc 1 1264 8 view .LVU1145
 4374 01c4 1CEA070F 		tst	ip, r7
 4375 01c8 69D0     		beq	.L332
 4376              		.loc 1 1266 7 is_stmt 1 view .LVU1146
 4377              		.loc 1 1266 51 is_stmt 0 view .LVU1147
 4378 01ca 0028     		cmp	r0, #0
 4379 01cc 45D1     		bne	.L334
 4380              	.L372:
 4381              		.loc 1 1266 10 discriminator 2 view .LVU1148
 4382 01ce 2F4A     		ldr	r2, .L490+12
 4383 01d0 3048     		ldr	r0, .L490+20
 4384 01d2 8342     		cmp	r3, r0
 4385 01d4 18BF     		it	ne
 4386 01d6 9342     		cmpne	r3, r2
 4387 01d8 00F13000 		add	r0, r0, #48
 4388 01dc 0CBF     		ite	eq
 4389 01de 0122     		moveq	r2, #1
ARM GAS  C:\Users\DEVELO~1\AppData\Local\Temp\ccHliN1u.s 			page 78


 4390 01e0 0022     		movne	r2, #0
 4391 01e2 8342     		cmp	r3, r0
 4392 01e4 08BF     		it	eq
 4393 01e6 42F00102 		orreq	r2, r2, #1
 4394 01ea 1830     		adds	r0, r0, #24
 4395 01ec 8342     		cmp	r3, r0
 4396 01ee 08BF     		it	eq
 4397 01f0 42F00102 		orreq	r2, r2, #1
 4398 01f4 1830     		adds	r0, r0, #24
 4399 01f6 8342     		cmp	r3, r0
 4400 01f8 08BF     		it	eq
 4401 01fa 42F00102 		orreq	r2, r2, #1
 4402 01fe 1830     		adds	r0, r0, #24
 4403 0200 8342     		cmp	r3, r0
 4404 0202 08BF     		it	eq
 4405 0204 42F00102 		orreq	r2, r2, #1
 4406 0208 00F55670 		add	r0, r0, #856
 4407 020c 8342     		cmp	r3, r0
 4408 020e 08BF     		it	eq
 4409 0210 42F00102 		orreq	r2, r2, #1
 4410 0214 1830     		adds	r0, r0, #24
 4411 0216 8342     		cmp	r3, r0
 4412 0218 08BF     		it	eq
 4413 021a 42F00102 		orreq	r2, r2, #1
 4414 021e 1830     		adds	r0, r0, #24
 4415 0220 8342     		cmp	r3, r0
 4416 0222 08BF     		it	eq
 4417 0224 42F00102 		orreq	r2, r2, #1
 4418 0228 1830     		adds	r0, r0, #24
 4419 022a 8342     		cmp	r3, r0
 4420 022c 08BF     		it	eq
 4421 022e 42F00102 		orreq	r2, r2, #1
 4422 0232 1830     		adds	r0, r0, #24
 4423 0234 8342     		cmp	r3, r0
 4424 0236 08BF     		it	eq
 4425 0238 42F00102 		orreq	r2, r2, #1
 4426 023c 1830     		adds	r0, r0, #24
 4427 023e 8342     		cmp	r3, r0
 4428 0240 08BF     		it	eq
 4429 0242 42F00102 		orreq	r2, r2, #1
 4430 0246 1830     		adds	r0, r0, #24
 4431 0248 8342     		cmp	r3, r0
 4432 024a 08BF     		it	eq
 4433 024c 42F00102 		orreq	r2, r2, #1
 4434 0250 1AB9     		cbnz	r2, .L334
 4435 0252 0F4A     		ldr	r2, .L490+16
 4436 0254 9342     		cmp	r3, r2
 4437 0256 40F0C581 		bne	.L331
 4438              	.L334:
 4439              		.loc 1 1266 10 discriminator 29 view .LVU1149
 4440 025a 1A68     		ldr	r2, [r3]
 4441              		.loc 1 1266 9 discriminator 29 view .LVU1150
 4442 025c 1207     		lsls	r2, r2, #28
 4443 025e 1ED5     		bpl	.L332
 4444              	.L336:
 4445              		.loc 1 1269 9 is_stmt 1 view .LVU1151
 4446              		.loc 1 1269 24 is_stmt 0 view .LVU1152
ARM GAS  C:\Users\DEVELO~1\AppData\Local\Temp\ccHliN1u.s 			page 79


 4447 0260 C4F808C0 		str	ip, [r4, #8]
 4448              		.loc 1 1272 9 is_stmt 1 view .LVU1153
 4449              		.loc 1 1272 54 is_stmt 0 view .LVU1154
 4450 0264 1A68     		ldr	r2, [r3]
 4451              		.loc 1 1272 11 view .LVU1155
 4452 0266 5203     		lsls	r2, r2, #13
 4453 0268 00F14E81 		bmi	.L485
 4454              		.loc 1 1296 11 is_stmt 1 view .LVU1156
 4455              		.loc 1 1296 55 is_stmt 0 view .LVU1157
 4456 026c 1A68     		ldr	r2, [r3]
 4457              		.loc 1 1296 13 view .LVU1158
 4458 026e D205     		lsls	r2, r2, #23
 4459 0270 03D4     		bmi	.L339
 4460              		.loc 1 1299 13 is_stmt 1 view .LVU1159
 4461              		.loc 1 1299 59 is_stmt 0 view .LVU1160
 4462 0272 1A68     		ldr	r2, [r3]
 4463 0274 22F00802 		bic	r2, r2, #8
 4464 0278 1A60     		str	r2, [r3]
 4465              	.L339:
 4466              		.loc 1 1302 11 is_stmt 1 view .LVU1161
 4467              		.loc 1 1302 18 is_stmt 0 view .LVU1162
 4468 027a 336C     		ldr	r3, [r6, #64]
 4469              		.loc 1 1302 13 view .LVU1163
 4470 027c 7BB1     		cbz	r3, .L332
 4471 027e 0BE0     		b	.L491
 4472              	.L492:
 4473              		.align	2
 4474              	.L490:
 4475 0280 00000000 		.word	SystemCoreClock
 4476 0284 28000240 		.word	1073872936
 4477 0288 10000240 		.word	1073872912
 4478 028c 58000240 		.word	1073872984
 4479 0290 B8040240 		.word	1073874104
 4480 0294 40000240 		.word	1073872960
 4481              	.L491:
 4482              	.L475:
 4483              		.loc 1 1305 13 is_stmt 1 view .LVU1164
 4484 0298 3046     		mov	r0, r6
 4485 029a 9847     		blx	r3
 4486              	.LVL196:
 4487 029c F16D     		ldr	r1, [r6, #92]
 4488              	.L332:
 4489              		.loc 1 1311 5 view .LVU1165
 4490              		.loc 1 1311 63 is_stmt 0 view .LVU1166
 4491 029e 01F01F01 		and	r1, r1, #31
 4492              		.loc 1 1311 41 view .LVU1167
 4493 02a2 2020     		movs	r0, #32
 4494 02a4 8840     		lsls	r0, r0, r1
 4495              		.loc 1 1311 8 view .LVU1168
 4496 02a6 3842     		tst	r0, r7
 4497 02a8 66D0     		beq	.L341
 4498              		.loc 1 1313 7 is_stmt 1 view .LVU1169
 4499              		.loc 1 1313 10 is_stmt 0 view .LVU1170
 4500 02aa 3268     		ldr	r2, [r6]
 4501 02ac A44B     		ldr	r3, .L493
 4502 02ae A54F     		ldr	r7, .L493+4
 4503              	.LVL197:
ARM GAS  C:\Users\DEVELO~1\AppData\Local\Temp\ccHliN1u.s 			page 80


 4504              		.loc 1 1313 10 view .LVU1171
 4505 02b0 BA42     		cmp	r2, r7
 4506 02b2 18BF     		it	ne
 4507 02b4 9A42     		cmpne	r2, r3
 4508 02b6 07F11807 		add	r7, r7, #24
 4509 02ba 0CBF     		ite	eq
 4510 02bc 0123     		moveq	r3, #1
 4511 02be 0023     		movne	r3, #0
 4512 02c0 BA42     		cmp	r2, r7
 4513 02c2 08BF     		it	eq
 4514 02c4 43F00103 		orreq	r3, r3, #1
 4515 02c8 1837     		adds	r7, r7, #24
 4516 02ca BA42     		cmp	r2, r7
 4517 02cc 08BF     		it	eq
 4518 02ce 43F00103 		orreq	r3, r3, #1
 4519 02d2 1837     		adds	r7, r7, #24
 4520 02d4 BA42     		cmp	r2, r7
 4521 02d6 08BF     		it	eq
 4522 02d8 43F00103 		orreq	r3, r3, #1
 4523 02dc 1837     		adds	r7, r7, #24
 4524 02de BA42     		cmp	r2, r7
 4525 02e0 08BF     		it	eq
 4526 02e2 43F00103 		orreq	r3, r3, #1
 4527 02e6 1837     		adds	r7, r7, #24
 4528 02e8 BA42     		cmp	r2, r7
 4529 02ea 08BF     		it	eq
 4530 02ec 43F00103 		orreq	r3, r3, #1
 4531 02f0 1837     		adds	r7, r7, #24
 4532 02f2 BA42     		cmp	r2, r7
 4533 02f4 08BF     		it	eq
 4534 02f6 43F00103 		orreq	r3, r3, #1
 4535 02fa 07F55677 		add	r7, r7, #856
 4536 02fe BA42     		cmp	r2, r7
 4537 0300 08BF     		it	eq
 4538 0302 43F00103 		orreq	r3, r3, #1
 4539 0306 1837     		adds	r7, r7, #24
 4540 0308 BA42     		cmp	r2, r7
 4541 030a 08BF     		it	eq
 4542 030c 43F00103 		orreq	r3, r3, #1
 4543 0310 1837     		adds	r7, r7, #24
 4544 0312 BA42     		cmp	r2, r7
 4545 0314 08BF     		it	eq
 4546 0316 43F00103 		orreq	r3, r3, #1
 4547 031a 1837     		adds	r7, r7, #24
 4548 031c BA42     		cmp	r2, r7
 4549 031e 08BF     		it	eq
 4550 0320 43F00103 		orreq	r3, r3, #1
 4551 0324 1837     		adds	r7, r7, #24
 4552 0326 BA42     		cmp	r2, r7
 4553 0328 08BF     		it	eq
 4554 032a 43F00103 		orreq	r3, r3, #1
 4555 032e 1837     		adds	r7, r7, #24
 4556 0330 BA42     		cmp	r2, r7
 4557 0332 08BF     		it	eq
 4558 0334 43F00103 		orreq	r3, r3, #1
 4559 0338 1837     		adds	r7, r7, #24
 4560 033a BA42     		cmp	r2, r7
ARM GAS  C:\Users\DEVELO~1\AppData\Local\Temp\ccHliN1u.s 			page 81


 4561 033c 08BF     		it	eq
 4562 033e 43F00103 		orreq	r3, r3, #1
 4563 0342 1BB9     		cbnz	r3, .L373
 4564 0344 804B     		ldr	r3, .L493+8
 4565 0346 9A42     		cmp	r2, r3
 4566 0348 40F06181 		bne	.L342
 4567              	.L373:
 4568              		.loc 1 1313 10 discriminator 29 view .LVU1172
 4569 034c 1368     		ldr	r3, [r2]
 4570              		.loc 1 1313 9 discriminator 29 view .LVU1173
 4571 034e DF06     		lsls	r7, r3, #27
 4572 0350 12D5     		bpl	.L341
 4573              	.L344:
 4574              		.loc 1 1316 9 is_stmt 1 view .LVU1174
 4575              		.loc 1 1316 24 is_stmt 0 view .LVU1175
 4576 0352 A060     		str	r0, [r4, #8]
 4577              		.loc 1 1318 9 is_stmt 1 view .LVU1176
 4578              		.loc 1 1318 39 is_stmt 0 view .LVU1177
 4579 0354 96F83530 		ldrb	r3, [r6, #53]	@ zero_extendqisi2
 4580              		.loc 1 1318 11 view .LVU1178
 4581 0358 042B     		cmp	r3, #4
 4582              		.loc 1 1321 57 view .LVU1179
 4583 035a 1368     		ldr	r3, [r2]
 4584              		.loc 1 1318 11 view .LVU1180
 4585 035c 00F0B680 		beq	.L486
 4586              		.loc 1 1345 9 is_stmt 1 view .LVU1181
 4587              		.loc 1 1345 11 is_stmt 0 view .LVU1182
 4588 0360 13F4802F 		tst	r3, #262144
 4589              		.loc 1 1348 55 view .LVU1183
 4590 0364 1368     		ldr	r3, [r2]
 4591              		.loc 1 1345 11 view .LVU1184
 4592 0366 00F0D880 		beq	.L350
 4593              		.loc 1 1348 11 is_stmt 1 view .LVU1185
 4594              		.loc 1 1348 13 is_stmt 0 view .LVU1186
 4595 036a 1F03     		lsls	r7, r3, #12
 4596 036c 40F1E380 		bpl	.L487
 4597              	.L352:
 4598              		.loc 1 1378 13 is_stmt 1 discriminator 1 view .LVU1187
 4599              		.loc 1 1381 11 discriminator 1 view .LVU1188
 4600              		.loc 1 1381 18 is_stmt 0 discriminator 1 view .LVU1189
 4601 0370 F36B     		ldr	r3, [r6, #60]
 4602              		.loc 1 1381 13 discriminator 1 view .LVU1190
 4603 0372 0BB1     		cbz	r3, .L341
 4604              	.L476:
 4605              		.loc 1 1384 13 is_stmt 1 view .LVU1191
 4606 0374 3046     		mov	r0, r6
 4607 0376 9847     		blx	r3
 4608              	.LVL198:
 4609              	.L341:
 4610              		.loc 1 1391 5 view .LVU1192
 4611              		.loc 1 1391 12 is_stmt 0 view .LVU1193
 4612 0378 736D     		ldr	r3, [r6, #84]
 4613              		.loc 1 1391 7 view .LVU1194
 4614 037a 002B     		cmp	r3, #0
 4615 037c 00F0C180 		beq	.L315
 4616              		.loc 1 1393 7 is_stmt 1 view .LVU1195
 4617              		.loc 1 1393 15 is_stmt 0 view .LVU1196
ARM GAS  C:\Users\DEVELO~1\AppData\Local\Temp\ccHliN1u.s 			page 82


 4618 0380 736D     		ldr	r3, [r6, #84]
 4619              		.loc 1 1393 9 view .LVU1197
 4620 0382 DC07     		lsls	r4, r3, #31
 4621              	.LVL199:
 4622              		.loc 1 1393 9 view .LVU1198
 4623 0384 1ED5     		bpl	.L353
 4624              		.loc 1 1395 9 is_stmt 1 view .LVU1199
 4625              		.loc 1 1398 9 is_stmt 0 view .LVU1200
 4626 0386 3268     		ldr	r2, [r6]
 4627              		.loc 1 1395 21 view .LVU1201
 4628 0388 0421     		movs	r1, #4
 4629 038a 86F83510 		strb	r1, [r6, #53]
 4630              		.loc 1 1398 9 is_stmt 1 view .LVU1202
 4631              		.loc 1 1213 12 is_stmt 0 view .LVU1203
 4632 038e 6F49     		ldr	r1, .L493+12
 4633              		.loc 1 1398 9 view .LVU1204
 4634 0390 1368     		ldr	r3, [r2]
 4635              		.loc 1 1213 12 view .LVU1205
 4636 0392 A1FB0551 		umull	r5, r1, r1, r5
 4637              	.LVL200:
 4638              		.loc 1 1398 9 view .LVU1206
 4639 0396 23F00103 		bic	r3, r3, #1
 4640              		.loc 1 1213 12 view .LVU1207
 4641 039a 890A     		lsrs	r1, r1, #10
 4642              		.loc 1 1398 9 view .LVU1208
 4643 039c 1360     		str	r3, [r2]
 4644 039e 02E0     		b	.L358
 4645              	.L488:
 4646              		.loc 1 1407 56 view .LVU1209
 4647 03a0 1368     		ldr	r3, [r2]
 4648              		.loc 1 1407 76 view .LVU1210
 4649 03a2 D807     		lsls	r0, r3, #31
 4650 03a4 04D5     		bpl	.L357
 4651              	.L358:
 4652              		.loc 1 1400 9 is_stmt 1 view .LVU1211
 4653              		.loc 1 1402 11 view .LVU1212
 4654              		.loc 1 1407 76 view .LVU1213
 4655              		.loc 1 1402 15 is_stmt 0 view .LVU1214
 4656 03a6 019B     		ldr	r3, [sp, #4]
 4657 03a8 0133     		adds	r3, r3, #1
 4658              		.loc 1 1402 14 view .LVU1215
 4659 03aa 8B42     		cmp	r3, r1
 4660 03ac 0193     		str	r3, [sp, #4]
 4661 03ae F7D9     		bls	.L488
 4662              	.L357:
 4663              		.loc 1 1409 9 is_stmt 1 view .LVU1216
 4664              		.loc 1 1409 53 is_stmt 0 view .LVU1217
 4665 03b0 1368     		ldr	r3, [r2]
 4666              		.loc 1 1409 11 view .LVU1218
 4667 03b2 DB07     		lsls	r3, r3, #31
 4668              		.loc 1 1412 11 is_stmt 1 view .LVU1219
 4669              		.loc 1 1412 23 is_stmt 0 view .LVU1220
 4670 03b4 4CBF     		ite	mi
 4671 03b6 0323     		movmi	r3, #3
 4672              		.loc 1 1417 11 is_stmt 1 view .LVU1221
 4673              		.loc 1 1417 23 is_stmt 0 view .LVU1222
 4674 03b8 0123     		movpl	r3, #1
ARM GAS  C:\Users\DEVELO~1\AppData\Local\Temp\ccHliN1u.s 			page 83


 4675 03ba 86F83530 		strb	r3, [r6, #53]
 4676              		.loc 1 1421 9 is_stmt 1 view .LVU1223
 4677              		.loc 1 1421 9 view .LVU1224
 4678 03be 0023     		movs	r3, #0
 4679 03c0 86F83430 		strb	r3, [r6, #52]
 4680              	.L353:
 4681              		.loc 1 1421 9 discriminator 1 view .LVU1225
 4682              		.loc 1 1424 7 discriminator 1 view .LVU1226
 4683              		.loc 1 1424 14 is_stmt 0 discriminator 1 view .LVU1227
 4684 03c4 F36C     		ldr	r3, [r6, #76]
 4685              		.loc 1 1424 9 discriminator 1 view .LVU1228
 4686 03c6 002B     		cmp	r3, #0
 4687 03c8 00F09B80 		beq	.L315
 4688              	.L479:
 4689              		.loc 1 1527 11 is_stmt 1 view .LVU1229
 4690 03cc 3046     		mov	r0, r6
 4691              		.loc 1 1566 1 is_stmt 0 view .LVU1230
 4692 03ce 02B0     		add	sp, sp, #8
 4693              		.cfi_remember_state
 4694              		.cfi_def_cfa_offset 24
 4695              		@ sp needed
 4696 03d0 BDE8F041 		pop	{r4, r5, r6, r7, r8, lr}
 4697              		.cfi_restore 14
 4698              		.cfi_restore 8
 4699              		.cfi_restore 7
 4700              		.cfi_restore 6
 4701              		.cfi_restore 5
 4702              		.cfi_restore 4
 4703              		.cfi_def_cfa_offset 0
 4704              	.LVL201:
 4705              		.loc 1 1527 11 view .LVU1231
 4706 03d4 1847     		bx	r3	@ indirect register sibling call
 4707              	.LVL202:
 4708              	.L369:
 4709              		.cfi_restore_state
 4710              		.loc 1 1227 10 discriminator 29 view .LVU1232
 4711 03d6 D3F800E0 		ldr	lr, [r3]
 4712              		.loc 1 1227 9 discriminator 29 view .LVU1233
 4713 03da 1EF0040F 		tst	lr, #4
 4714 03de 0AD0     		beq	.L320
 4715              		.loc 1 1230 9 is_stmt 1 view .LVU1234
 4716              		.loc 1 1230 55 is_stmt 0 view .LVU1235
 4717 03e0 D3F800E0 		ldr	lr, [r3]
 4718 03e4 2EF0040E 		bic	lr, lr, #4
 4719 03e8 C3F800E0 		str	lr, [r3]
 4720              		.loc 1 1233 9 is_stmt 1 view .LVU1236
 4721              		.loc 1 1233 24 is_stmt 0 view .LVU1237
 4722 03ec A260     		str	r2, [r4, #8]
 4723              		.loc 1 1236 9 is_stmt 1 view .LVU1238
 4724              		.loc 1 1236 25 is_stmt 0 view .LVU1239
 4725 03ee 726D     		ldr	r2, [r6, #84]
 4726 03f0 42F00102 		orr	r2, r2, #1
 4727 03f4 7265     		str	r2, [r6, #84]
 4728              	.L320:
 4729              		.loc 1 1240 5 is_stmt 1 view .LVU1240
 4730              		.loc 1 1240 74 is_stmt 0 view .LVU1241
 4731 03f6 27FA0CF2 		lsr	r2, r7, ip
ARM GAS  C:\Users\DEVELO~1\AppData\Local\Temp\ccHliN1u.s 			page 84


 4732              		.loc 1 1240 8 view .LVU1242
 4733 03fa D207     		lsls	r2, r2, #31
 4734 03fc 7FF57DAE 		bpl	.L321
 4735              		.loc 1 1242 7 is_stmt 1 discriminator 2 view .LVU1243
 4736              		.loc 1 1242 10 is_stmt 0 discriminator 2 view .LVU1244
 4737 0400 534A     		ldr	r2, .L493+16
 4738 0402 DFF850E1 		ldr	lr, .L493+20
 4739 0406 7345     		cmp	r3, lr
 4740 0408 18BF     		it	ne
 4741 040a 9342     		cmpne	r3, r2
 4742 040c 0EF1300E 		add	lr, lr, #48
 4743 0410 0CBF     		ite	eq
 4744 0412 0122     		moveq	r2, #1
 4745 0414 0022     		movne	r2, #0
 4746 0416 7345     		cmp	r3, lr
 4747 0418 08BF     		it	eq
 4748 041a 42F00102 		orreq	r2, r2, #1
 4749 041e 0EF1180E 		add	lr, lr, #24
 4750 0422 7345     		cmp	r3, lr
 4751 0424 08BF     		it	eq
 4752 0426 42F00102 		orreq	r2, r2, #1
 4753 042a 0EF1180E 		add	lr, lr, #24
 4754 042e 7345     		cmp	r3, lr
 4755 0430 08BF     		it	eq
 4756 0432 42F00102 		orreq	r2, r2, #1
 4757 0436 0EF1180E 		add	lr, lr, #24
 4758 043a 7345     		cmp	r3, lr
 4759 043c 08BF     		it	eq
 4760 043e 42F00102 		orreq	r2, r2, #1
 4761 0442 0EF5567E 		add	lr, lr, #856
 4762 0446 7345     		cmp	r3, lr
 4763 0448 08BF     		it	eq
 4764 044a 42F00102 		orreq	r2, r2, #1
 4765 044e 0EF1180E 		add	lr, lr, #24
 4766 0452 7345     		cmp	r3, lr
 4767 0454 08BF     		it	eq
 4768 0456 42F00102 		orreq	r2, r2, #1
 4769 045a 0EF1180E 		add	lr, lr, #24
 4770 045e 7345     		cmp	r3, lr
 4771 0460 08BF     		it	eq
 4772 0462 42F00102 		orreq	r2, r2, #1
 4773 0466 0EF1180E 		add	lr, lr, #24
 4774 046a 7345     		cmp	r3, lr
 4775 046c 08BF     		it	eq
 4776 046e 42F00102 		orreq	r2, r2, #1
 4777 0472 0EF1180E 		add	lr, lr, #24
 4778 0476 7345     		cmp	r3, lr
 4779 0478 08BF     		it	eq
 4780 047a 42F00102 		orreq	r2, r2, #1
 4781 047e 0EF1180E 		add	lr, lr, #24
 4782 0482 7345     		cmp	r3, lr
 4783 0484 08BF     		it	eq
 4784 0486 42F00102 		orreq	r2, r2, #1
 4785 048a 0EF1180E 		add	lr, lr, #24
 4786 048e 7345     		cmp	r3, lr
 4787 0490 08BF     		it	eq
 4788 0492 42F00102 		orreq	r2, r2, #1
ARM GAS  C:\Users\DEVELO~1\AppData\Local\Temp\ccHliN1u.s 			page 85


 4789 0496 0EF1180E 		add	lr, lr, #24
 4790 049a 7345     		cmp	r3, lr
 4791 049c 08BF     		it	eq
 4792 049e 42F00102 		orreq	r2, r2, #1
 4793 04a2 002A     		cmp	r2, #0
 4794 04a4 7FF41EAE 		bne	.L371
 4795 04a8 0028     		cmp	r0, #0
 4796 04aa 7FF41BAE 		bne	.L371
 4797              		.loc 1 1242 10 discriminator 30 view .LVU1245
 4798 04ae 1A68     		ldr	r2, [r3]
 4799              		.loc 1 1252 5 is_stmt 1 discriminator 30 view .LVU1246
 4800              		.loc 1 1252 42 is_stmt 0 discriminator 30 view .LVU1247
 4801 04b0 0422     		movs	r2, #4
 4802 04b2 02FA0CF2 		lsl	r2, r2, ip
 4803              		.loc 1 1252 8 discriminator 30 view .LVU1248
 4804 04b6 3A42     		tst	r2, r7
 4805 04b8 40F08C80 		bne	.L325
 4806              		.loc 1 1264 5 is_stmt 1 view .LVU1249
 4807              		.loc 1 1264 41 is_stmt 0 view .LVU1250
 4808 04bc 1022     		movs	r2, #16
 4809 04be 02FA0CFC 		lsl	ip, r2, ip
 4810              		.loc 1 1264 8 view .LVU1251
 4811 04c2 17EA0C0F 		tst	r7, ip
 4812 04c6 3FF4EAAE 		beq	.L332
 4813 04ca 80E6     		b	.L372
 4814              	.LVL203:
 4815              	.L486:
 4816              		.loc 1 1321 11 is_stmt 1 view .LVU1252
 4817              		.loc 1 1321 57 is_stmt 0 view .LVU1253
 4818 04cc 23F01603 		bic	r3, r3, #22
 4819 04d0 1360     		str	r3, [r2]
 4820              		.loc 1 1322 11 is_stmt 1 view .LVU1254
 4821              		.loc 1 1322 57 is_stmt 0 view .LVU1255
 4822 04d2 5369     		ldr	r3, [r2, #20]
 4823 04d4 23F08003 		bic	r3, r3, #128
 4824 04d8 5361     		str	r3, [r2, #20]
 4825              		.loc 1 1324 11 is_stmt 1 view .LVU1256
 4826              		.loc 1 1324 13 is_stmt 0 view .LVU1257
 4827 04da 336C     		ldr	r3, [r6, #64]
 4828 04dc 002B     		cmp	r3, #0
 4829 04de 3BD0     		beq	.L489
 4830              	.L347:
 4831              		.loc 1 1326 13 is_stmt 1 view .LVU1258
 4832              		.loc 1 1326 59 is_stmt 0 view .LVU1259
 4833 04e0 1368     		ldr	r3, [r2]
 4834 04e2 23F00803 		bic	r3, r3, #8
 4835 04e6 1360     		str	r3, [r2]
 4836              	.L348:
 4837              		.loc 1 1330 11 is_stmt 1 view .LVU1260
 4838              		.loc 1 1330 35 is_stmt 0 view .LVU1261
 4839 04e8 3F23     		movs	r3, #63
 4840              		.loc 1 1333 23 view .LVU1262
 4841 04ea 0120     		movs	r0, #1
 4842              		.loc 1 1336 11 view .LVU1263
 4843 04ec 0022     		movs	r2, #0
 4844              		.loc 1 1330 35 view .LVU1264
 4845 04ee 8B40     		lsls	r3, r3, r1
ARM GAS  C:\Users\DEVELO~1\AppData\Local\Temp\ccHliN1u.s 			page 86


 4846              		.loc 1 1330 26 view .LVU1265
 4847 04f0 A360     		str	r3, [r4, #8]
 4848              		.loc 1 1333 11 is_stmt 1 view .LVU1266
 4849              		.loc 1 1338 18 is_stmt 0 view .LVU1267
 4850 04f2 336D     		ldr	r3, [r6, #80]
 4851              		.loc 1 1333 23 view .LVU1268
 4852 04f4 86F83500 		strb	r0, [r6, #53]
 4853              		.loc 1 1336 11 is_stmt 1 view .LVU1269
 4854              		.loc 1 1336 11 view .LVU1270
 4855 04f8 86F83420 		strb	r2, [r6, #52]
 4856              		.loc 1 1336 11 view .LVU1271
 4857              		.loc 1 1338 11 view .LVU1272
 4858              		.loc 1 1338 13 is_stmt 0 view .LVU1273
 4859 04fc 002B     		cmp	r3, #0
 4860 04fe 7FF465AF 		bne	.L479
 4861              	.LVL204:
 4862              	.L315:
 4863              		.loc 1 1566 1 view .LVU1274
 4864 0502 02B0     		add	sp, sp, #8
 4865              		.cfi_remember_state
 4866              		.cfi_def_cfa_offset 24
 4867              		@ sp needed
 4868 0504 BDE8F081 		pop	{r4, r5, r6, r7, r8, pc}
 4869              	.LVL205:
 4870              	.L485:
 4871              		.cfi_restore_state
 4872              		.loc 1 1275 11 is_stmt 1 view .LVU1275
 4873              		.loc 1 1275 55 is_stmt 0 view .LVU1276
 4874 0508 1B68     		ldr	r3, [r3]
 4875              		.loc 1 1275 13 view .LVU1277
 4876 050a 1803     		lsls	r0, r3, #12
 4877 050c 7FF5B5AE 		bpl	.L339
 4878              		.loc 1 1286 13 is_stmt 1 view .LVU1278
 4879              		.loc 1 1286 20 is_stmt 0 view .LVU1279
 4880 0510 B36C     		ldr	r3, [r6, #72]
 4881              		.loc 1 1286 15 view .LVU1280
 4882 0512 002B     		cmp	r3, #0
 4883 0514 7FF4C0AE 		bne	.L475
 4884 0518 C1E6     		b	.L332
 4885              	.LVL206:
 4886              	.L350:
 4887              		.loc 1 1369 11 is_stmt 1 view .LVU1281
 4888              		.loc 1 1369 13 is_stmt 0 view .LVU1282
 4889 051a 13F48073 		ands	r3, r3, #256
 4890 051e 7FF427AF 		bne	.L352
 4891              		.loc 1 1372 13 is_stmt 1 view .LVU1283
 4892              		.loc 1 1372 59 is_stmt 0 view .LVU1284
 4893 0522 1168     		ldr	r1, [r2]
 4894 0524 21F01001 		bic	r1, r1, #16
 4895 0528 1160     		str	r1, [r2]
 4896              		.loc 1 1375 13 is_stmt 1 view .LVU1285
 4897              		.loc 1 1375 25 is_stmt 0 view .LVU1286
 4898 052a 0122     		movs	r2, #1
 4899              		.loc 1 1378 13 view .LVU1287
 4900 052c 86F83430 		strb	r3, [r6, #52]
 4901              		.loc 1 1375 25 view .LVU1288
 4902 0530 86F83520 		strb	r2, [r6, #53]
ARM GAS  C:\Users\DEVELO~1\AppData\Local\Temp\ccHliN1u.s 			page 87


 4903              		.loc 1 1378 13 is_stmt 1 view .LVU1289
 4904              		.loc 1 1378 13 view .LVU1290
 4905 0534 1CE7     		b	.L352
 4906              	.L487:
 4907              		.loc 1 1350 13 view .LVU1291
 4908              		.loc 1 1350 20 is_stmt 0 view .LVU1292
 4909 0536 736C     		ldr	r3, [r6, #68]
 4910              		.loc 1 1350 15 view .LVU1293
 4911 0538 002B     		cmp	r3, #0
 4912 053a 7FF41BAF 		bne	.L476
 4913 053e 1BE7     		b	.L341
 4914              	.L494:
 4915              		.align	2
 4916              	.L493:
 4917 0540 10000240 		.word	1073872912
 4918 0544 28000240 		.word	1073872936
 4919 0548 B8040240 		.word	1073874104
 4920 054c B5814E1B 		.word	458129845
 4921 0550 58000240 		.word	1073872984
 4922 0554 40000240 		.word	1073872960
 4923              	.L489:
 4924              		.loc 1 1324 51 discriminator 1 view .LVU1294
 4925 0558 B36C     		ldr	r3, [r6, #72]
 4926 055a 002B     		cmp	r3, #0
 4927 055c C0D1     		bne	.L347
 4928 055e C3E7     		b	.L348
 4929              	.LVL207:
 4930              	.L484:
 4931              		.loc 1 1431 8 is_stmt 1 view .LVU1295
 4932              		.loc 1 1431 11 is_stmt 0 view .LVU1296
 4933 0560 4B4A     		ldr	r2, .L495
 4934 0562 4C48     		ldr	r0, .L495+4
 4935 0564 8342     		cmp	r3, r0
 4936 0566 18BF     		it	ne
 4937 0568 9342     		cmpne	r3, r2
 4938 056a 00F11400 		add	r0, r0, #20
 4939 056e 0CBF     		ite	eq
 4940 0570 0122     		moveq	r2, #1
 4941 0572 0022     		movne	r2, #0
 4942 0574 8342     		cmp	r3, r0
 4943 0576 08BF     		it	eq
 4944 0578 42F00102 		orreq	r2, r2, #1
 4945 057c 1430     		adds	r0, r0, #20
 4946 057e 8342     		cmp	r3, r0
 4947 0580 08BF     		it	eq
 4948 0582 42F00102 		orreq	r2, r2, #1
 4949 0586 1430     		adds	r0, r0, #20
 4950 0588 8342     		cmp	r3, r0
 4951 058a 08BF     		it	eq
 4952 058c 42F00102 		orreq	r2, r2, #1
 4953 0590 1430     		adds	r0, r0, #20
 4954 0592 8342     		cmp	r3, r0
 4955 0594 08BF     		it	eq
 4956 0596 42F00102 		orreq	r2, r2, #1
 4957 059a 1430     		adds	r0, r0, #20
 4958 059c 8342     		cmp	r3, r0
 4959 059e 08BF     		it	eq
ARM GAS  C:\Users\DEVELO~1\AppData\Local\Temp\ccHliN1u.s 			page 88


 4960 05a0 42F00102 		orreq	r2, r2, #1
 4961 05a4 12B9     		cbnz	r2, .L318
 4962 05a6 3C4A     		ldr	r2, .L495+8
 4963 05a8 9342     		cmp	r3, r2
 4964 05aa AAD1     		bne	.L315
 4965              	.L318:
 4966              		.loc 1 1433 5 is_stmt 1 view .LVU1297
 4967              		.loc 1 1436 62 is_stmt 0 view .LVU1298
 4968 05ac F06D     		ldr	r0, [r6, #92]
 4969              		.loc 1 1436 40 view .LVU1299
 4970 05ae 0425     		movs	r5, #4
 4971              	.LVL208:
 4972              		.loc 1 1433 13 view .LVU1300
 4973 05b0 1A68     		ldr	r2, [r3]
 4974              	.LVL209:
 4975              		.loc 1 1436 5 is_stmt 1 view .LVU1301
 4976              		.loc 1 1436 62 is_stmt 0 view .LVU1302
 4977 05b2 00F01F00 		and	r0, r0, #31
 4978              		.loc 1 1436 40 view .LVU1303
 4979 05b6 8540     		lsls	r5, r5, r0
 4980              		.loc 1 1436 8 view .LVU1304
 4981 05b8 0D42     		tst	r5, r1
 4982 05ba 18D0     		beq	.L361
 4983              		.loc 1 1436 80 discriminator 1 view .LVU1305
 4984 05bc 5707     		lsls	r7, r2, #29
 4985              	.LVL210:
 4986              		.loc 1 1436 80 discriminator 1 view .LVU1306
 4987 05be 16D5     		bpl	.L361
 4988              		.loc 1 1439 7 is_stmt 1 view .LVU1307
 4989              		.loc 1 1442 9 is_stmt 0 view .LVU1308
 4990 05c0 1004     		lsls	r0, r2, #16
 4991              		.loc 1 1439 23 view .LVU1309
 4992 05c2 6560     		str	r5, [r4, #4]
 4993              		.loc 1 1442 7 is_stmt 1 view .LVU1310
 4994              		.loc 1 1442 9 is_stmt 0 view .LVU1311
 4995 05c4 47D5     		bpl	.L362
 4996              		.loc 1 1445 9 is_stmt 1 view .LVU1312
 4997              		.loc 1 1445 11 is_stmt 0 view .LVU1313
 4998 05c6 D103     		lsls	r1, r2, #15
 4999              	.LVL211:
 5000              		.loc 1 1445 11 view .LVU1314
 5001 05c8 4BD4     		bmi	.L364
 5002              		.loc 1 1447 11 is_stmt 1 view .LVU1315
 5003              		.loc 1 1447 18 is_stmt 0 view .LVU1316
 5004 05ca B36C     		ldr	r3, [r6, #72]
 5005              		.loc 1 1447 13 view .LVU1317
 5006 05cc 002B     		cmp	r3, #0
 5007 05ce 7FF4FDAE 		bne	.L479
 5008 05d2 96E7     		b	.L315
 5009              	.LVL212:
 5010              	.L325:
 5011              		.loc 1 1254 10 discriminator 30 view .LVU1318
 5012 05d4 1A68     		ldr	r2, [r3]
 5013              		.loc 1 1264 5 is_stmt 1 discriminator 30 view .LVU1319
 5014              		.loc 1 1264 41 is_stmt 0 discriminator 30 view .LVU1320
 5015 05d6 1022     		movs	r2, #16
 5016 05d8 02FA0CFC 		lsl	ip, r2, ip
ARM GAS  C:\Users\DEVELO~1\AppData\Local\Temp\ccHliN1u.s 			page 89


 5017              		.loc 1 1264 8 discriminator 30 view .LVU1321
 5018 05dc 17EA0C0F 		tst	r7, ip
 5019 05e0 3FF45DAE 		beq	.L332
 5020              	.L331:
 5021              		.loc 1 1266 10 discriminator 30 view .LVU1322
 5022 05e4 1A68     		ldr	r2, [r3]
 5023              		.loc 1 1266 9 discriminator 30 view .LVU1323
 5024 05e6 5007     		lsls	r0, r2, #29
 5025 05e8 7FF559AE 		bpl	.L332
 5026 05ec 38E6     		b	.L336
 5027              	.LVL213:
 5028              	.L361:
 5029              		.loc 1 1483 10 is_stmt 1 view .LVU1324
 5030              		.loc 1 1483 45 is_stmt 0 view .LVU1325
 5031 05ee 0225     		movs	r5, #2
 5032 05f0 8540     		lsls	r5, r5, r0
 5033              		.loc 1 1483 13 view .LVU1326
 5034 05f2 0D42     		tst	r5, r1
 5035 05f4 10D0     		beq	.L365
 5036              		.loc 1 1483 85 discriminator 1 view .LVU1327
 5037 05f6 9707     		lsls	r7, r2, #30
 5038 05f8 0ED5     		bpl	.L365
 5039              		.loc 1 1486 7 is_stmt 1 view .LVU1328
 5040              		.loc 1 1486 23 is_stmt 0 view .LVU1329
 5041 05fa 6560     		str	r5, [r4, #4]
 5042              		.loc 1 1489 7 is_stmt 1 view .LVU1330
 5043              		.loc 1 1489 9 is_stmt 0 view .LVU1331
 5044 05fc 1404     		lsls	r4, r2, #16
 5045              	.LVL214:
 5046              		.loc 1 1489 9 view .LVU1332
 5047 05fe 35D5     		bpl	.L366
 5048              		.loc 1 1492 9 is_stmt 1 view .LVU1333
 5049              		.loc 1 1492 11 is_stmt 0 view .LVU1334
 5050 0600 D003     		lsls	r0, r2, #15
 5051 0602 3FD4     		bmi	.L368
 5052              		.loc 1 1494 11 is_stmt 1 view .LVU1335
 5053              		.loc 1 1494 18 is_stmt 0 view .LVU1336
 5054 0604 736C     		ldr	r3, [r6, #68]
 5055              		.loc 1 1494 13 view .LVU1337
 5056 0606 002B     		cmp	r3, #0
 5057 0608 7FF4E0AE 		bne	.L479
 5058 060c 79E7     		b	.L315
 5059              	.LVL215:
 5060              	.L342:
 5061              		.loc 1 1313 10 discriminator 30 view .LVU1338
 5062 060e 1368     		ldr	r3, [r2]
 5063              		.loc 1 1313 9 discriminator 30 view .LVU1339
 5064 0610 9B07     		lsls	r3, r3, #30
 5065 0612 7FF5B1AE 		bpl	.L341
 5066 0616 9CE6     		b	.L344
 5067              	.LVL216:
 5068              	.L365:
 5069              		.loc 1 1532 10 is_stmt 1 view .LVU1340
 5070              		.loc 1 1532 45 is_stmt 0 view .LVU1341
 5071 0618 0825     		movs	r5, #8
 5072 061a 8540     		lsls	r5, r5, r0
 5073              		.loc 1 1532 13 view .LVU1342
ARM GAS  C:\Users\DEVELO~1\AppData\Local\Temp\ccHliN1u.s 			page 90


 5074 061c 0D42     		tst	r5, r1
 5075 061e 3FF470AF 		beq	.L315
 5076              		.loc 1 1532 85 discriminator 1 view .LVU1343
 5077 0622 1107     		lsls	r1, r2, #28
 5078              	.LVL217:
 5079              		.loc 1 1532 85 discriminator 1 view .LVU1344
 5080 0624 7FF56DAF 		bpl	.L315
 5081              		.loc 1 1537 7 is_stmt 1 discriminator 30 view .LVU1345
 5082 0628 1A68     		ldr	r2, [r3]
 5083              	.LVL218:
 5084              		.loc 1 1549 7 is_stmt 0 discriminator 30 view .LVU1346
 5085 062a 0021     		movs	r1, #0
 5086              		.loc 1 1537 7 discriminator 30 view .LVU1347
 5087 062c 22F00E02 		bic	r2, r2, #14
 5088 0630 1A60     		str	r2, [r3]
 5089              		.loc 1 1540 7 is_stmt 1 discriminator 30 view .LVU1348
 5090              		.loc 1 1540 41 is_stmt 0 discriminator 30 view .LVU1349
 5091 0632 0123     		movs	r3, #1
 5092              		.loc 1 1551 15 discriminator 30 view .LVU1350
 5093 0634 F26C     		ldr	r2, [r6, #76]
 5094              		.loc 1 1540 41 discriminator 30 view .LVU1351
 5095 0636 03FA00F0 		lsl	r0, r3, r0
 5096              		.loc 1 1540 23 discriminator 30 view .LVU1352
 5097 063a 6060     		str	r0, [r4, #4]
 5098              		.loc 1 1543 7 is_stmt 1 discriminator 30 view .LVU1353
 5099              		.loc 1 1543 23 is_stmt 0 discriminator 30 view .LVU1354
 5100 063c 7365     		str	r3, [r6, #84]
 5101              		.loc 1 1546 7 is_stmt 1 discriminator 30 view .LVU1355
 5102              		.loc 1 1549 7 is_stmt 0 discriminator 30 view .LVU1356
 5103 063e 86F83410 		strb	r1, [r6, #52]
 5104              		.loc 1 1546 19 discriminator 30 view .LVU1357
 5105 0642 86F83530 		strb	r3, [r6, #53]
 5106              		.loc 1 1549 7 is_stmt 1 discriminator 30 view .LVU1358
 5107              		.loc 1 1549 7 discriminator 30 view .LVU1359
 5108              		.loc 1 1549 7 discriminator 30 view .LVU1360
 5109              		.loc 1 1551 7 discriminator 30 view .LVU1361
 5110              		.loc 1 1551 10 is_stmt 0 discriminator 30 view .LVU1362
 5111 0646 002A     		cmp	r2, #0
 5112 0648 3FF45BAF 		beq	.L315
 5113              		.loc 1 1554 9 is_stmt 1 view .LVU1363
 5114 064c 3046     		mov	r0, r6
 5115              		.loc 1 1566 1 is_stmt 0 view .LVU1364
 5116 064e 02B0     		add	sp, sp, #8
 5117              		.cfi_remember_state
 5118              		.cfi_def_cfa_offset 24
 5119              		@ sp needed
 5120 0650 BDE8F041 		pop	{r4, r5, r6, r7, r8, lr}
 5121              		.cfi_restore 14
 5122              		.cfi_restore 8
 5123              		.cfi_restore 7
 5124              		.cfi_restore 6
 5125              		.cfi_restore 5
 5126              		.cfi_restore 4
 5127              		.cfi_def_cfa_offset 0
 5128              	.LVL219:
 5129              		.loc 1 1554 9 view .LVU1365
 5130 0654 1047     		bx	r2	@ indirect register sibling call
ARM GAS  C:\Users\DEVELO~1\AppData\Local\Temp\ccHliN1u.s 			page 91


 5131              	.LVL220:
 5132              	.L362:
 5133              		.cfi_restore_state
 5134              		.loc 1 1465 9 is_stmt 1 view .LVU1366
 5135              		.loc 1 1465 11 is_stmt 0 view .LVU1367
 5136 0656 9206     		lsls	r2, r2, #26
 5137              	.LVL221:
 5138              		.loc 1 1465 11 view .LVU1368
 5139 0658 03D4     		bmi	.L364
 5140              		.loc 1 1468 11 is_stmt 1 discriminator 30 view .LVU1369
 5141 065a 1A68     		ldr	r2, [r3]
 5142 065c 22F00402 		bic	r2, r2, #4
 5143 0660 1A60     		str	r2, [r3]
 5144              	.LVL222:
 5145              	.L364:
 5146              		.loc 1 1474 8 view .LVU1370
 5147              		.loc 1 1474 15 is_stmt 0 view .LVU1371
 5148 0662 336C     		ldr	r3, [r6, #64]
 5149              		.loc 1 1474 10 view .LVU1372
 5150 0664 002B     		cmp	r3, #0
 5151 0666 7FF4B1AE 		bne	.L479
 5152 066a 4AE7     		b	.L315
 5153              	.LVL223:
 5154              	.L366:
 5155              		.loc 1 1512 9 is_stmt 1 view .LVU1373
 5156              		.loc 1 1512 11 is_stmt 0 view .LVU1374
 5157 066c 12F02002 		ands	r2, r2, #32
 5158              	.LVL224:
 5159              		.loc 1 1512 11 view .LVU1375
 5160 0670 08D1     		bne	.L368
 5161              		.loc 1 1515 11 is_stmt 1 discriminator 30 view .LVU1376
 5162 0672 1968     		ldr	r1, [r3]
 5163              	.LVL225:
 5164              		.loc 1 1518 23 is_stmt 0 discriminator 30 view .LVU1377
 5165 0674 0120     		movs	r0, #1
 5166              		.loc 1 1515 11 discriminator 30 view .LVU1378
 5167 0676 21F00A01 		bic	r1, r1, #10
 5168 067a 1960     		str	r1, [r3]
 5169              		.loc 1 1518 11 is_stmt 1 discriminator 30 view .LVU1379
 5170              		.loc 1 1518 23 is_stmt 0 discriminator 30 view .LVU1380
 5171 067c 86F83500 		strb	r0, [r6, #53]
 5172              		.loc 1 1521 11 is_stmt 1 discriminator 30 view .LVU1381
 5173              		.loc 1 1521 11 discriminator 30 view .LVU1382
 5174 0680 86F83420 		strb	r2, [r6, #52]
 5175              	.L368:
 5176              		.loc 1 1521 11 discriminator 1 view .LVU1383
 5177              		.loc 1 1524 9 discriminator 1 view .LVU1384
 5178              		.loc 1 1524 16 is_stmt 0 discriminator 1 view .LVU1385
 5179 0684 F36B     		ldr	r3, [r6, #60]
 5180              		.loc 1 1524 11 discriminator 1 view .LVU1386
 5181 0686 002B     		cmp	r3, #0
 5182 0688 7FF4A0AE 		bne	.L479
 5183 068c 39E7     		b	.L315
 5184              	.L496:
 5185 068e 00BF     		.align	2
 5186              	.L495:
 5187 0690 08540258 		.word	1476547592
ARM GAS  C:\Users\DEVELO~1\AppData\Local\Temp\ccHliN1u.s 			page 92


 5188 0694 1C540258 		.word	1476547612
 5189 0698 94540258 		.word	1476547732
 5190              		.cfi_endproc
 5191              	.LFE148:
 5192              		.size	HAL_DMA_IRQHandler, .-HAL_DMA_IRQHandler
 5193              		.section	.text.HAL_DMA_RegisterCallback,"ax",%progbits
 5194              		.align	1
 5195              		.p2align 4,,15
 5196              		.global	HAL_DMA_RegisterCallback
 5197              		.syntax unified
 5198              		.thumb
 5199              		.thumb_func
 5200              		.type	HAL_DMA_RegisterCallback, %function
 5201              	HAL_DMA_RegisterCallback:
 5202              	.LVL226:
 5203              	.LFB149:
 5204              		.loc 1 1579 1 is_stmt 1 view -0
 5205              		.cfi_startproc
 5206              		@ args = 0, pretend = 0, frame = 0
 5207              		@ frame_needed = 0, uses_anonymous_args = 0
 5208              		@ link register save eliminated.
 5209              		.loc 1 1581 3 view .LVU1388
 5210              		.loc 1 1584 3 view .LVU1389
 5211              		.loc 1 1584 5 is_stmt 0 view .LVU1390
 5212 0000 0346     		mov	r3, r0
 5213 0002 B0B1     		cbz	r0, .L507
 5214              		.loc 1 1590 3 is_stmt 1 view .LVU1391
 5215              		.loc 1 1590 3 view .LVU1392
 5216 0004 90F83400 		ldrb	r0, [r0, #52]	@ zero_extendqisi2
 5217              	.LVL227:
 5218              		.loc 1 1590 3 is_stmt 0 view .LVU1393
 5219 0008 0128     		cmp	r0, #1
 5220 000a 14D0     		beq	.L508
 5221              		.loc 1 1590 3 is_stmt 1 discriminator 2 view .LVU1394
 5222              		.loc 1 1590 3 discriminator 2 view .LVU1395
 5223              		.loc 1 1592 3 discriminator 2 view .LVU1396
 5224              		.loc 1 1592 33 is_stmt 0 discriminator 2 view .LVU1397
 5225 000c 93F835C0 		ldrb	ip, [r3, #53]	@ zero_extendqisi2
 5226              		.loc 1 1592 5 discriminator 2 view .LVU1398
 5227 0010 BCF1010F 		cmp	ip, #1
 5228              		.loc 1 1592 33 discriminator 2 view .LVU1399
 5229 0014 5FFA8CF0 		uxtb	r0, ip
 5230              		.loc 1 1592 5 discriminator 2 view .LVU1400
 5231 0018 04D0     		beq	.L511
 5232              		.loc 1 1628 12 view .LVU1401
 5233 001a 0120     		movs	r0, #1
 5234              	.L499:
 5235              	.LVL228:
 5236              		.loc 1 1632 3 is_stmt 1 view .LVU1402
 5237              		.loc 1 1632 3 view .LVU1403
 5238 001c 0022     		movs	r2, #0
 5239              	.LVL229:
 5240              		.loc 1 1632 3 is_stmt 0 view .LVU1404
 5241 001e 83F83420 		strb	r2, [r3, #52]
 5242              		.loc 1 1632 3 is_stmt 1 view .LVU1405
 5243              		.loc 1 1634 3 view .LVU1406
 5244              		.loc 1 1634 10 is_stmt 0 view .LVU1407
ARM GAS  C:\Users\DEVELO~1\AppData\Local\Temp\ccHliN1u.s 			page 93


 5245 0022 7047     		bx	lr
 5246              	.LVL230:
 5247              	.L511:
 5248              		.loc 1 1594 5 is_stmt 1 view .LVU1408
 5249 0024 0529     		cmp	r1, #5
 5250 0026 F9D8     		bhi	.L499
 5251 0028 DFE801F0 		tbb	[pc, r1]
 5252              	.L501:
 5253 002c 0A       		.byte	(.L506-.L501)/2
 5254 002d 0D       		.byte	(.L505-.L501)/2
 5255 002e 10       		.byte	(.L504-.L501)/2
 5256 002f 13       		.byte	(.L503-.L501)/2
 5257 0030 16       		.byte	(.L502-.L501)/2
 5258 0031 07       		.byte	(.L500-.L501)/2
 5259              	.LVL231:
 5260              		.p2align 1
 5261              	.L507:
 5262              		.loc 1 1586 12 is_stmt 0 view .LVU1409
 5263 0032 0120     		movs	r0, #1
 5264              	.LVL232:
 5265              		.loc 1 1586 12 view .LVU1410
 5266 0034 7047     		bx	lr
 5267              	.L508:
 5268              		.loc 1 1590 3 view .LVU1411
 5269 0036 0220     		movs	r0, #2
 5270              		.loc 1 1635 1 view .LVU1412
 5271 0038 7047     		bx	lr
 5272              	.L500:
 5273              		.loc 1 1617 7 is_stmt 1 view .LVU1413
 5274              		.loc 1 1581 21 is_stmt 0 view .LVU1414
 5275 003a 0020     		movs	r0, #0
 5276              		.loc 1 1617 31 view .LVU1415
 5277 003c 1A65     		str	r2, [r3, #80]
 5278              		.loc 1 1618 7 is_stmt 1 view .LVU1416
 5279 003e EDE7     		b	.L499
 5280              	.L506:
 5281              		.loc 1 1597 7 view .LVU1417
 5282              		.loc 1 1581 21 is_stmt 0 view .LVU1418
 5283 0040 0846     		mov	r0, r1
 5284              		.loc 1 1597 30 view .LVU1419
 5285 0042 DA63     		str	r2, [r3, #60]
 5286              		.loc 1 1598 7 is_stmt 1 view .LVU1420
 5287 0044 EAE7     		b	.L499
 5288              	.L505:
 5289              		.loc 1 1601 7 view .LVU1421
 5290              		.loc 1 1581 21 is_stmt 0 view .LVU1422
 5291 0046 0020     		movs	r0, #0
 5292              		.loc 1 1601 34 view .LVU1423
 5293 0048 1A64     		str	r2, [r3, #64]
 5294              		.loc 1 1602 7 is_stmt 1 view .LVU1424
 5295 004a E7E7     		b	.L499
 5296              	.L504:
 5297              		.loc 1 1605 7 view .LVU1425
 5298              		.loc 1 1581 21 is_stmt 0 view .LVU1426
 5299 004c 0020     		movs	r0, #0
 5300              		.loc 1 1605 32 view .LVU1427
 5301 004e 5A64     		str	r2, [r3, #68]
ARM GAS  C:\Users\DEVELO~1\AppData\Local\Temp\ccHliN1u.s 			page 94


 5302              		.loc 1 1606 7 is_stmt 1 view .LVU1428
 5303 0050 E4E7     		b	.L499
 5304              	.L503:
 5305              		.loc 1 1609 7 view .LVU1429
 5306              		.loc 1 1581 21 is_stmt 0 view .LVU1430
 5307 0052 0020     		movs	r0, #0
 5308              		.loc 1 1609 36 view .LVU1431
 5309 0054 9A64     		str	r2, [r3, #72]
 5310              		.loc 1 1610 7 is_stmt 1 view .LVU1432
 5311 0056 E1E7     		b	.L499
 5312              	.L502:
 5313              		.loc 1 1613 7 view .LVU1433
 5314              		.loc 1 1581 21 is_stmt 0 view .LVU1434
 5315 0058 0020     		movs	r0, #0
 5316              		.loc 1 1613 31 view .LVU1435
 5317 005a DA64     		str	r2, [r3, #76]
 5318              		.loc 1 1614 7 is_stmt 1 view .LVU1436
 5319 005c DEE7     		b	.L499
 5320              		.cfi_endproc
 5321              	.LFE149:
 5322              		.size	HAL_DMA_RegisterCallback, .-HAL_DMA_RegisterCallback
 5323 005e 00BF     		.section	.text.HAL_DMA_UnRegisterCallback,"ax",%progbits
 5324              		.align	1
 5325              		.p2align 4,,15
 5326              		.global	HAL_DMA_UnRegisterCallback
 5327              		.syntax unified
 5328              		.thumb
 5329              		.thumb_func
 5330              		.type	HAL_DMA_UnRegisterCallback, %function
 5331              	HAL_DMA_UnRegisterCallback:
 5332              	.LVL233:
 5333              	.LFB150:
 5334              		.loc 1 1646 1 view -0
 5335              		.cfi_startproc
 5336              		@ args = 0, pretend = 0, frame = 0
 5337              		@ frame_needed = 0, uses_anonymous_args = 0
 5338              		@ link register save eliminated.
 5339              		.loc 1 1647 3 view .LVU1438
 5340              		.loc 1 1650 3 view .LVU1439
 5341              		.loc 1 1650 5 is_stmt 0 view .LVU1440
 5342 0000 0346     		mov	r3, r0
 5343 0002 C8B1     		cbz	r0, .L523
 5344              		.loc 1 1656 3 is_stmt 1 view .LVU1441
 5345              		.loc 1 1656 3 view .LVU1442
 5346 0004 90F83420 		ldrb	r2, [r0, #52]	@ zero_extendqisi2
 5347 0008 012A     		cmp	r2, #1
 5348 000a 17D0     		beq	.L524
 5349              		.loc 1 1656 3 discriminator 2 view .LVU1443
 5350              		.loc 1 1658 33 is_stmt 0 discriminator 2 view .LVU1444
 5351 000c 90F83520 		ldrb	r2, [r0, #53]	@ zero_extendqisi2
 5352              		.loc 1 1656 3 discriminator 2 view .LVU1445
 5353 0010 4FF0010C 		mov	ip, #1
 5354              		.loc 1 1658 5 discriminator 2 view .LVU1446
 5355 0014 6245     		cmp	r2, ip
 5356              		.loc 1 1658 33 discriminator 2 view .LVU1447
 5357 0016 D0B2     		uxtb	r0, r2
 5358              	.LVL234:
ARM GAS  C:\Users\DEVELO~1\AppData\Local\Temp\ccHliN1u.s 			page 95


 5359              		.loc 1 1656 3 discriminator 2 view .LVU1448
 5360 0018 83F834C0 		strb	ip, [r3, #52]
 5361              		.loc 1 1656 3 is_stmt 1 discriminator 2 view .LVU1449
 5362              		.loc 1 1658 3 discriminator 2 view .LVU1450
 5363              		.loc 1 1658 5 is_stmt 0 discriminator 2 view .LVU1451
 5364 001c 04D0     		beq	.L527
 5365              		.loc 1 1702 12 view .LVU1452
 5366 001e 6046     		mov	r0, ip
 5367              	.L514:
 5368              	.LVL235:
 5369              		.loc 1 1706 3 is_stmt 1 view .LVU1453
 5370              		.loc 1 1706 3 view .LVU1454
 5371 0020 0022     		movs	r2, #0
 5372 0022 83F83420 		strb	r2, [r3, #52]
 5373              		.loc 1 1706 3 view .LVU1455
 5374              		.loc 1 1708 3 view .LVU1456
 5375              		.loc 1 1708 10 is_stmt 0 view .LVU1457
 5376 0026 7047     		bx	lr
 5377              	.LVL236:
 5378              	.L527:
 5379              		.loc 1 1660 5 is_stmt 1 view .LVU1458
 5380 0028 0629     		cmp	r1, #6
 5381 002a F9D8     		bhi	.L514
 5382 002c DFE801F0 		tbb	[pc, r1]
 5383              	.L516:
 5384 0030 11       		.byte	(.L522-.L516)/2
 5385 0031 15       		.byte	(.L521-.L516)/2
 5386 0032 19       		.byte	(.L520-.L516)/2
 5387 0033 1D       		.byte	(.L519-.L516)/2
 5388 0034 21       		.byte	(.L518-.L516)/2
 5389 0035 25       		.byte	(.L517-.L516)/2
 5390 0036 08       		.byte	(.L515-.L516)/2
 5391              	.LVL237:
 5392 0037 00       		.p2align 1
 5393              	.L523:
 5394              		.loc 1 1652 12 is_stmt 0 view .LVU1459
 5395 0038 0120     		movs	r0, #1
 5396              	.LVL238:
 5397              		.loc 1 1652 12 view .LVU1460
 5398 003a 7047     		bx	lr
 5399              	.LVL239:
 5400              	.L524:
 5401              		.loc 1 1656 3 view .LVU1461
 5402 003c 0220     		movs	r0, #2
 5403              	.LVL240:
 5404              		.loc 1 1709 1 view .LVU1462
 5405 003e 7047     		bx	lr
 5406              	.L515:
 5407              		.loc 1 1687 7 is_stmt 1 view .LVU1463
 5408              		.loc 1 1687 30 is_stmt 0 view .LVU1464
 5409 0040 0022     		movs	r2, #0
 5410              		.loc 1 1647 21 view .LVU1465
 5411 0042 1046     		mov	r0, r2
 5412              		.loc 1 1688 34 view .LVU1466
 5413 0044 C3E90F22 		strd	r2, r2, [r3, #60]
 5414              		.loc 1 1689 7 is_stmt 1 view .LVU1467
 5415              		.loc 1 1690 36 is_stmt 0 view .LVU1468
ARM GAS  C:\Users\DEVELO~1\AppData\Local\Temp\ccHliN1u.s 			page 96


 5416 0048 C3E91122 		strd	r2, r2, [r3, #68]
 5417              		.loc 1 1691 7 is_stmt 1 view .LVU1469
 5418              		.loc 1 1692 31 is_stmt 0 view .LVU1470
 5419 004c C3E91322 		strd	r2, r2, [r3, #76]
 5420              		.loc 1 1693 7 is_stmt 1 view .LVU1471
 5421 0050 E6E7     		b	.L514
 5422              	.L522:
 5423              		.loc 1 1663 7 view .LVU1472
 5424              		.loc 1 1663 30 is_stmt 0 view .LVU1473
 5425 0052 0022     		movs	r2, #0
 5426              		.loc 1 1647 21 view .LVU1474
 5427 0054 0846     		mov	r0, r1
 5428              		.loc 1 1663 30 view .LVU1475
 5429 0056 DA63     		str	r2, [r3, #60]
 5430              		.loc 1 1664 7 is_stmt 1 view .LVU1476
 5431 0058 E2E7     		b	.L514
 5432              	.L521:
 5433              		.loc 1 1667 7 view .LVU1477
 5434              		.loc 1 1667 34 is_stmt 0 view .LVU1478
 5435 005a 0022     		movs	r2, #0
 5436              		.loc 1 1647 21 view .LVU1479
 5437 005c 1046     		mov	r0, r2
 5438              		.loc 1 1667 34 view .LVU1480
 5439 005e 1A64     		str	r2, [r3, #64]
 5440              		.loc 1 1668 7 is_stmt 1 view .LVU1481
 5441 0060 DEE7     		b	.L514
 5442              	.L520:
 5443              		.loc 1 1671 7 view .LVU1482
 5444              		.loc 1 1671 32 is_stmt 0 view .LVU1483
 5445 0062 0022     		movs	r2, #0
 5446              		.loc 1 1647 21 view .LVU1484
 5447 0064 1046     		mov	r0, r2
 5448              		.loc 1 1671 32 view .LVU1485
 5449 0066 5A64     		str	r2, [r3, #68]
 5450              		.loc 1 1672 7 is_stmt 1 view .LVU1486
 5451 0068 DAE7     		b	.L514
 5452              	.L519:
 5453              		.loc 1 1675 7 view .LVU1487
 5454              		.loc 1 1675 36 is_stmt 0 view .LVU1488
 5455 006a 0022     		movs	r2, #0
 5456              		.loc 1 1647 21 view .LVU1489
 5457 006c 1046     		mov	r0, r2
 5458              		.loc 1 1675 36 view .LVU1490
 5459 006e 9A64     		str	r2, [r3, #72]
 5460              		.loc 1 1676 7 is_stmt 1 view .LVU1491
 5461 0070 D6E7     		b	.L514
 5462              	.L518:
 5463              		.loc 1 1679 7 view .LVU1492
 5464              		.loc 1 1679 31 is_stmt 0 view .LVU1493
 5465 0072 0022     		movs	r2, #0
 5466              		.loc 1 1647 21 view .LVU1494
 5467 0074 1046     		mov	r0, r2
 5468              		.loc 1 1679 31 view .LVU1495
 5469 0076 DA64     		str	r2, [r3, #76]
 5470              		.loc 1 1680 7 is_stmt 1 view .LVU1496
 5471 0078 D2E7     		b	.L514
 5472              	.L517:
ARM GAS  C:\Users\DEVELO~1\AppData\Local\Temp\ccHliN1u.s 			page 97


 5473              		.loc 1 1683 7 view .LVU1497
 5474              		.loc 1 1683 31 is_stmt 0 view .LVU1498
 5475 007a 0022     		movs	r2, #0
 5476              		.loc 1 1647 21 view .LVU1499
 5477 007c 1046     		mov	r0, r2
 5478              		.loc 1 1683 31 view .LVU1500
 5479 007e 1A65     		str	r2, [r3, #80]
 5480              		.loc 1 1684 7 is_stmt 1 view .LVU1501
 5481 0080 CEE7     		b	.L514
 5482              		.cfi_endproc
 5483              	.LFE150:
 5484              		.size	HAL_DMA_UnRegisterCallback, .-HAL_DMA_UnRegisterCallback
 5485 0082 00BF     		.section	.text.HAL_DMA_GetState,"ax",%progbits
 5486              		.align	1
 5487              		.p2align 4,,15
 5488              		.global	HAL_DMA_GetState
 5489              		.syntax unified
 5490              		.thumb
 5491              		.thumb_func
 5492              		.type	HAL_DMA_GetState, %function
 5493              	HAL_DMA_GetState:
 5494              	.LVL241:
 5495              	.LFB151:
 5496              		.loc 1 1737 1 view -0
 5497              		.cfi_startproc
 5498              		@ args = 0, pretend = 0, frame = 0
 5499              		@ frame_needed = 0, uses_anonymous_args = 0
 5500              		@ link register save eliminated.
 5501              		.loc 1 1738 3 view .LVU1503
 5502              		.loc 1 1738 14 is_stmt 0 view .LVU1504
 5503 0000 90F83500 		ldrb	r0, [r0, #53]	@ zero_extendqisi2
 5504              	.LVL242:
 5505              		.loc 1 1739 1 view .LVU1505
 5506 0004 7047     		bx	lr
 5507              		.cfi_endproc
 5508              	.LFE151:
 5509              		.size	HAL_DMA_GetState, .-HAL_DMA_GetState
 5510 0006 00BF     		.section	.text.HAL_DMA_GetError,"ax",%progbits
 5511              		.align	1
 5512              		.p2align 4,,15
 5513              		.global	HAL_DMA_GetError
 5514              		.syntax unified
 5515              		.thumb
 5516              		.thumb_func
 5517              		.type	HAL_DMA_GetError, %function
 5518              	HAL_DMA_GetError:
 5519              	.LVL243:
 5520              	.LFB152:
 5521              		.loc 1 1748 1 is_stmt 1 view -0
 5522              		.cfi_startproc
 5523              		@ args = 0, pretend = 0, frame = 0
 5524              		@ frame_needed = 0, uses_anonymous_args = 0
 5525              		@ link register save eliminated.
 5526              		.loc 1 1749 3 view .LVU1507
 5527              		.loc 1 1749 14 is_stmt 0 view .LVU1508
 5528 0000 406D     		ldr	r0, [r0, #84]
 5529              	.LVL244:
ARM GAS  C:\Users\DEVELO~1\AppData\Local\Temp\ccHliN1u.s 			page 98


 5530              		.loc 1 1750 1 view .LVU1509
 5531 0002 7047     		bx	lr
 5532              		.cfi_endproc
 5533              	.LFE152:
 5534              		.size	HAL_DMA_GetError, .-HAL_DMA_GetError
 5535              		.section	.rodata.flagBitshiftOffset.0,"a"
 5536              		.align	2
 5537              		.set	.LANCHOR0,. + 0
 5538              		.type	flagBitshiftOffset.0, %object
 5539              		.size	flagBitshiftOffset.0, 8
 5540              	flagBitshiftOffset.0:
 5541 0000 00061016 		.ascii	"\000\006\020\026\000\006\020\026"
 5541      00061016 
 5542              		.text
 5543              	.Letext0:
 5544              		.file 2 "c:\\chibistudio\\tools\\gnu tools arm embedded\\11.3 2022.08\\arm-none-eabi\\include\\mac
 5545              		.file 3 "c:\\chibistudio\\tools\\gnu tools arm embedded\\11.3 2022.08\\arm-none-eabi\\include\\sys
 5546              		.file 4 "../../../os/common/ext/ST/STM32H7xx/stm32h743xx.h"
 5547              		.file 5 "drivers/stm32h7xx-hal-driver/Inc/stm32h7xx_hal_def.h"
 5548              		.file 6 "drivers/stm32h7xx-hal-driver/Inc/stm32h7xx_hal_dma.h"
 5549              		.file 7 "../../../os/common/ext/ST/STM32H7xx/system_stm32h7xx.h"
 5550              		.file 8 "drivers/stm32h7xx-hal-driver/Inc/stm32h7xx_hal.h"