ARM GAS  C:\Users\DEVELO~1\AppData\Local\Temp\ccw7wCqr.s 			page 1


   1              		.cpu cortex-m7
   2              		.arch armv7e-m
   3              		.fpu softvfp
   4              		.eabi_attribute 20, 1
   5              		.eabi_attribute 21, 1
   6              		.eabi_attribute 23, 3
   7              		.eabi_attribute 24, 1
   8              		.eabi_attribute 25, 1
   9              		.eabi_attribute 26, 1
  10              		.eabi_attribute 30, 2
  11              		.eabi_attribute 34, 1
  12              		.eabi_attribute 18, 4
  13              		.file	"stm32h7xx_hal_sai_ex.c"
  14              		.text
  15              	.Ltext0:
  16              		.cfi_sections	.debug_frame
  17              		.section	.text.HAL_SAIEx_ConfigPdmMicDelay,"ax",%progbits
  18              		.align	1
  19              		.p2align 4,,15
  20              		.global	HAL_SAIEx_ConfigPdmMicDelay
  21              		.syntax unified
  22              		.thumb
  23              		.thumb_func
  24              		.type	HAL_SAIEx_ConfigPdmMicDelay, %function
  25              	HAL_SAIEx_ConfigPdmMicDelay:
  26              	.LVL0:
  27              	.LFB141:
  28              		.file 1 "drivers/stm32h7xx-hal-driver/Src/stm32h7xx_hal_sai_ex.c"
  29              		.loc 1 72 1 view -0
  30              		.cfi_startproc
  31              		@ args = 0, pretend = 0, frame = 0
  32              		@ frame_needed = 0, uses_anonymous_args = 0
  33              		@ link register save eliminated.
  34              		.loc 1 73 3 view .LVU1
  35              		.loc 1 74 3 view .LVU2
  36              		.loc 1 75 3 view .LVU3
  37              		.loc 1 79 3 view .LVU4
  38              		.loc 1 79 61 is_stmt 0 view .LVU5
  39 0000 164A     		ldr	r2, .L16
  40              		.loc 1 79 26 view .LVU6
  41 0002 0368     		ldr	r3, [r0]
  42              		.loc 1 79 61 view .LVU7
  43 0004 9342     		cmp	r3, r2
  44              		.loc 1 72 1 view .LVU8
  45 0006 30B4     		push	{r4, r5}
  46              		.cfi_def_cfa_offset 8
  47              		.cfi_offset 4, -8
  48              		.cfi_offset 5, -4
  49              		.loc 1 79 61 view .LVU9
  50 0008 25D0     		beq	.L4
  51              		.loc 1 80 61 view .LVU10
  52 000a 02F1C052 		add	r2, r2, #402653184
  53 000e A2F58232 		sub	r2, r2, #66560
  54 0012 9342     		cmp	r3, r2
  55 0014 02D0     		beq	.L15
  56              	.L6:
  57              		.loc 1 89 12 view .LVU11
ARM GAS  C:\Users\DEVELO~1\AppData\Local\Temp\ccw7wCqr.s 			page 2


  58 0016 0120     		movs	r0, #1
  59              	.LVL1:
  60              		.loc 1 115 3 is_stmt 1 view .LVU12
  61              		.loc 1 116 1 is_stmt 0 view .LVU13
  62 0018 30BC     		pop	{r4, r5}
  63              		.cfi_remember_state
  64              		.cfi_restore 5
  65              		.cfi_restore 4
  66              		.cfi_def_cfa_offset 0
  67 001a 7047     		bx	lr
  68              	.LVL2:
  69              	.L15:
  70              		.cfi_restore_state
  71              		.loc 1 80 61 view .LVU14
  72 001c 104C     		ldr	r4, .L16+4
  73              	.L2:
  74              		.loc 1 94 5 is_stmt 1 view .LVU15
  75              		.loc 1 95 5 view .LVU16
  76              		.loc 1 96 5 view .LVU17
  77              		.loc 1 99 5 view .LVU18
  78              		.loc 1 99 59 is_stmt 0 view .LVU19
  79 001e 0B68     		ldr	r3, [r1]
  80              		.loc 1 102 14 view .LVU20
  81 0020 90F89120 		ldrb	r2, [r0, #145]	@ zero_extendqisi2
  82              		.loc 1 99 59 view .LVU21
  83 0024 013B     		subs	r3, r3, #1
  84              		.loc 1 102 14 view .LVU22
  85 0026 D2B2     		uxtb	r2, r2
  86              		.loc 1 99 12 view .LVU23
  87 0028 DB00     		lsls	r3, r3, #3
  88              	.LVL3:
  89              		.loc 1 102 5 is_stmt 1 view .LVU24
  90              		.loc 1 102 46 is_stmt 0 view .LVU25
  91 002a 182B     		cmp	r3, #24
  92 002c F3D8     		bhi	.L6
  93 002e 002A     		cmp	r2, #0
  94 0030 F1D0     		beq	.L6
  95              		.loc 1 105 7 is_stmt 1 view .LVU26
  96              		.loc 1 105 54 is_stmt 0 view .LVU27
  97 0032 7722     		movs	r2, #119
  98              		.loc 1 105 30 view .LVU28
  99 0034 A06C     		ldr	r0, [r4, #72]
 100              	.LVL4:
 101              		.loc 1 105 54 view .LVU29
 102 0036 9A40     		lsls	r2, r2, r3
 103              		.loc 1 105 30 view .LVU30
 104 0038 20EA0200 		bic	r0, r0, r2
 105              		.loc 1 108 91 view .LVU31
 106 003c D1E90125 		ldrd	r2, r5, [r1, #4]
 107              		.loc 1 105 30 view .LVU32
 108 0040 A064     		str	r0, [r4, #72]
 109              		.loc 1 108 7 is_stmt 1 view .LVU33
 110              		.loc 1 73 21 is_stmt 0 view .LVU34
 111 0042 0020     		movs	r0, #0
 112              		.loc 1 108 91 view .LVU35
 113 0044 42EA0512 		orr	r2, r2, r5, lsl #4
 114              		.loc 1 108 30 view .LVU36
ARM GAS  C:\Users\DEVELO~1\AppData\Local\Temp\ccw7wCqr.s 			page 3


 115 0048 A16C     		ldr	r1, [r4, #72]
 116              	.LVL5:
 117              		.loc 1 108 117 view .LVU37
 118 004a 02FA03F3 		lsl	r3, r2, r3
 119              	.LVL6:
 120              		.loc 1 108 30 view .LVU38
 121 004e 0B43     		orrs	r3, r3, r1
 122 0050 A364     		str	r3, [r4, #72]
 123              	.LVL7:
 124              		.loc 1 115 3 is_stmt 1 view .LVU39
 125              		.loc 1 116 1 is_stmt 0 view .LVU40
 126 0052 30BC     		pop	{r4, r5}
 127              		.cfi_remember_state
 128              		.cfi_restore 5
 129              		.cfi_restore 4
 130              		.cfi_def_cfa_offset 0
 131 0054 7047     		bx	lr
 132              	.LVL8:
 133              	.L4:
 134              		.cfi_restore_state
 135              		.loc 1 79 61 view .LVU41
 136 0056 034C     		ldr	r4, .L16+8
 137 0058 E1E7     		b	.L2
 138              	.L17:
 139 005a 00BF     		.align	2
 140              	.L16:
 141 005c 04580140 		.word	1073829892
 142 0060 00540058 		.word	1476416512
 143 0064 00580140 		.word	1073829888
 144              		.cfi_endproc
 145              	.LFE141:
 146              		.size	HAL_SAIEx_ConfigPdmMicDelay, .-HAL_SAIEx_ConfigPdmMicDelay
 147              		.text
 148              	.Letext0:
 149              		.file 2 "c:\\chibistudio\\tools\\gnu tools arm embedded\\11.3 2022.08\\arm-none-eabi\\include\\mac
 150              		.file 3 "c:\\chibistudio\\tools\\gnu tools arm embedded\\11.3 2022.08\\arm-none-eabi\\include\\sys
 151              		.file 4 "../../../os/common/ext/ST/STM32H7xx/stm32h743xx.h"
 152              		.file 5 "../../../os/common/ext/ST/STM32H7xx/stm32h7xx.h"
 153              		.file 6 "drivers/stm32h7xx-hal-driver/Inc/stm32h7xx_hal_def.h"
 154              		.file 7 "drivers/stm32h7xx-hal-driver/Inc/stm32h7xx_hal_dma.h"
 155              		.file 8 "drivers/stm32h7xx-hal-driver/Inc/stm32h7xx_hal_sai.h"
 156              		.file 9 "drivers/stm32h7xx-hal-driver/Inc/stm32h7xx_hal_sai_ex.h"