ARM GAS  C:\Users\DEVELO~1\AppData\Local\Temp\ccltyUpz.s 			page 1


   1              		.cpu cortex-m7
   2              		.arch armv7e-m
   3              		.fpu softvfp
   4              		.eabi_attribute 20, 1
   5              		.eabi_attribute 21, 1
   6              		.eabi_attribute 23, 3
   7              		.eabi_attribute 24, 1
   8              		.eabi_attribute 25, 1
   9              		.eabi_attribute 26, 1
  10              		.eabi_attribute 30, 2
  11              		.eabi_attribute 34, 1
  12              		.eabi_attribute 18, 4
  13              		.file	"stm32h7xx_hal_chibios.c"
  14              		.text
  15              	.Ltext0:
  16              		.cfi_sections	.debug_frame
  17              		.section	.text.HAL_Init,"ax",%progbits
  18              		.align	1
  19              		.p2align 4,,15
  20              		.global	HAL_Init
  21              		.syntax unified
  22              		.thumb
  23              		.thumb_func
  24              		.type	HAL_Init, %function
  25              	HAL_Init:
  26              	.LFB415:
  27              		.file 1 "drivers/stm32h7xx_hal_chibios.c"
  28              		.loc 1 29 34 view -0
  29              		.cfi_startproc
  30              		@ args = 0, pretend = 0, frame = 0
  31              		@ frame_needed = 0, uses_anonymous_args = 0
  32              		@ link register save eliminated.
  33              		.loc 1 30 3 view .LVU1
  34              		.loc 1 31 1 is_stmt 0 view .LVU2
  35 0000 0020     		movs	r0, #0
  36 0002 7047     		bx	lr
  37              		.cfi_endproc
  38              	.LFE415:
  39              		.size	HAL_Init, .-HAL_Init
  40              		.section	.text.HAL_DeInit,"ax",%progbits
  41              		.align	1
  42              		.p2align 4,,15
  43              		.global	HAL_DeInit
  44              		.syntax unified
  45              		.thumb
  46              		.thumb_func
  47              		.type	HAL_DeInit, %function
  48              	HAL_DeInit:
  49              	.LFB432:
  50              		.cfi_startproc
  51              		@ args = 0, pretend = 0, frame = 0
  52              		@ frame_needed = 0, uses_anonymous_args = 0
  53              		@ link register save eliminated.
  54 0000 0020     		movs	r0, #0
  55 0002 7047     		bx	lr
  56              		.cfi_endproc
  57              	.LFE432:
ARM GAS  C:\Users\DEVELO~1\AppData\Local\Temp\ccltyUpz.s 			page 2


  58              		.size	HAL_DeInit, .-HAL_DeInit
  59              		.section	.text.HAL_InitTick,"ax",%progbits
  60              		.align	1
  61              		.p2align 4,,15
  62              		.global	HAL_InitTick
  63              		.syntax unified
  64              		.thumb
  65              		.thumb_func
  66              		.type	HAL_InitTick, %function
  67              	HAL_InitTick:
  68              	.LVL0:
  69              	.LFB417:
  70              		.loc 1 37 55 is_stmt 1 view -0
  71              		.cfi_startproc
  72              		@ args = 0, pretend = 0, frame = 0
  73              		@ frame_needed = 0, uses_anonymous_args = 0
  74              		@ link register save eliminated.
  75              		.loc 1 38 3 view .LVU4
  76              		.loc 1 39 3 view .LVU5
  77              		.loc 1 40 1 is_stmt 0 view .LVU6
  78 0000 0020     		movs	r0, #0
  79              	.LVL1:
  80              		.loc 1 40 1 view .LVU7
  81 0002 7047     		bx	lr
  82              		.cfi_endproc
  83              	.LFE417:
  84              		.size	HAL_InitTick, .-HAL_InitTick
  85              		.section	.text.HAL_IncTick,"ax",%progbits
  86              		.align	1
  87              		.p2align 4,,15
  88              		.global	HAL_IncTick
  89              		.syntax unified
  90              		.thumb
  91              		.thumb_func
  92              		.type	HAL_IncTick, %function
  93              	HAL_IncTick:
  94              	.LFB418:
  95              		.loc 1 42 24 is_stmt 1 view -0
  96              		.cfi_startproc
  97              		@ args = 0, pretend = 0, frame = 0
  98              		@ frame_needed = 0, uses_anonymous_args = 0
  99              		@ link register save eliminated.
 100              		.loc 1 44 1 view .LVU9
 101 0000 7047     		bx	lr
 102              		.cfi_endproc
 103              	.LFE418:
 104              		.size	HAL_IncTick, .-HAL_IncTick
 105              		.global	__aeabi_uldivmod
 106              		.global	__aeabi_ldivmod
 107 0002 00BF     		.section	.text.HAL_GetTick,"ax",%progbits
 108              		.align	1
 109              		.p2align 4,,15
 110              		.global	HAL_GetTick
 111              		.syntax unified
 112              		.thumb
 113              		.thumb_func
 114              		.type	HAL_GetTick, %function
ARM GAS  C:\Users\DEVELO~1\AppData\Local\Temp\ccltyUpz.s 			page 3


 115              	HAL_GetTick:
 116              	.LFB419:
 117              		.loc 1 46 28 view -0
 118              		.cfi_startproc
 119              		@ args = 0, pretend = 0, frame = 0
 120              		@ frame_needed = 0, uses_anonymous_args = 0
 121              		.loc 1 47 3 view .LVU11
 122              	.LBB8:
 123              	.LBI8:
 124              		.file 2 "../../../os/rt/include/chvt.h"
 125              		.loc 2 122 25 view .LVU12
 126              		.loc 2 127 3 view .LVU13
 127              	.LBB9:
 128              	.LBI9:
 129              		.file 3 "../../../os/hal/osal/rt-nil/chcore_timer.h"
 130              		.loc 3 111 25 view .LVU14
 131              	.LBB10:
 132              		.loc 3 113 3 view .LVU15
 133              	.LBE10:
 134              	.LBE9:
 135              	.LBE8:
 136              		.loc 1 46 28 is_stmt 0 view .LVU16
 137 0000 08B5     		push	{r3, lr}
 138              		.cfi_def_cfa_offset 8
 139              		.cfi_offset 3, -8
 140              		.cfi_offset 14, -4
 141              	.LBB13:
 142              	.LBB12:
 143              	.LBB11:
 144              		.loc 3 113 10 view .LVU17
 145 0002 FFF7FEFF 		bl	stGetCounter
 146              	.LVL2:
 147              	.LBE11:
 148              	.LBE12:
 149              	.LBE13:
 150              		.loc 1 47 12 view .LVU18
 151 0006 4FF47A7C 		mov	ip, #1000
 152 000a 42F20F72 		movw	r2, #9999
 153 000e 0021     		movs	r1, #0
 154 0010 0023     		movs	r3, #0
 155 0012 E0FB0C21 		umlal	r2, r1, r0, ip
 156 0016 1046     		mov	r0, r2
 157 0018 42F21072 		movw	r2, #10000
 158 001c FFF7FEFF 		bl	__aeabi_uldivmod
 159              	.LVL3:
 160              		.loc 1 47 10 view .LVU19
 161 0020 014B     		ldr	r3, .L8
 162 0022 1860     		str	r0, [r3]
 163              		.loc 1 48 3 is_stmt 1 view .LVU20
 164              		.loc 1 48 10 is_stmt 0 view .LVU21
 165 0024 1868     		ldr	r0, [r3]
 166              		.loc 1 49 1 view .LVU22
 167 0026 08BD     		pop	{r3, pc}
 168              	.L9:
 169              		.align	2
 170              	.L8:
 171 0028 00000000 		.word	.LANCHOR0
ARM GAS  C:\Users\DEVELO~1\AppData\Local\Temp\ccltyUpz.s 			page 4


 172              		.cfi_endproc
 173              	.LFE419:
 174              		.size	HAL_GetTick, .-HAL_GetTick
 175              		.section	.text.HAL_Delay,"ax",%progbits
 176              		.align	1
 177              		.p2align 4,,15
 178              		.global	HAL_Delay
 179              		.syntax unified
 180              		.thumb
 181              		.thumb_func
 182              		.type	HAL_Delay, %function
 183              	HAL_Delay:
 184              	.LVL4:
 185              	.LFB420:
 186              		.loc 1 51 32 is_stmt 1 view -0
 187              		.cfi_startproc
 188              		@ args = 0, pretend = 0, frame = 0
 189              		@ frame_needed = 0, uses_anonymous_args = 0
 190              		.loc 1 52 3 view .LVU24
 191              		.loc 1 52 6 is_stmt 0 view .LVU25
 192 0000 00B9     		cbnz	r0, .L15
 193 0002 7047     		bx	lr
 194              	.L15:
 195              		.loc 1 55 3 is_stmt 1 view .LVU26
 196              		.loc 1 51 32 is_stmt 0 view .LVU27
 197 0004 08B5     		push	{r3, lr}
 198              		.cfi_def_cfa_offset 8
 199              		.cfi_offset 3, -8
 200              		.cfi_offset 14, -4
 201              		.loc 1 55 3 view .LVU28
 202 0006 42F21072 		movw	r2, #10000
 203 000a 40F2E733 		movw	r3, #999
 204 000e 0021     		movs	r1, #0
 205 0010 E0FB0231 		umlal	r3, r1, r0, r2
 206 0014 4FF47A72 		mov	r2, #1000
 207 0018 1846     		mov	r0, r3
 208              	.LVL5:
 209              		.loc 1 55 3 view .LVU29
 210 001a 0023     		movs	r3, #0
 211 001c FFF7FEFF 		bl	__aeabi_uldivmod
 212              	.LVL6:
 213              		.loc 1 56 1 view .LVU30
 214 0020 BDE80840 		pop	{r3, lr}
 215              		.cfi_restore 14
 216              		.cfi_restore 3
 217              		.cfi_def_cfa_offset 0
 218              		.loc 1 55 3 view .LVU31
 219 0024 FFF7FEBF 		b	chThdSleep
 220              	.LVL7:
 221              		.cfi_endproc
 222              	.LFE420:
 223              		.size	HAL_Delay, .-HAL_Delay
 224              		.section	.text.HAL_SetTickFreq,"ax",%progbits
 225              		.align	1
 226              		.p2align 4,,15
 227              		.global	HAL_SetTickFreq
 228              		.syntax unified
ARM GAS  C:\Users\DEVELO~1\AppData\Local\Temp\ccltyUpz.s 			page 5


 229              		.thumb
 230              		.thumb_func
 231              		.type	HAL_SetTickFreq, %function
 232              	HAL_SetTickFreq:
 233              	.LVL8:
 234              	.LFB421:
 235              		.loc 1 58 61 is_stmt 1 view -0
 236              		.cfi_startproc
 237              		@ args = 0, pretend = 0, frame = 0
 238              		@ frame_needed = 0, uses_anonymous_args = 0
 239              		@ link register save eliminated.
 240              		.loc 1 59 3 view .LVU33
 241              		.loc 1 58 61 is_stmt 0 view .LVU34
 242 0000 0246     		mov	r2, r0
 243              		.loc 1 59 14 view .LVU35
 244 0002 024B     		ldr	r3, .L17
 245              		.loc 1 61 1 view .LVU36
 246 0004 0020     		movs	r0, #0
 247              	.LVL9:
 248              		.loc 1 59 14 view .LVU37
 249 0006 1A70     		strb	r2, [r3]
 250              		.loc 1 60 3 is_stmt 1 view .LVU38
 251              		.loc 1 61 1 is_stmt 0 view .LVU39
 252 0008 7047     		bx	lr
 253              	.L18:
 254 000a 00BF     		.align	2
 255              	.L17:
 256 000c 00000000 		.word	.LANCHOR1
 257              		.cfi_endproc
 258              	.LFE421:
 259              		.size	HAL_SetTickFreq, .-HAL_SetTickFreq
 260              		.section	.text.HAL_GetTickFreq,"ax",%progbits
 261              		.align	1
 262              		.p2align 4,,15
 263              		.global	HAL_GetTickFreq
 264              		.syntax unified
 265              		.thumb
 266              		.thumb_func
 267              		.type	HAL_GetTickFreq, %function
 268              	HAL_GetTickFreq:
 269              	.LFB422:
 270              		.loc 1 63 43 is_stmt 1 view -0
 271              		.cfi_startproc
 272              		@ args = 0, pretend = 0, frame = 0
 273              		@ frame_needed = 0, uses_anonymous_args = 0
 274              		@ link register save eliminated.
 275              		.loc 1 64 3 view .LVU41
 276              		.loc 1 64 10 is_stmt 0 view .LVU42
 277 0000 014B     		ldr	r3, .L20
 278              		.loc 1 65 1 view .LVU43
 279 0002 1878     		ldrb	r0, [r3]	@ zero_extendqisi2
 280 0004 7047     		bx	lr
 281              	.L21:
 282 0006 00BF     		.align	2
 283              	.L20:
 284 0008 00000000 		.word	.LANCHOR1
 285              		.cfi_endproc
ARM GAS  C:\Users\DEVELO~1\AppData\Local\Temp\ccltyUpz.s 			page 6


 286              	.LFE422:
 287              		.size	HAL_GetTickFreq, .-HAL_GetTickFreq
 288              		.section	.text.HAL_GetTickPrio,"ax",%progbits
 289              		.align	1
 290              		.p2align 4,,15
 291              		.global	HAL_GetTickPrio
 292              		.syntax unified
 293              		.thumb
 294              		.thumb_func
 295              		.type	HAL_GetTickPrio, %function
 296              	HAL_GetTickPrio:
 297              	.LFB423:
 298              		.loc 1 67 32 is_stmt 1 view -0
 299              		.cfi_startproc
 300              		@ args = 0, pretend = 0, frame = 0
 301              		@ frame_needed = 0, uses_anonymous_args = 0
 302              		@ link register save eliminated.
 303              		.loc 1 68 3 view .LVU45
 304              		.loc 1 68 10 is_stmt 0 view .LVU46
 305 0000 014B     		ldr	r3, .L23
 306              		.loc 1 69 1 view .LVU47
 307 0002 1868     		ldr	r0, [r3]
 308 0004 7047     		bx	lr
 309              	.L24:
 310 0006 00BF     		.align	2
 311              	.L23:
 312 0008 00000000 		.word	.LANCHOR2
 313              		.cfi_endproc
 314              	.LFE423:
 315              		.size	HAL_GetTickPrio, .-HAL_GetTickPrio
 316              		.section	.text.HAL_GetHalVersion,"ax",%progbits
 317              		.align	1
 318              		.p2align 4,,15
 319              		.global	HAL_GetHalVersion
 320              		.syntax unified
 321              		.thumb
 322              		.thumb_func
 323              		.type	HAL_GetHalVersion, %function
 324              	HAL_GetHalVersion:
 325              	.LFB424:
 326              		.loc 1 71 34 is_stmt 1 view -0
 327              		.cfi_startproc
 328              		@ args = 0, pretend = 0, frame = 0
 329              		@ frame_needed = 0, uses_anonymous_args = 0
 330              		@ link register save eliminated.
 331              		.loc 1 72 3 view .LVU49
 332              		.loc 1 73 1 is_stmt 0 view .LVU50
 333 0000 0048     		ldr	r0, .L26
 334 0002 7047     		bx	lr
 335              	.L27:
 336              		.align	2
 337              	.L26:
 338 0004 00050B01 		.word	17499392
 339              		.cfi_endproc
 340              	.LFE424:
 341              		.size	HAL_GetHalVersion, .-HAL_GetHalVersion
 342              		.section	.text.HAL_GetREVID,"ax",%progbits
ARM GAS  C:\Users\DEVELO~1\AppData\Local\Temp\ccltyUpz.s 			page 7


 343              		.align	1
 344              		.p2align 4,,15
 345              		.global	HAL_GetREVID
 346              		.syntax unified
 347              		.thumb
 348              		.thumb_func
 349              		.type	HAL_GetREVID, %function
 350              	HAL_GetREVID:
 351              	.LFB425:
 352              		.loc 1 75 29 is_stmt 1 view -0
 353              		.cfi_startproc
 354              		@ args = 0, pretend = 0, frame = 0
 355              		@ frame_needed = 0, uses_anonymous_args = 0
 356              		@ link register save eliminated.
 357              		.loc 1 76 3 view .LVU52
 358              		.loc 1 76 18 is_stmt 0 view .LVU53
 359 0000 014B     		ldr	r3, .L29
 360 0002 1868     		ldr	r0, [r3]
 361              		.loc 1 77 1 view .LVU54
 362 0004 000C     		lsrs	r0, r0, #16
 363 0006 7047     		bx	lr
 364              	.L30:
 365              		.align	2
 366              	.L29:
 367 0008 0010005C 		.word	1543507968
 368              		.cfi_endproc
 369              	.LFE425:
 370              		.size	HAL_GetREVID, .-HAL_GetREVID
 371              		.section	.text.HAL_GetDEVID,"ax",%progbits
 372              		.align	1
 373              		.p2align 4,,15
 374              		.global	HAL_GetDEVID
 375              		.syntax unified
 376              		.thumb
 377              		.thumb_func
 378              		.type	HAL_GetDEVID, %function
 379              	HAL_GetDEVID:
 380              	.LFB426:
 381              		.loc 1 79 29 is_stmt 1 view -0
 382              		.cfi_startproc
 383              		@ args = 0, pretend = 0, frame = 0
 384              		@ frame_needed = 0, uses_anonymous_args = 0
 385              		@ link register save eliminated.
 386              		.loc 1 80 3 view .LVU56
 387              		.loc 1 80 17 is_stmt 0 view .LVU57
 388 0000 024B     		ldr	r3, .L32
 389 0002 1868     		ldr	r0, [r3]
 390              		.loc 1 81 1 view .LVU58
 391 0004 C0F30B00 		ubfx	r0, r0, #0, #12
 392 0008 7047     		bx	lr
 393              	.L33:
 394 000a 00BF     		.align	2
 395              	.L32:
 396 000c 0010005C 		.word	1543507968
 397              		.cfi_endproc
 398              	.LFE426:
 399              		.size	HAL_GetDEVID, .-HAL_GetDEVID
ARM GAS  C:\Users\DEVELO~1\AppData\Local\Temp\ccltyUpz.s 			page 8


 400              		.section	.text.HAL_GetUIDw0,"ax",%progbits
 401              		.align	1
 402              		.p2align 4,,15
 403              		.global	HAL_GetUIDw0
 404              		.syntax unified
 405              		.thumb
 406              		.thumb_func
 407              		.type	HAL_GetUIDw0, %function
 408              	HAL_GetUIDw0:
 409              	.LFB427:
 410              		.loc 1 83 29 is_stmt 1 view -0
 411              		.cfi_startproc
 412              		@ args = 0, pretend = 0, frame = 0
 413              		@ frame_needed = 0, uses_anonymous_args = 0
 414              		@ link register save eliminated.
 415              		.loc 1 84 3 view .LVU60
 416              		.loc 1 84 10 is_stmt 0 view .LVU61
 417 0000 014B     		ldr	r3, .L35
 418              		.loc 1 85 1 view .LVU62
 419 0002 D3F80008 		ldr	r0, [r3, #2048]
 420 0006 7047     		bx	lr
 421              	.L36:
 422              		.align	2
 423              	.L35:
 424 0008 00E0F11F 		.word	535945216
 425              		.cfi_endproc
 426              	.LFE427:
 427              		.size	HAL_GetUIDw0, .-HAL_GetUIDw0
 428              		.section	.text.HAL_GetUIDw1,"ax",%progbits
 429              		.align	1
 430              		.p2align 4,,15
 431              		.global	HAL_GetUIDw1
 432              		.syntax unified
 433              		.thumb
 434              		.thumb_func
 435              		.type	HAL_GetUIDw1, %function
 436              	HAL_GetUIDw1:
 437              	.LFB428:
 438              		.loc 1 87 29 is_stmt 1 view -0
 439              		.cfi_startproc
 440              		@ args = 0, pretend = 0, frame = 0
 441              		@ frame_needed = 0, uses_anonymous_args = 0
 442              		@ link register save eliminated.
 443              		.loc 1 88 3 view .LVU64
 444              		.loc 1 88 10 is_stmt 0 view .LVU65
 445 0000 014B     		ldr	r3, .L38
 446              		.loc 1 89 1 view .LVU66
 447 0002 D3F80408 		ldr	r0, [r3, #2052]
 448 0006 7047     		bx	lr
 449              	.L39:
 450              		.align	2
 451              	.L38:
 452 0008 00E0F11F 		.word	535945216
 453              		.cfi_endproc
 454              	.LFE428:
 455              		.size	HAL_GetUIDw1, .-HAL_GetUIDw1
 456              		.section	.text.HAL_GetUIDw2,"ax",%progbits
ARM GAS  C:\Users\DEVELO~1\AppData\Local\Temp\ccltyUpz.s 			page 9


 457              		.align	1
 458              		.p2align 4,,15
 459              		.global	HAL_GetUIDw2
 460              		.syntax unified
 461              		.thumb
 462              		.thumb_func
 463              		.type	HAL_GetUIDw2, %function
 464              	HAL_GetUIDw2:
 465              	.LFB429:
 466              		.loc 1 91 29 is_stmt 1 view -0
 467              		.cfi_startproc
 468              		@ args = 0, pretend = 0, frame = 0
 469              		@ frame_needed = 0, uses_anonymous_args = 0
 470              		@ link register save eliminated.
 471              		.loc 1 92 3 view .LVU68
 472              		.loc 1 92 10 is_stmt 0 view .LVU69
 473 0000 014B     		ldr	r3, .L41
 474              		.loc 1 93 1 view .LVU70
 475 0002 D3F80808 		ldr	r0, [r3, #2056]
 476 0006 7047     		bx	lr
 477              	.L42:
 478              		.align	2
 479              	.L41:
 480 0008 00E0F11F 		.word	535945216
 481              		.cfi_endproc
 482              	.LFE429:
 483              		.size	HAL_GetUIDw2, .-HAL_GetUIDw2
 484              		.section	.text.HAL_RCCEx_GetPeriphCLKFreq,"ax",%progbits
 485              		.align	1
 486              		.p2align 4,,15
 487              		.global	HAL_RCCEx_GetPeriphCLKFreq
 488              		.syntax unified
 489              		.thumb
 490              		.thumb_func
 491              		.type	HAL_RCCEx_GetPeriphCLKFreq, %function
 492              	HAL_RCCEx_GetPeriphCLKFreq:
 493              	.LVL10:
 494              	.LFB430:
 495              		.loc 1 95 57 is_stmt 1 view -0
 496              		.cfi_startproc
 497              		@ args = 0, pretend = 0, frame = 0
 498              		@ frame_needed = 0, uses_anonymous_args = 0
 499              		@ link register save eliminated.
 500              		.loc 1 96 3 view .LVU72
 501 0000 A0F50073 		sub	r3, r0, #512
 502 0004 0B43     		orrs	r3, r3, r1
 503 0006 15D0     		beq	.L46
 504 0008 40F20123 		movw	r3, #513
 505 000c 9842     		cmp	r0, r3
 506 000e 71F10003 		sbcs	r3, r1, #0
 507 0012 09D3     		bcc	.L51
 508 0014 A0F58063 		sub	r3, r0, #1024
 509 0018 0B43     		orrs	r3, r3, r1
 510 001a 03D0     		beq	.L48
 511 001c A0F50060 		sub	r0, r0, #2048
 512              	.LVL11:
 513              		.loc 1 96 3 is_stmt 0 view .LVU73
ARM GAS  C:\Users\DEVELO~1\AppData\Local\Temp\ccltyUpz.s 			page 10


 514 0020 0843     		orrs	r0, r0, r1
 515 0022 05D1     		bne	.L49
 516              	.L48:
 517              		.loc 1 98 14 view .LVU74
 518 0024 0448     		ldr	r0, .L52
 519 0026 7047     		bx	lr
 520              	.LVL12:
 521              	.L51:
 522              		.loc 1 96 3 view .LVU75
 523 0028 A0F58070 		sub	r0, r0, #256
 524              	.LVL13:
 525              		.loc 1 96 3 view .LVU76
 526 002c 0843     		orrs	r0, r0, r1
 527 002e F9D0     		beq	.L48
 528              	.L49:
 529              		.loc 1 124 14 view .LVU77
 530 0030 0020     		movs	r0, #0
 531              		.loc 1 126 1 view .LVU78
 532 0032 7047     		bx	lr
 533              	.LVL14:
 534              	.L46:
 535              		.loc 1 96 3 view .LVU79
 536 0034 0148     		ldr	r0, .L52+4
 537              	.LVL15:
 538              		.loc 1 96 3 view .LVU80
 539 0036 7047     		bx	lr
 540              	.L53:
 541              		.align	2
 542              	.L52:
 543 0038 00B4C404 		.word	80000000
 544 003c 40AEEB02 		.word	49000000
 545              		.cfi_endproc
 546              	.LFE430:
 547              		.size	HAL_RCCEx_GetPeriphCLKFreq, .-HAL_RCCEx_GetPeriphCLKFreq
 548              		.global	uwTickFreq
 549              		.global	uwTickPrio
 550              		.global	uwTick
 551              		.section	.bss.uwTick,"aw",%nobits
 552              		.align	2
 553              		.set	.LANCHOR0,. + 0
 554              		.type	uwTick, %object
 555              		.size	uwTick, 4
 556              	uwTick:
 557 0000 00000000 		.space	4
 558              		.section	.bss.uwTickPrio,"aw",%nobits
 559              		.align	2
 560              		.set	.LANCHOR2,. + 0
 561              		.type	uwTickPrio, %object
 562              		.size	uwTickPrio, 4
 563              	uwTickPrio:
 564 0000 00000000 		.space	4
 565              		.section	.data.uwTickFreq,"aw"
 566              		.set	.LANCHOR1,. + 0
 567              		.type	uwTickFreq, %object
 568              		.size	uwTickFreq, 1
 569              	uwTickFreq:
 570 0000 01       		.byte	1
ARM GAS  C:\Users\DEVELO~1\AppData\Local\Temp\ccltyUpz.s 			page 11


 571              		.text
 572              	.Letext0:
 573              		.file 4 "c:\\chibistudio\\tools\\gnu tools arm embedded\\11.3 2022.08\\arm-none-eabi\\include\\mac
 574              		.file 5 "c:\\chibistudio\\tools\\gnu tools arm embedded\\11.3 2022.08\\arm-none-eabi\\include\\sys
 575              		.file 6 "../../../os/rt/include/chtime.h"
 576              		.file 7 "../../../os/common/ext/ST/STM32H7xx/stm32h743xx.h"
 577              		.file 8 "drivers/stm32h7xx-hal-driver/Inc/stm32h7xx_hal_def.h"
 578              		.file 9 "drivers/stm32h7xx-hal-driver/Inc/stm32h7xx_hal.h"
 579              		.file 10 "../../../os/rt/include/chthreads.h"