ARM GAS  C:\Users\DEVELO~1\AppData\Local\Temp\ccXXemyk.s 			page 1


   1              		.cpu cortex-m7
   2              		.arch armv7e-m
   3              		.fpu softvfp
   4              		.eabi_attribute 20, 1
   5              		.eabi_attribute 21, 1
   6              		.eabi_attribute 23, 3
   7              		.eabi_attribute 24, 1
   8              		.eabi_attribute 25, 1
   9              		.eabi_attribute 26, 1
  10              		.eabi_attribute 30, 2
  11              		.eabi_attribute 34, 1
  12              		.eabi_attribute 18, 4
  13              		.file	"stm32_isr.c"
  14              		.text
  15              	.Ltext0:
  16              		.cfi_sections	.debug_frame
  17              		.section	.text.Vector104,"ax",%progbits
  18              		.align	1
  19              		.p2align 4,,15
  20              		.global	Vector104
  21              		.syntax unified
  22              		.thumb
  23              		.thumb_func
  24              		.type	Vector104, %function
  25              	Vector104:
  26              	.LFB466:
  27              		.file 1 "../../../os/hal/ports/STM32/LLD/SDMMCv2/stm32_sdmmc1.inc"
  28              		.loc 1 92 40 view -0
  29              		.cfi_startproc
  30              		@ args = 0, pretend = 0, frame = 0
  31              		@ frame_needed = 0, uses_anonymous_args = 0
  32              		.loc 1 94 3 view .LVU1
  33              		.loc 1 94 3 view .LVU2
  34              		.loc 1 94 3 view .LVU3
  35              		.loc 1 94 3 view .LVU4
  36              		.loc 1 94 3 view .LVU5
  37              		.loc 1 92 40 is_stmt 0 view .LVU6
  38 0000 10B5     		push	{r4, lr}
  39              		.cfi_def_cfa_offset 8
  40              		.cfi_offset 4, -8
  41              		.cfi_offset 14, -4
  42              		.loc 1 94 3 view .LVU7
  43 0002 074C     		ldr	r4, .L4
  44 0004 2046     		mov	r0, r4
  45 0006 FFF7FEFF 		bl	__trace_isr_enter
  46              	.LVL0:
  47              		.loc 1 94 22 is_stmt 1 view .LVU8
  48              		.loc 1 98 3 view .LVU9
  49 000a 0648     		ldr	r0, .L4+4
  50 000c FFF7FEFF 		bl	sdc_lld_serve_interrupt
  51              	.LVL1:
  52              		.loc 1 102 3 view .LVU10
  53              		.loc 1 102 3 view .LVU11
  54 0010 2046     		mov	r0, r4
  55 0012 FFF7FEFF 		bl	__trace_isr_leave
  56              	.LVL2:
  57              		.loc 1 102 3 view .LVU12
ARM GAS  C:\Users\DEVELO~1\AppData\Local\Temp\ccXXemyk.s 			page 2


  58              		.loc 1 102 3 view .LVU13
  59              		.loc 1 102 3 view .LVU14
  60              		.loc 1 103 1 is_stmt 0 view .LVU15
  61 0016 BDE81040 		pop	{r4, lr}
  62              		.cfi_restore 14
  63              		.cfi_restore 4
  64              		.cfi_def_cfa_offset 0
  65              		.loc 1 102 3 view .LVU16
  66 001a FFF7FEBF 		b	__port_irq_epilogue
  67              	.LVL3:
  68              	.L5:
  69 001e 00BF     		.align	2
  70              	.L4:
  71 0020 00000000 		.word	.LANCHOR0
  72 0024 00000000 		.word	SDCD1
  73              		.cfi_endproc
  74              	.LFE466:
  75              		.size	Vector104, .-Vector104
  76              		.section	.text.VectorDC,"ax",%progbits
  77              		.align	1
  78              		.p2align 4,,15
  79              		.global	VectorDC
  80              		.syntax unified
  81              		.thumb
  82              		.thumb_func
  83              		.type	VectorDC, %function
  84              	VectorDC:
  85              	.LFB475:
  86              		.file 2 "../../../os/hal/ports/STM32/LLD/USART/stm32_usart3.inc"
  87              		.loc 2 85 40 is_stmt 1 view -0
  88              		.cfi_startproc
  89              		@ args = 0, pretend = 0, frame = 0
  90              		@ frame_needed = 0, uses_anonymous_args = 0
  91              		.loc 2 87 3 view .LVU18
  92              		.loc 2 87 3 view .LVU19
  93              		.loc 2 87 3 view .LVU20
  94              		.loc 2 87 3 view .LVU21
  95              		.loc 2 87 3 view .LVU22
  96              		.loc 2 85 40 is_stmt 0 view .LVU23
  97 0000 10B5     		push	{r4, lr}
  98              		.cfi_def_cfa_offset 8
  99              		.cfi_offset 4, -8
 100              		.cfi_offset 14, -4
 101              		.loc 2 87 3 view .LVU24
 102 0002 074C     		ldr	r4, .L8
 103 0004 2046     		mov	r0, r4
 104 0006 FFF7FEFF 		bl	__trace_isr_enter
 105              	.LVL4:
 106              		.loc 2 87 22 is_stmt 1 view .LVU25
 107              		.loc 2 91 3 view .LVU26
 108 000a 0648     		ldr	r0, .L8+4
 109 000c FFF7FEFF 		bl	sd_lld_serve_interrupt
 110              	.LVL5:
 111              		.loc 2 107 3 view .LVU27
 112              		.loc 2 107 3 view .LVU28
 113 0010 2046     		mov	r0, r4
 114 0012 FFF7FEFF 		bl	__trace_isr_leave
ARM GAS  C:\Users\DEVELO~1\AppData\Local\Temp\ccXXemyk.s 			page 3


 115              	.LVL6:
 116              		.loc 2 107 3 view .LVU29
 117              		.loc 2 107 3 view .LVU30
 118              		.loc 2 107 3 view .LVU31
 119              		.loc 2 108 1 is_stmt 0 view .LVU32
 120 0016 BDE81040 		pop	{r4, lr}
 121              		.cfi_restore 14
 122              		.cfi_restore 4
 123              		.cfi_def_cfa_offset 0
 124              		.loc 2 107 3 view .LVU33
 125 001a FFF7FEBF 		b	__port_irq_epilogue
 126              	.LVL7:
 127              	.L9:
 128 001e 00BF     		.align	2
 129              	.L8:
 130 0020 00000000 		.word	.LANCHOR1
 131 0024 00000000 		.word	SD3
 132              		.cfi_endproc
 133              	.LFE475:
 134              		.size	VectorDC, .-VectorDC
 135              		.section	.text.VectorB0,"ax",%progbits
 136              		.align	1
 137              		.p2align 4,,15
 138              		.global	VectorB0
 139              		.syntax unified
 140              		.thumb
 141              		.thumb_func
 142              		.type	VectorB0, %function
 143              	VectorB0:
 144              	.LFB496:
 145              		.file 3 "../../../os/hal/ports/STM32/LLD/TIMv1/stm32_tim2.inc"
 146              		.loc 3 100 38 is_stmt 1 view -0
 147              		.cfi_startproc
 148              		@ args = 0, pretend = 0, frame = 0
 149              		@ frame_needed = 0, uses_anonymous_args = 0
 150              		.loc 3 102 3 view .LVU35
 151              		.loc 3 102 3 view .LVU36
 152              		.loc 3 102 3 view .LVU37
 153              		.loc 3 102 3 view .LVU38
 154              		.loc 3 102 3 view .LVU39
 155              		.loc 3 100 38 is_stmt 0 view .LVU40
 156 0000 10B5     		push	{r4, lr}
 157              		.cfi_def_cfa_offset 8
 158              		.cfi_offset 4, -8
 159              		.cfi_offset 14, -4
 160              		.loc 3 102 3 view .LVU41
 161 0002 064C     		ldr	r4, .L12
 162 0004 2046     		mov	r0, r4
 163 0006 FFF7FEFF 		bl	__trace_isr_enter
 164              	.LVL8:
 165              		.loc 3 102 22 is_stmt 1 view .LVU42
 166              		.loc 3 121 3 view .LVU43
 167 000a FFF7FEFF 		bl	st_lld_serve_interrupt
 168              	.LVL9:
 169              		.loc 3 125 3 view .LVU44
 170              		.loc 3 125 3 view .LVU45
 171 000e 2046     		mov	r0, r4
ARM GAS  C:\Users\DEVELO~1\AppData\Local\Temp\ccXXemyk.s 			page 4


 172 0010 FFF7FEFF 		bl	__trace_isr_leave
 173              	.LVL10:
 174              		.loc 3 125 3 view .LVU46
 175              		.loc 3 125 3 view .LVU47
 176              		.loc 3 125 3 view .LVU48
 177              		.loc 3 126 1 is_stmt 0 view .LVU49
 178 0014 BDE81040 		pop	{r4, lr}
 179              		.cfi_restore 14
 180              		.cfi_restore 4
 181              		.cfi_def_cfa_offset 0
 182              		.loc 3 125 3 view .LVU50
 183 0018 FFF7FEBF 		b	__port_irq_epilogue
 184              	.LVL11:
 185              	.L13:
 186              		.align	2
 187              	.L12:
 188 001c 00000000 		.word	.LANCHOR2
 189              		.cfi_endproc
 190              	.LFE496:
 191              		.size	VectorB0, .-VectorB0
 192              		.section	.text.irqInit,"ax",%progbits
 193              		.align	1
 194              		.p2align 4,,15
 195              		.global	irqInit
 196              		.syntax unified
 197              		.thumb
 198              		.thumb_func
 199              		.type	irqInit, %function
 200              	irqInit:
 201              	.LFB515:
 202              		.file 4 "../../../os/hal/ports/STM32/STM32H7xx/stm32_isr.c"
 203              		.loc 4 114 20 is_stmt 1 view -0
 204              		.cfi_startproc
 205              		@ args = 0, pretend = 0, frame = 0
 206              		@ frame_needed = 0, uses_anonymous_args = 0
 207              		.loc 4 116 3 view .LVU52
 208              		.loc 4 117 3 view .LVU53
 209              		.loc 4 118 3 view .LVU54
 210              		.loc 4 119 3 view .LVU55
 211              		.loc 4 120 3 view .LVU56
 212              		.loc 4 121 3 view .LVU57
 213              		.loc 4 122 3 view .LVU58
 214              		.loc 4 123 3 view .LVU59
 215              		.loc 4 124 3 view .LVU60
 216              		.loc 4 125 3 view .LVU61
 217              		.loc 4 126 3 view .LVU62
 218              		.loc 4 127 3 view .LVU63
 219              		.loc 4 129 3 view .LVU64
 220              		.loc 4 130 3 view .LVU65
 221              		.loc 4 131 3 view .LVU66
 222              		.loc 4 133 3 view .LVU67
 223              		.loc 4 114 20 is_stmt 0 view .LVU68
 224 0000 08B5     		push	{r3, lr}
 225              		.cfi_def_cfa_offset 8
 226              		.cfi_offset 3, -8
 227              		.cfi_offset 14, -4
 228              		.loc 4 133 3 view .LVU69
ARM GAS  C:\Users\DEVELO~1\AppData\Local\Temp\ccXXemyk.s 			page 5


 229 0002 0921     		movs	r1, #9
 230 0004 7A20     		movs	r0, #122
 231 0006 FFF7FEFF 		bl	nvicEnableVector
 232              	.LVL12:
 233              		.loc 4 136 3 is_stmt 1 view .LVU70
 234              		.loc 4 142 3 view .LVU71
 235              	.LBB162:
 236              	.LBI162:
 237              		.loc 1 70 20 view .LVU72
 238              	.LBB163:
 239              		.loc 1 72 3 view .LVU73
 240 000a 0921     		movs	r1, #9
 241 000c 3120     		movs	r0, #49
 242 000e FFF7FEFF 		bl	nvicEnableVector
 243              	.LVL13:
 244              	.LBE163:
 245              	.LBE162:
 246              		.loc 4 143 3 view .LVU74
 247              		.loc 4 145 3 view .LVU75
 248              		.loc 4 146 3 view .LVU76
 249              	.LBB164:
 250              	.LBI164:
 251              		.loc 3 78 20 view .LVU77
 252              	.LBB165:
 253              		.loc 3 80 3 view .LVU78
 254 0012 0721     		movs	r1, #7
 255 0014 1C20     		movs	r0, #28
 256 0016 FFF7FEFF 		bl	nvicEnableVector
 257              	.LVL14:
 258              	.LBE165:
 259              	.LBE164:
 260              		.loc 4 147 3 view .LVU79
 261              		.loc 4 148 3 view .LVU80
 262              		.loc 4 149 3 view .LVU81
 263              		.loc 4 150 3 view .LVU82
 264              		.loc 4 151 3 view .LVU83
 265              		.loc 4 152 3 view .LVU84
 266              		.loc 4 153 3 view .LVU85
 267              		.loc 4 154 3 view .LVU86
 268              		.loc 4 155 3 view .LVU87
 269              		.loc 4 157 3 view .LVU88
 270              		.loc 4 158 3 view .LVU89
 271              		.loc 4 159 3 view .LVU90
 272              	.LBB166:
 273              	.LBI166:
 274              		.loc 2 63 20 view .LVU91
 275              	.LBB167:
 276              		.loc 2 65 3 view .LVU92
 277 001a 0C21     		movs	r1, #12
 278 001c 2720     		movs	r0, #39
 279              	.LBE167:
 280              	.LBE166:
 281              		.loc 4 168 1 is_stmt 0 view .LVU93
 282 001e BDE80840 		pop	{r3, lr}
 283              		.cfi_restore 14
 284              		.cfi_restore 3
 285              		.cfi_def_cfa_offset 0
ARM GAS  C:\Users\DEVELO~1\AppData\Local\Temp\ccXXemyk.s 			page 6


 286              	.LBB169:
 287              	.LBB168:
 288              		.loc 2 65 3 view .LVU94
 289 0022 FFF7FEBF 		b	nvicEnableVector
 290              	.LVL15:
 291              	.LBE168:
 292              	.LBE169:
 293              		.cfi_endproc
 294              	.LFE515:
 295              		.size	irqInit, .-irqInit
 296 0026 00BF     		.section	.text.irqDeinit,"ax",%progbits
 297              		.align	1
 298              		.p2align 4,,15
 299              		.global	irqDeinit
 300              		.syntax unified
 301              		.thumb
 302              		.thumb_func
 303              		.type	irqDeinit, %function
 304              	irqDeinit:
 305              	.LFB516:
 306              		.loc 4 175 22 is_stmt 1 view -0
 307              		.cfi_startproc
 308              		@ args = 0, pretend = 0, frame = 0
 309              		@ frame_needed = 0, uses_anonymous_args = 0
 310              		.loc 4 177 3 view .LVU96
 311              		.loc 4 178 3 view .LVU97
 312              		.loc 4 179 3 view .LVU98
 313              		.loc 4 180 3 view .LVU99
 314              		.loc 4 181 3 view .LVU100
 315              		.loc 4 182 3 view .LVU101
 316              		.loc 4 183 3 view .LVU102
 317              		.loc 4 184 3 view .LVU103
 318              		.loc 4 185 3 view .LVU104
 319              		.loc 4 186 3 view .LVU105
 320              		.loc 4 187 3 view .LVU106
 321              		.loc 4 188 3 view .LVU107
 322              		.loc 4 190 3 view .LVU108
 323              		.loc 4 191 3 view .LVU109
 324              		.loc 4 192 3 view .LVU110
 325              		.loc 4 194 3 view .LVU111
 326              		.loc 4 175 22 is_stmt 0 view .LVU112
 327 0000 08B5     		push	{r3, lr}
 328              		.cfi_def_cfa_offset 8
 329              		.cfi_offset 3, -8
 330              		.cfi_offset 14, -4
 331              		.loc 4 194 3 view .LVU113
 332 0002 7A20     		movs	r0, #122
 333 0004 FFF7FEFF 		bl	nvicDisableVector
 334              	.LVL16:
 335              		.loc 4 197 3 is_stmt 1 view .LVU114
 336              		.loc 4 203 3 view .LVU115
 337              	.LBB170:
 338              	.LBI170:
 339              		.loc 1 76 20 view .LVU116
 340              	.LBB171:
 341              		.loc 1 78 3 view .LVU117
 342 0008 3120     		movs	r0, #49
ARM GAS  C:\Users\DEVELO~1\AppData\Local\Temp\ccXXemyk.s 			page 7


 343 000a FFF7FEFF 		bl	nvicDisableVector
 344              	.LVL17:
 345              	.LBE171:
 346              	.LBE170:
 347              		.loc 4 204 3 view .LVU118
 348              		.loc 4 206 3 view .LVU119
 349              		.loc 4 207 3 view .LVU120
 350              	.LBB172:
 351              	.LBI172:
 352              		.loc 3 84 20 view .LVU121
 353              	.LBB173:
 354              		.loc 3 86 3 view .LVU122
 355 000e 1C20     		movs	r0, #28
 356 0010 FFF7FEFF 		bl	nvicDisableVector
 357              	.LVL18:
 358              	.LBE173:
 359              	.LBE172:
 360              		.loc 4 208 3 view .LVU123
 361              		.loc 4 209 3 view .LVU124
 362              		.loc 4 210 3 view .LVU125
 363              		.loc 4 211 3 view .LVU126
 364              		.loc 4 212 3 view .LVU127
 365              		.loc 4 213 3 view .LVU128
 366              		.loc 4 214 3 view .LVU129
 367              		.loc 4 215 3 view .LVU130
 368              		.loc 4 216 3 view .LVU131
 369              		.loc 4 218 3 view .LVU132
 370              		.loc 4 219 3 view .LVU133
 371              		.loc 4 220 3 view .LVU134
 372              	.LBB174:
 373              	.LBI174:
 374              		.loc 2 69 20 view .LVU135
 375              	.LBB175:
 376              		.loc 2 71 3 view .LVU136
 377 0014 2720     		movs	r0, #39
 378              	.LBE175:
 379              	.LBE174:
 380              		.loc 4 229 1 is_stmt 0 view .LVU137
 381 0016 BDE80840 		pop	{r3, lr}
 382              		.cfi_restore 14
 383              		.cfi_restore 3
 384              		.cfi_def_cfa_offset 0
 385              	.LBB177:
 386              	.LBB176:
 387              		.loc 2 71 3 view .LVU138
 388 001a FFF7FEBF 		b	nvicDisableVector
 389              	.LVL19:
 390              	.LBE176:
 391              	.LBE177:
 392              		.cfi_endproc
 393              	.LFE516:
 394              		.size	irqDeinit, .-irqDeinit
 395 001e 00BF     		.section	.rodata.__func__.0,"a"
 396              		.align	2
 397              		.set	.LANCHOR2,. + 0
 398              		.type	__func__.0, %object
 399              		.size	__func__.0, 9
ARM GAS  C:\Users\DEVELO~1\AppData\Local\Temp\ccXXemyk.s 			page 8


 400              	__func__.0:
 401 0000 56656374 		.ascii	"VectorB0\000"
 401      6F724230 
 401      00
 402              		.section	.rodata.__func__.1,"a"
 403              		.align	2
 404              		.set	.LANCHOR1,. + 0
 405              		.type	__func__.1, %object
 406              		.size	__func__.1, 9
 407              	__func__.1:
 408 0000 56656374 		.ascii	"VectorDC\000"
 408      6F724443 
 408      00
 409              		.section	.rodata.__func__.2,"a"
 410              		.align	2
 411              		.set	.LANCHOR0,. + 0
 412              		.type	__func__.2, %object
 413              		.size	__func__.2, 10
 414              	__func__.2:
 415 0000 56656374 		.ascii	"Vector104\000"
 415      6F723130 
 415      3400
 416              		.text
 417              	.Letext0:
 418              		.file 5 "c:\\chibistudio\\tools\\gnu tools arm embedded\\11.3 2022.08\\lib\\gcc\\arm-none-eabi\\11
 419              		.file 6 "c:\\chibistudio\\tools\\gnu tools arm embedded\\11.3 2022.08\\arm-none-eabi\\include\\mac
 420              		.file 7 "c:\\chibistudio\\tools\\gnu tools arm embedded\\11.3 2022.08\\arm-none-eabi\\include\\sys
 421              		.file 8 "../../../os/common/ports/ARM-common/chtypes.h"
 422              		.file 9 "../../../os/rt/include/chearly.h"
 423              		.file 10 "../../../os/rt/include/chobjects.h"
 424              		.file 11 "../../../os/rt/include/chrfcu.h"
 425              		.file 12 "../../../os/rt/include/chdebug.h"
 426              		.file 13 "../../../os/rt/include/chtime.h"
 427              		.file 14 "../../../os/rt/include/chlists.h"
 428              		.file 15 "../../../os/rt/include/chtrace.h"
 429              		.file 16 "../../../os/common/ext/ST/STM32H7xx/stm32h743xx.h"
 430              		.file 17 "../../../os/common/ports/ARMv7-M/chcore.h"
 431              		.file 18 "../../../os/rt/include/chsem.h"
 432              		.file 19 "../../../os/rt/include/chmtx.h"
 433              		.file 20 "../../../os/rt/include/chevents.h"
 434              		.file 21 "../../../os/hal/include/hal_ioblock.h"
 435              		.file 22 "../../../os/hal/include/hal_queues.h"
 436              		.file 23 "../../../os/hal/include/hal_serial.h"
 437              		.file 24 "../../../os/hal/include/hal_sdc.h"
 438              		.file 25 "../../../os/hal/ports/STM32/LLD/SDMMCv2/hal_sdc_lld.h"
 439              		.file 26 "../../../os/hal/ports/common/ARMCMx/nvic.h"
 440              		.file 27 "../../../os/hal/ports/STM32/LLD/USARTv3/hal_serial_lld.h"
 441              		.file 28 "../../../os/hal/ports/STM32/LLD/SYSTICKv1/hal_st_lld.h"
 442              		.file 29 "../../../os/hal/ports/STM32/LLD/TIMv1/stm32_tim17.inc"
 443              		.file 30 "../../../os/hal/ports/STM32/LLD/TIMv1/stm32_tim16.inc"
 444              		.file 31 "../../../os/hal/ports/STM32/LLD/TIMv1/stm32_tim15.inc"
 445              		.file 32 "../../../os/hal/ports/STM32/LLD/TIMv1/stm32_tim8_12_13_14.inc"
 446              		.file 33 "../../../os/hal/ports/STM32/LLD/TIMv1/stm32_tim7.inc"
 447              		.file 34 "../../../os/hal/ports/STM32/LLD/TIMv1/stm32_tim6.inc"
 448              		.file 35 "../../../os/hal/ports/STM32/LLD/TIMv1/stm32_tim5.inc"
 449              		.file 36 "../../../os/hal/ports/STM32/LLD/TIMv1/stm32_tim4.inc"
 450              		.file 37 "../../../os/hal/ports/STM32/LLD/TIMv1/stm32_tim3.inc"
ARM GAS  C:\Users\DEVELO~1\AppData\Local\Temp\ccXXemyk.s 			page 9


 451              		.file 38 "../../../os/hal/ports/STM32/LLD/TIMv1/stm32_tim1.inc"
 452              		.file 39 "../../../os/hal/ports/STM32/LLD/USART/stm32_lpuart1.inc"
 453              		.file 40 "../../../os/hal/ports/STM32/LLD/USART/stm32_usart10.inc"
 454              		.file 41 "../../../os/hal/ports/STM32/LLD/USART/stm32_uart9.inc"
 455              		.file 42 "../../../os/hal/ports/STM32/LLD/USART/stm32_uart8.inc"
 456              		.file 43 "../../../os/hal/ports/STM32/LLD/USART/stm32_uart7.inc"
 457              		.file 44 "../../../os/hal/ports/STM32/LLD/USART/stm32_usart6.inc"
 458              		.file 45 "../../../os/hal/ports/STM32/LLD/USART/stm32_uart5.inc"
 459              		.file 46 "../../../os/hal/ports/STM32/LLD/USART/stm32_uart4.inc"
 460              		.file 47 "../../../os/hal/ports/STM32/LLD/USART/stm32_usart2.inc"
 461              		.file 48 "../../../os/hal/ports/STM32/LLD/USART/stm32_usart1.inc"
 462              		.file 49 "../../../os/hal/ports/STM32/LLD/SDMMCv2/stm32_sdmmc2.inc"
 463              		.file 50 "../../../os/hal/ports/STM32/LLD/QUADSPIv2/stm32_quadspi1.inc"
 464              		.file 51 "../../../os/hal/ports/STM32/LLD/FDCANv2/stm32_fdcan3.inc"
 465              		.file 52 "../../../os/hal/ports/STM32/LLD/FDCANv2/stm32_fdcan2.inc"
 466              		.file 53 "../../../os/hal/ports/STM32/LLD/FDCANv2/stm32_fdcan1.inc"
 467              		.file 54 "../../../os/hal/ports/STM32/LLD/EXTIv1/stm32_exti20_21.inc"
 468              		.file 55 "../../../os/hal/ports/STM32/LLD/EXTIv1/stm32_exti19.inc"
 469              		.file 56 "../../../os/hal/ports/STM32/LLD/EXTIv1/stm32_exti18.inc"
 470              		.file 57 "../../../os/hal/ports/STM32/LLD/EXTIv1/stm32_exti17.inc"
 471              		.file 58 "../../../os/hal/ports/STM32/LLD/EXTIv1/stm32_exti16.inc"
 472              		.file 59 "../../../os/hal/ports/STM32/LLD/EXTIv1/stm32_exti10_15.inc"
 473              		.file 60 "../../../os/hal/ports/STM32/LLD/EXTIv1/stm32_exti5_9.inc"
 474              		.file 61 "../../../os/hal/ports/STM32/LLD/EXTIv1/stm32_exti4.inc"
 475              		.file 62 "../../../os/hal/ports/STM32/LLD/EXTIv1/stm32_exti3.inc"
 476              		.file 63 "../../../os/hal/ports/STM32/LLD/EXTIv1/stm32_exti2.inc"
 477              		.file 64 "../../../os/hal/ports/STM32/LLD/EXTIv1/stm32_exti1.inc"
 478              		.file 65 "../../../os/hal/ports/STM32/LLD/EXTIv1/stm32_exti0.inc"