ARM GAS  C:\Users\DEVELO~1\AppData\Local\Temp\ccw7wCqr.s 			page 1


   1              		.cpu cortex-m7
   2              		.arch armv7e-m
   3              		.fpu softvfp
   4              		.eabi_attribute 20, 1
   5              		.eabi_attribute 21, 1
   6              		.eabi_attribute 23, 3
   7              		.eabi_attribute 24, 1
   8              		.eabi_attribute 25, 1
   9              		.eabi_attribute 26, 1
  10              		.eabi_attribute 30, 2
  11              		.eabi_attribute 34, 1
  12              		.eabi_attribute 18, 4
  13              		.file	"stm32h7xx_hal_sai_ex.c"
  14              		.text
  15              	.Ltext0:
  16              		.cfi_sections	.debug_frame
  17              		.section	.text.HAL_SAIEx_ConfigPdmMicDelay,"ax",%progbits
  18              		.align	1
  19              		.p2align 4,,15
  20              		.global	HAL_SAIEx_ConfigPdmMicDelay
  21              		.syntax unified
  22              		.thumb
  23              		.thumb_func
  24              		.type	HAL_SAIEx_ConfigPdmMicDelay, %function
  25              	HAL_SAIEx_ConfigPdmMicDelay:
  26              	.LVL0:
  27              	.LFB141:
  28              		.file 1 "drivers/stm32h7xx-hal-driver/Src/stm32h7xx_hal_sai_ex.c"
  29              		.loc 1 72 1 view -0
  30              		.cfi_startproc
  31              		@ args = 0, pretend = 0, frame = 0
  32              		@ frame_needed = 0, uses_anonymous_args = 0
  33              		@ link register save eliminated.
  34              		.loc 1 73 3 view .LVU1
  35              		.loc 1 74 3 view .LVU2
  36              		.loc 1 75 3 view .LVU3
  37              		.loc 1 79 3 view .LVU4
  38              		.loc 1 79 61 is_stmt 0 view .LVU5
  39 0000 164A     		ldr	r2, .L16
  40              		.loc 1 79 26 view .LVU6
  41 0002 0368     		ldr	r3, [r0]
  42              		.loc 1 79 61 view .LVU7
  43 0004 9342     		cmp	r3, r2
  44              		.loc 1 72 1 view .LVU8
  45 0006 30B4     		push	{r4, r5}
  46              		.cfi_def_cfa_offset 8
  47              		.cfi_offset 4, -8
  48              		.cfi_offset 5, -4
  49              		.loc 1 79 61 view .LVU9
  50 0008 25D0     		beq	.L4
  51              		.loc 1 80 61 view .LVU10
  52 000a 02F1C052 		add	r2, r2, #402653184
  53 000e A2F58232 		sub	r2, r2, #66560
  54 0012 9342     		cmp	r3, r2
  55 0014 02D0     		beq	.L15
  56              	.L6:
  57              		.loc 1 89 12 view .LVU11
ARM GAS  C:\Users\DEVELO~1\AppData\Local\Temp\ccw7wCqr.s 			page 2


  58 0016 0120     		movs	r0, #1
  59              	.LVL1:
  60              		.loc 1 115 3 is_stmt 1 view .LVU12
  61              		.loc 1 116 1 is_stmt 0 view .LVU13
  62 0018 30BC     		pop	{r4, r5}
  63              		.cfi_remember_state
  64              		.cfi_restore 5
  65              		.cfi_restore 4
  66              		.cfi_def_cfa_offset 0
  67 001a 7047     		bx	lr
  68              	.LVL2:
  69              	.L15:
  70              		.cfi_restore_state
  71              		.loc 1 80 61 view .LVU14
  72 001c 104C     		ldr	r4, .L16+4
  73              	.L2:
  74              		.loc 1 94 5 is_stmt 1 view .LVU15
  75              		.loc 1 95 5 view .LVU16
  76              		.loc 1 96 5 view .LVU17
  77              		.loc 1 99 5 view .LVU18
  78              		.loc 1 99 59 is_stmt 0 view .LVU19
  79 001e 0B68     		ldr	r3, [r1]
  80              		.loc 1 102 14 view .LVU20
  81 0020 90F89120 		ldrb	r2, [r0, #145]	@ zero_extendqisi2
  82              		.loc 1 99 59 view .LVU21
  83 0024 013B     		subs	r3, r3, #1
  84              		.loc 1 102 14 view .LVU22
  85 0026 D2B2     		uxtb	r2, r2
  86              		.loc 1 99 12 view .LVU23
  87 0028 DB00     		lsls	r3, r3, #3
  88              	.LVL3:
  89              		.loc 1 102 5 is_stmt 1 view .LVU24
  90              		.loc 1 102 46 is_stmt 0 view .LVU25
  91 002a 182B     		cmp	r3, #24
  92 002c F3D8     		bhi	.L6
  93 002e 002A     		cmp	r2, #0
  94 0030 F1D0     		beq	.L6
  95              		.loc 1 105 7 is_stmt 1 view .LVU26
  96              		.loc 1 105 54 is_stmt 0 view .LVU27
  97 0032 7722     		movs	r2, #119
  98              		.loc 1 105 30 view .LVU28
  99 0034 A06C     		ldr	r0, [r4, #72]
 100              	.LVL4:
 101              		.loc 1 105 54 view .LVU29
 102 0036 9A40     		lsls	r2, r2, r3
 103              		.loc 1 105 30 view .LVU30
 104 0038 20EA0200 		bic	r0, r0, r2
 105              		.loc 1 108 91 view .LVU31
 106 003c D1E90125 		ldrd	r2, r5, [r1, #4]
 107              		.loc 1 105 30 view .LVU32
 108 0040 A064     		str	r0, [r4, #72]
 109              		.loc 1 108 7 is_stmt 1 view .LVU33
 110              		.loc 1 73 21 is_stmt 0 view .LVU34
 111 0042 0020     		movs	r0, #0
 112              		.loc 1 108 91 view .LVU35
 113 0044 42EA0512 		orr	r2, r2, r5, lsl #4
 114              		.loc 1 108 30 view .LVU36
ARM GAS  C:\Users\DEVELO~1\AppData\Local\Temp\ccw7wCqr.s 			page 3


 115 0048 A16C     		ldr	r1, [r4, #72]
 116              	.LVL5:
 117              		.loc 1 108 117 view .LVU37
 118 004a 02FA03F3 		lsl	r3, r2, r3
 119              	.LVL6:
 120              		.loc 1 108 30 view .LVU38
 121 004e 0B43     		orrs	r3, r3, r1
 122 0050 A364     		str	r3, [r4, #72]
 123              	.LVL7:
 124              		.loc 1 115 3 is_stmt 1 view .LVU39
 125              		.loc 1 116 1 is_stmt 0 view .LVU40
 126 0052 30BC     		pop	{r4, r5}
 127              		.cfi_remember_state
 128              		.cfi_restore 5
 129              		.cfi_restore 4
 130              		.cfi_def_cfa_offset 0
 131 0054 7047     		bx	lr
 132              	.LVL8:
 133              	.L4:
 134              		.cfi_restore_state
 135              		.loc 1 79 61 view .LVU41
 136 0056 034C     		ldr	r4, .L16+8
 137 0058 E1E7     		b	.L2
 138              	.L17:
 139 005a 00BF     		.align	2
 140              	.L16:
 141 005c 04580140 		.word	1073829892
 142 0060 00540058 		.word	1476416512
 143 0064 00580140 		.word	1073829888
 144              		.cfi_endproc
 145              	.LFE141:
 146              		.size	HAL_SAIEx_ConfigPdmMicDelay, .-HAL_SAIEx_ConfigPdmMicDelay
 147              		.text
 148              	.Letext0:
 149              		.file 2 "c:\\chibistudio\\tools\\gnu tools arm embedded\\11.3 2022.08\\arm-none-eabi\\include\\mac
 150              		.file 3 "c:\\chibistudio\\tools\\gnu tools arm embedded\\11.3 2022.08\\arm-none-eabi\\include\\sys
 151              		.file 4 "../../../os/common/ext/ST/STM32H7xx/stm32h743xx.h"
 152              		.file 5 "../../../os/common/ext/ST/STM32H7xx/stm32h7xx.h"
 153              		.file 6 "drivers/stm32h7xx-hal-driver/Inc/stm32h7xx_hal_def.h"
 154              		.file 7 "drivers/stm32h7xx-hal-driver/Inc/stm32h7xx_hal_dma.h"
 155              		.file 8 "drivers/stm32h7xx-hal-driver/Inc/stm32h7xx_hal_sai.h"
 156              		.file 9 "drivers/stm32h7xx-hal-driver/Inc/stm32h7xx_hal_sai_ex.h"
 157              		.section	.debug_info,"",%progbits
 158              	.Ldebug_info0:
 159 0000 D6080000 		.4byte	0x8d6
 160 0004 0500     		.2byte	0x5
 161 0006 01       		.byte	0x1
 162 0007 04       		.byte	0x4
 163 0008 00000000 		.4byte	.Ldebug_abbrev0
 164 000c 13       		.uleb128 0x13
 165 000d D5060000 		.4byte	.LASF145
 166 0011 1D       		.byte	0x1d
 167 0012 A7070000 		.4byte	.LASF146
 168 0016 9A010000 		.4byte	.LASF147
 169 001a 0C000000 		.4byte	.LLRL4
 170 001e 00000000 		.4byte	0
 171 0022 00000000 		.4byte	.Ldebug_line0
ARM GAS  C:\Users\DEVELO~1\AppData\Local\Temp\ccw7wCqr.s 			page 4


 172 0026 05       		.uleb128 0x5
 173 0027 02       		.byte	0x2
 174 0028 05       		.byte	0x5
 175 0029 DF030000 		.4byte	.LASF0
 176 002d 05       		.uleb128 0x5
 177 002e 01       		.byte	0x1
 178 002f 06       		.byte	0x6
 179 0030 1C010000 		.4byte	.LASF1
 180 0034 02       		.uleb128 0x2
 181 0035 50000000 		.4byte	.LASF3
 182 0039 02       		.byte	0x2
 183 003a 2B       		.byte	0x2b
 184 003b 18       		.byte	0x18
 185 003c 40000000 		.4byte	0x40
 186 0040 05       		.uleb128 0x5
 187 0041 01       		.byte	0x1
 188 0042 08       		.byte	0x8
 189 0043 58050000 		.4byte	.LASF2
 190 0047 02       		.uleb128 0x2
 191 0048 BA060000 		.4byte	.LASF4
 192 004c 02       		.byte	0x2
 193 004d 39       		.byte	0x39
 194 004e 19       		.byte	0x19
 195 004f 53000000 		.4byte	0x53
 196 0053 05       		.uleb128 0x5
 197 0054 02       		.byte	0x2
 198 0055 07       		.byte	0x7
 199 0056 7C030000 		.4byte	.LASF5
 200 005a 05       		.uleb128 0x5
 201 005b 04       		.byte	0x4
 202 005c 05       		.byte	0x5
 203 005d F0010000 		.4byte	.LASF6
 204 0061 02       		.uleb128 0x2
 205 0062 90020000 		.4byte	.LASF7
 206 0066 02       		.byte	0x2
 207 0067 4F       		.byte	0x4f
 208 0068 19       		.byte	0x19
 209 0069 6D000000 		.4byte	0x6d
 210 006d 05       		.uleb128 0x5
 211 006e 04       		.byte	0x4
 212 006f 07       		.byte	0x7
 213 0070 42030000 		.4byte	.LASF8
 214 0074 05       		.uleb128 0x5
 215 0075 08       		.byte	0x8
 216 0076 05       		.byte	0x5
 217 0077 0E010000 		.4byte	.LASF9
 218 007b 05       		.uleb128 0x5
 219 007c 08       		.byte	0x8
 220 007d 07       		.byte	0x7
 221 007e 44010000 		.4byte	.LASF10
 222 0082 14       		.uleb128 0x14
 223 0083 04       		.byte	0x4
 224 0084 05       		.byte	0x5
 225 0085 696E7400 		.ascii	"int\000"
 226 0089 05       		.uleb128 0x5
 227 008a 04       		.byte	0x4
 228 008b 07       		.byte	0x7
ARM GAS  C:\Users\DEVELO~1\AppData\Local\Temp\ccw7wCqr.s 			page 5


 229 008c EF020000 		.4byte	.LASF11
 230 0090 02       		.uleb128 0x2
 231 0091 4D080000 		.4byte	.LASF12
 232 0095 03       		.byte	0x3
 233 0096 18       		.byte	0x18
 234 0097 13       		.byte	0x13
 235 0098 34000000 		.4byte	0x34
 236 009c 02       		.uleb128 0x2
 237 009d 34020000 		.4byte	.LASF13
 238 00a1 03       		.byte	0x3
 239 00a2 24       		.byte	0x24
 240 00a3 14       		.byte	0x14
 241 00a4 47000000 		.4byte	0x47
 242 00a8 02       		.uleb128 0x2
 243 00a9 48060000 		.4byte	.LASF14
 244 00ad 03       		.byte	0x3
 245 00ae 30       		.byte	0x30
 246 00af 14       		.byte	0x14
 247 00b0 61000000 		.4byte	0x61
 248 00b4 0C       		.uleb128 0xc
 249 00b5 A8000000 		.4byte	0xa8
 250 00b9 08       		.uleb128 0x8
 251 00ba 04       		.byte	0x4
 252 00bb 5102     		.2byte	0x251
 253 00bd CF000000 		.4byte	0xcf
 254 00c1 06       		.uleb128 0x6
 255 00c2 43435200 		.ascii	"CCR\000"
 256 00c6 5302     		.2byte	0x253
 257 00c8 12       		.byte	0x12
 258 00c9 B4000000 		.4byte	0xb4
 259 00cd 00       		.byte	0
 260 00ce 00       		.byte	0
 261 00cf 09       		.uleb128 0x9
 262 00d0 20080000 		.4byte	.LASF15
 263 00d4 5402     		.2byte	0x254
 264 00d6 02       		.byte	0x2
 265 00d7 B9000000 		.4byte	0xb9
 266 00db 08       		.uleb128 0x8
 267 00dc 08       		.byte	0x8
 268 00dd 5602     		.2byte	0x256
 269 00df FE000000 		.4byte	0xfe
 270 00e3 06       		.uleb128 0x6
 271 00e4 43535200 		.ascii	"CSR\000"
 272 00e8 5802     		.2byte	0x258
 273 00ea 12       		.byte	0x12
 274 00eb B4000000 		.4byte	0xb4
 275 00ef 00       		.byte	0
 276 00f0 06       		.uleb128 0x6
 277 00f1 43465200 		.ascii	"CFR\000"
 278 00f5 5902     		.2byte	0x259
 279 00f7 12       		.byte	0x12
 280 00f8 B4000000 		.4byte	0xb4
 281 00fc 04       		.byte	0x4
 282 00fd 00       		.byte	0
 283 00fe 09       		.uleb128 0x9
 284 00ff 93000000 		.4byte	.LASF16
 285 0103 5A02     		.2byte	0x25a
ARM GAS  C:\Users\DEVELO~1\AppData\Local\Temp\ccw7wCqr.s 			page 6


 286 0105 02       		.byte	0x2
 287 0106 DB000000 		.4byte	0xdb
 288 010a 08       		.uleb128 0x8
 289 010b 04       		.byte	0x4
 290 010c 5C02     		.2byte	0x25c
 291 010e 20010000 		.4byte	0x120
 292 0112 07       		.uleb128 0x7
 293 0113 E0040000 		.4byte	.LASF17
 294 0117 5E02     		.2byte	0x25e
 295 0119 12       		.byte	0x12
 296 011a B4000000 		.4byte	0xb4
 297 011e 00       		.byte	0
 298 011f 00       		.byte	0
 299 0120 09       		.uleb128 0x9
 300 0121 E9030000 		.4byte	.LASF18
 301 0125 5F02     		.2byte	0x25f
 302 0127 02       		.byte	0x2
 303 0128 0A010000 		.4byte	0x10a
 304 012c 08       		.uleb128 0x8
 305 012d 08       		.byte	0x8
 306 012e 6102     		.2byte	0x261
 307 0130 4F010000 		.4byte	0x14f
 308 0134 07       		.uleb128 0x7
 309 0135 15060000 		.4byte	.LASF19
 310 0139 6302     		.2byte	0x263
 311 013b 12       		.byte	0x12
 312 013c B4000000 		.4byte	0xb4
 313 0140 00       		.byte	0
 314 0141 07       		.uleb128 0x7
 315 0142 C7030000 		.4byte	.LASF20
 316 0146 6402     		.2byte	0x264
 317 0148 12       		.byte	0x12
 318 0149 B4000000 		.4byte	0xb4
 319 014d 04       		.byte	0x4
 320 014e 00       		.byte	0
 321 014f 09       		.uleb128 0x9
 322 0150 83080000 		.4byte	.LASF21
 323 0154 6502     		.2byte	0x265
 324 0156 02       		.byte	0x2
 325 0157 2C010000 		.4byte	0x12c
 326 015b 08       		.uleb128 0x8
 327 015c 4C       		.byte	0x4c
 328 015d 5405     		.2byte	0x554
 329 015f 98010000 		.4byte	0x198
 330 0163 06       		.uleb128 0x6
 331 0164 47435200 		.ascii	"GCR\000"
 332 0168 5605     		.2byte	0x556
 333 016a 11       		.byte	0x11
 334 016b B4000000 		.4byte	0xb4
 335 016f 00       		.byte	0
 336 0170 07       		.uleb128 0x7
 337 0171 1E050000 		.4byte	.LASF22
 338 0175 5705     		.2byte	0x557
 339 0177 11       		.byte	0x11
 340 0178 98010000 		.4byte	0x198
 341 017c 04       		.byte	0x4
 342 017d 07       		.uleb128 0x7
ARM GAS  C:\Users\DEVELO~1\AppData\Local\Temp\ccw7wCqr.s 			page 7


 343 017e B9020000 		.4byte	.LASF23
 344 0182 5805     		.2byte	0x558
 345 0184 11       		.byte	0x11
 346 0185 B4000000 		.4byte	0xb4
 347 0189 44       		.byte	0x44
 348 018a 07       		.uleb128 0x7
 349 018b 5D040000 		.4byte	.LASF24
 350 018f 5905     		.2byte	0x559
 351 0191 11       		.byte	0x11
 352 0192 B4000000 		.4byte	0xb4
 353 0196 48       		.byte	0x48
 354 0197 00       		.byte	0
 355 0198 15       		.uleb128 0x15
 356 0199 A8000000 		.4byte	0xa8
 357 019d A8010000 		.4byte	0x1a8
 358 01a1 16       		.uleb128 0x16
 359 01a2 89000000 		.4byte	0x89
 360 01a6 0F       		.byte	0xf
 361 01a7 00       		.byte	0
 362 01a8 09       		.uleb128 0x9
 363 01a9 00000000 		.4byte	.LASF25
 364 01ad 5A05     		.2byte	0x55a
 365 01af 03       		.byte	0x3
 366 01b0 5B010000 		.4byte	0x15b
 367 01b4 08       		.uleb128 0x8
 368 01b5 20       		.byte	0x20
 369 01b6 5C05     		.2byte	0x55c
 370 01b8 23020000 		.4byte	0x223
 371 01bc 06       		.uleb128 0x6
 372 01bd 43523100 		.ascii	"CR1\000"
 373 01c1 5E05     		.2byte	0x55e
 374 01c3 11       		.byte	0x11
 375 01c4 B4000000 		.4byte	0xb4
 376 01c8 00       		.byte	0
 377 01c9 06       		.uleb128 0x6
 378 01ca 43523200 		.ascii	"CR2\000"
 379 01ce 5F05     		.2byte	0x55f
 380 01d0 11       		.byte	0x11
 381 01d1 B4000000 		.4byte	0xb4
 382 01d5 04       		.byte	0x4
 383 01d6 07       		.uleb128 0x7
 384 01d7 55080000 		.4byte	.LASF26
 385 01db 6005     		.2byte	0x560
 386 01dd 11       		.byte	0x11
 387 01de B4000000 		.4byte	0xb4
 388 01e2 08       		.byte	0x8
 389 01e3 07       		.uleb128 0x7
 390 01e4 70010000 		.4byte	.LASF27
 391 01e8 6105     		.2byte	0x561
 392 01ea 11       		.byte	0x11
 393 01eb B4000000 		.4byte	0xb4
 394 01ef 0C       		.byte	0xc
 395 01f0 06       		.uleb128 0x6
 396 01f1 494D5200 		.ascii	"IMR\000"
 397 01f5 6205     		.2byte	0x562
 398 01f7 11       		.byte	0x11
 399 01f8 B4000000 		.4byte	0xb4
ARM GAS  C:\Users\DEVELO~1\AppData\Local\Temp\ccw7wCqr.s 			page 8


 400 01fc 10       		.byte	0x10
 401 01fd 06       		.uleb128 0x6
 402 01fe 535200   		.ascii	"SR\000"
 403 0201 6305     		.2byte	0x563
 404 0203 11       		.byte	0x11
 405 0204 B4000000 		.4byte	0xb4
 406 0208 14       		.byte	0x14
 407 0209 07       		.uleb128 0x7
 408 020a 2E060000 		.4byte	.LASF28
 409 020e 6405     		.2byte	0x564
 410 0210 11       		.byte	0x11
 411 0211 B4000000 		.4byte	0xb4
 412 0215 18       		.byte	0x18
 413 0216 06       		.uleb128 0x6
 414 0217 445200   		.ascii	"DR\000"
 415 021a 6505     		.2byte	0x565
 416 021c 11       		.byte	0x11
 417 021d B4000000 		.4byte	0xb4
 418 0221 1C       		.byte	0x1c
 419 0222 00       		.byte	0
 420 0223 09       		.uleb128 0x9
 421 0224 03060000 		.4byte	.LASF29
 422 0228 6605     		.2byte	0x566
 423 022a 03       		.byte	0x3
 424 022b B4010000 		.4byte	0x1b4
 425 022f 0B       		.uleb128 0xb
 426 0230 40000000 		.4byte	0x40
 427 0234 05       		.byte	0x5
 428 0235 BA       		.byte	0xba
 429 0236 47020000 		.4byte	0x247
 430 023a 03       		.uleb128 0x3
 431 023b 8B000000 		.4byte	.LASF30
 432 023f 00       		.byte	0
 433 0240 03       		.uleb128 0x3
 434 0241 23020000 		.4byte	.LASF31
 435 0245 01       		.byte	0x1
 436 0246 00       		.byte	0
 437 0247 02       		.uleb128 0x2
 438 0248 B3040000 		.4byte	.LASF32
 439 024c 05       		.byte	0x5
 440 024d BD       		.byte	0xbd
 441 024e 03       		.byte	0x3
 442 024f 2F020000 		.4byte	0x22f
 443 0253 05       		.uleb128 0x5
 444 0254 08       		.byte	0x8
 445 0255 04       		.byte	0x4
 446 0256 7A060000 		.4byte	.LASF33
 447 025a 17       		.uleb128 0x17
 448 025b 04       		.byte	0x4
 449 025c 04       		.uleb128 0x4
 450 025d 61020000 		.4byte	0x261
 451 0261 18       		.uleb128 0x18
 452 0262 05       		.uleb128 0x5
 453 0263 01       		.byte	0x1
 454 0264 08       		.byte	0x8
 455 0265 94060000 		.4byte	.LASF34
 456 0269 05       		.uleb128 0x5
ARM GAS  C:\Users\DEVELO~1\AppData\Local\Temp\ccw7wCqr.s 			page 9


 457 026a 04       		.byte	0x4
 458 026b 04       		.byte	0x4
 459 026c F0040000 		.4byte	.LASF35
 460 0270 05       		.uleb128 0x5
 461 0271 08       		.byte	0x8
 462 0272 04       		.byte	0x4
 463 0273 44020000 		.4byte	.LASF36
 464 0277 0B       		.uleb128 0xb
 465 0278 40000000 		.4byte	0x40
 466 027c 06       		.byte	0x6
 467 027d 28       		.byte	0x28
 468 027e 9B020000 		.4byte	0x29b
 469 0282 03       		.uleb128 0x3
 470 0283 60030000 		.4byte	.LASF37
 471 0287 00       		.byte	0
 472 0288 03       		.uleb128 0x3
 473 0289 5A060000 		.4byte	.LASF38
 474 028d 01       		.byte	0x1
 475 028e 03       		.uleb128 0x3
 476 028f 6E000000 		.4byte	.LASF39
 477 0293 02       		.byte	0x2
 478 0294 03       		.uleb128 0x3
 479 0295 36030000 		.4byte	.LASF40
 480 0299 03       		.byte	0x3
 481 029a 00       		.byte	0
 482 029b 02       		.uleb128 0x2
 483 029c CD030000 		.4byte	.LASF41
 484 02a0 06       		.byte	0x6
 485 02a1 2D       		.byte	0x2d
 486 02a2 03       		.byte	0x3
 487 02a3 77020000 		.4byte	0x277
 488 02a7 0B       		.uleb128 0xb
 489 02a8 40000000 		.4byte	0x40
 490 02ac 06       		.byte	0x6
 491 02ad 33       		.byte	0x33
 492 02ae BF020000 		.4byte	0x2bf
 493 02b2 03       		.uleb128 0x3
 494 02b3 76080000 		.4byte	.LASF42
 495 02b7 00       		.byte	0
 496 02b8 03       		.uleb128 0x3
 497 02b9 52040000 		.4byte	.LASF43
 498 02bd 01       		.byte	0x1
 499 02be 00       		.byte	0
 500 02bf 02       		.uleb128 0x2
 501 02c0 76010000 		.4byte	.LASF44
 502 02c4 06       		.byte	0x6
 503 02c5 36       		.byte	0x36
 504 02c6 03       		.byte	0x3
 505 02c7 A7020000 		.4byte	0x2a7
 506 02cb 0A       		.uleb128 0xa
 507 02cc 30       		.byte	0x30
 508 02cd 07       		.byte	0x7
 509 02ce 30       		.byte	0x30
 510 02cf 70030000 		.4byte	0x370
 511 02d3 01       		.uleb128 0x1
 512 02d4 99060000 		.4byte	.LASF45
 513 02d8 07       		.byte	0x7
ARM GAS  C:\Users\DEVELO~1\AppData\Local\Temp\ccw7wCqr.s 			page 10


 514 02d9 32       		.byte	0x32
 515 02da 0C       		.byte	0xc
 516 02db A8000000 		.4byte	0xa8
 517 02df 00       		.byte	0
 518 02e0 01       		.uleb128 0x1
 519 02e1 AF020000 		.4byte	.LASF46
 520 02e5 07       		.byte	0x7
 521 02e6 35       		.byte	0x35
 522 02e7 0C       		.byte	0xc
 523 02e8 A8000000 		.4byte	0xa8
 524 02ec 04       		.byte	0x4
 525 02ed 01       		.uleb128 0x1
 526 02ee 0B020000 		.4byte	.LASF47
 527 02f2 07       		.byte	0x7
 528 02f3 39       		.byte	0x39
 529 02f4 0C       		.byte	0xc
 530 02f5 A8000000 		.4byte	0xa8
 531 02f9 08       		.byte	0x8
 532 02fa 01       		.uleb128 0x1
 533 02fb CE060000 		.4byte	.LASF48
 534 02ff 07       		.byte	0x7
 535 0300 3C       		.byte	0x3c
 536 0301 0C       		.byte	0xc
 537 0302 A8000000 		.4byte	0xa8
 538 0306 0C       		.byte	0xc
 539 0307 01       		.uleb128 0x1
 540 0308 EB070000 		.4byte	.LASF49
 541 030c 07       		.byte	0x7
 542 030d 3F       		.byte	0x3f
 543 030e 0C       		.byte	0xc
 544 030f A8000000 		.4byte	0xa8
 545 0313 10       		.byte	0x10
 546 0314 01       		.uleb128 0x1
 547 0315 B6030000 		.4byte	.LASF50
 548 0319 07       		.byte	0x7
 549 031a 42       		.byte	0x42
 550 031b 0C       		.byte	0xc
 551 031c A8000000 		.4byte	0xa8
 552 0320 14       		.byte	0x14
 553 0321 01       		.uleb128 0x1
 554 0322 AA020000 		.4byte	.LASF51
 555 0326 07       		.byte	0x7
 556 0327 45       		.byte	0x45
 557 0328 0C       		.byte	0xc
 558 0329 A8000000 		.4byte	0xa8
 559 032d 18       		.byte	0x18
 560 032e 01       		.uleb128 0x1
 561 032f 8F030000 		.4byte	.LASF52
 562 0333 07       		.byte	0x7
 563 0334 4A       		.byte	0x4a
 564 0335 0C       		.byte	0xc
 565 0336 A8000000 		.4byte	0xa8
 566 033a 1C       		.byte	0x1c
 567 033b 01       		.uleb128 0x1
 568 033c 51060000 		.4byte	.LASF53
 569 0340 07       		.byte	0x7
 570 0341 4D       		.byte	0x4d
ARM GAS  C:\Users\DEVELO~1\AppData\Local\Temp\ccw7wCqr.s 			page 11


 571 0342 0C       		.byte	0xc
 572 0343 A8000000 		.4byte	0xa8
 573 0347 20       		.byte	0x20
 574 0348 01       		.uleb128 0x1
 575 0349 86060000 		.4byte	.LASF54
 576 034d 07       		.byte	0x7
 577 034e 52       		.byte	0x52
 578 034f 0C       		.byte	0xc
 579 0350 A8000000 		.4byte	0xa8
 580 0354 24       		.byte	0x24
 581 0355 01       		.uleb128 0x1
 582 0356 1A020000 		.4byte	.LASF55
 583 035a 07       		.byte	0x7
 584 035b 55       		.byte	0x55
 585 035c 0C       		.byte	0xc
 586 035d A8000000 		.4byte	0xa8
 587 0361 28       		.byte	0x28
 588 0362 01       		.uleb128 0x1
 589 0363 E1080000 		.4byte	.LASF56
 590 0367 07       		.byte	0x7
 591 0368 5B       		.byte	0x5b
 592 0369 0C       		.byte	0xc
 593 036a A8000000 		.4byte	0xa8
 594 036e 2C       		.byte	0x2c
 595 036f 00       		.byte	0
 596 0370 02       		.uleb128 0x2
 597 0371 36000000 		.4byte	.LASF57
 598 0375 07       		.byte	0x7
 599 0376 60       		.byte	0x60
 600 0377 02       		.byte	0x2
 601 0378 CB020000 		.4byte	0x2cb
 602 037c 0B       		.uleb128 0xb
 603 037d 40000000 		.4byte	0x40
 604 0381 07       		.byte	0x7
 605 0382 66       		.byte	0x66
 606 0383 A6030000 		.4byte	0x3a6
 607 0387 03       		.uleb128 0x3
 608 0388 FC020000 		.4byte	.LASF58
 609 038c 00       		.byte	0
 610 038d 03       		.uleb128 0x3
 611 038e 2A040000 		.4byte	.LASF59
 612 0392 01       		.byte	0x1
 613 0393 03       		.uleb128 0x3
 614 0394 D5050000 		.4byte	.LASF60
 615 0398 02       		.byte	0x2
 616 0399 03       		.uleb128 0x3
 617 039a 66050000 		.4byte	.LASF61
 618 039e 03       		.byte	0x3
 619 039f 03       		.uleb128 0x3
 620 03a0 98030000 		.4byte	.LASF62
 621 03a4 04       		.byte	0x4
 622 03a5 00       		.byte	0
 623 03a6 02       		.uleb128 0x2
 624 03a7 A9050000 		.4byte	.LASF63
 625 03ab 07       		.byte	0x7
 626 03ac 6C       		.byte	0x6c
 627 03ad 02       		.byte	0x2
ARM GAS  C:\Users\DEVELO~1\AppData\Local\Temp\ccw7wCqr.s 			page 12


 628 03ae 7C030000 		.4byte	0x37c
 629 03b2 0C       		.uleb128 0xc
 630 03b3 A6030000 		.4byte	0x3a6
 631 03b7 0D       		.uleb128 0xd
 632 03b8 34060000 		.4byte	.LASF125
 633 03bc 78       		.byte	0x78
 634 03bd 07       		.byte	0x7
 635 03be 88       		.byte	0x88
 636 03bf C8040000 		.4byte	0x4c8
 637 03c3 01       		.uleb128 0x1
 638 03c4 28050000 		.4byte	.LASF64
 639 03c8 07       		.byte	0x7
 640 03c9 8A       		.byte	0x8a
 641 03ca 24       		.byte	0x24
 642 03cb 5A020000 		.4byte	0x25a
 643 03cf 00       		.byte	0
 644 03d0 01       		.uleb128 0x1
 645 03d1 31000000 		.4byte	.LASF65
 646 03d5 07       		.byte	0x7
 647 03d6 8C       		.byte	0x8c
 648 03d7 23       		.byte	0x23
 649 03d8 70030000 		.4byte	0x370
 650 03dc 04       		.byte	0x4
 651 03dd 01       		.uleb128 0x1
 652 03de 6D020000 		.4byte	.LASF66
 653 03e2 07       		.byte	0x7
 654 03e3 8E       		.byte	0x8e
 655 03e4 23       		.byte	0x23
 656 03e5 BF020000 		.4byte	0x2bf
 657 03e9 34       		.byte	0x34
 658 03ea 01       		.uleb128 0x1
 659 03eb B4060000 		.4byte	.LASF67
 660 03ef 07       		.byte	0x7
 661 03f0 90       		.byte	0x90
 662 03f1 23       		.byte	0x23
 663 03f2 B2030000 		.4byte	0x3b2
 664 03f6 35       		.byte	0x35
 665 03f7 01       		.uleb128 0x1
 666 03f8 5D020000 		.4byte	.LASF68
 667 03fc 07       		.byte	0x7
 668 03fd 92       		.byte	0x92
 669 03fe 24       		.byte	0x24
 670 03ff 5A020000 		.4byte	0x25a
 671 0403 38       		.byte	0x38
 672 0404 01       		.uleb128 0x1
 673 0405 D0080000 		.4byte	.LASF69
 674 0409 07       		.byte	0x7
 675 040a 94       		.byte	0x94
 676 040b 26       		.byte	0x26
 677 040c D8040000 		.4byte	0x4d8
 678 0410 3C       		.byte	0x3c
 679 0411 01       		.uleb128 0x1
 680 0412 2F010000 		.4byte	.LASF70
 681 0416 07       		.byte	0x7
 682 0417 96       		.byte	0x96
 683 0418 26       		.byte	0x26
 684 0419 D8040000 		.4byte	0x4d8
ARM GAS  C:\Users\DEVELO~1\AppData\Local\Temp\ccw7wCqr.s 			page 13


 685 041d 40       		.byte	0x40
 686 041e 01       		.uleb128 0x1
 687 041f FB000000 		.4byte	.LASF71
 688 0423 07       		.byte	0x7
 689 0424 98       		.byte	0x98
 690 0425 26       		.byte	0x26
 691 0426 D8040000 		.4byte	0x4d8
 692 042a 44       		.byte	0x44
 693 042b 01       		.uleb128 0x1
 694 042c 31050000 		.4byte	.LASF72
 695 0430 07       		.byte	0x7
 696 0431 9A       		.byte	0x9a
 697 0432 26       		.byte	0x26
 698 0433 D8040000 		.4byte	0x4d8
 699 0437 48       		.byte	0x48
 700 0438 01       		.uleb128 0x1
 701 0439 A1040000 		.4byte	.LASF73
 702 043d 07       		.byte	0x7
 703 043e 9C       		.byte	0x9c
 704 043f 26       		.byte	0x26
 705 0440 D8040000 		.4byte	0x4d8
 706 0444 4C       		.byte	0x4c
 707 0445 01       		.uleb128 0x1
 708 0446 A3080000 		.4byte	.LASF74
 709 044a 07       		.byte	0x7
 710 044b 9E       		.byte	0x9e
 711 044c 26       		.byte	0x26
 712 044d D8040000 		.4byte	0x4d8
 713 0451 50       		.byte	0x50
 714 0452 01       		.uleb128 0x1
 715 0453 AC030000 		.4byte	.LASF75
 716 0457 07       		.byte	0x7
 717 0458 A0       		.byte	0xa0
 718 0459 23       		.byte	0x23
 719 045a B4000000 		.4byte	0xb4
 720 045e 54       		.byte	0x54
 721 045f 01       		.uleb128 0x1
 722 0460 4B020000 		.4byte	.LASF76
 723 0464 07       		.byte	0x7
 724 0465 A2       		.byte	0xa2
 725 0466 23       		.byte	0x23
 726 0467 A8000000 		.4byte	0xa8
 727 046b 58       		.byte	0x58
 728 046c 01       		.uleb128 0x1
 729 046d 54030000 		.4byte	.LASF77
 730 0471 07       		.byte	0x7
 731 0472 A4       		.byte	0xa4
 732 0473 23       		.byte	0x23
 733 0474 A8000000 		.4byte	0xa8
 734 0478 5C       		.byte	0x5c
 735 0479 01       		.uleb128 0x1
 736 047a 28030000 		.4byte	.LASF78
 737 047e 07       		.byte	0x7
 738 047f A6       		.byte	0xa6
 739 0480 24       		.byte	0x24
 740 0481 DD040000 		.4byte	0x4dd
 741 0485 60       		.byte	0x60
ARM GAS  C:\Users\DEVELO~1\AppData\Local\Temp\ccw7wCqr.s 			page 14


 742 0486 01       		.uleb128 0x1
 743 0487 5A000000 		.4byte	.LASF79
 744 048b 07       		.byte	0x7
 745 048c A8       		.byte	0xa8
 746 048d 24       		.byte	0x24
 747 048e E2040000 		.4byte	0x4e2
 748 0492 64       		.byte	0x64
 749 0493 01       		.uleb128 0x1
 750 0494 FF070000 		.4byte	.LASF80
 751 0498 07       		.byte	0x7
 752 0499 AA       		.byte	0xaa
 753 049a 23       		.byte	0x23
 754 049b A8000000 		.4byte	0xa8
 755 049f 68       		.byte	0x68
 756 04a0 01       		.uleb128 0x1
 757 04a1 BF020000 		.4byte	.LASF81
 758 04a5 07       		.byte	0x7
 759 04a6 AD       		.byte	0xad
 760 04a7 24       		.byte	0x24
 761 04a8 E7040000 		.4byte	0x4e7
 762 04ac 6C       		.byte	0x6c
 763 04ad 01       		.uleb128 0x1
 764 04ae BE050000 		.4byte	.LASF82
 765 04b2 07       		.byte	0x7
 766 04b3 AF       		.byte	0xaf
 767 04b4 24       		.byte	0x24
 768 04b5 EC040000 		.4byte	0x4ec
 769 04b9 70       		.byte	0x70
 770 04ba 01       		.uleb128 0x1
 771 04bb B5080000 		.4byte	.LASF83
 772 04bf 07       		.byte	0x7
 773 04c0 B1       		.byte	0xb1
 774 04c1 23       		.byte	0x23
 775 04c2 A8000000 		.4byte	0xa8
 776 04c6 74       		.byte	0x74
 777 04c7 00       		.byte	0
 778 04c8 0E       		.uleb128 0xe
 779 04c9 D3040000 		.4byte	0x4d3
 780 04cd 0F       		.uleb128 0xf
 781 04ce D3040000 		.4byte	0x4d3
 782 04d2 00       		.byte	0
 783 04d3 04       		.uleb128 0x4
 784 04d4 B7030000 		.4byte	0x3b7
 785 04d8 04       		.uleb128 0x4
 786 04d9 C8040000 		.4byte	0x4c8
 787 04dd 04       		.uleb128 0x4
 788 04de CF000000 		.4byte	0xcf
 789 04e2 04       		.uleb128 0x4
 790 04e3 FE000000 		.4byte	0xfe
 791 04e7 04       		.uleb128 0x4
 792 04e8 20010000 		.4byte	0x120
 793 04ec 04       		.uleb128 0x4
 794 04ed 4F010000 		.4byte	0x14f
 795 04f1 02       		.uleb128 0x2
 796 04f2 7A040000 		.4byte	.LASF84
 797 04f6 07       		.byte	0x7
 798 04f7 B3       		.byte	0xb3
ARM GAS  C:\Users\DEVELO~1\AppData\Local\Temp\ccw7wCqr.s 			page 15


 799 04f8 02       		.byte	0x2
 800 04f9 B7030000 		.4byte	0x3b7
 801 04fd 0B       		.uleb128 0xb
 802 04fe 40000000 		.4byte	0x40
 803 0502 08       		.byte	0x8
 804 0503 2F       		.byte	0x2f
 805 0504 27050000 		.4byte	0x527
 806 0508 03       		.uleb128 0x3
 807 0509 5A080000 		.4byte	.LASF85
 808 050d 00       		.byte	0
 809 050e 03       		.uleb128 0x3
 810 050f 77000000 		.4byte	.LASF86
 811 0513 01       		.byte	0x1
 812 0514 03       		.uleb128 0x3
 813 0515 00050000 		.4byte	.LASF87
 814 0519 02       		.byte	0x2
 815 051a 03       		.uleb128 0x3
 816 051b 1B000000 		.4byte	.LASF88
 817 051f 12       		.byte	0x12
 818 0520 03       		.uleb128 0x3
 819 0521 64060000 		.4byte	.LASF89
 820 0525 22       		.byte	0x22
 821 0526 00       		.byte	0
 822 0527 02       		.uleb128 0x2
 823 0528 8C040000 		.4byte	.LASF90
 824 052c 08       		.byte	0x8
 825 052d 35       		.byte	0x35
 826 052e 03       		.byte	0x3
 827 052f FD040000 		.4byte	0x4fd
 828 0533 0C       		.uleb128 0xc
 829 0534 27050000 		.4byte	0x527
 830 0538 02       		.uleb128 0x2
 831 0539 D7020000 		.4byte	.LASF91
 832 053d 08       		.byte	0x8
 833 053e 3A       		.byte	0x3a
 834 053f 10       		.byte	0x10
 835 0540 5C020000 		.4byte	0x25c
 836 0544 0A       		.uleb128 0xa
 837 0545 0C       		.byte	0xc
 838 0546 08       		.byte	0x8
 839 0547 40       		.byte	0x40
 840 0548 74050000 		.4byte	0x574
 841 054c 01       		.uleb128 0x1
 842 054d 13050000 		.4byte	.LASF92
 843 0551 08       		.byte	0x8
 844 0552 42       		.byte	0x42
 845 0553 14       		.byte	0x14
 846 0554 47020000 		.4byte	0x247
 847 0558 00       		.byte	0
 848 0559 01       		.uleb128 0x1
 849 055a DF070000 		.4byte	.LASF93
 850 055e 08       		.byte	0x8
 851 055f 43       		.byte	0x43
 852 0560 14       		.byte	0x14
 853 0561 A8000000 		.4byte	0xa8
 854 0565 04       		.byte	0x4
 855 0566 01       		.uleb128 0x1
ARM GAS  C:\Users\DEVELO~1\AppData\Local\Temp\ccw7wCqr.s 			page 16


 856 0567 1A060000 		.4byte	.LASF94
 857 056b 08       		.byte	0x8
 858 056c 45       		.byte	0x45
 859 056d 14       		.byte	0x14
 860 056e A8000000 		.4byte	0xa8
 861 0572 08       		.byte	0x8
 862 0573 00       		.byte	0
 863 0574 02       		.uleb128 0x2
 864 0575 A1060000 		.4byte	.LASF95
 865 0579 08       		.byte	0x8
 866 057a 47       		.byte	0x47
 867 057b 03       		.byte	0x3
 868 057c 44050000 		.4byte	0x544
 869 0580 0A       		.uleb128 0xa
 870 0581 50       		.byte	0x50
 871 0582 08       		.byte	0x8
 872 0583 50       		.byte	0x50
 873 0584 73060000 		.4byte	0x673
 874 0588 01       		.uleb128 0x1
 875 0589 67030000 		.4byte	.LASF96
 876 058d 08       		.byte	0x8
 877 058e 52       		.byte	0x52
 878 058f 0C       		.byte	0xc
 879 0590 A8000000 		.4byte	0xa8
 880 0594 00       		.byte	0
 881 0595 01       		.uleb128 0x1
 882 0596 6E080000 		.4byte	.LASF97
 883 059a 08       		.byte	0x8
 884 059b 55       		.byte	0x55
 885 059c 0C       		.byte	0xc
 886 059d A8000000 		.4byte	0xa8
 887 05a1 04       		.byte	0x4
 888 05a2 01       		.uleb128 0x1
 889 05a3 8A070000 		.4byte	.LASF98
 890 05a7 08       		.byte	0x8
 891 05a8 58       		.byte	0x58
 892 05a9 0C       		.byte	0xc
 893 05aa A8000000 		.4byte	0xa8
 894 05ae 08       		.byte	0x8
 895 05af 01       		.uleb128 0x1
 896 05b0 F6040000 		.4byte	.LASF99
 897 05b4 08       		.byte	0x8
 898 05b5 5E       		.byte	0x5e
 899 05b6 0C       		.byte	0xc
 900 05b7 A8000000 		.4byte	0xa8
 901 05bb 0C       		.byte	0xc
 902 05bc 01       		.uleb128 0x1
 903 05bd E3020000 		.4byte	.LASF100
 904 05c1 08       		.byte	0x8
 905 05c2 62       		.byte	0x62
 906 05c3 0C       		.byte	0xc
 907 05c4 A8000000 		.4byte	0xa8
 908 05c8 10       		.byte	0x10
 909 05c9 01       		.uleb128 0x1
 910 05ca 2A020000 		.4byte	.LASF101
 911 05ce 08       		.byte	0x8
 912 05cf 67       		.byte	0x67
ARM GAS  C:\Users\DEVELO~1\AppData\Local\Temp\ccw7wCqr.s 			page 17


 913 05d0 0C       		.byte	0xc
 914 05d1 A8000000 		.4byte	0xa8
 915 05d5 14       		.byte	0x14
 916 05d6 01       		.uleb128 0x1
 917 05d7 86060000 		.4byte	.LASF54
 918 05db 08       		.byte	0x8
 919 05dc 6F       		.byte	0x6f
 920 05dd 0C       		.byte	0xc
 921 05de A8000000 		.4byte	0xa8
 922 05e2 18       		.byte	0x18
 923 05e3 01       		.uleb128 0x1
 924 05e4 E8050000 		.4byte	.LASF102
 925 05e8 08       		.byte	0x8
 926 05e9 72       		.byte	0x72
 927 05ea 0C       		.byte	0xc
 928 05eb A8000000 		.4byte	0xa8
 929 05ef 1C       		.byte	0x1c
 930 05f0 01       		.uleb128 0x1
 931 05f1 28010000 		.4byte	.LASF103
 932 05f5 08       		.byte	0x8
 933 05f6 75       		.byte	0x75
 934 05f7 0C       		.byte	0xc
 935 05f8 A8000000 		.4byte	0xa8
 936 05fc 20       		.byte	0x20
 937 05fd 01       		.uleb128 0x1
 938 05fe 99050000 		.4byte	.LASF104
 939 0602 08       		.byte	0x8
 940 0603 7A       		.byte	0x7a
 941 0604 0C       		.byte	0xc
 942 0605 A8000000 		.4byte	0xa8
 943 0609 24       		.byte	0x24
 944 060a 01       		.uleb128 0x1
 945 060b 9B020000 		.4byte	.LASF105
 946 060f 08       		.byte	0x8
 947 0610 7D       		.byte	0x7d
 948 0611 0C       		.byte	0xc
 949 0612 A8000000 		.4byte	0xa8
 950 0616 28       		.byte	0x28
 951 0617 01       		.uleb128 0x1
 952 0618 0C000000 		.4byte	.LASF106
 953 061c 08       		.byte	0x8
 954 061d 80       		.byte	0x80
 955 061e 0C       		.byte	0xc
 956 061f A8000000 		.4byte	0xa8
 957 0623 2C       		.byte	0x2c
 958 0624 01       		.uleb128 0x1
 959 0625 64020000 		.4byte	.LASF107
 960 0629 08       		.byte	0x8
 961 062a 83       		.byte	0x83
 962 062b 0C       		.byte	0xc
 963 062c A8000000 		.4byte	0xa8
 964 0630 30       		.byte	0x30
 965 0631 01       		.uleb128 0x1
 966 0632 26060000 		.4byte	.LASF108
 967 0636 08       		.byte	0x8
 968 0637 86       		.byte	0x86
 969 0638 16       		.byte	0x16
ARM GAS  C:\Users\DEVELO~1\AppData\Local\Temp\ccw7wCqr.s 			page 18


 970 0639 74050000 		.4byte	0x574
 971 063d 34       		.byte	0x34
 972 063e 01       		.uleb128 0x1
 973 063f E8000000 		.4byte	.LASF109
 974 0643 08       		.byte	0x8
 975 0644 8B       		.byte	0x8b
 976 0645 0C       		.byte	0xc
 977 0646 A8000000 		.4byte	0xa8
 978 064a 40       		.byte	0x40
 979 064b 01       		.uleb128 0x1
 980 064c C5060000 		.4byte	.LASF110
 981 0650 08       		.byte	0x8
 982 0651 8E       		.byte	0x8e
 983 0652 0C       		.byte	0xc
 984 0653 A8000000 		.4byte	0xa8
 985 0657 44       		.byte	0x44
 986 0658 01       		.uleb128 0x1
 987 0659 CA040000 		.4byte	.LASF111
 988 065d 08       		.byte	0x8
 989 065e 91       		.byte	0x91
 990 065f 0C       		.byte	0xc
 991 0660 A8000000 		.4byte	0xa8
 992 0664 48       		.byte	0x48
 993 0665 01       		.uleb128 0x1
 994 0666 8B050000 		.4byte	.LASF112
 995 066a 08       		.byte	0x8
 996 066b 94       		.byte	0x94
 997 066c 0C       		.byte	0xc
 998 066d A8000000 		.4byte	0xa8
 999 0671 4C       		.byte	0x4c
 1000 0672 00       		.byte	0
 1001 0673 02       		.uleb128 0x2
 1002 0674 48050000 		.4byte	.LASF113
 1003 0678 08       		.byte	0x8
 1004 0679 96       		.byte	0x96
 1005 067a 03       		.byte	0x3
 1006 067b 80050000 		.4byte	0x580
 1007 067f 0A       		.uleb128 0xa
 1008 0680 14       		.byte	0x14
 1009 0681 08       		.byte	0x8
 1010 0682 A0       		.byte	0xa0
 1011 0683 C9060000 		.4byte	0x6c9
 1012 0687 01       		.uleb128 0x1
 1013 0688 F7050000 		.4byte	.LASF114
 1014 068c 08       		.byte	0x8
 1015 068d A3       		.byte	0xa3
 1016 068e 0C       		.byte	0xc
 1017 068f A8000000 		.4byte	0xa8
 1018 0693 00       		.byte	0
 1019 0694 01       		.uleb128 0x1
 1020 0695 95070000 		.4byte	.LASF115
 1021 0699 08       		.byte	0x8
 1022 069a A9       		.byte	0xa9
 1023 069b 0C       		.byte	0xc
 1024 069c A8000000 		.4byte	0xa8
 1025 06a0 04       		.byte	0x4
 1026 06a1 01       		.uleb128 0x1
ARM GAS  C:\Users\DEVELO~1\AppData\Local\Temp\ccw7wCqr.s 			page 19


 1027 06a2 6D040000 		.4byte	.LASF116
 1028 06a6 08       		.byte	0x8
 1029 06a7 AE       		.byte	0xae
 1030 06a8 0C       		.byte	0xc
 1031 06a9 A8000000 		.4byte	0xa8
 1032 06ad 08       		.byte	0x8
 1033 06ae 01       		.uleb128 0x1
 1034 06af 3E040000 		.4byte	.LASF117
 1035 06b3 08       		.byte	0x8
 1036 06b4 B1       		.byte	0xb1
 1037 06b5 0C       		.byte	0xc
 1038 06b6 A8000000 		.4byte	0xa8
 1039 06ba 0C       		.byte	0xc
 1040 06bb 01       		.uleb128 0x1
 1041 06bc 1F030000 		.4byte	.LASF118
 1042 06c0 08       		.byte	0x8
 1043 06c1 B4       		.byte	0xb4
 1044 06c2 0C       		.byte	0xc
 1045 06c3 A8000000 		.4byte	0xa8
 1046 06c7 10       		.byte	0x10
 1047 06c8 00       		.byte	0
 1048 06c9 02       		.uleb128 0x2
 1049 06ca 5B010000 		.4byte	.LASF119
 1050 06ce 08       		.byte	0x8
 1051 06cf B7       		.byte	0xb7
 1052 06d0 03       		.byte	0x3
 1053 06d1 7F060000 		.4byte	0x67f
 1054 06d5 0A       		.uleb128 0xa
 1055 06d6 10       		.byte	0x10
 1056 06d7 08       		.byte	0x8
 1057 06d8 C2       		.byte	0xc2
 1058 06d9 12070000 		.4byte	0x712
 1059 06dd 01       		.uleb128 0x1
 1060 06de 3E080000 		.4byte	.LASF120
 1061 06e2 08       		.byte	0x8
 1062 06e3 C4       		.byte	0xc4
 1063 06e4 0C       		.byte	0xc
 1064 06e5 A8000000 		.4byte	0xa8
 1065 06e9 00       		.byte	0
 1066 06ea 01       		.uleb128 0x1
 1067 06eb 64040000 		.4byte	.LASF121
 1068 06ef 08       		.byte	0x8
 1069 06f0 C7       		.byte	0xc7
 1070 06f1 0C       		.byte	0xc
 1071 06f2 A8000000 		.4byte	0xa8
 1072 06f6 04       		.byte	0x4
 1073 06f7 01       		.uleb128 0x1
 1074 06f8 71030000 		.4byte	.LASF122
 1075 06fc 08       		.byte	0x8
 1076 06fd CA       		.byte	0xca
 1077 06fe 0C       		.byte	0xc
 1078 06ff A8000000 		.4byte	0xa8
 1079 0703 08       		.byte	0x8
 1080 0704 01       		.uleb128 0x1
 1081 0705 03040000 		.4byte	.LASF123
 1082 0709 08       		.byte	0x8
 1083 070a CD       		.byte	0xcd
ARM GAS  C:\Users\DEVELO~1\AppData\Local\Temp\ccw7wCqr.s 			page 20


 1084 070b 0C       		.byte	0xc
 1085 070c A8000000 		.4byte	0xa8
 1086 0710 0C       		.byte	0xc
 1087 0711 00       		.byte	0
 1088 0712 02       		.uleb128 0x2
 1089 0713 D4000000 		.4byte	.LASF124
 1090 0717 08       		.byte	0x8
 1091 0718 CF       		.byte	0xcf
 1092 0719 03       		.byte	0x3
 1093 071a D5060000 		.4byte	0x6d5
 1094 071e 0D       		.uleb128 0xd
 1095 071f 86010000 		.4byte	.LASF126
 1096 0723 98       		.byte	0x98
 1097 0724 08       		.byte	0x8
 1098 0725 D8       		.byte	0xd8
 1099 0726 E1070000 		.4byte	0x7e1
 1100 072a 01       		.uleb128 0x1
 1101 072b 28050000 		.4byte	.LASF64
 1102 072f 08       		.byte	0x8
 1103 0730 DA       		.byte	0xda
 1104 0731 1E       		.byte	0x1e
 1105 0732 E1070000 		.4byte	0x7e1
 1106 0736 00       		.byte	0
 1107 0737 01       		.uleb128 0x1
 1108 0738 31000000 		.4byte	.LASF65
 1109 073c 08       		.byte	0x8
 1110 073d DC       		.byte	0xdc
 1111 073e 1D       		.byte	0x1d
 1112 073f 73060000 		.4byte	0x673
 1113 0743 04       		.byte	0x4
 1114 0744 01       		.uleb128 0x1
 1115 0745 ED080000 		.4byte	.LASF127
 1116 0749 08       		.byte	0x8
 1117 074a DE       		.byte	0xde
 1118 074b 1D       		.byte	0x1d
 1119 074c C9060000 		.4byte	0x6c9
 1120 0750 54       		.byte	0x54
 1121 0751 01       		.uleb128 0x1
 1122 0752 49040000 		.4byte	.LASF128
 1123 0756 08       		.byte	0x8
 1124 0757 E0       		.byte	0xe0
 1125 0758 1D       		.byte	0x1d
 1126 0759 12070000 		.4byte	0x712
 1127 075d 68       		.byte	0x68
 1128 075e 01       		.uleb128 0x1
 1129 075f 7A050000 		.4byte	.LASF129
 1130 0763 08       		.byte	0x8
 1131 0764 E2       		.byte	0xe2
 1132 0765 1D       		.byte	0x1d
 1133 0766 E6070000 		.4byte	0x7e6
 1134 076a 78       		.byte	0x78
 1135 076b 01       		.uleb128 0x1
 1136 076c 17080000 		.4byte	.LASF130
 1137 0770 08       		.byte	0x8
 1138 0771 E4       		.byte	0xe4
 1139 0772 1D       		.byte	0x1d
 1140 0773 9C000000 		.4byte	0x9c
ARM GAS  C:\Users\DEVELO~1\AppData\Local\Temp\ccw7wCqr.s 			page 21


 1141 0777 7C       		.byte	0x7c
 1142 0778 01       		.uleb128 0x1
 1143 0779 F1000000 		.4byte	.LASF131
 1144 077d 08       		.byte	0x8
 1145 077e E6       		.byte	0xe6
 1146 077f 1D       		.byte	0x1d
 1147 0780 9C000000 		.4byte	0x9c
 1148 0784 7E       		.byte	0x7e
 1149 0785 01       		.uleb128 0x1
 1150 0786 C3040000 		.4byte	.LASF132
 1151 078a 08       		.byte	0x8
 1152 078b E8       		.byte	0xe8
 1153 078c 1E       		.byte	0x1e
 1154 078d EB070000 		.4byte	0x7eb
 1155 0791 80       		.byte	0x80
 1156 0792 01       		.uleb128 0x1
 1157 0793 D0020000 		.4byte	.LASF133
 1158 0797 08       		.byte	0x8
 1159 0798 EA       		.byte	0xea
 1160 0799 1E       		.byte	0x1e
 1161 079a EB070000 		.4byte	0x7eb
 1162 079e 84       		.byte	0x84
 1163 079f 01       		.uleb128 0x1
 1164 07a0 D3040000 		.4byte	.LASF134
 1165 07a4 08       		.byte	0x8
 1166 07a5 EC       		.byte	0xec
 1167 07a6 1D       		.byte	0x1d
 1168 07a7 38050000 		.4byte	0x538
 1169 07ab 88       		.byte	0x88
 1170 07ac 01       		.uleb128 0x1
 1171 07ad B0000000 		.4byte	.LASF135
 1172 07b1 08       		.byte	0x8
 1173 07b2 EE       		.byte	0xee
 1174 07b3 0A       		.byte	0xa
 1175 07b4 00080000 		.4byte	0x800
 1176 07b8 8C       		.byte	0x8c
 1177 07b9 01       		.uleb128 0x1
 1178 07ba 6D020000 		.4byte	.LASF66
 1179 07be 08       		.byte	0x8
 1180 07bf F0       		.byte	0xf0
 1181 07c0 1D       		.byte	0x1d
 1182 07c1 BF020000 		.4byte	0x2bf
 1183 07c5 90       		.byte	0x90
 1184 07c6 01       		.uleb128 0x1
 1185 07c7 B4060000 		.4byte	.LASF67
 1186 07cb 08       		.byte	0x8
 1187 07cc F2       		.byte	0xf2
 1188 07cd 1D       		.byte	0x1d
 1189 07ce 33050000 		.4byte	0x533
 1190 07d2 91       		.byte	0x91
 1191 07d3 01       		.uleb128 0x1
 1192 07d4 AC030000 		.4byte	.LASF75
 1193 07d8 08       		.byte	0x8
 1194 07d9 F4       		.byte	0xf4
 1195 07da 1D       		.byte	0x1d
 1196 07db B4000000 		.4byte	0xb4
 1197 07df 94       		.byte	0x94
ARM GAS  C:\Users\DEVELO~1\AppData\Local\Temp\ccw7wCqr.s 			page 22


 1198 07e0 00       		.byte	0
 1199 07e1 04       		.uleb128 0x4
 1200 07e2 23020000 		.4byte	0x223
 1201 07e6 04       		.uleb128 0x4
 1202 07e7 90000000 		.4byte	0x90
 1203 07eb 04       		.uleb128 0x4
 1204 07ec F1040000 		.4byte	0x4f1
 1205 07f0 0E       		.uleb128 0xe
 1206 07f1 FB070000 		.4byte	0x7fb
 1207 07f5 0F       		.uleb128 0xf
 1208 07f6 FB070000 		.4byte	0x7fb
 1209 07fa 00       		.byte	0
 1210 07fb 04       		.uleb128 0x4
 1211 07fc 1E070000 		.4byte	0x71e
 1212 0800 04       		.uleb128 0x4
 1213 0801 F0070000 		.4byte	0x7f0
 1214 0805 02       		.uleb128 0x2
 1215 0806 F9010000 		.4byte	.LASF136
 1216 080a 08       		.byte	0x8
 1217 080b FF       		.byte	0xff
 1218 080c 03       		.byte	0x3
 1219 080d 1E070000 		.4byte	0x71e
 1220 0811 10       		.uleb128 0x10
 1221 0812 05080000 		.4byte	0x805
 1222 0816 0A       		.uleb128 0xa
 1223 0817 0C       		.byte	0xc
 1224 0818 09       		.byte	0x9
 1225 0819 2E       		.byte	0x2e
 1226 081a 46080000 		.4byte	0x846
 1227 081e 01       		.uleb128 0x1
 1228 081f 83050000 		.4byte	.LASF137
 1229 0823 09       		.byte	0x9
 1230 0824 30       		.byte	0x30
 1231 0825 0C       		.byte	0xc
 1232 0826 A8000000 		.4byte	0xa8
 1233 082a 00       		.byte	0
 1234 082b 01       		.uleb128 0x1
 1235 082c 46000000 		.4byte	.LASF138
 1236 0830 09       		.byte	0x9
 1237 0831 33       		.byte	0x33
 1238 0832 0C       		.byte	0xc
 1239 0833 A8000000 		.4byte	0xa8
 1240 0837 04       		.byte	0x4
 1241 0838 01       		.uleb128 0x1
 1242 0839 E5040000 		.4byte	.LASF139
 1243 083d 09       		.byte	0x9
 1244 083e 36       		.byte	0x36
 1245 083f 0C       		.byte	0xc
 1246 0840 A8000000 		.4byte	0xa8
 1247 0844 08       		.byte	0x8
 1248 0845 00       		.byte	0
 1249 0846 02       		.uleb128 0x2
 1250 0847 72020000 		.4byte	.LASF140
 1251 084b 09       		.byte	0x9
 1252 084c 38       		.byte	0x38
 1253 084d 03       		.byte	0x3
 1254 084e 16080000 		.4byte	0x816
ARM GAS  C:\Users\DEVELO~1\AppData\Local\Temp\ccw7wCqr.s 			page 23


 1255 0852 10       		.uleb128 0x10
 1256 0853 46080000 		.4byte	0x846
 1257 0857 19       		.uleb128 0x19
 1258 0858 0E040000 		.4byte	.LASF148
 1259 085c 01       		.byte	0x1
 1260 085d 46       		.byte	0x46
 1261 085e 13       		.byte	0x13
 1262 085f 9B020000 		.4byte	0x29b
 1263 0863 00000000 		.4byte	.LFB141
 1264 0867 68000000 		.4byte	.LFE141-.LFB141
 1265 086b 01       		.uleb128 0x1
 1266 086c 9C       		.byte	0x9c
 1267 086d CA080000 		.4byte	0x8ca
 1268 0871 11       		.uleb128 0x11
 1269 0872 15020000 		.4byte	.LASF141
 1270 0876 46       		.byte	0x46
 1271 0877 48       		.byte	0x48
 1272 0878 CA080000 		.4byte	0x8ca
 1273 087c 16000000 		.4byte	.LLST0
 1274 0880 0C000000 		.4byte	.LVUS0
 1275 0884 11       		.uleb128 0x11
 1276 0885 C8000000 		.4byte	.LASF142
 1277 0889 47       		.byte	0x47
 1278 088a 54       		.byte	0x54
 1279 088b CF080000 		.4byte	0x8cf
 1280 088f 41000000 		.4byte	.LLST1
 1281 0893 3B000000 		.4byte	.LVUS1
 1282 0897 12       		.uleb128 0x12
 1283 0898 37080000 		.4byte	.LASF143
 1284 089c 49       		.byte	0x49
 1285 089d 15       		.byte	0x15
 1286 089e 9B020000 		.4byte	0x29b
 1287 08a2 63000000 		.4byte	.LLST2
 1288 08a6 59000000 		.4byte	.LVUS2
 1289 08aa 12       		.uleb128 0x12
 1290 08ab 3D020000 		.4byte	.LASF144
 1291 08af 4A       		.byte	0x4a
 1292 08b0 0C       		.byte	0xc
 1293 08b1 A8000000 		.4byte	0xa8
 1294 08b5 89000000 		.4byte	.LLST3
 1295 08b9 85000000 		.4byte	.LVUS3
 1296 08bd 1A       		.uleb128 0x1a
 1297 08be 10030000 		.4byte	.LASF149
 1298 08c2 01       		.byte	0x1
 1299 08c3 4B       		.byte	0x4b
 1300 08c4 10       		.byte	0x10
 1301 08c5 D4080000 		.4byte	0x8d4
 1302 08c9 00       		.byte	0
 1303 08ca 04       		.uleb128 0x4
 1304 08cb 11080000 		.4byte	0x811
 1305 08cf 04       		.uleb128 0x4
 1306 08d0 52080000 		.4byte	0x852
 1307 08d4 04       		.uleb128 0x4
 1308 08d5 A8010000 		.4byte	0x1a8
 1309 08d9 00       		.byte	0
 1310              		.section	.debug_abbrev,"",%progbits
 1311              	.Ldebug_abbrev0:
ARM GAS  C:\Users\DEVELO~1\AppData\Local\Temp\ccw7wCqr.s 			page 24


 1312 0000 01       		.uleb128 0x1
 1313 0001 0D       		.uleb128 0xd
 1314 0002 00       		.byte	0
 1315 0003 03       		.uleb128 0x3
 1316 0004 0E       		.uleb128 0xe
 1317 0005 3A       		.uleb128 0x3a
 1318 0006 0B       		.uleb128 0xb
 1319 0007 3B       		.uleb128 0x3b
 1320 0008 0B       		.uleb128 0xb
 1321 0009 39       		.uleb128 0x39
 1322 000a 0B       		.uleb128 0xb
 1323 000b 49       		.uleb128 0x49
 1324 000c 13       		.uleb128 0x13
 1325 000d 38       		.uleb128 0x38
 1326 000e 0B       		.uleb128 0xb
 1327 000f 00       		.byte	0
 1328 0010 00       		.byte	0
 1329 0011 02       		.uleb128 0x2
 1330 0012 16       		.uleb128 0x16
 1331 0013 00       		.byte	0
 1332 0014 03       		.uleb128 0x3
 1333 0015 0E       		.uleb128 0xe
 1334 0016 3A       		.uleb128 0x3a
 1335 0017 0B       		.uleb128 0xb
 1336 0018 3B       		.uleb128 0x3b
 1337 0019 0B       		.uleb128 0xb
 1338 001a 39       		.uleb128 0x39
 1339 001b 0B       		.uleb128 0xb
 1340 001c 49       		.uleb128 0x49
 1341 001d 13       		.uleb128 0x13
 1342 001e 00       		.byte	0
 1343 001f 00       		.byte	0
 1344 0020 03       		.uleb128 0x3
 1345 0021 28       		.uleb128 0x28
 1346 0022 00       		.byte	0
 1347 0023 03       		.uleb128 0x3
 1348 0024 0E       		.uleb128 0xe
 1349 0025 1C       		.uleb128 0x1c
 1350 0026 0B       		.uleb128 0xb
 1351 0027 00       		.byte	0
 1352 0028 00       		.byte	0
 1353 0029 04       		.uleb128 0x4
 1354 002a 0F       		.uleb128 0xf
 1355 002b 00       		.byte	0
 1356 002c 0B       		.uleb128 0xb
 1357 002d 21       		.uleb128 0x21
 1358 002e 04       		.sleb128 4
 1359 002f 49       		.uleb128 0x49
 1360 0030 13       		.uleb128 0x13
 1361 0031 00       		.byte	0
 1362 0032 00       		.byte	0
 1363 0033 05       		.uleb128 0x5
 1364 0034 24       		.uleb128 0x24
 1365 0035 00       		.byte	0
 1366 0036 0B       		.uleb128 0xb
 1367 0037 0B       		.uleb128 0xb
 1368 0038 3E       		.uleb128 0x3e
ARM GAS  C:\Users\DEVELO~1\AppData\Local\Temp\ccw7wCqr.s 			page 25


 1369 0039 0B       		.uleb128 0xb
 1370 003a 03       		.uleb128 0x3
 1371 003b 0E       		.uleb128 0xe
 1372 003c 00       		.byte	0
 1373 003d 00       		.byte	0
 1374 003e 06       		.uleb128 0x6
 1375 003f 0D       		.uleb128 0xd
 1376 0040 00       		.byte	0
 1377 0041 03       		.uleb128 0x3
 1378 0042 08       		.uleb128 0x8
 1379 0043 3A       		.uleb128 0x3a
 1380 0044 21       		.uleb128 0x21
 1381 0045 04       		.sleb128 4
 1382 0046 3B       		.uleb128 0x3b
 1383 0047 05       		.uleb128 0x5
 1384 0048 39       		.uleb128 0x39
 1385 0049 0B       		.uleb128 0xb
 1386 004a 49       		.uleb128 0x49
 1387 004b 13       		.uleb128 0x13
 1388 004c 38       		.uleb128 0x38
 1389 004d 0B       		.uleb128 0xb
 1390 004e 00       		.byte	0
 1391 004f 00       		.byte	0
 1392 0050 07       		.uleb128 0x7
 1393 0051 0D       		.uleb128 0xd
 1394 0052 00       		.byte	0
 1395 0053 03       		.uleb128 0x3
 1396 0054 0E       		.uleb128 0xe
 1397 0055 3A       		.uleb128 0x3a
 1398 0056 21       		.uleb128 0x21
 1399 0057 04       		.sleb128 4
 1400 0058 3B       		.uleb128 0x3b
 1401 0059 05       		.uleb128 0x5
 1402 005a 39       		.uleb128 0x39
 1403 005b 0B       		.uleb128 0xb
 1404 005c 49       		.uleb128 0x49
 1405 005d 13       		.uleb128 0x13
 1406 005e 38       		.uleb128 0x38
 1407 005f 0B       		.uleb128 0xb
 1408 0060 00       		.byte	0
 1409 0061 00       		.byte	0
 1410 0062 08       		.uleb128 0x8
 1411 0063 13       		.uleb128 0x13
 1412 0064 01       		.byte	0x1
 1413 0065 0B       		.uleb128 0xb
 1414 0066 0B       		.uleb128 0xb
 1415 0067 3A       		.uleb128 0x3a
 1416 0068 21       		.uleb128 0x21
 1417 0069 04       		.sleb128 4
 1418 006a 3B       		.uleb128 0x3b
 1419 006b 05       		.uleb128 0x5
 1420 006c 39       		.uleb128 0x39
 1421 006d 21       		.uleb128 0x21
 1422 006e 09       		.sleb128 9
 1423 006f 01       		.uleb128 0x1
 1424 0070 13       		.uleb128 0x13
 1425 0071 00       		.byte	0
ARM GAS  C:\Users\DEVELO~1\AppData\Local\Temp\ccw7wCqr.s 			page 26


 1426 0072 00       		.byte	0
 1427 0073 09       		.uleb128 0x9
 1428 0074 16       		.uleb128 0x16
 1429 0075 00       		.byte	0
 1430 0076 03       		.uleb128 0x3
 1431 0077 0E       		.uleb128 0xe
 1432 0078 3A       		.uleb128 0x3a
 1433 0079 21       		.uleb128 0x21
 1434 007a 04       		.sleb128 4
 1435 007b 3B       		.uleb128 0x3b
 1436 007c 05       		.uleb128 0x5
 1437 007d 39       		.uleb128 0x39
 1438 007e 0B       		.uleb128 0xb
 1439 007f 49       		.uleb128 0x49
 1440 0080 13       		.uleb128 0x13
 1441 0081 00       		.byte	0
 1442 0082 00       		.byte	0
 1443 0083 0A       		.uleb128 0xa
 1444 0084 13       		.uleb128 0x13
 1445 0085 01       		.byte	0x1
 1446 0086 0B       		.uleb128 0xb
 1447 0087 0B       		.uleb128 0xb
 1448 0088 3A       		.uleb128 0x3a
 1449 0089 0B       		.uleb128 0xb
 1450 008a 3B       		.uleb128 0x3b
 1451 008b 0B       		.uleb128 0xb
 1452 008c 39       		.uleb128 0x39
 1453 008d 21       		.uleb128 0x21
 1454 008e 09       		.sleb128 9
 1455 008f 01       		.uleb128 0x1
 1456 0090 13       		.uleb128 0x13
 1457 0091 00       		.byte	0
 1458 0092 00       		.byte	0
 1459 0093 0B       		.uleb128 0xb
 1460 0094 04       		.uleb128 0x4
 1461 0095 01       		.byte	0x1
 1462 0096 3E       		.uleb128 0x3e
 1463 0097 21       		.uleb128 0x21
 1464 0098 07       		.sleb128 7
 1465 0099 0B       		.uleb128 0xb
 1466 009a 21       		.uleb128 0x21
 1467 009b 01       		.sleb128 1
 1468 009c 49       		.uleb128 0x49
 1469 009d 13       		.uleb128 0x13
 1470 009e 3A       		.uleb128 0x3a
 1471 009f 0B       		.uleb128 0xb
 1472 00a0 3B       		.uleb128 0x3b
 1473 00a1 0B       		.uleb128 0xb
 1474 00a2 39       		.uleb128 0x39
 1475 00a3 21       		.uleb128 0x21
 1476 00a4 01       		.sleb128 1
 1477 00a5 01       		.uleb128 0x1
 1478 00a6 13       		.uleb128 0x13
 1479 00a7 00       		.byte	0
 1480 00a8 00       		.byte	0
 1481 00a9 0C       		.uleb128 0xc
 1482 00aa 35       		.uleb128 0x35
ARM GAS  C:\Users\DEVELO~1\AppData\Local\Temp\ccw7wCqr.s 			page 27


 1483 00ab 00       		.byte	0
 1484 00ac 49       		.uleb128 0x49
 1485 00ad 13       		.uleb128 0x13
 1486 00ae 00       		.byte	0
 1487 00af 00       		.byte	0
 1488 00b0 0D       		.uleb128 0xd
 1489 00b1 13       		.uleb128 0x13
 1490 00b2 01       		.byte	0x1
 1491 00b3 03       		.uleb128 0x3
 1492 00b4 0E       		.uleb128 0xe
 1493 00b5 0B       		.uleb128 0xb
 1494 00b6 0B       		.uleb128 0xb
 1495 00b7 3A       		.uleb128 0x3a
 1496 00b8 0B       		.uleb128 0xb
 1497 00b9 3B       		.uleb128 0x3b
 1498 00ba 0B       		.uleb128 0xb
 1499 00bb 39       		.uleb128 0x39
 1500 00bc 21       		.uleb128 0x21
 1501 00bd 10       		.sleb128 16
 1502 00be 01       		.uleb128 0x1
 1503 00bf 13       		.uleb128 0x13
 1504 00c0 00       		.byte	0
 1505 00c1 00       		.byte	0
 1506 00c2 0E       		.uleb128 0xe
 1507 00c3 15       		.uleb128 0x15
 1508 00c4 01       		.byte	0x1
 1509 00c5 27       		.uleb128 0x27
 1510 00c6 19       		.uleb128 0x19
 1511 00c7 01       		.uleb128 0x1
 1512 00c8 13       		.uleb128 0x13
 1513 00c9 00       		.byte	0
 1514 00ca 00       		.byte	0
 1515 00cb 0F       		.uleb128 0xf
 1516 00cc 05       		.uleb128 0x5
 1517 00cd 00       		.byte	0
 1518 00ce 49       		.uleb128 0x49
 1519 00cf 13       		.uleb128 0x13
 1520 00d0 00       		.byte	0
 1521 00d1 00       		.byte	0
 1522 00d2 10       		.uleb128 0x10
 1523 00d3 26       		.uleb128 0x26
 1524 00d4 00       		.byte	0
 1525 00d5 49       		.uleb128 0x49
 1526 00d6 13       		.uleb128 0x13
 1527 00d7 00       		.byte	0
 1528 00d8 00       		.byte	0
 1529 00d9 11       		.uleb128 0x11
 1530 00da 05       		.uleb128 0x5
 1531 00db 00       		.byte	0
 1532 00dc 03       		.uleb128 0x3
 1533 00dd 0E       		.uleb128 0xe
 1534 00de 3A       		.uleb128 0x3a
 1535 00df 21       		.uleb128 0x21
 1536 00e0 01       		.sleb128 1
 1537 00e1 3B       		.uleb128 0x3b
 1538 00e2 0B       		.uleb128 0xb
 1539 00e3 39       		.uleb128 0x39
ARM GAS  C:\Users\DEVELO~1\AppData\Local\Temp\ccw7wCqr.s 			page 28


 1540 00e4 0B       		.uleb128 0xb
 1541 00e5 49       		.uleb128 0x49
 1542 00e6 13       		.uleb128 0x13
 1543 00e7 02       		.uleb128 0x2
 1544 00e8 17       		.uleb128 0x17
 1545 00e9 B742     		.uleb128 0x2137
 1546 00eb 17       		.uleb128 0x17
 1547 00ec 00       		.byte	0
 1548 00ed 00       		.byte	0
 1549 00ee 12       		.uleb128 0x12
 1550 00ef 34       		.uleb128 0x34
 1551 00f0 00       		.byte	0
 1552 00f1 03       		.uleb128 0x3
 1553 00f2 0E       		.uleb128 0xe
 1554 00f3 3A       		.uleb128 0x3a
 1555 00f4 21       		.uleb128 0x21
 1556 00f5 01       		.sleb128 1
 1557 00f6 3B       		.uleb128 0x3b
 1558 00f7 0B       		.uleb128 0xb
 1559 00f8 39       		.uleb128 0x39
 1560 00f9 0B       		.uleb128 0xb
 1561 00fa 49       		.uleb128 0x49
 1562 00fb 13       		.uleb128 0x13
 1563 00fc 02       		.uleb128 0x2
 1564 00fd 17       		.uleb128 0x17
 1565 00fe B742     		.uleb128 0x2137
 1566 0100 17       		.uleb128 0x17
 1567 0101 00       		.byte	0
 1568 0102 00       		.byte	0
 1569 0103 13       		.uleb128 0x13
 1570 0104 11       		.uleb128 0x11
 1571 0105 01       		.byte	0x1
 1572 0106 25       		.uleb128 0x25
 1573 0107 0E       		.uleb128 0xe
 1574 0108 13       		.uleb128 0x13
 1575 0109 0B       		.uleb128 0xb
 1576 010a 03       		.uleb128 0x3
 1577 010b 0E       		.uleb128 0xe
 1578 010c 1B       		.uleb128 0x1b
 1579 010d 0E       		.uleb128 0xe
 1580 010e 55       		.uleb128 0x55
 1581 010f 17       		.uleb128 0x17
 1582 0110 11       		.uleb128 0x11
 1583 0111 01       		.uleb128 0x1
 1584 0112 10       		.uleb128 0x10
 1585 0113 17       		.uleb128 0x17
 1586 0114 00       		.byte	0
 1587 0115 00       		.byte	0
 1588 0116 14       		.uleb128 0x14
 1589 0117 24       		.uleb128 0x24
 1590 0118 00       		.byte	0
 1591 0119 0B       		.uleb128 0xb
 1592 011a 0B       		.uleb128 0xb
 1593 011b 3E       		.uleb128 0x3e
 1594 011c 0B       		.uleb128 0xb
 1595 011d 03       		.uleb128 0x3
 1596 011e 08       		.uleb128 0x8
ARM GAS  C:\Users\DEVELO~1\AppData\Local\Temp\ccw7wCqr.s 			page 29


 1597 011f 00       		.byte	0
 1598 0120 00       		.byte	0
 1599 0121 15       		.uleb128 0x15
 1600 0122 01       		.uleb128 0x1
 1601 0123 01       		.byte	0x1
 1602 0124 49       		.uleb128 0x49
 1603 0125 13       		.uleb128 0x13
 1604 0126 01       		.uleb128 0x1
 1605 0127 13       		.uleb128 0x13
 1606 0128 00       		.byte	0
 1607 0129 00       		.byte	0
 1608 012a 16       		.uleb128 0x16
 1609 012b 21       		.uleb128 0x21
 1610 012c 00       		.byte	0
 1611 012d 49       		.uleb128 0x49
 1612 012e 13       		.uleb128 0x13
 1613 012f 2F       		.uleb128 0x2f
 1614 0130 0B       		.uleb128 0xb
 1615 0131 00       		.byte	0
 1616 0132 00       		.byte	0
 1617 0133 17       		.uleb128 0x17
 1618 0134 0F       		.uleb128 0xf
 1619 0135 00       		.byte	0
 1620 0136 0B       		.uleb128 0xb
 1621 0137 0B       		.uleb128 0xb
 1622 0138 00       		.byte	0
 1623 0139 00       		.byte	0
 1624 013a 18       		.uleb128 0x18
 1625 013b 15       		.uleb128 0x15
 1626 013c 00       		.byte	0
 1627 013d 27       		.uleb128 0x27
 1628 013e 19       		.uleb128 0x19
 1629 013f 00       		.byte	0
 1630 0140 00       		.byte	0
 1631 0141 19       		.uleb128 0x19
 1632 0142 2E       		.uleb128 0x2e
 1633 0143 01       		.byte	0x1
 1634 0144 3F       		.uleb128 0x3f
 1635 0145 19       		.uleb128 0x19
 1636 0146 03       		.uleb128 0x3
 1637 0147 0E       		.uleb128 0xe
 1638 0148 3A       		.uleb128 0x3a
 1639 0149 0B       		.uleb128 0xb
 1640 014a 3B       		.uleb128 0x3b
 1641 014b 0B       		.uleb128 0xb
 1642 014c 39       		.uleb128 0x39
 1643 014d 0B       		.uleb128 0xb
 1644 014e 27       		.uleb128 0x27
 1645 014f 19       		.uleb128 0x19
 1646 0150 49       		.uleb128 0x49
 1647 0151 13       		.uleb128 0x13
 1648 0152 11       		.uleb128 0x11
 1649 0153 01       		.uleb128 0x1
 1650 0154 12       		.uleb128 0x12
 1651 0155 06       		.uleb128 0x6
 1652 0156 40       		.uleb128 0x40
 1653 0157 18       		.uleb128 0x18
ARM GAS  C:\Users\DEVELO~1\AppData\Local\Temp\ccw7wCqr.s 			page 30


 1654 0158 7A       		.uleb128 0x7a
 1655 0159 19       		.uleb128 0x19
 1656 015a 01       		.uleb128 0x1
 1657 015b 13       		.uleb128 0x13
 1658 015c 00       		.byte	0
 1659 015d 00       		.byte	0
 1660 015e 1A       		.uleb128 0x1a
 1661 015f 34       		.uleb128 0x34
 1662 0160 00       		.byte	0
 1663 0161 03       		.uleb128 0x3
 1664 0162 0E       		.uleb128 0xe
 1665 0163 3A       		.uleb128 0x3a
 1666 0164 0B       		.uleb128 0xb
 1667 0165 3B       		.uleb128 0x3b
 1668 0166 0B       		.uleb128 0xb
 1669 0167 39       		.uleb128 0x39
 1670 0168 0B       		.uleb128 0xb
 1671 0169 49       		.uleb128 0x49
 1672 016a 13       		.uleb128 0x13
 1673 016b 00       		.byte	0
 1674 016c 00       		.byte	0
 1675 016d 00       		.byte	0
 1676              		.section	.debug_loclists,"",%progbits
 1677 0000 9D000000 		.4byte	.Ldebug_loc3-.Ldebug_loc2
 1678              	.Ldebug_loc2:
 1679 0004 0500     		.2byte	0x5
 1680 0006 04       		.byte	0x4
 1681 0007 00       		.byte	0
 1682 0008 00000000 		.4byte	0
 1683              	.Ldebug_loc0:
 1684              	.LVUS0:
 1685 000c 00       		.uleb128 0
 1686 000d 00       		.uleb128 .LVU12
 1687 000e 00       		.uleb128 .LVU12
 1688 000f 00       		.uleb128 .LVU14
 1689 0010 00       		.uleb128 .LVU14
 1690 0011 00       		.uleb128 .LVU29
 1691 0012 00       		.uleb128 .LVU29
 1692 0013 00       		.uleb128 .LVU41
 1693 0014 00       		.uleb128 .LVU41
 1694 0015 00       		.uleb128 0
 1695              	.LLST0:
 1696 0016 06       		.byte	0x6
 1697 0017 00000000 		.4byte	.LVL0
 1698 001b 04       		.byte	0x4
 1699 001c 00       		.uleb128 .LVL0-.LVL0
 1700 001d 18       		.uleb128 .LVL1-.LVL0
 1701 001e 01       		.uleb128 0x1
 1702 001f 50       		.byte	0x50
 1703 0020 04       		.byte	0x4
 1704 0021 18       		.uleb128 .LVL1-.LVL0
 1705 0022 1C       		.uleb128 .LVL2-.LVL0
 1706 0023 04       		.uleb128 0x4
 1707 0024 A3       		.byte	0xa3
 1708 0025 01       		.uleb128 0x1
 1709 0026 50       		.byte	0x50
 1710 0027 9F       		.byte	0x9f
ARM GAS  C:\Users\DEVELO~1\AppData\Local\Temp\ccw7wCqr.s 			page 31


 1711 0028 04       		.byte	0x4
 1712 0029 1C       		.uleb128 .LVL2-.LVL0
 1713 002a 36       		.uleb128 .LVL4-.LVL0
 1714 002b 01       		.uleb128 0x1
 1715 002c 50       		.byte	0x50
 1716 002d 04       		.byte	0x4
 1717 002e 36       		.uleb128 .LVL4-.LVL0
 1718 002f 56       		.uleb128 .LVL8-.LVL0
 1719 0030 04       		.uleb128 0x4
 1720 0031 A3       		.byte	0xa3
 1721 0032 01       		.uleb128 0x1
 1722 0033 50       		.byte	0x50
 1723 0034 9F       		.byte	0x9f
 1724 0035 04       		.byte	0x4
 1725 0036 56       		.uleb128 .LVL8-.LVL0
 1726 0037 68       		.uleb128 .LFE141-.LVL0
 1727 0038 01       		.uleb128 0x1
 1728 0039 50       		.byte	0x50
 1729 003a 00       		.byte	0
 1730              	.LVUS1:
 1731 003b 00       		.uleb128 0
 1732 003c 00       		.uleb128 .LVU37
 1733 003d 00       		.uleb128 .LVU37
 1734 003e 00       		.uleb128 .LVU41
 1735 003f 00       		.uleb128 .LVU41
 1736 0040 00       		.uleb128 0
 1737              	.LLST1:
 1738 0041 06       		.byte	0x6
 1739 0042 00000000 		.4byte	.LVL0
 1740 0046 04       		.byte	0x4
 1741 0047 00       		.uleb128 .LVL0-.LVL0
 1742 0048 4A       		.uleb128 .LVL5-.LVL0
 1743 0049 01       		.uleb128 0x1
 1744 004a 51       		.byte	0x51
 1745 004b 04       		.byte	0x4
 1746 004c 4A       		.uleb128 .LVL5-.LVL0
 1747 004d 56       		.uleb128 .LVL8-.LVL0
 1748 004e 04       		.uleb128 0x4
 1749 004f A3       		.byte	0xa3
 1750 0050 01       		.uleb128 0x1
 1751 0051 51       		.byte	0x51
 1752 0052 9F       		.byte	0x9f
 1753 0053 04       		.byte	0x4
 1754 0054 56       		.uleb128 .LVL8-.LVL0
 1755 0055 68       		.uleb128 .LFE141-.LVL0
 1756 0056 01       		.uleb128 0x1
 1757 0057 51       		.byte	0x51
 1758 0058 00       		.byte	0
 1759              	.LVUS2:
 1760 0059 02       		.uleb128 .LVU2
 1761 005a 00       		.uleb128 .LVU12
 1762 005b 00       		.uleb128 .LVU12
 1763 005c 00       		.uleb128 .LVU14
 1764 005d 00       		.uleb128 .LVU14
 1765 005e 00       		.uleb128 .LVU39
 1766 005f 00       		.uleb128 .LVU39
 1767 0060 00       		.uleb128 .LVU41
ARM GAS  C:\Users\DEVELO~1\AppData\Local\Temp\ccw7wCqr.s 			page 32


 1768 0061 00       		.uleb128 .LVU41
 1769 0062 00       		.uleb128 0
 1770              	.LLST2:
 1771 0063 06       		.byte	0x6
 1772 0064 00000000 		.4byte	.LVL0
 1773 0068 04       		.byte	0x4
 1774 0069 00       		.uleb128 .LVL0-.LVL0
 1775 006a 18       		.uleb128 .LVL1-.LVL0
 1776 006b 02       		.uleb128 0x2
 1777 006c 30       		.byte	0x30
 1778 006d 9F       		.byte	0x9f
 1779 006e 04       		.byte	0x4
 1780 006f 18       		.uleb128 .LVL1-.LVL0
 1781 0070 1C       		.uleb128 .LVL2-.LVL0
 1782 0071 01       		.uleb128 0x1
 1783 0072 50       		.byte	0x50
 1784 0073 04       		.byte	0x4
 1785 0074 1C       		.uleb128 .LVL2-.LVL0
 1786 0075 52       		.uleb128 .LVL7-.LVL0
 1787 0076 02       		.uleb128 0x2
 1788 0077 30       		.byte	0x30
 1789 0078 9F       		.byte	0x9f
 1790 0079 04       		.byte	0x4
 1791 007a 52       		.uleb128 .LVL7-.LVL0
 1792 007b 56       		.uleb128 .LVL8-.LVL0
 1793 007c 01       		.uleb128 0x1
 1794 007d 50       		.byte	0x50
 1795 007e 04       		.byte	0x4
 1796 007f 56       		.uleb128 .LVL8-.LVL0
 1797 0080 68       		.uleb128 .LFE141-.LVL0
 1798 0081 02       		.uleb128 0x2
 1799 0082 30       		.byte	0x30
 1800 0083 9F       		.byte	0x9f
 1801 0084 00       		.byte	0
 1802              	.LVUS3:
 1803 0085 00       		.uleb128 .LVU24
 1804 0086 00       		.uleb128 .LVU38
 1805 0087 00       		.uleb128 .LVU38
 1806 0088 00       		.uleb128 .LVU41
 1807              	.LLST3:
 1808 0089 06       		.byte	0x6
 1809 008a 2A000000 		.4byte	.LVL3
 1810 008e 04       		.byte	0x4
 1811 008f 00       		.uleb128 .LVL3-.LVL3
 1812 0090 24       		.uleb128 .LVL6-.LVL3
 1813 0091 01       		.uleb128 0x1
 1814 0092 53       		.byte	0x53
 1815 0093 04       		.byte	0x4
 1816 0094 24       		.uleb128 .LVL6-.LVL3
 1817 0095 2C       		.uleb128 .LVL8-.LVL3
 1818 0096 09       		.uleb128 0x9
 1819 0097 A3       		.byte	0xa3
 1820 0098 01       		.uleb128 0x1
 1821 0099 51       		.byte	0x51
 1822 009a 06       		.byte	0x6
 1823 009b 31       		.byte	0x31
 1824 009c 1C       		.byte	0x1c
ARM GAS  C:\Users\DEVELO~1\AppData\Local\Temp\ccw7wCqr.s 			page 33


 1825 009d 33       		.byte	0x33
 1826 009e 24       		.byte	0x24
 1827 009f 9F       		.byte	0x9f
 1828 00a0 00       		.byte	0
 1829              	.Ldebug_loc3:
 1830              		.section	.debug_aranges,"",%progbits
 1831 0000 1C000000 		.4byte	0x1c
 1832 0004 0200     		.2byte	0x2
 1833 0006 00000000 		.4byte	.Ldebug_info0
 1834 000a 04       		.byte	0x4
 1835 000b 00       		.byte	0
 1836 000c 0000     		.2byte	0
 1837 000e 0000     		.2byte	0
 1838 0010 00000000 		.4byte	.LFB141
 1839 0014 68000000 		.4byte	.LFE141-.LFB141
 1840 0018 00000000 		.4byte	0
 1841 001c 00000000 		.4byte	0
 1842              		.section	.debug_rnglists,"",%progbits
 1843              	.Ldebug_ranges0:
 1844 0000 0F000000 		.4byte	.Ldebug_ranges3-.Ldebug_ranges2
 1845              	.Ldebug_ranges2:
 1846 0004 0500     		.2byte	0x5
 1847 0006 04       		.byte	0x4
 1848 0007 00       		.byte	0
 1849 0008 00000000 		.4byte	0
 1850              	.LLRL4:
 1851 000c 07       		.byte	0x7
 1852 000d 00000000 		.4byte	.LFB141
 1853 0011 68       		.uleb128 .LFE141-.LFB141
 1854 0012 00       		.byte	0
 1855              	.Ldebug_ranges3:
 1856              		.section	.debug_line,"",%progbits
 1857              	.Ldebug_line0:
 1858 0000 7F020000 		.section	.debug_str,"MS",%progbits,1
 1858      0300DD01 
 1858      00000201 
 1858      FB0E0D00 
 1858      01010101 
 1859              	.LASF25:
 1860 0000 5341495F 		.ascii	"SAI_TypeDef\000"
 1860      54797065 
 1860      44656600 
 1861              	.LASF106:
 1862 000c 436F6D70 		.ascii	"CompandingMode\000"
 1862      616E6469 
 1862      6E674D6F 
 1862      646500
 1863              	.LASF88:
 1864 001b 48414C5F 		.ascii	"HAL_SAI_STATE_BUSY_TX\000"
 1864      5341495F 
 1864      53544154 
 1864      455F4255 
 1864      53595F54 
 1865              	.LASF65:
 1866 0031 496E6974 		.ascii	"Init\000"
 1866      00
 1867              	.LASF57:
ARM GAS  C:\Users\DEVELO~1\AppData\Local\Temp\ccw7wCqr.s 			page 34


 1868 0036 444D415F 		.ascii	"DMA_InitTypeDef\000"
 1868      496E6974 
 1868      54797065 
 1868      44656600 
 1869              	.LASF138:
 1870 0046 4C656674 		.ascii	"LeftDelay\000"
 1870      44656C61 
 1870      7900
 1871              	.LASF3:
 1872 0050 5F5F7569 		.ascii	"__uint8_t\000"
 1872      6E74385F 
 1872      7400
 1873              	.LASF79:
 1874 005a 444D416D 		.ascii	"DMAmuxChannelStatus\000"
 1874      75784368 
 1874      616E6E65 
 1874      6C537461 
 1874      74757300 
 1875              	.LASF39:
 1876 006e 48414C5F 		.ascii	"HAL_BUSY\000"
 1876      42555359 
 1876      00
 1877              	.LASF86:
 1878 0077 48414C5F 		.ascii	"HAL_SAI_STATE_READY\000"
 1878      5341495F 
 1878      53544154 
 1878      455F5245 
 1878      41445900 
 1879              	.LASF30:
 1880 008b 44495341 		.ascii	"DISABLE\000"
 1880      424C4500 
 1881              	.LASF16:
 1882 0093 444D414D 		.ascii	"DMAMUX_ChannelStatus_TypeDef\000"
 1882      55585F43 
 1882      68616E6E 
 1882      656C5374 
 1882      61747573 
 1883              	.LASF135:
 1884 00b0 496E7465 		.ascii	"InterruptServiceRoutine\000"
 1884      72727570 
 1884      74536572 
 1884      76696365 
 1884      526F7574 
 1885              	.LASF142:
 1886 00c8 70646D4D 		.ascii	"pdmMicDelay\000"
 1886      69634465 
 1886      6C617900 
 1887              	.LASF124:
 1888 00d4 5341495F 		.ascii	"SAI_SlotInitTypeDef\000"
 1888      536C6F74 
 1888      496E6974 
 1888      54797065 
 1888      44656600 
 1889              	.LASF109:
 1890 00e8 50726F74 		.ascii	"Protocol\000"
 1890      6F636F6C 
 1890      00
ARM GAS  C:\Users\DEVELO~1\AppData\Local\Temp\ccw7wCqr.s 			page 35


 1891              	.LASF131:
 1892 00f1 58666572 		.ascii	"XferCount\000"
 1892      436F756E 
 1892      7400
 1893              	.LASF71:
 1894 00fb 58666572 		.ascii	"XferM1CpltCallback\000"
 1894      4D314370 
 1894      6C744361 
 1894      6C6C6261 
 1894      636B00
 1895              	.LASF9:
 1896 010e 6C6F6E67 		.ascii	"long long int\000"
 1896      206C6F6E 
 1896      6720696E 
 1896      7400
 1897              	.LASF1:
 1898 011c 7369676E 		.ascii	"signed char\000"
 1898      65642063 
 1898      68617200 
 1899              	.LASF103:
 1900 0128 4D636B64 		.ascii	"Mckdiv\000"
 1900      697600
 1901              	.LASF70:
 1902 012f 58666572 		.ascii	"XferHalfCpltCallback\000"
 1902      48616C66 
 1902      43706C74 
 1902      43616C6C 
 1902      6261636B 
 1903              	.LASF10:
 1904 0144 6C6F6E67 		.ascii	"long long unsigned int\000"
 1904      206C6F6E 
 1904      6720756E 
 1904      7369676E 
 1904      65642069 
 1905              	.LASF119:
 1906 015b 5341495F 		.ascii	"SAI_FrameInitTypeDef\000"
 1906      4672616D 
 1906      65496E69 
 1906      74547970 
 1906      65446566 
 1907              	.LASF27:
 1908 0170 534C4F54 		.ascii	"SLOTR\000"
 1908      5200
 1909              	.LASF44:
 1910 0176 48414C5F 		.ascii	"HAL_LockTypeDef\000"
 1910      4C6F636B 
 1910      54797065 
 1910      44656600 
 1911              	.LASF126:
 1912 0186 5F5F5341 		.ascii	"__SAI_HandleTypeDef\000"
 1912      495F4861 
 1912      6E646C65 
 1912      54797065 
 1912      44656600 
 1913              	.LASF147:
 1914 019a 433A5C50 		.ascii	"C:\\PROJET\\ChibiOS project\\ChibiOS_21.11.4\\demos"
 1914      524F4A45 
ARM GAS  C:\Users\DEVELO~1\AppData\Local\Temp\ccw7wCqr.s 			page 36


 1914      545C4368 
 1914      6962694F 
 1914      53207072 
 1915 01c9 5C53544D 		.ascii	"\\STM32\\RT-STM32H743ZI_REV_XY-NUCLEO144\000"
 1915      33325C52 
 1915      542D5354 
 1915      4D333248 
 1915      3734335A 
 1916              	.LASF6:
 1917 01f0 6C6F6E67 		.ascii	"long int\000"
 1917      20696E74 
 1917      00
 1918              	.LASF136:
 1919 01f9 5341495F 		.ascii	"SAI_HandleTypeDef\000"
 1919      48616E64 
 1919      6C655479 
 1919      70654465 
 1919      6600
 1920              	.LASF47:
 1921 020b 50657269 		.ascii	"PeriphInc\000"
 1921      7068496E 
 1921      6300
 1922              	.LASF141:
 1923 0215 68736169 		.ascii	"hsai\000"
 1923      00
 1924              	.LASF55:
 1925 021a 4D656D42 		.ascii	"MemBurst\000"
 1925      75727374 
 1925      00
 1926              	.LASF31:
 1927 0223 454E4142 		.ascii	"ENABLE\000"
 1927      4C4500
 1928              	.LASF101:
 1929 022a 4E6F4469 		.ascii	"NoDivider\000"
 1929      76696465 
 1929      7200
 1930              	.LASF13:
 1931 0234 75696E74 		.ascii	"uint16_t\000"
 1931      31365F74 
 1931      00
 1932              	.LASF144:
 1933 023d 6F666673 		.ascii	"offset\000"
 1933      657400
 1934              	.LASF36:
 1935 0244 646F7562 		.ascii	"double\000"
 1935      6C6500
 1936              	.LASF76:
 1937 024b 53747265 		.ascii	"StreamBaseAddress\000"
 1937      616D4261 
 1937      73654164 
 1937      64726573 
 1937      7300
 1938              	.LASF68:
 1939 025d 50617265 		.ascii	"Parent\000"
 1939      6E7400
 1940              	.LASF107:
 1941 0264 54726953 		.ascii	"TriState\000"
ARM GAS  C:\Users\DEVELO~1\AppData\Local\Temp\ccw7wCqr.s 			page 37


 1941      74617465 
 1941      00
 1942              	.LASF66:
 1943 026d 4C6F636B 		.ascii	"Lock\000"
 1943      00
 1944              	.LASF140:
 1945 0272 53414945 		.ascii	"SAIEx_PdmMicDelayParamTypeDef\000"
 1945      785F5064 
 1945      6D4D6963 
 1945      44656C61 
 1945      79506172 
 1946              	.LASF7:
 1947 0290 5F5F7569 		.ascii	"__uint32_t\000"
 1947      6E743332 
 1947      5F7400
 1948              	.LASF105:
 1949 029b 4D6F6E6F 		.ascii	"MonoStereoMode\000"
 1949      53746572 
 1949      656F4D6F 
 1949      646500
 1950              	.LASF51:
 1951 02aa 4D6F6465 		.ascii	"Mode\000"
 1951      00
 1952              	.LASF46:
 1953 02af 44697265 		.ascii	"Direction\000"
 1953      6374696F 
 1953      6E00
 1954              	.LASF23:
 1955 02b9 50444D43 		.ascii	"PDMCR\000"
 1955      5200
 1956              	.LASF81:
 1957 02bf 444D416D 		.ascii	"DMAmuxRequestGen\000"
 1957      75785265 
 1957      71756573 
 1957      7447656E 
 1957      00
 1958              	.LASF133:
 1959 02d0 68646D61 		.ascii	"hdmarx\000"
 1959      727800
 1960              	.LASF91:
 1961 02d7 53414963 		.ascii	"SAIcallback\000"
 1961      616C6C62 
 1961      61636B00 
 1962              	.LASF100:
 1963 02e3 4F757470 		.ascii	"OutputDrive\000"
 1963      75744472 
 1963      69766500 
 1964              	.LASF11:
 1965 02ef 756E7369 		.ascii	"unsigned int\000"
 1965      676E6564 
 1965      20696E74 
 1965      00
 1966              	.LASF58:
 1967 02fc 48414C5F 		.ascii	"HAL_DMA_STATE_RESET\000"
 1967      444D415F 
 1967      53544154 
 1967      455F5245 
ARM GAS  C:\Users\DEVELO~1\AppData\Local\Temp\ccw7wCqr.s 			page 38


 1967      53455400 
 1968              	.LASF149:
 1969 0310 53616942 		.ascii	"SaiBaseAddress\000"
 1969      61736541 
 1969      64647265 
 1969      737300
 1970              	.LASF118:
 1971 031f 46534F66 		.ascii	"FSOffset\000"
 1971      66736574 
 1971      00
 1972              	.LASF78:
 1973 0328 444D416D 		.ascii	"DMAmuxChannel\000"
 1973      75784368 
 1973      616E6E65 
 1973      6C00
 1974              	.LASF40:
 1975 0336 48414C5F 		.ascii	"HAL_TIMEOUT\000"
 1975      54494D45 
 1975      4F555400 
 1976              	.LASF8:
 1977 0342 6C6F6E67 		.ascii	"long unsigned int\000"
 1977      20756E73 
 1977      69676E65 
 1977      6420696E 
 1977      7400
 1978              	.LASF77:
 1979 0354 53747265 		.ascii	"StreamIndex\000"
 1979      616D496E 
 1979      64657800 
 1980              	.LASF37:
 1981 0360 48414C5F 		.ascii	"HAL_OK\000"
 1981      4F4B00
 1982              	.LASF96:
 1983 0367 41756469 		.ascii	"AudioMode\000"
 1983      6F4D6F64 
 1983      6500
 1984              	.LASF122:
 1985 0371 536C6F74 		.ascii	"SlotNumber\000"
 1985      4E756D62 
 1985      657200
 1986              	.LASF5:
 1987 037c 73686F72 		.ascii	"short unsigned int\000"
 1987      7420756E 
 1987      7369676E 
 1987      65642069 
 1987      6E7400
 1988              	.LASF52:
 1989 038f 5072696F 		.ascii	"Priority\000"
 1989      72697479 
 1989      00
 1990              	.LASF62:
 1991 0398 48414C5F 		.ascii	"HAL_DMA_STATE_ABORT\000"
 1991      444D415F 
 1991      53544154 
 1991      455F4142 
 1991      4F525400 
 1992              	.LASF75:
ARM GAS  C:\Users\DEVELO~1\AppData\Local\Temp\ccw7wCqr.s 			page 39


 1993 03ac 4572726F 		.ascii	"ErrorCode\000"
 1993      72436F64 
 1993      6500
 1994              	.LASF50:
 1995 03b6 4D656D44 		.ascii	"MemDataAlignment\000"
 1995      61746141 
 1995      6C69676E 
 1995      6D656E74 
 1995      00
 1996              	.LASF20:
 1997 03c7 52474346 		.ascii	"RGCFR\000"
 1997      5200
 1998              	.LASF41:
 1999 03cd 48414C5F 		.ascii	"HAL_StatusTypeDef\000"
 1999      53746174 
 1999      75735479 
 1999      70654465 
 1999      6600
 2000              	.LASF0:
 2001 03df 73686F72 		.ascii	"short int\000"
 2001      7420696E 
 2001      7400
 2002              	.LASF18:
 2003 03e9 444D414D 		.ascii	"DMAMUX_RequestGen_TypeDef\000"
 2003      55585F52 
 2003      65717565 
 2003      73744765 
 2003      6E5F5479 
 2004              	.LASF123:
 2005 0403 536C6F74 		.ascii	"SlotActive\000"
 2005      41637469 
 2005      766500
 2006              	.LASF148:
 2007 040e 48414C5F 		.ascii	"HAL_SAIEx_ConfigPdmMicDelay\000"
 2007      53414945 
 2007      785F436F 
 2007      6E666967 
 2007      50646D4D 
 2008              	.LASF59:
 2009 042a 48414C5F 		.ascii	"HAL_DMA_STATE_READY\000"
 2009      444D415F 
 2009      53544154 
 2009      455F5245 
 2009      41445900 
 2010              	.LASF117:
 2011 043e 4653506F 		.ascii	"FSPolarity\000"
 2011      6C617269 
 2011      747900
 2012              	.LASF128:
 2013 0449 536C6F74 		.ascii	"SlotInit\000"
 2013      496E6974 
 2013      00
 2014              	.LASF43:
 2015 0452 48414C5F 		.ascii	"HAL_LOCKED\000"
 2015      4C4F434B 
 2015      454400
 2016              	.LASF24:
ARM GAS  C:\Users\DEVELO~1\AppData\Local\Temp\ccw7wCqr.s 			page 40


 2017 045d 50444D44 		.ascii	"PDMDLY\000"
 2017      4C5900
 2018              	.LASF121:
 2019 0464 536C6F74 		.ascii	"SlotSize\000"
 2019      53697A65 
 2019      00
 2020              	.LASF116:
 2021 046d 46534465 		.ascii	"FSDefinition\000"
 2021      66696E69 
 2021      74696F6E 
 2021      00
 2022              	.LASF84:
 2023 047a 444D415F 		.ascii	"DMA_HandleTypeDef\000"
 2023      48616E64 
 2023      6C655479 
 2023      70654465 
 2023      6600
 2024              	.LASF90:
 2025 048c 48414C5F 		.ascii	"HAL_SAI_StateTypeDef\000"
 2025      5341495F 
 2025      53746174 
 2025      65547970 
 2025      65446566 
 2026              	.LASF73:
 2027 04a1 58666572 		.ascii	"XferErrorCallback\000"
 2027      4572726F 
 2027      7243616C 
 2027      6C626163 
 2027      6B00
 2028              	.LASF32:
 2029 04b3 46756E63 		.ascii	"FunctionalState\000"
 2029      74696F6E 
 2029      616C5374 
 2029      61746500 
 2030              	.LASF132:
 2031 04c3 68646D61 		.ascii	"hdmatx\000"
 2031      747800
 2032              	.LASF111:
 2033 04ca 46697273 		.ascii	"FirstBit\000"
 2033      74426974 
 2033      00
 2034              	.LASF134:
 2035 04d3 6D757465 		.ascii	"mutecallback\000"
 2035      63616C6C 
 2035      6261636B 
 2035      00
 2036              	.LASF17:
 2037 04e0 52474352 		.ascii	"RGCR\000"
 2037      00
 2038              	.LASF139:
 2039 04e5 52696768 		.ascii	"RightDelay\000"
 2039      7444656C 
 2039      617900
 2040              	.LASF35:
 2041 04f0 666C6F61 		.ascii	"float\000"
 2041      7400
 2042              	.LASF99:
ARM GAS  C:\Users\DEVELO~1\AppData\Local\Temp\ccw7wCqr.s 			page 41


 2043 04f6 4D636B4F 		.ascii	"MckOutput\000"
 2043      75747075 
 2043      7400
 2044              	.LASF87:
 2045 0500 48414C5F 		.ascii	"HAL_SAI_STATE_BUSY\000"
 2045      5341495F 
 2045      53544154 
 2045      455F4255 
 2045      535900
 2046              	.LASF92:
 2047 0513 41637469 		.ascii	"Activation\000"
 2047      76617469 
 2047      6F6E00
 2048              	.LASF22:
 2049 051e 52455345 		.ascii	"RESERVED0\000"
 2049      52564544 
 2049      3000
 2050              	.LASF64:
 2051 0528 496E7374 		.ascii	"Instance\000"
 2051      616E6365 
 2051      00
 2052              	.LASF72:
 2053 0531 58666572 		.ascii	"XferM1HalfCpltCallback\000"
 2053      4D314861 
 2053      6C664370 
 2053      6C744361 
 2053      6C6C6261 
 2054              	.LASF113:
 2055 0548 5341495F 		.ascii	"SAI_InitTypeDef\000"
 2055      496E6974 
 2055      54797065 
 2055      44656600 
 2056              	.LASF2:
 2057 0558 756E7369 		.ascii	"unsigned char\000"
 2057      676E6564 
 2057      20636861 
 2057      7200
 2058              	.LASF61:
 2059 0566 48414C5F 		.ascii	"HAL_DMA_STATE_ERROR\000"
 2059      444D415F 
 2059      53544154 
 2059      455F4552 
 2059      524F5200 
 2060              	.LASF129:
 2061 057a 70427566 		.ascii	"pBuffPtr\000"
 2061      66507472 
 2061      00
 2062              	.LASF137:
 2063 0583 4D696350 		.ascii	"MicPair\000"
 2063      61697200 
 2064              	.LASF112:
 2065 058b 436C6F63 		.ascii	"ClockStrobing\000"
 2065      6B537472 
 2065      6F62696E 
 2065      6700
 2066              	.LASF104:
 2067 0599 4D636B4F 		.ascii	"MckOverSampling\000"
ARM GAS  C:\Users\DEVELO~1\AppData\Local\Temp\ccw7wCqr.s 			page 42


 2067      76657253 
 2067      616D706C 
 2067      696E6700 
 2068              	.LASF63:
 2069 05a9 48414C5F 		.ascii	"HAL_DMA_StateTypeDef\000"
 2069      444D415F 
 2069      53746174 
 2069      65547970 
 2069      65446566 
 2070              	.LASF82:
 2071 05be 444D416D 		.ascii	"DMAmuxRequestGenStatus\000"
 2071      75785265 
 2071      71756573 
 2071      7447656E 
 2071      53746174 
 2072              	.LASF60:
 2073 05d5 48414C5F 		.ascii	"HAL_DMA_STATE_BUSY\000"
 2073      444D415F 
 2073      53544154 
 2073      455F4255 
 2073      535900
 2074              	.LASF102:
 2075 05e8 41756469 		.ascii	"AudioFrequency\000"
 2075      6F467265 
 2075      7175656E 
 2075      637900
 2076              	.LASF114:
 2077 05f7 4672616D 		.ascii	"FrameLength\000"
 2077      654C656E 
 2077      67746800 
 2078              	.LASF29:
 2079 0603 5341495F 		.ascii	"SAI_Block_TypeDef\000"
 2079      426C6F63 
 2079      6B5F5479 
 2079      70654465 
 2079      6600
 2080              	.LASF19:
 2081 0615 52475352 		.ascii	"RGSR\000"
 2081      00
 2082              	.LASF94:
 2083 061a 436C6F63 		.ascii	"ClockEnable\000"
 2083      6B456E61 
 2083      626C6500 
 2084              	.LASF108:
 2085 0626 50646D49 		.ascii	"PdmInit\000"
 2085      6E697400 
 2086              	.LASF28:
 2087 062e 434C5246 		.ascii	"CLRFR\000"
 2087      5200
 2088              	.LASF125:
 2089 0634 5F5F444D 		.ascii	"__DMA_HandleTypeDef\000"
 2089      415F4861 
 2089      6E646C65 
 2089      54797065 
 2089      44656600 
 2090              	.LASF14:
 2091 0648 75696E74 		.ascii	"uint32_t\000"
ARM GAS  C:\Users\DEVELO~1\AppData\Local\Temp\ccw7wCqr.s 			page 43


 2091      33325F74 
 2091      00
 2092              	.LASF53:
 2093 0651 4649464F 		.ascii	"FIFOMode\000"
 2093      4D6F6465 
 2093      00
 2094              	.LASF38:
 2095 065a 48414C5F 		.ascii	"HAL_ERROR\000"
 2095      4552524F 
 2095      5200
 2096              	.LASF89:
 2097 0664 48414C5F 		.ascii	"HAL_SAI_STATE_BUSY_RX\000"
 2097      5341495F 
 2097      53544154 
 2097      455F4255 
 2097      53595F52 
 2098              	.LASF33:
 2099 067a 6C6F6E67 		.ascii	"long double\000"
 2099      20646F75 
 2099      626C6500 
 2100              	.LASF54:
 2101 0686 4649464F 		.ascii	"FIFOThreshold\000"
 2101      54687265 
 2101      73686F6C 
 2101      6400
 2102              	.LASF34:
 2103 0694 63686172 		.ascii	"char\000"
 2103      00
 2104              	.LASF45:
 2105 0699 52657175 		.ascii	"Request\000"
 2105      65737400 
 2106              	.LASF95:
 2107 06a1 5341495F 		.ascii	"SAI_PdmInitTypeDef\000"
 2107      50646D49 
 2107      6E697454 
 2107      79706544 
 2107      656600
 2108              	.LASF67:
 2109 06b4 53746174 		.ascii	"State\000"
 2109      6500
 2110              	.LASF4:
 2111 06ba 5F5F7569 		.ascii	"__uint16_t\000"
 2111      6E743136 
 2111      5F7400
 2112              	.LASF110:
 2113 06c5 44617461 		.ascii	"DataSize\000"
 2113      53697A65 
 2113      00
 2114              	.LASF48:
 2115 06ce 4D656D49 		.ascii	"MemInc\000"
 2115      6E6300
 2116              	.LASF145:
 2117 06d5 474E5520 		.ascii	"GNU C17 11.3.1 20220712 -mcpu=cortex-m7 -mthumb -mf"
 2117      43313720 
 2117      31312E33 
 2117      2E312032 
 2117      30323230 
ARM GAS  C:\Users\DEVELO~1\AppData\Local\Temp\ccw7wCqr.s 			page 44


 2118 0708 6C6F6174 		.ascii	"loat-abi=soft -march=armv7e-m -ggdb -O2 -fomit-fram"
 2118      2D616269 
 2118      3D736F66 
 2118      74202D6D 
 2118      61726368 
 2119 073b 652D706F 		.ascii	"e-pointer -falign-functions=16 -ffunction-sections "
 2119      696E7465 
 2119      72202D66 
 2119      616C6967 
 2119      6E2D6675 
 2120 076e 2D666461 		.ascii	"-fdata-sections -fno-common\000"
 2120      74612D73 
 2120      65637469 
 2120      6F6E7320 
 2120      2D666E6F 
 2121              	.LASF98:
 2122 078a 53796E63 		.ascii	"SynchroExt\000"
 2122      68726F45 
 2122      787400
 2123              	.LASF115:
 2124 0795 41637469 		.ascii	"ActiveFrameLength\000"
 2124      76654672 
 2124      616D654C 
 2124      656E6774 
 2124      6800
 2125              	.LASF146:
 2126 07a7 64726976 		.ascii	"drivers/stm32h7xx-hal-driver/Src/stm32h7xx_hal_sai_"
 2126      6572732F 
 2126      73746D33 
 2126      32683778 
 2126      782D6861 
 2127 07da 65782E63 		.ascii	"ex.c\000"
 2127      00
 2128              	.LASF93:
 2129 07df 4D696350 		.ascii	"MicPairsNbr\000"
 2129      61697273 
 2129      4E627200 
 2130              	.LASF49:
 2131 07eb 50657269 		.ascii	"PeriphDataAlignment\000"
 2131      70684461 
 2131      7461416C 
 2131      69676E6D 
 2131      656E7400 
 2132              	.LASF80:
 2133 07ff 444D416D 		.ascii	"DMAmuxChannelStatusMask\000"
 2133      75784368 
 2133      616E6E65 
 2133      6C537461 
 2133      7475734D 
 2134              	.LASF130:
 2135 0817 58666572 		.ascii	"XferSize\000"
 2135      53697A65 
 2135      00
 2136              	.LASF15:
 2137 0820 444D414D 		.ascii	"DMAMUX_Channel_TypeDef\000"
 2137      55585F43 
 2137      68616E6E 
ARM GAS  C:\Users\DEVELO~1\AppData\Local\Temp\ccw7wCqr.s 			page 45


 2137      656C5F54 
 2137      79706544 
 2138              	.LASF143:
 2139 0837 73746174 		.ascii	"status\000"
 2139      757300
 2140              	.LASF120:
 2141 083e 46697273 		.ascii	"FirstBitOffset\000"
 2141      74426974 
 2141      4F666673 
 2141      657400
 2142              	.LASF12:
 2143 084d 75696E74 		.ascii	"uint8_t\000"
 2143      385F7400 
 2144              	.LASF26:
 2145 0855 46524352 		.ascii	"FRCR\000"
 2145      00
 2146              	.LASF85:
 2147 085a 48414C5F 		.ascii	"HAL_SAI_STATE_RESET\000"
 2147      5341495F 
 2147      53544154 
 2147      455F5245 
 2147      53455400 
 2148              	.LASF97:
 2149 086e 53796E63 		.ascii	"Synchro\000"
 2149      68726F00 
 2150              	.LASF42:
 2151 0876 48414C5F 		.ascii	"HAL_UNLOCKED\000"
 2151      554E4C4F 
 2151      434B4544 
 2151      00
 2152              	.LASF21:
 2153 0883 444D414D 		.ascii	"DMAMUX_RequestGenStatus_TypeDef\000"
 2153      55585F52 
 2153      65717565 
 2153      73744765 
 2153      6E537461 
 2154              	.LASF74:
 2155 08a3 58666572 		.ascii	"XferAbortCallback\000"
 2155      41626F72 
 2155      7443616C 
 2155      6C626163 
 2155      6B00
 2156              	.LASF83:
 2157 08b5 444D416D 		.ascii	"DMAmuxRequestGenStatusMask\000"
 2157      75785265 
 2157      71756573 
 2157      7447656E 
 2157      53746174 
 2158              	.LASF69:
 2159 08d0 58666572 		.ascii	"XferCpltCallback\000"
 2159      43706C74 
 2159      43616C6C 
 2159      6261636B 
 2159      00
 2160              	.LASF56:
 2161 08e1 50657269 		.ascii	"PeriphBurst\000"
 2161      70684275 
ARM GAS  C:\Users\DEVELO~1\AppData\Local\Temp\ccw7wCqr.s 			page 46


 2161      72737400 
 2162              	.LASF127:
 2163 08ed 4672616D 		.ascii	"FrameInit\000"
 2163      65496E69 
 2163      7400
 2164              		.ident	"GCC: (Arm GNU Toolchain 11.3.Rel1) 11.3.1 20220712"
ARM GAS  C:\Users\DEVELO~1\AppData\Local\Temp\ccw7wCqr.s 			page 47


DEFINED SYMBOLS
                            *ABS*:00000000 stm32h7xx_hal_sai_ex.c
C:\Users\DEVELO~1\AppData\Local\Temp\ccw7wCqr.s:18     .text.HAL_SAIEx_ConfigPdmMicDelay:00000000 $t
C:\Users\DEVELO~1\AppData\Local\Temp\ccw7wCqr.s:25     .text.HAL_SAIEx_ConfigPdmMicDelay:00000000 HAL_SAIEx_ConfigPdmMicDelay
C:\Users\DEVELO~1\AppData\Local\Temp\ccw7wCqr.s:141    .text.HAL_SAIEx_ConfigPdmMicDelay:0000005c $d

NO UNDEFINED SYMBOLS
