ARM GAS  C:\Users\DEVELO~1\AppData\Local\Temp\ccltyUpz.s 			page 1


   1              		.cpu cortex-m7
   2              		.arch armv7e-m
   3              		.fpu softvfp
   4              		.eabi_attribute 20, 1
   5              		.eabi_attribute 21, 1
   6              		.eabi_attribute 23, 3
   7              		.eabi_attribute 24, 1
   8              		.eabi_attribute 25, 1
   9              		.eabi_attribute 26, 1
  10              		.eabi_attribute 30, 2
  11              		.eabi_attribute 34, 1
  12              		.eabi_attribute 18, 4
  13              		.file	"stm32h7xx_hal_chibios.c"
  14              		.text
  15              	.Ltext0:
  16              		.cfi_sections	.debug_frame
  17              		.section	.text.HAL_Init,"ax",%progbits
  18              		.align	1
  19              		.p2align 4,,15
  20              		.global	HAL_Init
  21              		.syntax unified
  22              		.thumb
  23              		.thumb_func
  24              		.type	HAL_Init, %function
  25              	HAL_Init:
  26              	.LFB415:
  27              		.file 1 "drivers/stm32h7xx_hal_chibios.c"
  28              		.loc 1 29 34 view -0
  29              		.cfi_startproc
  30              		@ args = 0, pretend = 0, frame = 0
  31              		@ frame_needed = 0, uses_anonymous_args = 0
  32              		@ link register save eliminated.
  33              		.loc 1 30 3 view .LVU1
  34              		.loc 1 31 1 is_stmt 0 view .LVU2
  35 0000 0020     		movs	r0, #0
  36 0002 7047     		bx	lr
  37              		.cfi_endproc
  38              	.LFE415:
  39              		.size	HAL_Init, .-HAL_Init
  40              		.section	.text.HAL_DeInit,"ax",%progbits
  41              		.align	1
  42              		.p2align 4,,15
  43              		.global	HAL_DeInit
  44              		.syntax unified
  45              		.thumb
  46              		.thumb_func
  47              		.type	HAL_DeInit, %function
  48              	HAL_DeInit:
  49              	.LFB432:
  50              		.cfi_startproc
  51              		@ args = 0, pretend = 0, frame = 0
  52              		@ frame_needed = 0, uses_anonymous_args = 0
  53              		@ link register save eliminated.
  54 0000 0020     		movs	r0, #0
  55 0002 7047     		bx	lr
  56              		.cfi_endproc
  57              	.LFE432:
ARM GAS  C:\Users\DEVELO~1\AppData\Local\Temp\ccltyUpz.s 			page 2


  58              		.size	HAL_DeInit, .-HAL_DeInit
  59              		.section	.text.HAL_InitTick,"ax",%progbits
  60              		.align	1
  61              		.p2align 4,,15
  62              		.global	HAL_InitTick
  63              		.syntax unified
  64              		.thumb
  65              		.thumb_func
  66              		.type	HAL_InitTick, %function
  67              	HAL_InitTick:
  68              	.LVL0:
  69              	.LFB417:
  70              		.loc 1 37 55 is_stmt 1 view -0
  71              		.cfi_startproc
  72              		@ args = 0, pretend = 0, frame = 0
  73              		@ frame_needed = 0, uses_anonymous_args = 0
  74              		@ link register save eliminated.
  75              		.loc 1 38 3 view .LVU4
  76              		.loc 1 39 3 view .LVU5
  77              		.loc 1 40 1 is_stmt 0 view .LVU6
  78 0000 0020     		movs	r0, #0
  79              	.LVL1:
  80              		.loc 1 40 1 view .LVU7
  81 0002 7047     		bx	lr
  82              		.cfi_endproc
  83              	.LFE417:
  84              		.size	HAL_InitTick, .-HAL_InitTick
  85              		.section	.text.HAL_IncTick,"ax",%progbits
  86              		.align	1
  87              		.p2align 4,,15
  88              		.global	HAL_IncTick
  89              		.syntax unified
  90              		.thumb
  91              		.thumb_func
  92              		.type	HAL_IncTick, %function
  93              	HAL_IncTick:
  94              	.LFB418:
  95              		.loc 1 42 24 is_stmt 1 view -0
  96              		.cfi_startproc
  97              		@ args = 0, pretend = 0, frame = 0
  98              		@ frame_needed = 0, uses_anonymous_args = 0
  99              		@ link register save eliminated.
 100              		.loc 1 44 1 view .LVU9
 101 0000 7047     		bx	lr
 102              		.cfi_endproc
 103              	.LFE418:
 104              		.size	HAL_IncTick, .-HAL_IncTick
 105              		.global	__aeabi_uldivmod
 106              		.global	__aeabi_ldivmod
 107 0002 00BF     		.section	.text.HAL_GetTick,"ax",%progbits
 108              		.align	1
 109              		.p2align 4,,15
 110              		.global	HAL_GetTick
 111              		.syntax unified
 112              		.thumb
 113              		.thumb_func
 114              		.type	HAL_GetTick, %function
ARM GAS  C:\Users\DEVELO~1\AppData\Local\Temp\ccltyUpz.s 			page 3


 115              	HAL_GetTick:
 116              	.LFB419:
 117              		.loc 1 46 28 view -0
 118              		.cfi_startproc
 119              		@ args = 0, pretend = 0, frame = 0
 120              		@ frame_needed = 0, uses_anonymous_args = 0
 121              		.loc 1 47 3 view .LVU11
 122              	.LBB8:
 123              	.LBI8:
 124              		.file 2 "../../../os/rt/include/chvt.h"
 125              		.loc 2 122 25 view .LVU12
 126              		.loc 2 127 3 view .LVU13
 127              	.LBB9:
 128              	.LBI9:
 129              		.file 3 "../../../os/hal/osal/rt-nil/chcore_timer.h"
 130              		.loc 3 111 25 view .LVU14
 131              	.LBB10:
 132              		.loc 3 113 3 view .LVU15
 133              	.LBE10:
 134              	.LBE9:
 135              	.LBE8:
 136              		.loc 1 46 28 is_stmt 0 view .LVU16
 137 0000 08B5     		push	{r3, lr}
 138              		.cfi_def_cfa_offset 8
 139              		.cfi_offset 3, -8
 140              		.cfi_offset 14, -4
 141              	.LBB13:
 142              	.LBB12:
 143              	.LBB11:
 144              		.loc 3 113 10 view .LVU17
 145 0002 FFF7FEFF 		bl	stGetCounter
 146              	.LVL2:
 147              	.LBE11:
 148              	.LBE12:
 149              	.LBE13:
 150              		.loc 1 47 12 view .LVU18
 151 0006 4FF47A7C 		mov	ip, #1000
 152 000a 42F20F72 		movw	r2, #9999
 153 000e 0021     		movs	r1, #0
 154 0010 0023     		movs	r3, #0
 155 0012 E0FB0C21 		umlal	r2, r1, r0, ip
 156 0016 1046     		mov	r0, r2
 157 0018 42F21072 		movw	r2, #10000
 158 001c FFF7FEFF 		bl	__aeabi_uldivmod
 159              	.LVL3:
 160              		.loc 1 47 10 view .LVU19
 161 0020 014B     		ldr	r3, .L8
 162 0022 1860     		str	r0, [r3]
 163              		.loc 1 48 3 is_stmt 1 view .LVU20
 164              		.loc 1 48 10 is_stmt 0 view .LVU21
 165 0024 1868     		ldr	r0, [r3]
 166              		.loc 1 49 1 view .LVU22
 167 0026 08BD     		pop	{r3, pc}
 168              	.L9:
 169              		.align	2
 170              	.L8:
 171 0028 00000000 		.word	.LANCHOR0
ARM GAS  C:\Users\DEVELO~1\AppData\Local\Temp\ccltyUpz.s 			page 4


 172              		.cfi_endproc
 173              	.LFE419:
 174              		.size	HAL_GetTick, .-HAL_GetTick
 175              		.section	.text.HAL_Delay,"ax",%progbits
 176              		.align	1
 177              		.p2align 4,,15
 178              		.global	HAL_Delay
 179              		.syntax unified
 180              		.thumb
 181              		.thumb_func
 182              		.type	HAL_Delay, %function
 183              	HAL_Delay:
 184              	.LVL4:
 185              	.LFB420:
 186              		.loc 1 51 32 is_stmt 1 view -0
 187              		.cfi_startproc
 188              		@ args = 0, pretend = 0, frame = 0
 189              		@ frame_needed = 0, uses_anonymous_args = 0
 190              		.loc 1 52 3 view .LVU24
 191              		.loc 1 52 6 is_stmt 0 view .LVU25
 192 0000 00B9     		cbnz	r0, .L15
 193 0002 7047     		bx	lr
 194              	.L15:
 195              		.loc 1 55 3 is_stmt 1 view .LVU26
 196              		.loc 1 51 32 is_stmt 0 view .LVU27
 197 0004 08B5     		push	{r3, lr}
 198              		.cfi_def_cfa_offset 8
 199              		.cfi_offset 3, -8
 200              		.cfi_offset 14, -4
 201              		.loc 1 55 3 view .LVU28
 202 0006 42F21072 		movw	r2, #10000
 203 000a 40F2E733 		movw	r3, #999
 204 000e 0021     		movs	r1, #0
 205 0010 E0FB0231 		umlal	r3, r1, r0, r2
 206 0014 4FF47A72 		mov	r2, #1000
 207 0018 1846     		mov	r0, r3
 208              	.LVL5:
 209              		.loc 1 55 3 view .LVU29
 210 001a 0023     		movs	r3, #0
 211 001c FFF7FEFF 		bl	__aeabi_uldivmod
 212              	.LVL6:
 213              		.loc 1 56 1 view .LVU30
 214 0020 BDE80840 		pop	{r3, lr}
 215              		.cfi_restore 14
 216              		.cfi_restore 3
 217              		.cfi_def_cfa_offset 0
 218              		.loc 1 55 3 view .LVU31
 219 0024 FFF7FEBF 		b	chThdSleep
 220              	.LVL7:
 221              		.cfi_endproc
 222              	.LFE420:
 223              		.size	HAL_Delay, .-HAL_Delay
 224              		.section	.text.HAL_SetTickFreq,"ax",%progbits
 225              		.align	1
 226              		.p2align 4,,15
 227              		.global	HAL_SetTickFreq
 228              		.syntax unified
ARM GAS  C:\Users\DEVELO~1\AppData\Local\Temp\ccltyUpz.s 			page 5


 229              		.thumb
 230              		.thumb_func
 231              		.type	HAL_SetTickFreq, %function
 232              	HAL_SetTickFreq:
 233              	.LVL8:
 234              	.LFB421:
 235              		.loc 1 58 61 is_stmt 1 view -0
 236              		.cfi_startproc
 237              		@ args = 0, pretend = 0, frame = 0
 238              		@ frame_needed = 0, uses_anonymous_args = 0
 239              		@ link register save eliminated.
 240              		.loc 1 59 3 view .LVU33
 241              		.loc 1 58 61 is_stmt 0 view .LVU34
 242 0000 0246     		mov	r2, r0
 243              		.loc 1 59 14 view .LVU35
 244 0002 024B     		ldr	r3, .L17
 245              		.loc 1 61 1 view .LVU36
 246 0004 0020     		movs	r0, #0
 247              	.LVL9:
 248              		.loc 1 59 14 view .LVU37
 249 0006 1A70     		strb	r2, [r3]
 250              		.loc 1 60 3 is_stmt 1 view .LVU38
 251              		.loc 1 61 1 is_stmt 0 view .LVU39
 252 0008 7047     		bx	lr
 253              	.L18:
 254 000a 00BF     		.align	2
 255              	.L17:
 256 000c 00000000 		.word	.LANCHOR1
 257              		.cfi_endproc
 258              	.LFE421:
 259              		.size	HAL_SetTickFreq, .-HAL_SetTickFreq
 260              		.section	.text.HAL_GetTickFreq,"ax",%progbits
 261              		.align	1
 262              		.p2align 4,,15
 263              		.global	HAL_GetTickFreq
 264              		.syntax unified
 265              		.thumb
 266              		.thumb_func
 267              		.type	HAL_GetTickFreq, %function
 268              	HAL_GetTickFreq:
 269              	.LFB422:
 270              		.loc 1 63 43 is_stmt 1 view -0
 271              		.cfi_startproc
 272              		@ args = 0, pretend = 0, frame = 0
 273              		@ frame_needed = 0, uses_anonymous_args = 0
 274              		@ link register save eliminated.
 275              		.loc 1 64 3 view .LVU41
 276              		.loc 1 64 10 is_stmt 0 view .LVU42
 277 0000 014B     		ldr	r3, .L20
 278              		.loc 1 65 1 view .LVU43
 279 0002 1878     		ldrb	r0, [r3]	@ zero_extendqisi2
 280 0004 7047     		bx	lr
 281              	.L21:
 282 0006 00BF     		.align	2
 283              	.L20:
 284 0008 00000000 		.word	.LANCHOR1
 285              		.cfi_endproc
ARM GAS  C:\Users\DEVELO~1\AppData\Local\Temp\ccltyUpz.s 			page 6


 286              	.LFE422:
 287              		.size	HAL_GetTickFreq, .-HAL_GetTickFreq
 288              		.section	.text.HAL_GetTickPrio,"ax",%progbits
 289              		.align	1
 290              		.p2align 4,,15
 291              		.global	HAL_GetTickPrio
 292              		.syntax unified
 293              		.thumb
 294              		.thumb_func
 295              		.type	HAL_GetTickPrio, %function
 296              	HAL_GetTickPrio:
 297              	.LFB423:
 298              		.loc 1 67 32 is_stmt 1 view -0
 299              		.cfi_startproc
 300              		@ args = 0, pretend = 0, frame = 0
 301              		@ frame_needed = 0, uses_anonymous_args = 0
 302              		@ link register save eliminated.
 303              		.loc 1 68 3 view .LVU45
 304              		.loc 1 68 10 is_stmt 0 view .LVU46
 305 0000 014B     		ldr	r3, .L23
 306              		.loc 1 69 1 view .LVU47
 307 0002 1868     		ldr	r0, [r3]
 308 0004 7047     		bx	lr
 309              	.L24:
 310 0006 00BF     		.align	2
 311              	.L23:
 312 0008 00000000 		.word	.LANCHOR2
 313              		.cfi_endproc
 314              	.LFE423:
 315              		.size	HAL_GetTickPrio, .-HAL_GetTickPrio
 316              		.section	.text.HAL_GetHalVersion,"ax",%progbits
 317              		.align	1
 318              		.p2align 4,,15
 319              		.global	HAL_GetHalVersion
 320              		.syntax unified
 321              		.thumb
 322              		.thumb_func
 323              		.type	HAL_GetHalVersion, %function
 324              	HAL_GetHalVersion:
 325              	.LFB424:
 326              		.loc 1 71 34 is_stmt 1 view -0
 327              		.cfi_startproc
 328              		@ args = 0, pretend = 0, frame = 0
 329              		@ frame_needed = 0, uses_anonymous_args = 0
 330              		@ link register save eliminated.
 331              		.loc 1 72 3 view .LVU49
 332              		.loc 1 73 1 is_stmt 0 view .LVU50
 333 0000 0048     		ldr	r0, .L26
 334 0002 7047     		bx	lr
 335              	.L27:
 336              		.align	2
 337              	.L26:
 338 0004 00050B01 		.word	17499392
 339              		.cfi_endproc
 340              	.LFE424:
 341              		.size	HAL_GetHalVersion, .-HAL_GetHalVersion
 342              		.section	.text.HAL_GetREVID,"ax",%progbits
ARM GAS  C:\Users\DEVELO~1\AppData\Local\Temp\ccltyUpz.s 			page 7


 343              		.align	1
 344              		.p2align 4,,15
 345              		.global	HAL_GetREVID
 346              		.syntax unified
 347              		.thumb
 348              		.thumb_func
 349              		.type	HAL_GetREVID, %function
 350              	HAL_GetREVID:
 351              	.LFB425:
 352              		.loc 1 75 29 is_stmt 1 view -0
 353              		.cfi_startproc
 354              		@ args = 0, pretend = 0, frame = 0
 355              		@ frame_needed = 0, uses_anonymous_args = 0
 356              		@ link register save eliminated.
 357              		.loc 1 76 3 view .LVU52
 358              		.loc 1 76 18 is_stmt 0 view .LVU53
 359 0000 014B     		ldr	r3, .L29
 360 0002 1868     		ldr	r0, [r3]
 361              		.loc 1 77 1 view .LVU54
 362 0004 000C     		lsrs	r0, r0, #16
 363 0006 7047     		bx	lr
 364              	.L30:
 365              		.align	2
 366              	.L29:
 367 0008 0010005C 		.word	1543507968
 368              		.cfi_endproc
 369              	.LFE425:
 370              		.size	HAL_GetREVID, .-HAL_GetREVID
 371              		.section	.text.HAL_GetDEVID,"ax",%progbits
 372              		.align	1
 373              		.p2align 4,,15
 374              		.global	HAL_GetDEVID
 375              		.syntax unified
 376              		.thumb
 377              		.thumb_func
 378              		.type	HAL_GetDEVID, %function
 379              	HAL_GetDEVID:
 380              	.LFB426:
 381              		.loc 1 79 29 is_stmt 1 view -0
 382              		.cfi_startproc
 383              		@ args = 0, pretend = 0, frame = 0
 384              		@ frame_needed = 0, uses_anonymous_args = 0
 385              		@ link register save eliminated.
 386              		.loc 1 80 3 view .LVU56
 387              		.loc 1 80 17 is_stmt 0 view .LVU57
 388 0000 024B     		ldr	r3, .L32
 389 0002 1868     		ldr	r0, [r3]
 390              		.loc 1 81 1 view .LVU58
 391 0004 C0F30B00 		ubfx	r0, r0, #0, #12
 392 0008 7047     		bx	lr
 393              	.L33:
 394 000a 00BF     		.align	2
 395              	.L32:
 396 000c 0010005C 		.word	1543507968
 397              		.cfi_endproc
 398              	.LFE426:
 399              		.size	HAL_GetDEVID, .-HAL_GetDEVID
ARM GAS  C:\Users\DEVELO~1\AppData\Local\Temp\ccltyUpz.s 			page 8


 400              		.section	.text.HAL_GetUIDw0,"ax",%progbits
 401              		.align	1
 402              		.p2align 4,,15
 403              		.global	HAL_GetUIDw0
 404              		.syntax unified
 405              		.thumb
 406              		.thumb_func
 407              		.type	HAL_GetUIDw0, %function
 408              	HAL_GetUIDw0:
 409              	.LFB427:
 410              		.loc 1 83 29 is_stmt 1 view -0
 411              		.cfi_startproc
 412              		@ args = 0, pretend = 0, frame = 0
 413              		@ frame_needed = 0, uses_anonymous_args = 0
 414              		@ link register save eliminated.
 415              		.loc 1 84 3 view .LVU60
 416              		.loc 1 84 10 is_stmt 0 view .LVU61
 417 0000 014B     		ldr	r3, .L35
 418              		.loc 1 85 1 view .LVU62
 419 0002 D3F80008 		ldr	r0, [r3, #2048]
 420 0006 7047     		bx	lr
 421              	.L36:
 422              		.align	2
 423              	.L35:
 424 0008 00E0F11F 		.word	535945216
 425              		.cfi_endproc
 426              	.LFE427:
 427              		.size	HAL_GetUIDw0, .-HAL_GetUIDw0
 428              		.section	.text.HAL_GetUIDw1,"ax",%progbits
 429              		.align	1
 430              		.p2align 4,,15
 431              		.global	HAL_GetUIDw1
 432              		.syntax unified
 433              		.thumb
 434              		.thumb_func
 435              		.type	HAL_GetUIDw1, %function
 436              	HAL_GetUIDw1:
 437              	.LFB428:
 438              		.loc 1 87 29 is_stmt 1 view -0
 439              		.cfi_startproc
 440              		@ args = 0, pretend = 0, frame = 0
 441              		@ frame_needed = 0, uses_anonymous_args = 0
 442              		@ link register save eliminated.
 443              		.loc 1 88 3 view .LVU64
 444              		.loc 1 88 10 is_stmt 0 view .LVU65
 445 0000 014B     		ldr	r3, .L38
 446              		.loc 1 89 1 view .LVU66
 447 0002 D3F80408 		ldr	r0, [r3, #2052]
 448 0006 7047     		bx	lr
 449              	.L39:
 450              		.align	2
 451              	.L38:
 452 0008 00E0F11F 		.word	535945216
 453              		.cfi_endproc
 454              	.LFE428:
 455              		.size	HAL_GetUIDw1, .-HAL_GetUIDw1
 456              		.section	.text.HAL_GetUIDw2,"ax",%progbits
ARM GAS  C:\Users\DEVELO~1\AppData\Local\Temp\ccltyUpz.s 			page 9


 457              		.align	1
 458              		.p2align 4,,15
 459              		.global	HAL_GetUIDw2
 460              		.syntax unified
 461              		.thumb
 462              		.thumb_func
 463              		.type	HAL_GetUIDw2, %function
 464              	HAL_GetUIDw2:
 465              	.LFB429:
 466              		.loc 1 91 29 is_stmt 1 view -0
 467              		.cfi_startproc
 468              		@ args = 0, pretend = 0, frame = 0
 469              		@ frame_needed = 0, uses_anonymous_args = 0
 470              		@ link register save eliminated.
 471              		.loc 1 92 3 view .LVU68
 472              		.loc 1 92 10 is_stmt 0 view .LVU69
 473 0000 014B     		ldr	r3, .L41
 474              		.loc 1 93 1 view .LVU70
 475 0002 D3F80808 		ldr	r0, [r3, #2056]
 476 0006 7047     		bx	lr
 477              	.L42:
 478              		.align	2
 479              	.L41:
 480 0008 00E0F11F 		.word	535945216
 481              		.cfi_endproc
 482              	.LFE429:
 483              		.size	HAL_GetUIDw2, .-HAL_GetUIDw2
 484              		.section	.text.HAL_RCCEx_GetPeriphCLKFreq,"ax",%progbits
 485              		.align	1
 486              		.p2align 4,,15
 487              		.global	HAL_RCCEx_GetPeriphCLKFreq
 488              		.syntax unified
 489              		.thumb
 490              		.thumb_func
 491              		.type	HAL_RCCEx_GetPeriphCLKFreq, %function
 492              	HAL_RCCEx_GetPeriphCLKFreq:
 493              	.LVL10:
 494              	.LFB430:
 495              		.loc 1 95 57 is_stmt 1 view -0
 496              		.cfi_startproc
 497              		@ args = 0, pretend = 0, frame = 0
 498              		@ frame_needed = 0, uses_anonymous_args = 0
 499              		@ link register save eliminated.
 500              		.loc 1 96 3 view .LVU72
 501 0000 A0F50073 		sub	r3, r0, #512
 502 0004 0B43     		orrs	r3, r3, r1
 503 0006 15D0     		beq	.L46
 504 0008 40F20123 		movw	r3, #513
 505 000c 9842     		cmp	r0, r3
 506 000e 71F10003 		sbcs	r3, r1, #0
 507 0012 09D3     		bcc	.L51
 508 0014 A0F58063 		sub	r3, r0, #1024
 509 0018 0B43     		orrs	r3, r3, r1
 510 001a 03D0     		beq	.L48
 511 001c A0F50060 		sub	r0, r0, #2048
 512              	.LVL11:
 513              		.loc 1 96 3 is_stmt 0 view .LVU73
ARM GAS  C:\Users\DEVELO~1\AppData\Local\Temp\ccltyUpz.s 			page 10


 514 0020 0843     		orrs	r0, r0, r1
 515 0022 05D1     		bne	.L49
 516              	.L48:
 517              		.loc 1 98 14 view .LVU74
 518 0024 0448     		ldr	r0, .L52
 519 0026 7047     		bx	lr
 520              	.LVL12:
 521              	.L51:
 522              		.loc 1 96 3 view .LVU75
 523 0028 A0F58070 		sub	r0, r0, #256
 524              	.LVL13:
 525              		.loc 1 96 3 view .LVU76
 526 002c 0843     		orrs	r0, r0, r1
 527 002e F9D0     		beq	.L48
 528              	.L49:
 529              		.loc 1 124 14 view .LVU77
 530 0030 0020     		movs	r0, #0
 531              		.loc 1 126 1 view .LVU78
 532 0032 7047     		bx	lr
 533              	.LVL14:
 534              	.L46:
 535              		.loc 1 96 3 view .LVU79
 536 0034 0148     		ldr	r0, .L52+4
 537              	.LVL15:
 538              		.loc 1 96 3 view .LVU80
 539 0036 7047     		bx	lr
 540              	.L53:
 541              		.align	2
 542              	.L52:
 543 0038 00B4C404 		.word	80000000
 544 003c 40AEEB02 		.word	49000000
 545              		.cfi_endproc
 546              	.LFE430:
 547              		.size	HAL_RCCEx_GetPeriphCLKFreq, .-HAL_RCCEx_GetPeriphCLKFreq
 548              		.global	uwTickFreq
 549              		.global	uwTickPrio
 550              		.global	uwTick
 551              		.section	.bss.uwTick,"aw",%nobits
 552              		.align	2
 553              		.set	.LANCHOR0,. + 0
 554              		.type	uwTick, %object
 555              		.size	uwTick, 4
 556              	uwTick:
 557 0000 00000000 		.space	4
 558              		.section	.bss.uwTickPrio,"aw",%nobits
 559              		.align	2
 560              		.set	.LANCHOR2,. + 0
 561              		.type	uwTickPrio, %object
 562              		.size	uwTickPrio, 4
 563              	uwTickPrio:
 564 0000 00000000 		.space	4
 565              		.section	.data.uwTickFreq,"aw"
 566              		.set	.LANCHOR1,. + 0
 567              		.type	uwTickFreq, %object
 568              		.size	uwTickFreq, 1
 569              	uwTickFreq:
 570 0000 01       		.byte	1
ARM GAS  C:\Users\DEVELO~1\AppData\Local\Temp\ccltyUpz.s 			page 11


 571              		.text
 572              	.Letext0:
 573              		.file 4 "c:\\chibistudio\\tools\\gnu tools arm embedded\\11.3 2022.08\\arm-none-eabi\\include\\mac
 574              		.file 5 "c:\\chibistudio\\tools\\gnu tools arm embedded\\11.3 2022.08\\arm-none-eabi\\include\\sys
 575              		.file 6 "../../../os/rt/include/chtime.h"
 576              		.file 7 "../../../os/common/ext/ST/STM32H7xx/stm32h743xx.h"
 577              		.file 8 "drivers/stm32h7xx-hal-driver/Inc/stm32h7xx_hal_def.h"
 578              		.file 9 "drivers/stm32h7xx-hal-driver/Inc/stm32h7xx_hal.h"
 579              		.file 10 "../../../os/rt/include/chthreads.h"
 580              		.section	.debug_info,"",%progbits
 581              	.Ldebug_info0:
 582 0000 97040000 		.4byte	0x497
 583 0004 0500     		.2byte	0x5
 584 0006 01       		.byte	0x1
 585 0007 04       		.byte	0x4
 586 0008 00000000 		.4byte	.Ldebug_abbrev0
 587 000c 0D       		.uleb128 0xd
 588 000d CF000000 		.4byte	.LASF67
 589 0011 1D       		.byte	0x1d
 590 0012 B4030000 		.4byte	.LASF68
 591 0016 39020000 		.4byte	.LASF69
 592 001a 18000000 		.4byte	.LLRL5
 593 001e 00000000 		.4byte	0
 594 0022 00000000 		.4byte	.Ldebug_line0
 595 0026 01       		.uleb128 0x1
 596 0027 08       		.byte	0x8
 597 0028 07       		.byte	0x7
 598 0029 CF010000 		.4byte	.LASF0
 599 002d 0E       		.uleb128 0xe
 600 002e 04       		.byte	0x4
 601 002f 05       		.byte	0x5
 602 0030 696E7400 		.ascii	"int\000"
 603 0034 01       		.uleb128 0x1
 604 0035 04       		.byte	0x4
 605 0036 07       		.byte	0x7
 606 0037 F5020000 		.4byte	.LASF1
 607 003b 01       		.uleb128 0x1
 608 003c 08       		.byte	0x8
 609 003d 05       		.byte	0x5
 610 003e C1010000 		.4byte	.LASF2
 611 0042 01       		.uleb128 0x1
 612 0043 08       		.byte	0x8
 613 0044 04       		.byte	0x4
 614 0045 9C000000 		.4byte	.LASF3
 615 0049 01       		.uleb128 0x1
 616 004a 01       		.byte	0x1
 617 004b 06       		.byte	0x6
 618 004c CB020000 		.4byte	.LASF4
 619 0050 01       		.uleb128 0x1
 620 0051 01       		.byte	0x1
 621 0052 08       		.byte	0x8
 622 0053 B0020000 		.4byte	.LASF5
 623 0057 01       		.uleb128 0x1
 624 0058 02       		.byte	0x2
 625 0059 05       		.byte	0x5
 626 005a 37000000 		.4byte	.LASF6
 627 005e 01       		.uleb128 0x1
ARM GAS  C:\Users\DEVELO~1\AppData\Local\Temp\ccltyUpz.s 			page 12


 628 005f 02       		.byte	0x2
 629 0060 07       		.byte	0x7
 630 0061 3E030000 		.4byte	.LASF7
 631 0065 01       		.uleb128 0x1
 632 0066 04       		.byte	0x4
 633 0067 05       		.byte	0x5
 634 0068 15020000 		.4byte	.LASF8
 635 006c 03       		.uleb128 0x3
 636 006d 47040000 		.4byte	.LASF10
 637 0071 04       		.byte	0x4
 638 0072 4F       		.byte	0x4f
 639 0073 19       		.byte	0x19
 640 0074 78000000 		.4byte	0x78
 641 0078 01       		.uleb128 0x1
 642 0079 04       		.byte	0x4
 643 007a 07       		.byte	0x7
 644 007b 04040000 		.4byte	.LASF9
 645 007f 03       		.uleb128 0x3
 646 0080 A9030000 		.4byte	.LASF11
 647 0084 04       		.byte	0x4
 648 0085 69       		.byte	0x69
 649 0086 19       		.byte	0x19
 650 0087 26000000 		.4byte	0x26
 651 008b 03       		.uleb128 0x3
 652 008c E1020000 		.4byte	.LASF12
 653 0090 05       		.byte	0x5
 654 0091 30       		.byte	0x30
 655 0092 14       		.byte	0x14
 656 0093 6C000000 		.4byte	0x6c
 657 0097 0F       		.uleb128 0xf
 658 0098 8B000000 		.4byte	0x8b
 659 009c 03       		.uleb128 0x3
 660 009d 2E000000 		.4byte	.LASF13
 661 00a1 05       		.byte	0x5
 662 00a2 3C       		.byte	0x3c
 663 00a3 14       		.byte	0x14
 664 00a4 7F000000 		.4byte	0x7f
 665 00a8 01       		.uleb128 0x1
 666 00a9 01       		.byte	0x1
 667 00aa 08       		.byte	0x8
 668 00ab 68030000 		.4byte	.LASF14
 669 00af 03       		.uleb128 0x3
 670 00b0 5E030000 		.4byte	.LASF15
 671 00b4 06       		.byte	0x6
 672 00b5 6D       		.byte	0x6d
 673 00b6 12       		.byte	0x12
 674 00b7 8B000000 		.4byte	0x8b
 675 00bb 03       		.uleb128 0x3
 676 00bc 1D030000 		.4byte	.LASF16
 677 00c0 06       		.byte	0x6
 678 00c1 79       		.byte	0x79
 679 00c2 12       		.byte	0x12
 680 00c3 8B000000 		.4byte	0x8b
 681 00c7 03       		.uleb128 0x3
 682 00c8 41000000 		.4byte	.LASF17
 683 00cc 06       		.byte	0x6
 684 00cd 8E       		.byte	0x8e
ARM GAS  C:\Users\DEVELO~1\AppData\Local\Temp\ccltyUpz.s 			page 13


 685 00ce 12       		.byte	0x12
 686 00cf 8B000000 		.4byte	0x8b
 687 00d3 03       		.uleb128 0x3
 688 00d4 59040000 		.4byte	.LASF18
 689 00d8 06       		.byte	0x6
 690 00d9 9B       		.byte	0x9b
 691 00da 12       		.byte	0x12
 692 00db 9C000000 		.4byte	0x9c
 693 00df 10       		.uleb128 0x10
 694 00e0 58       		.byte	0x58
 695 00e1 07       		.byte	0x7
 696 00e2 0A02     		.2byte	0x20a
 697 00e4 09       		.byte	0x9
 698 00e5 86010000 		.4byte	0x186
 699 00e9 02       		.uleb128 0x2
 700 00ea 52040000 		.4byte	.LASF19
 701 00ee 0C02     		.2byte	0x20c
 702 00f0 11       		.byte	0x11
 703 00f1 97000000 		.4byte	0x97
 704 00f5 00       		.byte	0
 705 00f6 11       		.uleb128 0x11
 706 00f7 435200   		.ascii	"CR\000"
 707 00fa 07       		.byte	0x7
 708 00fb 0D02     		.2byte	0x20d
 709 00fd 11       		.byte	0x11
 710 00fe 97000000 		.4byte	0x97
 711 0102 04       		.byte	0x4
 712 0103 02       		.uleb128 0x2
 713 0104 F0030000 		.4byte	.LASF20
 714 0108 0E02     		.2byte	0x20e
 715 010a 0C       		.byte	0xc
 716 010b 86010000 		.4byte	0x186
 717 010f 08       		.byte	0x8
 718 0110 02       		.uleb128 0x2
 719 0111 D4030000 		.4byte	.LASF21
 720 0115 0F02     		.2byte	0x20f
 721 0117 11       		.byte	0x11
 722 0118 97000000 		.4byte	0x97
 723 011c 34       		.byte	0x34
 724 011d 02       		.uleb128 0x2
 725 011e FA030000 		.4byte	.LASF22
 726 0122 1002     		.2byte	0x210
 727 0124 0C       		.byte	0xc
 728 0125 8B000000 		.4byte	0x8b
 729 0129 38       		.byte	0x38
 730 012a 02       		.uleb128 0x2
 731 012b A7020000 		.4byte	.LASF23
 732 012f 1102     		.2byte	0x211
 733 0131 11       		.byte	0x11
 734 0132 97000000 		.4byte	0x97
 735 0136 3C       		.byte	0x3c
 736 0137 02       		.uleb128 0x2
 737 0138 9D010000 		.4byte	.LASF24
 738 013c 1202     		.2byte	0x212
 739 013e 0C       		.byte	0xc
 740 013f 8B000000 		.4byte	0x8b
 741 0143 40       		.byte	0x40
ARM GAS  C:\Users\DEVELO~1\AppData\Local\Temp\ccltyUpz.s 			page 14


 742 0144 02       		.uleb128 0x2
 743 0145 1E020000 		.4byte	.LASF25
 744 0149 1302     		.2byte	0x213
 745 014b 11       		.byte	0x11
 746 014c 97000000 		.4byte	0x97
 747 0150 44       		.byte	0x44
 748 0151 02       		.uleb128 0x2
 749 0152 16040000 		.4byte	.LASF26
 750 0156 1402     		.2byte	0x214
 751 0158 0C       		.byte	0xc
 752 0159 8B000000 		.4byte	0x8b
 753 015d 48       		.byte	0x48
 754 015e 02       		.uleb128 0x2
 755 015f 9F020000 		.4byte	.LASF27
 756 0163 1502     		.2byte	0x215
 757 0165 11       		.byte	0x11
 758 0166 97000000 		.4byte	0x97
 759 016a 4C       		.byte	0x4c
 760 016b 02       		.uleb128 0x2
 761 016c 20040000 		.4byte	.LASF28
 762 0170 1602     		.2byte	0x216
 763 0172 0C       		.byte	0xc
 764 0173 8B000000 		.4byte	0x8b
 765 0177 50       		.byte	0x50
 766 0178 02       		.uleb128 0x2
 767 0179 95040000 		.4byte	.LASF29
 768 017d 1702     		.2byte	0x217
 769 017f 11       		.byte	0x11
 770 0180 97000000 		.4byte	0x97
 771 0184 54       		.byte	0x54
 772 0185 00       		.byte	0
 773 0186 12       		.uleb128 0x12
 774 0187 8B000000 		.4byte	0x8b
 775 018b 96010000 		.4byte	0x196
 776 018f 13       		.uleb128 0x13
 777 0190 34000000 		.4byte	0x34
 778 0194 0A       		.byte	0xa
 779 0195 00       		.byte	0
 780 0196 14       		.uleb128 0x14
 781 0197 6D030000 		.4byte	.LASF30
 782 019b 07       		.byte	0x7
 783 019c 1802     		.2byte	0x218
 784 019e 02       		.byte	0x2
 785 019f DF000000 		.4byte	0xdf
 786 01a3 01       		.uleb128 0x1
 787 01a4 01       		.byte	0x1
 788 01a5 02       		.byte	0x2
 789 01a6 7C030000 		.4byte	.LASF31
 790 01aa 01       		.uleb128 0x1
 791 01ab 04       		.byte	0x4
 792 01ac 04       		.byte	0x4
 793 01ad BB010000 		.4byte	.LASF32
 794 01b1 01       		.uleb128 0x1
 795 01b2 08       		.byte	0x8
 796 01b3 04       		.byte	0x4
 797 01b4 72040000 		.4byte	.LASF33
 798 01b8 0B       		.uleb128 0xb
ARM GAS  C:\Users\DEVELO~1\AppData\Local\Temp\ccltyUpz.s 			page 15


 799 01b9 50000000 		.4byte	0x50
 800 01bd 08       		.byte	0x8
 801 01be 28       		.byte	0x28
 802 01bf DC010000 		.4byte	0x1dc
 803 01c3 04       		.uleb128 0x4
 804 01c4 8F010000 		.4byte	.LASF34
 805 01c8 00       		.byte	0
 806 01c9 04       		.uleb128 0x4
 807 01ca 00000000 		.4byte	.LASF35
 808 01ce 01       		.byte	0x1
 809 01cf 04       		.uleb128 0x4
 810 01d0 A7010000 		.4byte	.LASF36
 811 01d4 02       		.byte	0x2
 812 01d5 04       		.uleb128 0x4
 813 01d6 0A000000 		.4byte	.LASF37
 814 01da 03       		.byte	0x3
 815 01db 00       		.byte	0
 816 01dc 03       		.uleb128 0x3
 817 01dd 27020000 		.4byte	.LASF38
 818 01e1 08       		.byte	0x8
 819 01e2 2D       		.byte	0x2d
 820 01e3 03       		.byte	0x3
 821 01e4 B8010000 		.4byte	0x1b8
 822 01e8 0B       		.uleb128 0xb
 823 01e9 50000000 		.4byte	0x50
 824 01ed 09       		.byte	0x9
 825 01ee 2C       		.byte	0x2c
 826 01ef 0C020000 		.4byte	0x20c
 827 01f3 04       		.uleb128 0x4
 828 01f4 1B000000 		.4byte	.LASF39
 829 01f8 64       		.byte	0x64
 830 01f9 04       		.uleb128 0x4
 831 01fa 95030000 		.4byte	.LASF40
 832 01fe 0A       		.byte	0xa
 833 01ff 04       		.uleb128 0x4
 834 0200 2B030000 		.4byte	.LASF41
 835 0204 01       		.byte	0x1
 836 0205 04       		.uleb128 0x4
 837 0206 7F040000 		.4byte	.LASF42
 838 020a 01       		.byte	0x1
 839 020b 00       		.byte	0
 840 020c 03       		.uleb128 0x3
 841 020d 01020000 		.4byte	.LASF43
 842 0211 09       		.byte	0x9
 843 0212 31       		.byte	0x31
 844 0213 03       		.byte	0x3
 845 0214 E8010000 		.4byte	0x1e8
 846 0218 08       		.uleb128 0x8
 847 0219 96010000 		.4byte	.LASF44
 848 021d 1A04     		.2byte	0x41a
 849 021f 16       		.byte	0x16
 850 0220 97000000 		.4byte	0x97
 851 0224 08       		.uleb128 0x8
 852 0225 84010000 		.4byte	.LASF45
 853 0229 1B04     		.2byte	0x41b
 854 022b 11       		.byte	0x11
 855 022c 8B000000 		.4byte	0x8b
ARM GAS  C:\Users\DEVELO~1\AppData\Local\Temp\ccltyUpz.s 			page 16


 856 0230 08       		.uleb128 0x8
 857 0231 EA020000 		.4byte	.LASF46
 858 0235 1C04     		.2byte	0x41c
 859 0237 1C       		.byte	0x1c
 860 0238 0C020000 		.4byte	0x20c
 861 023c 09       		.uleb128 0x9
 862 023d 18020000 		.4byte	0x218
 863 0241 19       		.byte	0x19
 864 0242 0F       		.byte	0xf
 865 0243 05       		.uleb128 0x5
 866 0244 03       		.byte	0x3
 867 0245 00000000 		.4byte	uwTick
 868 0249 09       		.uleb128 0x9
 869 024a 24020000 		.4byte	0x224
 870 024e 1A       		.byte	0x1a
 871 024f 0A       		.byte	0xa
 872 0250 05       		.uleb128 0x5
 873 0251 03       		.byte	0x3
 874 0252 00000000 		.4byte	uwTickPrio
 875 0256 09       		.uleb128 0x9
 876 0257 30020000 		.4byte	0x230
 877 025b 1B       		.byte	0x1b
 878 025c 15       		.byte	0x15
 879 025d 05       		.uleb128 0x5
 880 025e 03       		.byte	0x3
 881 025f 00000000 		.4byte	uwTickFreq
 882 0263 15       		.uleb128 0x15
 883 0264 91000000 		.4byte	.LASF70
 884 0268 0A       		.byte	0xa
 885 0269 4201     		.2byte	0x142
 886 026b 08       		.byte	0x8
 887 026c 76020000 		.4byte	0x276
 888 0270 16       		.uleb128 0x16
 889 0271 BB000000 		.4byte	0xbb
 890 0275 00       		.byte	0
 891 0276 17       		.uleb128 0x17
 892 0277 9D040000 		.4byte	.LASF63
 893 027b 03       		.byte	0x3
 894 027c 3A       		.byte	0x3a
 895 027d 0D       		.byte	0xd
 896 027e AF000000 		.4byte	0xaf
 897 0282 06       		.uleb128 0x6
 898 0283 E6010000 		.4byte	.LASF55
 899 0287 5F       		.byte	0x5f
 900 0288 0A       		.byte	0xa
 901 0289 8B000000 		.4byte	0x8b
 902 028d 00000000 		.4byte	.LFB430
 903 0291 40000000 		.4byte	.LFE430-.LFB430
 904 0295 01       		.uleb128 0x1
 905 0296 9C       		.byte	0x9c
 906 0297 AF020000 		.4byte	0x2af
 907 029b 07       		.uleb128 0x7
 908 029c 02030000 		.4byte	.LASF57
 909 02a0 5F       		.byte	0x5f
 910 02a1 2E       		.byte	0x2e
 911 02a2 9C000000 		.4byte	0x9c
 912 02a6 18000000 		.4byte	.LLST4
ARM GAS  C:\Users\DEVELO~1\AppData\Local\Temp\ccltyUpz.s 			page 17


 913 02aa 0C000000 		.4byte	.LVUS4
 914 02ae 00       		.byte	0
 915 02af 05       		.uleb128 0x5
 916 02b0 84000000 		.4byte	.LASF47
 917 02b4 5B       		.byte	0x5b
 918 02b5 0A       		.byte	0xa
 919 02b6 8B000000 		.4byte	0x8b
 920 02ba 00000000 		.4byte	.LFB429
 921 02be 0C000000 		.4byte	.LFE429-.LFB429
 922 02c2 01       		.uleb128 0x1
 923 02c3 9C       		.byte	0x9c
 924 02c4 05       		.uleb128 0x5
 925 02c5 77000000 		.4byte	.LASF48
 926 02c9 57       		.byte	0x57
 927 02ca 0A       		.byte	0xa
 928 02cb 8B000000 		.4byte	0x8b
 929 02cf 00000000 		.4byte	.LFB428
 930 02d3 0C000000 		.4byte	.LFE428-.LFB428
 931 02d7 01       		.uleb128 0x1
 932 02d8 9C       		.byte	0x9c
 933 02d9 05       		.uleb128 0x5
 934 02da 6A000000 		.4byte	.LASF49
 935 02de 53       		.byte	0x53
 936 02df 0A       		.byte	0xa
 937 02e0 8B000000 		.4byte	0x8b
 938 02e4 00000000 		.4byte	.LFB427
 939 02e8 0C000000 		.4byte	.LFE427-.LFB427
 940 02ec 01       		.uleb128 0x1
 941 02ed 9C       		.byte	0x9c
 942 02ee 05       		.uleb128 0x5
 943 02ef 65040000 		.4byte	.LASF50
 944 02f3 4F       		.byte	0x4f
 945 02f4 0A       		.byte	0xa
 946 02f5 8B000000 		.4byte	0x8b
 947 02f9 00000000 		.4byte	.LFB426
 948 02fd 10000000 		.4byte	.LFE426-.LFB426
 949 0301 01       		.uleb128 0x1
 950 0302 9C       		.byte	0x9c
 951 0303 05       		.uleb128 0x5
 952 0304 2A040000 		.4byte	.LASF51
 953 0308 4B       		.byte	0x4b
 954 0309 0A       		.byte	0xa
 955 030a 8B000000 		.4byte	0x8b
 956 030e 00000000 		.4byte	.LFB425
 957 0312 0C000000 		.4byte	.LFE425-.LFB425
 958 0316 01       		.uleb128 0x1
 959 0317 9C       		.byte	0x9c
 960 0318 05       		.uleb128 0x5
 961 0319 A8000000 		.4byte	.LASF52
 962 031d 47       		.byte	0x47
 963 031e 0A       		.byte	0xa
 964 031f 8B000000 		.4byte	0x8b
 965 0323 00000000 		.4byte	.LFB424
 966 0327 08000000 		.4byte	.LFE424-.LFB424
 967 032b 01       		.uleb128 0x1
 968 032c 9C       		.byte	0x9c
 969 032d 05       		.uleb128 0x5
ARM GAS  C:\Users\DEVELO~1\AppData\Local\Temp\ccltyUpz.s 			page 18


 970 032e 37040000 		.4byte	.LASF53
 971 0332 43       		.byte	0x43
 972 0333 0A       		.byte	0xa
 973 0334 8B000000 		.4byte	0x8b
 974 0338 00000000 		.4byte	.LFB423
 975 033c 0C000000 		.4byte	.LFE423-.LFB423
 976 0340 01       		.uleb128 0x1
 977 0341 9C       		.byte	0x9c
 978 0342 05       		.uleb128 0x5
 979 0343 5A000000 		.4byte	.LASF54
 980 0347 3F       		.byte	0x3f
 981 0348 15       		.byte	0x15
 982 0349 0C020000 		.4byte	0x20c
 983 034d 00000000 		.4byte	.LFB422
 984 0351 0C000000 		.4byte	.LFE422-.LFB422
 985 0355 01       		.uleb128 0x1
 986 0356 9C       		.byte	0x9c
 987 0357 06       		.uleb128 0x6
 988 0358 8F020000 		.4byte	.LASF56
 989 035c 3A       		.byte	0x3a
 990 035d 13       		.byte	0x13
 991 035e DC010000 		.4byte	0x1dc
 992 0362 00000000 		.4byte	.LFB421
 993 0366 10000000 		.4byte	.LFE421-.LFB421
 994 036a 01       		.uleb128 0x1
 995 036b 9C       		.byte	0x9c
 996 036c 84030000 		.4byte	0x384
 997 0370 07       		.uleb128 0x7
 998 0371 16000000 		.4byte	.LASF58
 999 0375 3A       		.byte	0x3a
 1000 0376 37       		.byte	0x37
 1001 0377 0C020000 		.4byte	0x20c
 1002 037b 5E000000 		.4byte	.LLST3
 1003 037f 5A000000 		.4byte	.LVUS3
 1004 0383 00       		.byte	0
 1005 0384 18       		.uleb128 0x18
 1006 0385 D7020000 		.4byte	.LASF71
 1007 0389 01       		.byte	0x1
 1008 038a 33       		.byte	0x33
 1009 038b 06       		.byte	0x6
 1010 038c 00000000 		.4byte	.LFB420
 1011 0390 28000000 		.4byte	.LFE420-.LFB420
 1012 0394 01       		.uleb128 0x1
 1013 0395 9C       		.byte	0x9c
 1014 0396 C0030000 		.4byte	0x3c0
 1015 039a 07       		.uleb128 0x7
 1016 039b 79040000 		.4byte	.LASF59
 1017 039f 33       		.byte	0x33
 1018 03a0 19       		.byte	0x19
 1019 03a1 8B000000 		.4byte	0x8b
 1020 03a5 75000000 		.4byte	.LLST2
 1021 03a9 71000000 		.4byte	.LVUS2
 1022 03ad 0A       		.uleb128 0xa
 1023 03ae 20000000 		.4byte	.LVL6
 1024 03b2 91040000 		.4byte	0x491
 1025 03b6 19       		.uleb128 0x19
 1026 03b7 28000000 		.4byte	.LVL7
ARM GAS  C:\Users\DEVELO~1\AppData\Local\Temp\ccltyUpz.s 			page 19


 1027 03bb 63020000 		.4byte	0x263
 1028 03bf 00       		.byte	0
 1029 03c0 06       		.uleb128 0x6
 1030 03c1 BA000000 		.4byte	.LASF60
 1031 03c5 2E       		.byte	0x2e
 1032 03c6 0A       		.byte	0xa
 1033 03c7 8B000000 		.4byte	0x8b
 1034 03cb 00000000 		.4byte	.LFB419
 1035 03cf 2C000000 		.4byte	.LFE419-.LFB419
 1036 03d3 01       		.uleb128 0x1
 1037 03d4 9C       		.byte	0x9c
 1038 03d5 14040000 		.4byte	0x414
 1039 03d9 1A       		.uleb128 0x1a
 1040 03da 6C040000 		.4byte	0x46c
 1041 03de 00000000 		.4byte	.LBI8
 1042 03e2 02       		.byte	.LVU12
 1043 03e3 0C000000 		.4byte	.LLRL1
 1044 03e7 01       		.byte	0x1
 1045 03e8 2F       		.byte	0x2f
 1046 03e9 0C       		.byte	0xc
 1047 03ea 0A040000 		.4byte	0x40a
 1048 03ee 1B       		.uleb128 0x1b
 1049 03ef 77040000 		.4byte	0x477
 1050 03f3 00000000 		.4byte	.LBI9
 1051 03f7 04       		.byte	.LVU14
 1052 03f8 0C000000 		.4byte	.LLRL1
 1053 03fc 02       		.byte	0x2
 1054 03fd 7F       		.byte	0x7f
 1055 03fe 0A       		.byte	0xa
 1056 03ff 0A       		.uleb128 0xa
 1057 0400 06000000 		.4byte	.LVL2
 1058 0404 76020000 		.4byte	0x276
 1059 0408 00       		.byte	0
 1060 0409 00       		.byte	0
 1061 040a 0A       		.uleb128 0xa
 1062 040b 20000000 		.4byte	.LVL3
 1063 040f 91040000 		.4byte	0x491
 1064 0413 00       		.byte	0
 1065 0414 1C       		.uleb128 0x1c
 1066 0415 4E000000 		.4byte	.LASF72
 1067 0419 01       		.byte	0x1
 1068 041a 2A       		.byte	0x2a
 1069 041b 06       		.byte	0x6
 1070 041c 00000000 		.4byte	.LFB418
 1071 0420 02000000 		.4byte	.LFE418-.LFB418
 1072 0424 01       		.uleb128 0x1
 1073 0425 9C       		.byte	0x9c
 1074 0426 06       		.uleb128 0x6
 1075 0427 51030000 		.4byte	.LASF61
 1076 042b 25       		.byte	0x25
 1077 042c 13       		.byte	0x13
 1078 042d DC010000 		.4byte	0x1dc
 1079 0431 00000000 		.4byte	.LFB417
 1080 0435 04000000 		.4byte	.LFE417-.LFB417
 1081 0439 01       		.uleb128 0x1
 1082 043a 9C       		.byte	0x9c
 1083 043b 53040000 		.4byte	0x453
ARM GAS  C:\Users\DEVELO~1\AppData\Local\Temp\ccltyUpz.s 			page 20


 1084 043f 07       		.uleb128 0x7
 1085 0440 BE020000 		.4byte	.LASF62
 1086 0444 25       		.byte	0x25
 1087 0445 29       		.byte	0x29
 1088 0446 8B000000 		.4byte	0x8b
 1089 044a 8C000000 		.4byte	.LLST0
 1090 044e 88000000 		.4byte	.LVUS0
 1091 0452 00       		.byte	0
 1092 0453 1D       		.uleb128 0x1d
 1093 0454 B0010000 		.4byte	.LASF73
 1094 0458 01       		.byte	0x1
 1095 0459 21       		.byte	0x21
 1096 045a 13       		.byte	0x13
 1097 045b DC010000 		.4byte	0x1dc
 1098 045f 1E       		.uleb128 0x1e
 1099 0460 C6000000 		.4byte	.LASF64
 1100 0464 01       		.byte	0x1
 1101 0465 1D       		.byte	0x1d
 1102 0466 13       		.byte	0x13
 1103 0467 DC010000 		.4byte	0x1dc
 1104 046b 01       		.byte	0x1
 1105 046c 0C       		.uleb128 0xc
 1106 046d 82030000 		.4byte	.LASF65
 1107 0471 02       		.byte	0x2
 1108 0472 7A       		.byte	0x7a
 1109 0473 AF000000 		.4byte	0xaf
 1110 0477 0C       		.uleb128 0xc
 1111 0478 DC030000 		.4byte	.LASF66
 1112 047c 03       		.byte	0x3
 1113 047d 6F       		.byte	0x6f
 1114 047e AF000000 		.4byte	0xaf
 1115 0482 1F       		.uleb128 0x1f
 1116 0483 5F040000 		.4byte	0x45f
 1117 0487 00000000 		.4byte	.LFB415
 1118 048b 04000000 		.4byte	.LFE415-.LFB415
 1119 048f 01       		.uleb128 0x1
 1120 0490 9C       		.byte	0x9c
 1121 0491 20       		.uleb128 0x20
 1122 0492 0C030000 		.4byte	.LASF74
 1123 0496 0C030000 		.4byte	.LASF74
 1124 049a 00       		.byte	0
 1125              		.section	.debug_abbrev,"",%progbits
 1126              	.Ldebug_abbrev0:
 1127 0000 01       		.uleb128 0x1
 1128 0001 24       		.uleb128 0x24
 1129 0002 00       		.byte	0
 1130 0003 0B       		.uleb128 0xb
 1131 0004 0B       		.uleb128 0xb
 1132 0005 3E       		.uleb128 0x3e
 1133 0006 0B       		.uleb128 0xb
 1134 0007 03       		.uleb128 0x3
 1135 0008 0E       		.uleb128 0xe
 1136 0009 00       		.byte	0
 1137 000a 00       		.byte	0
 1138 000b 02       		.uleb128 0x2
 1139 000c 0D       		.uleb128 0xd
 1140 000d 00       		.byte	0
ARM GAS  C:\Users\DEVELO~1\AppData\Local\Temp\ccltyUpz.s 			page 21


 1141 000e 03       		.uleb128 0x3
 1142 000f 0E       		.uleb128 0xe
 1143 0010 3A       		.uleb128 0x3a
 1144 0011 21       		.uleb128 0x21
 1145 0012 07       		.sleb128 7
 1146 0013 3B       		.uleb128 0x3b
 1147 0014 05       		.uleb128 0x5
 1148 0015 39       		.uleb128 0x39
 1149 0016 0B       		.uleb128 0xb
 1150 0017 49       		.uleb128 0x49
 1151 0018 13       		.uleb128 0x13
 1152 0019 38       		.uleb128 0x38
 1153 001a 0B       		.uleb128 0xb
 1154 001b 00       		.byte	0
 1155 001c 00       		.byte	0
 1156 001d 03       		.uleb128 0x3
 1157 001e 16       		.uleb128 0x16
 1158 001f 00       		.byte	0
 1159 0020 03       		.uleb128 0x3
 1160 0021 0E       		.uleb128 0xe
 1161 0022 3A       		.uleb128 0x3a
 1162 0023 0B       		.uleb128 0xb
 1163 0024 3B       		.uleb128 0x3b
 1164 0025 0B       		.uleb128 0xb
 1165 0026 39       		.uleb128 0x39
 1166 0027 0B       		.uleb128 0xb
 1167 0028 49       		.uleb128 0x49
 1168 0029 13       		.uleb128 0x13
 1169 002a 00       		.byte	0
 1170 002b 00       		.byte	0
 1171 002c 04       		.uleb128 0x4
 1172 002d 28       		.uleb128 0x28
 1173 002e 00       		.byte	0
 1174 002f 03       		.uleb128 0x3
 1175 0030 0E       		.uleb128 0xe
 1176 0031 1C       		.uleb128 0x1c
 1177 0032 0B       		.uleb128 0xb
 1178 0033 00       		.byte	0
 1179 0034 00       		.byte	0
 1180 0035 05       		.uleb128 0x5
 1181 0036 2E       		.uleb128 0x2e
 1182 0037 00       		.byte	0
 1183 0038 3F       		.uleb128 0x3f
 1184 0039 19       		.uleb128 0x19
 1185 003a 03       		.uleb128 0x3
 1186 003b 0E       		.uleb128 0xe
 1187 003c 3A       		.uleb128 0x3a
 1188 003d 21       		.uleb128 0x21
 1189 003e 01       		.sleb128 1
 1190 003f 3B       		.uleb128 0x3b
 1191 0040 0B       		.uleb128 0xb
 1192 0041 39       		.uleb128 0x39
 1193 0042 0B       		.uleb128 0xb
 1194 0043 27       		.uleb128 0x27
 1195 0044 19       		.uleb128 0x19
 1196 0045 49       		.uleb128 0x49
 1197 0046 13       		.uleb128 0x13
ARM GAS  C:\Users\DEVELO~1\AppData\Local\Temp\ccltyUpz.s 			page 22


 1198 0047 11       		.uleb128 0x11
 1199 0048 01       		.uleb128 0x1
 1200 0049 12       		.uleb128 0x12
 1201 004a 06       		.uleb128 0x6
 1202 004b 40       		.uleb128 0x40
 1203 004c 18       		.uleb128 0x18
 1204 004d 7A       		.uleb128 0x7a
 1205 004e 19       		.uleb128 0x19
 1206 004f 00       		.byte	0
 1207 0050 00       		.byte	0
 1208 0051 06       		.uleb128 0x6
 1209 0052 2E       		.uleb128 0x2e
 1210 0053 01       		.byte	0x1
 1211 0054 3F       		.uleb128 0x3f
 1212 0055 19       		.uleb128 0x19
 1213 0056 03       		.uleb128 0x3
 1214 0057 0E       		.uleb128 0xe
 1215 0058 3A       		.uleb128 0x3a
 1216 0059 21       		.uleb128 0x21
 1217 005a 01       		.sleb128 1
 1218 005b 3B       		.uleb128 0x3b
 1219 005c 0B       		.uleb128 0xb
 1220 005d 39       		.uleb128 0x39
 1221 005e 0B       		.uleb128 0xb
 1222 005f 27       		.uleb128 0x27
 1223 0060 19       		.uleb128 0x19
 1224 0061 49       		.uleb128 0x49
 1225 0062 13       		.uleb128 0x13
 1226 0063 11       		.uleb128 0x11
 1227 0064 01       		.uleb128 0x1
 1228 0065 12       		.uleb128 0x12
 1229 0066 06       		.uleb128 0x6
 1230 0067 40       		.uleb128 0x40
 1231 0068 18       		.uleb128 0x18
 1232 0069 7A       		.uleb128 0x7a
 1233 006a 19       		.uleb128 0x19
 1234 006b 01       		.uleb128 0x1
 1235 006c 13       		.uleb128 0x13
 1236 006d 00       		.byte	0
 1237 006e 00       		.byte	0
 1238 006f 07       		.uleb128 0x7
 1239 0070 05       		.uleb128 0x5
 1240 0071 00       		.byte	0
 1241 0072 03       		.uleb128 0x3
 1242 0073 0E       		.uleb128 0xe
 1243 0074 3A       		.uleb128 0x3a
 1244 0075 21       		.uleb128 0x21
 1245 0076 01       		.sleb128 1
 1246 0077 3B       		.uleb128 0x3b
 1247 0078 0B       		.uleb128 0xb
 1248 0079 39       		.uleb128 0x39
 1249 007a 0B       		.uleb128 0xb
 1250 007b 49       		.uleb128 0x49
 1251 007c 13       		.uleb128 0x13
 1252 007d 02       		.uleb128 0x2
 1253 007e 17       		.uleb128 0x17
 1254 007f B742     		.uleb128 0x2137
ARM GAS  C:\Users\DEVELO~1\AppData\Local\Temp\ccltyUpz.s 			page 23


 1255 0081 17       		.uleb128 0x17
 1256 0082 00       		.byte	0
 1257 0083 00       		.byte	0
 1258 0084 08       		.uleb128 0x8
 1259 0085 34       		.uleb128 0x34
 1260 0086 00       		.byte	0
 1261 0087 03       		.uleb128 0x3
 1262 0088 0E       		.uleb128 0xe
 1263 0089 3A       		.uleb128 0x3a
 1264 008a 21       		.uleb128 0x21
 1265 008b 09       		.sleb128 9
 1266 008c 3B       		.uleb128 0x3b
 1267 008d 05       		.uleb128 0x5
 1268 008e 39       		.uleb128 0x39
 1269 008f 0B       		.uleb128 0xb
 1270 0090 49       		.uleb128 0x49
 1271 0091 13       		.uleb128 0x13
 1272 0092 3F       		.uleb128 0x3f
 1273 0093 19       		.uleb128 0x19
 1274 0094 3C       		.uleb128 0x3c
 1275 0095 19       		.uleb128 0x19
 1276 0096 00       		.byte	0
 1277 0097 00       		.byte	0
 1278 0098 09       		.uleb128 0x9
 1279 0099 34       		.uleb128 0x34
 1280 009a 00       		.byte	0
 1281 009b 47       		.uleb128 0x47
 1282 009c 13       		.uleb128 0x13
 1283 009d 3A       		.uleb128 0x3a
 1284 009e 21       		.uleb128 0x21
 1285 009f 01       		.sleb128 1
 1286 00a0 3B       		.uleb128 0x3b
 1287 00a1 0B       		.uleb128 0xb
 1288 00a2 39       		.uleb128 0x39
 1289 00a3 0B       		.uleb128 0xb
 1290 00a4 02       		.uleb128 0x2
 1291 00a5 18       		.uleb128 0x18
 1292 00a6 00       		.byte	0
 1293 00a7 00       		.byte	0
 1294 00a8 0A       		.uleb128 0xa
 1295 00a9 48       		.uleb128 0x48
 1296 00aa 00       		.byte	0
 1297 00ab 7D       		.uleb128 0x7d
 1298 00ac 01       		.uleb128 0x1
 1299 00ad 7F       		.uleb128 0x7f
 1300 00ae 13       		.uleb128 0x13
 1301 00af 00       		.byte	0
 1302 00b0 00       		.byte	0
 1303 00b1 0B       		.uleb128 0xb
 1304 00b2 04       		.uleb128 0x4
 1305 00b3 01       		.byte	0x1
 1306 00b4 3E       		.uleb128 0x3e
 1307 00b5 21       		.uleb128 0x21
 1308 00b6 07       		.sleb128 7
 1309 00b7 0B       		.uleb128 0xb
 1310 00b8 21       		.uleb128 0x21
 1311 00b9 01       		.sleb128 1
ARM GAS  C:\Users\DEVELO~1\AppData\Local\Temp\ccltyUpz.s 			page 24


 1312 00ba 49       		.uleb128 0x49
 1313 00bb 13       		.uleb128 0x13
 1314 00bc 3A       		.uleb128 0x3a
 1315 00bd 0B       		.uleb128 0xb
 1316 00be 3B       		.uleb128 0x3b
 1317 00bf 0B       		.uleb128 0xb
 1318 00c0 39       		.uleb128 0x39
 1319 00c1 21       		.uleb128 0x21
 1320 00c2 01       		.sleb128 1
 1321 00c3 01       		.uleb128 0x1
 1322 00c4 13       		.uleb128 0x13
 1323 00c5 00       		.byte	0
 1324 00c6 00       		.byte	0
 1325 00c7 0C       		.uleb128 0xc
 1326 00c8 2E       		.uleb128 0x2e
 1327 00c9 00       		.byte	0
 1328 00ca 03       		.uleb128 0x3
 1329 00cb 0E       		.uleb128 0xe
 1330 00cc 3A       		.uleb128 0x3a
 1331 00cd 0B       		.uleb128 0xb
 1332 00ce 3B       		.uleb128 0x3b
 1333 00cf 0B       		.uleb128 0xb
 1334 00d0 39       		.uleb128 0x39
 1335 00d1 21       		.uleb128 0x21
 1336 00d2 19       		.sleb128 25
 1337 00d3 27       		.uleb128 0x27
 1338 00d4 19       		.uleb128 0x19
 1339 00d5 49       		.uleb128 0x49
 1340 00d6 13       		.uleb128 0x13
 1341 00d7 20       		.uleb128 0x20
 1342 00d8 21       		.uleb128 0x21
 1343 00d9 03       		.sleb128 3
 1344 00da 00       		.byte	0
 1345 00db 00       		.byte	0
 1346 00dc 0D       		.uleb128 0xd
 1347 00dd 11       		.uleb128 0x11
 1348 00de 01       		.byte	0x1
 1349 00df 25       		.uleb128 0x25
 1350 00e0 0E       		.uleb128 0xe
 1351 00e1 13       		.uleb128 0x13
 1352 00e2 0B       		.uleb128 0xb
 1353 00e3 03       		.uleb128 0x3
 1354 00e4 0E       		.uleb128 0xe
 1355 00e5 1B       		.uleb128 0x1b
 1356 00e6 0E       		.uleb128 0xe
 1357 00e7 55       		.uleb128 0x55
 1358 00e8 17       		.uleb128 0x17
 1359 00e9 11       		.uleb128 0x11
 1360 00ea 01       		.uleb128 0x1
 1361 00eb 10       		.uleb128 0x10
 1362 00ec 17       		.uleb128 0x17
 1363 00ed 00       		.byte	0
 1364 00ee 00       		.byte	0
 1365 00ef 0E       		.uleb128 0xe
 1366 00f0 24       		.uleb128 0x24
 1367 00f1 00       		.byte	0
 1368 00f2 0B       		.uleb128 0xb
ARM GAS  C:\Users\DEVELO~1\AppData\Local\Temp\ccltyUpz.s 			page 25


 1369 00f3 0B       		.uleb128 0xb
 1370 00f4 3E       		.uleb128 0x3e
 1371 00f5 0B       		.uleb128 0xb
 1372 00f6 03       		.uleb128 0x3
 1373 00f7 08       		.uleb128 0x8
 1374 00f8 00       		.byte	0
 1375 00f9 00       		.byte	0
 1376 00fa 0F       		.uleb128 0xf
 1377 00fb 35       		.uleb128 0x35
 1378 00fc 00       		.byte	0
 1379 00fd 49       		.uleb128 0x49
 1380 00fe 13       		.uleb128 0x13
 1381 00ff 00       		.byte	0
 1382 0100 00       		.byte	0
 1383 0101 10       		.uleb128 0x10
 1384 0102 13       		.uleb128 0x13
 1385 0103 01       		.byte	0x1
 1386 0104 0B       		.uleb128 0xb
 1387 0105 0B       		.uleb128 0xb
 1388 0106 3A       		.uleb128 0x3a
 1389 0107 0B       		.uleb128 0xb
 1390 0108 3B       		.uleb128 0x3b
 1391 0109 05       		.uleb128 0x5
 1392 010a 39       		.uleb128 0x39
 1393 010b 0B       		.uleb128 0xb
 1394 010c 01       		.uleb128 0x1
 1395 010d 13       		.uleb128 0x13
 1396 010e 00       		.byte	0
 1397 010f 00       		.byte	0
 1398 0110 11       		.uleb128 0x11
 1399 0111 0D       		.uleb128 0xd
 1400 0112 00       		.byte	0
 1401 0113 03       		.uleb128 0x3
 1402 0114 08       		.uleb128 0x8
 1403 0115 3A       		.uleb128 0x3a
 1404 0116 0B       		.uleb128 0xb
 1405 0117 3B       		.uleb128 0x3b
 1406 0118 05       		.uleb128 0x5
 1407 0119 39       		.uleb128 0x39
 1408 011a 0B       		.uleb128 0xb
 1409 011b 49       		.uleb128 0x49
 1410 011c 13       		.uleb128 0x13
 1411 011d 38       		.uleb128 0x38
 1412 011e 0B       		.uleb128 0xb
 1413 011f 00       		.byte	0
 1414 0120 00       		.byte	0
 1415 0121 12       		.uleb128 0x12
 1416 0122 01       		.uleb128 0x1
 1417 0123 01       		.byte	0x1
 1418 0124 49       		.uleb128 0x49
 1419 0125 13       		.uleb128 0x13
 1420 0126 01       		.uleb128 0x1
 1421 0127 13       		.uleb128 0x13
 1422 0128 00       		.byte	0
 1423 0129 00       		.byte	0
 1424 012a 13       		.uleb128 0x13
 1425 012b 21       		.uleb128 0x21
ARM GAS  C:\Users\DEVELO~1\AppData\Local\Temp\ccltyUpz.s 			page 26


 1426 012c 00       		.byte	0
 1427 012d 49       		.uleb128 0x49
 1428 012e 13       		.uleb128 0x13
 1429 012f 2F       		.uleb128 0x2f
 1430 0130 0B       		.uleb128 0xb
 1431 0131 00       		.byte	0
 1432 0132 00       		.byte	0
 1433 0133 14       		.uleb128 0x14
 1434 0134 16       		.uleb128 0x16
 1435 0135 00       		.byte	0
 1436 0136 03       		.uleb128 0x3
 1437 0137 0E       		.uleb128 0xe
 1438 0138 3A       		.uleb128 0x3a
 1439 0139 0B       		.uleb128 0xb
 1440 013a 3B       		.uleb128 0x3b
 1441 013b 05       		.uleb128 0x5
 1442 013c 39       		.uleb128 0x39
 1443 013d 0B       		.uleb128 0xb
 1444 013e 49       		.uleb128 0x49
 1445 013f 13       		.uleb128 0x13
 1446 0140 00       		.byte	0
 1447 0141 00       		.byte	0
 1448 0142 15       		.uleb128 0x15
 1449 0143 2E       		.uleb128 0x2e
 1450 0144 01       		.byte	0x1
 1451 0145 3F       		.uleb128 0x3f
 1452 0146 19       		.uleb128 0x19
 1453 0147 03       		.uleb128 0x3
 1454 0148 0E       		.uleb128 0xe
 1455 0149 3A       		.uleb128 0x3a
 1456 014a 0B       		.uleb128 0xb
 1457 014b 3B       		.uleb128 0x3b
 1458 014c 05       		.uleb128 0x5
 1459 014d 39       		.uleb128 0x39
 1460 014e 0B       		.uleb128 0xb
 1461 014f 27       		.uleb128 0x27
 1462 0150 19       		.uleb128 0x19
 1463 0151 3C       		.uleb128 0x3c
 1464 0152 19       		.uleb128 0x19
 1465 0153 01       		.uleb128 0x1
 1466 0154 13       		.uleb128 0x13
 1467 0155 00       		.byte	0
 1468 0156 00       		.byte	0
 1469 0157 16       		.uleb128 0x16
 1470 0158 05       		.uleb128 0x5
 1471 0159 00       		.byte	0
 1472 015a 49       		.uleb128 0x49
 1473 015b 13       		.uleb128 0x13
 1474 015c 00       		.byte	0
 1475 015d 00       		.byte	0
 1476 015e 17       		.uleb128 0x17
 1477 015f 2E       		.uleb128 0x2e
 1478 0160 00       		.byte	0
 1479 0161 3F       		.uleb128 0x3f
 1480 0162 19       		.uleb128 0x19
 1481 0163 03       		.uleb128 0x3
 1482 0164 0E       		.uleb128 0xe
ARM GAS  C:\Users\DEVELO~1\AppData\Local\Temp\ccltyUpz.s 			page 27


 1483 0165 3A       		.uleb128 0x3a
 1484 0166 0B       		.uleb128 0xb
 1485 0167 3B       		.uleb128 0x3b
 1486 0168 0B       		.uleb128 0xb
 1487 0169 39       		.uleb128 0x39
 1488 016a 0B       		.uleb128 0xb
 1489 016b 27       		.uleb128 0x27
 1490 016c 19       		.uleb128 0x19
 1491 016d 49       		.uleb128 0x49
 1492 016e 13       		.uleb128 0x13
 1493 016f 3C       		.uleb128 0x3c
 1494 0170 19       		.uleb128 0x19
 1495 0171 00       		.byte	0
 1496 0172 00       		.byte	0
 1497 0173 18       		.uleb128 0x18
 1498 0174 2E       		.uleb128 0x2e
 1499 0175 01       		.byte	0x1
 1500 0176 3F       		.uleb128 0x3f
 1501 0177 19       		.uleb128 0x19
 1502 0178 03       		.uleb128 0x3
 1503 0179 0E       		.uleb128 0xe
 1504 017a 3A       		.uleb128 0x3a
 1505 017b 0B       		.uleb128 0xb
 1506 017c 3B       		.uleb128 0x3b
 1507 017d 0B       		.uleb128 0xb
 1508 017e 39       		.uleb128 0x39
 1509 017f 0B       		.uleb128 0xb
 1510 0180 27       		.uleb128 0x27
 1511 0181 19       		.uleb128 0x19
 1512 0182 11       		.uleb128 0x11
 1513 0183 01       		.uleb128 0x1
 1514 0184 12       		.uleb128 0x12
 1515 0185 06       		.uleb128 0x6
 1516 0186 40       		.uleb128 0x40
 1517 0187 18       		.uleb128 0x18
 1518 0188 7A       		.uleb128 0x7a
 1519 0189 19       		.uleb128 0x19
 1520 018a 01       		.uleb128 0x1
 1521 018b 13       		.uleb128 0x13
 1522 018c 00       		.byte	0
 1523 018d 00       		.byte	0
 1524 018e 19       		.uleb128 0x19
 1525 018f 48       		.uleb128 0x48
 1526 0190 00       		.byte	0
 1527 0191 7D       		.uleb128 0x7d
 1528 0192 01       		.uleb128 0x1
 1529 0193 8201     		.uleb128 0x82
 1530 0195 19       		.uleb128 0x19
 1531 0196 7F       		.uleb128 0x7f
 1532 0197 13       		.uleb128 0x13
 1533 0198 00       		.byte	0
 1534 0199 00       		.byte	0
 1535 019a 1A       		.uleb128 0x1a
 1536 019b 1D       		.uleb128 0x1d
 1537 019c 01       		.byte	0x1
 1538 019d 31       		.uleb128 0x31
 1539 019e 13       		.uleb128 0x13
ARM GAS  C:\Users\DEVELO~1\AppData\Local\Temp\ccltyUpz.s 			page 28


 1540 019f 52       		.uleb128 0x52
 1541 01a0 01       		.uleb128 0x1
 1542 01a1 B842     		.uleb128 0x2138
 1543 01a3 0B       		.uleb128 0xb
 1544 01a4 55       		.uleb128 0x55
 1545 01a5 17       		.uleb128 0x17
 1546 01a6 58       		.uleb128 0x58
 1547 01a7 0B       		.uleb128 0xb
 1548 01a8 59       		.uleb128 0x59
 1549 01a9 0B       		.uleb128 0xb
 1550 01aa 57       		.uleb128 0x57
 1551 01ab 0B       		.uleb128 0xb
 1552 01ac 01       		.uleb128 0x1
 1553 01ad 13       		.uleb128 0x13
 1554 01ae 00       		.byte	0
 1555 01af 00       		.byte	0
 1556 01b0 1B       		.uleb128 0x1b
 1557 01b1 1D       		.uleb128 0x1d
 1558 01b2 01       		.byte	0x1
 1559 01b3 31       		.uleb128 0x31
 1560 01b4 13       		.uleb128 0x13
 1561 01b5 52       		.uleb128 0x52
 1562 01b6 01       		.uleb128 0x1
 1563 01b7 B842     		.uleb128 0x2138
 1564 01b9 0B       		.uleb128 0xb
 1565 01ba 55       		.uleb128 0x55
 1566 01bb 17       		.uleb128 0x17
 1567 01bc 58       		.uleb128 0x58
 1568 01bd 0B       		.uleb128 0xb
 1569 01be 59       		.uleb128 0x59
 1570 01bf 0B       		.uleb128 0xb
 1571 01c0 57       		.uleb128 0x57
 1572 01c1 0B       		.uleb128 0xb
 1573 01c2 00       		.byte	0
 1574 01c3 00       		.byte	0
 1575 01c4 1C       		.uleb128 0x1c
 1576 01c5 2E       		.uleb128 0x2e
 1577 01c6 00       		.byte	0
 1578 01c7 3F       		.uleb128 0x3f
 1579 01c8 19       		.uleb128 0x19
 1580 01c9 03       		.uleb128 0x3
 1581 01ca 0E       		.uleb128 0xe
 1582 01cb 3A       		.uleb128 0x3a
 1583 01cc 0B       		.uleb128 0xb
 1584 01cd 3B       		.uleb128 0x3b
 1585 01ce 0B       		.uleb128 0xb
 1586 01cf 39       		.uleb128 0x39
 1587 01d0 0B       		.uleb128 0xb
 1588 01d1 27       		.uleb128 0x27
 1589 01d2 19       		.uleb128 0x19
 1590 01d3 11       		.uleb128 0x11
 1591 01d4 01       		.uleb128 0x1
 1592 01d5 12       		.uleb128 0x12
 1593 01d6 06       		.uleb128 0x6
 1594 01d7 40       		.uleb128 0x40
 1595 01d8 18       		.uleb128 0x18
 1596 01d9 7A       		.uleb128 0x7a
ARM GAS  C:\Users\DEVELO~1\AppData\Local\Temp\ccltyUpz.s 			page 29


 1597 01da 19       		.uleb128 0x19
 1598 01db 00       		.byte	0
 1599 01dc 00       		.byte	0
 1600 01dd 1D       		.uleb128 0x1d
 1601 01de 2E       		.uleb128 0x2e
 1602 01df 00       		.byte	0
 1603 01e0 3F       		.uleb128 0x3f
 1604 01e1 19       		.uleb128 0x19
 1605 01e2 03       		.uleb128 0x3
 1606 01e3 0E       		.uleb128 0xe
 1607 01e4 3A       		.uleb128 0x3a
 1608 01e5 0B       		.uleb128 0xb
 1609 01e6 3B       		.uleb128 0x3b
 1610 01e7 0B       		.uleb128 0xb
 1611 01e8 39       		.uleb128 0x39
 1612 01e9 0B       		.uleb128 0xb
 1613 01ea 27       		.uleb128 0x27
 1614 01eb 19       		.uleb128 0x19
 1615 01ec 49       		.uleb128 0x49
 1616 01ed 13       		.uleb128 0x13
 1617 01ee 00       		.byte	0
 1618 01ef 00       		.byte	0
 1619 01f0 1E       		.uleb128 0x1e
 1620 01f1 2E       		.uleb128 0x2e
 1621 01f2 00       		.byte	0
 1622 01f3 3F       		.uleb128 0x3f
 1623 01f4 19       		.uleb128 0x19
 1624 01f5 03       		.uleb128 0x3
 1625 01f6 0E       		.uleb128 0xe
 1626 01f7 3A       		.uleb128 0x3a
 1627 01f8 0B       		.uleb128 0xb
 1628 01f9 3B       		.uleb128 0x3b
 1629 01fa 0B       		.uleb128 0xb
 1630 01fb 39       		.uleb128 0x39
 1631 01fc 0B       		.uleb128 0xb
 1632 01fd 27       		.uleb128 0x27
 1633 01fe 19       		.uleb128 0x19
 1634 01ff 49       		.uleb128 0x49
 1635 0200 13       		.uleb128 0x13
 1636 0201 20       		.uleb128 0x20
 1637 0202 0B       		.uleb128 0xb
 1638 0203 00       		.byte	0
 1639 0204 00       		.byte	0
 1640 0205 1F       		.uleb128 0x1f
 1641 0206 2E       		.uleb128 0x2e
 1642 0207 00       		.byte	0
 1643 0208 31       		.uleb128 0x31
 1644 0209 13       		.uleb128 0x13
 1645 020a 11       		.uleb128 0x11
 1646 020b 01       		.uleb128 0x1
 1647 020c 12       		.uleb128 0x12
 1648 020d 06       		.uleb128 0x6
 1649 020e 40       		.uleb128 0x40
 1650 020f 18       		.uleb128 0x18
 1651 0210 7A       		.uleb128 0x7a
 1652 0211 19       		.uleb128 0x19
 1653 0212 00       		.byte	0
ARM GAS  C:\Users\DEVELO~1\AppData\Local\Temp\ccltyUpz.s 			page 30


 1654 0213 00       		.byte	0
 1655 0214 20       		.uleb128 0x20
 1656 0215 2E       		.uleb128 0x2e
 1657 0216 00       		.byte	0
 1658 0217 3F       		.uleb128 0x3f
 1659 0218 19       		.uleb128 0x19
 1660 0219 3C       		.uleb128 0x3c
 1661 021a 19       		.uleb128 0x19
 1662 021b 6E       		.uleb128 0x6e
 1663 021c 0E       		.uleb128 0xe
 1664 021d 03       		.uleb128 0x3
 1665 021e 0E       		.uleb128 0xe
 1666 021f 00       		.byte	0
 1667 0220 00       		.byte	0
 1668 0221 00       		.byte	0
 1669              		.section	.debug_loclists,"",%progbits
 1670 0000 9B000000 		.4byte	.Ldebug_loc3-.Ldebug_loc2
 1671              	.Ldebug_loc2:
 1672 0004 0500     		.2byte	0x5
 1673 0006 04       		.byte	0x4
 1674 0007 00       		.byte	0
 1675 0008 00000000 		.4byte	0
 1676              	.Ldebug_loc0:
 1677              	.LVUS4:
 1678 000c 00       		.uleb128 0
 1679 000d 00       		.uleb128 .LVU73
 1680 000e 00       		.uleb128 .LVU73
 1681 000f 00       		.uleb128 .LVU75
 1682 0010 00       		.uleb128 .LVU75
 1683 0011 00       		.uleb128 .LVU76
 1684 0012 00       		.uleb128 .LVU76
 1685 0013 00       		.uleb128 .LVU79
 1686 0014 00       		.uleb128 .LVU79
 1687 0015 00       		.uleb128 .LVU80
 1688 0016 00       		.uleb128 .LVU80
 1689 0017 00       		.uleb128 0
 1690              	.LLST4:
 1691 0018 06       		.byte	0x6
 1692 0019 00000000 		.4byte	.LVL10
 1693 001d 04       		.byte	0x4
 1694 001e 00       		.uleb128 .LVL10-.LVL10
 1695 001f 20       		.uleb128 .LVL11-.LVL10
 1696 0020 06       		.uleb128 0x6
 1697 0021 50       		.byte	0x50
 1698 0022 93       		.byte	0x93
 1699 0023 04       		.uleb128 0x4
 1700 0024 51       		.byte	0x51
 1701 0025 93       		.byte	0x93
 1702 0026 04       		.uleb128 0x4
 1703 0027 04       		.byte	0x4
 1704 0028 20       		.uleb128 .LVL11-.LVL10
 1705 0029 28       		.uleb128 .LVL12-.LVL10
 1706 002a 06       		.uleb128 0x6
 1707 002b A3       		.byte	0xa3
 1708 002c 03       		.uleb128 0x3
 1709 002d A5       		.byte	0xa5
 1710 002e 00       		.uleb128 0
ARM GAS  C:\Users\DEVELO~1\AppData\Local\Temp\ccltyUpz.s 			page 31


 1711 002f 26       		.uleb128 0x26
 1712 0030 9F       		.byte	0x9f
 1713 0031 04       		.byte	0x4
 1714 0032 28       		.uleb128 .LVL12-.LVL10
 1715 0033 2C       		.uleb128 .LVL13-.LVL10
 1716 0034 06       		.uleb128 0x6
 1717 0035 50       		.byte	0x50
 1718 0036 93       		.byte	0x93
 1719 0037 04       		.uleb128 0x4
 1720 0038 51       		.byte	0x51
 1721 0039 93       		.byte	0x93
 1722 003a 04       		.uleb128 0x4
 1723 003b 04       		.byte	0x4
 1724 003c 2C       		.uleb128 .LVL13-.LVL10
 1725 003d 34       		.uleb128 .LVL14-.LVL10
 1726 003e 06       		.uleb128 0x6
 1727 003f A3       		.byte	0xa3
 1728 0040 03       		.uleb128 0x3
 1729 0041 A5       		.byte	0xa5
 1730 0042 00       		.uleb128 0
 1731 0043 26       		.uleb128 0x26
 1732 0044 9F       		.byte	0x9f
 1733 0045 04       		.byte	0x4
 1734 0046 34       		.uleb128 .LVL14-.LVL10
 1735 0047 36       		.uleb128 .LVL15-.LVL10
 1736 0048 06       		.uleb128 0x6
 1737 0049 50       		.byte	0x50
 1738 004a 93       		.byte	0x93
 1739 004b 04       		.uleb128 0x4
 1740 004c 51       		.byte	0x51
 1741 004d 93       		.byte	0x93
 1742 004e 04       		.uleb128 0x4
 1743 004f 04       		.byte	0x4
 1744 0050 36       		.uleb128 .LVL15-.LVL10
 1745 0051 40       		.uleb128 .LFE430-.LVL10
 1746 0052 06       		.uleb128 0x6
 1747 0053 A3       		.byte	0xa3
 1748 0054 03       		.uleb128 0x3
 1749 0055 A5       		.byte	0xa5
 1750 0056 00       		.uleb128 0
 1751 0057 26       		.uleb128 0x26
 1752 0058 9F       		.byte	0x9f
 1753 0059 00       		.byte	0
 1754              	.LVUS3:
 1755 005a 00       		.uleb128 0
 1756 005b 00       		.uleb128 .LVU37
 1757 005c 00       		.uleb128 .LVU37
 1758 005d 00       		.uleb128 0
 1759              	.LLST3:
 1760 005e 06       		.byte	0x6
 1761 005f 00000000 		.4byte	.LVL8
 1762 0063 04       		.byte	0x4
 1763 0064 00       		.uleb128 .LVL8-.LVL8
 1764 0065 06       		.uleb128 .LVL9-.LVL8
 1765 0066 01       		.uleb128 0x1
 1766 0067 50       		.byte	0x50
 1767 0068 04       		.byte	0x4
ARM GAS  C:\Users\DEVELO~1\AppData\Local\Temp\ccltyUpz.s 			page 32


 1768 0069 06       		.uleb128 .LVL9-.LVL8
 1769 006a 10       		.uleb128 .LFE421-.LVL8
 1770 006b 04       		.uleb128 0x4
 1771 006c A3       		.byte	0xa3
 1772 006d 01       		.uleb128 0x1
 1773 006e 50       		.byte	0x50
 1774 006f 9F       		.byte	0x9f
 1775 0070 00       		.byte	0
 1776              	.LVUS2:
 1777 0071 00       		.uleb128 0
 1778 0072 00       		.uleb128 .LVU29
 1779 0073 00       		.uleb128 .LVU29
 1780 0074 00       		.uleb128 0
 1781              	.LLST2:
 1782 0075 06       		.byte	0x6
 1783 0076 00000000 		.4byte	.LVL4
 1784 007a 04       		.byte	0x4
 1785 007b 00       		.uleb128 .LVL4-.LVL4
 1786 007c 1A       		.uleb128 .LVL5-.LVL4
 1787 007d 01       		.uleb128 0x1
 1788 007e 50       		.byte	0x50
 1789 007f 04       		.byte	0x4
 1790 0080 1A       		.uleb128 .LVL5-.LVL4
 1791 0081 28       		.uleb128 .LFE420-.LVL4
 1792 0082 04       		.uleb128 0x4
 1793 0083 A3       		.byte	0xa3
 1794 0084 01       		.uleb128 0x1
 1795 0085 50       		.byte	0x50
 1796 0086 9F       		.byte	0x9f
 1797 0087 00       		.byte	0
 1798              	.LVUS0:
 1799 0088 00       		.uleb128 0
 1800 0089 00       		.uleb128 .LVU7
 1801 008a 00       		.uleb128 .LVU7
 1802 008b 00       		.uleb128 0
 1803              	.LLST0:
 1804 008c 06       		.byte	0x6
 1805 008d 00000000 		.4byte	.LVL0
 1806 0091 04       		.byte	0x4
 1807 0092 00       		.uleb128 .LVL0-.LVL0
 1808 0093 02       		.uleb128 .LVL1-.LVL0
 1809 0094 01       		.uleb128 0x1
 1810 0095 50       		.byte	0x50
 1811 0096 04       		.byte	0x4
 1812 0097 02       		.uleb128 .LVL1-.LVL0
 1813 0098 04       		.uleb128 .LFE417-.LVL0
 1814 0099 04       		.uleb128 0x4
 1815 009a A3       		.byte	0xa3
 1816 009b 01       		.uleb128 0x1
 1817 009c 50       		.byte	0x50
 1818 009d 9F       		.byte	0x9f
 1819 009e 00       		.byte	0
 1820              	.Ldebug_loc3:
 1821              		.section	.debug_aranges,"",%progbits
 1822 0000 8C000000 		.4byte	0x8c
 1823 0004 0200     		.2byte	0x2
 1824 0006 00000000 		.4byte	.Ldebug_info0
ARM GAS  C:\Users\DEVELO~1\AppData\Local\Temp\ccltyUpz.s 			page 33


 1825 000a 04       		.byte	0x4
 1826 000b 00       		.byte	0
 1827 000c 0000     		.2byte	0
 1828 000e 0000     		.2byte	0
 1829 0010 00000000 		.4byte	.LFB415
 1830 0014 04000000 		.4byte	.LFE415-.LFB415
 1831 0018 00000000 		.4byte	.LFB417
 1832 001c 04000000 		.4byte	.LFE417-.LFB417
 1833 0020 00000000 		.4byte	.LFB418
 1834 0024 02000000 		.4byte	.LFE418-.LFB418
 1835 0028 00000000 		.4byte	.LFB419
 1836 002c 2C000000 		.4byte	.LFE419-.LFB419
 1837 0030 00000000 		.4byte	.LFB420
 1838 0034 28000000 		.4byte	.LFE420-.LFB420
 1839 0038 00000000 		.4byte	.LFB421
 1840 003c 10000000 		.4byte	.LFE421-.LFB421
 1841 0040 00000000 		.4byte	.LFB422
 1842 0044 0C000000 		.4byte	.LFE422-.LFB422
 1843 0048 00000000 		.4byte	.LFB423
 1844 004c 0C000000 		.4byte	.LFE423-.LFB423
 1845 0050 00000000 		.4byte	.LFB424
 1846 0054 08000000 		.4byte	.LFE424-.LFB424
 1847 0058 00000000 		.4byte	.LFB425
 1848 005c 0C000000 		.4byte	.LFE425-.LFB425
 1849 0060 00000000 		.4byte	.LFB426
 1850 0064 10000000 		.4byte	.LFE426-.LFB426
 1851 0068 00000000 		.4byte	.LFB427
 1852 006c 0C000000 		.4byte	.LFE427-.LFB427
 1853 0070 00000000 		.4byte	.LFB428
 1854 0074 0C000000 		.4byte	.LFE428-.LFB428
 1855 0078 00000000 		.4byte	.LFB429
 1856 007c 0C000000 		.4byte	.LFE429-.LFB429
 1857 0080 00000000 		.4byte	.LFB430
 1858 0084 40000000 		.4byte	.LFE430-.LFB430
 1859 0088 00000000 		.4byte	0
 1860 008c 00000000 		.4byte	0
 1861              		.section	.debug_rnglists,"",%progbits
 1862              	.Ldebug_ranges0:
 1863 0000 6F000000 		.4byte	.Ldebug_ranges3-.Ldebug_ranges2
 1864              	.Ldebug_ranges2:
 1865 0004 0500     		.2byte	0x5
 1866 0006 04       		.byte	0x4
 1867 0007 00       		.byte	0
 1868 0008 00000000 		.4byte	0
 1869              	.LLRL1:
 1870 000c 05       		.byte	0x5
 1871 000d 00000000 		.4byte	.LBB8
 1872 0011 04       		.byte	0x4
 1873 0012 00       		.uleb128 .LBB8-.LBB8
 1874 0013 00       		.uleb128 .LBE8-.LBB8
 1875 0014 04       		.byte	0x4
 1876 0015 02       		.uleb128 .LBB13-.LBB8
 1877 0016 06       		.uleb128 .LBE13-.LBB8
 1878 0017 00       		.byte	0
 1879              	.LLRL5:
 1880 0018 07       		.byte	0x7
 1881 0019 00000000 		.4byte	.LFB415
ARM GAS  C:\Users\DEVELO~1\AppData\Local\Temp\ccltyUpz.s 			page 34


 1882 001d 04       		.uleb128 .LFE415-.LFB415
 1883 001e 07       		.byte	0x7
 1884 001f 00000000 		.4byte	.LFB417
 1885 0023 04       		.uleb128 .LFE417-.LFB417
 1886 0024 07       		.byte	0x7
 1887 0025 00000000 		.4byte	.LFB418
 1888 0029 02       		.uleb128 .LFE418-.LFB418
 1889 002a 07       		.byte	0x7
 1890 002b 00000000 		.4byte	.LFB419
 1891 002f 2C       		.uleb128 .LFE419-.LFB419
 1892 0030 07       		.byte	0x7
 1893 0031 00000000 		.4byte	.LFB420
 1894 0035 28       		.uleb128 .LFE420-.LFB420
 1895 0036 07       		.byte	0x7
 1896 0037 00000000 		.4byte	.LFB421
 1897 003b 10       		.uleb128 .LFE421-.LFB421
 1898 003c 07       		.byte	0x7
 1899 003d 00000000 		.4byte	.LFB422
 1900 0041 0C       		.uleb128 .LFE422-.LFB422
 1901 0042 07       		.byte	0x7
 1902 0043 00000000 		.4byte	.LFB423
 1903 0047 0C       		.uleb128 .LFE423-.LFB423
 1904 0048 07       		.byte	0x7
 1905 0049 00000000 		.4byte	.LFB424
 1906 004d 08       		.uleb128 .LFE424-.LFB424
 1907 004e 07       		.byte	0x7
 1908 004f 00000000 		.4byte	.LFB425
 1909 0053 0C       		.uleb128 .LFE425-.LFB425
 1910 0054 07       		.byte	0x7
 1911 0055 00000000 		.4byte	.LFB426
 1912 0059 10       		.uleb128 .LFE426-.LFB426
 1913 005a 07       		.byte	0x7
 1914 005b 00000000 		.4byte	.LFB427
 1915 005f 0C       		.uleb128 .LFE427-.LFB427
 1916 0060 07       		.byte	0x7
 1917 0061 00000000 		.4byte	.LFB428
 1918 0065 0C       		.uleb128 .LFE428-.LFB428
 1919 0066 07       		.byte	0x7
 1920 0067 00000000 		.4byte	.LFB429
 1921 006b 0C       		.uleb128 .LFE429-.LFB429
 1922 006c 07       		.byte	0x7
 1923 006d 00000000 		.4byte	.LFB430
 1924 0071 40       		.uleb128 .LFE430-.LFB430
 1925 0072 00       		.byte	0
 1926              	.Ldebug_ranges3:
 1927              		.section	.debug_line,"",%progbits
 1928              	.Ldebug_line0:
 1929 0000 E2030000 		.section	.debug_str,"MS",%progbits,1
 1929      0300EB01 
 1929      00000201 
 1929      FB0E0D00 
 1929      01010101 
 1930              	.LASF35:
 1931 0000 48414C5F 		.ascii	"HAL_ERROR\000"
 1931      4552524F 
 1931      5200
 1932              	.LASF37:
ARM GAS  C:\Users\DEVELO~1\AppData\Local\Temp\ccltyUpz.s 			page 35


 1933 000a 48414C5F 		.ascii	"HAL_TIMEOUT\000"
 1933      54494D45 
 1933      4F555400 
 1934              	.LASF58:
 1935 0016 46726571 		.ascii	"Freq\000"
 1935      00
 1936              	.LASF39:
 1937 001b 48414C5F 		.ascii	"HAL_TICK_FREQ_10HZ\000"
 1937      5449434B 
 1937      5F465245 
 1937      515F3130 
 1937      485A00
 1938              	.LASF13:
 1939 002e 75696E74 		.ascii	"uint64_t\000"
 1939      36345F74 
 1939      00
 1940              	.LASF6:
 1941 0037 73686F72 		.ascii	"short int\000"
 1941      7420696E 
 1941      7400
 1942              	.LASF17:
 1943 0041 74696D65 		.ascii	"time_msecs_t\000"
 1943      5F6D7365 
 1943      63735F74 
 1943      00
 1944              	.LASF72:
 1945 004e 48414C5F 		.ascii	"HAL_IncTick\000"
 1945      496E6354 
 1945      69636B00 
 1946              	.LASF54:
 1947 005a 48414C5F 		.ascii	"HAL_GetTickFreq\000"
 1947      47657454 
 1947      69636B46 
 1947      72657100 
 1948              	.LASF49:
 1949 006a 48414C5F 		.ascii	"HAL_GetUIDw0\000"
 1949      47657455 
 1949      49447730 
 1949      00
 1950              	.LASF48:
 1951 0077 48414C5F 		.ascii	"HAL_GetUIDw1\000"
 1951      47657455 
 1951      49447731 
 1951      00
 1952              	.LASF47:
 1953 0084 48414C5F 		.ascii	"HAL_GetUIDw2\000"
 1953      47657455 
 1953      49447732 
 1953      00
 1954              	.LASF70:
 1955 0091 63685468 		.ascii	"chThdSleep\000"
 1955      64536C65 
 1955      657000
 1956              	.LASF3:
 1957 009c 6C6F6E67 		.ascii	"long double\000"
 1957      20646F75 
 1957      626C6500 
ARM GAS  C:\Users\DEVELO~1\AppData\Local\Temp\ccltyUpz.s 			page 36


 1958              	.LASF52:
 1959 00a8 48414C5F 		.ascii	"HAL_GetHalVersion\000"
 1959      47657448 
 1959      616C5665 
 1959      7273696F 
 1959      6E00
 1960              	.LASF60:
 1961 00ba 48414C5F 		.ascii	"HAL_GetTick\000"
 1961      47657454 
 1961      69636B00 
 1962              	.LASF64:
 1963 00c6 48414C5F 		.ascii	"HAL_Init\000"
 1963      496E6974 
 1963      00
 1964              	.LASF67:
 1965 00cf 474E5520 		.ascii	"GNU C17 11.3.1 20220712 -mcpu=cortex-m7 -mthumb -mf"
 1965      43313720 
 1965      31312E33 
 1965      2E312032 
 1965      30323230 
 1966 0102 6C6F6174 		.ascii	"loat-abi=soft -march=armv7e-m -ggdb -O2 -fomit-fram"
 1966      2D616269 
 1966      3D736F66 
 1966      74202D6D 
 1966      61726368 
 1967 0135 652D706F 		.ascii	"e-pointer -falign-functions=16 -ffunction-sections "
 1967      696E7465 
 1967      72202D66 
 1967      616C6967 
 1967      6E2D6675 
 1968 0168 2D666461 		.ascii	"-fdata-sections -fno-common\000"
 1968      74612D73 
 1968      65637469 
 1968      6F6E7320 
 1968      2D666E6F 
 1969              	.LASF45:
 1970 0184 75775469 		.ascii	"uwTickPrio\000"
 1970      636B5072 
 1970      696F00
 1971              	.LASF34:
 1972 018f 48414C5F 		.ascii	"HAL_OK\000"
 1972      4F4B00
 1973              	.LASF44:
 1974 0196 75775469 		.ascii	"uwTick\000"
 1974      636B00
 1975              	.LASF24:
 1976 019d 52455345 		.ascii	"RESERVED6\000"
 1976      52564544 
 1976      3600
 1977              	.LASF36:
 1978 01a7 48414C5F 		.ascii	"HAL_BUSY\000"
 1978      42555359 
 1978      00
 1979              	.LASF73:
 1980 01b0 48414C5F 		.ascii	"HAL_DeInit\000"
 1980      4465496E 
 1980      697400
ARM GAS  C:\Users\DEVELO~1\AppData\Local\Temp\ccltyUpz.s 			page 37


 1981              	.LASF32:
 1982 01bb 666C6F61 		.ascii	"float\000"
 1982      7400
 1983              	.LASF2:
 1984 01c1 6C6F6E67 		.ascii	"long long int\000"
 1984      206C6F6E 
 1984      6720696E 
 1984      7400
 1985              	.LASF0:
 1986 01cf 6C6F6E67 		.ascii	"long long unsigned int\000"
 1986      206C6F6E 
 1986      6720756E 
 1986      7369676E 
 1986      65642069 
 1987              	.LASF55:
 1988 01e6 48414C5F 		.ascii	"HAL_RCCEx_GetPeriphCLKFreq\000"
 1988      52434345 
 1988      785F4765 
 1988      74506572 
 1988      69706843 
 1989              	.LASF43:
 1990 0201 48414C5F 		.ascii	"HAL_TickFreqTypeDef\000"
 1990      5469636B 
 1990      46726571 
 1990      54797065 
 1990      44656600 
 1991              	.LASF8:
 1992 0215 6C6F6E67 		.ascii	"long int\000"
 1992      20696E74 
 1992      00
 1993              	.LASF25:
 1994 021e 41504231 		.ascii	"APB1HFZ1\000"
 1994      48465A31 
 1994      00
 1995              	.LASF38:
 1996 0227 48414C5F 		.ascii	"HAL_StatusTypeDef\000"
 1996      53746174 
 1996      75735479 
 1996      70654465 
 1996      6600
 1997              	.LASF69:
 1998 0239 433A5C50 		.ascii	"C:\\PROJET\\ChibiOS project\\ChibiOS_21.11.4\\demos"
 1998      524F4A45 
 1998      545C4368 
 1998      6962694F 
 1998      53207072 
 1999 0268 5C53544D 		.ascii	"\\STM32\\RT-STM32H743ZI_REV_XY-NUCLEO144\000"
 1999      33325C52 
 1999      542D5354 
 1999      4D333248 
 1999      3734335A 
 2000              	.LASF56:
 2001 028f 48414C5F 		.ascii	"HAL_SetTickFreq\000"
 2001      53657454 
 2001      69636B46 
 2001      72657100 
 2002              	.LASF27:
ARM GAS  C:\Users\DEVELO~1\AppData\Local\Temp\ccltyUpz.s 			page 38


 2003 029f 41504232 		.ascii	"APB2FZ1\000"
 2003      465A3100 
 2004              	.LASF23:
 2005 02a7 41504231 		.ascii	"APB1LFZ1\000"
 2005      4C465A31 
 2005      00
 2006              	.LASF5:
 2007 02b0 756E7369 		.ascii	"unsigned char\000"
 2007      676E6564 
 2007      20636861 
 2007      7200
 2008              	.LASF62:
 2009 02be 5469636B 		.ascii	"TickPriority\000"
 2009      5072696F 
 2009      72697479 
 2009      00
 2010              	.LASF4:
 2011 02cb 7369676E 		.ascii	"signed char\000"
 2011      65642063 
 2011      68617200 
 2012              	.LASF71:
 2013 02d7 48414C5F 		.ascii	"HAL_Delay\000"
 2013      44656C61 
 2013      7900
 2014              	.LASF12:
 2015 02e1 75696E74 		.ascii	"uint32_t\000"
 2015      33325F74 
 2015      00
 2016              	.LASF46:
 2017 02ea 75775469 		.ascii	"uwTickFreq\000"
 2017      636B4672 
 2017      657100
 2018              	.LASF1:
 2019 02f5 756E7369 		.ascii	"unsigned int\000"
 2019      676E6564 
 2019      20696E74 
 2019      00
 2020              	.LASF57:
 2021 0302 50657269 		.ascii	"PeriphClk\000"
 2021      7068436C 
 2021      6B00
 2022              	.LASF74:
 2023 030c 5F5F6165 		.ascii	"__aeabi_uldivmod\000"
 2023      6162695F 
 2023      756C6469 
 2023      766D6F64 
 2023      00
 2024              	.LASF16:
 2025 031d 73797369 		.ascii	"sysinterval_t\000"
 2025      6E746572 
 2025      76616C5F 
 2025      7400
 2026              	.LASF41:
 2027 032b 48414C5F 		.ascii	"HAL_TICK_FREQ_1KHZ\000"
 2027      5449434B 
 2027      5F465245 
 2027      515F314B 
ARM GAS  C:\Users\DEVELO~1\AppData\Local\Temp\ccltyUpz.s 			page 39


 2027      485A00
 2028              	.LASF7:
 2029 033e 73686F72 		.ascii	"short unsigned int\000"
 2029      7420756E 
 2029      7369676E 
 2029      65642069 
 2029      6E7400
 2030              	.LASF61:
 2031 0351 48414C5F 		.ascii	"HAL_InitTick\000"
 2031      496E6974 
 2031      5469636B 
 2031      00
 2032              	.LASF15:
 2033 035e 73797374 		.ascii	"systime_t\000"
 2033      696D655F 
 2033      7400
 2034              	.LASF14:
 2035 0368 63686172 		.ascii	"char\000"
 2035      00
 2036              	.LASF30:
 2037 036d 4442474D 		.ascii	"DBGMCU_TypeDef\000"
 2037      43555F54 
 2037      79706544 
 2037      656600
 2038              	.LASF31:
 2039 037c 5F426F6F 		.ascii	"_Bool\000"
 2039      6C00
 2040              	.LASF65:
 2041 0382 63685654 		.ascii	"chVTGetSystemTimeX\000"
 2041      47657453 
 2041      79737465 
 2041      6D54696D 
 2041      655800
 2042              	.LASF40:
 2043 0395 48414C5F 		.ascii	"HAL_TICK_FREQ_100HZ\000"
 2043      5449434B 
 2043      5F465245 
 2043      515F3130 
 2043      30485A00 
 2044              	.LASF11:
 2045 03a9 5F5F7569 		.ascii	"__uint64_t\000"
 2045      6E743634 
 2045      5F7400
 2046              	.LASF68:
 2047 03b4 64726976 		.ascii	"drivers/stm32h7xx_hal_chibios.c\000"
 2047      6572732F 
 2047      73746D33 
 2047      32683778 
 2047      785F6861 
 2048              	.LASF21:
 2049 03d4 41504233 		.ascii	"APB3FZ1\000"
 2049      465A3100 
 2050              	.LASF66:
 2051 03dc 706F7274 		.ascii	"port_timer_get_time\000"
 2051      5F74696D 
 2051      65725F67 
 2051      65745F74 
ARM GAS  C:\Users\DEVELO~1\AppData\Local\Temp\ccltyUpz.s 			page 40


 2051      696D6500 
 2052              	.LASF20:
 2053 03f0 52455345 		.ascii	"RESERVED4\000"
 2053      52564544 
 2053      3400
 2054              	.LASF22:
 2055 03fa 52455345 		.ascii	"RESERVED5\000"
 2055      52564544 
 2055      3500
 2056              	.LASF9:
 2057 0404 6C6F6E67 		.ascii	"long unsigned int\000"
 2057      20756E73 
 2057      69676E65 
 2057      6420696E 
 2057      7400
 2058              	.LASF26:
 2059 0416 52455345 		.ascii	"RESERVED7\000"
 2059      52564544 
 2059      3700
 2060              	.LASF28:
 2061 0420 52455345 		.ascii	"RESERVED8\000"
 2061      52564544 
 2061      3800
 2062              	.LASF51:
 2063 042a 48414C5F 		.ascii	"HAL_GetREVID\000"
 2063      47657452 
 2063      45564944 
 2063      00
 2064              	.LASF53:
 2065 0437 48414C5F 		.ascii	"HAL_GetTickPrio\000"
 2065      47657454 
 2065      69636B50 
 2065      72696F00 
 2066              	.LASF10:
 2067 0447 5F5F7569 		.ascii	"__uint32_t\000"
 2067      6E743332 
 2067      5F7400
 2068              	.LASF19:
 2069 0452 4944434F 		.ascii	"IDCODE\000"
 2069      444500
 2070              	.LASF18:
 2071 0459 74696D65 		.ascii	"time_conv_t\000"
 2071      5F636F6E 
 2071      765F7400 
 2072              	.LASF50:
 2073 0465 48414C5F 		.ascii	"HAL_GetDEVID\000"
 2073      47657444 
 2073      45564944 
 2073      00
 2074              	.LASF33:
 2075 0472 646F7562 		.ascii	"double\000"
 2075      6C6500
 2076              	.LASF59:
 2077 0479 44656C61 		.ascii	"Delay\000"
 2077      7900
 2078              	.LASF42:
 2079 047f 48414C5F 		.ascii	"HAL_TICK_FREQ_DEFAULT\000"
ARM GAS  C:\Users\DEVELO~1\AppData\Local\Temp\ccltyUpz.s 			page 41


 2079      5449434B 
 2079      5F465245 
 2079      515F4445 
 2079      4641554C 
 2080              	.LASF29:
 2081 0495 41504234 		.ascii	"APB4FZ1\000"
 2081      465A3100 
 2082              	.LASF63:
 2083 049d 73744765 		.ascii	"stGetCounter\000"
 2083      74436F75 
 2083      6E746572 
 2083      00
 2084              		.ident	"GCC: (Arm GNU Toolchain 11.3.Rel1) 11.3.1 20220712"
ARM GAS  C:\Users\DEVELO~1\AppData\Local\Temp\ccltyUpz.s 			page 42


DEFINED SYMBOLS
                            *ABS*:00000000 stm32h7xx_hal_chibios.c
C:\Users\DEVELO~1\AppData\Local\Temp\ccltyUpz.s:18     .text.HAL_Init:00000000 $t
C:\Users\DEVELO~1\AppData\Local\Temp\ccltyUpz.s:25     .text.HAL_Init:00000000 HAL_Init
C:\Users\DEVELO~1\AppData\Local\Temp\ccltyUpz.s:41     .text.HAL_DeInit:00000000 $t
C:\Users\DEVELO~1\AppData\Local\Temp\ccltyUpz.s:48     .text.HAL_DeInit:00000000 HAL_DeInit
C:\Users\DEVELO~1\AppData\Local\Temp\ccltyUpz.s:60     .text.HAL_InitTick:00000000 $t
C:\Users\DEVELO~1\AppData\Local\Temp\ccltyUpz.s:67     .text.HAL_InitTick:00000000 HAL_InitTick
C:\Users\DEVELO~1\AppData\Local\Temp\ccltyUpz.s:86     .text.HAL_IncTick:00000000 $t
C:\Users\DEVELO~1\AppData\Local\Temp\ccltyUpz.s:93     .text.HAL_IncTick:00000000 HAL_IncTick
C:\Users\DEVELO~1\AppData\Local\Temp\ccltyUpz.s:108    .text.HAL_GetTick:00000000 $t
C:\Users\DEVELO~1\AppData\Local\Temp\ccltyUpz.s:115    .text.HAL_GetTick:00000000 HAL_GetTick
C:\Users\DEVELO~1\AppData\Local\Temp\ccltyUpz.s:171    .text.HAL_GetTick:00000028 $d
C:\Users\DEVELO~1\AppData\Local\Temp\ccltyUpz.s:176    .text.HAL_Delay:00000000 $t
C:\Users\DEVELO~1\AppData\Local\Temp\ccltyUpz.s:183    .text.HAL_Delay:00000000 HAL_Delay
C:\Users\DEVELO~1\AppData\Local\Temp\ccltyUpz.s:225    .text.HAL_SetTickFreq:00000000 $t
C:\Users\DEVELO~1\AppData\Local\Temp\ccltyUpz.s:232    .text.HAL_SetTickFreq:00000000 HAL_SetTickFreq
C:\Users\DEVELO~1\AppData\Local\Temp\ccltyUpz.s:256    .text.HAL_SetTickFreq:0000000c $d
C:\Users\DEVELO~1\AppData\Local\Temp\ccltyUpz.s:261    .text.HAL_GetTickFreq:00000000 $t
C:\Users\DEVELO~1\AppData\Local\Temp\ccltyUpz.s:268    .text.HAL_GetTickFreq:00000000 HAL_GetTickFreq
C:\Users\DEVELO~1\AppData\Local\Temp\ccltyUpz.s:284    .text.HAL_GetTickFreq:00000008 $d
C:\Users\DEVELO~1\AppData\Local\Temp\ccltyUpz.s:289    .text.HAL_GetTickPrio:00000000 $t
C:\Users\DEVELO~1\AppData\Local\Temp\ccltyUpz.s:296    .text.HAL_GetTickPrio:00000000 HAL_GetTickPrio
C:\Users\DEVELO~1\AppData\Local\Temp\ccltyUpz.s:312    .text.HAL_GetTickPrio:00000008 $d
C:\Users\DEVELO~1\AppData\Local\Temp\ccltyUpz.s:317    .text.HAL_GetHalVersion:00000000 $t
C:\Users\DEVELO~1\AppData\Local\Temp\ccltyUpz.s:324    .text.HAL_GetHalVersion:00000000 HAL_GetHalVersion
C:\Users\DEVELO~1\AppData\Local\Temp\ccltyUpz.s:338    .text.HAL_GetHalVersion:00000004 $d
C:\Users\DEVELO~1\AppData\Local\Temp\ccltyUpz.s:343    .text.HAL_GetREVID:00000000 $t
C:\Users\DEVELO~1\AppData\Local\Temp\ccltyUpz.s:350    .text.HAL_GetREVID:00000000 HAL_GetREVID
C:\Users\DEVELO~1\AppData\Local\Temp\ccltyUpz.s:367    .text.HAL_GetREVID:00000008 $d
C:\Users\DEVELO~1\AppData\Local\Temp\ccltyUpz.s:372    .text.HAL_GetDEVID:00000000 $t
C:\Users\DEVELO~1\AppData\Local\Temp\ccltyUpz.s:379    .text.HAL_GetDEVID:00000000 HAL_GetDEVID
C:\Users\DEVELO~1\AppData\Local\Temp\ccltyUpz.s:396    .text.HAL_GetDEVID:0000000c $d
C:\Users\DEVELO~1\AppData\Local\Temp\ccltyUpz.s:401    .text.HAL_GetUIDw0:00000000 $t
C:\Users\DEVELO~1\AppData\Local\Temp\ccltyUpz.s:408    .text.HAL_GetUIDw0:00000000 HAL_GetUIDw0
C:\Users\DEVELO~1\AppData\Local\Temp\ccltyUpz.s:424    .text.HAL_GetUIDw0:00000008 $d
C:\Users\DEVELO~1\AppData\Local\Temp\ccltyUpz.s:429    .text.HAL_GetUIDw1:00000000 $t
C:\Users\DEVELO~1\AppData\Local\Temp\ccltyUpz.s:436    .text.HAL_GetUIDw1:00000000 HAL_GetUIDw1
C:\Users\DEVELO~1\AppData\Local\Temp\ccltyUpz.s:452    .text.HAL_GetUIDw1:00000008 $d
C:\Users\DEVELO~1\AppData\Local\Temp\ccltyUpz.s:457    .text.HAL_GetUIDw2:00000000 $t
C:\Users\DEVELO~1\AppData\Local\Temp\ccltyUpz.s:464    .text.HAL_GetUIDw2:00000000 HAL_GetUIDw2
C:\Users\DEVELO~1\AppData\Local\Temp\ccltyUpz.s:480    .text.HAL_GetUIDw2:00000008 $d
C:\Users\DEVELO~1\AppData\Local\Temp\ccltyUpz.s:485    .text.HAL_RCCEx_GetPeriphCLKFreq:00000000 $t
C:\Users\DEVELO~1\AppData\Local\Temp\ccltyUpz.s:492    .text.HAL_RCCEx_GetPeriphCLKFreq:00000000 HAL_RCCEx_GetPeriphCLKFreq
C:\Users\DEVELO~1\AppData\Local\Temp\ccltyUpz.s:543    .text.HAL_RCCEx_GetPeriphCLKFreq:00000038 $d
C:\Users\DEVELO~1\AppData\Local\Temp\ccltyUpz.s:569    .data.uwTickFreq:00000000 uwTickFreq
C:\Users\DEVELO~1\AppData\Local\Temp\ccltyUpz.s:563    .bss.uwTickPrio:00000000 uwTickPrio
C:\Users\DEVELO~1\AppData\Local\Temp\ccltyUpz.s:556    .bss.uwTick:00000000 uwTick
C:\Users\DEVELO~1\AppData\Local\Temp\ccltyUpz.s:552    .bss.uwTick:00000000 $d
C:\Users\DEVELO~1\AppData\Local\Temp\ccltyUpz.s:559    .bss.uwTickPrio:00000000 $d

UNDEFINED SYMBOLS
__aeabi_uldivmod
__aeabi_ldivmod
stGetCounter
chThdSleep
