ARM GAS  C:\Users\DEVELO~1\AppData\Local\Temp\cccT88qa.s 			page 1


   1              		.cpu cortex-m7
   2              		.arch armv7e-m
   3              		.fpu softvfp
   4              		.eabi_attribute 20, 1
   5              		.eabi_attribute 21, 1
   6              		.eabi_attribute 23, 3
   7              		.eabi_attribute 24, 1
   8              		.eabi_attribute 25, 1
   9              		.eabi_attribute 26, 1
  10              		.eabi_attribute 30, 2
  11              		.eabi_attribute 34, 1
  12              		.eabi_attribute 18, 4
  13              		.file	"stm32_isr.c"
  14              		.text
  15              	.Ltext0:
  16              		.cfi_sections	.debug_frame
  17              		.section	.text.VectorD4,"ax",%progbits
  18              		.align	1
  19              		.p2align 4,,15
  20              		.global	VectorD4
  21              		.syntax unified
  22              		.thumb
  23              		.thumb_func
  24              		.type	VectorD4, %function
  25              	VectorD4:
  26              	.LFB470:
  27              		.file 1 "../../../os/hal/ports/STM32/LLD/USART/stm32_usart1.inc"
  28              		.loc 1 85 40 view -0
  29              		.cfi_startproc
  30              		@ args = 0, pretend = 0, frame = 0
  31              		@ frame_needed = 0, uses_anonymous_args = 0
  32              		.loc 1 87 3 view .LVU1
  33              		.loc 1 87 3 view .LVU2
  34              		.loc 1 87 3 view .LVU3
  35              		.loc 1 87 3 view .LVU4
  36              		.loc 1 87 3 view .LVU5
  37              		.loc 1 85 40 is_stmt 0 view .LVU6
  38 0000 10B5     		push	{r4, lr}
  39              		.cfi_def_cfa_offset 8
  40              		.cfi_offset 4, -8
  41              		.cfi_offset 14, -4
  42              		.loc 1 87 3 view .LVU7
  43 0002 074C     		ldr	r4, .L4
  44 0004 2046     		mov	r0, r4
  45 0006 FFF7FEFF 		bl	__trace_isr_enter
  46              	.LVL0:
  47              		.loc 1 87 22 is_stmt 1 view .LVU8
  48              		.loc 1 91 3 view .LVU9
  49 000a 0648     		ldr	r0, .L4+4
  50 000c FFF7FEFF 		bl	sd_lld_serve_interrupt
  51              	.LVL1:
  52              		.loc 1 107 3 view .LVU10
  53              		.loc 1 107 3 view .LVU11
  54 0010 2046     		mov	r0, r4
  55 0012 FFF7FEFF 		bl	__trace_isr_leave
  56              	.LVL2:
  57              		.loc 1 107 3 view .LVU12
ARM GAS  C:\Users\DEVELO~1\AppData\Local\Temp\cccT88qa.s 			page 2


  58              		.loc 1 107 3 view .LVU13
  59              		.loc 1 107 3 view .LVU14
  60              		.loc 1 108 1 is_stmt 0 view .LVU15
  61 0016 BDE81040 		pop	{r4, lr}
  62              		.cfi_restore 14
  63              		.cfi_restore 4
  64              		.cfi_def_cfa_offset 0
  65              		.loc 1 107 3 view .LVU16
  66 001a FFF7FEBF 		b	__port_irq_epilogue
  67              	.LVL3:
  68              	.L5:
  69 001e 00BF     		.align	2
  70              	.L4:
  71 0020 00000000 		.word	.LANCHOR0
  72 0024 00000000 		.word	SD1
  73              		.cfi_endproc
  74              	.LFE470:
  75              		.size	VectorD4, .-VectorD4
  76              		.section	.text.Vector114,"ax",%progbits
  77              		.align	1
  78              		.p2align 4,,15
  79              		.global	Vector114
  80              		.syntax unified
  81              		.thumb
  82              		.thumb_func
  83              		.type	Vector114, %function
  84              	Vector114:
  85              	.LFB479:
  86              		.file 2 "../../../os/hal/ports/STM32/LLD/USART/stm32_uart5.inc"
  87              		.loc 2 85 39 is_stmt 1 view -0
  88              		.cfi_startproc
  89              		@ args = 0, pretend = 0, frame = 0
  90              		@ frame_needed = 0, uses_anonymous_args = 0
  91              		.loc 2 87 3 view .LVU18
  92              		.loc 2 87 3 view .LVU19
  93              		.loc 2 87 3 view .LVU20
  94              		.loc 2 87 3 view .LVU21
  95              		.loc 2 87 3 view .LVU22
  96              		.loc 2 85 39 is_stmt 0 view .LVU23
  97 0000 10B5     		push	{r4, lr}
  98              		.cfi_def_cfa_offset 8
  99              		.cfi_offset 4, -8
 100              		.cfi_offset 14, -4
 101              		.loc 2 87 3 view .LVU24
 102 0002 074C     		ldr	r4, .L8
 103 0004 2046     		mov	r0, r4
 104 0006 FFF7FEFF 		bl	__trace_isr_enter
 105              	.LVL4:
 106              		.loc 2 87 22 is_stmt 1 view .LVU25
 107              		.loc 2 91 3 view .LVU26
 108 000a 0648     		ldr	r0, .L8+4
 109 000c FFF7FEFF 		bl	sd_lld_serve_interrupt
 110              	.LVL5:
 111              		.loc 2 107 3 view .LVU27
 112              		.loc 2 107 3 view .LVU28
 113 0010 2046     		mov	r0, r4
 114 0012 FFF7FEFF 		bl	__trace_isr_leave
ARM GAS  C:\Users\DEVELO~1\AppData\Local\Temp\cccT88qa.s 			page 3


 115              	.LVL6:
 116              		.loc 2 107 3 view .LVU29
 117              		.loc 2 107 3 view .LVU30
 118              		.loc 2 107 3 view .LVU31
 119              		.loc 2 108 1 is_stmt 0 view .LVU32
 120 0016 BDE81040 		pop	{r4, lr}
 121              		.cfi_restore 14
 122              		.cfi_restore 4
 123              		.cfi_def_cfa_offset 0
 124              		.loc 2 107 3 view .LVU33
 125 001a FFF7FEBF 		b	__port_irq_epilogue
 126              	.LVL7:
 127              	.L9:
 128 001e 00BF     		.align	2
 129              	.L8:
 130 0020 00000000 		.word	.LANCHOR1
 131 0024 00000000 		.word	SD5
 132              		.cfi_endproc
 133              	.LFE479:
 134              		.size	Vector114, .-Vector114
 135              		.section	.text.VectorB0,"ax",%progbits
 136              		.align	1
 137              		.p2align 4,,15
 138              		.global	VectorB0
 139              		.syntax unified
 140              		.thumb
 141              		.thumb_func
 142              		.type	VectorB0, %function
 143              	VectorB0:
 144              	.LFB496:
 145              		.file 3 "../../../os/hal/ports/STM32/LLD/TIMv1/stm32_tim2.inc"
 146              		.loc 3 100 38 is_stmt 1 view -0
 147              		.cfi_startproc
 148              		@ args = 0, pretend = 0, frame = 0
 149              		@ frame_needed = 0, uses_anonymous_args = 0
 150              		.loc 3 102 3 view .LVU35
 151              		.loc 3 102 3 view .LVU36
 152              		.loc 3 102 3 view .LVU37
 153              		.loc 3 102 3 view .LVU38
 154              		.loc 3 102 3 view .LVU39
 155              		.loc 3 100 38 is_stmt 0 view .LVU40
 156 0000 10B5     		push	{r4, lr}
 157              		.cfi_def_cfa_offset 8
 158              		.cfi_offset 4, -8
 159              		.cfi_offset 14, -4
 160              		.loc 3 102 3 view .LVU41
 161 0002 064C     		ldr	r4, .L12
 162 0004 2046     		mov	r0, r4
 163 0006 FFF7FEFF 		bl	__trace_isr_enter
 164              	.LVL8:
 165              		.loc 3 102 22 is_stmt 1 view .LVU42
 166              		.loc 3 121 3 view .LVU43
 167 000a FFF7FEFF 		bl	st_lld_serve_interrupt
 168              	.LVL9:
 169              		.loc 3 125 3 view .LVU44
 170              		.loc 3 125 3 view .LVU45
 171 000e 2046     		mov	r0, r4
ARM GAS  C:\Users\DEVELO~1\AppData\Local\Temp\cccT88qa.s 			page 4


 172 0010 FFF7FEFF 		bl	__trace_isr_leave
 173              	.LVL10:
 174              		.loc 3 125 3 view .LVU46
 175              		.loc 3 125 3 view .LVU47
 176              		.loc 3 125 3 view .LVU48
 177              		.loc 3 126 1 is_stmt 0 view .LVU49
 178 0014 BDE81040 		pop	{r4, lr}
 179              		.cfi_restore 14
 180              		.cfi_restore 4
 181              		.cfi_def_cfa_offset 0
 182              		.loc 3 125 3 view .LVU50
 183 0018 FFF7FEBF 		b	__port_irq_epilogue
 184              	.LVL11:
 185              	.L13:
 186              		.align	2
 187              	.L12:
 188 001c 00000000 		.word	.LANCHOR2
 189              		.cfi_endproc
 190              	.LFE496:
 191              		.size	VectorB0, .-VectorB0
 192              		.section	.text.irqInit,"ax",%progbits
 193              		.align	1
 194              		.p2align 4,,15
 195              		.global	irqInit
 196              		.syntax unified
 197              		.thumb
 198              		.thumb_func
 199              		.type	irqInit, %function
 200              	irqInit:
 201              	.LFB515:
 202              		.file 4 "../../../os/hal/ports/STM32/STM32H7xx/stm32_isr.c"
 203              		.loc 4 114 20 is_stmt 1 view -0
 204              		.cfi_startproc
 205              		@ args = 0, pretend = 0, frame = 0
 206              		@ frame_needed = 0, uses_anonymous_args = 0
 207              		.loc 4 116 3 view .LVU52
 208              		.loc 4 117 3 view .LVU53
 209              		.loc 4 118 3 view .LVU54
 210              		.loc 4 119 3 view .LVU55
 211              		.loc 4 120 3 view .LVU56
 212              		.loc 4 121 3 view .LVU57
 213              		.loc 4 122 3 view .LVU58
 214              		.loc 4 123 3 view .LVU59
 215              		.loc 4 124 3 view .LVU60
 216              		.loc 4 125 3 view .LVU61
 217              		.loc 4 126 3 view .LVU62
 218              		.loc 4 127 3 view .LVU63
 219              		.loc 4 129 3 view .LVU64
 220              		.loc 4 130 3 view .LVU65
 221              		.loc 4 131 3 view .LVU66
 222              		.loc 4 133 3 view .LVU67
 223              		.loc 4 114 20 is_stmt 0 view .LVU68
 224 0000 08B5     		push	{r3, lr}
 225              		.cfi_def_cfa_offset 8
 226              		.cfi_offset 3, -8
 227              		.cfi_offset 14, -4
 228              		.loc 4 133 3 view .LVU69
ARM GAS  C:\Users\DEVELO~1\AppData\Local\Temp\cccT88qa.s 			page 5


 229 0002 0921     		movs	r1, #9
 230 0004 7A20     		movs	r0, #122
 231 0006 FFF7FEFF 		bl	nvicEnableVector
 232              	.LVL12:
 233              		.loc 4 136 3 is_stmt 1 view .LVU70
 234              		.loc 4 142 3 view .LVU71
 235              		.loc 4 143 3 view .LVU72
 236              		.loc 4 145 3 view .LVU73
 237              		.loc 4 146 3 view .LVU74
 238              	.LBB162:
 239              	.LBI162:
 240              		.loc 3 78 20 view .LVU75
 241              	.LBB163:
 242              		.loc 3 80 3 view .LVU76
 243 000a 0721     		movs	r1, #7
 244 000c 1C20     		movs	r0, #28
 245 000e FFF7FEFF 		bl	nvicEnableVector
 246              	.LVL13:
 247              	.LBE163:
 248              	.LBE162:
 249              		.loc 4 147 3 view .LVU77
 250              		.loc 4 148 3 view .LVU78
 251              		.loc 4 149 3 view .LVU79
 252              		.loc 4 150 3 view .LVU80
 253              		.loc 4 151 3 view .LVU81
 254              		.loc 4 152 3 view .LVU82
 255              		.loc 4 153 3 view .LVU83
 256              		.loc 4 154 3 view .LVU84
 257              		.loc 4 155 3 view .LVU85
 258              		.loc 4 157 3 view .LVU86
 259              	.LBB164:
 260              	.LBI164:
 261              		.loc 1 63 20 view .LVU87
 262              	.LBB165:
 263              		.loc 1 65 3 view .LVU88
 264 0012 0C21     		movs	r1, #12
 265 0014 2520     		movs	r0, #37
 266 0016 FFF7FEFF 		bl	nvicEnableVector
 267              	.LVL14:
 268              	.LBE165:
 269              	.LBE164:
 270              		.loc 4 158 3 view .LVU89
 271              		.loc 4 159 3 view .LVU90
 272              		.loc 4 160 3 view .LVU91
 273              		.loc 4 161 3 view .LVU92
 274              	.LBB166:
 275              	.LBI166:
 276              		.loc 2 63 20 view .LVU93
 277              	.LBB167:
 278              		.loc 2 65 3 view .LVU94
 279 001a 0C21     		movs	r1, #12
 280 001c 3520     		movs	r0, #53
 281              	.LBE167:
 282              	.LBE166:
 283              		.loc 4 168 1 is_stmt 0 view .LVU95
 284 001e BDE80840 		pop	{r3, lr}
 285              		.cfi_restore 14
ARM GAS  C:\Users\DEVELO~1\AppData\Local\Temp\cccT88qa.s 			page 6


 286              		.cfi_restore 3
 287              		.cfi_def_cfa_offset 0
 288              	.LBB169:
 289              	.LBB168:
 290              		.loc 2 65 3 view .LVU96
 291 0022 FFF7FEBF 		b	nvicEnableVector
 292              	.LVL15:
 293              	.LBE168:
 294              	.LBE169:
 295              		.cfi_endproc
 296              	.LFE515:
 297              		.size	irqInit, .-irqInit
 298 0026 00BF     		.section	.text.irqDeinit,"ax",%progbits
 299              		.align	1
 300              		.p2align 4,,15
 301              		.global	irqDeinit
 302              		.syntax unified
 303              		.thumb
 304              		.thumb_func
 305              		.type	irqDeinit, %function
 306              	irqDeinit:
 307              	.LFB516:
 308              		.loc 4 175 22 is_stmt 1 view -0
 309              		.cfi_startproc
 310              		@ args = 0, pretend = 0, frame = 0
 311              		@ frame_needed = 0, uses_anonymous_args = 0
 312              		.loc 4 177 3 view .LVU98
 313              		.loc 4 178 3 view .LVU99
 314              		.loc 4 179 3 view .LVU100
 315              		.loc 4 180 3 view .LVU101
 316              		.loc 4 181 3 view .LVU102
 317              		.loc 4 182 3 view .LVU103
 318              		.loc 4 183 3 view .LVU104
 319              		.loc 4 184 3 view .LVU105
 320              		.loc 4 185 3 view .LVU106
 321              		.loc 4 186 3 view .LVU107
 322              		.loc 4 187 3 view .LVU108
 323              		.loc 4 188 3 view .LVU109
 324              		.loc 4 190 3 view .LVU110
 325              		.loc 4 191 3 view .LVU111
 326              		.loc 4 192 3 view .LVU112
 327              		.loc 4 194 3 view .LVU113
 328              		.loc 4 175 22 is_stmt 0 view .LVU114
 329 0000 08B5     		push	{r3, lr}
 330              		.cfi_def_cfa_offset 8
 331              		.cfi_offset 3, -8
 332              		.cfi_offset 14, -4
 333              		.loc 4 194 3 view .LVU115
 334 0002 7A20     		movs	r0, #122
 335 0004 FFF7FEFF 		bl	nvicDisableVector
 336              	.LVL16:
 337              		.loc 4 197 3 is_stmt 1 view .LVU116
 338              		.loc 4 203 3 view .LVU117
 339              		.loc 4 204 3 view .LVU118
 340              		.loc 4 206 3 view .LVU119
 341              		.loc 4 207 3 view .LVU120
 342              	.LBB170:
ARM GAS  C:\Users\DEVELO~1\AppData\Local\Temp\cccT88qa.s 			page 7


 343              	.LBI170:
 344              		.loc 3 84 20 view .LVU121
 345              	.LBB171:
 346              		.loc 3 86 3 view .LVU122
 347 0008 1C20     		movs	r0, #28
 348 000a FFF7FEFF 		bl	nvicDisableVector
 349              	.LVL17:
 350              	.LBE171:
 351              	.LBE170:
 352              		.loc 4 208 3 view .LVU123
 353              		.loc 4 209 3 view .LVU124
 354              		.loc 4 210 3 view .LVU125
 355              		.loc 4 211 3 view .LVU126
 356              		.loc 4 212 3 view .LVU127
 357              		.loc 4 213 3 view .LVU128
 358              		.loc 4 214 3 view .LVU129
 359              		.loc 4 215 3 view .LVU130
 360              		.loc 4 216 3 view .LVU131
 361              		.loc 4 218 3 view .LVU132
 362              	.LBB172:
 363              	.LBI172:
 364              		.loc 1 69 20 view .LVU133
 365              	.LBB173:
 366              		.loc 1 71 3 view .LVU134
 367 000e 2520     		movs	r0, #37
 368 0010 FFF7FEFF 		bl	nvicDisableVector
 369              	.LVL18:
 370              	.LBE173:
 371              	.LBE172:
 372              		.loc 4 219 3 view .LVU135
 373              		.loc 4 220 3 view .LVU136
 374              		.loc 4 221 3 view .LVU137
 375              		.loc 4 222 3 view .LVU138
 376              	.LBB174:
 377              	.LBI174:
 378              		.loc 2 69 20 view .LVU139
 379              	.LBB175:
 380              		.loc 2 71 3 view .LVU140
 381 0014 3520     		movs	r0, #53
 382              	.LBE175:
 383              	.LBE174:
 384              		.loc 4 229 1 is_stmt 0 view .LVU141
 385 0016 BDE80840 		pop	{r3, lr}
 386              		.cfi_restore 14
 387              		.cfi_restore 3
 388              		.cfi_def_cfa_offset 0
 389              	.LBB177:
 390              	.LBB176:
 391              		.loc 2 71 3 view .LVU142
 392 001a FFF7FEBF 		b	nvicDisableVector
 393              	.LVL19:
 394              	.LBE176:
 395              	.LBE177:
 396              		.cfi_endproc
 397              	.LFE516:
 398              		.size	irqDeinit, .-irqDeinit
 399 001e 00BF     		.section	.rodata.__func__.0,"a"
ARM GAS  C:\Users\DEVELO~1\AppData\Local\Temp\cccT88qa.s 			page 8


 400              		.align	2
 401              		.set	.LANCHOR2,. + 0
 402              		.type	__func__.0, %object
 403              		.size	__func__.0, 9
 404              	__func__.0:
 405 0000 56656374 		.ascii	"VectorB0\000"
 405      6F724230 
 405      00
 406              		.section	.rodata.__func__.1,"a"
 407              		.align	2
 408              		.set	.LANCHOR1,. + 0
 409              		.type	__func__.1, %object
 410              		.size	__func__.1, 10
 411              	__func__.1:
 412 0000 56656374 		.ascii	"Vector114\000"
 412      6F723131 
 412      3400
 413              		.section	.rodata.__func__.2,"a"
 414              		.align	2
 415              		.set	.LANCHOR0,. + 0
 416              		.type	__func__.2, %object
 417              		.size	__func__.2, 9
 418              	__func__.2:
 419 0000 56656374 		.ascii	"VectorD4\000"
 419      6F724434 
 419      00
 420              		.text
 421              	.Letext0:
 422              		.file 5 "c:\\chibistudio\\tools\\gnu tools arm embedded\\11.3 2022.08\\lib\\gcc\\arm-none-eabi\\11
 423              		.file 6 "c:\\chibistudio\\tools\\gnu tools arm embedded\\11.3 2022.08\\arm-none-eabi\\include\\mac
 424              		.file 7 "c:\\chibistudio\\tools\\gnu tools arm embedded\\11.3 2022.08\\arm-none-eabi\\include\\sys
 425              		.file 8 "../../../os/common/ports/ARM-common/chtypes.h"
 426              		.file 9 "../../../os/rt/include/chearly.h"
 427              		.file 10 "../../../os/rt/include/chobjects.h"
 428              		.file 11 "../../../os/rt/include/chrfcu.h"
 429              		.file 12 "../../../os/rt/include/chdebug.h"
 430              		.file 13 "../../../os/rt/include/chtime.h"
 431              		.file 14 "../../../os/rt/include/chlists.h"
 432              		.file 15 "../../../os/rt/include/chtrace.h"
 433              		.file 16 "../../../os/common/ext/ST/STM32H7xx/stm32h743xx.h"
 434              		.file 17 "../../../os/common/ports/ARMv7-M/chcore.h"
 435              		.file 18 "../../../os/rt/include/chsem.h"
 436              		.file 19 "../../../os/rt/include/chmtx.h"
 437              		.file 20 "../../../os/rt/include/chevents.h"
 438              		.file 21 "../../../os/hal/include/hal_queues.h"
 439              		.file 22 "../../../os/hal/include/hal_serial.h"
 440              		.file 23 "../../../os/hal/ports/STM32/LLD/USARTv3/hal_serial_lld.h"
 441              		.file 24 "../../../os/hal/ports/common/ARMCMx/nvic.h"
 442              		.file 25 "../../../os/hal/ports/STM32/LLD/SYSTICKv1/hal_st_lld.h"
 443              		.file 26 "../../../os/hal/ports/STM32/LLD/TIMv1/stm32_tim17.inc"
 444              		.file 27 "../../../os/hal/ports/STM32/LLD/TIMv1/stm32_tim16.inc"
 445              		.file 28 "../../../os/hal/ports/STM32/LLD/TIMv1/stm32_tim15.inc"
 446              		.file 29 "../../../os/hal/ports/STM32/LLD/TIMv1/stm32_tim8_12_13_14.inc"
 447              		.file 30 "../../../os/hal/ports/STM32/LLD/TIMv1/stm32_tim7.inc"
 448              		.file 31 "../../../os/hal/ports/STM32/LLD/TIMv1/stm32_tim6.inc"
 449              		.file 32 "../../../os/hal/ports/STM32/LLD/TIMv1/stm32_tim5.inc"
 450              		.file 33 "../../../os/hal/ports/STM32/LLD/TIMv1/stm32_tim4.inc"
ARM GAS  C:\Users\DEVELO~1\AppData\Local\Temp\cccT88qa.s 			page 9


 451              		.file 34 "../../../os/hal/ports/STM32/LLD/TIMv1/stm32_tim3.inc"
 452              		.file 35 "../../../os/hal/ports/STM32/LLD/TIMv1/stm32_tim1.inc"
 453              		.file 36 "../../../os/hal/ports/STM32/LLD/USART/stm32_lpuart1.inc"
 454              		.file 37 "../../../os/hal/ports/STM32/LLD/USART/stm32_usart10.inc"
 455              		.file 38 "../../../os/hal/ports/STM32/LLD/USART/stm32_uart9.inc"
 456              		.file 39 "../../../os/hal/ports/STM32/LLD/USART/stm32_uart8.inc"
 457              		.file 40 "../../../os/hal/ports/STM32/LLD/USART/stm32_uart7.inc"
 458              		.file 41 "../../../os/hal/ports/STM32/LLD/USART/stm32_usart6.inc"
 459              		.file 42 "../../../os/hal/ports/STM32/LLD/USART/stm32_uart4.inc"
 460              		.file 43 "../../../os/hal/ports/STM32/LLD/USART/stm32_usart3.inc"
 461              		.file 44 "../../../os/hal/ports/STM32/LLD/USART/stm32_usart2.inc"
 462              		.file 45 "../../../os/hal/ports/STM32/LLD/SDMMCv2/stm32_sdmmc2.inc"
 463              		.file 46 "../../../os/hal/ports/STM32/LLD/SDMMCv2/stm32_sdmmc1.inc"
 464              		.file 47 "../../../os/hal/ports/STM32/LLD/QUADSPIv2/stm32_quadspi1.inc"
 465              		.file 48 "../../../os/hal/ports/STM32/LLD/FDCANv2/stm32_fdcan3.inc"
 466              		.file 49 "../../../os/hal/ports/STM32/LLD/FDCANv2/stm32_fdcan2.inc"
 467              		.file 50 "../../../os/hal/ports/STM32/LLD/FDCANv2/stm32_fdcan1.inc"
 468              		.file 51 "../../../os/hal/ports/STM32/LLD/EXTIv1/stm32_exti20_21.inc"
 469              		.file 52 "../../../os/hal/ports/STM32/LLD/EXTIv1/stm32_exti19.inc"
 470              		.file 53 "../../../os/hal/ports/STM32/LLD/EXTIv1/stm32_exti18.inc"
 471              		.file 54 "../../../os/hal/ports/STM32/LLD/EXTIv1/stm32_exti17.inc"
 472              		.file 55 "../../../os/hal/ports/STM32/LLD/EXTIv1/stm32_exti16.inc"
 473              		.file 56 "../../../os/hal/ports/STM32/LLD/EXTIv1/stm32_exti10_15.inc"
 474              		.file 57 "../../../os/hal/ports/STM32/LLD/EXTIv1/stm32_exti5_9.inc"
 475              		.file 58 "../../../os/hal/ports/STM32/LLD/EXTIv1/stm32_exti4.inc"
 476              		.file 59 "../../../os/hal/ports/STM32/LLD/EXTIv1/stm32_exti3.inc"
 477              		.file 60 "../../../os/hal/ports/STM32/LLD/EXTIv1/stm32_exti2.inc"
 478              		.file 61 "../../../os/hal/ports/STM32/LLD/EXTIv1/stm32_exti1.inc"
 479              		.file 62 "../../../os/hal/ports/STM32/LLD/EXTIv1/stm32_exti0.inc"
 480              		.section	.debug_info,"",%progbits
 481              	.Ldebug_info0:
 482 0000 C6120000 		.4byte	0x12c6
 483 0004 0500     		.2byte	0x5
 484 0006 01       		.byte	0x1
 485 0007 04       		.byte	0x4
 486 0008 00000000 		.4byte	.Ldebug_abbrev0
 487 000c 26       		.uleb128 0x26
 488 000d D6090000 		.4byte	.LASF263
 489 0011 1D       		.byte	0x1d
 490 0012 31040000 		.4byte	.LASF264
 491 0016 BF020000 		.4byte	.LASF265
 492 001a 24000000 		.4byte	.LLRL2
 493 001e 00000000 		.4byte	0
 494 0022 00000000 		.4byte	.Ldebug_line0
 495 0026 27       		.uleb128 0x27
 496 0027 04       		.byte	0x4
 497 0028 05       		.byte	0x5
 498 0029 696E7400 		.ascii	"int\000"
 499 002d 03       		.uleb128 0x3
 500 002e 54050000 		.4byte	.LASF4
 501 0032 05       		.byte	0x5
 502 0033 D1       		.byte	0xd1
 503 0034 17       		.byte	0x17
 504 0035 3E000000 		.4byte	0x3e
 505 0039 14       		.uleb128 0x14
 506 003a 2D000000 		.4byte	0x2d
 507 003e 0B       		.uleb128 0xb
ARM GAS  C:\Users\DEVELO~1\AppData\Local\Temp\cccT88qa.s 			page 10


 508 003f 04       		.byte	0x4
 509 0040 07       		.byte	0x7
 510 0041 1B010000 		.4byte	.LASF0
 511 0045 0B       		.uleb128 0xb
 512 0046 08       		.byte	0x8
 513 0047 05       		.byte	0x5
 514 0048 94050000 		.4byte	.LASF1
 515 004c 0B       		.uleb128 0xb
 516 004d 08       		.byte	0x8
 517 004e 04       		.byte	0x4
 518 004f 53090000 		.4byte	.LASF2
 519 0053 0B       		.uleb128 0xb
 520 0054 01       		.byte	0x1
 521 0055 06       		.byte	0x6
 522 0056 0C0D0000 		.4byte	.LASF3
 523 005a 03       		.uleb128 0x3
 524 005b 340B0000 		.4byte	.LASF5
 525 005f 06       		.byte	0x6
 526 0060 2B       		.byte	0x2b
 527 0061 18       		.byte	0x18
 528 0062 66000000 		.4byte	0x66
 529 0066 0B       		.uleb128 0xb
 530 0067 01       		.byte	0x1
 531 0068 08       		.byte	0x8
 532 0069 6D0C0000 		.4byte	.LASF6
 533 006d 0B       		.uleb128 0xb
 534 006e 02       		.byte	0x2
 535 006f 05       		.byte	0x5
 536 0070 B30A0000 		.4byte	.LASF7
 537 0074 03       		.uleb128 0x3
 538 0075 A8040000 		.4byte	.LASF8
 539 0079 06       		.byte	0x6
 540 007a 39       		.byte	0x39
 541 007b 19       		.byte	0x19
 542 007c 80000000 		.4byte	0x80
 543 0080 0B       		.uleb128 0xb
 544 0081 02       		.byte	0x2
 545 0082 07       		.byte	0x7
 546 0083 40090000 		.4byte	.LASF9
 547 0087 03       		.uleb128 0x3
 548 0088 73010000 		.4byte	.LASF10
 549 008c 06       		.byte	0x6
 550 008d 4D       		.byte	0x4d
 551 008e 18       		.byte	0x18
 552 008f 93000000 		.4byte	0x93
 553 0093 0B       		.uleb128 0xb
 554 0094 04       		.byte	0x4
 555 0095 05       		.byte	0x5
 556 0096 12000000 		.4byte	.LASF11
 557 009a 03       		.uleb128 0x3
 558 009b 7B0C0000 		.4byte	.LASF12
 559 009f 06       		.byte	0x6
 560 00a0 4F       		.byte	0x4f
 561 00a1 19       		.byte	0x19
 562 00a2 A6000000 		.4byte	0xa6
 563 00a6 0B       		.uleb128 0xb
 564 00a7 04       		.byte	0x4
ARM GAS  C:\Users\DEVELO~1\AppData\Local\Temp\cccT88qa.s 			page 11


 565 00a8 07       		.byte	0x7
 566 00a9 A0080000 		.4byte	.LASF13
 567 00ad 03       		.uleb128 0x3
 568 00ae 05080000 		.4byte	.LASF14
 569 00b2 06       		.byte	0x6
 570 00b3 69       		.byte	0x69
 571 00b4 19       		.byte	0x19
 572 00b5 B9000000 		.4byte	0xb9
 573 00b9 0B       		.uleb128 0xb
 574 00ba 08       		.byte	0x8
 575 00bb 07       		.byte	0x7
 576 00bc 1A040000 		.4byte	.LASF15
 577 00c0 03       		.uleb128 0x3
 578 00c1 3B070000 		.4byte	.LASF16
 579 00c5 07       		.byte	0x7
 580 00c6 18       		.byte	0x18
 581 00c7 13       		.byte	0x13
 582 00c8 5A000000 		.4byte	0x5a
 583 00cc 0E       		.uleb128 0xe
 584 00cd C0000000 		.4byte	0xc0
 585 00d1 03       		.uleb128 0x3
 586 00d2 6F090000 		.4byte	.LASF17
 587 00d6 07       		.byte	0x7
 588 00d7 24       		.byte	0x24
 589 00d8 14       		.byte	0x14
 590 00d9 74000000 		.4byte	0x74
 591 00dd 03       		.uleb128 0x3
 592 00de E00B0000 		.4byte	.LASF18
 593 00e2 07       		.byte	0x7
 594 00e3 2C       		.byte	0x2c
 595 00e4 13       		.byte	0x13
 596 00e5 87000000 		.4byte	0x87
 597 00e9 03       		.uleb128 0x3
 598 00ea 3F010000 		.4byte	.LASF19
 599 00ee 07       		.byte	0x7
 600 00ef 30       		.byte	0x30
 601 00f0 14       		.byte	0x14
 602 00f1 9A000000 		.4byte	0x9a
 603 00f5 14       		.uleb128 0x14
 604 00f6 E9000000 		.4byte	0xe9
 605 00fa 03       		.uleb128 0x3
 606 00fb 250B0000 		.4byte	.LASF20
 607 00ff 07       		.byte	0x7
 608 0100 3C       		.byte	0x3c
 609 0101 14       		.byte	0x14
 610 0102 AD000000 		.4byte	0xad
 611 0106 14       		.uleb128 0x14
 612 0107 FA000000 		.4byte	0xfa
 613 010b 03       		.uleb128 0x3
 614 010c D00A0000 		.4byte	.LASF21
 615 0110 08       		.byte	0x8
 616 0111 48       		.byte	0x48
 617 0112 1D       		.byte	0x1d
 618 0113 FA000000 		.4byte	0xfa
 619 0117 03       		.uleb128 0x3
 620 0118 480D0000 		.4byte	.LASF22
 621 011c 09       		.byte	0x9
ARM GAS  C:\Users\DEVELO~1\AppData\Local\Temp\cccT88qa.s 			page 12


 622 011d 50       		.byte	0x50
 623 011e 19       		.byte	0x19
 624 011f 0B010000 		.4byte	0x10b
 625 0123 03       		.uleb128 0x3
 626 0124 1D090000 		.4byte	.LASF23
 627 0128 09       		.byte	0x9
 628 0129 53       		.byte	0x53
 629 012a 19       		.byte	0x19
 630 012b C0000000 		.4byte	0xc0
 631 012f 03       		.uleb128 0x3
 632 0130 BA060000 		.4byte	.LASF24
 633 0134 09       		.byte	0x9
 634 0135 54       		.byte	0x54
 635 0136 19       		.byte	0x19
 636 0137 C0000000 		.4byte	0xc0
 637 013b 03       		.uleb128 0x3
 638 013c 840B0000 		.4byte	.LASF25
 639 0140 09       		.byte	0x9
 640 0141 55       		.byte	0x55
 641 0142 19       		.byte	0x19
 642 0143 C0000000 		.4byte	0xc0
 643 0147 03       		.uleb128 0x3
 644 0148 CC030000 		.4byte	.LASF26
 645 014c 09       		.byte	0x9
 646 014d 57       		.byte	0x57
 647 014e 19       		.byte	0x19
 648 014f E9000000 		.4byte	0xe9
 649 0153 03       		.uleb128 0x3
 650 0154 ED070000 		.4byte	.LASF27
 651 0158 09       		.byte	0x9
 652 0159 58       		.byte	0x58
 653 015a 19       		.byte	0x19
 654 015b DD000000 		.4byte	0xdd
 655 015f 03       		.uleb128 0x3
 656 0160 75030000 		.4byte	.LASF28
 657 0164 09       		.byte	0x9
 658 0165 5A       		.byte	0x5a
 659 0166 19       		.byte	0x19
 660 0167 E9000000 		.4byte	0xe9
 661 016b 03       		.uleb128 0x3
 662 016c DB080000 		.4byte	.LASF29
 663 0170 09       		.byte	0x9
 664 0171 5B       		.byte	0x5b
 665 0172 19       		.byte	0x19
 666 0173 E9000000 		.4byte	0xe9
 667 0177 03       		.uleb128 0x3
 668 0178 B3040000 		.4byte	.LASF30
 669 017c 09       		.byte	0x9
 670 017d 5C       		.byte	0x5c
 671 017e 19       		.byte	0x19
 672 017f DD000000 		.4byte	0xdd
 673 0183 03       		.uleb128 0x3
 674 0184 E70D0000 		.4byte	.LASF31
 675 0188 09       		.byte	0x9
 676 0189 80       		.byte	0x80
 677 018a 12       		.byte	0x12
 678 018b 3E000000 		.4byte	0x3e
ARM GAS  C:\Users\DEVELO~1\AppData\Local\Temp\cccT88qa.s 			page 13


 679 018f 03       		.uleb128 0x3
 680 0190 32050000 		.4byte	.LASF32
 681 0194 09       		.byte	0x9
 682 0195 85       		.byte	0x85
 683 0196 1A       		.byte	0x1a
 684 0197 9B010000 		.4byte	0x19b
 685 019b 09       		.uleb128 0x9
 686 019c 67070000 		.4byte	.LASF47
 687 01a0 48       		.byte	0x48
 688 01a1 0A       		.byte	0xa
 689 01a2 9C       		.byte	0x9c
 690 01a3 08       		.byte	0x8
 691 01a4 7E020000 		.4byte	0x27e
 692 01a8 0A       		.uleb128 0xa
 693 01a9 68647200 		.ascii	"hdr\000"
 694 01ad 0A       		.byte	0xa
 695 01ae AD       		.byte	0xad
 696 01af 05       		.byte	0x5
 697 01b0 1C080000 		.4byte	0x81c
 698 01b4 00       		.byte	0
 699 01b5 0A       		.uleb128 0xa
 700 01b6 63747800 		.ascii	"ctx\000"
 701 01ba 0A       		.byte	0xa
 702 01bb B1       		.byte	0xb1
 703 01bc 21       		.byte	0x21
 704 01bd 60070000 		.4byte	0x760
 705 01c1 0C       		.byte	0xc
 706 01c2 02       		.uleb128 0x2
 707 01c3 E3060000 		.4byte	.LASF33
 708 01c7 0A       		.byte	0xa
 709 01c8 B6       		.byte	0xb6
 710 01c9 21       		.byte	0x21
 711 01ca CC030000 		.4byte	0x3cc
 712 01ce 10       		.byte	0x10
 713 01cf 02       		.uleb128 0x2
 714 01d0 E0040000 		.4byte	.LASF34
 715 01d4 0A       		.byte	0xa
 716 01d5 BB       		.byte	0xbb
 717 01d6 22       		.byte	0x22
 718 01d7 1E090000 		.4byte	0x91e
 719 01db 18       		.byte	0x18
 720 01dc 02       		.uleb128 0x2
 721 01dd 3A000000 		.4byte	.LASF35
 722 01e1 0A       		.byte	0xa
 723 01e2 C0       		.byte	0xc0
 724 01e3 22       		.byte	0x22
 725 01e4 66030000 		.4byte	0x366
 726 01e8 1C       		.byte	0x1c
 727 01e9 02       		.uleb128 0x2
 728 01ea AB060000 		.4byte	.LASF36
 729 01ee 0A       		.byte	0xa
 730 01ef C9       		.byte	0xc9
 731 01f0 22       		.byte	0x22
 732 01f1 23090000 		.4byte	0x923
 733 01f5 20       		.byte	0x20
 734 01f6 02       		.uleb128 0x2
 735 01f7 9F0C0000 		.4byte	.LASF37
ARM GAS  C:\Users\DEVELO~1\AppData\Local\Temp\cccT88qa.s 			page 14


 736 01fb 0A       		.byte	0xa
 737 01fc CE       		.byte	0xce
 738 01fd 21       		.byte	0x21
 739 01fe 2F010000 		.4byte	0x12f
 740 0202 24       		.byte	0x24
 741 0203 02       		.uleb128 0x2
 742 0204 82000000 		.4byte	.LASF38
 743 0208 0A       		.byte	0xa
 744 0209 D2       		.byte	0xd2
 745 020a 21       		.byte	0x21
 746 020b 23010000 		.4byte	0x123
 747 020f 25       		.byte	0x25
 748 0210 02       		.uleb128 0x2
 749 0211 7D010000 		.4byte	.LASF39
 750 0215 0A       		.byte	0xa
 751 0216 D7       		.byte	0xd7
 752 0217 21       		.byte	0x21
 753 0218 3B010000 		.4byte	0x13b
 754 021c 26       		.byte	0x26
 755 021d 07       		.uleb128 0x7
 756 021e 7500     		.ascii	"u\000"
 757 0220 0A       		.byte	0xa
 758 0221 2801     		.2byte	0x128
 759 0223 21       		.byte	0x21
 760 0224 49080000 		.4byte	0x849
 761 0228 28       		.byte	0x28
 762 0229 06       		.uleb128 0x6
 763 022a 860C0000 		.4byte	.LASF40
 764 022e 0A       		.byte	0xa
 765 022f 2D01     		.2byte	0x12d
 766 0231 21       		.byte	0x21
 767 0232 A0030000 		.4byte	0x3a0
 768 0236 2C       		.byte	0x2c
 769 0237 06       		.uleb128 0x6
 770 0238 D4030000 		.4byte	.LASF41
 771 023c 0A       		.byte	0xa
 772 023d 3301     		.2byte	0x133
 773 023f 21       		.byte	0x21
 774 0240 CC030000 		.4byte	0x3cc
 775 0244 30       		.byte	0x30
 776 0245 06       		.uleb128 0x6
 777 0246 12010000 		.4byte	.LASF42
 778 024a 0A       		.byte	0xa
 779 024b 3901     		.2byte	0x139
 780 024d 21       		.byte	0x21
 781 024e 5F010000 		.4byte	0x15f
 782 0252 38       		.byte	0x38
 783 0253 06       		.uleb128 0x6
 784 0254 05050000 		.4byte	.LASF43
 785 0258 0A       		.byte	0xa
 786 0259 4001     		.2byte	0x140
 787 025b 22       		.byte	0x22
 788 025c 19090000 		.4byte	0x919
 789 0260 3C       		.byte	0x3c
 790 0261 06       		.uleb128 0x6
 791 0262 A9000000 		.4byte	.LASF44
 792 0266 0A       		.byte	0xa
ARM GAS  C:\Users\DEVELO~1\AppData\Local\Temp\cccT88qa.s 			page 15


 793 0267 4401     		.2byte	0x144
 794 0269 21       		.byte	0x21
 795 026a 47010000 		.4byte	0x147
 796 026e 40       		.byte	0x40
 797 026f 06       		.uleb128 0x6
 798 0270 FA0D0000 		.4byte	.LASF45
 799 0274 0A       		.byte	0xa
 800 0275 4B01     		.2byte	0x14b
 801 0277 22       		.byte	0x22
 802 0278 B9040000 		.4byte	0x4b9
 803 027c 44       		.byte	0x44
 804 027d 00       		.byte	0
 805 027e 03       		.uleb128 0x3
 806 027f A50C0000 		.4byte	.LASF46
 807 0283 09       		.byte	0x9
 808 0284 8A       		.byte	0x8a
 809 0285 1F       		.byte	0x1f
 810 0286 8A020000 		.4byte	0x28a
 811 028a 28       		.uleb128 0x28
 812 028b DA050000 		.4byte	.LASF48
 813 028f 9008     		.2byte	0x890
 814 0291 0A       		.byte	0xa
 815 0292 8A01     		.2byte	0x18a
 816 0294 08       		.byte	0x8
 817 0295 18030000 		.4byte	0x318
 818 0299 06       		.uleb128 0x6
 819 029a 2E0B0000 		.4byte	.LASF49
 820 029e 0A       		.byte	0xa
 821 029f 8E01     		.2byte	0x18e
 822 02a1 21       		.byte	0x21
 823 02a2 53090000 		.4byte	0x953
 824 02a6 00       		.byte	0
 825 02a7 06       		.uleb128 0x6
 826 02a8 C9010000 		.4byte	.LASF50
 827 02ac 0A       		.byte	0xa
 828 02ad 9201     		.2byte	0x192
 829 02af 21       		.byte	0x21
 830 02b0 B6070000 		.4byte	0x7b6
 831 02b4 10       		.byte	0x10
 832 02b5 06       		.uleb128 0x6
 833 02b6 C20C0000 		.4byte	.LASF51
 834 02ba 0A       		.byte	0xa
 835 02bb 9901     		.2byte	0x199
 836 02bd 21       		.byte	0x21
 837 02be DD070000 		.4byte	0x7dd
 838 02c2 28       		.byte	0x28
 839 02c3 06       		.uleb128 0x6
 840 02c4 BA0D0000 		.4byte	.LASF52
 841 02c8 0A       		.byte	0xa
 842 02c9 9E01     		.2byte	0x19e
 843 02cb 21       		.byte	0x21
 844 02cc 83010000 		.4byte	0x183
 845 02d0 30       		.byte	0x30
 846 02d1 06       		.uleb128 0x6
 847 02d2 2D050000 		.4byte	.LASF53
 848 02d6 0A       		.byte	0xa
 849 02d7 A401     		.2byte	0x1a4
ARM GAS  C:\Users\DEVELO~1\AppData\Local\Temp\cccT88qa.s 			page 16


 850 02d9 21       		.byte	0x21
 851 02da 3F030000 		.4byte	0x33f
 852 02de 34       		.byte	0x34
 853 02df 06       		.uleb128 0x6
 854 02e0 C0090000 		.4byte	.LASF54
 855 02e4 0A       		.byte	0xa
 856 02e5 A901     		.2byte	0x1a9
 857 02e7 22       		.byte	0x22
 858 02e8 C5090000 		.4byte	0x9c5
 859 02ec 38       		.byte	0x38
 860 02ed 06       		.uleb128 0x6
 861 02ee 35090000 		.4byte	.LASF55
 862 02f2 0A       		.byte	0xa
 863 02f3 AD01     		.2byte	0x1ad
 864 02f5 21       		.byte	0x21
 865 02f6 8F010000 		.4byte	0x18f
 866 02fa 3C       		.byte	0x3c
 867 02fb 07       		.uleb128 0x7
 868 02fc 64626700 		.ascii	"dbg\000"
 869 0300 0A       		.byte	0xa
 870 0301 B101     		.2byte	0x1b1
 871 0303 21       		.byte	0x21
 872 0304 7C030000 		.4byte	0x37c
 873 0308 84       		.byte	0x84
 874 0309 06       		.uleb128 0x6
 875 030a EF0B0000 		.4byte	.LASF56
 876 030e 0A       		.byte	0xa
 877 030f B601     		.2byte	0x1b6
 878 0311 21       		.byte	0x21
 879 0312 0F060000 		.4byte	0x60f
 880 0316 88       		.byte	0x88
 881 0317 00       		.byte	0
 882 0318 03       		.uleb128 0x3
 883 0319 8F060000 		.4byte	.LASF57
 884 031d 0B       		.byte	0xb
 885 031e 3F       		.byte	0x3f
 886 031f 12       		.byte	0x12
 887 0320 E9000000 		.4byte	0xe9
 888 0324 09       		.uleb128 0x9
 889 0325 B4050000 		.4byte	.LASF58
 890 0329 04       		.byte	0x4
 891 032a 0B       		.byte	0xb
 892 032b 44       		.byte	0x44
 893 032c 10       		.byte	0x10
 894 032d 3F030000 		.4byte	0x33f
 895 0331 02       		.uleb128 0x2
 896 0332 9B080000 		.4byte	.LASF59
 897 0336 0B       		.byte	0xb
 898 0337 48       		.byte	0x48
 899 0338 21       		.byte	0x21
 900 0339 18030000 		.4byte	0x318
 901 033d 00       		.byte	0
 902 033e 00       		.byte	0
 903 033f 03       		.uleb128 0x3
 904 0340 E80B0000 		.4byte	.LASF60
 905 0344 0B       		.byte	0xb
 906 0345 49       		.byte	0x49
ARM GAS  C:\Users\DEVELO~1\AppData\Local\Temp\cccT88qa.s 			page 17


 907 0346 03       		.byte	0x3
 908 0347 24030000 		.4byte	0x324
 909 034b 09       		.uleb128 0x9
 910 034c AA020000 		.4byte	.LASF61
 911 0350 04       		.byte	0x4
 912 0351 0C       		.byte	0xc
 913 0352 3E       		.byte	0x3e
 914 0353 10       		.byte	0x10
 915 0354 66030000 		.4byte	0x366
 916 0358 02       		.uleb128 0x2
 917 0359 E8080000 		.4byte	.LASF62
 918 035d 0C       		.byte	0xc
 919 035e 46       		.byte	0x46
 920 035f 24       		.byte	0x24
 921 0360 6B030000 		.4byte	0x36b
 922 0364 00       		.byte	0
 923 0365 00       		.byte	0
 924 0366 04       		.uleb128 0x4
 925 0367 77030000 		.4byte	0x377
 926 036b 14       		.uleb128 0x14
 927 036c 66030000 		.4byte	0x366
 928 0370 0B       		.uleb128 0xb
 929 0371 01       		.byte	0x1
 930 0372 08       		.byte	0x8
 931 0373 7A060000 		.4byte	.LASF63
 932 0377 0E       		.uleb128 0xe
 933 0378 70030000 		.4byte	0x370
 934 037c 03       		.uleb128 0x3
 935 037d 85070000 		.4byte	.LASF64
 936 0381 0C       		.byte	0xc
 937 0382 51       		.byte	0x51
 938 0383 03       		.byte	0x3
 939 0384 4B030000 		.4byte	0x34b
 940 0388 03       		.uleb128 0x3
 941 0389 88000000 		.4byte	.LASF65
 942 038d 0D       		.byte	0xd
 943 038e 6D       		.byte	0x6d
 944 038f 12       		.byte	0x12
 945 0390 E9000000 		.4byte	0xe9
 946 0394 03       		.uleb128 0x3
 947 0395 C2080000 		.4byte	.LASF66
 948 0399 0D       		.byte	0xd
 949 039a 79       		.byte	0x79
 950 039b 12       		.byte	0x12
 951 039c E9000000 		.4byte	0xe9
 952 03a0 03       		.uleb128 0x3
 953 03a1 8F090000 		.4byte	.LASF67
 954 03a5 0E       		.byte	0xe
 955 03a6 32       		.byte	0x32
 956 03a7 18       		.byte	0x18
 957 03a8 AC030000 		.4byte	0x3ac
 958 03ac 09       		.uleb128 0x9
 959 03ad 2D030000 		.4byte	.LASF68
 960 03b1 04       		.byte	0x4
 961 03b2 0E       		.byte	0xe
 962 03b3 38       		.byte	0x38
 963 03b4 08       		.byte	0x8
ARM GAS  C:\Users\DEVELO~1\AppData\Local\Temp\cccT88qa.s 			page 18


 964 03b5 C7030000 		.4byte	0x3c7
 965 03b9 02       		.uleb128 0x2
 966 03ba 28010000 		.4byte	.LASF69
 967 03be 0E       		.byte	0xe
 968 03bf 39       		.byte	0x39
 969 03c0 1A       		.byte	0x1a
 970 03c1 C7030000 		.4byte	0x3c7
 971 03c5 00       		.byte	0
 972 03c6 00       		.byte	0
 973 03c7 04       		.uleb128 0x4
 974 03c8 A0030000 		.4byte	0x3a0
 975 03cc 03       		.uleb128 0x3
 976 03cd D0080000 		.4byte	.LASF70
 977 03d1 0E       		.byte	0xe
 978 03d2 3F       		.byte	0x3f
 979 03d3 19       		.byte	0x19
 980 03d4 D8030000 		.4byte	0x3d8
 981 03d8 09       		.uleb128 0x9
 982 03d9 350C0000 		.4byte	.LASF71
 983 03dd 08       		.byte	0x8
 984 03de 0E       		.byte	0xe
 985 03df 45       		.byte	0x45
 986 03e0 08       		.byte	0x8
 987 03e1 00040000 		.4byte	0x400
 988 03e5 02       		.uleb128 0x2
 989 03e6 28010000 		.4byte	.LASF69
 990 03ea 0E       		.byte	0xe
 991 03eb 46       		.byte	0x46
 992 03ec 1A       		.byte	0x1a
 993 03ed 00040000 		.4byte	0x400
 994 03f1 00       		.byte	0
 995 03f2 02       		.uleb128 0x2
 996 03f3 34020000 		.4byte	.LASF72
 997 03f7 0E       		.byte	0xe
 998 03f8 47       		.byte	0x47
 999 03f9 1A       		.byte	0x1a
 1000 03fa 00040000 		.4byte	0x400
 1001 03fe 04       		.byte	0x4
 1002 03ff 00       		.byte	0
 1003 0400 04       		.uleb128 0x4
 1004 0401 CC030000 		.4byte	0x3cc
 1005 0405 03       		.uleb128 0x3
 1006 0406 62050000 		.4byte	.LASF73
 1007 040a 0E       		.byte	0xe
 1008 040b 4E       		.byte	0x4e
 1009 040c 22       		.byte	0x22
 1010 040d 11040000 		.4byte	0x411
 1011 0411 09       		.uleb128 0x9
 1012 0412 030C0000 		.4byte	.LASF74
 1013 0416 0C       		.byte	0xc
 1014 0417 0E       		.byte	0xe
 1015 0418 55       		.byte	0x55
 1016 0419 08       		.byte	0x8
 1017 041a 46040000 		.4byte	0x446
 1018 041e 02       		.uleb128 0x2
 1019 041f 28010000 		.4byte	.LASF69
 1020 0423 0E       		.byte	0xe
ARM GAS  C:\Users\DEVELO~1\AppData\Local\Temp\cccT88qa.s 			page 19


 1021 0424 56       		.byte	0x56
 1022 0425 1A       		.byte	0x1a
 1023 0426 46040000 		.4byte	0x446
 1024 042a 00       		.byte	0
 1025 042b 02       		.uleb128 0x2
 1026 042c 34020000 		.4byte	.LASF72
 1027 0430 0E       		.byte	0xe
 1028 0431 57       		.byte	0x57
 1029 0432 1A       		.byte	0x1a
 1030 0433 46040000 		.4byte	0x446
 1031 0437 04       		.byte	0x4
 1032 0438 02       		.uleb128 0x2
 1033 0439 52060000 		.4byte	.LASF75
 1034 043d 0E       		.byte	0xe
 1035 043e 58       		.byte	0x58
 1036 043f 19       		.byte	0x19
 1037 0440 47010000 		.4byte	0x147
 1038 0444 08       		.byte	0x8
 1039 0445 00       		.byte	0
 1040 0446 04       		.uleb128 0x4
 1041 0447 05040000 		.4byte	0x405
 1042 044b 03       		.uleb128 0x3
 1043 044c 7F060000 		.4byte	.LASF76
 1044 0450 0E       		.byte	0xe
 1045 0451 5F       		.byte	0x5f
 1046 0452 1E       		.byte	0x1e
 1047 0453 57040000 		.4byte	0x457
 1048 0457 09       		.uleb128 0x9
 1049 0458 35030000 		.4byte	.LASF77
 1050 045c 0C       		.byte	0xc
 1051 045d 0E       		.byte	0xe
 1052 045e 64       		.byte	0x64
 1053 045f 08       		.byte	0x8
 1054 0460 8C040000 		.4byte	0x48c
 1055 0464 02       		.uleb128 0x2
 1056 0465 28010000 		.4byte	.LASF69
 1057 0469 0E       		.byte	0xe
 1058 046a 65       		.byte	0x65
 1059 046b 1A       		.byte	0x1a
 1060 046c 8C040000 		.4byte	0x48c
 1061 0470 00       		.byte	0
 1062 0471 02       		.uleb128 0x2
 1063 0472 34020000 		.4byte	.LASF72
 1064 0476 0E       		.byte	0xe
 1065 0477 66       		.byte	0x66
 1066 0478 1A       		.byte	0x1a
 1067 0479 8C040000 		.4byte	0x48c
 1068 047d 04       		.byte	0x4
 1069 047e 02       		.uleb128 0x2
 1070 047f 290D0000 		.4byte	.LASF78
 1071 0483 0E       		.byte	0xe
 1072 0484 67       		.byte	0x67
 1073 0485 19       		.byte	0x19
 1074 0486 94030000 		.4byte	0x394
 1075 048a 08       		.byte	0x8
 1076 048b 00       		.byte	0
 1077 048c 04       		.uleb128 0x4
ARM GAS  C:\Users\DEVELO~1\AppData\Local\Temp\cccT88qa.s 			page 20


 1078 048d 4B040000 		.4byte	0x44b
 1079 0491 0F       		.uleb128 0xf
 1080 0492 08       		.byte	0x8
 1081 0493 83       		.byte	0x83
 1082 0494 05       		.byte	0x5
 1083 0495 B4040000 		.4byte	0x4b4
 1084 0499 0A       		.uleb128 0xa
 1085 049a 6E747000 		.ascii	"ntp\000"
 1086 049e 0F       		.byte	0xf
 1087 049f 87       		.byte	0x87
 1088 04a0 1E       		.byte	0x1e
 1089 04a1 B4040000 		.4byte	0x4b4
 1090 04a5 00       		.byte	0
 1091 04a6 02       		.uleb128 0x2
 1092 04a7 B2010000 		.4byte	.LASF79
 1093 04ab 0F       		.byte	0xf
 1094 04ac 8B       		.byte	0x8b
 1095 04ad 1E       		.byte	0x1e
 1096 04ae B9040000 		.4byte	0x4b9
 1097 04b2 04       		.byte	0x4
 1098 04b3 00       		.byte	0
 1099 04b4 04       		.uleb128 0x4
 1100 04b5 8F010000 		.4byte	0x18f
 1101 04b9 29       		.uleb128 0x29
 1102 04ba 04       		.byte	0x4
 1103 04bb 0F       		.uleb128 0xf
 1104 04bc 08       		.byte	0x8
 1105 04bd 90       		.byte	0x90
 1106 04be 05       		.byte	0x5
 1107 04bf DD040000 		.4byte	0x4dd
 1108 04c3 0A       		.uleb128 0xa
 1109 04c4 747000   		.ascii	"tp\000"
 1110 04c7 0F       		.byte	0xf
 1111 04c8 94       		.byte	0x94
 1112 04c9 1E       		.byte	0x1e
 1113 04ca B4040000 		.4byte	0x4b4
 1114 04ce 00       		.byte	0
 1115 04cf 0A       		.uleb128 0xa
 1116 04d0 6D736700 		.ascii	"msg\000"
 1117 04d4 0F       		.byte	0xf
 1118 04d5 98       		.byte	0x98
 1119 04d6 1D       		.byte	0x1d
 1120 04d7 53010000 		.4byte	0x153
 1121 04db 04       		.byte	0x4
 1122 04dc 00       		.byte	0
 1123 04dd 0F       		.uleb128 0xf
 1124 04de 04       		.byte	0x4
 1125 04df 9D       		.byte	0x9d
 1126 04e0 05       		.byte	0x5
 1127 04e1 F3040000 		.4byte	0x4f3
 1128 04e5 02       		.uleb128 0x2
 1129 04e6 3A000000 		.4byte	.LASF35
 1130 04ea 0F       		.byte	0xf
 1131 04eb A1       		.byte	0xa1
 1132 04ec 1E       		.byte	0x1e
 1133 04ed 66030000 		.4byte	0x366
 1134 04f1 00       		.byte	0
ARM GAS  C:\Users\DEVELO~1\AppData\Local\Temp\cccT88qa.s 			page 21


 1135 04f2 00       		.byte	0
 1136 04f3 0F       		.uleb128 0xf
 1137 04f4 04       		.byte	0x4
 1138 04f5 A6       		.byte	0xa6
 1139 04f6 05       		.byte	0x5
 1140 04f7 09050000 		.4byte	0x509
 1141 04fb 02       		.uleb128 0x2
 1142 04fc 71040000 		.4byte	.LASF80
 1143 0500 0F       		.byte	0xf
 1144 0501 AA       		.byte	0xaa
 1145 0502 1E       		.byte	0x1e
 1146 0503 66030000 		.4byte	0x366
 1147 0507 00       		.byte	0
 1148 0508 00       		.byte	0
 1149 0509 0F       		.uleb128 0xf
 1150 050a 08       		.byte	0x8
 1151 050b AF       		.byte	0xaf
 1152 050c 05       		.byte	0x5
 1153 050d 2C050000 		.4byte	0x52c
 1154 0511 0A       		.uleb128 0xa
 1155 0512 75703100 		.ascii	"up1\000"
 1156 0516 0F       		.byte	0xf
 1157 0517 B3       		.byte	0xb3
 1158 0518 1E       		.byte	0x1e
 1159 0519 B9040000 		.4byte	0x4b9
 1160 051d 00       		.byte	0
 1161 051e 0A       		.uleb128 0xa
 1162 051f 75703200 		.ascii	"up2\000"
 1163 0523 0F       		.byte	0xf
 1164 0524 B7       		.byte	0xb7
 1165 0525 1E       		.byte	0x1e
 1166 0526 B9040000 		.4byte	0x4b9
 1167 052a 04       		.byte	0x4
 1168 052b 00       		.byte	0
 1169 052c 18       		.uleb128 0x18
 1170 052d 08       		.byte	0x8
 1171 052e 0F       		.byte	0xf
 1172 052f 7F       		.byte	0x7f
 1173 0530 6A050000 		.4byte	0x56a
 1174 0534 19       		.uleb128 0x19
 1175 0535 737700   		.ascii	"sw\000"
 1176 0538 8C       		.byte	0x8c
 1177 0539 91040000 		.4byte	0x491
 1178 053d 19       		.uleb128 0x19
 1179 053e 72647900 		.ascii	"rdy\000"
 1180 0542 99       		.byte	0x99
 1181 0543 BB040000 		.4byte	0x4bb
 1182 0547 19       		.uleb128 0x19
 1183 0548 69737200 		.ascii	"isr\000"
 1184 054c A2       		.byte	0xa2
 1185 054d DD040000 		.4byte	0x4dd
 1186 0551 0D       		.uleb128 0xd
 1187 0552 05040000 		.4byte	.LASF81
 1188 0556 0F       		.byte	0xf
 1189 0557 AB       		.byte	0xab
 1190 0558 07       		.byte	0x7
 1191 0559 F3040000 		.4byte	0x4f3
ARM GAS  C:\Users\DEVELO~1\AppData\Local\Temp\cccT88qa.s 			page 22


 1192 055d 0D       		.uleb128 0xd
 1193 055e 4A050000 		.4byte	.LASF82
 1194 0562 0F       		.byte	0xf
 1195 0563 B8       		.byte	0xb8
 1196 0564 07       		.byte	0x7
 1197 0565 09050000 		.4byte	0x509
 1198 0569 00       		.byte	0
 1199 056a 0F       		.uleb128 0xf
 1200 056b 10       		.byte	0x10
 1201 056c 6C       		.byte	0x6c
 1202 056d 09       		.byte	0x9
 1203 056e AF050000 		.4byte	0x5af
 1204 0572 1A       		.uleb128 0x1a
 1205 0573 580C0000 		.4byte	.LASF83
 1206 0577 70       		.byte	0x70
 1207 0578 E9000000 		.4byte	0xe9
 1208 057c 03       		.byte	0x3
 1209 057d 00       		.byte	0
 1210 057e 1A       		.uleb128 0x1a
 1211 057f 9F0C0000 		.4byte	.LASF37
 1212 0583 74       		.byte	0x74
 1213 0584 E9000000 		.4byte	0xe9
 1214 0588 05       		.byte	0x5
 1215 0589 03       		.byte	0x3
 1216 058a 1A       		.uleb128 0x1a
 1217 058b D20B0000 		.4byte	.LASF84
 1218 058f 7A       		.byte	0x7a
 1219 0590 E9000000 		.4byte	0xe9
 1220 0594 18       		.byte	0x18
 1221 0595 08       		.byte	0x8
 1222 0596 02       		.uleb128 0x2
 1223 0597 DB040000 		.4byte	.LASF85
 1224 059b 0F       		.byte	0xf
 1225 059c 7E       		.byte	0x7e
 1226 059d 19       		.byte	0x19
 1227 059e 88030000 		.4byte	0x388
 1228 05a2 04       		.byte	0x4
 1229 05a3 0A       		.uleb128 0xa
 1230 05a4 7500     		.ascii	"u\000"
 1231 05a6 0F       		.byte	0xf
 1232 05a7 B9       		.byte	0xb9
 1233 05a8 05       		.byte	0x5
 1234 05a9 2C050000 		.4byte	0x52c
 1235 05ad 08       		.byte	0x8
 1236 05ae 00       		.byte	0
 1237 05af 03       		.uleb128 0x3
 1238 05b0 90030000 		.4byte	.LASF86
 1239 05b4 0F       		.byte	0xf
 1240 05b5 BA       		.byte	0xba
 1241 05b6 03       		.byte	0x3
 1242 05b7 6A050000 		.4byte	0x56a
 1243 05bb 2A       		.uleb128 0x2a
 1244 05bc 0808     		.2byte	0x808
 1245 05be 0F       		.byte	0xf
 1246 05bf C0       		.byte	0xc0
 1247 05c0 09       		.byte	0x9
 1248 05c1 FA050000 		.4byte	0x5fa
ARM GAS  C:\Users\DEVELO~1\AppData\Local\Temp\cccT88qa.s 			page 23


 1249 05c5 02       		.uleb128 0x2
 1250 05c6 B9000000 		.4byte	.LASF87
 1251 05ca 0F       		.byte	0xf
 1252 05cb C4       		.byte	0xc4
 1253 05cc 19       		.byte	0x19
 1254 05cd D1000000 		.4byte	0xd1
 1255 05d1 00       		.byte	0
 1256 05d2 02       		.uleb128 0x2
 1257 05d3 71080000 		.4byte	.LASF88
 1258 05d7 0F       		.byte	0xf
 1259 05d8 C8       		.byte	0xc8
 1260 05d9 19       		.byte	0x19
 1261 05da D1000000 		.4byte	0xd1
 1262 05de 02       		.byte	0x2
 1263 05df 0A       		.uleb128 0xa
 1264 05e0 70747200 		.ascii	"ptr\000"
 1265 05e4 0F       		.byte	0xf
 1266 05e5 CC       		.byte	0xcc
 1267 05e6 1A       		.byte	0x1a
 1268 05e7 FA050000 		.4byte	0x5fa
 1269 05eb 04       		.byte	0x4
 1270 05ec 02       		.uleb128 0x2
 1271 05ed B2000000 		.4byte	.LASF89
 1272 05f1 0F       		.byte	0xf
 1273 05f2 D0       		.byte	0xd0
 1274 05f3 19       		.byte	0x19
 1275 05f4 FF050000 		.4byte	0x5ff
 1276 05f8 08       		.byte	0x8
 1277 05f9 00       		.byte	0
 1278 05fa 04       		.uleb128 0x4
 1279 05fb AF050000 		.4byte	0x5af
 1280 05ff 1B       		.uleb128 0x1b
 1281 0600 AF050000 		.4byte	0x5af
 1282 0604 0F060000 		.4byte	0x60f
 1283 0608 1C       		.uleb128 0x1c
 1284 0609 3E000000 		.4byte	0x3e
 1285 060d 7F       		.byte	0x7f
 1286 060e 00       		.byte	0
 1287 060f 03       		.uleb128 0x3
 1288 0610 F2080000 		.4byte	.LASF90
 1289 0614 0F       		.byte	0xf
 1290 0615 D1       		.byte	0xd1
 1291 0616 03       		.byte	0x3
 1292 0617 BB050000 		.4byte	0x5bb
 1293 061b 2B       		.uleb128 0x2b
 1294 061c 30       		.byte	0x30
 1295 061d 10       		.byte	0x10
 1296 061e 3906     		.2byte	0x639
 1297 0620 09       		.byte	0x9
 1298 0621 CE060000 		.4byte	0x6ce
 1299 0625 07       		.uleb128 0x7
 1300 0626 43523100 		.ascii	"CR1\000"
 1301 062a 10       		.byte	0x10
 1302 062b 3B06     		.2byte	0x63b
 1303 062d 11       		.byte	0x11
 1304 062e F5000000 		.4byte	0xf5
 1305 0632 00       		.byte	0
ARM GAS  C:\Users\DEVELO~1\AppData\Local\Temp\cccT88qa.s 			page 24


 1306 0633 07       		.uleb128 0x7
 1307 0634 43523200 		.ascii	"CR2\000"
 1308 0638 10       		.byte	0x10
 1309 0639 3C06     		.2byte	0x63c
 1310 063b 11       		.byte	0x11
 1311 063c F5000000 		.4byte	0xf5
 1312 0640 04       		.byte	0x4
 1313 0641 07       		.uleb128 0x7
 1314 0642 43523300 		.ascii	"CR3\000"
 1315 0646 10       		.byte	0x10
 1316 0647 3D06     		.2byte	0x63d
 1317 0649 11       		.byte	0x11
 1318 064a F5000000 		.4byte	0xf5
 1319 064e 08       		.byte	0x8
 1320 064f 07       		.uleb128 0x7
 1321 0650 42525200 		.ascii	"BRR\000"
 1322 0654 10       		.byte	0x10
 1323 0655 3E06     		.2byte	0x63e
 1324 0657 11       		.byte	0x11
 1325 0658 F5000000 		.4byte	0xf5
 1326 065c 0C       		.byte	0xc
 1327 065d 06       		.uleb128 0x6
 1328 065e BA020000 		.4byte	.LASF91
 1329 0662 10       		.byte	0x10
 1330 0663 3F06     		.2byte	0x63f
 1331 0665 11       		.byte	0x11
 1332 0666 F5000000 		.4byte	0xf5
 1333 066a 10       		.byte	0x10
 1334 066b 06       		.uleb128 0x6
 1335 066c 43070000 		.4byte	.LASF92
 1336 0670 10       		.byte	0x10
 1337 0671 4006     		.2byte	0x640
 1338 0673 11       		.byte	0x11
 1339 0674 F5000000 		.4byte	0xf5
 1340 0678 14       		.byte	0x14
 1341 0679 07       		.uleb128 0x7
 1342 067a 52515200 		.ascii	"RQR\000"
 1343 067e 10       		.byte	0x10
 1344 067f 4106     		.2byte	0x641
 1345 0681 11       		.byte	0x11
 1346 0682 F5000000 		.4byte	0xf5
 1347 0686 18       		.byte	0x18
 1348 0687 07       		.uleb128 0x7
 1349 0688 49535200 		.ascii	"ISR\000"
 1350 068c 10       		.byte	0x10
 1351 068d 4206     		.2byte	0x642
 1352 068f 11       		.byte	0x11
 1353 0690 F5000000 		.4byte	0xf5
 1354 0694 1C       		.byte	0x1c
 1355 0695 07       		.uleb128 0x7
 1356 0696 49435200 		.ascii	"ICR\000"
 1357 069a 10       		.byte	0x10
 1358 069b 4306     		.2byte	0x643
 1359 069d 11       		.byte	0x11
 1360 069e F5000000 		.4byte	0xf5
 1361 06a2 20       		.byte	0x20
 1362 06a3 07       		.uleb128 0x7
ARM GAS  C:\Users\DEVELO~1\AppData\Local\Temp\cccT88qa.s 			page 25


 1363 06a4 52445200 		.ascii	"RDR\000"
 1364 06a8 10       		.byte	0x10
 1365 06a9 4406     		.2byte	0x644
 1366 06ab 11       		.byte	0x11
 1367 06ac F5000000 		.4byte	0xf5
 1368 06b0 24       		.byte	0x24
 1369 06b1 07       		.uleb128 0x7
 1370 06b2 54445200 		.ascii	"TDR\000"
 1371 06b6 10       		.byte	0x10
 1372 06b7 4506     		.2byte	0x645
 1373 06b9 11       		.byte	0x11
 1374 06ba F5000000 		.4byte	0xf5
 1375 06be 28       		.byte	0x28
 1376 06bf 06       		.uleb128 0x6
 1377 06c0 78040000 		.4byte	.LASF93
 1378 06c4 10       		.byte	0x10
 1379 06c5 4606     		.2byte	0x646
 1380 06c7 11       		.byte	0x11
 1381 06c8 F5000000 		.4byte	0xf5
 1382 06cc 2C       		.byte	0x2c
 1383 06cd 00       		.byte	0
 1384 06ce 1D       		.uleb128 0x1d
 1385 06cf CC050000 		.4byte	.LASF94
 1386 06d3 10       		.byte	0x10
 1387 06d4 4706     		.2byte	0x647
 1388 06d6 1B060000 		.4byte	0x61b
 1389 06da 15       		.uleb128 0x15
 1390 06db C40A0000 		.4byte	.LASF95
 1391 06df 24       		.byte	0x24
 1392 06e0 11       		.byte	0x11
 1393 06e1 E001     		.2byte	0x1e0
 1394 06e3 08       		.byte	0x8
 1395 06e4 60070000 		.4byte	0x760
 1396 06e8 07       		.uleb128 0x7
 1397 06e9 723400   		.ascii	"r4\000"
 1398 06ec 11       		.byte	0x11
 1399 06ed F901     		.2byte	0x1f9
 1400 06ef 11       		.byte	0x11
 1401 06f0 E9000000 		.4byte	0xe9
 1402 06f4 00       		.byte	0
 1403 06f5 07       		.uleb128 0x7
 1404 06f6 723500   		.ascii	"r5\000"
 1405 06f9 11       		.byte	0x11
 1406 06fa FA01     		.2byte	0x1fa
 1407 06fc 11       		.byte	0x11
 1408 06fd E9000000 		.4byte	0xe9
 1409 0701 04       		.byte	0x4
 1410 0702 07       		.uleb128 0x7
 1411 0703 723600   		.ascii	"r6\000"
 1412 0706 11       		.byte	0x11
 1413 0707 FB01     		.2byte	0x1fb
 1414 0709 11       		.byte	0x11
 1415 070a E9000000 		.4byte	0xe9
 1416 070e 08       		.byte	0x8
 1417 070f 07       		.uleb128 0x7
 1418 0710 723700   		.ascii	"r7\000"
 1419 0713 11       		.byte	0x11
ARM GAS  C:\Users\DEVELO~1\AppData\Local\Temp\cccT88qa.s 			page 26


 1420 0714 FC01     		.2byte	0x1fc
 1421 0716 11       		.byte	0x11
 1422 0717 E9000000 		.4byte	0xe9
 1423 071b 0C       		.byte	0xc
 1424 071c 07       		.uleb128 0x7
 1425 071d 723800   		.ascii	"r8\000"
 1426 0720 11       		.byte	0x11
 1427 0721 FD01     		.2byte	0x1fd
 1428 0723 11       		.byte	0x11
 1429 0724 E9000000 		.4byte	0xe9
 1430 0728 10       		.byte	0x10
 1431 0729 07       		.uleb128 0x7
 1432 072a 723900   		.ascii	"r9\000"
 1433 072d 11       		.byte	0x11
 1434 072e FE01     		.2byte	0x1fe
 1435 0730 11       		.byte	0x11
 1436 0731 E9000000 		.4byte	0xe9
 1437 0735 14       		.byte	0x14
 1438 0736 07       		.uleb128 0x7
 1439 0737 72313000 		.ascii	"r10\000"
 1440 073b 11       		.byte	0x11
 1441 073c FF01     		.2byte	0x1ff
 1442 073e 11       		.byte	0x11
 1443 073f E9000000 		.4byte	0xe9
 1444 0743 18       		.byte	0x18
 1445 0744 07       		.uleb128 0x7
 1446 0745 72313100 		.ascii	"r11\000"
 1447 0749 11       		.byte	0x11
 1448 074a 0002     		.2byte	0x200
 1449 074c 11       		.byte	0x11
 1450 074d E9000000 		.4byte	0xe9
 1451 0751 1C       		.byte	0x1c
 1452 0752 07       		.uleb128 0x7
 1453 0753 6C7200   		.ascii	"lr\000"
 1454 0756 11       		.byte	0x11
 1455 0757 0102     		.2byte	0x201
 1456 0759 11       		.byte	0x11
 1457 075a E9000000 		.4byte	0xe9
 1458 075e 20       		.byte	0x20
 1459 075f 00       		.byte	0
 1460 0760 15       		.uleb128 0x15
 1461 0761 D0010000 		.4byte	.LASF96
 1462 0765 04       		.byte	0x4
 1463 0766 11       		.byte	0x11
 1464 0767 0A02     		.2byte	0x20a
 1465 0769 08       		.byte	0x8
 1466 076a 7C070000 		.4byte	0x77c
 1467 076e 07       		.uleb128 0x7
 1468 076f 737000   		.ascii	"sp\000"
 1469 0772 11       		.byte	0x11
 1470 0773 0B02     		.2byte	0x20b
 1471 0775 1A       		.byte	0x1a
 1472 0776 7C070000 		.4byte	0x77c
 1473 077a 00       		.byte	0
 1474 077b 00       		.byte	0
 1475 077c 04       		.uleb128 0x4
 1476 077d DA060000 		.4byte	0x6da
ARM GAS  C:\Users\DEVELO~1\AppData\Local\Temp\cccT88qa.s 			page 27


 1477 0781 09       		.uleb128 0x9
 1478 0782 0D050000 		.4byte	.LASF97
 1479 0786 18       		.byte	0x18
 1480 0787 0A       		.byte	0xa
 1481 0788 64       		.byte	0x64
 1482 0789 10       		.byte	0x10
 1483 078a B6070000 		.4byte	0x7b6
 1484 078e 02       		.uleb128 0x2
 1485 078f 160B0000 		.4byte	.LASF98
 1486 0793 0A       		.byte	0xa
 1487 0794 68       		.byte	0x68
 1488 0795 21       		.byte	0x21
 1489 0796 4B040000 		.4byte	0x44b
 1490 079a 00       		.byte	0
 1491 079b 02       		.uleb128 0x2
 1492 079c 1C0B0000 		.4byte	.LASF99
 1493 07a0 0A       		.byte	0xa
 1494 07a1 73       		.byte	0x73
 1495 07a2 21       		.byte	0x21
 1496 07a3 88030000 		.4byte	0x388
 1497 07a7 0C       		.byte	0xc
 1498 07a8 02       		.uleb128 0x2
 1499 07a9 11020000 		.4byte	.LASF100
 1500 07ad 0A       		.byte	0xa
 1501 07ae 79       		.byte	0x79
 1502 07af 21       		.byte	0x21
 1503 07b0 06010000 		.4byte	0x106
 1504 07b4 10       		.byte	0x10
 1505 07b5 00       		.byte	0
 1506 07b6 03       		.uleb128 0x3
 1507 07b7 99090000 		.4byte	.LASF101
 1508 07bb 0A       		.byte	0xa
 1509 07bc 7B       		.byte	0x7b
 1510 07bd 03       		.byte	0x3
 1511 07be 81070000 		.4byte	0x781
 1512 07c2 09       		.uleb128 0x9
 1513 07c3 60000000 		.4byte	.LASF102
 1514 07c7 08       		.byte	0x8
 1515 07c8 0A       		.byte	0xa
 1516 07c9 80       		.byte	0x80
 1517 07ca 10       		.byte	0x10
 1518 07cb DD070000 		.4byte	0x7dd
 1519 07cf 02       		.uleb128 0x2
 1520 07d0 DA0B0000 		.4byte	.LASF103
 1521 07d4 0A       		.byte	0xa
 1522 07d5 84       		.byte	0x84
 1523 07d6 21       		.byte	0x21
 1524 07d7 CC030000 		.4byte	0x3cc
 1525 07db 00       		.byte	0
 1526 07dc 00       		.byte	0
 1527 07dd 03       		.uleb128 0x3
 1528 07de 27080000 		.4byte	.LASF104
 1529 07e2 0A       		.byte	0xa
 1530 07e3 85       		.byte	0x85
 1531 07e4 03       		.byte	0x3
 1532 07e5 C2070000 		.4byte	0x7c2
 1533 07e9 03       		.uleb128 0x3
ARM GAS  C:\Users\DEVELO~1\AppData\Local\Temp\cccT88qa.s 			page 28


 1534 07ea 4D000000 		.4byte	.LASF105
 1535 07ee 0A       		.byte	0xa
 1536 07ef 8A       		.byte	0x8a
 1537 07f0 14       		.byte	0x14
 1538 07f1 B4040000 		.4byte	0x4b4
 1539 07f5 09       		.uleb128 0x9
 1540 07f6 B6070000 		.4byte	.LASF106
 1541 07fa 08       		.byte	0x8
 1542 07fb 0A       		.byte	0xa
 1543 07fc 8F       		.byte	0x8f
 1544 07fd 10       		.byte	0x10
 1545 07fe 10080000 		.4byte	0x810
 1546 0802 02       		.uleb128 0x2
 1547 0803 DA0B0000 		.4byte	.LASF103
 1548 0807 0A       		.byte	0xa
 1549 0808 93       		.byte	0x93
 1550 0809 21       		.byte	0x21
 1551 080a CC030000 		.4byte	0x3cc
 1552 080e 00       		.byte	0
 1553 080f 00       		.byte	0
 1554 0810 03       		.uleb128 0x3
 1555 0811 F5040000 		.4byte	.LASF107
 1556 0815 0A       		.byte	0xa
 1557 0816 94       		.byte	0x94
 1558 0817 03       		.byte	0x3
 1559 0818 F5070000 		.4byte	0x7f5
 1560 081c 18       		.uleb128 0x18
 1561 081d 0C       		.byte	0xc
 1562 081e 0A       		.byte	0xa
 1563 081f A0       		.byte	0xa0
 1564 0820 49080000 		.4byte	0x849
 1565 0824 0D       		.uleb128 0xd
 1566 0825 15030000 		.4byte	.LASF108
 1567 0829 0A       		.byte	0xa
 1568 082a A4       		.byte	0xa4
 1569 082b 21       		.byte	0x21
 1570 082c A0030000 		.4byte	0x3a0
 1571 0830 0D       		.uleb128 0xd
 1572 0831 DA0B0000 		.4byte	.LASF103
 1573 0835 0A       		.byte	0xa
 1574 0836 A8       		.byte	0xa8
 1575 0837 21       		.byte	0x21
 1576 0838 CC030000 		.4byte	0x3cc
 1577 083c 0D       		.uleb128 0xd
 1578 083d 8D040000 		.4byte	.LASF109
 1579 0841 0A       		.byte	0xa
 1580 0842 AC       		.byte	0xac
 1581 0843 21       		.byte	0x21
 1582 0844 05040000 		.4byte	0x405
 1583 0848 00       		.byte	0
 1584 0849 18       		.uleb128 0x18
 1585 084a 04       		.byte	0x4
 1586 084b 0A       		.byte	0xa
 1587 084c EB       		.byte	0xeb
 1588 084d B2080000 		.4byte	0x8b2
 1589 0851 0D       		.uleb128 0xd
 1590 0852 5B050000 		.4byte	.LASF110
ARM GAS  C:\Users\DEVELO~1\AppData\Local\Temp\cccT88qa.s 			page 29


 1591 0856 0A       		.byte	0xa
 1592 0857 F2       		.byte	0xf2
 1593 0858 21       		.byte	0x21
 1594 0859 53010000 		.4byte	0x153
 1595 085d 0D       		.uleb128 0xd
 1596 085e DE0D0000 		.4byte	.LASF111
 1597 0862 0A       		.byte	0xa
 1598 0863 F9       		.byte	0xf9
 1599 0864 21       		.byte	0x21
 1600 0865 53010000 		.4byte	0x153
 1601 0869 10       		.uleb128 0x10
 1602 086a B2010000 		.4byte	.LASF79
 1603 086e 0001     		.2byte	0x100
 1604 0870 22       		.byte	0x22
 1605 0871 B9040000 		.4byte	0x4b9
 1606 0875 10       		.uleb128 0x10
 1607 0876 C20D0000 		.4byte	.LASF112
 1608 087a 0701     		.2byte	0x107
 1609 087c 22       		.byte	0x22
 1610 087d B2080000 		.4byte	0x8b2
 1611 0881 10       		.uleb128 0x10
 1612 0882 4D030000 		.4byte	.LASF113
 1613 0886 0C01     		.2byte	0x10c
 1614 0888 21       		.byte	0x21
 1615 0889 53010000 		.4byte	0x153
 1616 088d 10       		.uleb128 0x10
 1617 088e FC0B0000 		.4byte	.LASF114
 1618 0892 1501     		.2byte	0x115
 1619 0894 22       		.byte	0x22
 1620 0895 DF080000 		.4byte	0x8df
 1621 0899 10       		.uleb128 0x10
 1622 089a C80D0000 		.4byte	.LASF115
 1623 089e 1E01     		.2byte	0x11e
 1624 08a0 22       		.byte	0x22
 1625 08a1 19090000 		.4byte	0x919
 1626 08a5 10       		.uleb128 0x10
 1627 08a6 1B020000 		.4byte	.LASF116
 1628 08aa 2601     		.2byte	0x126
 1629 08ac 21       		.byte	0x21
 1630 08ad 5F010000 		.4byte	0x15f
 1631 08b1 00       		.byte	0
 1632 08b2 04       		.uleb128 0x4
 1633 08b3 E9070000 		.4byte	0x7e9
 1634 08b7 09       		.uleb128 0x9
 1635 08b8 BF030000 		.4byte	.LASF117
 1636 08bc 0C       		.byte	0xc
 1637 08bd 12       		.byte	0x12
 1638 08be 34       		.byte	0x34
 1639 08bf 10       		.byte	0x10
 1640 08c0 DF080000 		.4byte	0x8df
 1641 08c4 02       		.uleb128 0x2
 1642 08c5 DA0B0000 		.4byte	.LASF103
 1643 08c9 12       		.byte	0x12
 1644 08ca 35       		.byte	0x35
 1645 08cb 19       		.byte	0x19
 1646 08cc CC030000 		.4byte	0x3cc
 1647 08d0 00       		.byte	0
ARM GAS  C:\Users\DEVELO~1\AppData\Local\Temp\cccT88qa.s 			page 30


 1648 08d1 0A       		.uleb128 0xa
 1649 08d2 636E7400 		.ascii	"cnt\000"
 1650 08d6 12       		.byte	0x12
 1651 08d7 37       		.byte	0x37
 1652 08d8 19       		.byte	0x19
 1653 08d9 77010000 		.4byte	0x177
 1654 08dd 08       		.byte	0x8
 1655 08de 00       		.byte	0
 1656 08df 04       		.uleb128 0x4
 1657 08e0 B7080000 		.4byte	0x8b7
 1658 08e4 09       		.uleb128 0x9
 1659 08e5 BC050000 		.4byte	.LASF118
 1660 08e9 10       		.byte	0x10
 1661 08ea 13       		.byte	0x13
 1662 08eb 39       		.byte	0x39
 1663 08ec 08       		.byte	0x8
 1664 08ed 19090000 		.4byte	0x919
 1665 08f1 02       		.uleb128 0x2
 1666 08f2 DA0B0000 		.4byte	.LASF103
 1667 08f6 13       		.byte	0x13
 1668 08f7 3A       		.byte	0x3a
 1669 08f8 19       		.byte	0x19
 1670 08f9 CC030000 		.4byte	0x3cc
 1671 08fd 00       		.byte	0
 1672 08fe 02       		.uleb128 0x2
 1673 08ff E0040000 		.4byte	.LASF34
 1674 0903 13       		.byte	0x13
 1675 0904 3C       		.byte	0x3c
 1676 0905 1A       		.byte	0x1a
 1677 0906 B4040000 		.4byte	0x4b4
 1678 090a 08       		.byte	0x8
 1679 090b 02       		.uleb128 0x2
 1680 090c 28010000 		.4byte	.LASF69
 1681 0910 13       		.byte	0x13
 1682 0911 3E       		.byte	0x3e
 1683 0912 1A       		.byte	0x1a
 1684 0913 D6090000 		.4byte	0x9d6
 1685 0917 0C       		.byte	0xc
 1686 0918 00       		.byte	0
 1687 0919 04       		.uleb128 0x4
 1688 091a E4080000 		.4byte	0x8e4
 1689 091e 04       		.uleb128 0x4
 1690 091f 7E020000 		.4byte	0x27e
 1691 0923 04       		.uleb128 0x4
 1692 0924 17010000 		.4byte	0x117
 1693 0928 15       		.uleb128 0x15
 1694 0929 EC010000 		.4byte	.LASF119
 1695 092d 10       		.byte	0x10
 1696 092e 0A       		.byte	0xa
 1697 092f 5C01     		.2byte	0x15c
 1698 0931 10       		.byte	0x10
 1699 0932 53090000 		.4byte	0x953
 1700 0936 06       		.uleb128 0x6
 1701 0937 8D040000 		.4byte	.LASF109
 1702 093b 0A       		.byte	0xa
 1703 093c 6101     		.2byte	0x161
 1704 093e 21       		.byte	0x21
ARM GAS  C:\Users\DEVELO~1\AppData\Local\Temp\cccT88qa.s 			page 31


 1705 093f 05040000 		.4byte	0x405
 1706 0943 00       		.byte	0
 1707 0944 06       		.uleb128 0x6
 1708 0945 530D0000 		.4byte	.LASF120
 1709 0949 0A       		.byte	0xa
 1710 094a 6501     		.2byte	0x165
 1711 094c 22       		.byte	0x22
 1712 094d B4040000 		.4byte	0x4b4
 1713 0951 0C       		.byte	0xc
 1714 0952 00       		.byte	0
 1715 0953 1D       		.uleb128 0x1d
 1716 0954 A70B0000 		.4byte	.LASF121
 1717 0958 0A       		.byte	0xa
 1718 0959 6601     		.2byte	0x166
 1719 095b 28090000 		.4byte	0x928
 1720 095f 15       		.uleb128 0x15
 1721 0960 000B0000 		.4byte	.LASF122
 1722 0964 14       		.byte	0x14
 1723 0965 0A       		.byte	0xa
 1724 0966 6B01     		.2byte	0x16b
 1725 0968 10       		.byte	0x10
 1726 0969 B4090000 		.4byte	0x9b4
 1727 096d 06       		.uleb128 0x6
 1728 096e 3A000000 		.4byte	.LASF35
 1729 0972 0A       		.byte	0xa
 1730 0973 6F01     		.2byte	0x16f
 1731 0975 22       		.byte	0x22
 1732 0976 66030000 		.4byte	0x366
 1733 097a 00       		.byte	0
 1734 097b 06       		.uleb128 0x6
 1735 097c B9010000 		.4byte	.LASF123
 1736 0980 0A       		.byte	0xa
 1737 0981 7501     		.2byte	0x175
 1738 0983 22       		.byte	0x22
 1739 0984 23090000 		.4byte	0x923
 1740 0988 04       		.byte	0x4
 1741 0989 06       		.uleb128 0x6
 1742 098a E6040000 		.4byte	.LASF124
 1743 098e 0A       		.byte	0xa
 1744 098f 7901     		.2byte	0x179
 1745 0991 22       		.byte	0x22
 1746 0992 23090000 		.4byte	0x923
 1747 0996 08       		.byte	0x8
 1748 0997 06       		.uleb128 0x6
 1749 0998 FC0C0000 		.4byte	.LASF125
 1750 099c 0A       		.byte	0xa
 1751 099d 7F01     		.2byte	0x17f
 1752 099f 22       		.byte	0x22
 1753 09a0 23090000 		.4byte	0x923
 1754 09a4 0C       		.byte	0xc
 1755 09a5 06       		.uleb128 0x6
 1756 09a6 1B060000 		.4byte	.LASF126
 1757 09aa 0A       		.byte	0xa
 1758 09ab 8301     		.2byte	0x183
 1759 09ad 22       		.byte	0x22
 1760 09ae 23090000 		.4byte	0x923
 1761 09b2 10       		.byte	0x10
ARM GAS  C:\Users\DEVELO~1\AppData\Local\Temp\cccT88qa.s 			page 32


 1762 09b3 00       		.byte	0
 1763 09b4 1D       		.uleb128 0x1d
 1764 09b5 DD030000 		.4byte	.LASF127
 1765 09b9 0A       		.byte	0xa
 1766 09ba 8501     		.2byte	0x185
 1767 09bc 5F090000 		.4byte	0x95f
 1768 09c0 0E       		.uleb128 0xe
 1769 09c1 B4090000 		.4byte	0x9b4
 1770 09c5 04       		.uleb128 0x4
 1771 09c6 C0090000 		.4byte	0x9c0
 1772 09ca 03       		.uleb128 0x3
 1773 09cb 3E0C0000 		.4byte	.LASF128
 1774 09cf 13       		.byte	0x13
 1775 09d0 34       		.byte	0x34
 1776 09d1 19       		.byte	0x19
 1777 09d2 E4080000 		.4byte	0x8e4
 1778 09d6 04       		.uleb128 0x4
 1779 09d7 CA090000 		.4byte	0x9ca
 1780 09db 03       		.uleb128 0x3
 1781 09dc 960B0000 		.4byte	.LASF129
 1782 09e0 14       		.byte	0x14
 1783 09e1 34       		.byte	0x34
 1784 09e2 1F       		.byte	0x1f
 1785 09e3 E7090000 		.4byte	0x9e7
 1786 09e7 09       		.uleb128 0x9
 1787 09e8 DE070000 		.4byte	.LASF130
 1788 09ec 14       		.byte	0x14
 1789 09ed 14       		.byte	0x14
 1790 09ee 39       		.byte	0x39
 1791 09ef 08       		.byte	0x8
 1792 09f0 360A0000 		.4byte	0xa36
 1793 09f4 02       		.uleb128 0x2
 1794 09f5 28010000 		.4byte	.LASF69
 1795 09f9 14       		.byte	0x14
 1796 09fa 3A       		.byte	0x3a
 1797 09fb 1A       		.byte	0x1a
 1798 09fc 360A0000 		.4byte	0xa36
 1799 0a00 00       		.byte	0
 1800 0a01 02       		.uleb128 0x2
 1801 0a02 6C000000 		.4byte	.LASF131
 1802 0a06 14       		.byte	0x14
 1803 0a07 3D       		.byte	0x3d
 1804 0a08 1A       		.byte	0x1a
 1805 0a09 B4040000 		.4byte	0x4b4
 1806 0a0d 04       		.byte	0x4
 1807 0a0e 02       		.uleb128 0x2
 1808 0a0f 8C010000 		.4byte	.LASF132
 1809 0a13 14       		.byte	0x14
 1810 0a14 3F       		.byte	0x3f
 1811 0a15 19       		.byte	0x19
 1812 0a16 5F010000 		.4byte	0x15f
 1813 0a1a 08       		.byte	0x8
 1814 0a1b 02       		.uleb128 0x2
 1815 0a1c 82000000 		.4byte	.LASF38
 1816 0a20 14       		.byte	0x14
 1817 0a21 41       		.byte	0x41
 1818 0a22 19       		.byte	0x19
ARM GAS  C:\Users\DEVELO~1\AppData\Local\Temp\cccT88qa.s 			page 33


 1819 0a23 6B010000 		.4byte	0x16b
 1820 0a27 0C       		.byte	0xc
 1821 0a28 02       		.uleb128 0x2
 1822 0a29 BD0A0000 		.4byte	.LASF133
 1823 0a2d 14       		.byte	0x14
 1824 0a2e 43       		.byte	0x43
 1825 0a2f 19       		.byte	0x19
 1826 0a30 6B010000 		.4byte	0x16b
 1827 0a34 10       		.byte	0x10
 1828 0a35 00       		.byte	0
 1829 0a36 04       		.uleb128 0x4
 1830 0a37 DB090000 		.4byte	0x9db
 1831 0a3b 09       		.uleb128 0x9
 1832 0a3c 75000000 		.4byte	.LASF134
 1833 0a40 04       		.byte	0x4
 1834 0a41 14       		.byte	0x14
 1835 0a42 4A       		.byte	0x4a
 1836 0a43 10       		.byte	0x10
 1837 0a44 560A0000 		.4byte	0xa56
 1838 0a48 02       		.uleb128 0x2
 1839 0a49 28010000 		.4byte	.LASF69
 1840 0a4d 14       		.byte	0x14
 1841 0a4e 4B       		.byte	0x4b
 1842 0a4f 1A       		.byte	0x1a
 1843 0a50 360A0000 		.4byte	0xa36
 1844 0a54 00       		.byte	0
 1845 0a55 00       		.byte	0
 1846 0a56 03       		.uleb128 0x3
 1847 0a57 7E040000 		.4byte	.LASF135
 1848 0a5b 14       		.byte	0x14
 1849 0a5c 4E       		.byte	0x4e
 1850 0a5d 03       		.byte	0x3
 1851 0a5e 3B0A0000 		.4byte	0xa3b
 1852 0a62 0B       		.uleb128 0xb
 1853 0a63 01       		.byte	0x1
 1854 0a64 02       		.byte	0x2
 1855 0a65 86050000 		.4byte	.LASF136
 1856 0a69 04       		.uleb128 0x4
 1857 0a6a C0000000 		.4byte	0xc0
 1858 0a6e 0C       		.uleb128 0xc
 1859 0a6f 2D000000 		.4byte	0x2d
 1860 0a73 870A0000 		.4byte	0xa87
 1861 0a77 05       		.uleb128 0x5
 1862 0a78 B9040000 		.4byte	0x4b9
 1863 0a7c 05       		.uleb128 0x5
 1864 0a7d 870A0000 		.4byte	0xa87
 1865 0a81 05       		.uleb128 0x5
 1866 0a82 2D000000 		.4byte	0x2d
 1867 0a86 00       		.byte	0
 1868 0a87 04       		.uleb128 0x4
 1869 0a88 CC000000 		.4byte	0xcc
 1870 0a8c 04       		.uleb128 0x4
 1871 0a8d 6E0A0000 		.4byte	0xa6e
 1872 0a91 0C       		.uleb128 0xc
 1873 0a92 2D000000 		.4byte	0x2d
 1874 0a96 AA0A0000 		.4byte	0xaaa
 1875 0a9a 05       		.uleb128 0x5
ARM GAS  C:\Users\DEVELO~1\AppData\Local\Temp\cccT88qa.s 			page 34


 1876 0a9b B9040000 		.4byte	0x4b9
 1877 0a9f 05       		.uleb128 0x5
 1878 0aa0 690A0000 		.4byte	0xa69
 1879 0aa4 05       		.uleb128 0x5
 1880 0aa5 2D000000 		.4byte	0x2d
 1881 0aa9 00       		.byte	0
 1882 0aaa 04       		.uleb128 0x4
 1883 0aab 910A0000 		.4byte	0xa91
 1884 0aaf 0C       		.uleb128 0xc
 1885 0ab0 53010000 		.4byte	0x153
 1886 0ab4 C30A0000 		.4byte	0xac3
 1887 0ab8 05       		.uleb128 0x5
 1888 0ab9 B9040000 		.4byte	0x4b9
 1889 0abd 05       		.uleb128 0x5
 1890 0abe C0000000 		.4byte	0xc0
 1891 0ac2 00       		.byte	0
 1892 0ac3 04       		.uleb128 0x4
 1893 0ac4 AF0A0000 		.4byte	0xaaf
 1894 0ac8 0C       		.uleb128 0xc
 1895 0ac9 53010000 		.4byte	0x153
 1896 0acd D70A0000 		.4byte	0xad7
 1897 0ad1 05       		.uleb128 0x5
 1898 0ad2 B9040000 		.4byte	0x4b9
 1899 0ad6 00       		.byte	0
 1900 0ad7 04       		.uleb128 0x4
 1901 0ad8 C80A0000 		.4byte	0xac8
 1902 0adc 0C       		.uleb128 0xc
 1903 0add 53010000 		.4byte	0x153
 1904 0ae1 F50A0000 		.4byte	0xaf5
 1905 0ae5 05       		.uleb128 0x5
 1906 0ae6 B9040000 		.4byte	0x4b9
 1907 0aea 05       		.uleb128 0x5
 1908 0aeb C0000000 		.4byte	0xc0
 1909 0aef 05       		.uleb128 0x5
 1910 0af0 94030000 		.4byte	0x394
 1911 0af4 00       		.byte	0
 1912 0af5 04       		.uleb128 0x4
 1913 0af6 DC0A0000 		.4byte	0xadc
 1914 0afa 0C       		.uleb128 0xc
 1915 0afb 53010000 		.4byte	0x153
 1916 0aff 0E0B0000 		.4byte	0xb0e
 1917 0b03 05       		.uleb128 0x5
 1918 0b04 B9040000 		.4byte	0x4b9
 1919 0b08 05       		.uleb128 0x5
 1920 0b09 94030000 		.4byte	0x394
 1921 0b0d 00       		.byte	0
 1922 0b0e 04       		.uleb128 0x4
 1923 0b0f FA0A0000 		.4byte	0xafa
 1924 0b13 0C       		.uleb128 0xc
 1925 0b14 2D000000 		.4byte	0x2d
 1926 0b18 310B0000 		.4byte	0xb31
 1927 0b1c 05       		.uleb128 0x5
 1928 0b1d B9040000 		.4byte	0x4b9
 1929 0b21 05       		.uleb128 0x5
 1930 0b22 870A0000 		.4byte	0xa87
 1931 0b26 05       		.uleb128 0x5
 1932 0b27 2D000000 		.4byte	0x2d
ARM GAS  C:\Users\DEVELO~1\AppData\Local\Temp\cccT88qa.s 			page 35


 1933 0b2b 05       		.uleb128 0x5
 1934 0b2c 94030000 		.4byte	0x394
 1935 0b30 00       		.byte	0
 1936 0b31 04       		.uleb128 0x4
 1937 0b32 130B0000 		.4byte	0xb13
 1938 0b36 0C       		.uleb128 0xc
 1939 0b37 2D000000 		.4byte	0x2d
 1940 0b3b 540B0000 		.4byte	0xb54
 1941 0b3f 05       		.uleb128 0x5
 1942 0b40 B9040000 		.4byte	0x4b9
 1943 0b44 05       		.uleb128 0x5
 1944 0b45 690A0000 		.4byte	0xa69
 1945 0b49 05       		.uleb128 0x5
 1946 0b4a 2D000000 		.4byte	0x2d
 1947 0b4e 05       		.uleb128 0x5
 1948 0b4f 94030000 		.4byte	0x394
 1949 0b53 00       		.byte	0
 1950 0b54 04       		.uleb128 0x4
 1951 0b55 360B0000 		.4byte	0xb36
 1952 0b59 0C       		.uleb128 0xc
 1953 0b5a 53010000 		.4byte	0x153
 1954 0b5e 720B0000 		.4byte	0xb72
 1955 0b62 05       		.uleb128 0x5
 1956 0b63 B9040000 		.4byte	0x4b9
 1957 0b67 05       		.uleb128 0x5
 1958 0b68 3E000000 		.4byte	0x3e
 1959 0b6c 05       		.uleb128 0x5
 1960 0b6d B9040000 		.4byte	0x4b9
 1961 0b71 00       		.byte	0
 1962 0b72 04       		.uleb128 0x4
 1963 0b73 590B0000 		.4byte	0xb59
 1964 0b77 03       		.uleb128 0x3
 1965 0b78 07010000 		.4byte	.LASF137
 1966 0b7c 15       		.byte	0x15
 1967 0b7d 3A       		.byte	0x3a
 1968 0b7e 19       		.byte	0x19
 1969 0b7f 830B0000 		.4byte	0xb83
 1970 0b83 09       		.uleb128 0x9
 1971 0b84 2F0D0000 		.4byte	.LASF138
 1972 0b88 24       		.byte	0x24
 1973 0b89 15       		.byte	0x15
 1974 0b8a 4B       		.byte	0x4b
 1975 0b8b 08       		.byte	0x8
 1976 0b8c F90B0000 		.4byte	0xbf9
 1977 0b90 02       		.uleb128 0x2
 1978 0b91 43030000 		.4byte	.LASF139
 1979 0b95 15       		.byte	0x15
 1980 0b96 4C       		.byte	0x4c
 1981 0b97 19       		.byte	0x19
 1982 0b98 10080000 		.4byte	0x810
 1983 0b9c 00       		.byte	0
 1984 0b9d 02       		.uleb128 0x2
 1985 0b9e 6F0B0000 		.4byte	.LASF140
 1986 0ba2 15       		.byte	0x15
 1987 0ba3 4D       		.byte	0x4d
 1988 0ba4 19       		.byte	0x19
 1989 0ba5 39000000 		.4byte	0x39
ARM GAS  C:\Users\DEVELO~1\AppData\Local\Temp\cccT88qa.s 			page 36


 1990 0ba9 08       		.byte	0x8
 1991 0baa 02       		.uleb128 0x2
 1992 0bab F10D0000 		.4byte	.LASF141
 1993 0baf 15       		.byte	0x15
 1994 0bb0 4E       		.byte	0x4e
 1995 0bb1 1A       		.byte	0x1a
 1996 0bb2 690A0000 		.4byte	0xa69
 1997 0bb6 0C       		.byte	0xc
 1998 0bb7 02       		.uleb128 0x2
 1999 0bb8 7E0B0000 		.4byte	.LASF142
 2000 0bbc 15       		.byte	0x15
 2001 0bbd 4F       		.byte	0x4f
 2002 0bbe 1A       		.byte	0x1a
 2003 0bbf 690A0000 		.4byte	0xa69
 2004 0bc3 10       		.byte	0x10
 2005 0bc4 02       		.uleb128 0x2
 2006 0bc5 B2060000 		.4byte	.LASF143
 2007 0bc9 15       		.byte	0x15
 2008 0bca 51       		.byte	0x51
 2009 0bcb 1A       		.byte	0x1a
 2010 0bcc 690A0000 		.4byte	0xa69
 2011 0bd0 14       		.byte	0x14
 2012 0bd1 02       		.uleb128 0x2
 2013 0bd2 6B010000 		.4byte	.LASF144
 2014 0bd6 15       		.byte	0x15
 2015 0bd7 52       		.byte	0x52
 2016 0bd8 1A       		.byte	0x1a
 2017 0bd9 690A0000 		.4byte	0xa69
 2018 0bdd 18       		.byte	0x18
 2019 0bde 02       		.uleb128 0x2
 2020 0bdf E9050000 		.4byte	.LASF145
 2021 0be3 15       		.byte	0x15
 2022 0be4 53       		.byte	0x53
 2023 0be5 19       		.byte	0x19
 2024 0be6 F90B0000 		.4byte	0xbf9
 2025 0bea 1C       		.byte	0x1c
 2026 0beb 02       		.uleb128 0x2
 2027 0bec 4B060000 		.4byte	.LASF146
 2028 0bf0 15       		.byte	0x15
 2029 0bf1 54       		.byte	0x54
 2030 0bf2 1A       		.byte	0x1a
 2031 0bf3 B9040000 		.4byte	0x4b9
 2032 0bf7 20       		.byte	0x20
 2033 0bf8 00       		.byte	0
 2034 0bf9 03       		.uleb128 0x3
 2035 0bfa 82010000 		.4byte	.LASF147
 2036 0bfe 15       		.byte	0x15
 2037 0bff 41       		.byte	0x41
 2038 0c00 10       		.byte	0x10
 2039 0c01 050C0000 		.4byte	0xc05
 2040 0c05 04       		.uleb128 0x4
 2041 0c06 0A0C0000 		.4byte	0xc0a
 2042 0c0a 2C       		.uleb128 0x2c
 2043 0c0b 150C0000 		.4byte	0xc15
 2044 0c0f 05       		.uleb128 0x5
 2045 0c10 150C0000 		.4byte	0xc15
 2046 0c14 00       		.byte	0
ARM GAS  C:\Users\DEVELO~1\AppData\Local\Temp\cccT88qa.s 			page 37


 2047 0c15 04       		.uleb128 0x4
 2048 0c16 770B0000 		.4byte	0xb77
 2049 0c1a 03       		.uleb128 0x3
 2050 0c1b 48070000 		.4byte	.LASF148
 2051 0c1f 15       		.byte	0x15
 2052 0c20 61       		.byte	0x61
 2053 0c21 14       		.byte	0x14
 2054 0c22 770B0000 		.4byte	0xb77
 2055 0c26 03       		.uleb128 0x3
 2056 0c27 51080000 		.4byte	.LASF149
 2057 0c2b 15       		.byte	0x15
 2058 0c2c 6D       		.byte	0x6d
 2059 0c2d 14       		.byte	0x14
 2060 0c2e 770B0000 		.4byte	0xb77
 2061 0c32 2D       		.uleb128 0x2d
 2062 0c33 07       		.byte	0x7
 2063 0c34 01       		.byte	0x1
 2064 0c35 66000000 		.4byte	0x66
 2065 0c39 16       		.byte	0x16
 2066 0c3a 58       		.byte	0x58
 2067 0c3b 0E       		.byte	0xe
 2068 0c3c 530C0000 		.4byte	0xc53
 2069 0c40 1E       		.uleb128 0x1e
 2070 0c41 650B0000 		.4byte	.LASF150
 2071 0c45 00       		.byte	0
 2072 0c46 1E       		.uleb128 0x1e
 2073 0c47 8C050000 		.4byte	.LASF151
 2074 0c4b 01       		.byte	0x1
 2075 0c4c 1E       		.uleb128 0x1e
 2076 0c4d 66090000 		.4byte	.LASF152
 2077 0c51 02       		.byte	0x2
 2078 0c52 00       		.byte	0
 2079 0c53 03       		.uleb128 0x3
 2080 0c54 AF030000 		.4byte	.LASF153
 2081 0c58 16       		.byte	0x16
 2082 0c59 5C       		.byte	0x5c
 2083 0c5a 03       		.byte	0x3
 2084 0c5b 320C0000 		.4byte	0xc32
 2085 0c5f 03       		.uleb128 0x3
 2086 0c60 1B000000 		.4byte	.LASF154
 2087 0c64 16       		.byte	0x16
 2088 0c65 61       		.byte	0x61
 2089 0c66 22       		.byte	0x22
 2090 0c67 6B0C0000 		.4byte	0xc6b
 2091 0c6b 09       		.uleb128 0x9
 2092 0c6c F5000000 		.4byte	.LASF155
 2093 0c70 60       		.byte	0x60
 2094 0c71 16       		.byte	0x16
 2095 0c72 7B       		.byte	0x7b
 2096 0c73 08       		.byte	0x8
 2097 0c74 E10C0000 		.4byte	0xce1
 2098 0c78 0A       		.uleb128 0xa
 2099 0c79 766D7400 		.ascii	"vmt\000"
 2100 0c7d 16       		.byte	0x16
 2101 0c7e 7D       		.byte	0x7d
 2102 0c7f 21       		.byte	0x21
 2103 0c80 8C0D0000 		.4byte	0xd8c
ARM GAS  C:\Users\DEVELO~1\AppData\Local\Temp\cccT88qa.s 			page 38


 2104 0c84 00       		.byte	0
 2105 0c85 02       		.uleb128 0x2
 2106 0c86 B9030000 		.4byte	.LASF156
 2107 0c8a 16       		.byte	0x16
 2108 0c8b 7E       		.byte	0x7e
 2109 0c8c 03       		.byte	0x3
 2110 0c8d 560A0000 		.4byte	0xa56
 2111 0c91 04       		.byte	0x4
 2112 0c92 02       		.uleb128 0x2
 2113 0c93 9F0C0000 		.4byte	.LASF37
 2114 0c97 16       		.byte	0x16
 2115 0c98 7E       		.byte	0x7e
 2116 0c99 03       		.byte	0x3
 2117 0c9a 530C0000 		.4byte	0xc53
 2118 0c9e 08       		.byte	0x8
 2119 0c9f 02       		.uleb128 0x2
 2120 0ca0 C5050000 		.4byte	.LASF157
 2121 0ca4 16       		.byte	0x16
 2122 0ca5 7E       		.byte	0x7e
 2123 0ca6 03       		.byte	0x3
 2124 0ca7 1A0C0000 		.4byte	0xc1a
 2125 0cab 0C       		.byte	0xc
 2126 0cac 02       		.uleb128 0x2
 2127 0cad 5F090000 		.4byte	.LASF158
 2128 0cb1 16       		.byte	0x16
 2129 0cb2 7E       		.byte	0x7e
 2130 0cb3 03       		.byte	0x3
 2131 0cb4 260C0000 		.4byte	0xc26
 2132 0cb8 30       		.byte	0x30
 2133 0cb9 02       		.uleb128 0x2
 2134 0cba 7F070000 		.4byte	.LASF159
 2135 0cbe 16       		.byte	0x16
 2136 0cbf 7E       		.byte	0x7e
 2137 0cc0 03       		.byte	0x3
 2138 0cc1 910D0000 		.4byte	0xd91
 2139 0cc5 54       		.byte	0x54
 2140 0cc6 02       		.uleb128 0x2
 2141 0cc7 F2050000 		.4byte	.LASF160
 2142 0ccb 16       		.byte	0x16
 2143 0ccc 7E       		.byte	0x7e
 2144 0ccd 03       		.byte	0x3
 2145 0cce E9000000 		.4byte	0xe9
 2146 0cd2 58       		.byte	0x58
 2147 0cd3 02       		.uleb128 0x2
 2148 0cd4 9A0A0000 		.4byte	.LASF161
 2149 0cd8 16       		.byte	0x16
 2150 0cd9 7E       		.byte	0x7e
 2151 0cda 03       		.byte	0x3
 2152 0cdb C0000000 		.4byte	0xc0
 2153 0cdf 5C       		.byte	0x5c
 2154 0ce0 00       		.byte	0
 2155 0ce1 22       		.uleb128 0x22
 2156 0ce2 53443100 		.ascii	"SD1\000"
 2157 0ce6 9002     		.2byte	0x290
 2158 0ce8 5F0C0000 		.4byte	0xc5f
 2159 0cec 22       		.uleb128 0x22
 2160 0ced 53443500 		.ascii	"SD5\000"
ARM GAS  C:\Users\DEVELO~1\AppData\Local\Temp\cccT88qa.s 			page 39


 2161 0cf1 9C02     		.2byte	0x29c
 2162 0cf3 5F0C0000 		.4byte	0xc5f
 2163 0cf7 09       		.uleb128 0x9
 2164 0cf8 380D0000 		.4byte	.LASF162
 2165 0cfc 28       		.byte	0x28
 2166 0cfd 16       		.byte	0x16
 2167 0cfe 70       		.byte	0x70
 2168 0cff 08       		.byte	0x8
 2169 0d00 870D0000 		.4byte	0xd87
 2170 0d04 02       		.uleb128 0x2
 2171 0d05 41080000 		.4byte	.LASF163
 2172 0d09 16       		.byte	0x16
 2173 0d0a 71       		.byte	0x71
 2174 0d0b 03       		.byte	0x3
 2175 0d0c 2D000000 		.4byte	0x2d
 2176 0d10 00       		.byte	0
 2177 0d11 02       		.uleb128 0x2
 2178 0d12 C7070000 		.4byte	.LASF164
 2179 0d16 16       		.byte	0x16
 2180 0d17 71       		.byte	0x71
 2181 0d18 03       		.byte	0x3
 2182 0d19 8C0A0000 		.4byte	0xa8c
 2183 0d1d 04       		.byte	0x4
 2184 0d1e 02       		.uleb128 0x2
 2185 0d1f 600B0000 		.4byte	.LASF165
 2186 0d23 16       		.byte	0x16
 2187 0d24 71       		.byte	0x71
 2188 0d25 03       		.byte	0x3
 2189 0d26 AA0A0000 		.4byte	0xaaa
 2190 0d2a 08       		.byte	0x8
 2191 0d2b 0A       		.uleb128 0xa
 2192 0d2c 70757400 		.ascii	"put\000"
 2193 0d30 16       		.byte	0x16
 2194 0d31 71       		.byte	0x71
 2195 0d32 03       		.byte	0x3
 2196 0d33 C30A0000 		.4byte	0xac3
 2197 0d37 0C       		.byte	0xc
 2198 0d38 0A       		.uleb128 0xa
 2199 0d39 67657400 		.ascii	"get\000"
 2200 0d3d 16       		.byte	0x16
 2201 0d3e 71       		.byte	0x71
 2202 0d3f 03       		.byte	0x3
 2203 0d40 D70A0000 		.4byte	0xad7
 2204 0d44 10       		.byte	0x10
 2205 0d45 02       		.uleb128 0x2
 2206 0d46 4F050000 		.4byte	.LASF166
 2207 0d4a 16       		.byte	0x16
 2208 0d4b 71       		.byte	0x71
 2209 0d4c 03       		.byte	0x3
 2210 0d4d F50A0000 		.4byte	0xaf5
 2211 0d51 14       		.byte	0x14
 2212 0d52 02       		.uleb128 0x2
 2213 0d53 790B0000 		.4byte	.LASF167
 2214 0d57 16       		.byte	0x16
 2215 0d58 71       		.byte	0x71
 2216 0d59 03       		.byte	0x3
 2217 0d5a 0E0B0000 		.4byte	0xb0e
ARM GAS  C:\Users\DEVELO~1\AppData\Local\Temp\cccT88qa.s 			page 40


 2218 0d5e 18       		.byte	0x18
 2219 0d5f 02       		.uleb128 0x2
 2220 0d60 92020000 		.4byte	.LASF168
 2221 0d64 16       		.byte	0x16
 2222 0d65 71       		.byte	0x71
 2223 0d66 03       		.byte	0x3
 2224 0d67 310B0000 		.4byte	0xb31
 2225 0d6b 1C       		.byte	0x1c
 2226 0d6c 02       		.uleb128 0x2
 2227 0d6d 21080000 		.4byte	.LASF169
 2228 0d71 16       		.byte	0x16
 2229 0d72 71       		.byte	0x71
 2230 0d73 03       		.byte	0x3
 2231 0d74 540B0000 		.4byte	0xb54
 2232 0d78 20       		.byte	0x20
 2233 0d79 0A       		.uleb128 0xa
 2234 0d7a 63746C00 		.ascii	"ctl\000"
 2235 0d7e 16       		.byte	0x16
 2236 0d7f 71       		.byte	0x71
 2237 0d80 03       		.byte	0x3
 2238 0d81 720B0000 		.4byte	0xb72
 2239 0d85 24       		.byte	0x24
 2240 0d86 00       		.byte	0
 2241 0d87 0E       		.uleb128 0xe
 2242 0d88 F70C0000 		.4byte	0xcf7
 2243 0d8c 04       		.uleb128 0x4
 2244 0d8d 870D0000 		.4byte	0xd87
 2245 0d91 04       		.uleb128 0x4
 2246 0d92 CE060000 		.4byte	0x6ce
 2247 0d96 16       		.uleb128 0x16
 2248 0d97 22020000 		.4byte	.LASF170
 2249 0d9b 18       		.byte	0x18
 2250 0d9c 50       		.byte	0x50
 2251 0d9d A70D0000 		.4byte	0xda7
 2252 0da1 05       		.uleb128 0x5
 2253 0da2 E9000000 		.4byte	0xe9
 2254 0da6 00       		.byte	0
 2255 0da7 16       		.uleb128 0x16
 2256 0da8 AF090000 		.4byte	.LASF171
 2257 0dac 18       		.byte	0x18
 2258 0dad 4F       		.byte	0x4f
 2259 0dae BD0D0000 		.4byte	0xdbd
 2260 0db2 05       		.uleb128 0x5
 2261 0db3 E9000000 		.4byte	0xe9
 2262 0db7 05       		.uleb128 0x5
 2263 0db8 E9000000 		.4byte	0xe9
 2264 0dbc 00       		.byte	0
 2265 0dbd 23       		.uleb128 0x23
 2266 0dbe 78090000 		.4byte	.LASF172
 2267 0dc2 19       		.byte	0x19
 2268 0dc3 1203     		.2byte	0x312
 2269 0dc5 23       		.uleb128 0x23
 2270 0dc6 94040000 		.4byte	.LASF173
 2271 0dca 11       		.byte	0x11
 2272 0dcb F402     		.2byte	0x2f4
 2273 0dcd 16       		.uleb128 0x16
 2274 0dce CA0C0000 		.4byte	.LASF174
ARM GAS  C:\Users\DEVELO~1\AppData\Local\Temp\cccT88qa.s 			page 41


 2275 0dd2 0F       		.byte	0xf
 2276 0dd3 FF       		.byte	0xff
 2277 0dd4 DE0D0000 		.4byte	0xdde
 2278 0dd8 05       		.uleb128 0x5
 2279 0dd9 66030000 		.4byte	0x366
 2280 0ddd 00       		.byte	0
 2281 0dde 2E       		.uleb128 0x2e
 2282 0ddf 92000000 		.4byte	.LASF175
 2283 0de3 17       		.byte	0x17
 2284 0de4 B702     		.2byte	0x2b7
 2285 0de6 08       		.byte	0x8
 2286 0de7 F10D0000 		.4byte	0xdf1
 2287 0deb 05       		.uleb128 0x5
 2288 0dec F10D0000 		.4byte	0xdf1
 2289 0df0 00       		.byte	0
 2290 0df1 04       		.uleb128 0x4
 2291 0df2 5F0C0000 		.4byte	0xc5f
 2292 0df6 16       		.uleb128 0x16
 2293 0df7 970D0000 		.4byte	.LASF176
 2294 0dfb 0F       		.byte	0xf
 2295 0dfc FE       		.byte	0xfe
 2296 0dfd 070E0000 		.4byte	0xe07
 2297 0e01 05       		.uleb128 0x5
 2298 0e02 66030000 		.4byte	0x366
 2299 0e06 00       		.byte	0
 2300 0e07 13       		.uleb128 0x13
 2301 0e08 8C0B0000 		.4byte	.LASF177
 2302 0e0c 04       		.byte	0x4
 2303 0e0d AF       		.byte	0xaf
 2304 0e0e 06       		.byte	0x6
 2305 0e0f 00000000 		.4byte	.LFB516
 2306 0e13 1E000000 		.4byte	.LFE516-.LFB516
 2307 0e17 01       		.uleb128 0x1
 2308 0e18 9C       		.byte	0x9c
 2309 0e19 A10E0000 		.4byte	0xea1
 2310 0e1d 17       		.uleb128 0x17
 2311 0e1e 42100000 		.4byte	0x1042
 2312 0e22 08000000 		.4byte	.LBI170
 2313 0e26 05       		.byte	.LVU121
 2314 0e27 08000000 		.4byte	.LBB170
 2315 0e2b 06000000 		.4byte	.LBE170-.LBB170
 2316 0e2f CF       		.byte	0xcf
 2317 0e30 440E0000 		.4byte	0xe44
 2318 0e34 11       		.uleb128 0x11
 2319 0e35 0E000000 		.4byte	.LVL17
 2320 0e39 960D0000 		.4byte	0xd96
 2321 0e3d 08       		.uleb128 0x8
 2322 0e3e 01       		.uleb128 0x1
 2323 0e3f 50       		.byte	0x50
 2324 0e40 01       		.uleb128 0x1
 2325 0e41 4C       		.byte	0x4c
 2326 0e42 00       		.byte	0
 2327 0e43 00       		.byte	0
 2328 0e44 17       		.uleb128 0x17
 2329 0e45 BF110000 		.4byte	0x11bf
 2330 0e49 0E000000 		.4byte	.LBI172
 2331 0e4d 0A       		.byte	.LVU133
ARM GAS  C:\Users\DEVELO~1\AppData\Local\Temp\cccT88qa.s 			page 42


 2332 0e4e 0E000000 		.4byte	.LBB172
 2333 0e52 06000000 		.4byte	.LBE172-.LBB172
 2334 0e56 DA       		.byte	0xda
 2335 0e57 6C0E0000 		.4byte	0xe6c
 2336 0e5b 11       		.uleb128 0x11
 2337 0e5c 14000000 		.4byte	.LVL18
 2338 0e60 960D0000 		.4byte	0xd96
 2339 0e64 08       		.uleb128 0x8
 2340 0e65 01       		.uleb128 0x1
 2341 0e66 50       		.byte	0x50
 2342 0e67 02       		.uleb128 0x2
 2343 0e68 08       		.byte	0x8
 2344 0e69 25       		.byte	0x25
 2345 0e6a 00       		.byte	0
 2346 0e6b 00       		.byte	0
 2347 0e6c 24       		.uleb128 0x24
 2348 0e6d 27110000 		.4byte	0x1127
 2349 0e71 14000000 		.4byte	.LBI174
 2350 0e75 04       		.byte	.LVU139
 2351 0e76 18000000 		.4byte	.LLRL1
 2352 0e7a DE       		.byte	0xde
 2353 0e7b 900E0000 		.4byte	0xe90
 2354 0e7f 25       		.uleb128 0x25
 2355 0e80 1E000000 		.4byte	.LVL19
 2356 0e84 960D0000 		.4byte	0xd96
 2357 0e88 08       		.uleb128 0x8
 2358 0e89 01       		.uleb128 0x1
 2359 0e8a 50       		.byte	0x50
 2360 0e8b 02       		.uleb128 0x2
 2361 0e8c 08       		.byte	0x8
 2362 0e8d 35       		.byte	0x35
 2363 0e8e 00       		.byte	0
 2364 0e8f 00       		.byte	0
 2365 0e90 11       		.uleb128 0x11
 2366 0e91 08000000 		.4byte	.LVL16
 2367 0e95 960D0000 		.4byte	0xd96
 2368 0e99 08       		.uleb128 0x8
 2369 0e9a 01       		.uleb128 0x1
 2370 0e9b 50       		.byte	0x50
 2371 0e9c 02       		.uleb128 0x2
 2372 0e9d 08       		.byte	0x8
 2373 0e9e 7A       		.byte	0x7a
 2374 0e9f 00       		.byte	0
 2375 0ea0 00       		.byte	0
 2376 0ea1 13       		.uleb128 0x13
 2377 0ea2 23070000 		.4byte	.LASF178
 2378 0ea6 04       		.byte	0x4
 2379 0ea7 72       		.byte	0x72
 2380 0ea8 06       		.byte	0x6
 2381 0ea9 00000000 		.4byte	.LFB515
 2382 0ead 26000000 		.4byte	.LFE515-.LFB515
 2383 0eb1 01       		.uleb128 0x1
 2384 0eb2 9C       		.byte	0x9c
 2385 0eb3 4F0F0000 		.4byte	0xf4f
 2386 0eb7 17       		.uleb128 0x17
 2387 0eb8 49100000 		.4byte	0x1049
 2388 0ebc 0A000000 		.4byte	.LBI162
ARM GAS  C:\Users\DEVELO~1\AppData\Local\Temp\cccT88qa.s 			page 43


 2389 0ec0 05       		.byte	.LVU75
 2390 0ec1 0A000000 		.4byte	.LBB162
 2391 0ec5 08000000 		.4byte	.LBE162-.LBB162
 2392 0ec9 92       		.byte	0x92
 2393 0eca E30E0000 		.4byte	0xee3
 2394 0ece 11       		.uleb128 0x11
 2395 0ecf 12000000 		.4byte	.LVL13
 2396 0ed3 A70D0000 		.4byte	0xda7
 2397 0ed7 08       		.uleb128 0x8
 2398 0ed8 01       		.uleb128 0x1
 2399 0ed9 50       		.byte	0x50
 2400 0eda 01       		.uleb128 0x1
 2401 0edb 4C       		.byte	0x4c
 2402 0edc 08       		.uleb128 0x8
 2403 0edd 01       		.uleb128 0x1
 2404 0ede 51       		.byte	0x51
 2405 0edf 01       		.uleb128 0x1
 2406 0ee0 37       		.byte	0x37
 2407 0ee1 00       		.byte	0
 2408 0ee2 00       		.byte	0
 2409 0ee3 17       		.uleb128 0x17
 2410 0ee4 C6110000 		.4byte	0x11c6
 2411 0ee8 12000000 		.4byte	.LBI164
 2412 0eec 0A       		.byte	.LVU87
 2413 0eed 12000000 		.4byte	.LBB164
 2414 0ef1 08000000 		.4byte	.LBE164-.LBB164
 2415 0ef5 9D       		.byte	0x9d
 2416 0ef6 100F0000 		.4byte	0xf10
 2417 0efa 11       		.uleb128 0x11
 2418 0efb 1A000000 		.4byte	.LVL14
 2419 0eff A70D0000 		.4byte	0xda7
 2420 0f03 08       		.uleb128 0x8
 2421 0f04 01       		.uleb128 0x1
 2422 0f05 50       		.byte	0x50
 2423 0f06 02       		.uleb128 0x2
 2424 0f07 08       		.byte	0x8
 2425 0f08 25       		.byte	0x25
 2426 0f09 08       		.uleb128 0x8
 2427 0f0a 01       		.uleb128 0x1
 2428 0f0b 51       		.byte	0x51
 2429 0f0c 01       		.uleb128 0x1
 2430 0f0d 3C       		.byte	0x3c
 2431 0f0e 00       		.byte	0
 2432 0f0f 00       		.byte	0
 2433 0f10 24       		.uleb128 0x24
 2434 0f11 2E110000 		.4byte	0x112e
 2435 0f15 1A000000 		.4byte	.LBI166
 2436 0f19 04       		.byte	.LVU93
 2437 0f1a 0C000000 		.4byte	.LLRL0
 2438 0f1e A1       		.byte	0xa1
 2439 0f1f 390F0000 		.4byte	0xf39
 2440 0f23 25       		.uleb128 0x25
 2441 0f24 26000000 		.4byte	.LVL15
 2442 0f28 A70D0000 		.4byte	0xda7
 2443 0f2c 08       		.uleb128 0x8
 2444 0f2d 01       		.uleb128 0x1
 2445 0f2e 50       		.byte	0x50
ARM GAS  C:\Users\DEVELO~1\AppData\Local\Temp\cccT88qa.s 			page 44


 2446 0f2f 02       		.uleb128 0x2
 2447 0f30 08       		.byte	0x8
 2448 0f31 35       		.byte	0x35
 2449 0f32 08       		.uleb128 0x8
 2450 0f33 01       		.uleb128 0x1
 2451 0f34 51       		.byte	0x51
 2452 0f35 01       		.uleb128 0x1
 2453 0f36 3C       		.byte	0x3c
 2454 0f37 00       		.byte	0
 2455 0f38 00       		.byte	0
 2456 0f39 11       		.uleb128 0x11
 2457 0f3a 0A000000 		.4byte	.LVL12
 2458 0f3e A70D0000 		.4byte	0xda7
 2459 0f42 08       		.uleb128 0x8
 2460 0f43 01       		.uleb128 0x1
 2461 0f44 50       		.byte	0x50
 2462 0f45 02       		.uleb128 0x2
 2463 0f46 08       		.byte	0x8
 2464 0f47 7A       		.byte	0x7a
 2465 0f48 08       		.uleb128 0x8
 2466 0f49 01       		.uleb128 0x1
 2467 0f4a 51       		.byte	0x51
 2468 0f4b 01       		.uleb128 0x1
 2469 0f4c 39       		.byte	0x39
 2470 0f4d 00       		.byte	0
 2471 0f4e 00       		.byte	0
 2472 0f4f 01       		.uleb128 0x1
 2473 0f50 A90D0000 		.4byte	.LASF179
 2474 0f54 1A       		.byte	0x1a
 2475 0f55 54       		.byte	0x54
 2476 0f56 01       		.uleb128 0x1
 2477 0f57 32080000 		.4byte	.LASF180
 2478 0f5b 1A       		.byte	0x1a
 2479 0f5c 4E       		.byte	0x4e
 2480 0f5d 01       		.uleb128 0x1
 2481 0f5e 10080000 		.4byte	.LASF181
 2482 0f62 1B       		.byte	0x1b
 2483 0f63 54       		.byte	0x54
 2484 0f64 01       		.uleb128 0x1
 2485 0f65 3B050000 		.4byte	.LASF182
 2486 0f69 1B       		.byte	0x1b
 2487 0f6a 4E       		.byte	0x4e
 2488 0f6b 01       		.uleb128 0x1
 2489 0f6c 55030000 		.4byte	.LASF183
 2490 0f70 1C       		.byte	0x1c
 2491 0f71 54       		.byte	0x54
 2492 0f72 01       		.uleb128 0x1
 2493 0f73 48010000 		.4byte	.LASF184
 2494 0f77 1C       		.byte	0x1c
 2495 0f78 4E       		.byte	0x4e
 2496 0f79 01       		.uleb128 0x1
 2497 0f7a 94070000 		.4byte	.LASF185
 2498 0f7e 1D       		.byte	0x1d
 2499 0f7f AC       		.byte	0xac
 2500 0f80 01       		.uleb128 0x1
 2501 0f81 C3060000 		.4byte	.LASF186
 2502 0f85 1D       		.byte	0x1d
ARM GAS  C:\Users\DEVELO~1\AppData\Local\Temp\cccT88qa.s 			page 45


 2503 0f86 99       		.byte	0x99
 2504 0f87 01       		.uleb128 0x1
 2505 0f88 39020000 		.4byte	.LASF187
 2506 0f8c 1E       		.byte	0x1e
 2507 0f8d 54       		.byte	0x54
 2508 0f8e 01       		.uleb128 0x1
 2509 0f8f 7B020000 		.4byte	.LASF188
 2510 0f93 1E       		.byte	0x1e
 2511 0f94 4E       		.byte	0x4e
 2512 0f95 01       		.uleb128 0x1
 2513 0f96 150C0000 		.4byte	.LASF189
 2514 0f9a 1F       		.byte	0x1f
 2515 0f9b 54       		.byte	0x54
 2516 0f9c 01       		.uleb128 0x1
 2517 0f9d 640D0000 		.4byte	.LASF190
 2518 0fa1 1F       		.byte	0x1f
 2519 0fa2 4E       		.byte	0x4e
 2520 0fa3 01       		.uleb128 0x1
 2521 0fa4 0A040000 		.4byte	.LASF191
 2522 0fa8 20       		.byte	0x20
 2523 0fa9 54       		.byte	0x54
 2524 0faa 01       		.uleb128 0x1
 2525 0fab F20A0000 		.4byte	.LASF192
 2526 0faf 20       		.byte	0x20
 2527 0fb0 4E       		.byte	0x4e
 2528 0fb1 01       		.uleb128 0x1
 2529 0fb2 5B020000 		.4byte	.LASF193
 2530 0fb6 21       		.byte	0x21
 2531 0fb7 54       		.byte	0x54
 2532 0fb8 01       		.uleb128 0x1
 2533 0fb9 71070000 		.4byte	.LASF194
 2534 0fbd 21       		.byte	0x21
 2535 0fbe 4E       		.byte	0x4e
 2536 0fbf 01       		.uleb128 0x1
 2537 0fc0 5D0C0000 		.4byte	.LASF195
 2538 0fc4 22       		.byte	0x22
 2539 0fc5 54       		.byte	0x54
 2540 0fc6 01       		.uleb128 0x1
 2541 0fc7 63040000 		.4byte	.LASF196
 2542 0fcb 22       		.byte	0x22
 2543 0fcc 4E       		.byte	0x4e
 2544 0fcd 13       		.uleb128 0x13
 2545 0fce 89020000 		.4byte	.LASF197
 2546 0fd2 03       		.byte	0x3
 2547 0fd3 64       		.byte	0x64
 2548 0fd4 01       		.byte	0x1
 2549 0fd5 00000000 		.4byte	.LFB496
 2550 0fd9 20000000 		.4byte	.LFE496-.LFB496
 2551 0fdd 01       		.uleb128 0x1
 2552 0fde 9C       		.byte	0x9c
 2553 0fdf 2D100000 		.4byte	0x102d
 2554 0fe3 1F       		.uleb128 0x1f
 2555 0fe4 5B0D0000 		.4byte	.LASF215
 2556 0fe8 3D100000 		.4byte	0x103d
 2557 0fec 05       		.uleb128 0x5
 2558 0fed 03       		.byte	0x3
 2559 0fee 00000000 		.4byte	__func__.0
ARM GAS  C:\Users\DEVELO~1\AppData\Local\Temp\cccT88qa.s 			page 46


 2560 0ff2 12       		.uleb128 0x12
 2561 0ff3 0A000000 		.4byte	.LVL8
 2562 0ff7 F60D0000 		.4byte	0xdf6
 2563 0ffb 06100000 		.4byte	0x1006
 2564 0fff 08       		.uleb128 0x8
 2565 1000 01       		.uleb128 0x1
 2566 1001 50       		.byte	0x50
 2567 1002 02       		.uleb128 0x2
 2568 1003 74       		.byte	0x74
 2569 1004 00       		.sleb128 0
 2570 1005 00       		.byte	0
 2571 1006 20       		.uleb128 0x20
 2572 1007 0E000000 		.4byte	.LVL9
 2573 100b BD0D0000 		.4byte	0xdbd
 2574 100f 12       		.uleb128 0x12
 2575 1010 14000000 		.4byte	.LVL10
 2576 1014 CD0D0000 		.4byte	0xdcd
 2577 1018 23100000 		.4byte	0x1023
 2578 101c 08       		.uleb128 0x8
 2579 101d 01       		.uleb128 0x1
 2580 101e 50       		.byte	0x50
 2581 101f 02       		.uleb128 0x2
 2582 1020 74       		.byte	0x74
 2583 1021 00       		.sleb128 0
 2584 1022 00       		.byte	0
 2585 1023 21       		.uleb128 0x21
 2586 1024 1C000000 		.4byte	.LVL11
 2587 1028 C50D0000 		.4byte	0xdc5
 2588 102c 00       		.byte	0
 2589 102d 1B       		.uleb128 0x1b
 2590 102e 77030000 		.4byte	0x377
 2591 1032 3D100000 		.4byte	0x103d
 2592 1036 1C       		.uleb128 0x1c
 2593 1037 3E000000 		.4byte	0x3e
 2594 103b 08       		.byte	0x8
 2595 103c 00       		.byte	0
 2596 103d 0E       		.uleb128 0xe
 2597 103e 2D100000 		.4byte	0x102d
 2598 1042 01       		.uleb128 0x1
 2599 1043 2A060000 		.4byte	.LASF198
 2600 1047 03       		.byte	0x3
 2601 1048 54       		.byte	0x54
 2602 1049 01       		.uleb128 0x1
 2603 104a 3F000000 		.4byte	.LASF199
 2604 104e 03       		.byte	0x3
 2605 104f 4E       		.byte	0x4e
 2606 1050 01       		.uleb128 0x1
 2607 1051 D4000000 		.4byte	.LASF200
 2608 1055 23       		.byte	0x23
 2609 1056 5D       		.byte	0x5d
 2610 1057 01       		.uleb128 0x1
 2611 1058 C40B0000 		.4byte	.LASF201
 2612 105c 23       		.byte	0x23
 2613 105d 56       		.byte	0x56
 2614 105e 01       		.uleb128 0x1
 2615 105f 1A030000 		.4byte	.LASF202
 2616 1063 24       		.byte	0x24
ARM GAS  C:\Users\DEVELO~1\AppData\Local\Temp\cccT88qa.s 			page 47


 2617 1064 45       		.byte	0x45
 2618 1065 01       		.uleb128 0x1
 2619 1066 E4000000 		.4byte	.LASF203
 2620 106a 24       		.byte	0x24
 2621 106b 3F       		.byte	0x3f
 2622 106c 01       		.uleb128 0x1
 2623 106d 720D0000 		.4byte	.LASF204
 2624 1071 25       		.byte	0x25
 2625 1072 45       		.byte	0x45
 2626 1073 01       		.uleb128 0x1
 2627 1074 180D0000 		.4byte	.LASF205
 2628 1078 25       		.byte	0x25
 2629 1079 3F       		.byte	0x3f
 2630 107a 01       		.uleb128 0x1
 2631 107b 9E030000 		.4byte	.LASF206
 2632 107f 26       		.byte	0x26
 2633 1080 45       		.byte	0x45
 2634 1081 01       		.uleb128 0x1
 2635 1082 A3010000 		.4byte	.LASF207
 2636 1086 26       		.byte	0x26
 2637 1087 3F       		.byte	0x3f
 2638 1088 01       		.uleb128 0x1
 2639 1089 3A060000 		.4byte	.LASF208
 2640 108d 27       		.byte	0x27
 2641 108e 45       		.byte	0x45
 2642 108f 01       		.uleb128 0x1
 2643 1090 B30C0000 		.4byte	.LASF209
 2644 1094 27       		.byte	0x27
 2645 1095 3F       		.byte	0x3f
 2646 1096 01       		.uleb128 0x1
 2647 1097 60080000 		.4byte	.LASF210
 2648 109b 28       		.byte	0x28
 2649 109c 45       		.byte	0x45
 2650 109d 01       		.uleb128 0x1
 2651 109e C7090000 		.4byte	.LASF211
 2652 10a2 28       		.byte	0x28
 2653 10a3 3F       		.byte	0x3f
 2654 10a4 01       		.uleb128 0x1
 2655 10a5 E00A0000 		.4byte	.LASF212
 2656 10a9 29       		.byte	0x29
 2657 10aa 45       		.byte	0x45
 2658 10ab 01       		.uleb128 0x1
 2659 10ac B40B0000 		.4byte	.LASF213
 2660 10b0 29       		.byte	0x29
 2661 10b1 3F       		.byte	0x3f
 2662 10b2 13       		.uleb128 0x13
 2663 10b3 01090000 		.4byte	.LASF214
 2664 10b7 02       		.byte	0x2
 2665 10b8 55       		.byte	0x55
 2666 10b9 01       		.byte	0x1
 2667 10ba 00000000 		.4byte	.LFB479
 2668 10be 28000000 		.4byte	.LFE479-.LFB479
 2669 10c2 01       		.uleb128 0x1
 2670 10c3 9C       		.byte	0x9c
 2671 10c4 12110000 		.4byte	0x1112
 2672 10c8 1F       		.uleb128 0x1f
 2673 10c9 5B0D0000 		.4byte	.LASF215
ARM GAS  C:\Users\DEVELO~1\AppData\Local\Temp\cccT88qa.s 			page 48


 2674 10cd 22110000 		.4byte	0x1122
 2675 10d1 05       		.uleb128 0x5
 2676 10d2 03       		.byte	0x3
 2677 10d3 00000000 		.4byte	__func__.1
 2678 10d7 12       		.uleb128 0x12
 2679 10d8 0A000000 		.4byte	.LVL4
 2680 10dc F60D0000 		.4byte	0xdf6
 2681 10e0 EB100000 		.4byte	0x10eb
 2682 10e4 08       		.uleb128 0x8
 2683 10e5 01       		.uleb128 0x1
 2684 10e6 50       		.byte	0x50
 2685 10e7 02       		.uleb128 0x2
 2686 10e8 74       		.byte	0x74
 2687 10e9 00       		.sleb128 0
 2688 10ea 00       		.byte	0
 2689 10eb 20       		.uleb128 0x20
 2690 10ec 10000000 		.4byte	.LVL5
 2691 10f0 DE0D0000 		.4byte	0xdde
 2692 10f4 12       		.uleb128 0x12
 2693 10f5 16000000 		.4byte	.LVL6
 2694 10f9 CD0D0000 		.4byte	0xdcd
 2695 10fd 08110000 		.4byte	0x1108
 2696 1101 08       		.uleb128 0x8
 2697 1102 01       		.uleb128 0x1
 2698 1103 50       		.byte	0x50
 2699 1104 02       		.uleb128 0x2
 2700 1105 74       		.byte	0x74
 2701 1106 00       		.sleb128 0
 2702 1107 00       		.byte	0
 2703 1108 21       		.uleb128 0x21
 2704 1109 1E000000 		.4byte	.LVL7
 2705 110d C50D0000 		.4byte	0xdc5
 2706 1111 00       		.byte	0
 2707 1112 1B       		.uleb128 0x1b
 2708 1113 77030000 		.4byte	0x377
 2709 1117 22110000 		.4byte	0x1122
 2710 111b 1C       		.uleb128 0x1c
 2711 111c 3E000000 		.4byte	0x3e
 2712 1120 09       		.byte	0x9
 2713 1121 00       		.byte	0
 2714 1122 0E       		.uleb128 0xe
 2715 1123 12110000 		.4byte	0x1112
 2716 1127 01       		.uleb128 0x1
 2717 1128 EB0C0000 		.4byte	.LASF216
 2718 112c 02       		.byte	0x2
 2719 112d 45       		.byte	0x45
 2720 112e 01       		.uleb128 0x1
 2721 112f 66030000 		.4byte	.LASF217
 2722 1133 02       		.byte	0x2
 2723 1134 3F       		.byte	0x3f
 2724 1135 01       		.uleb128 0x1
 2725 1136 56070000 		.4byte	.LASF218
 2726 113a 2A       		.byte	0x2a
 2727 113b 45       		.byte	0x45
 2728 113c 01       		.uleb128 0x1
 2729 113d CF0D0000 		.4byte	.LASF219
 2730 1141 2A       		.byte	0x2a
ARM GAS  C:\Users\DEVELO~1\AppData\Local\Temp\cccT88qa.s 			page 49


 2731 1142 3F       		.byte	0x3f
 2732 1143 01       		.uleb128 0x1
 2733 1144 0B090000 		.4byte	.LASF220
 2734 1148 2B       		.byte	0x2b
 2735 1149 45       		.byte	0x45
 2736 114a 01       		.uleb128 0x1
 2737 114b 76080000 		.4byte	.LASF221
 2738 114f 2B       		.byte	0x2b
 2739 1150 3F       		.byte	0x3f
 2740 1151 01       		.uleb128 0x1
 2741 1152 C9040000 		.4byte	.LASF222
 2742 1156 2C       		.byte	0x2c
 2743 1157 45       		.byte	0x45
 2744 1158 01       		.uleb128 0x1
 2745 1159 76050000 		.4byte	.LASF223
 2746 115d 2C       		.byte	0x2c
 2747 115e 3F       		.byte	0x3f
 2748 115f 13       		.uleb128 0x13
 2749 1160 24050000 		.4byte	.LASF224
 2750 1164 01       		.byte	0x1
 2751 1165 55       		.byte	0x55
 2752 1166 01       		.byte	0x1
 2753 1167 00000000 		.4byte	.LFB470
 2754 116b 28000000 		.4byte	.LFE470-.LFB470
 2755 116f 01       		.uleb128 0x1
 2756 1170 9C       		.byte	0x9c
 2757 1171 BF110000 		.4byte	0x11bf
 2758 1175 1F       		.uleb128 0x1f
 2759 1176 5B0D0000 		.4byte	.LASF215
 2760 117a 3D100000 		.4byte	0x103d
 2761 117e 05       		.uleb128 0x5
 2762 117f 03       		.byte	0x3
 2763 1180 00000000 		.4byte	__func__.2
 2764 1184 12       		.uleb128 0x12
 2765 1185 0A000000 		.4byte	.LVL0
 2766 1189 F60D0000 		.4byte	0xdf6
 2767 118d 98110000 		.4byte	0x1198
 2768 1191 08       		.uleb128 0x8
 2769 1192 01       		.uleb128 0x1
 2770 1193 50       		.byte	0x50
 2771 1194 02       		.uleb128 0x2
 2772 1195 74       		.byte	0x74
 2773 1196 00       		.sleb128 0
 2774 1197 00       		.byte	0
 2775 1198 20       		.uleb128 0x20
 2776 1199 10000000 		.4byte	.LVL1
 2777 119d DE0D0000 		.4byte	0xdde
 2778 11a1 12       		.uleb128 0x12
 2779 11a2 16000000 		.4byte	.LVL2
 2780 11a6 CD0D0000 		.4byte	0xdcd
 2781 11aa B5110000 		.4byte	0x11b5
 2782 11ae 08       		.uleb128 0x8
 2783 11af 01       		.uleb128 0x1
 2784 11b0 50       		.byte	0x50
 2785 11b1 02       		.uleb128 0x2
 2786 11b2 74       		.byte	0x74
 2787 11b3 00       		.sleb128 0
ARM GAS  C:\Users\DEVELO~1\AppData\Local\Temp\cccT88qa.s 			page 50


 2788 11b4 00       		.byte	0
 2789 11b5 21       		.uleb128 0x21
 2790 11b6 1E000000 		.4byte	.LVL3
 2791 11ba C50D0000 		.4byte	0xdc5
 2792 11be 00       		.byte	0
 2793 11bf 01       		.uleb128 0x1
 2794 11c0 850D0000 		.4byte	.LASF225
 2795 11c4 01       		.byte	0x1
 2796 11c5 45       		.byte	0x45
 2797 11c6 01       		.uleb128 0x1
 2798 11c7 93010000 		.4byte	.LASF226
 2799 11cb 01       		.byte	0x1
 2800 11cc 3F       		.byte	0x3f
 2801 11cd 01       		.uleb128 0x1
 2802 11ce 49020000 		.4byte	.LASF227
 2803 11d2 2D       		.byte	0x2d
 2804 11d3 4C       		.byte	0x4c
 2805 11d4 01       		.uleb128 0x1
 2806 11d5 250C0000 		.4byte	.LASF228
 2807 11d9 2D       		.byte	0x2d
 2808 11da 46       		.byte	0x46
 2809 11db 01       		.uleb128 0x1
 2810 11dc 460C0000 		.4byte	.LASF229
 2811 11e0 2E       		.byte	0x2e
 2812 11e1 4C       		.byte	0x4c
 2813 11e2 01       		.uleb128 0x1
 2814 11e3 B2080000 		.4byte	.LASF230
 2815 11e7 2E       		.byte	0x2e
 2816 11e8 46       		.byte	0x46
 2817 11e9 01       		.uleb128 0x1
 2818 11ea 57010000 		.4byte	.LASF231
 2819 11ee 2F       		.byte	0x2f
 2820 11ef 4C       		.byte	0x4c
 2821 11f0 01       		.uleb128 0x1
 2822 11f1 F3070000 		.4byte	.LASF232
 2823 11f5 2F       		.byte	0x2f
 2824 11f6 46       		.byte	0x46
 2825 11f7 01       		.uleb128 0x1
 2826 11f8 68060000 		.4byte	.LASF233
 2827 11fc 30       		.byte	0x30
 2828 11fd 4C       		.byte	0x4c
 2829 11fe 01       		.uleb128 0x1
 2830 11ff 3E0B0000 		.4byte	.LASF234
 2831 1203 30       		.byte	0x30
 2832 1204 46       		.byte	0x46
 2833 1205 01       		.uleb128 0x1
 2834 1206 2D010000 		.4byte	.LASF235
 2835 120a 31       		.byte	0x31
 2836 120b 4C       		.byte	0x4c
 2837 120c 01       		.uleb128 0x1
 2838 120d 9B060000 		.4byte	.LASF236
 2839 1211 31       		.byte	0x31
 2840 1212 46       		.byte	0x46
 2841 1213 01       		.uleb128 0x1
 2842 1214 4E0B0000 		.4byte	.LASF237
 2843 1218 32       		.byte	0x32
 2844 1219 4C       		.byte	0x4c
ARM GAS  C:\Users\DEVELO~1\AppData\Local\Temp\cccT88qa.s 			page 51


 2845 121a 01       		.uleb128 0x1
 2846 121b B9040000 		.4byte	.LASF238
 2847 121f 32       		.byte	0x32
 2848 1220 46       		.byte	0x46
 2849 1221 01       		.uleb128 0x1
 2850 1222 0A070000 		.4byte	.LASF239
 2851 1226 33       		.byte	0x33
 2852 1227 3D       		.byte	0x3d
 2853 1228 01       		.uleb128 0x1
 2854 1229 FA010000 		.4byte	.LASF240
 2855 122d 33       		.byte	0x33
 2856 122e 37       		.byte	0x37
 2857 122f 01       		.uleb128 0x1
 2858 1230 00000000 		.4byte	.LASF241
 2859 1234 34       		.byte	0x34
 2860 1235 3D       		.byte	0x3d
 2861 1236 01       		.uleb128 0x1
 2862 1237 25090000 		.4byte	.LASF242
 2863 123b 34       		.byte	0x34
 2864 123c 37       		.byte	0x37
 2865 123d 01       		.uleb128 0x1
 2866 123e A10A0000 		.4byte	.LASF243
 2867 1242 35       		.byte	0x35
 2868 1243 3D       		.byte	0x3d
 2869 1244 01       		.uleb128 0x1
 2870 1245 F8050000 		.4byte	.LASF244
 2871 1249 35       		.byte	0x35
 2872 124a 37       		.byte	0x37
 2873 124b 01       		.uleb128 0x1
 2874 124c A2050000 		.4byte	.LASF245
 2875 1250 36       		.byte	0x36
 2876 1251 3D       		.byte	0x3d
 2877 1252 01       		.uleb128 0x1
 2878 1253 6B020000 		.4byte	.LASF246
 2879 1257 36       		.byte	0x36
 2880 1258 37       		.byte	0x37
 2881 1259 01       		.uleb128 0x1
 2882 125a 28000000 		.4byte	.LASF247
 2883 125e 37       		.byte	0x37
 2884 125f 3D       		.byte	0x3d
 2885 1260 01       		.uleb128 0x1
 2886 1261 2B070000 		.4byte	.LASF248
 2887 1265 37       		.byte	0x37
 2888 1266 37       		.byte	0x37
 2889 1267 01       		.uleb128 0x1
 2890 1268 86080000 		.4byte	.LASF249
 2891 126c 38       		.byte	0x38
 2892 126d 3D       		.byte	0x3d
 2893 126e 01       		.uleb128 0x1
 2894 126f 08060000 		.4byte	.LASF250
 2895 1273 38       		.byte	0x38
 2896 1274 37       		.byte	0x37
 2897 1275 01       		.uleb128 0x1
 2898 1276 F2030000 		.4byte	.LASF251
 2899 127a 39       		.byte	0x39
 2900 127b 3D       		.byte	0x3d
 2901 127c 01       		.uleb128 0x1
ARM GAS  C:\Users\DEVELO~1\AppData\Local\Temp\cccT88qa.s 			page 52


 2902 127d C3000000 		.4byte	.LASF252
 2903 1281 39       		.byte	0x39
 2904 1282 37       		.byte	0x37
 2905 1283 01       		.uleb128 0x1
 2906 1284 EA060000 		.4byte	.LASF253
 2907 1288 3A       		.byte	0x3a
 2908 1289 3D       		.byte	0x3d
 2909 128a 01       		.uleb128 0x1
 2910 128b DD010000 		.4byte	.LASF254
 2911 128f 3A       		.byte	0x3a
 2912 1290 37       		.byte	0x37
 2913 1291 01       		.uleb128 0x1
 2914 1292 CD070000 		.4byte	.LASF255
 2915 1296 3B       		.byte	0x3b
 2916 1297 3D       		.byte	0x3d
 2917 1298 01       		.uleb128 0x1
 2918 1299 DC0C0000 		.4byte	.LASF256
 2919 129d 3B       		.byte	0x3b
 2920 129e 37       		.byte	0x37
 2921 129f 01       		.uleb128 0x1
 2922 12a0 99020000 		.4byte	.LASF257
 2923 12a4 3C       		.byte	0x3c
 2924 12a5 3D       		.byte	0x3d
 2925 12a6 01       		.uleb128 0x1
 2926 12a7 8B0A0000 		.4byte	.LASF258
 2927 12ab 3C       		.byte	0x3c
 2928 12ac 37       		.byte	0x37
 2929 12ad 01       		.uleb128 0x1
 2930 12ae 8E0C0000 		.4byte	.LASF259
 2931 12b2 3D       		.byte	0x3d
 2932 12b3 3D       		.byte	0x3d
 2933 12b4 01       		.uleb128 0x1
 2934 12b5 FB060000 		.4byte	.LASF260
 2935 12b9 3D       		.byte	0x3d
 2936 12ba 37       		.byte	0x37
 2937 12bb 01       		.uleb128 0x1
 2938 12bc 57060000 		.4byte	.LASF261
 2939 12c0 3E       		.byte	0x3e
 2940 12c1 3D       		.byte	0x3d
 2941 12c2 01       		.uleb128 0x1
 2942 12c3 81030000 		.4byte	.LASF262
 2943 12c7 3E       		.byte	0x3e
 2944 12c8 37       		.byte	0x37
 2945 12c9 00       		.byte	0
 2946              		.section	.debug_abbrev,"",%progbits
 2947              	.Ldebug_abbrev0:
 2948 0000 01       		.uleb128 0x1
 2949 0001 2E       		.uleb128 0x2e
 2950 0002 00       		.byte	0
 2951 0003 03       		.uleb128 0x3
 2952 0004 0E       		.uleb128 0xe
 2953 0005 3A       		.uleb128 0x3a
 2954 0006 0B       		.uleb128 0xb
 2955 0007 3B       		.uleb128 0x3b
 2956 0008 0B       		.uleb128 0xb
 2957 0009 39       		.uleb128 0x39
 2958 000a 21       		.uleb128 0x21
ARM GAS  C:\Users\DEVELO~1\AppData\Local\Temp\cccT88qa.s 			page 53


 2959 000b 14       		.sleb128 20
 2960 000c 27       		.uleb128 0x27
 2961 000d 19       		.uleb128 0x19
 2962 000e 20       		.uleb128 0x20
 2963 000f 21       		.uleb128 0x21
 2964 0010 03       		.sleb128 3
 2965 0011 00       		.byte	0
 2966 0012 00       		.byte	0
 2967 0013 02       		.uleb128 0x2
 2968 0014 0D       		.uleb128 0xd
 2969 0015 00       		.byte	0
 2970 0016 03       		.uleb128 0x3
 2971 0017 0E       		.uleb128 0xe
 2972 0018 3A       		.uleb128 0x3a
 2973 0019 0B       		.uleb128 0xb
 2974 001a 3B       		.uleb128 0x3b
 2975 001b 0B       		.uleb128 0xb
 2976 001c 39       		.uleb128 0x39
 2977 001d 0B       		.uleb128 0xb
 2978 001e 49       		.uleb128 0x49
 2979 001f 13       		.uleb128 0x13
 2980 0020 38       		.uleb128 0x38
 2981 0021 0B       		.uleb128 0xb
 2982 0022 00       		.byte	0
 2983 0023 00       		.byte	0
 2984 0024 03       		.uleb128 0x3
 2985 0025 16       		.uleb128 0x16
 2986 0026 00       		.byte	0
 2987 0027 03       		.uleb128 0x3
 2988 0028 0E       		.uleb128 0xe
 2989 0029 3A       		.uleb128 0x3a
 2990 002a 0B       		.uleb128 0xb
 2991 002b 3B       		.uleb128 0x3b
 2992 002c 0B       		.uleb128 0xb
 2993 002d 39       		.uleb128 0x39
 2994 002e 0B       		.uleb128 0xb
 2995 002f 49       		.uleb128 0x49
 2996 0030 13       		.uleb128 0x13
 2997 0031 00       		.byte	0
 2998 0032 00       		.byte	0
 2999 0033 04       		.uleb128 0x4
 3000 0034 0F       		.uleb128 0xf
 3001 0035 00       		.byte	0
 3002 0036 0B       		.uleb128 0xb
 3003 0037 21       		.uleb128 0x21
 3004 0038 04       		.sleb128 4
 3005 0039 49       		.uleb128 0x49
 3006 003a 13       		.uleb128 0x13
 3007 003b 00       		.byte	0
 3008 003c 00       		.byte	0
 3009 003d 05       		.uleb128 0x5
 3010 003e 05       		.uleb128 0x5
 3011 003f 00       		.byte	0
 3012 0040 49       		.uleb128 0x49
 3013 0041 13       		.uleb128 0x13
 3014 0042 00       		.byte	0
 3015 0043 00       		.byte	0
ARM GAS  C:\Users\DEVELO~1\AppData\Local\Temp\cccT88qa.s 			page 54


 3016 0044 06       		.uleb128 0x6
 3017 0045 0D       		.uleb128 0xd
 3018 0046 00       		.byte	0
 3019 0047 03       		.uleb128 0x3
 3020 0048 0E       		.uleb128 0xe
 3021 0049 3A       		.uleb128 0x3a
 3022 004a 0B       		.uleb128 0xb
 3023 004b 3B       		.uleb128 0x3b
 3024 004c 05       		.uleb128 0x5
 3025 004d 39       		.uleb128 0x39
 3026 004e 0B       		.uleb128 0xb
 3027 004f 49       		.uleb128 0x49
 3028 0050 13       		.uleb128 0x13
 3029 0051 38       		.uleb128 0x38
 3030 0052 0B       		.uleb128 0xb
 3031 0053 00       		.byte	0
 3032 0054 00       		.byte	0
 3033 0055 07       		.uleb128 0x7
 3034 0056 0D       		.uleb128 0xd
 3035 0057 00       		.byte	0
 3036 0058 03       		.uleb128 0x3
 3037 0059 08       		.uleb128 0x8
 3038 005a 3A       		.uleb128 0x3a
 3039 005b 0B       		.uleb128 0xb
 3040 005c 3B       		.uleb128 0x3b
 3041 005d 05       		.uleb128 0x5
 3042 005e 39       		.uleb128 0x39
 3043 005f 0B       		.uleb128 0xb
 3044 0060 49       		.uleb128 0x49
 3045 0061 13       		.uleb128 0x13
 3046 0062 38       		.uleb128 0x38
 3047 0063 0B       		.uleb128 0xb
 3048 0064 00       		.byte	0
 3049 0065 00       		.byte	0
 3050 0066 08       		.uleb128 0x8
 3051 0067 49       		.uleb128 0x49
 3052 0068 00       		.byte	0
 3053 0069 02       		.uleb128 0x2
 3054 006a 18       		.uleb128 0x18
 3055 006b 7E       		.uleb128 0x7e
 3056 006c 18       		.uleb128 0x18
 3057 006d 00       		.byte	0
 3058 006e 00       		.byte	0
 3059 006f 09       		.uleb128 0x9
 3060 0070 13       		.uleb128 0x13
 3061 0071 01       		.byte	0x1
 3062 0072 03       		.uleb128 0x3
 3063 0073 0E       		.uleb128 0xe
 3064 0074 0B       		.uleb128 0xb
 3065 0075 0B       		.uleb128 0xb
 3066 0076 3A       		.uleb128 0x3a
 3067 0077 0B       		.uleb128 0xb
 3068 0078 3B       		.uleb128 0x3b
 3069 0079 0B       		.uleb128 0xb
 3070 007a 39       		.uleb128 0x39
 3071 007b 0B       		.uleb128 0xb
 3072 007c 01       		.uleb128 0x1
ARM GAS  C:\Users\DEVELO~1\AppData\Local\Temp\cccT88qa.s 			page 55


 3073 007d 13       		.uleb128 0x13
 3074 007e 00       		.byte	0
 3075 007f 00       		.byte	0
 3076 0080 0A       		.uleb128 0xa
 3077 0081 0D       		.uleb128 0xd
 3078 0082 00       		.byte	0
 3079 0083 03       		.uleb128 0x3
 3080 0084 08       		.uleb128 0x8
 3081 0085 3A       		.uleb128 0x3a
 3082 0086 0B       		.uleb128 0xb
 3083 0087 3B       		.uleb128 0x3b
 3084 0088 0B       		.uleb128 0xb
 3085 0089 39       		.uleb128 0x39
 3086 008a 0B       		.uleb128 0xb
 3087 008b 49       		.uleb128 0x49
 3088 008c 13       		.uleb128 0x13
 3089 008d 38       		.uleb128 0x38
 3090 008e 0B       		.uleb128 0xb
 3091 008f 00       		.byte	0
 3092 0090 00       		.byte	0
 3093 0091 0B       		.uleb128 0xb
 3094 0092 24       		.uleb128 0x24
 3095 0093 00       		.byte	0
 3096 0094 0B       		.uleb128 0xb
 3097 0095 0B       		.uleb128 0xb
 3098 0096 3E       		.uleb128 0x3e
 3099 0097 0B       		.uleb128 0xb
 3100 0098 03       		.uleb128 0x3
 3101 0099 0E       		.uleb128 0xe
 3102 009a 00       		.byte	0
 3103 009b 00       		.byte	0
 3104 009c 0C       		.uleb128 0xc
 3105 009d 15       		.uleb128 0x15
 3106 009e 01       		.byte	0x1
 3107 009f 27       		.uleb128 0x27
 3108 00a0 19       		.uleb128 0x19
 3109 00a1 49       		.uleb128 0x49
 3110 00a2 13       		.uleb128 0x13
 3111 00a3 01       		.uleb128 0x1
 3112 00a4 13       		.uleb128 0x13
 3113 00a5 00       		.byte	0
 3114 00a6 00       		.byte	0
 3115 00a7 0D       		.uleb128 0xd
 3116 00a8 0D       		.uleb128 0xd
 3117 00a9 00       		.byte	0
 3118 00aa 03       		.uleb128 0x3
 3119 00ab 0E       		.uleb128 0xe
 3120 00ac 3A       		.uleb128 0x3a
 3121 00ad 0B       		.uleb128 0xb
 3122 00ae 3B       		.uleb128 0x3b
 3123 00af 0B       		.uleb128 0xb
 3124 00b0 39       		.uleb128 0x39
 3125 00b1 0B       		.uleb128 0xb
 3126 00b2 49       		.uleb128 0x49
 3127 00b3 13       		.uleb128 0x13
 3128 00b4 00       		.byte	0
 3129 00b5 00       		.byte	0
ARM GAS  C:\Users\DEVELO~1\AppData\Local\Temp\cccT88qa.s 			page 56


 3130 00b6 0E       		.uleb128 0xe
 3131 00b7 26       		.uleb128 0x26
 3132 00b8 00       		.byte	0
 3133 00b9 49       		.uleb128 0x49
 3134 00ba 13       		.uleb128 0x13
 3135 00bb 00       		.byte	0
 3136 00bc 00       		.byte	0
 3137 00bd 0F       		.uleb128 0xf
 3138 00be 13       		.uleb128 0x13
 3139 00bf 01       		.byte	0x1
 3140 00c0 0B       		.uleb128 0xb
 3141 00c1 0B       		.uleb128 0xb
 3142 00c2 3A       		.uleb128 0x3a
 3143 00c3 21       		.uleb128 0x21
 3144 00c4 0F       		.sleb128 15
 3145 00c5 3B       		.uleb128 0x3b
 3146 00c6 0B       		.uleb128 0xb
 3147 00c7 39       		.uleb128 0x39
 3148 00c8 0B       		.uleb128 0xb
 3149 00c9 01       		.uleb128 0x1
 3150 00ca 13       		.uleb128 0x13
 3151 00cb 00       		.byte	0
 3152 00cc 00       		.byte	0
 3153 00cd 10       		.uleb128 0x10
 3154 00ce 0D       		.uleb128 0xd
 3155 00cf 00       		.byte	0
 3156 00d0 03       		.uleb128 0x3
 3157 00d1 0E       		.uleb128 0xe
 3158 00d2 3A       		.uleb128 0x3a
 3159 00d3 21       		.uleb128 0x21
 3160 00d4 0A       		.sleb128 10
 3161 00d5 3B       		.uleb128 0x3b
 3162 00d6 05       		.uleb128 0x5
 3163 00d7 39       		.uleb128 0x39
 3164 00d8 0B       		.uleb128 0xb
 3165 00d9 49       		.uleb128 0x49
 3166 00da 13       		.uleb128 0x13
 3167 00db 00       		.byte	0
 3168 00dc 00       		.byte	0
 3169 00dd 11       		.uleb128 0x11
 3170 00de 48       		.uleb128 0x48
 3171 00df 01       		.byte	0x1
 3172 00e0 7D       		.uleb128 0x7d
 3173 00e1 01       		.uleb128 0x1
 3174 00e2 7F       		.uleb128 0x7f
 3175 00e3 13       		.uleb128 0x13
 3176 00e4 00       		.byte	0
 3177 00e5 00       		.byte	0
 3178 00e6 12       		.uleb128 0x12
 3179 00e7 48       		.uleb128 0x48
 3180 00e8 01       		.byte	0x1
 3181 00e9 7D       		.uleb128 0x7d
 3182 00ea 01       		.uleb128 0x1
 3183 00eb 7F       		.uleb128 0x7f
 3184 00ec 13       		.uleb128 0x13
 3185 00ed 01       		.uleb128 0x1
 3186 00ee 13       		.uleb128 0x13
ARM GAS  C:\Users\DEVELO~1\AppData\Local\Temp\cccT88qa.s 			page 57


 3187 00ef 00       		.byte	0
 3188 00f0 00       		.byte	0
 3189 00f1 13       		.uleb128 0x13
 3190 00f2 2E       		.uleb128 0x2e
 3191 00f3 01       		.byte	0x1
 3192 00f4 3F       		.uleb128 0x3f
 3193 00f5 19       		.uleb128 0x19
 3194 00f6 03       		.uleb128 0x3
 3195 00f7 0E       		.uleb128 0xe
 3196 00f8 3A       		.uleb128 0x3a
 3197 00f9 0B       		.uleb128 0xb
 3198 00fa 3B       		.uleb128 0x3b
 3199 00fb 0B       		.uleb128 0xb
 3200 00fc 39       		.uleb128 0x39
 3201 00fd 0B       		.uleb128 0xb
 3202 00fe 27       		.uleb128 0x27
 3203 00ff 19       		.uleb128 0x19
 3204 0100 11       		.uleb128 0x11
 3205 0101 01       		.uleb128 0x1
 3206 0102 12       		.uleb128 0x12
 3207 0103 06       		.uleb128 0x6
 3208 0104 40       		.uleb128 0x40
 3209 0105 18       		.uleb128 0x18
 3210 0106 7A       		.uleb128 0x7a
 3211 0107 19       		.uleb128 0x19
 3212 0108 01       		.uleb128 0x1
 3213 0109 13       		.uleb128 0x13
 3214 010a 00       		.byte	0
 3215 010b 00       		.byte	0
 3216 010c 14       		.uleb128 0x14
 3217 010d 35       		.uleb128 0x35
 3218 010e 00       		.byte	0
 3219 010f 49       		.uleb128 0x49
 3220 0110 13       		.uleb128 0x13
 3221 0111 00       		.byte	0
 3222 0112 00       		.byte	0
 3223 0113 15       		.uleb128 0x15
 3224 0114 13       		.uleb128 0x13
 3225 0115 01       		.byte	0x1
 3226 0116 03       		.uleb128 0x3
 3227 0117 0E       		.uleb128 0xe
 3228 0118 0B       		.uleb128 0xb
 3229 0119 0B       		.uleb128 0xb
 3230 011a 3A       		.uleb128 0x3a
 3231 011b 0B       		.uleb128 0xb
 3232 011c 3B       		.uleb128 0x3b
 3233 011d 05       		.uleb128 0x5
 3234 011e 39       		.uleb128 0x39
 3235 011f 0B       		.uleb128 0xb
 3236 0120 01       		.uleb128 0x1
 3237 0121 13       		.uleb128 0x13
 3238 0122 00       		.byte	0
 3239 0123 00       		.byte	0
 3240 0124 16       		.uleb128 0x16
 3241 0125 2E       		.uleb128 0x2e
 3242 0126 01       		.byte	0x1
 3243 0127 3F       		.uleb128 0x3f
ARM GAS  C:\Users\DEVELO~1\AppData\Local\Temp\cccT88qa.s 			page 58


 3244 0128 19       		.uleb128 0x19
 3245 0129 03       		.uleb128 0x3
 3246 012a 0E       		.uleb128 0xe
 3247 012b 3A       		.uleb128 0x3a
 3248 012c 0B       		.uleb128 0xb
 3249 012d 3B       		.uleb128 0x3b
 3250 012e 0B       		.uleb128 0xb
 3251 012f 39       		.uleb128 0x39
 3252 0130 21       		.uleb128 0x21
 3253 0131 08       		.sleb128 8
 3254 0132 27       		.uleb128 0x27
 3255 0133 19       		.uleb128 0x19
 3256 0134 3C       		.uleb128 0x3c
 3257 0135 19       		.uleb128 0x19
 3258 0136 01       		.uleb128 0x1
 3259 0137 13       		.uleb128 0x13
 3260 0138 00       		.byte	0
 3261 0139 00       		.byte	0
 3262 013a 17       		.uleb128 0x17
 3263 013b 1D       		.uleb128 0x1d
 3264 013c 01       		.byte	0x1
 3265 013d 31       		.uleb128 0x31
 3266 013e 13       		.uleb128 0x13
 3267 013f 52       		.uleb128 0x52
 3268 0140 01       		.uleb128 0x1
 3269 0141 B842     		.uleb128 0x2138
 3270 0143 0B       		.uleb128 0xb
 3271 0144 11       		.uleb128 0x11
 3272 0145 01       		.uleb128 0x1
 3273 0146 12       		.uleb128 0x12
 3274 0147 06       		.uleb128 0x6
 3275 0148 58       		.uleb128 0x58
 3276 0149 21       		.uleb128 0x21
 3277 014a 04       		.sleb128 4
 3278 014b 59       		.uleb128 0x59
 3279 014c 0B       		.uleb128 0xb
 3280 014d 57       		.uleb128 0x57
 3281 014e 21       		.uleb128 0x21
 3282 014f 03       		.sleb128 3
 3283 0150 01       		.uleb128 0x1
 3284 0151 13       		.uleb128 0x13
 3285 0152 00       		.byte	0
 3286 0153 00       		.byte	0
 3287 0154 18       		.uleb128 0x18
 3288 0155 17       		.uleb128 0x17
 3289 0156 01       		.byte	0x1
 3290 0157 0B       		.uleb128 0xb
 3291 0158 0B       		.uleb128 0xb
 3292 0159 3A       		.uleb128 0x3a
 3293 015a 0B       		.uleb128 0xb
 3294 015b 3B       		.uleb128 0x3b
 3295 015c 0B       		.uleb128 0xb
 3296 015d 39       		.uleb128 0x39
 3297 015e 21       		.uleb128 0x21
 3298 015f 03       		.sleb128 3
 3299 0160 01       		.uleb128 0x1
 3300 0161 13       		.uleb128 0x13
ARM GAS  C:\Users\DEVELO~1\AppData\Local\Temp\cccT88qa.s 			page 59


 3301 0162 00       		.byte	0
 3302 0163 00       		.byte	0
 3303 0164 19       		.uleb128 0x19
 3304 0165 0D       		.uleb128 0xd
 3305 0166 00       		.byte	0
 3306 0167 03       		.uleb128 0x3
 3307 0168 08       		.uleb128 0x8
 3308 0169 3A       		.uleb128 0x3a
 3309 016a 21       		.uleb128 0x21
 3310 016b 0F       		.sleb128 15
 3311 016c 3B       		.uleb128 0x3b
 3312 016d 0B       		.uleb128 0xb
 3313 016e 39       		.uleb128 0x39
 3314 016f 21       		.uleb128 0x21
 3315 0170 07       		.sleb128 7
 3316 0171 49       		.uleb128 0x49
 3317 0172 13       		.uleb128 0x13
 3318 0173 00       		.byte	0
 3319 0174 00       		.byte	0
 3320 0175 1A       		.uleb128 0x1a
 3321 0176 0D       		.uleb128 0xd
 3322 0177 00       		.byte	0
 3323 0178 03       		.uleb128 0x3
 3324 0179 0E       		.uleb128 0xe
 3325 017a 3A       		.uleb128 0x3a
 3326 017b 21       		.uleb128 0x21
 3327 017c 0F       		.sleb128 15
 3328 017d 3B       		.uleb128 0x3b
 3329 017e 0B       		.uleb128 0xb
 3330 017f 39       		.uleb128 0x39
 3331 0180 21       		.uleb128 0x21
 3332 0181 19       		.sleb128 25
 3333 0182 49       		.uleb128 0x49
 3334 0183 13       		.uleb128 0x13
 3335 0184 0D       		.uleb128 0xd
 3336 0185 0B       		.uleb128 0xb
 3337 0186 6B       		.uleb128 0x6b
 3338 0187 0B       		.uleb128 0xb
 3339 0188 00       		.byte	0
 3340 0189 00       		.byte	0
 3341 018a 1B       		.uleb128 0x1b
 3342 018b 01       		.uleb128 0x1
 3343 018c 01       		.byte	0x1
 3344 018d 49       		.uleb128 0x49
 3345 018e 13       		.uleb128 0x13
 3346 018f 01       		.uleb128 0x1
 3347 0190 13       		.uleb128 0x13
 3348 0191 00       		.byte	0
 3349 0192 00       		.byte	0
 3350 0193 1C       		.uleb128 0x1c
 3351 0194 21       		.uleb128 0x21
 3352 0195 00       		.byte	0
 3353 0196 49       		.uleb128 0x49
 3354 0197 13       		.uleb128 0x13
 3355 0198 2F       		.uleb128 0x2f
 3356 0199 0B       		.uleb128 0xb
 3357 019a 00       		.byte	0
ARM GAS  C:\Users\DEVELO~1\AppData\Local\Temp\cccT88qa.s 			page 60


 3358 019b 00       		.byte	0
 3359 019c 1D       		.uleb128 0x1d
 3360 019d 16       		.uleb128 0x16
 3361 019e 00       		.byte	0
 3362 019f 03       		.uleb128 0x3
 3363 01a0 0E       		.uleb128 0xe
 3364 01a1 3A       		.uleb128 0x3a
 3365 01a2 0B       		.uleb128 0xb
 3366 01a3 3B       		.uleb128 0x3b
 3367 01a4 05       		.uleb128 0x5
 3368 01a5 39       		.uleb128 0x39
 3369 01a6 21       		.uleb128 0x21
 3370 01a7 03       		.sleb128 3
 3371 01a8 49       		.uleb128 0x49
 3372 01a9 13       		.uleb128 0x13
 3373 01aa 00       		.byte	0
 3374 01ab 00       		.byte	0
 3375 01ac 1E       		.uleb128 0x1e
 3376 01ad 28       		.uleb128 0x28
 3377 01ae 00       		.byte	0
 3378 01af 03       		.uleb128 0x3
 3379 01b0 0E       		.uleb128 0xe
 3380 01b1 1C       		.uleb128 0x1c
 3381 01b2 0B       		.uleb128 0xb
 3382 01b3 00       		.byte	0
 3383 01b4 00       		.byte	0
 3384 01b5 1F       		.uleb128 0x1f
 3385 01b6 34       		.uleb128 0x34
 3386 01b7 00       		.byte	0
 3387 01b8 03       		.uleb128 0x3
 3388 01b9 0E       		.uleb128 0xe
 3389 01ba 49       		.uleb128 0x49
 3390 01bb 13       		.uleb128 0x13
 3391 01bc 34       		.uleb128 0x34
 3392 01bd 19       		.uleb128 0x19
 3393 01be 02       		.uleb128 0x2
 3394 01bf 18       		.uleb128 0x18
 3395 01c0 00       		.byte	0
 3396 01c1 00       		.byte	0
 3397 01c2 20       		.uleb128 0x20
 3398 01c3 48       		.uleb128 0x48
 3399 01c4 00       		.byte	0
 3400 01c5 7D       		.uleb128 0x7d
 3401 01c6 01       		.uleb128 0x1
 3402 01c7 7F       		.uleb128 0x7f
 3403 01c8 13       		.uleb128 0x13
 3404 01c9 00       		.byte	0
 3405 01ca 00       		.byte	0
 3406 01cb 21       		.uleb128 0x21
 3407 01cc 48       		.uleb128 0x48
 3408 01cd 00       		.byte	0
 3409 01ce 7D       		.uleb128 0x7d
 3410 01cf 01       		.uleb128 0x1
 3411 01d0 8201     		.uleb128 0x82
 3412 01d2 19       		.uleb128 0x19
 3413 01d3 7F       		.uleb128 0x7f
 3414 01d4 13       		.uleb128 0x13
ARM GAS  C:\Users\DEVELO~1\AppData\Local\Temp\cccT88qa.s 			page 61


 3415 01d5 00       		.byte	0
 3416 01d6 00       		.byte	0
 3417 01d7 22       		.uleb128 0x22
 3418 01d8 34       		.uleb128 0x34
 3419 01d9 00       		.byte	0
 3420 01da 03       		.uleb128 0x3
 3421 01db 08       		.uleb128 0x8
 3422 01dc 3A       		.uleb128 0x3a
 3423 01dd 21       		.uleb128 0x21
 3424 01de 17       		.sleb128 23
 3425 01df 3B       		.uleb128 0x3b
 3426 01e0 05       		.uleb128 0x5
 3427 01e1 39       		.uleb128 0x39
 3428 01e2 21       		.uleb128 0x21
 3429 01e3 15       		.sleb128 21
 3430 01e4 49       		.uleb128 0x49
 3431 01e5 13       		.uleb128 0x13
 3432 01e6 3F       		.uleb128 0x3f
 3433 01e7 19       		.uleb128 0x19
 3434 01e8 3C       		.uleb128 0x3c
 3435 01e9 19       		.uleb128 0x19
 3436 01ea 00       		.byte	0
 3437 01eb 00       		.byte	0
 3438 01ec 23       		.uleb128 0x23
 3439 01ed 2E       		.uleb128 0x2e
 3440 01ee 00       		.byte	0
 3441 01ef 3F       		.uleb128 0x3f
 3442 01f0 19       		.uleb128 0x19
 3443 01f1 03       		.uleb128 0x3
 3444 01f2 0E       		.uleb128 0xe
 3445 01f3 3A       		.uleb128 0x3a
 3446 01f4 0B       		.uleb128 0xb
 3447 01f5 3B       		.uleb128 0x3b
 3448 01f6 05       		.uleb128 0x5
 3449 01f7 39       		.uleb128 0x39
 3450 01f8 21       		.uleb128 0x21
 3451 01f9 08       		.sleb128 8
 3452 01fa 27       		.uleb128 0x27
 3453 01fb 19       		.uleb128 0x19
 3454 01fc 3C       		.uleb128 0x3c
 3455 01fd 19       		.uleb128 0x19
 3456 01fe 00       		.byte	0
 3457 01ff 00       		.byte	0
 3458 0200 24       		.uleb128 0x24
 3459 0201 1D       		.uleb128 0x1d
 3460 0202 01       		.byte	0x1
 3461 0203 31       		.uleb128 0x31
 3462 0204 13       		.uleb128 0x13
 3463 0205 52       		.uleb128 0x52
 3464 0206 01       		.uleb128 0x1
 3465 0207 B842     		.uleb128 0x2138
 3466 0209 0B       		.uleb128 0xb
 3467 020a 55       		.uleb128 0x55
 3468 020b 17       		.uleb128 0x17
 3469 020c 58       		.uleb128 0x58
 3470 020d 21       		.uleb128 0x21
 3471 020e 04       		.sleb128 4
ARM GAS  C:\Users\DEVELO~1\AppData\Local\Temp\cccT88qa.s 			page 62


 3472 020f 59       		.uleb128 0x59
 3473 0210 0B       		.uleb128 0xb
 3474 0211 57       		.uleb128 0x57
 3475 0212 21       		.uleb128 0x21
 3476 0213 03       		.sleb128 3
 3477 0214 01       		.uleb128 0x1
 3478 0215 13       		.uleb128 0x13
 3479 0216 00       		.byte	0
 3480 0217 00       		.byte	0
 3481 0218 25       		.uleb128 0x25
 3482 0219 48       		.uleb128 0x48
 3483 021a 01       		.byte	0x1
 3484 021b 7D       		.uleb128 0x7d
 3485 021c 01       		.uleb128 0x1
 3486 021d 8201     		.uleb128 0x82
 3487 021f 19       		.uleb128 0x19
 3488 0220 7F       		.uleb128 0x7f
 3489 0221 13       		.uleb128 0x13
 3490 0222 00       		.byte	0
 3491 0223 00       		.byte	0
 3492 0224 26       		.uleb128 0x26
 3493 0225 11       		.uleb128 0x11
 3494 0226 01       		.byte	0x1
 3495 0227 25       		.uleb128 0x25
 3496 0228 0E       		.uleb128 0xe
 3497 0229 13       		.uleb128 0x13
 3498 022a 0B       		.uleb128 0xb
 3499 022b 03       		.uleb128 0x3
 3500 022c 0E       		.uleb128 0xe
 3501 022d 1B       		.uleb128 0x1b
 3502 022e 0E       		.uleb128 0xe
 3503 022f 55       		.uleb128 0x55
 3504 0230 17       		.uleb128 0x17
 3505 0231 11       		.uleb128 0x11
 3506 0232 01       		.uleb128 0x1
 3507 0233 10       		.uleb128 0x10
 3508 0234 17       		.uleb128 0x17
 3509 0235 00       		.byte	0
 3510 0236 00       		.byte	0
 3511 0237 27       		.uleb128 0x27
 3512 0238 24       		.uleb128 0x24
 3513 0239 00       		.byte	0
 3514 023a 0B       		.uleb128 0xb
 3515 023b 0B       		.uleb128 0xb
 3516 023c 3E       		.uleb128 0x3e
 3517 023d 0B       		.uleb128 0xb
 3518 023e 03       		.uleb128 0x3
 3519 023f 08       		.uleb128 0x8
 3520 0240 00       		.byte	0
 3521 0241 00       		.byte	0
 3522 0242 28       		.uleb128 0x28
 3523 0243 13       		.uleb128 0x13
 3524 0244 01       		.byte	0x1
 3525 0245 03       		.uleb128 0x3
 3526 0246 0E       		.uleb128 0xe
 3527 0247 0B       		.uleb128 0xb
 3528 0248 05       		.uleb128 0x5
ARM GAS  C:\Users\DEVELO~1\AppData\Local\Temp\cccT88qa.s 			page 63


 3529 0249 3A       		.uleb128 0x3a
 3530 024a 0B       		.uleb128 0xb
 3531 024b 3B       		.uleb128 0x3b
 3532 024c 05       		.uleb128 0x5
 3533 024d 39       		.uleb128 0x39
 3534 024e 0B       		.uleb128 0xb
 3535 024f 01       		.uleb128 0x1
 3536 0250 13       		.uleb128 0x13
 3537 0251 00       		.byte	0
 3538 0252 00       		.byte	0
 3539 0253 29       		.uleb128 0x29
 3540 0254 0F       		.uleb128 0xf
 3541 0255 00       		.byte	0
 3542 0256 0B       		.uleb128 0xb
 3543 0257 0B       		.uleb128 0xb
 3544 0258 00       		.byte	0
 3545 0259 00       		.byte	0
 3546 025a 2A       		.uleb128 0x2a
 3547 025b 13       		.uleb128 0x13
 3548 025c 01       		.byte	0x1
 3549 025d 0B       		.uleb128 0xb
 3550 025e 05       		.uleb128 0x5
 3551 025f 3A       		.uleb128 0x3a
 3552 0260 0B       		.uleb128 0xb
 3553 0261 3B       		.uleb128 0x3b
 3554 0262 0B       		.uleb128 0xb
 3555 0263 39       		.uleb128 0x39
 3556 0264 0B       		.uleb128 0xb
 3557 0265 01       		.uleb128 0x1
 3558 0266 13       		.uleb128 0x13
 3559 0267 00       		.byte	0
 3560 0268 00       		.byte	0
 3561 0269 2B       		.uleb128 0x2b
 3562 026a 13       		.uleb128 0x13
 3563 026b 01       		.byte	0x1
 3564 026c 0B       		.uleb128 0xb
 3565 026d 0B       		.uleb128 0xb
 3566 026e 3A       		.uleb128 0x3a
 3567 026f 0B       		.uleb128 0xb
 3568 0270 3B       		.uleb128 0x3b
 3569 0271 05       		.uleb128 0x5
 3570 0272 39       		.uleb128 0x39
 3571 0273 0B       		.uleb128 0xb
 3572 0274 01       		.uleb128 0x1
 3573 0275 13       		.uleb128 0x13
 3574 0276 00       		.byte	0
 3575 0277 00       		.byte	0
 3576 0278 2C       		.uleb128 0x2c
 3577 0279 15       		.uleb128 0x15
 3578 027a 01       		.byte	0x1
 3579 027b 27       		.uleb128 0x27
 3580 027c 19       		.uleb128 0x19
 3581 027d 01       		.uleb128 0x1
 3582 027e 13       		.uleb128 0x13
 3583 027f 00       		.byte	0
 3584 0280 00       		.byte	0
 3585 0281 2D       		.uleb128 0x2d
ARM GAS  C:\Users\DEVELO~1\AppData\Local\Temp\cccT88qa.s 			page 64


 3586 0282 04       		.uleb128 0x4
 3587 0283 01       		.byte	0x1
 3588 0284 3E       		.uleb128 0x3e
 3589 0285 0B       		.uleb128 0xb
 3590 0286 0B       		.uleb128 0xb
 3591 0287 0B       		.uleb128 0xb
 3592 0288 49       		.uleb128 0x49
 3593 0289 13       		.uleb128 0x13
 3594 028a 3A       		.uleb128 0x3a
 3595 028b 0B       		.uleb128 0xb
 3596 028c 3B       		.uleb128 0x3b
 3597 028d 0B       		.uleb128 0xb
 3598 028e 39       		.uleb128 0x39
 3599 028f 0B       		.uleb128 0xb
 3600 0290 01       		.uleb128 0x1
 3601 0291 13       		.uleb128 0x13
 3602 0292 00       		.byte	0
 3603 0293 00       		.byte	0
 3604 0294 2E       		.uleb128 0x2e
 3605 0295 2E       		.uleb128 0x2e
 3606 0296 01       		.byte	0x1
 3607 0297 3F       		.uleb128 0x3f
 3608 0298 19       		.uleb128 0x19
 3609 0299 03       		.uleb128 0x3
 3610 029a 0E       		.uleb128 0xe
 3611 029b 3A       		.uleb128 0x3a
 3612 029c 0B       		.uleb128 0xb
 3613 029d 3B       		.uleb128 0x3b
 3614 029e 05       		.uleb128 0x5
 3615 029f 39       		.uleb128 0x39
 3616 02a0 0B       		.uleb128 0xb
 3617 02a1 27       		.uleb128 0x27
 3618 02a2 19       		.uleb128 0x19
 3619 02a3 3C       		.uleb128 0x3c
 3620 02a4 19       		.uleb128 0x19
 3621 02a5 01       		.uleb128 0x1
 3622 02a6 13       		.uleb128 0x13
 3623 02a7 00       		.byte	0
 3624 02a8 00       		.byte	0
 3625 02a9 00       		.byte	0
 3626              		.section	.debug_aranges,"",%progbits
 3627 0000 3C000000 		.4byte	0x3c
 3628 0004 0200     		.2byte	0x2
 3629 0006 00000000 		.4byte	.Ldebug_info0
 3630 000a 04       		.byte	0x4
 3631 000b 00       		.byte	0
 3632 000c 0000     		.2byte	0
 3633 000e 0000     		.2byte	0
 3634 0010 00000000 		.4byte	.LFB470
 3635 0014 28000000 		.4byte	.LFE470-.LFB470
 3636 0018 00000000 		.4byte	.LFB479
 3637 001c 28000000 		.4byte	.LFE479-.LFB479
 3638 0020 00000000 		.4byte	.LFB496
 3639 0024 20000000 		.4byte	.LFE496-.LFB496
 3640 0028 00000000 		.4byte	.LFB515
 3641 002c 26000000 		.4byte	.LFE515-.LFB515
 3642 0030 00000000 		.4byte	.LFB516
ARM GAS  C:\Users\DEVELO~1\AppData\Local\Temp\cccT88qa.s 			page 65


 3643 0034 1E000000 		.4byte	.LFE516-.LFB516
 3644 0038 00000000 		.4byte	0
 3645 003c 00000000 		.4byte	0
 3646              		.section	.debug_rnglists,"",%progbits
 3647              	.Ldebug_ranges0:
 3648 0000 3F000000 		.4byte	.Ldebug_ranges3-.Ldebug_ranges2
 3649              	.Ldebug_ranges2:
 3650 0004 0500     		.2byte	0x5
 3651 0006 04       		.byte	0x4
 3652 0007 00       		.byte	0
 3653 0008 00000000 		.4byte	0
 3654              	.LLRL0:
 3655 000c 05       		.byte	0x5
 3656 000d 1A000000 		.4byte	.LBB166
 3657 0011 04       		.byte	0x4
 3658 0012 00       		.uleb128 .LBB166-.LBB166
 3659 0013 04       		.uleb128 .LBE166-.LBB166
 3660 0014 04       		.byte	0x4
 3661 0015 08       		.uleb128 .LBB169-.LBB166
 3662 0016 0C       		.uleb128 .LBE169-.LBB166
 3663 0017 00       		.byte	0
 3664              	.LLRL1:
 3665 0018 05       		.byte	0x5
 3666 0019 14000000 		.4byte	.LBB174
 3667 001d 04       		.byte	0x4
 3668 001e 00       		.uleb128 .LBB174-.LBB174
 3669 001f 02       		.uleb128 .LBE174-.LBB174
 3670 0020 04       		.byte	0x4
 3671 0021 06       		.uleb128 .LBB177-.LBB174
 3672 0022 0A       		.uleb128 .LBE177-.LBB174
 3673 0023 00       		.byte	0
 3674              	.LLRL2:
 3675 0024 07       		.byte	0x7
 3676 0025 00000000 		.4byte	.LFB470
 3677 0029 28       		.uleb128 .LFE470-.LFB470
 3678 002a 07       		.byte	0x7
 3679 002b 00000000 		.4byte	.LFB479
 3680 002f 28       		.uleb128 .LFE479-.LFB479
 3681 0030 07       		.byte	0x7
 3682 0031 00000000 		.4byte	.LFB496
 3683 0035 20       		.uleb128 .LFE496-.LFB496
 3684 0036 07       		.byte	0x7
 3685 0037 00000000 		.4byte	.LFB515
 3686 003b 26       		.uleb128 .LFE515-.LFB515
 3687 003c 07       		.byte	0x7
 3688 003d 00000000 		.4byte	.LFB516
 3689 0041 1E       		.uleb128 .LFE516-.LFB516
 3690 0042 00       		.byte	0
 3691              	.Ldebug_ranges3:
 3692              		.section	.debug_line,"",%progbits
 3693              	.Ldebug_line0:
 3694 0000 31090000 		.section	.debug_str,"MS",%progbits,1
 3694      03008607 
 3694      00000201 
 3694      FB0E0D00 
 3694      01010101 
 3695              	.LASF241:
ARM GAS  C:\Users\DEVELO~1\AppData\Local\Temp\cccT88qa.s 			page 66


 3696 0000 65787469 		.ascii	"exti19_irq_deinit\000"
 3696      31395F69 
 3696      72715F64 
 3696      65696E69 
 3696      7400
 3697              	.LASF11:
 3698 0012 6C6F6E67 		.ascii	"long int\000"
 3698      20696E74 
 3698      00
 3699              	.LASF154:
 3700 001b 53657269 		.ascii	"SerialDriver\000"
 3700      616C4472 
 3700      69766572 
 3700      00
 3701              	.LASF247:
 3702 0028 65787469 		.ascii	"exti16_irq_deinit\000"
 3702      31365F69 
 3702      72715F64 
 3702      65696E69 
 3702      7400
 3703              	.LASF35:
 3704 003a 6E616D65 		.ascii	"name\000"
 3704      00
 3705              	.LASF199:
 3706 003f 74696D32 		.ascii	"tim2_irq_init\000"
 3706      5F697271 
 3706      5F696E69 
 3706      7400
 3707              	.LASF105:
 3708 004d 74687265 		.ascii	"thread_reference_t\000"
 3708      61645F72 
 3708      65666572 
 3708      656E6365 
 3708      5F7400
 3709              	.LASF102:
 3710 0060 63685F72 		.ascii	"ch_registry\000"
 3710      65676973 
 3710      74727900 
 3711              	.LASF131:
 3712 006c 6C697374 		.ascii	"listener\000"
 3712      656E6572 
 3712      00
 3713              	.LASF134:
 3714 0075 6576656E 		.ascii	"event_source\000"
 3714      745F736F 
 3714      75726365 
 3714      00
 3715              	.LASF38:
 3716 0082 666C6167 		.ascii	"flags\000"
 3716      7300
 3717              	.LASF65:
 3718 0088 73797374 		.ascii	"systime_t\000"
 3718      696D655F 
 3718      7400
 3719              	.LASF175:
 3720 0092 73645F6C 		.ascii	"sd_lld_serve_interrupt\000"
 3720      6C645F73 
ARM GAS  C:\Users\DEVELO~1\AppData\Local\Temp\cccT88qa.s 			page 67


 3720      65727665 
 3720      5F696E74 
 3720      65727275 
 3721              	.LASF44:
 3722 00a9 7265616C 		.ascii	"realprio\000"
 3722      7072696F 
 3722      00
 3723              	.LASF89:
 3724 00b2 62756666 		.ascii	"buffer\000"
 3724      657200
 3725              	.LASF87:
 3726 00b9 73757370 		.ascii	"suspended\000"
 3726      656E6465 
 3726      6400
 3727              	.LASF252:
 3728 00c3 65787469 		.ascii	"exti5_9_irq_init\000"
 3728      355F395F 
 3728      6972715F 
 3728      696E6974 
 3728      00
 3729              	.LASF200:
 3730 00d4 74696D31 		.ascii	"tim1_irq_deinit\000"
 3730      5F697271 
 3730      5F646569 
 3730      6E697400 
 3731              	.LASF203:
 3732 00e4 6C707561 		.ascii	"lpuart1_irq_init\000"
 3732      7274315F 
 3732      6972715F 
 3732      696E6974 
 3732      00
 3733              	.LASF155:
 3734 00f5 68616C5F 		.ascii	"hal_serial_driver\000"
 3734      73657269 
 3734      616C5F64 
 3734      72697665 
 3734      7200
 3735              	.LASF137:
 3736 0107 696F5F71 		.ascii	"io_queue_t\000"
 3736      75657565 
 3736      5F7400
 3737              	.LASF42:
 3738 0112 6570656E 		.ascii	"epending\000"
 3738      64696E67 
 3738      00
 3739              	.LASF0:
 3740 011b 756E7369 		.ascii	"unsigned int\000"
 3740      676E6564 
 3740      20696E74 
 3740      00
 3741              	.LASF69:
 3742 0128 6E657874 		.ascii	"next\000"
 3742      00
 3743              	.LASF235:
 3744 012d 66646361 		.ascii	"fdcan2_irq_deinit\000"
 3744      6E325F69 
 3744      72715F64 
ARM GAS  C:\Users\DEVELO~1\AppData\Local\Temp\cccT88qa.s 			page 68


 3744      65696E69 
 3744      7400
 3745              	.LASF19:
 3746 013f 75696E74 		.ascii	"uint32_t\000"
 3746      33325F74 
 3746      00
 3747              	.LASF184:
 3748 0148 74696D31 		.ascii	"tim15_irq_init\000"
 3748      355F6972 
 3748      715F696E 
 3748      697400
 3749              	.LASF231:
 3750 0157 71756164 		.ascii	"quadspi1_irq_deinit\000"
 3750      73706931 
 3750      5F697271 
 3750      5F646569 
 3750      6E697400 
 3751              	.LASF144:
 3752 016b 715F7264 		.ascii	"q_rdptr\000"
 3752      70747200 
 3753              	.LASF10:
 3754 0173 5F5F696E 		.ascii	"__int32_t\000"
 3754      7433325F 
 3754      7400
 3755              	.LASF39:
 3756 017d 72656673 		.ascii	"refs\000"
 3756      00
 3757              	.LASF147:
 3758 0182 716E6F74 		.ascii	"qnotify_t\000"
 3758      6966795F 
 3758      7400
 3759              	.LASF132:
 3760 018c 6576656E 		.ascii	"events\000"
 3760      747300
 3761              	.LASF226:
 3762 0193 75736172 		.ascii	"usart1_irq_init\000"
 3762      74315F69 
 3762      72715F69 
 3762      6E697400 
 3763              	.LASF207:
 3764 01a3 75617274 		.ascii	"uart9_irq_init\000"
 3764      395F6972 
 3764      715F696E 
 3764      697400
 3765              	.LASF79:
 3766 01b2 77746F62 		.ascii	"wtobjp\000"
 3766      6A7000
 3767              	.LASF123:
 3768 01b9 6D61696E 		.ascii	"mainthread_base\000"
 3768      74687265 
 3768      61645F62 
 3768      61736500 
 3769              	.LASF50:
 3770 01c9 76746C69 		.ascii	"vtlist\000"
 3770      737400
 3771              	.LASF96:
 3772 01d0 706F7274 		.ascii	"port_context\000"
ARM GAS  C:\Users\DEVELO~1\AppData\Local\Temp\cccT88qa.s 			page 69


 3772      5F636F6E 
 3772      74657874 
 3772      00
 3773              	.LASF254:
 3774 01dd 65787469 		.ascii	"exti4_irq_init\000"
 3774      345F6972 
 3774      715F696E 
 3774      697400
 3775              	.LASF119:
 3776 01ec 63685F72 		.ascii	"ch_ready_list\000"
 3776      65616479 
 3776      5F6C6973 
 3776      7400
 3777              	.LASF240:
 3778 01fa 65787469 		.ascii	"exti20_exti21_irq_init\000"
 3778      32305F65 
 3778      78746932 
 3778      315F6972 
 3778      715F696E 
 3779              	.LASF100:
 3780 0211 6C617374 		.ascii	"laststamp\000"
 3780      7374616D 
 3780      7000
 3781              	.LASF116:
 3782 021b 65776D61 		.ascii	"ewmask\000"
 3782      736B00
 3783              	.LASF170:
 3784 0222 6E766963 		.ascii	"nvicDisableVector\000"
 3784      44697361 
 3784      626C6556 
 3784      6563746F 
 3784      7200
 3785              	.LASF72:
 3786 0234 70726576 		.ascii	"prev\000"
 3786      00
 3787              	.LASF187:
 3788 0239 74696D37 		.ascii	"tim7_irq_deinit\000"
 3788      5F697271 
 3788      5F646569 
 3788      6E697400 
 3789              	.LASF227:
 3790 0249 73646D6D 		.ascii	"sdmmc2_irq_deinit\000"
 3790      63325F69 
 3790      72715F64 
 3790      65696E69 
 3790      7400
 3791              	.LASF193:
 3792 025b 74696D34 		.ascii	"tim4_irq_deinit\000"
 3792      5F697271 
 3792      5F646569 
 3792      6E697400 
 3793              	.LASF246:
 3794 026b 65787469 		.ascii	"exti17_irq_init\000"
 3794      31375F69 
 3794      72715F69 
 3794      6E697400 
 3795              	.LASF188:
ARM GAS  C:\Users\DEVELO~1\AppData\Local\Temp\cccT88qa.s 			page 70


 3796 027b 74696D37 		.ascii	"tim7_irq_init\000"
 3796      5F697271 
 3796      5F696E69 
 3796      7400
 3797              	.LASF197:
 3798 0289 56656374 		.ascii	"VectorB0\000"
 3798      6F724230 
 3798      00
 3799              	.LASF168:
 3800 0292 77726974 		.ascii	"writet\000"
 3800      657400
 3801              	.LASF257:
 3802 0299 65787469 		.ascii	"exti2_irq_deinit\000"
 3802      325F6972 
 3802      715F6465 
 3802      696E6974 
 3802      00
 3803              	.LASF61:
 3804 02aa 63685F73 		.ascii	"ch_system_debug\000"
 3804      79737465 
 3804      6D5F6465 
 3804      62756700 
 3805              	.LASF91:
 3806 02ba 47545052 		.ascii	"GTPR\000"
 3806      00
 3807              	.LASF265:
 3808 02bf 433A5C50 		.ascii	"C:\\PROJET\\ChibiOS project\\ChibiOS_21.11.4\\demos"
 3808      524F4A45 
 3808      545C4368 
 3808      6962694F 
 3808      53207072 
 3809 02ee 5C53544D 		.ascii	"\\STM32\\RT-STM32H743ZI_REV_XY-NUCLEO144\000"
 3809      33325C52 
 3809      542D5354 
 3809      4D333248 
 3809      3734335A 
 3810              	.LASF108:
 3811 0315 6C697374 		.ascii	"list\000"
 3811      00
 3812              	.LASF202:
 3813 031a 6C707561 		.ascii	"lpuart1_irq_deinit\000"
 3813      7274315F 
 3813      6972715F 
 3813      6465696E 
 3813      697400
 3814              	.LASF68:
 3815 032d 63685F6C 		.ascii	"ch_list\000"
 3815      69737400 
 3816              	.LASF77:
 3817 0335 63685F64 		.ascii	"ch_delta_list\000"
 3817      656C7461 
 3817      5F6C6973 
 3817      7400
 3818              	.LASF139:
 3819 0343 715F7761 		.ascii	"q_waiting\000"
 3819      6974696E 
 3819      6700
ARM GAS  C:\Users\DEVELO~1\AppData\Local\Temp\cccT88qa.s 			page 71


 3820              	.LASF113:
 3821 034d 73656E74 		.ascii	"sentmsg\000"
 3821      6D736700 
 3822              	.LASF183:
 3823 0355 74696D31 		.ascii	"tim15_irq_deinit\000"
 3823      355F6972 
 3823      715F6465 
 3823      696E6974 
 3823      00
 3824              	.LASF217:
 3825 0366 75617274 		.ascii	"uart5_irq_init\000"
 3825      355F6972 
 3825      715F696E 
 3825      697400
 3826              	.LASF28:
 3827 0375 6576656E 		.ascii	"eventmask_t\000"
 3827      746D6173 
 3827      6B5F7400 
 3828              	.LASF262:
 3829 0381 65787469 		.ascii	"exti0_irq_init\000"
 3829      305F6972 
 3829      715F696E 
 3829      697400
 3830              	.LASF86:
 3831 0390 74726163 		.ascii	"trace_event_t\000"
 3831      655F6576 
 3831      656E745F 
 3831      7400
 3832              	.LASF206:
 3833 039e 75617274 		.ascii	"uart9_irq_deinit\000"
 3833      395F6972 
 3833      715F6465 
 3833      696E6974 
 3833      00
 3834              	.LASF153:
 3835 03af 73647374 		.ascii	"sdstate_t\000"
 3835      6174655F 
 3835      7400
 3836              	.LASF156:
 3837 03b9 6576656E 		.ascii	"event\000"
 3837      7400
 3838              	.LASF117:
 3839 03bf 63685F73 		.ascii	"ch_semaphore\000"
 3839      656D6170 
 3839      686F7265 
 3839      00
 3840              	.LASF26:
 3841 03cc 74707269 		.ascii	"tprio_t\000"
 3841      6F5F7400 
 3842              	.LASF41:
 3843 03d4 6D736771 		.ascii	"msgqueue\000"
 3843      75657565 
 3843      00
 3844              	.LASF127:
 3845 03dd 6F735F69 		.ascii	"os_instance_config_t\000"
 3845      6E737461 
 3845      6E63655F 
ARM GAS  C:\Users\DEVELO~1\AppData\Local\Temp\cccT88qa.s 			page 72


 3845      636F6E66 
 3845      69675F74 
 3846              	.LASF251:
 3847 03f2 65787469 		.ascii	"exti5_9_irq_deinit\000"
 3847      355F395F 
 3847      6972715F 
 3847      6465696E 
 3847      697400
 3848              	.LASF81:
 3849 0405 68616C74 		.ascii	"halt\000"
 3849      00
 3850              	.LASF191:
 3851 040a 74696D35 		.ascii	"tim5_irq_deinit\000"
 3851      5F697271 
 3851      5F646569 
 3851      6E697400 
 3852              	.LASF15:
 3853 041a 6C6F6E67 		.ascii	"long long unsigned int\000"
 3853      206C6F6E 
 3853      6720756E 
 3853      7369676E 
 3853      65642069 
 3854              	.LASF264:
 3855 0431 2E2E2F2E 		.ascii	"../../../os/hal/ports/STM32/STM32H7xx/stm32_isr.c\000"
 3855      2E2F2E2E 
 3855      2F6F732F 
 3855      68616C2F 
 3855      706F7274 
 3856              	.LASF196:
 3857 0463 74696D33 		.ascii	"tim3_irq_init\000"
 3857      5F697271 
 3857      5F696E69 
 3857      7400
 3858              	.LASF80:
 3859 0471 72656173 		.ascii	"reason\000"
 3859      6F6E00
 3860              	.LASF93:
 3861 0478 50524553 		.ascii	"PRESC\000"
 3861      4300
 3862              	.LASF135:
 3863 047e 6576656E 		.ascii	"event_source_t\000"
 3863      745F736F 
 3863      75726365 
 3863      5F7400
 3864              	.LASF109:
 3865 048d 70717565 		.ascii	"pqueue\000"
 3865      756500
 3866              	.LASF173:
 3867 0494 5F5F706F 		.ascii	"__port_irq_epilogue\000"
 3867      72745F69 
 3867      72715F65 
 3867      70696C6F 
 3867      67756500 
 3868              	.LASF8:
 3869 04a8 5F5F7569 		.ascii	"__uint16_t\000"
 3869      6E743136 
 3869      5F7400
ARM GAS  C:\Users\DEVELO~1\AppData\Local\Temp\cccT88qa.s 			page 73


 3870              	.LASF30:
 3871 04b3 636E745F 		.ascii	"cnt_t\000"
 3871      7400
 3872              	.LASF238:
 3873 04b9 66646361 		.ascii	"fdcan1_irq_init\000"
 3873      6E315F69 
 3873      72715F69 
 3873      6E697400 
 3874              	.LASF222:
 3875 04c9 75736172 		.ascii	"usart2_irq_deinit\000"
 3875      74325F69 
 3875      72715F64 
 3875      65696E69 
 3875      7400
 3876              	.LASF85:
 3877 04db 74696D65 		.ascii	"time\000"
 3877      00
 3878              	.LASF34:
 3879 04e0 6F776E65 		.ascii	"owner\000"
 3879      7200
 3880              	.LASF124:
 3881 04e6 6D61696E 		.ascii	"mainthread_end\000"
 3881      74687265 
 3881      61645F65 
 3881      6E6400
 3882              	.LASF107:
 3883 04f5 74687265 		.ascii	"threads_queue_t\000"
 3883      6164735F 
 3883      71756575 
 3883      655F7400 
 3884              	.LASF43:
 3885 0505 6D74786C 		.ascii	"mtxlist\000"
 3885      69737400 
 3886              	.LASF97:
 3887 050d 63685F76 		.ascii	"ch_virtual_timers_list\000"
 3887      69727475 
 3887      616C5F74 
 3887      696D6572 
 3887      735F6C69 
 3888              	.LASF224:
 3889 0524 56656374 		.ascii	"VectorD4\000"
 3889      6F724434 
 3889      00
 3890              	.LASF53:
 3891 052d 72666375 		.ascii	"rfcu\000"
 3891      00
 3892              	.LASF32:
 3893 0532 74687265 		.ascii	"thread_t\000"
 3893      61645F74 
 3893      00
 3894              	.LASF182:
 3895 053b 74696D31 		.ascii	"tim16_irq_init\000"
 3895      365F6972 
 3895      715F696E 
 3895      697400
 3896              	.LASF82:
 3897 054a 75736572 		.ascii	"user\000"
ARM GAS  C:\Users\DEVELO~1\AppData\Local\Temp\cccT88qa.s 			page 74


 3897      00
 3898              	.LASF166:
 3899 054f 70757474 		.ascii	"putt\000"
 3899      00
 3900              	.LASF4:
 3901 0554 73697A65 		.ascii	"size_t\000"
 3901      5F7400
 3902              	.LASF110:
 3903 055b 7264796D 		.ascii	"rdymsg\000"
 3903      736700
 3904              	.LASF73:
 3905 0562 63685F70 		.ascii	"ch_priority_queue_t\000"
 3905      72696F72 
 3905      6974795F 
 3905      71756575 
 3905      655F7400 
 3906              	.LASF223:
 3907 0576 75736172 		.ascii	"usart2_irq_init\000"
 3907      74325F69 
 3907      72715F69 
 3907      6E697400 
 3908              	.LASF136:
 3909 0586 5F426F6F 		.ascii	"_Bool\000"
 3909      6C00
 3910              	.LASF151:
 3911 058c 53445F53 		.ascii	"SD_STOP\000"
 3911      544F5000 
 3912              	.LASF1:
 3913 0594 6C6F6E67 		.ascii	"long long int\000"
 3913      206C6F6E 
 3913      6720696E 
 3913      7400
 3914              	.LASF245:
 3915 05a2 65787469 		.ascii	"exti17_irq_deinit\000"
 3915      31375F69 
 3915      72715F64 
 3915      65696E69 
 3915      7400
 3916              	.LASF58:
 3917 05b4 63685F72 		.ascii	"ch_rfcu\000"
 3917      66637500 
 3918              	.LASF118:
 3919 05bc 63685F6D 		.ascii	"ch_mutex\000"
 3919      75746578 
 3919      00
 3920              	.LASF157:
 3921 05c5 69717565 		.ascii	"iqueue\000"
 3921      756500
 3922              	.LASF94:
 3923 05cc 55534152 		.ascii	"USART_TypeDef\000"
 3923      545F5479 
 3923      70654465 
 3923      6600
 3924              	.LASF48:
 3925 05da 63685F6F 		.ascii	"ch_os_instance\000"
 3925      735F696E 
 3925      7374616E 
ARM GAS  C:\Users\DEVELO~1\AppData\Local\Temp\cccT88qa.s 			page 75


 3925      636500
 3926              	.LASF145:
 3927 05e9 715F6E6F 		.ascii	"q_notify\000"
 3927      74696679 
 3927      00
 3928              	.LASF160:
 3929 05f2 636C6F63 		.ascii	"clock\000"
 3929      6B00
 3930              	.LASF244:
 3931 05f8 65787469 		.ascii	"exti18_irq_init\000"
 3931      31385F69 
 3931      72715F69 
 3931      6E697400 
 3932              	.LASF250:
 3933 0608 65787469 		.ascii	"exti10_15_irq_init\000"
 3933      31305F31 
 3933      355F6972 
 3933      715F696E 
 3933      697400
 3934              	.LASF126:
 3935 061b 69646C65 		.ascii	"idlethread_end\000"
 3935      74687265 
 3935      61645F65 
 3935      6E6400
 3936              	.LASF198:
 3937 062a 74696D32 		.ascii	"tim2_irq_deinit\000"
 3937      5F697271 
 3937      5F646569 
 3937      6E697400 
 3938              	.LASF208:
 3939 063a 75617274 		.ascii	"uart8_irq_deinit\000"
 3939      385F6972 
 3939      715F6465 
 3939      696E6974 
 3939      00
 3940              	.LASF146:
 3941 064b 715F6C69 		.ascii	"q_link\000"
 3941      6E6B00
 3942              	.LASF75:
 3943 0652 7072696F 		.ascii	"prio\000"
 3943      00
 3944              	.LASF261:
 3945 0657 65787469 		.ascii	"exti0_irq_deinit\000"
 3945      305F6972 
 3945      715F6465 
 3945      696E6974 
 3945      00
 3946              	.LASF233:
 3947 0668 66646361 		.ascii	"fdcan3_irq_deinit\000"
 3947      6E335F69 
 3947      72715F64 
 3947      65696E69 
 3947      7400
 3948              	.LASF63:
 3949 067a 63686172 		.ascii	"char\000"
 3949      00
 3950              	.LASF76:
ARM GAS  C:\Users\DEVELO~1\AppData\Local\Temp\cccT88qa.s 			page 76


 3951 067f 63685F64 		.ascii	"ch_delta_list_t\000"
 3951      656C7461 
 3951      5F6C6973 
 3951      745F7400 
 3952              	.LASF57:
 3953 068f 72666375 		.ascii	"rfcu_mask_t\000"
 3953      5F6D6173 
 3953      6B5F7400 
 3954              	.LASF236:
 3955 069b 66646361 		.ascii	"fdcan2_irq_init\000"
 3955      6E325F69 
 3955      72715F69 
 3955      6E697400 
 3956              	.LASF36:
 3957 06ab 77616261 		.ascii	"wabase\000"
 3957      736500
 3958              	.LASF143:
 3959 06b2 715F7772 		.ascii	"q_wrptr\000"
 3959      70747200 
 3960              	.LASF24:
 3961 06ba 74737461 		.ascii	"tstate_t\000"
 3961      74655F74 
 3961      00
 3962              	.LASF186:
 3963 06c3 74696D38 		.ascii	"tim8_tim12_tim13_tim14_irq_init\000"
 3963      5F74696D 
 3963      31325F74 
 3963      696D3133 
 3963      5F74696D 
 3964              	.LASF33:
 3965 06e3 72717565 		.ascii	"rqueue\000"
 3965      756500
 3966              	.LASF253:
 3967 06ea 65787469 		.ascii	"exti4_irq_deinit\000"
 3967      345F6972 
 3967      715F6465 
 3967      696E6974 
 3967      00
 3968              	.LASF260:
 3969 06fb 65787469 		.ascii	"exti1_irq_init\000"
 3969      315F6972 
 3969      715F696E 
 3969      697400
 3970              	.LASF239:
 3971 070a 65787469 		.ascii	"exti20_exti21_irq_deinit\000"
 3971      32305F65 
 3971      78746932 
 3971      315F6972 
 3971      715F6465 
 3972              	.LASF178:
 3973 0723 69727149 		.ascii	"irqInit\000"
 3973      6E697400 
 3974              	.LASF248:
 3975 072b 65787469 		.ascii	"exti16_irq_init\000"
 3975      31365F69 
 3975      72715F69 
 3975      6E697400 
ARM GAS  C:\Users\DEVELO~1\AppData\Local\Temp\cccT88qa.s 			page 77


 3976              	.LASF16:
 3977 073b 75696E74 		.ascii	"uint8_t\000"
 3977      385F7400 
 3978              	.LASF92:
 3979 0743 52544F52 		.ascii	"RTOR\000"
 3979      00
 3980              	.LASF148:
 3981 0748 696E7075 		.ascii	"input_queue_t\000"
 3981      745F7175 
 3981      6575655F 
 3981      7400
 3982              	.LASF218:
 3983 0756 75617274 		.ascii	"uart4_irq_deinit\000"
 3983      345F6972 
 3983      715F6465 
 3983      696E6974 
 3983      00
 3984              	.LASF47:
 3985 0767 63685F74 		.ascii	"ch_thread\000"
 3985      68726561 
 3985      6400
 3986              	.LASF194:
 3987 0771 74696D34 		.ascii	"tim4_irq_init\000"
 3987      5F697271 
 3987      5F696E69 
 3987      7400
 3988              	.LASF159:
 3989 077f 75736172 		.ascii	"usart\000"
 3989      7400
 3990              	.LASF64:
 3991 0785 73797374 		.ascii	"system_debug_t\000"
 3991      656D5F64 
 3991      65627567 
 3991      5F7400
 3992              	.LASF185:
 3993 0794 74696D38 		.ascii	"tim8_tim12_tim13_tim14_irq_deinit\000"
 3993      5F74696D 
 3993      31325F74 
 3993      696D3133 
 3993      5F74696D 
 3994              	.LASF106:
 3995 07b6 63685F74 		.ascii	"ch_threads_queue\000"
 3995      68726561 
 3995      64735F71 
 3995      75657565 
 3995      00
 3996              	.LASF164:
 3997 07c7 77726974 		.ascii	"write\000"
 3997      6500
 3998              	.LASF255:
 3999 07cd 65787469 		.ascii	"exti3_irq_deinit\000"
 3999      335F6972 
 3999      715F6465 
 3999      696E6974 
 3999      00
 4000              	.LASF130:
 4001 07de 6576656E 		.ascii	"event_listener\000"
ARM GAS  C:\Users\DEVELO~1\AppData\Local\Temp\cccT88qa.s 			page 78


 4001      745F6C69 
 4001      7374656E 
 4001      657200
 4002              	.LASF27:
 4003 07ed 6D73675F 		.ascii	"msg_t\000"
 4003      7400
 4004              	.LASF232:
 4005 07f3 71756164 		.ascii	"quadspi1_irq_init\000"
 4005      73706931 
 4005      5F697271 
 4005      5F696E69 
 4005      7400
 4006              	.LASF14:
 4007 0805 5F5F7569 		.ascii	"__uint64_t\000"
 4007      6E743634 
 4007      5F7400
 4008              	.LASF181:
 4009 0810 74696D31 		.ascii	"tim16_irq_deinit\000"
 4009      365F6972 
 4009      715F6465 
 4009      696E6974 
 4009      00
 4010              	.LASF169:
 4011 0821 72656164 		.ascii	"readt\000"
 4011      7400
 4012              	.LASF104:
 4013 0827 72656769 		.ascii	"registry_t\000"
 4013      73747279 
 4013      5F7400
 4014              	.LASF180:
 4015 0832 74696D31 		.ascii	"tim17_irq_init\000"
 4015      375F6972 
 4015      715F696E 
 4015      697400
 4016              	.LASF163:
 4017 0841 696E7374 		.ascii	"instance_offset\000"
 4017      616E6365 
 4017      5F6F6666 
 4017      73657400 
 4018              	.LASF149:
 4019 0851 6F757470 		.ascii	"output_queue_t\000"
 4019      75745F71 
 4019      75657565 
 4019      5F7400
 4020              	.LASF210:
 4021 0860 75617274 		.ascii	"uart7_irq_deinit\000"
 4021      375F6972 
 4021      715F6465 
 4021      696E6974 
 4021      00
 4022              	.LASF88:
 4023 0871 73697A65 		.ascii	"size\000"
 4023      00
 4024              	.LASF221:
 4025 0876 75736172 		.ascii	"usart3_irq_init\000"
 4025      74335F69 
 4025      72715F69 
ARM GAS  C:\Users\DEVELO~1\AppData\Local\Temp\cccT88qa.s 			page 79


 4025      6E697400 
 4026              	.LASF249:
 4027 0886 65787469 		.ascii	"exti10_15_irq_deinit\000"
 4027      31305F31 
 4027      355F6972 
 4027      715F6465 
 4027      696E6974 
 4028              	.LASF59:
 4029 089b 6D61736B 		.ascii	"mask\000"
 4029      00
 4030              	.LASF13:
 4031 08a0 6C6F6E67 		.ascii	"long unsigned int\000"
 4031      20756E73 
 4031      69676E65 
 4031      6420696E 
 4031      7400
 4032              	.LASF230:
 4033 08b2 73646D6D 		.ascii	"sdmmc1_irq_init\000"
 4033      63315F69 
 4033      72715F69 
 4033      6E697400 
 4034              	.LASF66:
 4035 08c2 73797369 		.ascii	"sysinterval_t\000"
 4035      6E746572 
 4035      76616C5F 
 4035      7400
 4036              	.LASF70:
 4037 08d0 63685F71 		.ascii	"ch_queue_t\000"
 4037      75657565 
 4037      5F7400
 4038              	.LASF29:
 4039 08db 6576656E 		.ascii	"eventflags_t\000"
 4039      74666C61 
 4039      67735F74 
 4039      00
 4040              	.LASF62:
 4041 08e8 70616E69 		.ascii	"panic_msg\000"
 4041      635F6D73 
 4041      6700
 4042              	.LASF90:
 4043 08f2 74726163 		.ascii	"trace_buffer_t\000"
 4043      655F6275 
 4043      66666572 
 4043      5F7400
 4044              	.LASF214:
 4045 0901 56656374 		.ascii	"Vector114\000"
 4045      6F723131 
 4045      3400
 4046              	.LASF220:
 4047 090b 75736172 		.ascii	"usart3_irq_deinit\000"
 4047      74335F69 
 4047      72715F64 
 4047      65696E69 
 4047      7400
 4048              	.LASF23:
 4049 091d 746D6F64 		.ascii	"tmode_t\000"
 4049      655F7400 
ARM GAS  C:\Users\DEVELO~1\AppData\Local\Temp\cccT88qa.s 			page 80


 4050              	.LASF242:
 4051 0925 65787469 		.ascii	"exti19_irq_init\000"
 4051      31395F69 
 4051      72715F69 
 4051      6E697400 
 4052              	.LASF55:
 4053 0935 6D61696E 		.ascii	"mainthread\000"
 4053      74687265 
 4053      616400
 4054              	.LASF9:
 4055 0940 73686F72 		.ascii	"short unsigned int\000"
 4055      7420756E 
 4055      7369676E 
 4055      65642069 
 4055      6E7400
 4056              	.LASF2:
 4057 0953 6C6F6E67 		.ascii	"long double\000"
 4057      20646F75 
 4057      626C6500 
 4058              	.LASF158:
 4059 095f 6F717565 		.ascii	"oqueue\000"
 4059      756500
 4060              	.LASF152:
 4061 0966 53445F52 		.ascii	"SD_READY\000"
 4061      45414459 
 4061      00
 4062              	.LASF17:
 4063 096f 75696E74 		.ascii	"uint16_t\000"
 4063      31365F74 
 4063      00
 4064              	.LASF172:
 4065 0978 73745F6C 		.ascii	"st_lld_serve_interrupt\000"
 4065      6C645F73 
 4065      65727665 
 4065      5F696E74 
 4065      65727275 
 4066              	.LASF67:
 4067 098f 63685F6C 		.ascii	"ch_list_t\000"
 4067      6973745F 
 4067      7400
 4068              	.LASF101:
 4069 0999 76697274 		.ascii	"virtual_timers_list_t\000"
 4069      75616C5F 
 4069      74696D65 
 4069      72735F6C 
 4069      6973745F 
 4070              	.LASF171:
 4071 09af 6E766963 		.ascii	"nvicEnableVector\000"
 4071      456E6162 
 4071      6C655665 
 4071      63746F72 
 4071      00
 4072              	.LASF54:
 4073 09c0 636F6E66 		.ascii	"config\000"
 4073      696700
 4074              	.LASF211:
 4075 09c7 75617274 		.ascii	"uart7_irq_init\000"
ARM GAS  C:\Users\DEVELO~1\AppData\Local\Temp\cccT88qa.s 			page 81


 4075      375F6972 
 4075      715F696E 
 4075      697400
 4076              	.LASF263:
 4077 09d6 474E5520 		.ascii	"GNU C17 11.3.1 20220712 -mcpu=cortex-m7 -mthumb -mf"
 4077      43313720 
 4077      31312E33 
 4077      2E312032 
 4077      30323230 
 4078 0a09 6C6F6174 		.ascii	"loat-abi=soft -march=armv7e-m -ggdb -O2 -fomit-fram"
 4078      2D616269 
 4078      3D736F66 
 4078      74202D6D 
 4078      61726368 
 4079 0a3c 652D706F 		.ascii	"e-pointer -falign-functions=16 -ffunction-sections "
 4079      696E7465 
 4079      72202D66 
 4079      616C6967 
 4079      6E2D6675 
 4080 0a6f 2D666461 		.ascii	"-fdata-sections -fno-common\000"
 4080      74612D73 
 4080      65637469 
 4080      6F6E7320 
 4080      2D666E6F 
 4081              	.LASF258:
 4082 0a8b 65787469 		.ascii	"exti2_irq_init\000"
 4082      325F6972 
 4082      715F696E 
 4082      697400
 4083              	.LASF161:
 4084 0a9a 72786D61 		.ascii	"rxmask\000"
 4084      736B00
 4085              	.LASF243:
 4086 0aa1 65787469 		.ascii	"exti18_irq_deinit\000"
 4086      31385F69 
 4086      72715F64 
 4086      65696E69 
 4086      7400
 4087              	.LASF7:
 4088 0ab3 73686F72 		.ascii	"short int\000"
 4088      7420696E 
 4088      7400
 4089              	.LASF133:
 4090 0abd 77666C61 		.ascii	"wflags\000"
 4090      677300
 4091              	.LASF95:
 4092 0ac4 706F7274 		.ascii	"port_intctx\000"
 4092      5F696E74 
 4092      63747800 
 4093              	.LASF21:
 4094 0ad0 706F7274 		.ascii	"port_stkalign_t\000"
 4094      5F73746B 
 4094      616C6967 
 4094      6E5F7400 
 4095              	.LASF212:
 4096 0ae0 75736172 		.ascii	"usart6_irq_deinit\000"
 4096      74365F69 
ARM GAS  C:\Users\DEVELO~1\AppData\Local\Temp\cccT88qa.s 			page 82


 4096      72715F64 
 4096      65696E69 
 4096      7400
 4097              	.LASF192:
 4098 0af2 74696D35 		.ascii	"tim5_irq_init\000"
 4098      5F697271 
 4098      5F696E69 
 4098      7400
 4099              	.LASF122:
 4100 0b00 63685F6F 		.ascii	"ch_os_instance_config\000"
 4100      735F696E 
 4100      7374616E 
 4100      63655F63 
 4100      6F6E6669 
 4101              	.LASF98:
 4102 0b16 646C6973 		.ascii	"dlist\000"
 4102      7400
 4103              	.LASF99:
 4104 0b1c 6C617374 		.ascii	"lasttime\000"
 4104      74696D65 
 4104      00
 4105              	.LASF20:
 4106 0b25 75696E74 		.ascii	"uint64_t\000"
 4106      36345F74 
 4106      00
 4107              	.LASF49:
 4108 0b2e 726C6973 		.ascii	"rlist\000"
 4108      7400
 4109              	.LASF5:
 4110 0b34 5F5F7569 		.ascii	"__uint8_t\000"
 4110      6E74385F 
 4110      7400
 4111              	.LASF234:
 4112 0b3e 66646361 		.ascii	"fdcan3_irq_init\000"
 4112      6E335F69 
 4112      72715F69 
 4112      6E697400 
 4113              	.LASF237:
 4114 0b4e 66646361 		.ascii	"fdcan1_irq_deinit\000"
 4114      6E315F69 
 4114      72715F64 
 4114      65696E69 
 4114      7400
 4115              	.LASF165:
 4116 0b60 72656164 		.ascii	"read\000"
 4116      00
 4117              	.LASF150:
 4118 0b65 53445F55 		.ascii	"SD_UNINIT\000"
 4118      4E494E49 
 4118      5400
 4119              	.LASF140:
 4120 0b6f 715F636F 		.ascii	"q_counter\000"
 4120      756E7465 
 4120      7200
 4121              	.LASF167:
 4122 0b79 67657474 		.ascii	"gett\000"
 4122      00
ARM GAS  C:\Users\DEVELO~1\AppData\Local\Temp\cccT88qa.s 			page 83


 4123              	.LASF142:
 4124 0b7e 715F746F 		.ascii	"q_top\000"
 4124      7000
 4125              	.LASF25:
 4126 0b84 74726566 		.ascii	"trefs_t\000"
 4126      735F7400 
 4127              	.LASF177:
 4128 0b8c 69727144 		.ascii	"irqDeinit\000"
 4128      65696E69 
 4128      7400
 4129              	.LASF129:
 4130 0b96 6576656E 		.ascii	"event_listener_t\000"
 4130      745F6C69 
 4130      7374656E 
 4130      65725F74 
 4130      00
 4131              	.LASF121:
 4132 0ba7 72656164 		.ascii	"ready_list_t\000"
 4132      795F6C69 
 4132      73745F74 
 4132      00
 4133              	.LASF213:
 4134 0bb4 75736172 		.ascii	"usart6_irq_init\000"
 4134      74365F69 
 4134      72715F69 
 4134      6E697400 
 4135              	.LASF201:
 4136 0bc4 74696D31 		.ascii	"tim1_irq_init\000"
 4136      5F697271 
 4136      5F696E69 
 4136      7400
 4137              	.LASF84:
 4138 0bd2 72747374 		.ascii	"rtstamp\000"
 4138      616D7000 
 4139              	.LASF103:
 4140 0bda 71756575 		.ascii	"queue\000"
 4140      6500
 4141              	.LASF18:
 4142 0be0 696E7433 		.ascii	"int32_t\000"
 4142      325F7400 
 4143              	.LASF60:
 4144 0be8 72666375 		.ascii	"rfcu_t\000"
 4144      5F7400
 4145              	.LASF56:
 4146 0bef 74726163 		.ascii	"trace_buffer\000"
 4146      655F6275 
 4146      66666572 
 4146      00
 4147              	.LASF114:
 4148 0bfc 77747365 		.ascii	"wtsemp\000"
 4148      6D7000
 4149              	.LASF74:
 4150 0c03 63685F70 		.ascii	"ch_priority_queue\000"
 4150      72696F72 
 4150      6974795F 
 4150      71756575 
 4150      6500
ARM GAS  C:\Users\DEVELO~1\AppData\Local\Temp\cccT88qa.s 			page 84


 4151              	.LASF189:
 4152 0c15 74696D36 		.ascii	"tim6_irq_deinit\000"
 4152      5F697271 
 4152      5F646569 
 4152      6E697400 
 4153              	.LASF228:
 4154 0c25 73646D6D 		.ascii	"sdmmc2_irq_init\000"
 4154      63325F69 
 4154      72715F69 
 4154      6E697400 
 4155              	.LASF71:
 4156 0c35 63685F71 		.ascii	"ch_queue\000"
 4156      75657565 
 4156      00
 4157              	.LASF128:
 4158 0c3e 6D757465 		.ascii	"mutex_t\000"
 4158      785F7400 
 4159              	.LASF229:
 4160 0c46 73646D6D 		.ascii	"sdmmc1_irq_deinit\000"
 4160      63315F69 
 4160      72715F64 
 4160      65696E69 
 4160      7400
 4161              	.LASF83:
 4162 0c58 74797065 		.ascii	"type\000"
 4162      00
 4163              	.LASF195:
 4164 0c5d 74696D33 		.ascii	"tim3_irq_deinit\000"
 4164      5F697271 
 4164      5F646569 
 4164      6E697400 
 4165              	.LASF6:
 4166 0c6d 756E7369 		.ascii	"unsigned char\000"
 4166      676E6564 
 4166      20636861 
 4166      7200
 4167              	.LASF12:
 4168 0c7b 5F5F7569 		.ascii	"__uint32_t\000"
 4168      6E743332 
 4168      5F7400
 4169              	.LASF40:
 4170 0c86 77616974 		.ascii	"waiting\000"
 4170      696E6700 
 4171              	.LASF259:
 4172 0c8e 65787469 		.ascii	"exti1_irq_deinit\000"
 4172      315F6972 
 4172      715F6465 
 4172      696E6974 
 4172      00
 4173              	.LASF37:
 4174 0c9f 73746174 		.ascii	"state\000"
 4174      6500
 4175              	.LASF46:
 4176 0ca5 6F735F69 		.ascii	"os_instance_t\000"
 4176      6E737461 
 4176      6E63655F 
 4176      7400
ARM GAS  C:\Users\DEVELO~1\AppData\Local\Temp\cccT88qa.s 			page 85


 4177              	.LASF209:
 4178 0cb3 75617274 		.ascii	"uart8_irq_init\000"
 4178      385F6972 
 4178      715F696E 
 4178      697400
 4179              	.LASF51:
 4180 0cc2 7265676C 		.ascii	"reglist\000"
 4180      69737400 
 4181              	.LASF174:
 4182 0cca 5F5F7472 		.ascii	"__trace_isr_leave\000"
 4182      6163655F 
 4182      6973725F 
 4182      6C656176 
 4182      6500
 4183              	.LASF256:
 4184 0cdc 65787469 		.ascii	"exti3_irq_init\000"
 4184      335F6972 
 4184      715F696E 
 4184      697400
 4185              	.LASF216:
 4186 0ceb 75617274 		.ascii	"uart5_irq_deinit\000"
 4186      355F6972 
 4186      715F6465 
 4186      696E6974 
 4186      00
 4187              	.LASF125:
 4188 0cfc 69646C65 		.ascii	"idlethread_base\000"
 4188      74687265 
 4188      61645F62 
 4188      61736500 
 4189              	.LASF3:
 4190 0d0c 7369676E 		.ascii	"signed char\000"
 4190      65642063 
 4190      68617200 
 4191              	.LASF205:
 4192 0d18 75736172 		.ascii	"usart10_irq_init\000"
 4192      7431305F 
 4192      6972715F 
 4192      696E6974 
 4192      00
 4193              	.LASF78:
 4194 0d29 64656C74 		.ascii	"delta\000"
 4194      6100
 4195              	.LASF138:
 4196 0d2f 696F5F71 		.ascii	"io_queue\000"
 4196      75657565 
 4196      00
 4197              	.LASF162:
 4198 0d38 53657269 		.ascii	"SerialDriverVMT\000"
 4198      616C4472 
 4198      69766572 
 4198      564D5400 
 4199              	.LASF22:
 4200 0d48 73746B61 		.ascii	"stkalign_t\000"
 4200      6C69676E 
 4200      5F7400
 4201              	.LASF120:
ARM GAS  C:\Users\DEVELO~1\AppData\Local\Temp\cccT88qa.s 			page 86


 4202 0d53 63757272 		.ascii	"current\000"
 4202      656E7400 
 4203              	.LASF215:
 4204 0d5b 5F5F6675 		.ascii	"__func__\000"
 4204      6E635F5F 
 4204      00
 4205              	.LASF190:
 4206 0d64 74696D36 		.ascii	"tim6_irq_init\000"
 4206      5F697271 
 4206      5F696E69 
 4206      7400
 4207              	.LASF204:
 4208 0d72 75736172 		.ascii	"usart10_irq_deinit\000"
 4208      7431305F 
 4208      6972715F 
 4208      6465696E 
 4208      697400
 4209              	.LASF225:
 4210 0d85 75736172 		.ascii	"usart1_irq_deinit\000"
 4210      74315F69 
 4210      72715F64 
 4210      65696E69 
 4210      7400
 4211              	.LASF176:
 4212 0d97 5F5F7472 		.ascii	"__trace_isr_enter\000"
 4212      6163655F 
 4212      6973725F 
 4212      656E7465 
 4212      7200
 4213              	.LASF179:
 4214 0da9 74696D31 		.ascii	"tim17_irq_deinit\000"
 4214      375F6972 
 4214      715F6465 
 4214      696E6974 
 4214      00
 4215              	.LASF52:
 4216 0dba 636F7265 		.ascii	"core_id\000"
 4216      5F696400 
 4217              	.LASF112:
 4218 0dc2 77747472 		.ascii	"wttrp\000"
 4218      7000
 4219              	.LASF115:
 4220 0dc8 77746D74 		.ascii	"wtmtxp\000"
 4220      787000
 4221              	.LASF219:
 4222 0dcf 75617274 		.ascii	"uart4_irq_init\000"
 4222      345F6972 
 4222      715F696E 
 4222      697400
 4223              	.LASF111:
 4224 0dde 65786974 		.ascii	"exitcode\000"
 4224      636F6465 
 4224      00
 4225              	.LASF31:
 4226 0de7 636F7265 		.ascii	"core_id_t\000"
 4226      5F69645F 
 4226      7400
ARM GAS  C:\Users\DEVELO~1\AppData\Local\Temp\cccT88qa.s 			page 87


 4227              	.LASF141:
 4228 0df1 715F6275 		.ascii	"q_buffer\000"
 4228      66666572 
 4228      00
 4229              	.LASF45:
 4230 0dfa 6D706F6F 		.ascii	"mpool\000"
 4230      6C00
 4231              		.ident	"GCC: (Arm GNU Toolchain 11.3.Rel1) 11.3.1 20220712"
ARM GAS  C:\Users\DEVELO~1\AppData\Local\Temp\cccT88qa.s 			page 88


DEFINED SYMBOLS
                            *ABS*:00000000 stm32_isr.c
C:\Users\DEVELO~1\AppData\Local\Temp\cccT88qa.s:18     .text.VectorD4:00000000 $t
C:\Users\DEVELO~1\AppData\Local\Temp\cccT88qa.s:25     .text.VectorD4:00000000 VectorD4
C:\Users\DEVELO~1\AppData\Local\Temp\cccT88qa.s:71     .text.VectorD4:00000020 $d
C:\Users\DEVELO~1\AppData\Local\Temp\cccT88qa.s:77     .text.Vector114:00000000 $t
C:\Users\DEVELO~1\AppData\Local\Temp\cccT88qa.s:84     .text.Vector114:00000000 Vector114
C:\Users\DEVELO~1\AppData\Local\Temp\cccT88qa.s:130    .text.Vector114:00000020 $d
C:\Users\DEVELO~1\AppData\Local\Temp\cccT88qa.s:136    .text.VectorB0:00000000 $t
C:\Users\DEVELO~1\AppData\Local\Temp\cccT88qa.s:143    .text.VectorB0:00000000 VectorB0
C:\Users\DEVELO~1\AppData\Local\Temp\cccT88qa.s:188    .text.VectorB0:0000001c $d
C:\Users\DEVELO~1\AppData\Local\Temp\cccT88qa.s:193    .text.irqInit:00000000 $t
C:\Users\DEVELO~1\AppData\Local\Temp\cccT88qa.s:200    .text.irqInit:00000000 irqInit
C:\Users\DEVELO~1\AppData\Local\Temp\cccT88qa.s:299    .text.irqDeinit:00000000 $t
C:\Users\DEVELO~1\AppData\Local\Temp\cccT88qa.s:306    .text.irqDeinit:00000000 irqDeinit
C:\Users\DEVELO~1\AppData\Local\Temp\cccT88qa.s:400    .rodata.__func__.0:00000000 $d
C:\Users\DEVELO~1\AppData\Local\Temp\cccT88qa.s:404    .rodata.__func__.0:00000000 __func__.0
C:\Users\DEVELO~1\AppData\Local\Temp\cccT88qa.s:407    .rodata.__func__.1:00000000 $d
C:\Users\DEVELO~1\AppData\Local\Temp\cccT88qa.s:411    .rodata.__func__.1:00000000 __func__.1
C:\Users\DEVELO~1\AppData\Local\Temp\cccT88qa.s:414    .rodata.__func__.2:00000000 $d
C:\Users\DEVELO~1\AppData\Local\Temp\cccT88qa.s:418    .rodata.__func__.2:00000000 __func__.2

UNDEFINED SYMBOLS
__trace_isr_enter
sd_lld_serve_interrupt
__trace_isr_leave
__port_irq_epilogue
SD1
SD5
st_lld_serve_interrupt
nvicEnableVector
nvicDisableVector
