ARM GAS  C:\Users\DEVELO~1\AppData\Local\Temp\cc6b0Z3y.s 			page 1


   1              		.cpu cortex-m7
   2              		.arch armv7e-m
   3              		.fpu softvfp
   4              		.eabi_attribute 20, 1
   5              		.eabi_attribute 21, 1
   6              		.eabi_attribute 23, 3
   7              		.eabi_attribute 24, 1
   8              		.eabi_attribute 25, 1
   9              		.eabi_attribute 26, 1
  10              		.eabi_attribute 30, 2
  11              		.eabi_attribute 34, 1
  12              		.eabi_attribute 18, 4
  13              		.file	"syscalls.c"
  14              		.text
  15              	.Ltext0:
  16              		.cfi_sections	.debug_frame
  17              		.section	.text._read_r,"ax",%progbits
  18              		.align	1
  19              		.p2align 4,,15
  20              		.global	_read_r
  21              		.syntax unified
  22              		.thumb
  23              		.thumb_func
  24              		.type	_read_r, %function
  25              	_read_r:
  26              	.LVL0:
  27              	.LFB346:
  28              		.file 1 "../../../os/various/syscalls.c"
  29              		.loc 1 71 62 view -0
  30              		.cfi_startproc
  31              		@ args = 0, pretend = 0, frame = 0
  32              		@ frame_needed = 0, uses_anonymous_args = 0
  33              		@ link register save eliminated.
  34              		.loc 1 72 3 view .LVU1
  35              		.loc 1 81 3 view .LVU2
  36              		.loc 1 82 3 view .LVU3
  37              		.loc 1 83 3 view .LVU4
  38              		.loc 1 84 3 view .LVU5
  39              		.loc 1 71 62 is_stmt 0 view .LVU6
  40 0000 0346     		mov	r3, r0
  41              	.LVL1:
  42              		.loc 1 84 17 view .LVU7
  43 0002 1622     		movs	r2, #22
  44              	.LVL2:
  45              		.loc 1 87 1 view .LVU8
  46 0004 4FF0FF30 		mov	r0, #-1
  47              	.LVL3:
  48              		.loc 1 84 17 view .LVU9
  49 0008 1A60     		str	r2, [r3]
  50              		.loc 1 85 3 is_stmt 1 view .LVU10
  51              		.loc 1 87 1 is_stmt 0 view .LVU11
  52 000a 7047     		bx	lr
  53              		.cfi_endproc
  54              	.LFE346:
  55              		.size	_read_r, .-_read_r
  56              		.section	.text._lseek_r,"ax",%progbits
  57              		.align	1
ARM GAS  C:\Users\DEVELO~1\AppData\Local\Temp\cc6b0Z3y.s 			page 2


  58              		.p2align 4,,15
  59              		.global	_lseek_r
  60              		.syntax unified
  61              		.thumb
  62              		.thumb_func
  63              		.type	_lseek_r, %function
  64              	_lseek_r:
  65              	.LVL4:
  66              	.LFB347:
  67              		.loc 1 92 60 is_stmt 1 view -0
  68              		.cfi_startproc
  69              		@ args = 0, pretend = 0, frame = 0
  70              		@ frame_needed = 0, uses_anonymous_args = 0
  71              		@ link register save eliminated.
  72              		.loc 1 93 3 view .LVU13
  73              		.loc 1 94 3 view .LVU14
  74              		.loc 1 95 3 view .LVU15
  75              		.loc 1 96 3 view .LVU16
  76              		.loc 1 98 3 view .LVU17
  77              		.loc 1 99 1 is_stmt 0 view .LVU18
  78 0000 0020     		movs	r0, #0
  79              	.LVL5:
  80              		.loc 1 99 1 view .LVU19
  81 0002 7047     		bx	lr
  82              		.cfi_endproc
  83              	.LFE347:
  84              		.size	_lseek_r, .-_lseek_r
  85              		.section	.text._write_r,"ax",%progbits
  86              		.align	1
  87              		.p2align 4,,15
  88              		.global	_write_r
  89              		.syntax unified
  90              		.thumb
  91              		.thumb_func
  92              		.type	_write_r, %function
  93              	_write_r:
  94              	.LVL6:
  95              	.LFB348:
  96              		.loc 1 104 63 is_stmt 1 view -0
  97              		.cfi_startproc
  98              		@ args = 0, pretend = 0, frame = 0
  99              		@ frame_needed = 0, uses_anonymous_args = 0
 100              		@ link register save eliminated.
 101              		.loc 1 105 3 view .LVU21
 102              		.loc 1 106 3 view .LVU22
 103              		.loc 1 107 3 view .LVU23
 104              		.loc 1 115 3 view .LVU24
 105              		.loc 1 116 1 is_stmt 0 view .LVU25
 106 0000 1846     		mov	r0, r3
 107              	.LVL7:
 108              		.loc 1 116 1 view .LVU26
 109 0002 7047     		bx	lr
 110              		.cfi_endproc
 111              	.LFE348:
 112              		.size	_write_r, .-_write_r
 113              		.section	.text._open_r,"ax",%progbits
 114              		.align	1
ARM GAS  C:\Users\DEVELO~1\AppData\Local\Temp\cc6b0Z3y.s 			page 3


 115              		.p2align 4,,15
 116              		.global	_open_r
 117              		.syntax unified
 118              		.thumb
 119              		.thumb_func
 120              		.type	_open_r, %function
 121              	_open_r:
 122              	.LVL8:
 123              	.LFB349:
 124              		.loc 1 121 60 is_stmt 1 view -0
 125              		.cfi_startproc
 126              		@ args = 0, pretend = 0, frame = 0
 127              		@ frame_needed = 0, uses_anonymous_args = 0
 128              		@ link register save eliminated.
 129              		.loc 1 123 3 view .LVU28
 130              		.loc 1 124 3 view .LVU29
 131              		.loc 1 125 3 view .LVU30
 132              		.loc 1 126 3 view .LVU31
 133              		.loc 1 127 3 view .LVU32
 134              		.loc 1 121 60 is_stmt 0 view .LVU33
 135 0000 0346     		mov	r3, r0
 136              	.LVL9:
 137              		.loc 1 127 16 view .LVU34
 138 0002 1622     		movs	r2, #22
 139              	.LVL10:
 140              		.loc 1 129 1 view .LVU35
 141 0004 4FF0FF30 		mov	r0, #-1
 142              	.LVL11:
 143              		.loc 1 127 16 view .LVU36
 144 0008 1A60     		str	r2, [r3]
 145              		.loc 1 128 3 is_stmt 1 view .LVU37
 146              		.loc 1 129 1 is_stmt 0 view .LVU38
 147 000a 7047     		bx	lr
 148              		.cfi_endproc
 149              	.LFE349:
 150              		.size	_open_r, .-_open_r
 151              		.section	.text._close_r,"ax",%progbits
 152              		.align	1
 153              		.p2align 4,,15
 154              		.global	_close_r
 155              		.syntax unified
 156              		.thumb
 157              		.thumb_func
 158              		.type	_close_r, %function
 159              	_close_r:
 160              	.LVL12:
 161              	.LFB350:
 162              		.loc 1 134 42 is_stmt 1 view -0
 163              		.cfi_startproc
 164              		@ args = 0, pretend = 0, frame = 0
 165              		@ frame_needed = 0, uses_anonymous_args = 0
 166              		@ link register save eliminated.
 167              		.loc 1 135 3 view .LVU40
 168              		.loc 1 136 3 view .LVU41
 169              		.loc 1 138 3 view .LVU42
 170              		.loc 1 139 1 is_stmt 0 view .LVU43
 171 0000 0020     		movs	r0, #0
ARM GAS  C:\Users\DEVELO~1\AppData\Local\Temp\cc6b0Z3y.s 			page 4


 172              	.LVL13:
 173              		.loc 1 139 1 view .LVU44
 174 0002 7047     		bx	lr
 175              		.cfi_endproc
 176              	.LFE350:
 177              		.size	_close_r, .-_close_r
 178              		.section	.text._sbrk_r,"ax",%progbits
 179              		.align	1
 180              		.p2align 4,,15
 181              		.global	_sbrk_r
 182              		.syntax unified
 183              		.thumb
 184              		.thumb_func
 185              		.type	_sbrk_r, %function
 186              	_sbrk_r:
 187              	.LVL14:
 188              	.LFB351:
 189              		.loc 1 144 45 is_stmt 1 view -0
 190              		.cfi_startproc
 191              		@ args = 0, pretend = 0, frame = 0
 192              		@ frame_needed = 0, uses_anonymous_args = 0
 193              		.loc 1 146 3 view .LVU46
 194              		.loc 1 148 3 view .LVU47
 195              		.loc 1 148 3 view .LVU48
 196              		.loc 1 148 3 view .LVU49
 197              		.loc 1 150 3 view .LVU50
 198              		.loc 1 144 45 is_stmt 0 view .LVU51
 199 0000 10B5     		push	{r4, lr}
 200              		.cfi_def_cfa_offset 8
 201              		.cfi_offset 4, -8
 202              		.cfi_offset 14, -4
 203              		.loc 1 144 45 view .LVU52
 204 0002 0C46     		mov	r4, r1
 205 0004 0346     		mov	r3, r0
 206              		.loc 1 150 7 view .LVU53
 207 0006 0022     		movs	r2, #0
 208 0008 0121     		movs	r1, #1
 209              	.LVL15:
 210              		.loc 1 150 7 view .LVU54
 211 000a 2046     		mov	r0, r4
 212              	.LVL16:
 213              		.loc 1 144 45 view .LVU55
 214 000c 1C46     		mov	r4, r3
 215              	.LVL17:
 216              		.loc 1 150 7 view .LVU56
 217 000e FFF7FEFF 		bl	chCoreAllocFromBase
 218              	.LVL18:
 219              		.loc 1 151 3 is_stmt 1 view .LVU57
 220              		.loc 1 151 6 is_stmt 0 view .LVU58
 221 0012 00B1     		cbz	r0, .L10
 222              		.loc 1 161 1 view .LVU59
 223 0014 10BD     		pop	{r4, pc}
 224              	.LVL19:
 225              	.L10:
 226              		.loc 1 152 5 is_stmt 1 view .LVU60
 227              		.loc 1 152 19 is_stmt 0 view .LVU61
 228 0016 0C23     		movs	r3, #12
ARM GAS  C:\Users\DEVELO~1\AppData\Local\Temp\cc6b0Z3y.s 			page 5


 229              		.loc 1 153 12 view .LVU62
 230 0018 4FF0FF30 		mov	r0, #-1
 231              	.LVL20:
 232              		.loc 1 152 19 view .LVU63
 233 001c 2360     		str	r3, [r4]
 234              		.loc 1 153 5 is_stmt 1 view .LVU64
 235              		.loc 1 161 1 is_stmt 0 view .LVU65
 236 001e 10BD     		pop	{r4, pc}
 237              		.loc 1 161 1 view .LVU66
 238              		.cfi_endproc
 239              	.LFE351:
 240              		.size	_sbrk_r, .-_sbrk_r
 241              		.section	.text._fstat_r,"ax",%progbits
 242              		.align	1
 243              		.p2align 4,,15
 244              		.global	_fstat_r
 245              		.syntax unified
 246              		.thumb
 247              		.thumb_func
 248              		.type	_fstat_r, %function
 249              	_fstat_r:
 250              	.LVL21:
 251              	.LFB352:
 252              		.loc 1 166 60 is_stmt 1 view -0
 253              		.cfi_startproc
 254              		@ args = 0, pretend = 0, frame = 0
 255              		@ frame_needed = 0, uses_anonymous_args = 0
 256              		.loc 1 167 3 view .LVU68
 257              		.loc 1 168 3 view .LVU69
 258              		.loc 1 170 3 view .LVU70
 259              		.loc 1 166 60 is_stmt 0 view .LVU71
 260 0000 08B5     		push	{r3, lr}
 261              		.cfi_def_cfa_offset 8
 262              		.cfi_offset 3, -8
 263              		.cfi_offset 14, -4
 264              		.loc 1 166 60 view .LVU72
 265 0002 1346     		mov	r3, r2
 266              		.loc 1 170 3 view .LVU73
 267 0004 0021     		movs	r1, #0
 268              	.LVL22:
 269              		.loc 1 170 3 view .LVU74
 270 0006 5822     		movs	r2, #88
 271              	.LVL23:
 272              		.loc 1 170 3 view .LVU75
 273 0008 1846     		mov	r0, r3
 274              	.LVL24:
 275              		.loc 1 170 3 view .LVU76
 276 000a FFF7FEFF 		bl	memset
 277              	.LVL25:
 278              		.loc 1 171 15 view .LVU77
 279 000e 4FF40052 		mov	r2, #8192
 280              		.loc 1 170 3 view .LVU78
 281 0012 0346     		mov	r3, r0
 282              		.loc 1 171 3 is_stmt 1 view .LVU79
 283              		.loc 1 173 1 is_stmt 0 view .LVU80
 284 0014 0020     		movs	r0, #0
 285              		.loc 1 171 15 view .LVU81
ARM GAS  C:\Users\DEVELO~1\AppData\Local\Temp\cc6b0Z3y.s 			page 6


 286 0016 5A60     		str	r2, [r3, #4]
 287              		.loc 1 172 3 is_stmt 1 view .LVU82
 288              		.loc 1 173 1 is_stmt 0 view .LVU83
 289 0018 08BD     		pop	{r3, pc}
 290              		.cfi_endproc
 291              	.LFE352:
 292              		.size	_fstat_r, .-_fstat_r
 293 001a 00BF     		.section	.text._isatty_r,"ax",%progbits
 294              		.align	1
 295              		.p2align 4,,15
 296              		.global	_isatty_r
 297              		.syntax unified
 298              		.thumb
 299              		.thumb_func
 300              		.type	_isatty_r, %function
 301              	_isatty_r:
 302              	.LVL26:
 303              	.LFB353:
 304              		.loc 1 178 41 is_stmt 1 view -0
 305              		.cfi_startproc
 306              		@ args = 0, pretend = 0, frame = 0
 307              		@ frame_needed = 0, uses_anonymous_args = 0
 308              		@ link register save eliminated.
 309              		.loc 1 179 3 view .LVU85
 310              		.loc 1 180 3 view .LVU86
 311              		.loc 1 182 3 view .LVU87
 312              		.loc 1 183 1 is_stmt 0 view .LVU88
 313 0000 0120     		movs	r0, #1
 314              	.LVL27:
 315              		.loc 1 183 1 view .LVU89
 316 0002 7047     		bx	lr
 317              		.cfi_endproc
 318              	.LFE353:
 319              		.size	_isatty_r, .-_isatty_r
 320              		.section	.rodata._exit.str1.4,"aMS",%progbits,1
 321              		.align	2
 322              	.LC0:
 323 0000 65786974 		.ascii	"exit\000"
 323      00
 324              		.section	.text._exit,"ax",%progbits
 325              		.align	1
 326              		.p2align 4,,15
 327              		.global	_exit
 328              		.syntax unified
 329              		.thumb
 330              		.thumb_func
 331              		.type	_exit, %function
 332              	_exit:
 333              	.LVL28:
 334              	.LFB354:
 335              		.loc 1 188 24 is_stmt 1 view -0
 336              		.cfi_startproc
 337              		@ Volatile: function does not return.
 338              		@ args = 0, pretend = 0, frame = 0
 339              		@ frame_needed = 0, uses_anonymous_args = 0
 340              		.loc 1 190 3 view .LVU91
 341              		.loc 1 192 3 view .LVU92
ARM GAS  C:\Users\DEVELO~1\AppData\Local\Temp\cc6b0Z3y.s 			page 7


 342 0000 0248     		ldr	r0, .L16
 343              	.LVL29:
 344              		.loc 1 188 24 is_stmt 0 view .LVU93
 345 0002 08B5     		push	{r3, lr}
 346              		.cfi_def_cfa_offset 8
 347              		.cfi_offset 3, -8
 348              		.cfi_offset 14, -4
 349              		.loc 1 192 3 view .LVU94
 350 0004 FFF7FEFF 		bl	chSysHalt
 351              	.LVL30:
 352              		.loc 1 193 3 is_stmt 1 view .LVU95
 353 0008 FFF7FEFF 		bl	abort
 354              	.LVL31:
 355              	.L17:
 356              		.align	2
 357              	.L16:
 358 000c 00000000 		.word	.LC0
 359              		.cfi_endproc
 360              	.LFE354:
 361              		.size	_exit, .-_exit
 362              		.section	.rodata._kill.str1.4,"aMS",%progbits,1
 363              		.align	2
 364              	.LC1:
 365 0000 6B696C6C 		.ascii	"kill\000"
 365      00
 366              		.section	.text._kill,"ax",%progbits
 367              		.align	1
 368              		.p2align 4,,15
 369              		.global	_kill
 370              		.syntax unified
 371              		.thumb
 372              		.thumb_func
 373              		.type	_kill, %function
 374              	_kill:
 375              	.LVL32:
 376              	.LFB355:
 377              		.loc 1 199 29 view -0
 378              		.cfi_startproc
 379              		@ Volatile: function does not return.
 380              		@ args = 0, pretend = 0, frame = 0
 381              		@ frame_needed = 0, uses_anonymous_args = 0
 382              		.loc 1 201 3 view .LVU97
 383              		.loc 1 202 3 view .LVU98
 384              		.loc 1 204 3 view .LVU99
 385 0000 0248     		ldr	r0, .L20
 386              	.LVL33:
 387              		.loc 1 199 29 is_stmt 0 view .LVU100
 388 0002 08B5     		push	{r3, lr}
 389              		.cfi_def_cfa_offset 8
 390              		.cfi_offset 3, -8
 391              		.cfi_offset 14, -4
 392              		.loc 1 204 3 view .LVU101
 393 0004 FFF7FEFF 		bl	chSysHalt
 394              	.LVL34:
 395              		.loc 1 205 3 is_stmt 1 view .LVU102
 396 0008 FFF7FEFF 		bl	abort
 397              	.LVL35:
ARM GAS  C:\Users\DEVELO~1\AppData\Local\Temp\cc6b0Z3y.s 			page 8


 398              	.L21:
 399              		.align	2
 400              	.L20:
 401 000c 00000000 		.word	.LC1
 402              		.cfi_endproc
 403              	.LFE355:
 404              		.size	_kill, .-_kill
 405              		.section	.text._getpid,"ax",%progbits
 406              		.align	1
 407              		.p2align 4,,15
 408              		.global	_getpid
 409              		.syntax unified
 410              		.thumb
 411              		.thumb_func
 412              		.type	_getpid, %function
 413              	_getpid:
 414              	.LFB356:
 415              		.loc 1 211 19 view -0
 416              		.cfi_startproc
 417              		@ args = 0, pretend = 0, frame = 0
 418              		@ frame_needed = 0, uses_anonymous_args = 0
 419              		@ link register save eliminated.
 420              		.loc 1 213 3 view .LVU104
 421              		.loc 1 215 1 is_stmt 0 view .LVU105
 422 0000 0120     		movs	r0, #1
 423 0002 7047     		bx	lr
 424              		.cfi_endproc
 425              	.LFE356:
 426              		.size	_getpid, .-_getpid
 427              		.section	.rodata.__cxa_pure_virtual.str1.4,"aMS",%progbits,1
 428              		.align	2
 429              	.LC2:
 430 0000 70757265 		.ascii	"pure virtual\000"
 430      20766972 
 430      7475616C 
 430      00
 431              		.section	.text.__cxa_pure_virtual,"ax",%progbits
 432              		.align	1
 433              		.p2align 4,,15
 434              		.global	__cxa_pure_virtual
 435              		.syntax unified
 436              		.thumb
 437              		.thumb_func
 438              		.type	__cxa_pure_virtual, %function
 439              	__cxa_pure_virtual:
 440              	.LFB357:
 441              		.loc 1 219 31 is_stmt 1 view -0
 442              		.cfi_startproc
 443              		@ args = 0, pretend = 0, frame = 0
 444              		@ frame_needed = 0, uses_anonymous_args = 0
 445              		@ link register save eliminated.
 446              		.loc 1 220 3 view .LVU107
 447 0000 0148     		ldr	r0, .L24
 448 0002 FFF7FEBF 		b	chSysHalt
 449              	.LVL36:
 450              	.L25:
 451 0006 00BF     		.align	2
ARM GAS  C:\Users\DEVELO~1\AppData\Local\Temp\cc6b0Z3y.s 			page 9


 452              	.L24:
 453 0008 00000000 		.word	.LC2
 454              		.cfi_endproc
 455              	.LFE357:
 456              		.size	__cxa_pure_virtual, .-__cxa_pure_virtual
 457              		.text
 458              	.Letext0:
 459              		.file 2 "c:\\chibistudio\\tools\\gnu tools arm embedded\\11.3 2022.08\\lib\\gcc\\arm-none-eabi\\11
 460              		.file 3 "c:\\chibistudio\\tools\\gnu tools arm embedded\\11.3 2022.08\\arm-none-eabi\\include\\mac
 461              		.file 4 "c:\\chibistudio\\tools\\gnu tools arm embedded\\11.3 2022.08\\arm-none-eabi\\include\\sys
 462              		.file 5 "c:\\chibistudio\\tools\\gnu tools arm embedded\\11.3 2022.08\\arm-none-eabi\\include\\sys
 463              		.file 6 "c:\\chibistudio\\tools\\gnu tools arm embedded\\11.3 2022.08\\arm-none-eabi\\include\\sys
 464              		.file 7 "c:\\chibistudio\\tools\\gnu tools arm embedded\\11.3 2022.08\\arm-none-eabi\\include\\sys
 465              		.file 8 "c:\\chibistudio\\tools\\gnu tools arm embedded\\11.3 2022.08\\arm-none-eabi\\include\\sys
 466              		.file 9 "c:\\chibistudio\\tools\\gnu tools arm embedded\\11.3 2022.08\\arm-none-eabi\\include\\sys
 467              		.file 10 "c:\\chibistudio\\tools\\gnu tools arm embedded\\11.3 2022.08\\arm-none-eabi\\include\\sy
 468              		.file 11 "c:\\chibistudio\\tools\\gnu tools arm embedded\\11.3 2022.08\\arm-none-eabi\\include\\st
 469              		.file 12 "../../../os/oslib/include/chmemcore.h"
 470              		.file 13 "c:\\chibistudio\\tools\\gnu tools arm embedded\\11.3 2022.08\\arm-none-eabi\\include\\st
 471              		.file 14 "../../../os/rt/include/chearly.h"
 472              		.file 15 "<built-in>"
 473              		.section	.debug_info,"",%progbits
 474              	.Ldebug_info0:
 475 0000 150D0000 		.4byte	0xd15
 476 0004 0500     		.2byte	0x5
 477 0006 01       		.byte	0x1
 478 0007 04       		.byte	0x4
 479 0008 00000000 		.4byte	.Ldebug_abbrev0
 480 000c 1A       		.uleb128 0x1a
 481 000d BF020000 		.4byte	.LASF156
 482 0011 1D       		.byte	0x1d
 483 0012 31040000 		.4byte	.LASF157
 484 0016 50000000 		.4byte	.LASF158
 485 001a 0C000000 		.4byte	.LLRL19
 486 001e 00000000 		.4byte	0
 487 0022 00000000 		.4byte	.Ldebug_line0
 488 0026 03       		.uleb128 0x3
 489 0027 23000000 		.4byte	.LASF3
 490 002b 02       		.byte	0x2
 491 002c D1       		.byte	0xd1
 492 002d 17       		.byte	0x17
 493 002e 32000000 		.4byte	0x32
 494 0032 07       		.uleb128 0x7
 495 0033 04       		.byte	0x4
 496 0034 07       		.byte	0x7
 497 0035 C5050000 		.4byte	.LASF0
 498 0039 1B       		.uleb128 0x1b
 499 003a 04       		.byte	0x4
 500 003b 05       		.byte	0x5
 501 003c 696E7400 		.ascii	"int\000"
 502 0040 07       		.uleb128 0x7
 503 0041 08       		.byte	0x8
 504 0042 05       		.byte	0x5
 505 0043 CF010000 		.4byte	.LASF1
 506 0047 07       		.uleb128 0x7
 507 0048 08       		.byte	0x8
 508 0049 04       		.byte	0x4
ARM GAS  C:\Users\DEVELO~1\AppData\Local\Temp\cc6b0Z3y.s 			page 10


 509 004a 9D050000 		.4byte	.LASF2
 510 004e 1C       		.uleb128 0x1c
 511 004f DC030000 		.4byte	.LASF4
 512 0053 02       		.byte	0x2
 513 0054 5E01     		.2byte	0x15e
 514 0056 17       		.byte	0x17
 515 0057 32000000 		.4byte	0x32
 516 005b 07       		.uleb128 0x7
 517 005c 01       		.byte	0x1
 518 005d 06       		.byte	0x6
 519 005e 44000000 		.4byte	.LASF5
 520 0062 07       		.uleb128 0x7
 521 0063 01       		.byte	0x1
 522 0064 08       		.byte	0x8
 523 0065 A8040000 		.4byte	.LASF6
 524 0069 07       		.uleb128 0x7
 525 006a 02       		.byte	0x2
 526 006b 05       		.byte	0x5
 527 006c 09000000 		.4byte	.LASF7
 528 0070 07       		.uleb128 0x7
 529 0071 02       		.byte	0x2
 530 0072 07       		.byte	0x7
 531 0073 82030000 		.4byte	.LASF8
 532 0077 07       		.uleb128 0x7
 533 0078 04       		.byte	0x4
 534 0079 05       		.byte	0x5
 535 007a AA010000 		.4byte	.LASF9
 536 007e 03       		.uleb128 0x3
 537 007f D8050000 		.4byte	.LASF10
 538 0083 03       		.byte	0x3
 539 0084 4F       		.byte	0x4f
 540 0085 19       		.byte	0x19
 541 0086 8A000000 		.4byte	0x8a
 542 008a 07       		.uleb128 0x7
 543 008b 04       		.byte	0x4
 544 008c 07       		.byte	0x7
 545 008d 9F020000 		.4byte	.LASF11
 546 0091 07       		.uleb128 0x7
 547 0092 08       		.byte	0x8
 548 0093 07       		.byte	0x7
 549 0094 EA000000 		.4byte	.LASF12
 550 0098 03       		.uleb128 0x3
 551 0099 2E010000 		.4byte	.LASF13
 552 009d 03       		.byte	0x3
 553 009e C8       		.byte	0xc8
 554 009f 1E       		.byte	0x1e
 555 00a0 40000000 		.4byte	0x40
 556 00a4 03       		.uleb128 0x3
 557 00a5 9F010000 		.4byte	.LASF14
 558 00a9 04       		.byte	0x4
 559 00aa 1E       		.byte	0x1e
 560 00ab 0E       		.byte	0xe
 561 00ac 77000000 		.4byte	0x77
 562 00b0 03       		.uleb128 0x3
 563 00b1 59040000 		.4byte	.LASF15
 564 00b5 04       		.byte	0x4
 565 00b6 22       		.byte	0x22
ARM GAS  C:\Users\DEVELO~1\AppData\Local\Temp\cc6b0Z3y.s 			page 11


 566 00b7 0E       		.byte	0xe
 567 00b8 77000000 		.4byte	0x77
 568 00bc 03       		.uleb128 0x3
 569 00bd 65040000 		.4byte	.LASF16
 570 00c1 04       		.byte	0x4
 571 00c2 2E       		.byte	0x2e
 572 00c3 0E       		.byte	0xe
 573 00c4 77000000 		.4byte	0x77
 574 00c8 03       		.uleb128 0x3
 575 00c9 61020000 		.4byte	.LASF17
 576 00cd 04       		.byte	0x4
 577 00ce 38       		.byte	0x38
 578 00cf 0F       		.byte	0xf
 579 00d0 69000000 		.4byte	0x69
 580 00d4 03       		.uleb128 0x3
 581 00d5 E3050000 		.4byte	.LASF18
 582 00d9 04       		.byte	0x4
 583 00da 3C       		.byte	0x3c
 584 00db 18       		.byte	0x18
 585 00dc 70000000 		.4byte	0x70
 586 00e0 03       		.uleb128 0x3
 587 00e1 3E010000 		.4byte	.LASF19
 588 00e5 04       		.byte	0x4
 589 00e6 3F       		.byte	0x3f
 590 00e7 18       		.byte	0x18
 591 00e8 70000000 		.4byte	0x70
 592 00ec 03       		.uleb128 0x3
 593 00ed 3D050000 		.4byte	.LASF20
 594 00f1 04       		.byte	0x4
 595 00f2 4B       		.byte	0x4b
 596 00f3 18       		.byte	0x18
 597 00f4 70000000 		.4byte	0x70
 598 00f8 03       		.uleb128 0x3
 599 00f9 78010000 		.4byte	.LASF21
 600 00fd 04       		.byte	0x4
 601 00fe 5A       		.byte	0x5a
 602 00ff 14       		.byte	0x14
 603 0100 7E000000 		.4byte	0x7e
 604 0104 03       		.uleb128 0x3
 605 0105 6C040000 		.4byte	.LASF22
 606 0109 04       		.byte	0x4
 607 010a 66       		.byte	0x66
 608 010b 10       		.byte	0x10
 609 010c BC000000 		.4byte	0xbc
 610 0110 03       		.uleb128 0x3
 611 0111 13000000 		.4byte	.LASF23
 612 0115 04       		.byte	0x4
 613 0116 74       		.byte	0x74
 614 0117 0E       		.byte	0xe
 615 0118 77000000 		.4byte	0x77
 616 011c 1D       		.uleb128 0x1d
 617 011d 04       		.byte	0x4
 618 011e 04       		.byte	0x4
 619 011f A5       		.byte	0xa5
 620 0120 03       		.byte	0x3
 621 0121 3C010000 		.4byte	0x13c
 622 0125 12       		.uleb128 0x12
ARM GAS  C:\Users\DEVELO~1\AppData\Local\Temp\cc6b0Z3y.s 			page 12


 623 0126 91010000 		.4byte	.LASF24
 624 012a A7       		.byte	0xa7
 625 012b 0C       		.byte	0xc
 626 012c 4E000000 		.4byte	0x4e
 627 0130 12       		.uleb128 0x12
 628 0131 87020000 		.4byte	.LASF25
 629 0135 A8       		.byte	0xa8
 630 0136 13       		.byte	0x13
 631 0137 3C010000 		.4byte	0x13c
 632 013b 00       		.byte	0
 633 013c 08       		.uleb128 0x8
 634 013d 62000000 		.4byte	0x62
 635 0141 4C010000 		.4byte	0x14c
 636 0145 09       		.uleb128 0x9
 637 0146 32000000 		.4byte	0x32
 638 014a 03       		.byte	0x3
 639 014b 00       		.byte	0
 640 014c 1E       		.uleb128 0x1e
 641 014d 08       		.byte	0x8
 642 014e 04       		.byte	0x4
 643 014f A2       		.byte	0xa2
 644 0150 09       		.byte	0x9
 645 0151 70010000 		.4byte	0x170
 646 0155 01       		.uleb128 0x1
 647 0156 4B050000 		.4byte	.LASF26
 648 015a 04       		.byte	0x4
 649 015b A4       		.byte	0xa4
 650 015c 07       		.byte	0x7
 651 015d 39000000 		.4byte	0x39
 652 0161 00       		.byte	0
 653 0162 01       		.uleb128 0x1
 654 0163 5A050000 		.4byte	.LASF27
 655 0167 04       		.byte	0x4
 656 0168 A9       		.byte	0xa9
 657 0169 05       		.byte	0x5
 658 016a 1C010000 		.4byte	0x11c
 659 016e 04       		.byte	0x4
 660 016f 00       		.byte	0
 661 0170 03       		.uleb128 0x3
 662 0171 E5040000 		.4byte	.LASF28
 663 0175 04       		.byte	0x4
 664 0176 AA       		.byte	0xaa
 665 0177 03       		.byte	0x3
 666 0178 4C010000 		.4byte	0x14c
 667 017c 1F       		.uleb128 0x1f
 668 017d 04       		.byte	0x4
 669 017e 03       		.uleb128 0x3
 670 017f CA030000 		.4byte	.LASF29
 671 0183 04       		.byte	0x4
 672 0184 D5       		.byte	0xd5
 673 0185 18       		.byte	0x18
 674 0186 70000000 		.4byte	0x70
 675 018a 03       		.uleb128 0x3
 676 018b 69010000 		.4byte	.LASF30
 677 018f 05       		.byte	0x5
 678 0190 16       		.byte	0x16
 679 0191 19       		.byte	0x19
ARM GAS  C:\Users\DEVELO~1\AppData\Local\Temp\cc6b0Z3y.s 			page 13


 680 0192 8A000000 		.4byte	0x8a
 681 0196 03       		.uleb128 0x3
 682 0197 D4030000 		.4byte	.LASF31
 683 019b 06       		.byte	0x6
 684 019c 22       		.byte	0x22
 685 019d 19       		.byte	0x19
 686 019e A2010000 		.4byte	0x1a2
 687 01a2 05       		.uleb128 0x5
 688 01a3 A7010000 		.4byte	0x1a7
 689 01a7 13       		.uleb128 0x13
 690 01a8 53050000 		.4byte	.LASF109
 691 01ac 03       		.uleb128 0x3
 692 01ad 33020000 		.4byte	.LASF32
 693 01b1 05       		.byte	0x5
 694 01b2 23       		.byte	0x23
 695 01b3 1B       		.byte	0x1b
 696 01b4 96010000 		.4byte	0x196
 697 01b8 0D       		.uleb128 0xd
 698 01b9 44020000 		.4byte	.LASF37
 699 01bd 18       		.byte	0x18
 700 01be 05       		.byte	0x5
 701 01bf 34       		.byte	0x34
 702 01c0 0F020000 		.4byte	0x20f
 703 01c4 01       		.uleb128 0x1
 704 01c5 EB050000 		.4byte	.LASF33
 705 01c9 05       		.byte	0x5
 706 01ca 36       		.byte	0x36
 707 01cb 13       		.byte	0x13
 708 01cc 0F020000 		.4byte	0x20f
 709 01d0 00       		.byte	0
 710 01d1 0A       		.uleb128 0xa
 711 01d2 5F6B00   		.ascii	"_k\000"
 712 01d5 37       		.byte	0x37
 713 01d6 07       		.byte	0x7
 714 01d7 39000000 		.4byte	0x39
 715 01db 04       		.byte	0x4
 716 01dc 01       		.uleb128 0x1
 717 01dd 2E050000 		.4byte	.LASF34
 718 01e1 05       		.byte	0x5
 719 01e2 37       		.byte	0x37
 720 01e3 0B       		.byte	0xb
 721 01e4 39000000 		.4byte	0x39
 722 01e8 08       		.byte	0x8
 723 01e9 01       		.uleb128 0x1
 724 01ea 2D020000 		.4byte	.LASF35
 725 01ee 05       		.byte	0x5
 726 01ef 37       		.byte	0x37
 727 01f0 14       		.byte	0x14
 728 01f1 39000000 		.4byte	0x39
 729 01f5 0C       		.byte	0xc
 730 01f6 01       		.uleb128 0x1
 731 01f7 BA010000 		.4byte	.LASF36
 732 01fb 05       		.byte	0x5
 733 01fc 37       		.byte	0x37
 734 01fd 1B       		.byte	0x1b
 735 01fe 39000000 		.4byte	0x39
 736 0202 10       		.byte	0x10
ARM GAS  C:\Users\DEVELO~1\AppData\Local\Temp\cc6b0Z3y.s 			page 14


 737 0203 0A       		.uleb128 0xa
 738 0204 5F7800   		.ascii	"_x\000"
 739 0207 38       		.byte	0x38
 740 0208 0B       		.byte	0xb
 741 0209 14020000 		.4byte	0x214
 742 020d 14       		.byte	0x14
 743 020e 00       		.byte	0
 744 020f 05       		.uleb128 0x5
 745 0210 B8010000 		.4byte	0x1b8
 746 0214 08       		.uleb128 0x8
 747 0215 8A010000 		.4byte	0x18a
 748 0219 24020000 		.4byte	0x224
 749 021d 09       		.uleb128 0x9
 750 021e 32000000 		.4byte	0x32
 751 0222 00       		.byte	0
 752 0223 00       		.byte	0
 753 0224 0D       		.uleb128 0xd
 754 0225 79020000 		.4byte	.LASF38
 755 0229 24       		.byte	0x24
 756 022a 05       		.byte	0x5
 757 022b 3C       		.byte	0x3c
 758 022c A6020000 		.4byte	0x2a6
 759 0230 01       		.uleb128 0x1
 760 0231 46010000 		.4byte	.LASF39
 761 0235 05       		.byte	0x5
 762 0236 3E       		.byte	0x3e
 763 0237 09       		.byte	0x9
 764 0238 39000000 		.4byte	0x39
 765 023c 00       		.byte	0
 766 023d 01       		.uleb128 0x1
 767 023e 9F060000 		.4byte	.LASF40
 768 0242 05       		.byte	0x5
 769 0243 3F       		.byte	0x3f
 770 0244 09       		.byte	0x9
 771 0245 39000000 		.4byte	0x39
 772 0249 04       		.byte	0x4
 773 024a 01       		.uleb128 0x1
 774 024b 87010000 		.4byte	.LASF41
 775 024f 05       		.byte	0x5
 776 0250 40       		.byte	0x40
 777 0251 09       		.byte	0x9
 778 0252 39000000 		.4byte	0x39
 779 0256 08       		.byte	0x8
 780 0257 01       		.uleb128 0x1
 781 0258 C7060000 		.4byte	.LASF42
 782 025c 05       		.byte	0x5
 783 025d 41       		.byte	0x41
 784 025e 09       		.byte	0x9
 785 025f 39000000 		.4byte	0x39
 786 0263 0C       		.byte	0xc
 787 0264 01       		.uleb128 0x1
 788 0265 50040000 		.4byte	.LASF43
 789 0269 05       		.byte	0x5
 790 026a 42       		.byte	0x42
 791 026b 09       		.byte	0x9
 792 026c 39000000 		.4byte	0x39
 793 0270 10       		.byte	0x10
ARM GAS  C:\Users\DEVELO~1\AppData\Local\Temp\cc6b0Z3y.s 			page 15


 794 0271 01       		.uleb128 0x1
 795 0272 07040000 		.4byte	.LASF44
 796 0276 05       		.byte	0x5
 797 0277 43       		.byte	0x43
 798 0278 09       		.byte	0x9
 799 0279 39000000 		.4byte	0x39
 800 027d 14       		.byte	0x14
 801 027e 01       		.uleb128 0x1
 802 027f 41060000 		.4byte	.LASF45
 803 0283 05       		.byte	0x5
 804 0284 44       		.byte	0x44
 805 0285 09       		.byte	0x9
 806 0286 39000000 		.4byte	0x39
 807 028a 18       		.byte	0x18
 808 028b 01       		.uleb128 0x1
 809 028c C4040000 		.4byte	.LASF46
 810 0290 05       		.byte	0x5
 811 0291 45       		.byte	0x45
 812 0292 09       		.byte	0x9
 813 0293 39000000 		.4byte	0x39
 814 0297 1C       		.byte	0x1c
 815 0298 01       		.uleb128 0x1
 816 0299 85060000 		.4byte	.LASF47
 817 029d 05       		.byte	0x5
 818 029e 46       		.byte	0x46
 819 029f 09       		.byte	0x9
 820 02a0 39000000 		.4byte	0x39
 821 02a4 20       		.byte	0x20
 822 02a5 00       		.byte	0
 823 02a6 0D       		.uleb128 0xd
 824 02a7 C0060000 		.4byte	.LASF48
 825 02ab 08       		.byte	0x8
 826 02ac 05       		.byte	0x5
 827 02ad 73       		.byte	0x73
 828 02ae CD020000 		.4byte	0x2cd
 829 02b2 01       		.uleb128 0x1
 830 02b3 81010000 		.4byte	.LASF49
 831 02b7 05       		.byte	0x5
 832 02b8 74       		.byte	0x74
 833 02b9 11       		.byte	0x11
 834 02ba CD020000 		.4byte	0x2cd
 835 02be 00       		.byte	0
 836 02bf 01       		.uleb128 0x1
 837 02c0 BF050000 		.4byte	.LASF50
 838 02c4 05       		.byte	0x5
 839 02c5 75       		.byte	0x75
 840 02c6 06       		.byte	0x6
 841 02c7 39000000 		.4byte	0x39
 842 02cb 04       		.byte	0x4
 843 02cc 00       		.byte	0
 844 02cd 05       		.uleb128 0x5
 845 02ce 62000000 		.4byte	0x62
 846 02d2 0D       		.uleb128 0xd
 847 02d3 F0040000 		.4byte	.LASF51
 848 02d7 68       		.byte	0x68
 849 02d8 05       		.byte	0x5
 850 02d9 93       		.byte	0x93
ARM GAS  C:\Users\DEVELO~1\AppData\Local\Temp\cc6b0Z3y.s 			page 16


 851 02da 0C040000 		.4byte	0x40c
 852 02de 0A       		.uleb128 0xa
 853 02df 5F7000   		.ascii	"_p\000"
 854 02e2 94       		.byte	0x94
 855 02e3 12       		.byte	0x12
 856 02e4 CD020000 		.4byte	0x2cd
 857 02e8 00       		.byte	0
 858 02e9 0A       		.uleb128 0xa
 859 02ea 5F7200   		.ascii	"_r\000"
 860 02ed 95       		.byte	0x95
 861 02ee 07       		.byte	0x7
 862 02ef 39000000 		.4byte	0x39
 863 02f3 04       		.byte	0x4
 864 02f4 0A       		.uleb128 0xa
 865 02f5 5F7700   		.ascii	"_w\000"
 866 02f8 96       		.byte	0x96
 867 02f9 07       		.byte	0x7
 868 02fa 39000000 		.4byte	0x39
 869 02fe 08       		.byte	0x8
 870 02ff 01       		.uleb128 0x1
 871 0300 B3010000 		.4byte	.LASF52
 872 0304 05       		.byte	0x5
 873 0305 97       		.byte	0x97
 874 0306 09       		.byte	0x9
 875 0307 69000000 		.4byte	0x69
 876 030b 0C       		.byte	0xc
 877 030c 01       		.uleb128 0x1
 878 030d B1020000 		.4byte	.LASF53
 879 0311 05       		.byte	0x5
 880 0312 98       		.byte	0x98
 881 0313 09       		.byte	0x9
 882 0314 69000000 		.4byte	0x69
 883 0318 0E       		.byte	0xe
 884 0319 0A       		.uleb128 0xa
 885 031a 5F626600 		.ascii	"_bf\000"
 886 031e 99       		.byte	0x99
 887 031f 11       		.byte	0x11
 888 0320 A6020000 		.4byte	0x2a6
 889 0324 10       		.byte	0x10
 890 0325 01       		.uleb128 0x1
 891 0326 0B010000 		.4byte	.LASF54
 892 032a 05       		.byte	0x5
 893 032b 9A       		.byte	0x9a
 894 032c 07       		.byte	0x7
 895 032d 39000000 		.4byte	0x39
 896 0331 18       		.byte	0x18
 897 0332 01       		.uleb128 0x1
 898 0333 97010000 		.4byte	.LASF55
 899 0337 05       		.byte	0x5
 900 0338 A1       		.byte	0xa1
 901 0339 0A       		.byte	0xa
 902 033a 7C010000 		.4byte	0x17c
 903 033e 1C       		.byte	0x1c
 904 033f 01       		.uleb128 0x1
 905 0340 93040000 		.4byte	.LASF56
 906 0344 05       		.byte	0x5
 907 0345 A3       		.byte	0xa3
ARM GAS  C:\Users\DEVELO~1\AppData\Local\Temp\cc6b0Z3y.s 			page 17


 908 0346 1D       		.byte	0x1d
 909 0347 22050000 		.4byte	0x522
 910 034b 20       		.byte	0x20
 911 034c 01       		.uleb128 0x1
 912 034d 00040000 		.4byte	.LASF57
 913 0351 05       		.byte	0x5
 914 0352 A5       		.byte	0xa5
 915 0353 1D       		.byte	0x1d
 916 0354 4A050000 		.4byte	0x54a
 917 0358 24       		.byte	0x24
 918 0359 01       		.uleb128 0x1
 919 035a 62050000 		.4byte	.LASF58
 920 035e 05       		.byte	0x5
 921 035f A8       		.byte	0xa8
 922 0360 0D       		.byte	0xd
 923 0361 6D050000 		.4byte	0x56d
 924 0365 28       		.byte	0x28
 925 0366 01       		.uleb128 0x1
 926 0367 5A010000 		.4byte	.LASF59
 927 036b 05       		.byte	0x5
 928 036c A9       		.byte	0xa9
 929 036d 09       		.byte	0x9
 930 036e 86050000 		.4byte	0x586
 931 0372 2C       		.byte	0x2c
 932 0373 0A       		.uleb128 0xa
 933 0374 5F756200 		.ascii	"_ub\000"
 934 0378 AC       		.byte	0xac
 935 0379 11       		.byte	0x11
 936 037a A6020000 		.4byte	0x2a6
 937 037e 30       		.byte	0x30
 938 037f 0A       		.uleb128 0xa
 939 0380 5F757000 		.ascii	"_up\000"
 940 0384 AD       		.byte	0xad
 941 0385 12       		.byte	0x12
 942 0386 CD020000 		.4byte	0x2cd
 943 038a 38       		.byte	0x38
 944 038b 0A       		.uleb128 0xa
 945 038c 5F757200 		.ascii	"_ur\000"
 946 0390 AE       		.byte	0xae
 947 0391 07       		.byte	0x7
 948 0392 39000000 		.4byte	0x39
 949 0396 3C       		.byte	0x3c
 950 0397 01       		.uleb128 0x1
 951 0398 BF010000 		.4byte	.LASF60
 952 039c 05       		.byte	0x5
 953 039d B1       		.byte	0xb1
 954 039e 11       		.byte	0x11
 955 039f 8B050000 		.4byte	0x58b
 956 03a3 40       		.byte	0x40
 957 03a4 01       		.uleb128 0x1
 958 03a5 7F060000 		.4byte	.LASF61
 959 03a9 05       		.byte	0x5
 960 03aa B2       		.byte	0xb2
 961 03ab 11       		.byte	0x11
 962 03ac 9B050000 		.4byte	0x59b
 963 03b0 43       		.byte	0x43
 964 03b1 0A       		.uleb128 0xa
ARM GAS  C:\Users\DEVELO~1\AppData\Local\Temp\cc6b0Z3y.s 			page 18


 965 03b2 5F6C6200 		.ascii	"_lb\000"
 966 03b6 B5       		.byte	0xb5
 967 03b7 11       		.byte	0x11
 968 03b8 A6020000 		.4byte	0x2a6
 969 03bc 44       		.byte	0x44
 970 03bd 01       		.uleb128 0x1
 971 03be 69020000 		.4byte	.LASF62
 972 03c2 05       		.byte	0x5
 973 03c3 B8       		.byte	0xb8
 974 03c4 07       		.byte	0x7
 975 03c5 39000000 		.4byte	0x39
 976 03c9 4C       		.byte	0x4c
 977 03ca 01       		.uleb128 0x1
 978 03cb 22040000 		.4byte	.LASF63
 979 03cf 05       		.byte	0x5
 980 03d0 B9       		.byte	0xb9
 981 03d1 0A       		.byte	0xa
 982 03d2 BC000000 		.4byte	0xbc
 983 03d6 50       		.byte	0x50
 984 03d7 01       		.uleb128 0x1
 985 03d8 B3000000 		.4byte	.LASF64
 986 03dc 05       		.byte	0x5
 987 03dd BC       		.byte	0xbc
 988 03de 12       		.byte	0x12
 989 03df 2A040000 		.4byte	0x42a
 990 03e3 54       		.byte	0x54
 991 03e4 01       		.uleb128 0x1
 992 03e5 E3030000 		.4byte	.LASF65
 993 03e9 05       		.byte	0x5
 994 03ea C0       		.byte	0xc0
 995 03eb 0C       		.byte	0xc
 996 03ec AC010000 		.4byte	0x1ac
 997 03f0 58       		.byte	0x58
 998 03f1 01       		.uleb128 0x1
 999 03f2 7E020000 		.4byte	.LASF66
 1000 03f6 05       		.byte	0x5
 1001 03f7 C2       		.byte	0xc2
 1002 03f8 0E       		.byte	0xe
 1003 03f9 70010000 		.4byte	0x170
 1004 03fd 5C       		.byte	0x5c
 1005 03fe 01       		.uleb128 0x1
 1006 03ff B7020000 		.4byte	.LASF67
 1007 0403 05       		.byte	0x5
 1008 0404 C3       		.byte	0xc3
 1009 0405 09       		.byte	0x9
 1010 0406 39000000 		.4byte	0x39
 1011 040a 64       		.byte	0x64
 1012 040b 00       		.byte	0
 1013 040c 0F       		.uleb128 0xf
 1014 040d 39000000 		.4byte	0x39
 1015 0411 2A040000 		.4byte	0x42a
 1016 0415 04       		.uleb128 0x4
 1017 0416 2A040000 		.4byte	0x42a
 1018 041a 04       		.uleb128 0x4
 1019 041b 7C010000 		.4byte	0x17c
 1020 041f 04       		.uleb128 0x4
 1021 0420 11050000 		.4byte	0x511
ARM GAS  C:\Users\DEVELO~1\AppData\Local\Temp\cc6b0Z3y.s 			page 19


 1022 0424 04       		.uleb128 0x4
 1023 0425 39000000 		.4byte	0x39
 1024 0429 00       		.byte	0
 1025 042a 05       		.uleb128 0x5
 1026 042b 2F040000 		.4byte	0x42f
 1027 042f 20       		.uleb128 0x20
 1028 0430 36050000 		.4byte	.LASF68
 1029 0434 2001     		.2byte	0x120
 1030 0436 05       		.byte	0x5
 1031 0437 2702     		.2byte	0x227
 1032 0439 08       		.byte	0x8
 1033 043a 11050000 		.4byte	0x511
 1034 043e 02       		.uleb128 0x2
 1035 043f A9050000 		.4byte	.LASF69
 1036 0443 2902     		.2byte	0x229
 1037 0445 07       		.byte	0x7
 1038 0446 39000000 		.4byte	0x39
 1039 044a 00       		.byte	0
 1040 044b 02       		.uleb128 0x2
 1041 044c 52060000 		.4byte	.LASF70
 1042 0450 2E02     		.2byte	0x22e
 1043 0452 0B       		.byte	0xb
 1044 0453 B7050000 		.4byte	0x5b7
 1045 0457 04       		.byte	0x4
 1046 0458 02       		.uleb128 0x2
 1047 0459 39060000 		.4byte	.LASF71
 1048 045d 2E02     		.2byte	0x22e
 1049 045f 14       		.byte	0x14
 1050 0460 B7050000 		.4byte	0x5b7
 1051 0464 08       		.byte	0x8
 1052 0465 02       		.uleb128 0x2
 1053 0466 3C020000 		.4byte	.LASF72
 1054 046a 2E02     		.2byte	0x22e
 1055 046c 1E       		.byte	0x1e
 1056 046d B7050000 		.4byte	0x5b7
 1057 0471 0C       		.byte	0xc
 1058 0472 02       		.uleb128 0x2
 1059 0473 17050000 		.4byte	.LASF73
 1060 0477 3002     		.2byte	0x230
 1061 0479 08       		.byte	0x8
 1062 047a 39000000 		.4byte	0x39
 1063 047e 10       		.byte	0x10
 1064 047f 02       		.uleb128 0x2
 1065 0480 39000000 		.4byte	.LASF74
 1066 0484 3102     		.2byte	0x231
 1067 0486 08       		.byte	0x8
 1068 0487 3F070000 		.4byte	0x73f
 1069 048b 14       		.byte	0x14
 1070 048c 02       		.uleb128 0x2
 1071 048d 1C050000 		.4byte	.LASF75
 1072 0491 3602     		.2byte	0x236
 1073 0493 16       		.byte	0x16
 1074 0494 54070000 		.4byte	0x754
 1075 0498 30       		.byte	0x30
 1076 0499 02       		.uleb128 0x2
 1077 049a 24050000 		.4byte	.LASF76
 1078 049e 3C02     		.2byte	0x23c
ARM GAS  C:\Users\DEVELO~1\AppData\Local\Temp\cc6b0Z3y.s 			page 20


 1079 04a0 0A       		.byte	0xa
 1080 04a1 64070000 		.4byte	0x764
 1081 04a5 34       		.byte	0x34
 1082 04a6 02       		.uleb128 0x2
 1083 04a7 C2030000 		.4byte	.LASF77
 1084 04ab 3F02     		.2byte	0x23f
 1085 04ad 13       		.byte	0x13
 1086 04ae 0F020000 		.4byte	0x20f
 1087 04b2 38       		.byte	0x38
 1088 04b3 02       		.uleb128 0x2
 1089 04b4 C5010000 		.4byte	.LASF78
 1090 04b8 4002     		.2byte	0x240
 1091 04ba 07       		.byte	0x7
 1092 04bb 39000000 		.4byte	0x39
 1093 04bf 3C       		.byte	0x3c
 1094 04c0 02       		.uleb128 0x2
 1095 04c1 BB060000 		.4byte	.LASF79
 1096 04c5 4102     		.2byte	0x241
 1097 04c7 13       		.byte	0x13
 1098 04c8 0F020000 		.4byte	0x20f
 1099 04cc 40       		.byte	0x40
 1100 04cd 02       		.uleb128 0x2
 1101 04ce 7B040000 		.4byte	.LASF80
 1102 04d2 4202     		.2byte	0x242
 1103 04d4 14       		.byte	0x14
 1104 04d5 69070000 		.4byte	0x769
 1105 04d9 44       		.byte	0x44
 1106 04da 02       		.uleb128 0x2
 1107 04db 97020000 		.4byte	.LASF81
 1108 04df 4502     		.2byte	0x245
 1109 04e1 07       		.byte	0x7
 1110 04e2 39000000 		.4byte	0x39
 1111 04e6 48       		.byte	0x48
 1112 04e7 02       		.uleb128 0x2
 1113 04e8 ED010000 		.4byte	.LASF82
 1114 04ec 4602     		.2byte	0x246
 1115 04ee 09       		.byte	0x9
 1116 04ef 11050000 		.4byte	0x511
 1117 04f3 4C       		.byte	0x4c
 1118 04f4 02       		.uleb128 0x2
 1119 04f5 B6040000 		.4byte	.LASF83
 1120 04f9 6902     		.2byte	0x269
 1121 04fb 07       		.byte	0x7
 1122 04fc 27070000 		.4byte	0x727
 1123 0500 50       		.byte	0x50
 1124 0501 21       		.uleb128 0x21
 1125 0502 63060000 		.4byte	.LASF84
 1126 0506 05       		.byte	0x5
 1127 0507 7102     		.2byte	0x271
 1128 0509 0B       		.byte	0xb
 1129 050a 79070000 		.4byte	0x779
 1130 050e 1801     		.2byte	0x118
 1131 0510 00       		.byte	0
 1132 0511 05       		.uleb128 0x5
 1133 0512 16050000 		.4byte	0x516
 1134 0516 07       		.uleb128 0x7
 1135 0517 01       		.byte	0x1
ARM GAS  C:\Users\DEVELO~1\AppData\Local\Temp\cc6b0Z3y.s 			page 21


 1136 0518 08       		.byte	0x8
 1137 0519 B0050000 		.4byte	.LASF85
 1138 051d 14       		.uleb128 0x14
 1139 051e 16050000 		.4byte	0x516
 1140 0522 05       		.uleb128 0x5
 1141 0523 0C040000 		.4byte	0x40c
 1142 0527 0F       		.uleb128 0xf
 1143 0528 39000000 		.4byte	0x39
 1144 052c 45050000 		.4byte	0x545
 1145 0530 04       		.uleb128 0x4
 1146 0531 2A040000 		.4byte	0x42a
 1147 0535 04       		.uleb128 0x4
 1148 0536 7C010000 		.4byte	0x17c
 1149 053a 04       		.uleb128 0x4
 1150 053b 45050000 		.4byte	0x545
 1151 053f 04       		.uleb128 0x4
 1152 0540 39000000 		.4byte	0x39
 1153 0544 00       		.byte	0
 1154 0545 05       		.uleb128 0x5
 1155 0546 1D050000 		.4byte	0x51d
 1156 054a 05       		.uleb128 0x5
 1157 054b 27050000 		.4byte	0x527
 1158 054f 0F       		.uleb128 0xf
 1159 0550 10010000 		.4byte	0x110
 1160 0554 6D050000 		.4byte	0x56d
 1161 0558 04       		.uleb128 0x4
 1162 0559 2A040000 		.4byte	0x42a
 1163 055d 04       		.uleb128 0x4
 1164 055e 7C010000 		.4byte	0x17c
 1165 0562 04       		.uleb128 0x4
 1166 0563 10010000 		.4byte	0x110
 1167 0567 04       		.uleb128 0x4
 1168 0568 39000000 		.4byte	0x39
 1169 056c 00       		.byte	0
 1170 056d 05       		.uleb128 0x5
 1171 056e 4F050000 		.4byte	0x54f
 1172 0572 0F       		.uleb128 0xf
 1173 0573 39000000 		.4byte	0x39
 1174 0577 86050000 		.4byte	0x586
 1175 057b 04       		.uleb128 0x4
 1176 057c 2A040000 		.4byte	0x42a
 1177 0580 04       		.uleb128 0x4
 1178 0581 7C010000 		.4byte	0x17c
 1179 0585 00       		.byte	0
 1180 0586 05       		.uleb128 0x5
 1181 0587 72050000 		.4byte	0x572
 1182 058b 08       		.uleb128 0x8
 1183 058c 62000000 		.4byte	0x62
 1184 0590 9B050000 		.4byte	0x59b
 1185 0594 09       		.uleb128 0x9
 1186 0595 32000000 		.4byte	0x32
 1187 0599 02       		.byte	0x2
 1188 059a 00       		.byte	0
 1189 059b 08       		.uleb128 0x8
 1190 059c 62000000 		.4byte	0x62
 1191 05a0 AB050000 		.4byte	0x5ab
 1192 05a4 09       		.uleb128 0x9
ARM GAS  C:\Users\DEVELO~1\AppData\Local\Temp\cc6b0Z3y.s 			page 22


 1193 05a5 32000000 		.4byte	0x32
 1194 05a9 00       		.byte	0
 1195 05aa 00       		.byte	0
 1196 05ab 03       		.uleb128 0x3
 1197 05ac DE040000 		.4byte	.LASF86
 1198 05b0 05       		.byte	0x5
 1199 05b1 FD       		.byte	0xfd
 1200 05b2 1A       		.byte	0x1a
 1201 05b3 D2020000 		.4byte	0x2d2
 1202 05b7 05       		.uleb128 0x5
 1203 05b8 AB050000 		.4byte	0x5ab
 1204 05bc 22       		.uleb128 0x22
 1205 05bd 2A000000 		.4byte	.LASF87
 1206 05c1 0E       		.byte	0xe
 1207 05c2 05       		.byte	0x5
 1208 05c3 2101     		.2byte	0x121
 1209 05c5 08       		.byte	0x8
 1210 05c6 F2050000 		.4byte	0x5f2
 1211 05ca 02       		.uleb128 0x2
 1212 05cb 45050000 		.4byte	.LASF88
 1213 05cf 2201     		.2byte	0x122
 1214 05d1 12       		.byte	0x12
 1215 05d2 F2050000 		.4byte	0x5f2
 1216 05d6 00       		.byte	0
 1217 05d7 02       		.uleb128 0x2
 1218 05d8 F2030000 		.4byte	.LASF89
 1219 05dc 2301     		.2byte	0x123
 1220 05de 12       		.byte	0x12
 1221 05df F2050000 		.4byte	0x5f2
 1222 05e3 06       		.byte	0x6
 1223 05e4 02       		.uleb128 0x2
 1224 05e5 04060000 		.4byte	.LASF90
 1225 05e9 2401     		.2byte	0x124
 1226 05eb 12       		.byte	0x12
 1227 05ec 70000000 		.4byte	0x70
 1228 05f0 0C       		.byte	0xc
 1229 05f1 00       		.byte	0
 1230 05f2 08       		.uleb128 0x8
 1231 05f3 70000000 		.4byte	0x70
 1232 05f7 02060000 		.4byte	0x602
 1233 05fb 09       		.uleb128 0x9
 1234 05fc 32000000 		.4byte	0x32
 1235 0600 02       		.byte	0x2
 1236 0601 00       		.byte	0
 1237 0602 23       		.uleb128 0x23
 1238 0603 C8       		.byte	0xc8
 1239 0604 05       		.byte	0x5
 1240 0605 4A02     		.2byte	0x24a
 1241 0607 07       		.byte	0x7
 1242 0608 F7060000 		.4byte	0x6f7
 1243 060c 02       		.uleb128 0x2
 1244 060d F1050000 		.4byte	.LASF91
 1245 0611 4F02     		.2byte	0x24f
 1246 0613 12       		.byte	0x12
 1247 0614 11050000 		.4byte	0x511
 1248 0618 00       		.byte	0
 1249 0619 02       		.uleb128 0x2
ARM GAS  C:\Users\DEVELO~1\AppData\Local\Temp\cc6b0Z3y.s 			page 23


 1250 061a B5030000 		.4byte	.LASF92
 1251 061e 5002     		.2byte	0x250
 1252 0620 10       		.byte	0x10
 1253 0621 F7060000 		.4byte	0x6f7
 1254 0625 04       		.byte	0x4
 1255 0626 02       		.uleb128 0x2
 1256 0627 90060000 		.4byte	.LASF93
 1257 062b 5102     		.2byte	0x251
 1258 062d 17       		.byte	0x17
 1259 062e 24020000 		.4byte	0x224
 1260 0632 20       		.byte	0x20
 1261 0633 02       		.uleb128 0x2
 1262 0634 4C020000 		.4byte	.LASF94
 1263 0638 5202     		.2byte	0x252
 1264 063a 0F       		.byte	0xf
 1265 063b 39000000 		.4byte	0x39
 1266 063f 44       		.byte	0x44
 1267 0640 02       		.uleb128 0x2
 1268 0641 D1060000 		.4byte	.LASF95
 1269 0645 5302     		.2byte	0x253
 1270 0647 2C       		.byte	0x2c
 1271 0648 91000000 		.4byte	0x91
 1272 064c 48       		.byte	0x48
 1273 064d 02       		.uleb128 0x2
 1274 064e A8060000 		.4byte	.LASF96
 1275 0652 5402     		.2byte	0x254
 1276 0654 1A       		.byte	0x1a
 1277 0655 BC050000 		.4byte	0x5bc
 1278 0659 50       		.byte	0x50
 1279 065a 02       		.uleb128 0x2
 1280 065b 0A050000 		.4byte	.LASF97
 1281 065f 5502     		.2byte	0x255
 1282 0661 16       		.byte	0x16
 1283 0662 70010000 		.4byte	0x170
 1284 0666 60       		.byte	0x60
 1285 0667 02       		.uleb128 0x2
 1286 0668 AD060000 		.4byte	.LASF98
 1287 066c 5602     		.2byte	0x256
 1288 066e 16       		.byte	0x16
 1289 066f 70010000 		.4byte	0x170
 1290 0673 68       		.byte	0x68
 1291 0674 02       		.uleb128 0x2
 1292 0675 85040000 		.4byte	.LASF99
 1293 0679 5702     		.2byte	0x257
 1294 067b 16       		.byte	0x16
 1295 067c 70010000 		.4byte	0x170
 1296 0680 70       		.byte	0x70
 1297 0681 02       		.uleb128 0x2
 1298 0682 59060000 		.4byte	.LASF100
 1299 0686 5802     		.2byte	0x258
 1300 0688 10       		.byte	0x10
 1301 0689 07070000 		.4byte	0x707
 1302 068d 78       		.byte	0x78
 1303 068e 02       		.uleb128 0x2
 1304 068f A9030000 		.4byte	.LASF101
 1305 0693 5902     		.2byte	0x259
 1306 0695 10       		.byte	0x10
ARM GAS  C:\Users\DEVELO~1\AppData\Local\Temp\cc6b0Z3y.s 			page 24


 1307 0696 17070000 		.4byte	0x717
 1308 069a 80       		.byte	0x80
 1309 069b 02       		.uleb128 0x2
 1310 069c A6000000 		.4byte	.LASF102
 1311 06a0 5A02     		.2byte	0x25a
 1312 06a2 0F       		.byte	0xf
 1313 06a3 39000000 		.4byte	0x39
 1314 06a7 98       		.byte	0x98
 1315 06a8 02       		.uleb128 0x2
 1316 06a9 06020000 		.4byte	.LASF103
 1317 06ad 5B02     		.2byte	0x25b
 1318 06af 16       		.byte	0x16
 1319 06b0 70010000 		.4byte	0x170
 1320 06b4 9C       		.byte	0x9c
 1321 06b5 02       		.uleb128 0x2
 1322 06b6 1F010000 		.4byte	.LASF104
 1323 06ba 5C02     		.2byte	0x25c
 1324 06bc 16       		.byte	0x16
 1325 06bd 70010000 		.4byte	0x170
 1326 06c1 A4       		.byte	0xa4
 1327 06c2 02       		.uleb128 0x2
 1328 06c3 F5010000 		.4byte	.LASF105
 1329 06c7 5D02     		.2byte	0x25d
 1330 06c9 16       		.byte	0x16
 1331 06ca 70010000 		.4byte	0x170
 1332 06ce AC       		.byte	0xac
 1333 06cf 02       		.uleb128 0x2
 1334 06d0 B9000000 		.4byte	.LASF106
 1335 06d4 5E02     		.2byte	0x25e
 1336 06d6 16       		.byte	0x16
 1337 06d7 70010000 		.4byte	0x170
 1338 06db B4       		.byte	0xb4
 1339 06dc 02       		.uleb128 0x2
 1340 06dd C8000000 		.4byte	.LASF107
 1341 06e1 5F02     		.2byte	0x25f
 1342 06e3 16       		.byte	0x16
 1343 06e4 70010000 		.4byte	0x170
 1344 06e8 BC       		.byte	0xbc
 1345 06e9 02       		.uleb128 0x2
 1346 06ea BB040000 		.4byte	.LASF108
 1347 06ee 6002     		.2byte	0x260
 1348 06f0 08       		.byte	0x8
 1349 06f1 39000000 		.4byte	0x39
 1350 06f5 C4       		.byte	0xc4
 1351 06f6 00       		.byte	0
 1352 06f7 08       		.uleb128 0x8
 1353 06f8 16050000 		.4byte	0x516
 1354 06fc 07070000 		.4byte	0x707
 1355 0700 09       		.uleb128 0x9
 1356 0701 32000000 		.4byte	0x32
 1357 0705 19       		.byte	0x19
 1358 0706 00       		.byte	0
 1359 0707 08       		.uleb128 0x8
 1360 0708 16050000 		.4byte	0x516
 1361 070c 17070000 		.4byte	0x717
 1362 0710 09       		.uleb128 0x9
 1363 0711 32000000 		.4byte	0x32
ARM GAS  C:\Users\DEVELO~1\AppData\Local\Temp\cc6b0Z3y.s 			page 25


 1364 0715 07       		.byte	0x7
 1365 0716 00       		.byte	0
 1366 0717 08       		.uleb128 0x8
 1367 0718 16050000 		.4byte	0x516
 1368 071c 27070000 		.4byte	0x727
 1369 0720 09       		.uleb128 0x9
 1370 0721 32000000 		.4byte	0x32
 1371 0725 17       		.byte	0x17
 1372 0726 00       		.byte	0
 1373 0727 24       		.uleb128 0x24
 1374 0728 C8       		.byte	0xc8
 1375 0729 05       		.byte	0x5
 1376 072a 4802     		.2byte	0x248
 1377 072c 03       		.byte	0x3
 1378 072d 3F070000 		.4byte	0x73f
 1379 0731 25       		.uleb128 0x25
 1380 0732 36050000 		.4byte	.LASF68
 1381 0736 05       		.byte	0x5
 1382 0737 6102     		.2byte	0x261
 1383 0739 0B       		.byte	0xb
 1384 073a 02060000 		.4byte	0x602
 1385 073e 00       		.byte	0
 1386 073f 08       		.uleb128 0x8
 1387 0740 16050000 		.4byte	0x516
 1388 0744 4F070000 		.4byte	0x74f
 1389 0748 09       		.uleb128 0x9
 1390 0749 32000000 		.4byte	0x32
 1391 074d 18       		.byte	0x18
 1392 074e 00       		.byte	0
 1393 074f 13       		.uleb128 0x13
 1394 0750 14010000 		.4byte	.LASF110
 1395 0754 05       		.uleb128 0x5
 1396 0755 4F070000 		.4byte	0x74f
 1397 0759 15       		.uleb128 0x15
 1398 075a 64070000 		.4byte	0x764
 1399 075e 04       		.uleb128 0x4
 1400 075f 2A040000 		.4byte	0x42a
 1401 0763 00       		.byte	0
 1402 0764 05       		.uleb128 0x5
 1403 0765 59070000 		.4byte	0x759
 1404 0769 05       		.uleb128 0x5
 1405 076a 0F020000 		.4byte	0x20f
 1406 076e 15       		.uleb128 0x15
 1407 076f 79070000 		.4byte	0x779
 1408 0773 04       		.uleb128 0x4
 1409 0774 39000000 		.4byte	0x39
 1410 0778 00       		.byte	0
 1411 0779 05       		.uleb128 0x5
 1412 077a 7E070000 		.4byte	0x77e
 1413 077e 05       		.uleb128 0x5
 1414 077f 6E070000 		.4byte	0x76e
 1415 0783 03       		.uleb128 0x3
 1416 0784 74040000 		.4byte	.LASF111
 1417 0788 07       		.byte	0x7
 1418 0789 2A       		.byte	0x2a
 1419 078a 12       		.byte	0x12
 1420 078b 98000000 		.4byte	0x98
ARM GAS  C:\Users\DEVELO~1\AppData\Local\Temp\cc6b0Z3y.s 			page 26


 1421 078f 0D       		.uleb128 0xd
 1422 0790 F8040000 		.4byte	.LASF112
 1423 0794 10       		.byte	0x10
 1424 0795 08       		.byte	0x8
 1425 0796 2F       		.byte	0x2f
 1426 0797 B6070000 		.4byte	0x7b6
 1427 079b 01       		.uleb128 0x1
 1428 079c 2A040000 		.4byte	.LASF113
 1429 07a0 08       		.byte	0x8
 1430 07a1 30       		.byte	0x30
 1431 07a2 09       		.byte	0x9
 1432 07a3 83070000 		.4byte	0x783
 1433 07a7 00       		.byte	0
 1434 07a8 01       		.uleb128 0x1
 1435 07a9 1A040000 		.4byte	.LASF114
 1436 07ad 08       		.byte	0x8
 1437 07ae 31       		.byte	0x31
 1438 07af 07       		.byte	0x7
 1439 07b0 77000000 		.4byte	0x77
 1440 07b4 08       		.byte	0x8
 1441 07b5 00       		.byte	0
 1442 07b6 03       		.uleb128 0x3
 1443 07b7 8E020000 		.4byte	.LASF115
 1444 07bb 09       		.byte	0x9
 1445 07bc 61       		.byte	0x61
 1446 07bd 14       		.byte	0x14
 1447 07be A4000000 		.4byte	0xa4
 1448 07c2 03       		.uleb128 0x3
 1449 07c3 6D060000 		.4byte	.LASF116
 1450 07c7 09       		.byte	0x9
 1451 07c8 66       		.byte	0x66
 1452 07c9 15       		.byte	0x15
 1453 07ca B0000000 		.4byte	0xb0
 1454 07ce 03       		.uleb128 0x3
 1455 07cf 72050000 		.4byte	.LASF117
 1456 07d3 09       		.byte	0x9
 1457 07d4 79       		.byte	0x79
 1458 07d5 10       		.byte	0x10
 1459 07d6 11050000 		.4byte	0x511
 1460 07da 03       		.uleb128 0x3
 1461 07db DC060000 		.4byte	.LASF118
 1462 07df 09       		.byte	0x9
 1463 07e0 89       		.byte	0x89
 1464 07e1 12       		.byte	0x12
 1465 07e2 EC000000 		.4byte	0xec
 1466 07e6 03       		.uleb128 0x3
 1467 07e7 1C020000 		.4byte	.LASF119
 1468 07eb 09       		.byte	0x9
 1469 07ec 9B       		.byte	0x9b
 1470 07ed 12       		.byte	0x12
 1471 07ee 04010000 		.4byte	0x104
 1472 07f2 03       		.uleb128 0x3
 1473 07f3 5B020000 		.4byte	.LASF120
 1474 07f7 09       		.byte	0x9
 1475 07f8 9F       		.byte	0x9f
 1476 07f9 12       		.byte	0x12
 1477 07fa C8000000 		.4byte	0xc8
ARM GAS  C:\Users\DEVELO~1\AppData\Local\Temp\cc6b0Z3y.s 			page 27


 1478 07fe 03       		.uleb128 0x3
 1479 07ff 74030000 		.4byte	.LASF121
 1480 0803 09       		.byte	0x9
 1481 0804 A3       		.byte	0xa3
 1482 0805 12       		.byte	0x12
 1483 0806 D4000000 		.4byte	0xd4
 1484 080a 03       		.uleb128 0x3
 1485 080b 22020000 		.4byte	.LASF122
 1486 080f 09       		.byte	0x9
 1487 0810 A7       		.byte	0xa7
 1488 0811 12       		.byte	0x12
 1489 0812 E0000000 		.4byte	0xe0
 1490 0816 03       		.uleb128 0x3
 1491 0817 32000000 		.4byte	.LASF123
 1492 081b 09       		.byte	0x9
 1493 081c BB       		.byte	0xbb
 1494 081d 12       		.byte	0x12
 1495 081e F8000000 		.4byte	0xf8
 1496 0822 03       		.uleb128 0x3
 1497 0823 14020000 		.4byte	.LASF124
 1498 0827 09       		.byte	0x9
 1499 0828 C0       		.byte	0xc0
 1500 0829 13       		.byte	0x13
 1501 082a 7E010000 		.4byte	0x17e
 1502 082e 0D       		.uleb128 0xd
 1503 082f 4F010000 		.4byte	.LASF125
 1504 0833 58       		.byte	0x58
 1505 0834 0A       		.byte	0xa
 1506 0835 1B       		.byte	0x1b
 1507 0836 F1080000 		.4byte	0x8f1
 1508 083a 01       		.uleb128 0x1
 1509 083b 4B060000 		.4byte	.LASF126
 1510 083f 0A       		.byte	0xa
 1511 0840 1D       		.byte	0x1d
 1512 0841 0A       		.byte	0xa
 1513 0842 F2070000 		.4byte	0x7f2
 1514 0846 00       		.byte	0
 1515 0847 01       		.uleb128 0x1
 1516 0848 71010000 		.4byte	.LASF127
 1517 084c 0A       		.byte	0xa
 1518 084d 1E       		.byte	0x1e
 1519 084e 0A       		.byte	0xa
 1520 084f DA070000 		.4byte	0x7da
 1521 0853 02       		.byte	0x2
 1522 0854 01       		.uleb128 0x1
 1523 0855 61010000 		.4byte	.LASF128
 1524 0859 0A       		.byte	0xa
 1525 085a 1F       		.byte	0x1f
 1526 085b 0A       		.byte	0xa
 1527 085c 16080000 		.4byte	0x816
 1528 0860 04       		.byte	0x4
 1529 0861 01       		.uleb128 0x1
 1530 0862 99040000 		.4byte	.LASF129
 1531 0866 0A       		.byte	0xa
 1532 0867 20       		.byte	0x20
 1533 0868 0B       		.byte	0xb
 1534 0869 22080000 		.4byte	0x822
ARM GAS  C:\Users\DEVELO~1\AppData\Local\Temp\cc6b0Z3y.s 			page 28


 1535 086d 08       		.byte	0x8
 1536 086e 01       		.uleb128 0x1
 1537 086f 72020000 		.4byte	.LASF130
 1538 0873 0A       		.byte	0xa
 1539 0874 21       		.byte	0x21
 1540 0875 0A       		.byte	0xa
 1541 0876 FE070000 		.4byte	0x7fe
 1542 087a 0A       		.byte	0xa
 1543 087b 01       		.uleb128 0x1
 1544 087c 09060000 		.4byte	.LASF131
 1545 0880 0A       		.byte	0xa
 1546 0881 22       		.byte	0x22
 1547 0882 0A       		.byte	0xa
 1548 0883 0A080000 		.4byte	0x80a
 1549 0887 0C       		.byte	0xc
 1550 0888 01       		.uleb128 0x1
 1551 0889 7A050000 		.4byte	.LASF132
 1552 088d 0A       		.byte	0xa
 1553 088e 23       		.byte	0x23
 1554 088f 0A       		.byte	0xa
 1555 0890 F2070000 		.4byte	0x7f2
 1556 0894 0E       		.byte	0xe
 1557 0895 01       		.uleb128 0x1
 1558 0896 F8030000 		.4byte	.LASF133
 1559 089a 0A       		.byte	0xa
 1560 089b 24       		.byte	0x24
 1561 089c 0A       		.byte	0xa
 1562 089d E6070000 		.4byte	0x7e6
 1563 08a1 10       		.byte	0x10
 1564 08a2 01       		.uleb128 0x1
 1565 08a3 E5010000 		.4byte	.LASF134
 1566 08a7 0A       		.byte	0xa
 1567 08a8 2A       		.byte	0x2a
 1568 08a9 13       		.byte	0x13
 1569 08aa 8F070000 		.4byte	0x78f
 1570 08ae 18       		.byte	0x18
 1571 08af 01       		.uleb128 0x1
 1572 08b0 77060000 		.4byte	.LASF135
 1573 08b4 0A       		.byte	0xa
 1574 08b5 2B       		.byte	0x2b
 1575 08b6 13       		.byte	0x13
 1576 08b7 8F070000 		.4byte	0x78f
 1577 08bb 28       		.byte	0x28
 1578 08bc 01       		.uleb128 0x1
 1579 08bd 1B000000 		.4byte	.LASF136
 1580 08c1 0A       		.byte	0xa
 1581 08c2 2C       		.byte	0x2c
 1582 08c3 13       		.byte	0x13
 1583 08c4 8F070000 		.4byte	0x78f
 1584 08c8 38       		.byte	0x38
 1585 08c9 01       		.uleb128 0x1
 1586 08ca D3040000 		.4byte	.LASF137
 1587 08ce 0A       		.byte	0xa
 1588 08cf 2D       		.byte	0x2d
 1589 08d0 11       		.byte	0x11
 1590 08d1 C2070000 		.4byte	0x7c2
 1591 08d5 48       		.byte	0x48
ARM GAS  C:\Users\DEVELO~1\AppData\Local\Temp\cc6b0Z3y.s 			page 29


 1592 08d6 01       		.uleb128 0x1
 1593 08d7 01010000 		.4byte	.LASF138
 1594 08db 0A       		.byte	0xa
 1595 08dc 2E       		.byte	0x2e
 1596 08dd 0C       		.byte	0xc
 1597 08de B6070000 		.4byte	0x7b6
 1598 08e2 4C       		.byte	0x4c
 1599 08e3 01       		.uleb128 0x1
 1600 08e4 B5050000 		.4byte	.LASF139
 1601 08e8 0A       		.byte	0xa
 1602 08e9 30       		.byte	0x30
 1603 08ea 09       		.byte	0x9
 1604 08eb F1080000 		.4byte	0x8f1
 1605 08ef 50       		.byte	0x50
 1606 08f0 00       		.byte	0
 1607 08f1 08       		.uleb128 0x8
 1608 08f2 77000000 		.4byte	0x77
 1609 08f6 01090000 		.4byte	0x901
 1610 08fa 09       		.uleb128 0x9
 1611 08fb 32000000 		.4byte	0x32
 1612 08ff 01       		.byte	0x1
 1613 0900 00       		.byte	0
 1614 0901 07       		.uleb128 0x7
 1615 0902 01       		.byte	0x1
 1616 0903 02       		.byte	0x2
 1617 0904 A2040000 		.4byte	.LASF140
 1618 0908 26       		.uleb128 0x26
 1619 0909 D2050000 		.4byte	.LASF159
 1620 090d 0D       		.byte	0xd
 1621 090e 45       		.byte	0x45
 1622 090f 06       		.byte	0x6
 1623 0910 27       		.uleb128 0x27
 1624 0911 28060000 		.4byte	.LASF160
 1625 0915 0E       		.byte	0xe
 1626 0916 D9       		.byte	0xd9
 1627 0917 08       		.byte	0x8
 1628 0918 22090000 		.4byte	0x922
 1629 091c 04       		.uleb128 0x4
 1630 091d 45050000 		.4byte	0x545
 1631 0921 00       		.byte	0
 1632 0922 16       		.uleb128 0x16
 1633 0923 21060000 		.4byte	.LASF141
 1634 0927 0B       		.byte	0xb
 1635 0928 21       		.byte	0x21
 1636 0929 7C010000 		.4byte	0x17c
 1637 092d 41090000 		.4byte	0x941
 1638 0931 04       		.uleb128 0x4
 1639 0932 7C010000 		.4byte	0x17c
 1640 0936 04       		.uleb128 0x4
 1641 0937 39000000 		.4byte	0x39
 1642 093b 04       		.uleb128 0x4
 1643 093c 26000000 		.4byte	0x26
 1644 0940 00       		.byte	0
 1645 0941 16       		.uleb128 0x16
 1646 0942 95030000 		.4byte	.LASF142
 1647 0946 0C       		.byte	0xc
 1648 0947 7E       		.byte	0x7e
ARM GAS  C:\Users\DEVELO~1\AppData\Local\Temp\cc6b0Z3y.s 			page 30


 1649 0948 7C010000 		.4byte	0x17c
 1650 094c 60090000 		.4byte	0x960
 1651 0950 04       		.uleb128 0x4
 1652 0951 26000000 		.4byte	0x26
 1653 0955 04       		.uleb128 0x4
 1654 0956 32000000 		.4byte	0x32
 1655 095a 04       		.uleb128 0x4
 1656 095b 26000000 		.4byte	0x26
 1657 095f 00       		.byte	0
 1658 0960 28       		.uleb128 0x28
 1659 0961 82050000 		.4byte	.LASF161
 1660 0965 01       		.byte	0x1
 1661 0966 DB       		.byte	0xdb
 1662 0967 06       		.byte	0x6
 1663 0968 00000000 		.4byte	.LFB357
 1664 096c 0C000000 		.4byte	.LFE357-.LFB357
 1665 0970 01       		.uleb128 0x1
 1666 0971 9C       		.byte	0x9c
 1667 0972 8A090000 		.4byte	0x98a
 1668 0976 29       		.uleb128 0x29
 1669 0977 06000000 		.4byte	.LVL36
 1670 097b 10090000 		.4byte	0x910
 1671 097f 0B       		.uleb128 0xb
 1672 0980 01       		.uleb128 0x1
 1673 0981 50       		.byte	0x50
 1674 0982 05       		.uleb128 0x5
 1675 0983 03       		.byte	0x3
 1676 0984 00000000 		.4byte	.LC2
 1677 0988 00       		.byte	0
 1678 0989 00       		.byte	0
 1679 098a 2A       		.uleb128 0x2a
 1680 098b DD010000 		.4byte	.LASF162
 1681 098f 01       		.byte	0x1
 1682 0990 D3       		.byte	0xd3
 1683 0991 05       		.byte	0x5
 1684 0992 39000000 		.4byte	0x39
 1685 0996 00000000 		.4byte	.LFB356
 1686 099a 04000000 		.4byte	.LFE356-.LFB356
 1687 099e 01       		.uleb128 0x1
 1688 099f 9C       		.byte	0x9c
 1689 09a0 0C       		.uleb128 0xc
 1690 09a1 FE050000 		.4byte	.LASF143
 1691 09a5 C7       		.byte	0xc7
 1692 09a6 05       		.byte	0x5
 1693 09a7 39000000 		.4byte	0x39
 1694 09ab 00000000 		.4byte	.LFB355
 1695 09af 10000000 		.4byte	.LFE355-.LFB355
 1696 09b3 01       		.uleb128 0x1
 1697 09b4 9C       		.byte	0x9c
 1698 09b5 000A0000 		.4byte	0xa00
 1699 09b9 06       		.uleb128 0x6
 1700 09ba 70696400 		.ascii	"pid\000"
 1701 09be C7       		.byte	0xc7
 1702 09bf 0F       		.byte	0xf
 1703 09c0 39000000 		.4byte	0x39
 1704 09c4 10000000 		.4byte	.LLST17
 1705 09c8 0C000000 		.4byte	.LVUS17
ARM GAS  C:\Users\DEVELO~1\AppData\Local\Temp\cc6b0Z3y.s 			page 31


 1706 09cc 06       		.uleb128 0x6
 1707 09cd 73696700 		.ascii	"sig\000"
 1708 09d1 C7       		.byte	0xc7
 1709 09d2 18       		.byte	0x18
 1710 09d3 39000000 		.4byte	0x39
 1711 09d7 27000000 		.4byte	.LLST18
 1712 09db 23000000 		.4byte	.LVUS18
 1713 09df 17       		.uleb128 0x17
 1714 09e0 08000000 		.4byte	.LVL34
 1715 09e4 10090000 		.4byte	0x910
 1716 09e8 F6090000 		.4byte	0x9f6
 1717 09ec 0B       		.uleb128 0xb
 1718 09ed 01       		.uleb128 0x1
 1719 09ee 50       		.byte	0x50
 1720 09ef 05       		.uleb128 0x5
 1721 09f0 03       		.byte	0x3
 1722 09f1 00000000 		.4byte	.LC1
 1723 09f5 00       		.byte	0
 1724 09f6 18       		.uleb128 0x18
 1725 09f7 0C000000 		.4byte	.LVL35
 1726 09fb 08090000 		.4byte	0x908
 1727 09ff 00       		.byte	0
 1728 0a00 2B       		.uleb128 0x2b
 1729 0a01 54010000 		.4byte	.LASF144
 1730 0a05 01       		.byte	0x1
 1731 0a06 BC       		.byte	0xbc
 1732 0a07 06       		.byte	0x6
 1733 0a08 00000000 		.4byte	.LFB354
 1734 0a0c 10000000 		.4byte	.LFE354-.LFB354
 1735 0a10 01       		.uleb128 0x1
 1736 0a11 9C       		.byte	0x9c
 1737 0a12 4A0A0000 		.4byte	0xa4a
 1738 0a16 11       		.uleb128 0x11
 1739 0a17 32060000 		.4byte	.LASF145
 1740 0a1b BC       		.byte	0xbc
 1741 0a1c 10       		.byte	0x10
 1742 0a1d 39000000 		.4byte	0x39
 1743 0a21 3E000000 		.4byte	.LLST16
 1744 0a25 3A000000 		.4byte	.LVUS16
 1745 0a29 17       		.uleb128 0x17
 1746 0a2a 08000000 		.4byte	.LVL30
 1747 0a2e 10090000 		.4byte	0x910
 1748 0a32 400A0000 		.4byte	0xa40
 1749 0a36 0B       		.uleb128 0xb
 1750 0a37 01       		.uleb128 0x1
 1751 0a38 50       		.byte	0x50
 1752 0a39 05       		.uleb128 0x5
 1753 0a3a 03       		.byte	0x3
 1754 0a3b 00000000 		.4byte	.LC0
 1755 0a3f 00       		.byte	0
 1756 0a40 18       		.uleb128 0x18
 1757 0a41 0C000000 		.4byte	.LVL31
 1758 0a45 08090000 		.4byte	0x908
 1759 0a49 00       		.byte	0
 1760 0a4a 0C       		.uleb128 0xc
 1761 0a4b 68050000 		.4byte	.LASF146
 1762 0a4f B2       		.byte	0xb2
ARM GAS  C:\Users\DEVELO~1\AppData\Local\Temp\cc6b0Z3y.s 			page 32


 1763 0a50 05       		.byte	0x5
 1764 0a51 39000000 		.4byte	0x39
 1765 0a55 00000000 		.4byte	.LFB353
 1766 0a59 04000000 		.4byte	.LFE353-.LFB353
 1767 0a5d 01       		.uleb128 0x1
 1768 0a5e 9C       		.byte	0x9c
 1769 0a5f 810A0000 		.4byte	0xa81
 1770 0a63 06       		.uleb128 0x6
 1771 0a64 7200     		.ascii	"r\000"
 1772 0a66 B2       		.byte	0xb2
 1773 0a67 1E       		.byte	0x1e
 1774 0a68 2A040000 		.4byte	0x42a
 1775 0a6c 55000000 		.4byte	.LLST15
 1776 0a70 51000000 		.4byte	.LVUS15
 1777 0a74 0E       		.uleb128 0xe
 1778 0a75 666400   		.ascii	"fd\000"
 1779 0a78 B2       		.byte	0xb2
 1780 0a79 25       		.byte	0x25
 1781 0a7a 39000000 		.4byte	0x39
 1782 0a7e 01       		.uleb128 0x1
 1783 0a7f 51       		.byte	0x51
 1784 0a80 00       		.byte	0
 1785 0a81 0C       		.uleb128 0xc
 1786 0a82 18060000 		.4byte	.LASF147
 1787 0a86 A6       		.byte	0xa6
 1788 0a87 05       		.byte	0x5
 1789 0a88 39000000 		.4byte	0x39
 1790 0a8c 00000000 		.4byte	.LFB352
 1791 0a90 1A000000 		.4byte	.LFE352-.LFB352
 1792 0a94 01       		.uleb128 0x1
 1793 0a95 9C       		.byte	0x9c
 1794 0a96 ED0A0000 		.4byte	0xaed
 1795 0a9a 06       		.uleb128 0x6
 1796 0a9b 7200     		.ascii	"r\000"
 1797 0a9d A6       		.byte	0xa6
 1798 0a9e 1D       		.byte	0x1d
 1799 0a9f 2A040000 		.4byte	0x42a
 1800 0aa3 6C000000 		.4byte	.LLST12
 1801 0aa7 68000000 		.4byte	.LVUS12
 1802 0aab 11       		.uleb128 0x11
 1803 0aac CE040000 		.4byte	.LASF148
 1804 0ab0 A6       		.byte	0xa6
 1805 0ab1 24       		.byte	0x24
 1806 0ab2 39000000 		.4byte	0x39
 1807 0ab6 83000000 		.4byte	.LLST13
 1808 0aba 7F000000 		.4byte	.LVUS13
 1809 0abe 06       		.uleb128 0x6
 1810 0abf 737400   		.ascii	"st\000"
 1811 0ac2 A6       		.byte	0xa6
 1812 0ac3 38       		.byte	0x38
 1813 0ac4 ED0A0000 		.4byte	0xaed
 1814 0ac8 9C000000 		.4byte	.LLST14
 1815 0acc 96000000 		.4byte	.LVUS14
 1816 0ad0 19       		.uleb128 0x19
 1817 0ad1 0E000000 		.4byte	.LVL25
 1818 0ad5 0D0D0000 		.4byte	0xd0d
 1819 0ad9 0B       		.uleb128 0xb
ARM GAS  C:\Users\DEVELO~1\AppData\Local\Temp\cc6b0Z3y.s 			page 33


 1820 0ada 01       		.uleb128 0x1
 1821 0adb 50       		.byte	0x50
 1822 0adc 03       		.uleb128 0x3
 1823 0add A3       		.byte	0xa3
 1824 0ade 01       		.uleb128 0x1
 1825 0adf 52       		.byte	0x52
 1826 0ae0 0B       		.uleb128 0xb
 1827 0ae1 01       		.uleb128 0x1
 1828 0ae2 51       		.byte	0x51
 1829 0ae3 01       		.uleb128 0x1
 1830 0ae4 30       		.byte	0x30
 1831 0ae5 0B       		.uleb128 0xb
 1832 0ae6 01       		.uleb128 0x1
 1833 0ae7 52       		.byte	0x52
 1834 0ae8 02       		.uleb128 0x2
 1835 0ae9 08       		.byte	0x8
 1836 0aea 58       		.byte	0x58
 1837 0aeb 00       		.byte	0
 1838 0aec 00       		.byte	0
 1839 0aed 05       		.uleb128 0x5
 1840 0aee 2E080000 		.4byte	0x82e
 1841 0af2 0C       		.uleb128 0xc
 1842 0af3 10060000 		.4byte	.LASF149
 1843 0af7 90       		.byte	0x90
 1844 0af8 09       		.byte	0x9
 1845 0af9 CE070000 		.4byte	0x7ce
 1846 0afd 00000000 		.4byte	.LFB351
 1847 0b01 20000000 		.4byte	.LFE351-.LFB351
 1848 0b05 01       		.uleb128 0x1
 1849 0b06 9C       		.byte	0x9c
 1850 0b07 660B0000 		.4byte	0xb66
 1851 0b0b 06       		.uleb128 0x6
 1852 0b0c 7200     		.ascii	"r\000"
 1853 0b0e 90       		.byte	0x90
 1854 0b0f 20       		.byte	0x20
 1855 0b10 2A040000 		.4byte	0x42a
 1856 0b14 BA000000 		.4byte	.LLST9
 1857 0b18 B4000000 		.4byte	.LVUS9
 1858 0b1c 11       		.uleb128 0x11
 1859 0b1d 28020000 		.4byte	.LASF150
 1860 0b21 90       		.byte	0x90
 1861 0b22 27       		.byte	0x27
 1862 0b23 39000000 		.4byte	0x39
 1863 0b27 D7000000 		.4byte	.LLST10
 1864 0b2b CF000000 		.4byte	.LVUS10
 1865 0b2f 2C       		.uleb128 0x2c
 1866 0b30 7000     		.ascii	"p\000"
 1867 0b32 01       		.byte	0x1
 1868 0b33 92       		.byte	0x92
 1869 0b34 09       		.byte	0x9
 1870 0b35 7C010000 		.4byte	0x17c
 1871 0b39 F6000000 		.4byte	.LLST11
 1872 0b3d F4000000 		.4byte	.LVUS11
 1873 0b41 2D       		.uleb128 0x2d
 1874 0b42 01050000 		.4byte	.LASF163
 1875 0b46 760B0000 		.4byte	0xb76
 1876 0b4a 19       		.uleb128 0x19
ARM GAS  C:\Users\DEVELO~1\AppData\Local\Temp\cc6b0Z3y.s 			page 34


 1877 0b4b 12000000 		.4byte	.LVL18
 1878 0b4f 41090000 		.4byte	0x941
 1879 0b53 0B       		.uleb128 0xb
 1880 0b54 01       		.uleb128 0x1
 1881 0b55 50       		.byte	0x50
 1882 0b56 03       		.uleb128 0x3
 1883 0b57 A3       		.byte	0xa3
 1884 0b58 01       		.uleb128 0x1
 1885 0b59 51       		.byte	0x51
 1886 0b5a 0B       		.uleb128 0xb
 1887 0b5b 01       		.uleb128 0x1
 1888 0b5c 51       		.byte	0x51
 1889 0b5d 01       		.uleb128 0x1
 1890 0b5e 31       		.byte	0x31
 1891 0b5f 0B       		.uleb128 0xb
 1892 0b60 01       		.uleb128 0x1
 1893 0b61 52       		.byte	0x52
 1894 0b62 01       		.uleb128 0x1
 1895 0b63 30       		.byte	0x30
 1896 0b64 00       		.byte	0
 1897 0b65 00       		.byte	0
 1898 0b66 08       		.uleb128 0x8
 1899 0b67 1D050000 		.4byte	0x51d
 1900 0b6b 760B0000 		.4byte	0xb76
 1901 0b6f 09       		.uleb128 0x9
 1902 0b70 32000000 		.4byte	0x32
 1903 0b74 07       		.byte	0x7
 1904 0b75 00       		.byte	0
 1905 0b76 14       		.uleb128 0x14
 1906 0b77 660B0000 		.4byte	0xb66
 1907 0b7b 0C       		.uleb128 0xc
 1908 0b7c E9030000 		.4byte	.LASF151
 1909 0b80 86       		.byte	0x86
 1910 0b81 05       		.byte	0x5
 1911 0b82 39000000 		.4byte	0x39
 1912 0b86 00000000 		.4byte	.LFB350
 1913 0b8a 04000000 		.4byte	.LFE350-.LFB350
 1914 0b8e 01       		.uleb128 0x1
 1915 0b8f 9C       		.byte	0x9c
 1916 0b90 B30B0000 		.4byte	0xbb3
 1917 0b94 06       		.uleb128 0x6
 1918 0b95 7200     		.ascii	"r\000"
 1919 0b97 86       		.byte	0x86
 1920 0b98 1D       		.byte	0x1d
 1921 0b99 2A040000 		.4byte	0x42a
 1922 0b9d 03010000 		.4byte	.LLST8
 1923 0ba1 FF000000 		.4byte	.LVUS8
 1924 0ba5 10       		.uleb128 0x10
 1925 0ba6 CE040000 		.4byte	.LASF148
 1926 0baa 86       		.byte	0x86
 1927 0bab 24       		.byte	0x24
 1928 0bac 39000000 		.4byte	0x39
 1929 0bb0 01       		.uleb128 0x1
 1930 0bb1 51       		.byte	0x51
 1931 0bb2 00       		.byte	0
 1932 0bb3 0C       		.uleb128 0xc
 1933 0bb4 95050000 		.4byte	.LASF152
ARM GAS  C:\Users\DEVELO~1\AppData\Local\Temp\cc6b0Z3y.s 			page 35


 1934 0bb8 79       		.byte	0x79
 1935 0bb9 05       		.byte	0x5
 1936 0bba 39000000 		.4byte	0x39
 1937 0bbe 00000000 		.4byte	.LFB349
 1938 0bc2 0C000000 		.4byte	.LFE349-.LFB349
 1939 0bc6 01       		.uleb128 0x1
 1940 0bc7 9C       		.byte	0x9c
 1941 0bc8 0B0C0000 		.4byte	0xc0b
 1942 0bcc 06       		.uleb128 0x6
 1943 0bcd 7200     		.ascii	"r\000"
 1944 0bcf 79       		.byte	0x79
 1945 0bd0 1C       		.byte	0x1c
 1946 0bd1 2A040000 		.4byte	0x42a
 1947 0bd5 1A010000 		.4byte	.LLST5
 1948 0bd9 16010000 		.4byte	.LVUS5
 1949 0bdd 0E       		.uleb128 0xe
 1950 0bde 7000     		.ascii	"p\000"
 1951 0be0 79       		.byte	0x79
 1952 0be1 2B       		.byte	0x2b
 1953 0be2 45050000 		.4byte	0x545
 1954 0be6 01       		.uleb128 0x1
 1955 0be7 51       		.byte	0x51
 1956 0be8 06       		.uleb128 0x6
 1957 0be9 6100     		.ascii	"a\000"
 1958 0beb 79       		.byte	0x79
 1959 0bec 32       		.byte	0x32
 1960 0bed 39000000 		.4byte	0x39
 1961 0bf1 2E010000 		.4byte	.LLST6
 1962 0bf5 2A010000 		.4byte	.LVUS6
 1963 0bf9 06       		.uleb128 0x6
 1964 0bfa 6200     		.ascii	"b\000"
 1965 0bfc 79       		.byte	0x79
 1966 0bfd 39       		.byte	0x39
 1967 0bfe 39000000 		.4byte	0x39
 1968 0c02 45010000 		.4byte	.LLST7
 1969 0c06 41010000 		.4byte	.LVUS7
 1970 0c0a 00       		.byte	0
 1971 0c0b 0C       		.uleb128 0xc
 1972 0c0c 11040000 		.4byte	.LASF153
 1973 0c10 68       		.byte	0x68
 1974 0c11 05       		.byte	0x5
 1975 0c12 39000000 		.4byte	0x39
 1976 0c16 00000000 		.4byte	.LFB348
 1977 0c1a 04000000 		.4byte	.LFE348-.LFB348
 1978 0c1e 01       		.uleb128 0x1
 1979 0c1f 9C       		.byte	0x9c
 1980 0c20 5D0C0000 		.4byte	0xc5d
 1981 0c24 06       		.uleb128 0x6
 1982 0c25 7200     		.ascii	"r\000"
 1983 0c27 68       		.byte	0x68
 1984 0c28 1D       		.byte	0x1d
 1985 0c29 2A040000 		.4byte	0x42a
 1986 0c2d 5C010000 		.4byte	.LLST4
 1987 0c31 58010000 		.4byte	.LVUS4
 1988 0c35 10       		.uleb128 0x10
 1989 0c36 CE040000 		.4byte	.LASF148
 1990 0c3a 68       		.byte	0x68
ARM GAS  C:\Users\DEVELO~1\AppData\Local\Temp\cc6b0Z3y.s 			page 36


 1991 0c3b 24       		.byte	0x24
 1992 0c3c 39000000 		.4byte	0x39
 1993 0c40 01       		.uleb128 0x1
 1994 0c41 51       		.byte	0x51
 1995 0c42 0E       		.uleb128 0xe
 1996 0c43 70747200 		.ascii	"ptr\000"
 1997 0c47 68       		.byte	0x68
 1998 0c48 31       		.byte	0x31
 1999 0c49 11050000 		.4byte	0x511
 2000 0c4d 01       		.uleb128 0x1
 2001 0c4e 52       		.byte	0x52
 2002 0c4f 0E       		.uleb128 0xe
 2003 0c50 6C656E00 		.ascii	"len\000"
 2004 0c54 68       		.byte	0x68
 2005 0c55 3A       		.byte	0x3a
 2006 0c56 39000000 		.4byte	0x39
 2007 0c5a 01       		.uleb128 0x1
 2008 0c5b 53       		.byte	0x53
 2009 0c5c 00       		.byte	0
 2010 0c5d 0C       		.uleb128 0xc
 2011 0c5e 00000000 		.4byte	.LASF154
 2012 0c62 5C       		.byte	0x5c
 2013 0c63 05       		.byte	0x5
 2014 0c64 39000000 		.4byte	0x39
 2015 0c68 00000000 		.4byte	.LFB347
 2016 0c6c 04000000 		.4byte	.LFE347-.LFB347
 2017 0c70 01       		.uleb128 0x1
 2018 0c71 9C       		.byte	0x9c
 2019 0c72 AF0C0000 		.4byte	0xcaf
 2020 0c76 06       		.uleb128 0x6
 2021 0c77 7200     		.ascii	"r\000"
 2022 0c79 5C       		.byte	0x5c
 2023 0c7a 1D       		.byte	0x1d
 2024 0c7b 2A040000 		.4byte	0x42a
 2025 0c7f 73010000 		.4byte	.LLST3
 2026 0c83 6F010000 		.4byte	.LVUS3
 2027 0c87 10       		.uleb128 0x10
 2028 0c88 CE040000 		.4byte	.LASF148
 2029 0c8c 5C       		.byte	0x5c
 2030 0c8d 24       		.byte	0x24
 2031 0c8e 39000000 		.4byte	0x39
 2032 0c92 01       		.uleb128 0x1
 2033 0c93 51       		.byte	0x51
 2034 0c94 0E       		.uleb128 0xe
 2035 0c95 70747200 		.ascii	"ptr\000"
 2036 0c99 5C       		.byte	0x5c
 2037 0c9a 2E       		.byte	0x2e
 2038 0c9b 39000000 		.4byte	0x39
 2039 0c9f 01       		.uleb128 0x1
 2040 0ca0 52       		.byte	0x52
 2041 0ca1 0E       		.uleb128 0xe
 2042 0ca2 64697200 		.ascii	"dir\000"
 2043 0ca6 5C       		.byte	0x5c
 2044 0ca7 37       		.byte	0x37
 2045 0ca8 39000000 		.4byte	0x39
 2046 0cac 01       		.uleb128 0x1
 2047 0cad 53       		.byte	0x53
ARM GAS  C:\Users\DEVELO~1\AppData\Local\Temp\cc6b0Z3y.s 			page 37


 2048 0cae 00       		.byte	0
 2049 0caf 0C       		.uleb128 0xc
 2050 0cb0 7A030000 		.4byte	.LASF155
 2051 0cb4 47       		.byte	0x47
 2052 0cb5 05       		.byte	0x5
 2053 0cb6 39000000 		.4byte	0x39
 2054 0cba 00000000 		.4byte	.LFB346
 2055 0cbe 0C000000 		.4byte	.LFE346-.LFB346
 2056 0cc2 01       		.uleb128 0x1
 2057 0cc3 9C       		.byte	0x9c
 2058 0cc4 0D0D0000 		.4byte	0xd0d
 2059 0cc8 06       		.uleb128 0x6
 2060 0cc9 7200     		.ascii	"r\000"
 2061 0ccb 47       		.byte	0x47
 2062 0ccc 1C       		.byte	0x1c
 2063 0ccd 2A040000 		.4byte	0x42a
 2064 0cd1 8A010000 		.4byte	.LLST0
 2065 0cd5 86010000 		.4byte	.LVUS0
 2066 0cd9 10       		.uleb128 0x10
 2067 0cda CE040000 		.4byte	.LASF148
 2068 0cde 47       		.byte	0x47
 2069 0cdf 23       		.byte	0x23
 2070 0ce0 39000000 		.4byte	0x39
 2071 0ce4 01       		.uleb128 0x1
 2072 0ce5 51       		.byte	0x51
 2073 0ce6 06       		.uleb128 0x6
 2074 0ce7 70747200 		.ascii	"ptr\000"
 2075 0ceb 47       		.byte	0x47
 2076 0cec 30       		.byte	0x30
 2077 0ced 11050000 		.4byte	0x511
 2078 0cf1 9E010000 		.4byte	.LLST1
 2079 0cf5 9A010000 		.4byte	.LVUS1
 2080 0cf9 06       		.uleb128 0x6
 2081 0cfa 6C656E00 		.ascii	"len\000"
 2082 0cfe 47       		.byte	0x47
 2083 0cff 39       		.byte	0x39
 2084 0d00 39000000 		.4byte	0x39
 2085 0d04 B5010000 		.4byte	.LLST2
 2086 0d08 B1010000 		.4byte	.LVUS2
 2087 0d0c 00       		.byte	0
 2088 0d0d 2E       		.uleb128 0x2e
 2089 0d0e 21060000 		.4byte	.LASF141
 2090 0d12 D9000000 		.4byte	.LASF164
 2091 0d16 0F       		.byte	0xf
 2092 0d17 00       		.byte	0
 2093 0d18 00       		.byte	0
 2094              		.section	.debug_abbrev,"",%progbits
 2095              	.Ldebug_abbrev0:
 2096 0000 01       		.uleb128 0x1
 2097 0001 0D       		.uleb128 0xd
 2098 0002 00       		.byte	0
 2099 0003 03       		.uleb128 0x3
 2100 0004 0E       		.uleb128 0xe
 2101 0005 3A       		.uleb128 0x3a
 2102 0006 0B       		.uleb128 0xb
 2103 0007 3B       		.uleb128 0x3b
 2104 0008 0B       		.uleb128 0xb
ARM GAS  C:\Users\DEVELO~1\AppData\Local\Temp\cc6b0Z3y.s 			page 38


 2105 0009 39       		.uleb128 0x39
 2106 000a 0B       		.uleb128 0xb
 2107 000b 49       		.uleb128 0x49
 2108 000c 13       		.uleb128 0x13
 2109 000d 38       		.uleb128 0x38
 2110 000e 0B       		.uleb128 0xb
 2111 000f 00       		.byte	0
 2112 0010 00       		.byte	0
 2113 0011 02       		.uleb128 0x2
 2114 0012 0D       		.uleb128 0xd
 2115 0013 00       		.byte	0
 2116 0014 03       		.uleb128 0x3
 2117 0015 0E       		.uleb128 0xe
 2118 0016 3A       		.uleb128 0x3a
 2119 0017 21       		.uleb128 0x21
 2120 0018 05       		.sleb128 5
 2121 0019 3B       		.uleb128 0x3b
 2122 001a 05       		.uleb128 0x5
 2123 001b 39       		.uleb128 0x39
 2124 001c 0B       		.uleb128 0xb
 2125 001d 49       		.uleb128 0x49
 2126 001e 13       		.uleb128 0x13
 2127 001f 38       		.uleb128 0x38
 2128 0020 0B       		.uleb128 0xb
 2129 0021 00       		.byte	0
 2130 0022 00       		.byte	0
 2131 0023 03       		.uleb128 0x3
 2132 0024 16       		.uleb128 0x16
 2133 0025 00       		.byte	0
 2134 0026 03       		.uleb128 0x3
 2135 0027 0E       		.uleb128 0xe
 2136 0028 3A       		.uleb128 0x3a
 2137 0029 0B       		.uleb128 0xb
 2138 002a 3B       		.uleb128 0x3b
 2139 002b 0B       		.uleb128 0xb
 2140 002c 39       		.uleb128 0x39
 2141 002d 0B       		.uleb128 0xb
 2142 002e 49       		.uleb128 0x49
 2143 002f 13       		.uleb128 0x13
 2144 0030 00       		.byte	0
 2145 0031 00       		.byte	0
 2146 0032 04       		.uleb128 0x4
 2147 0033 05       		.uleb128 0x5
 2148 0034 00       		.byte	0
 2149 0035 49       		.uleb128 0x49
 2150 0036 13       		.uleb128 0x13
 2151 0037 00       		.byte	0
 2152 0038 00       		.byte	0
 2153 0039 05       		.uleb128 0x5
 2154 003a 0F       		.uleb128 0xf
 2155 003b 00       		.byte	0
 2156 003c 0B       		.uleb128 0xb
 2157 003d 21       		.uleb128 0x21
 2158 003e 04       		.sleb128 4
 2159 003f 49       		.uleb128 0x49
 2160 0040 13       		.uleb128 0x13
 2161 0041 00       		.byte	0
ARM GAS  C:\Users\DEVELO~1\AppData\Local\Temp\cc6b0Z3y.s 			page 39


 2162 0042 00       		.byte	0
 2163 0043 06       		.uleb128 0x6
 2164 0044 05       		.uleb128 0x5
 2165 0045 00       		.byte	0
 2166 0046 03       		.uleb128 0x3
 2167 0047 08       		.uleb128 0x8
 2168 0048 3A       		.uleb128 0x3a
 2169 0049 21       		.uleb128 0x21
 2170 004a 01       		.sleb128 1
 2171 004b 3B       		.uleb128 0x3b
 2172 004c 0B       		.uleb128 0xb
 2173 004d 39       		.uleb128 0x39
 2174 004e 0B       		.uleb128 0xb
 2175 004f 49       		.uleb128 0x49
 2176 0050 13       		.uleb128 0x13
 2177 0051 02       		.uleb128 0x2
 2178 0052 17       		.uleb128 0x17
 2179 0053 B742     		.uleb128 0x2137
 2180 0055 17       		.uleb128 0x17
 2181 0056 00       		.byte	0
 2182 0057 00       		.byte	0
 2183 0058 07       		.uleb128 0x7
 2184 0059 24       		.uleb128 0x24
 2185 005a 00       		.byte	0
 2186 005b 0B       		.uleb128 0xb
 2187 005c 0B       		.uleb128 0xb
 2188 005d 3E       		.uleb128 0x3e
 2189 005e 0B       		.uleb128 0xb
 2190 005f 03       		.uleb128 0x3
 2191 0060 0E       		.uleb128 0xe
 2192 0061 00       		.byte	0
 2193 0062 00       		.byte	0
 2194 0063 08       		.uleb128 0x8
 2195 0064 01       		.uleb128 0x1
 2196 0065 01       		.byte	0x1
 2197 0066 49       		.uleb128 0x49
 2198 0067 13       		.uleb128 0x13
 2199 0068 01       		.uleb128 0x1
 2200 0069 13       		.uleb128 0x13
 2201 006a 00       		.byte	0
 2202 006b 00       		.byte	0
 2203 006c 09       		.uleb128 0x9
 2204 006d 21       		.uleb128 0x21
 2205 006e 00       		.byte	0
 2206 006f 49       		.uleb128 0x49
 2207 0070 13       		.uleb128 0x13
 2208 0071 2F       		.uleb128 0x2f
 2209 0072 0B       		.uleb128 0xb
 2210 0073 00       		.byte	0
 2211 0074 00       		.byte	0
 2212 0075 0A       		.uleb128 0xa
 2213 0076 0D       		.uleb128 0xd
 2214 0077 00       		.byte	0
 2215 0078 03       		.uleb128 0x3
 2216 0079 08       		.uleb128 0x8
 2217 007a 3A       		.uleb128 0x3a
 2218 007b 21       		.uleb128 0x21
ARM GAS  C:\Users\DEVELO~1\AppData\Local\Temp\cc6b0Z3y.s 			page 40


 2219 007c 05       		.sleb128 5
 2220 007d 3B       		.uleb128 0x3b
 2221 007e 0B       		.uleb128 0xb
 2222 007f 39       		.uleb128 0x39
 2223 0080 0B       		.uleb128 0xb
 2224 0081 49       		.uleb128 0x49
 2225 0082 13       		.uleb128 0x13
 2226 0083 38       		.uleb128 0x38
 2227 0084 0B       		.uleb128 0xb
 2228 0085 00       		.byte	0
 2229 0086 00       		.byte	0
 2230 0087 0B       		.uleb128 0xb
 2231 0088 49       		.uleb128 0x49
 2232 0089 00       		.byte	0
 2233 008a 02       		.uleb128 0x2
 2234 008b 18       		.uleb128 0x18
 2235 008c 7E       		.uleb128 0x7e
 2236 008d 18       		.uleb128 0x18
 2237 008e 00       		.byte	0
 2238 008f 00       		.byte	0
 2239 0090 0C       		.uleb128 0xc
 2240 0091 2E       		.uleb128 0x2e
 2241 0092 01       		.byte	0x1
 2242 0093 3F       		.uleb128 0x3f
 2243 0094 19       		.uleb128 0x19
 2244 0095 03       		.uleb128 0x3
 2245 0096 0E       		.uleb128 0xe
 2246 0097 3A       		.uleb128 0x3a
 2247 0098 21       		.uleb128 0x21
 2248 0099 01       		.sleb128 1
 2249 009a 3B       		.uleb128 0x3b
 2250 009b 0B       		.uleb128 0xb
 2251 009c 39       		.uleb128 0x39
 2252 009d 0B       		.uleb128 0xb
 2253 009e 27       		.uleb128 0x27
 2254 009f 19       		.uleb128 0x19
 2255 00a0 49       		.uleb128 0x49
 2256 00a1 13       		.uleb128 0x13
 2257 00a2 11       		.uleb128 0x11
 2258 00a3 01       		.uleb128 0x1
 2259 00a4 12       		.uleb128 0x12
 2260 00a5 06       		.uleb128 0x6
 2261 00a6 40       		.uleb128 0x40
 2262 00a7 18       		.uleb128 0x18
 2263 00a8 7A       		.uleb128 0x7a
 2264 00a9 19       		.uleb128 0x19
 2265 00aa 01       		.uleb128 0x1
 2266 00ab 13       		.uleb128 0x13
 2267 00ac 00       		.byte	0
 2268 00ad 00       		.byte	0
 2269 00ae 0D       		.uleb128 0xd
 2270 00af 13       		.uleb128 0x13
 2271 00b0 01       		.byte	0x1
 2272 00b1 03       		.uleb128 0x3
 2273 00b2 0E       		.uleb128 0xe
 2274 00b3 0B       		.uleb128 0xb
 2275 00b4 0B       		.uleb128 0xb
ARM GAS  C:\Users\DEVELO~1\AppData\Local\Temp\cc6b0Z3y.s 			page 41


 2276 00b5 3A       		.uleb128 0x3a
 2277 00b6 0B       		.uleb128 0xb
 2278 00b7 3B       		.uleb128 0x3b
 2279 00b8 0B       		.uleb128 0xb
 2280 00b9 39       		.uleb128 0x39
 2281 00ba 21       		.uleb128 0x21
 2282 00bb 08       		.sleb128 8
 2283 00bc 01       		.uleb128 0x1
 2284 00bd 13       		.uleb128 0x13
 2285 00be 00       		.byte	0
 2286 00bf 00       		.byte	0
 2287 00c0 0E       		.uleb128 0xe
 2288 00c1 05       		.uleb128 0x5
 2289 00c2 00       		.byte	0
 2290 00c3 03       		.uleb128 0x3
 2291 00c4 08       		.uleb128 0x8
 2292 00c5 3A       		.uleb128 0x3a
 2293 00c6 21       		.uleb128 0x21
 2294 00c7 01       		.sleb128 1
 2295 00c8 3B       		.uleb128 0x3b
 2296 00c9 0B       		.uleb128 0xb
 2297 00ca 39       		.uleb128 0x39
 2298 00cb 0B       		.uleb128 0xb
 2299 00cc 49       		.uleb128 0x49
 2300 00cd 13       		.uleb128 0x13
 2301 00ce 02       		.uleb128 0x2
 2302 00cf 18       		.uleb128 0x18
 2303 00d0 00       		.byte	0
 2304 00d1 00       		.byte	0
 2305 00d2 0F       		.uleb128 0xf
 2306 00d3 15       		.uleb128 0x15
 2307 00d4 01       		.byte	0x1
 2308 00d5 27       		.uleb128 0x27
 2309 00d6 19       		.uleb128 0x19
 2310 00d7 49       		.uleb128 0x49
 2311 00d8 13       		.uleb128 0x13
 2312 00d9 01       		.uleb128 0x1
 2313 00da 13       		.uleb128 0x13
 2314 00db 00       		.byte	0
 2315 00dc 00       		.byte	0
 2316 00dd 10       		.uleb128 0x10
 2317 00de 05       		.uleb128 0x5
 2318 00df 00       		.byte	0
 2319 00e0 03       		.uleb128 0x3
 2320 00e1 0E       		.uleb128 0xe
 2321 00e2 3A       		.uleb128 0x3a
 2322 00e3 21       		.uleb128 0x21
 2323 00e4 01       		.sleb128 1
 2324 00e5 3B       		.uleb128 0x3b
 2325 00e6 0B       		.uleb128 0xb
 2326 00e7 39       		.uleb128 0x39
 2327 00e8 0B       		.uleb128 0xb
 2328 00e9 49       		.uleb128 0x49
 2329 00ea 13       		.uleb128 0x13
 2330 00eb 02       		.uleb128 0x2
 2331 00ec 18       		.uleb128 0x18
 2332 00ed 00       		.byte	0
ARM GAS  C:\Users\DEVELO~1\AppData\Local\Temp\cc6b0Z3y.s 			page 42


 2333 00ee 00       		.byte	0
 2334 00ef 11       		.uleb128 0x11
 2335 00f0 05       		.uleb128 0x5
 2336 00f1 00       		.byte	0
 2337 00f2 03       		.uleb128 0x3
 2338 00f3 0E       		.uleb128 0xe
 2339 00f4 3A       		.uleb128 0x3a
 2340 00f5 21       		.uleb128 0x21
 2341 00f6 01       		.sleb128 1
 2342 00f7 3B       		.uleb128 0x3b
 2343 00f8 0B       		.uleb128 0xb
 2344 00f9 39       		.uleb128 0x39
 2345 00fa 0B       		.uleb128 0xb
 2346 00fb 49       		.uleb128 0x49
 2347 00fc 13       		.uleb128 0x13
 2348 00fd 02       		.uleb128 0x2
 2349 00fe 17       		.uleb128 0x17
 2350 00ff B742     		.uleb128 0x2137
 2351 0101 17       		.uleb128 0x17
 2352 0102 00       		.byte	0
 2353 0103 00       		.byte	0
 2354 0104 12       		.uleb128 0x12
 2355 0105 0D       		.uleb128 0xd
 2356 0106 00       		.byte	0
 2357 0107 03       		.uleb128 0x3
 2358 0108 0E       		.uleb128 0xe
 2359 0109 3A       		.uleb128 0x3a
 2360 010a 21       		.uleb128 0x21
 2361 010b 04       		.sleb128 4
 2362 010c 3B       		.uleb128 0x3b
 2363 010d 0B       		.uleb128 0xb
 2364 010e 39       		.uleb128 0x39
 2365 010f 0B       		.uleb128 0xb
 2366 0110 49       		.uleb128 0x49
 2367 0111 13       		.uleb128 0x13
 2368 0112 00       		.byte	0
 2369 0113 00       		.byte	0
 2370 0114 13       		.uleb128 0x13
 2371 0115 13       		.uleb128 0x13
 2372 0116 00       		.byte	0
 2373 0117 03       		.uleb128 0x3
 2374 0118 0E       		.uleb128 0xe
 2375 0119 3C       		.uleb128 0x3c
 2376 011a 19       		.uleb128 0x19
 2377 011b 00       		.byte	0
 2378 011c 00       		.byte	0
 2379 011d 14       		.uleb128 0x14
 2380 011e 26       		.uleb128 0x26
 2381 011f 00       		.byte	0
 2382 0120 49       		.uleb128 0x49
 2383 0121 13       		.uleb128 0x13
 2384 0122 00       		.byte	0
 2385 0123 00       		.byte	0
 2386 0124 15       		.uleb128 0x15
 2387 0125 15       		.uleb128 0x15
 2388 0126 01       		.byte	0x1
 2389 0127 27       		.uleb128 0x27
ARM GAS  C:\Users\DEVELO~1\AppData\Local\Temp\cc6b0Z3y.s 			page 43


 2390 0128 19       		.uleb128 0x19
 2391 0129 01       		.uleb128 0x1
 2392 012a 13       		.uleb128 0x13
 2393 012b 00       		.byte	0
 2394 012c 00       		.byte	0
 2395 012d 16       		.uleb128 0x16
 2396 012e 2E       		.uleb128 0x2e
 2397 012f 01       		.byte	0x1
 2398 0130 3F       		.uleb128 0x3f
 2399 0131 19       		.uleb128 0x19
 2400 0132 03       		.uleb128 0x3
 2401 0133 0E       		.uleb128 0xe
 2402 0134 3A       		.uleb128 0x3a
 2403 0135 0B       		.uleb128 0xb
 2404 0136 3B       		.uleb128 0x3b
 2405 0137 0B       		.uleb128 0xb
 2406 0138 39       		.uleb128 0x39
 2407 0139 21       		.uleb128 0x21
 2408 013a 09       		.sleb128 9
 2409 013b 27       		.uleb128 0x27
 2410 013c 19       		.uleb128 0x19
 2411 013d 49       		.uleb128 0x49
 2412 013e 13       		.uleb128 0x13
 2413 013f 3C       		.uleb128 0x3c
 2414 0140 19       		.uleb128 0x19
 2415 0141 01       		.uleb128 0x1
 2416 0142 13       		.uleb128 0x13
 2417 0143 00       		.byte	0
 2418 0144 00       		.byte	0
 2419 0145 17       		.uleb128 0x17
 2420 0146 48       		.uleb128 0x48
 2421 0147 01       		.byte	0x1
 2422 0148 7D       		.uleb128 0x7d
 2423 0149 01       		.uleb128 0x1
 2424 014a 7F       		.uleb128 0x7f
 2425 014b 13       		.uleb128 0x13
 2426 014c 01       		.uleb128 0x1
 2427 014d 13       		.uleb128 0x13
 2428 014e 00       		.byte	0
 2429 014f 00       		.byte	0
 2430 0150 18       		.uleb128 0x18
 2431 0151 48       		.uleb128 0x48
 2432 0152 00       		.byte	0
 2433 0153 7D       		.uleb128 0x7d
 2434 0154 01       		.uleb128 0x1
 2435 0155 7F       		.uleb128 0x7f
 2436 0156 13       		.uleb128 0x13
 2437 0157 00       		.byte	0
 2438 0158 00       		.byte	0
 2439 0159 19       		.uleb128 0x19
 2440 015a 48       		.uleb128 0x48
 2441 015b 01       		.byte	0x1
 2442 015c 7D       		.uleb128 0x7d
 2443 015d 01       		.uleb128 0x1
 2444 015e 7F       		.uleb128 0x7f
 2445 015f 13       		.uleb128 0x13
 2446 0160 00       		.byte	0
ARM GAS  C:\Users\DEVELO~1\AppData\Local\Temp\cc6b0Z3y.s 			page 44


 2447 0161 00       		.byte	0
 2448 0162 1A       		.uleb128 0x1a
 2449 0163 11       		.uleb128 0x11
 2450 0164 01       		.byte	0x1
 2451 0165 25       		.uleb128 0x25
 2452 0166 0E       		.uleb128 0xe
 2453 0167 13       		.uleb128 0x13
 2454 0168 0B       		.uleb128 0xb
 2455 0169 03       		.uleb128 0x3
 2456 016a 0E       		.uleb128 0xe
 2457 016b 1B       		.uleb128 0x1b
 2458 016c 0E       		.uleb128 0xe
 2459 016d 55       		.uleb128 0x55
 2460 016e 17       		.uleb128 0x17
 2461 016f 11       		.uleb128 0x11
 2462 0170 01       		.uleb128 0x1
 2463 0171 10       		.uleb128 0x10
 2464 0172 17       		.uleb128 0x17
 2465 0173 00       		.byte	0
 2466 0174 00       		.byte	0
 2467 0175 1B       		.uleb128 0x1b
 2468 0176 24       		.uleb128 0x24
 2469 0177 00       		.byte	0
 2470 0178 0B       		.uleb128 0xb
 2471 0179 0B       		.uleb128 0xb
 2472 017a 3E       		.uleb128 0x3e
 2473 017b 0B       		.uleb128 0xb
 2474 017c 03       		.uleb128 0x3
 2475 017d 08       		.uleb128 0x8
 2476 017e 00       		.byte	0
 2477 017f 00       		.byte	0
 2478 0180 1C       		.uleb128 0x1c
 2479 0181 16       		.uleb128 0x16
 2480 0182 00       		.byte	0
 2481 0183 03       		.uleb128 0x3
 2482 0184 0E       		.uleb128 0xe
 2483 0185 3A       		.uleb128 0x3a
 2484 0186 0B       		.uleb128 0xb
 2485 0187 3B       		.uleb128 0x3b
 2486 0188 05       		.uleb128 0x5
 2487 0189 39       		.uleb128 0x39
 2488 018a 0B       		.uleb128 0xb
 2489 018b 49       		.uleb128 0x49
 2490 018c 13       		.uleb128 0x13
 2491 018d 00       		.byte	0
 2492 018e 00       		.byte	0
 2493 018f 1D       		.uleb128 0x1d
 2494 0190 17       		.uleb128 0x17
 2495 0191 01       		.byte	0x1
 2496 0192 0B       		.uleb128 0xb
 2497 0193 0B       		.uleb128 0xb
 2498 0194 3A       		.uleb128 0x3a
 2499 0195 0B       		.uleb128 0xb
 2500 0196 3B       		.uleb128 0x3b
 2501 0197 0B       		.uleb128 0xb
 2502 0198 39       		.uleb128 0x39
 2503 0199 0B       		.uleb128 0xb
ARM GAS  C:\Users\DEVELO~1\AppData\Local\Temp\cc6b0Z3y.s 			page 45


 2504 019a 01       		.uleb128 0x1
 2505 019b 13       		.uleb128 0x13
 2506 019c 00       		.byte	0
 2507 019d 00       		.byte	0
 2508 019e 1E       		.uleb128 0x1e
 2509 019f 13       		.uleb128 0x13
 2510 01a0 01       		.byte	0x1
 2511 01a1 0B       		.uleb128 0xb
 2512 01a2 0B       		.uleb128 0xb
 2513 01a3 3A       		.uleb128 0x3a
 2514 01a4 0B       		.uleb128 0xb
 2515 01a5 3B       		.uleb128 0x3b
 2516 01a6 0B       		.uleb128 0xb
 2517 01a7 39       		.uleb128 0x39
 2518 01a8 0B       		.uleb128 0xb
 2519 01a9 01       		.uleb128 0x1
 2520 01aa 13       		.uleb128 0x13
 2521 01ab 00       		.byte	0
 2522 01ac 00       		.byte	0
 2523 01ad 1F       		.uleb128 0x1f
 2524 01ae 0F       		.uleb128 0xf
 2525 01af 00       		.byte	0
 2526 01b0 0B       		.uleb128 0xb
 2527 01b1 0B       		.uleb128 0xb
 2528 01b2 00       		.byte	0
 2529 01b3 00       		.byte	0
 2530 01b4 20       		.uleb128 0x20
 2531 01b5 13       		.uleb128 0x13
 2532 01b6 01       		.byte	0x1
 2533 01b7 03       		.uleb128 0x3
 2534 01b8 0E       		.uleb128 0xe
 2535 01b9 0B       		.uleb128 0xb
 2536 01ba 05       		.uleb128 0x5
 2537 01bb 3A       		.uleb128 0x3a
 2538 01bc 0B       		.uleb128 0xb
 2539 01bd 3B       		.uleb128 0x3b
 2540 01be 05       		.uleb128 0x5
 2541 01bf 39       		.uleb128 0x39
 2542 01c0 0B       		.uleb128 0xb
 2543 01c1 01       		.uleb128 0x1
 2544 01c2 13       		.uleb128 0x13
 2545 01c3 00       		.byte	0
 2546 01c4 00       		.byte	0
 2547 01c5 21       		.uleb128 0x21
 2548 01c6 0D       		.uleb128 0xd
 2549 01c7 00       		.byte	0
 2550 01c8 03       		.uleb128 0x3
 2551 01c9 0E       		.uleb128 0xe
 2552 01ca 3A       		.uleb128 0x3a
 2553 01cb 0B       		.uleb128 0xb
 2554 01cc 3B       		.uleb128 0x3b
 2555 01cd 05       		.uleb128 0x5
 2556 01ce 39       		.uleb128 0x39
 2557 01cf 0B       		.uleb128 0xb
 2558 01d0 49       		.uleb128 0x49
 2559 01d1 13       		.uleb128 0x13
 2560 01d2 38       		.uleb128 0x38
ARM GAS  C:\Users\DEVELO~1\AppData\Local\Temp\cc6b0Z3y.s 			page 46


 2561 01d3 05       		.uleb128 0x5
 2562 01d4 00       		.byte	0
 2563 01d5 00       		.byte	0
 2564 01d6 22       		.uleb128 0x22
 2565 01d7 13       		.uleb128 0x13
 2566 01d8 01       		.byte	0x1
 2567 01d9 03       		.uleb128 0x3
 2568 01da 0E       		.uleb128 0xe
 2569 01db 0B       		.uleb128 0xb
 2570 01dc 0B       		.uleb128 0xb
 2571 01dd 3A       		.uleb128 0x3a
 2572 01de 0B       		.uleb128 0xb
 2573 01df 3B       		.uleb128 0x3b
 2574 01e0 05       		.uleb128 0x5
 2575 01e1 39       		.uleb128 0x39
 2576 01e2 0B       		.uleb128 0xb
 2577 01e3 01       		.uleb128 0x1
 2578 01e4 13       		.uleb128 0x13
 2579 01e5 00       		.byte	0
 2580 01e6 00       		.byte	0
 2581 01e7 23       		.uleb128 0x23
 2582 01e8 13       		.uleb128 0x13
 2583 01e9 01       		.byte	0x1
 2584 01ea 0B       		.uleb128 0xb
 2585 01eb 0B       		.uleb128 0xb
 2586 01ec 3A       		.uleb128 0x3a
 2587 01ed 0B       		.uleb128 0xb
 2588 01ee 3B       		.uleb128 0x3b
 2589 01ef 05       		.uleb128 0x5
 2590 01f0 39       		.uleb128 0x39
 2591 01f1 0B       		.uleb128 0xb
 2592 01f2 01       		.uleb128 0x1
 2593 01f3 13       		.uleb128 0x13
 2594 01f4 00       		.byte	0
 2595 01f5 00       		.byte	0
 2596 01f6 24       		.uleb128 0x24
 2597 01f7 17       		.uleb128 0x17
 2598 01f8 01       		.byte	0x1
 2599 01f9 0B       		.uleb128 0xb
 2600 01fa 0B       		.uleb128 0xb
 2601 01fb 3A       		.uleb128 0x3a
 2602 01fc 0B       		.uleb128 0xb
 2603 01fd 3B       		.uleb128 0x3b
 2604 01fe 05       		.uleb128 0x5
 2605 01ff 39       		.uleb128 0x39
 2606 0200 0B       		.uleb128 0xb
 2607 0201 01       		.uleb128 0x1
 2608 0202 13       		.uleb128 0x13
 2609 0203 00       		.byte	0
 2610 0204 00       		.byte	0
 2611 0205 25       		.uleb128 0x25
 2612 0206 0D       		.uleb128 0xd
 2613 0207 00       		.byte	0
 2614 0208 03       		.uleb128 0x3
 2615 0209 0E       		.uleb128 0xe
 2616 020a 3A       		.uleb128 0x3a
 2617 020b 0B       		.uleb128 0xb
ARM GAS  C:\Users\DEVELO~1\AppData\Local\Temp\cc6b0Z3y.s 			page 47


 2618 020c 3B       		.uleb128 0x3b
 2619 020d 05       		.uleb128 0x5
 2620 020e 39       		.uleb128 0x39
 2621 020f 0B       		.uleb128 0xb
 2622 0210 49       		.uleb128 0x49
 2623 0211 13       		.uleb128 0x13
 2624 0212 00       		.byte	0
 2625 0213 00       		.byte	0
 2626 0214 26       		.uleb128 0x26
 2627 0215 2E       		.uleb128 0x2e
 2628 0216 00       		.byte	0
 2629 0217 3F       		.uleb128 0x3f
 2630 0218 19       		.uleb128 0x19
 2631 0219 03       		.uleb128 0x3
 2632 021a 0E       		.uleb128 0xe
 2633 021b 3A       		.uleb128 0x3a
 2634 021c 0B       		.uleb128 0xb
 2635 021d 3B       		.uleb128 0x3b
 2636 021e 0B       		.uleb128 0xb
 2637 021f 39       		.uleb128 0x39
 2638 0220 0B       		.uleb128 0xb
 2639 0221 27       		.uleb128 0x27
 2640 0222 19       		.uleb128 0x19
 2641 0223 8701     		.uleb128 0x87
 2642 0225 19       		.uleb128 0x19
 2643 0226 3C       		.uleb128 0x3c
 2644 0227 19       		.uleb128 0x19
 2645 0228 00       		.byte	0
 2646 0229 00       		.byte	0
 2647 022a 27       		.uleb128 0x27
 2648 022b 2E       		.uleb128 0x2e
 2649 022c 01       		.byte	0x1
 2650 022d 3F       		.uleb128 0x3f
 2651 022e 19       		.uleb128 0x19
 2652 022f 03       		.uleb128 0x3
 2653 0230 0E       		.uleb128 0xe
 2654 0231 3A       		.uleb128 0x3a
 2655 0232 0B       		.uleb128 0xb
 2656 0233 3B       		.uleb128 0x3b
 2657 0234 0B       		.uleb128 0xb
 2658 0235 39       		.uleb128 0x39
 2659 0236 0B       		.uleb128 0xb
 2660 0237 27       		.uleb128 0x27
 2661 0238 19       		.uleb128 0x19
 2662 0239 3C       		.uleb128 0x3c
 2663 023a 19       		.uleb128 0x19
 2664 023b 01       		.uleb128 0x1
 2665 023c 13       		.uleb128 0x13
 2666 023d 00       		.byte	0
 2667 023e 00       		.byte	0
 2668 023f 28       		.uleb128 0x28
 2669 0240 2E       		.uleb128 0x2e
 2670 0241 01       		.byte	0x1
 2671 0242 3F       		.uleb128 0x3f
 2672 0243 19       		.uleb128 0x19
 2673 0244 03       		.uleb128 0x3
 2674 0245 0E       		.uleb128 0xe
ARM GAS  C:\Users\DEVELO~1\AppData\Local\Temp\cc6b0Z3y.s 			page 48


 2675 0246 3A       		.uleb128 0x3a
 2676 0247 0B       		.uleb128 0xb
 2677 0248 3B       		.uleb128 0x3b
 2678 0249 0B       		.uleb128 0xb
 2679 024a 39       		.uleb128 0x39
 2680 024b 0B       		.uleb128 0xb
 2681 024c 27       		.uleb128 0x27
 2682 024d 19       		.uleb128 0x19
 2683 024e 11       		.uleb128 0x11
 2684 024f 01       		.uleb128 0x1
 2685 0250 12       		.uleb128 0x12
 2686 0251 06       		.uleb128 0x6
 2687 0252 40       		.uleb128 0x40
 2688 0253 18       		.uleb128 0x18
 2689 0254 7A       		.uleb128 0x7a
 2690 0255 19       		.uleb128 0x19
 2691 0256 01       		.uleb128 0x1
 2692 0257 13       		.uleb128 0x13
 2693 0258 00       		.byte	0
 2694 0259 00       		.byte	0
 2695 025a 29       		.uleb128 0x29
 2696 025b 48       		.uleb128 0x48
 2697 025c 01       		.byte	0x1
 2698 025d 7D       		.uleb128 0x7d
 2699 025e 01       		.uleb128 0x1
 2700 025f 8201     		.uleb128 0x82
 2701 0261 19       		.uleb128 0x19
 2702 0262 7F       		.uleb128 0x7f
 2703 0263 13       		.uleb128 0x13
 2704 0264 00       		.byte	0
 2705 0265 00       		.byte	0
 2706 0266 2A       		.uleb128 0x2a
 2707 0267 2E       		.uleb128 0x2e
 2708 0268 00       		.byte	0
 2709 0269 3F       		.uleb128 0x3f
 2710 026a 19       		.uleb128 0x19
 2711 026b 03       		.uleb128 0x3
 2712 026c 0E       		.uleb128 0xe
 2713 026d 3A       		.uleb128 0x3a
 2714 026e 0B       		.uleb128 0xb
 2715 026f 3B       		.uleb128 0x3b
 2716 0270 0B       		.uleb128 0xb
 2717 0271 39       		.uleb128 0x39
 2718 0272 0B       		.uleb128 0xb
 2719 0273 27       		.uleb128 0x27
 2720 0274 19       		.uleb128 0x19
 2721 0275 49       		.uleb128 0x49
 2722 0276 13       		.uleb128 0x13
 2723 0277 11       		.uleb128 0x11
 2724 0278 01       		.uleb128 0x1
 2725 0279 12       		.uleb128 0x12
 2726 027a 06       		.uleb128 0x6
 2727 027b 40       		.uleb128 0x40
 2728 027c 18       		.uleb128 0x18
 2729 027d 7A       		.uleb128 0x7a
 2730 027e 19       		.uleb128 0x19
 2731 027f 00       		.byte	0
ARM GAS  C:\Users\DEVELO~1\AppData\Local\Temp\cc6b0Z3y.s 			page 49


 2732 0280 00       		.byte	0
 2733 0281 2B       		.uleb128 0x2b
 2734 0282 2E       		.uleb128 0x2e
 2735 0283 01       		.byte	0x1
 2736 0284 3F       		.uleb128 0x3f
 2737 0285 19       		.uleb128 0x19
 2738 0286 03       		.uleb128 0x3
 2739 0287 0E       		.uleb128 0xe
 2740 0288 3A       		.uleb128 0x3a
 2741 0289 0B       		.uleb128 0xb
 2742 028a 3B       		.uleb128 0x3b
 2743 028b 0B       		.uleb128 0xb
 2744 028c 39       		.uleb128 0x39
 2745 028d 0B       		.uleb128 0xb
 2746 028e 27       		.uleb128 0x27
 2747 028f 19       		.uleb128 0x19
 2748 0290 8701     		.uleb128 0x87
 2749 0292 19       		.uleb128 0x19
 2750 0293 11       		.uleb128 0x11
 2751 0294 01       		.uleb128 0x1
 2752 0295 12       		.uleb128 0x12
 2753 0296 06       		.uleb128 0x6
 2754 0297 40       		.uleb128 0x40
 2755 0298 18       		.uleb128 0x18
 2756 0299 7A       		.uleb128 0x7a
 2757 029a 19       		.uleb128 0x19
 2758 029b 01       		.uleb128 0x1
 2759 029c 13       		.uleb128 0x13
 2760 029d 00       		.byte	0
 2761 029e 00       		.byte	0
 2762 029f 2C       		.uleb128 0x2c
 2763 02a0 34       		.uleb128 0x34
 2764 02a1 00       		.byte	0
 2765 02a2 03       		.uleb128 0x3
 2766 02a3 08       		.uleb128 0x8
 2767 02a4 3A       		.uleb128 0x3a
 2768 02a5 0B       		.uleb128 0xb
 2769 02a6 3B       		.uleb128 0x3b
 2770 02a7 0B       		.uleb128 0xb
 2771 02a8 39       		.uleb128 0x39
 2772 02a9 0B       		.uleb128 0xb
 2773 02aa 49       		.uleb128 0x49
 2774 02ab 13       		.uleb128 0x13
 2775 02ac 02       		.uleb128 0x2
 2776 02ad 17       		.uleb128 0x17
 2777 02ae B742     		.uleb128 0x2137
 2778 02b0 17       		.uleb128 0x17
 2779 02b1 00       		.byte	0
 2780 02b2 00       		.byte	0
 2781 02b3 2D       		.uleb128 0x2d
 2782 02b4 34       		.uleb128 0x34
 2783 02b5 00       		.byte	0
 2784 02b6 03       		.uleb128 0x3
 2785 02b7 0E       		.uleb128 0xe
 2786 02b8 49       		.uleb128 0x49
 2787 02b9 13       		.uleb128 0x13
 2788 02ba 34       		.uleb128 0x34
ARM GAS  C:\Users\DEVELO~1\AppData\Local\Temp\cc6b0Z3y.s 			page 50


 2789 02bb 19       		.uleb128 0x19
 2790 02bc 00       		.byte	0
 2791 02bd 00       		.byte	0
 2792 02be 2E       		.uleb128 0x2e
 2793 02bf 2E       		.uleb128 0x2e
 2794 02c0 00       		.byte	0
 2795 02c1 3F       		.uleb128 0x3f
 2796 02c2 19       		.uleb128 0x19
 2797 02c3 3C       		.uleb128 0x3c
 2798 02c4 19       		.uleb128 0x19
 2799 02c5 6E       		.uleb128 0x6e
 2800 02c6 0E       		.uleb128 0xe
 2801 02c7 03       		.uleb128 0x3
 2802 02c8 0E       		.uleb128 0xe
 2803 02c9 3A       		.uleb128 0x3a
 2804 02ca 0B       		.uleb128 0xb
 2805 02cb 3B       		.uleb128 0x3b
 2806 02cc 0B       		.uleb128 0xb
 2807 02cd 00       		.byte	0
 2808 02ce 00       		.byte	0
 2809 02cf 00       		.byte	0
 2810              		.section	.debug_loclists,"",%progbits
 2811 0000 C4010000 		.4byte	.Ldebug_loc3-.Ldebug_loc2
 2812              	.Ldebug_loc2:
 2813 0004 0500     		.2byte	0x5
 2814 0006 04       		.byte	0x4
 2815 0007 00       		.byte	0
 2816 0008 00000000 		.4byte	0
 2817              	.Ldebug_loc0:
 2818              	.LVUS17:
 2819 000c 00       		.uleb128 0
 2820 000d 00       		.uleb128 .LVU100
 2821 000e 00       		.uleb128 .LVU100
 2822 000f 00       		.uleb128 0
 2823              	.LLST17:
 2824 0010 06       		.byte	0x6
 2825 0011 00000000 		.4byte	.LVL32
 2826 0015 04       		.byte	0x4
 2827 0016 00       		.uleb128 .LVL32-.LVL32
 2828 0017 02       		.uleb128 .LVL33-.LVL32
 2829 0018 01       		.uleb128 0x1
 2830 0019 50       		.byte	0x50
 2831 001a 04       		.byte	0x4
 2832 001b 02       		.uleb128 .LVL33-.LVL32
 2833 001c 10       		.uleb128 .LFE355-.LVL32
 2834 001d 04       		.uleb128 0x4
 2835 001e A3       		.byte	0xa3
 2836 001f 01       		.uleb128 0x1
 2837 0020 50       		.byte	0x50
 2838 0021 9F       		.byte	0x9f
 2839 0022 00       		.byte	0
 2840              	.LVUS18:
 2841 0023 00       		.uleb128 0
 2842 0024 00       		.uleb128 .LVU102
 2843 0025 00       		.uleb128 .LVU102
 2844 0026 00       		.uleb128 0
 2845              	.LLST18:
ARM GAS  C:\Users\DEVELO~1\AppData\Local\Temp\cc6b0Z3y.s 			page 51


 2846 0027 06       		.byte	0x6
 2847 0028 00000000 		.4byte	.LVL32
 2848 002c 04       		.byte	0x4
 2849 002d 00       		.uleb128 .LVL32-.LVL32
 2850 002e 07       		.uleb128 .LVL34-1-.LVL32
 2851 002f 01       		.uleb128 0x1
 2852 0030 51       		.byte	0x51
 2853 0031 04       		.byte	0x4
 2854 0032 07       		.uleb128 .LVL34-1-.LVL32
 2855 0033 10       		.uleb128 .LFE355-.LVL32
 2856 0034 04       		.uleb128 0x4
 2857 0035 A3       		.byte	0xa3
 2858 0036 01       		.uleb128 0x1
 2859 0037 51       		.byte	0x51
 2860 0038 9F       		.byte	0x9f
 2861 0039 00       		.byte	0
 2862              	.LVUS16:
 2863 003a 00       		.uleb128 0
 2864 003b 00       		.uleb128 .LVU93
 2865 003c 00       		.uleb128 .LVU93
 2866 003d 00       		.uleb128 0
 2867              	.LLST16:
 2868 003e 06       		.byte	0x6
 2869 003f 00000000 		.4byte	.LVL28
 2870 0043 04       		.byte	0x4
 2871 0044 00       		.uleb128 .LVL28-.LVL28
 2872 0045 02       		.uleb128 .LVL29-.LVL28
 2873 0046 01       		.uleb128 0x1
 2874 0047 50       		.byte	0x50
 2875 0048 04       		.byte	0x4
 2876 0049 02       		.uleb128 .LVL29-.LVL28
 2877 004a 10       		.uleb128 .LFE354-.LVL28
 2878 004b 04       		.uleb128 0x4
 2879 004c A3       		.byte	0xa3
 2880 004d 01       		.uleb128 0x1
 2881 004e 50       		.byte	0x50
 2882 004f 9F       		.byte	0x9f
 2883 0050 00       		.byte	0
 2884              	.LVUS15:
 2885 0051 00       		.uleb128 0
 2886 0052 00       		.uleb128 .LVU89
 2887 0053 00       		.uleb128 .LVU89
 2888 0054 00       		.uleb128 0
 2889              	.LLST15:
 2890 0055 06       		.byte	0x6
 2891 0056 00000000 		.4byte	.LVL26
 2892 005a 04       		.byte	0x4
 2893 005b 00       		.uleb128 .LVL26-.LVL26
 2894 005c 02       		.uleb128 .LVL27-.LVL26
 2895 005d 01       		.uleb128 0x1
 2896 005e 50       		.byte	0x50
 2897 005f 04       		.byte	0x4
 2898 0060 02       		.uleb128 .LVL27-.LVL26
 2899 0061 04       		.uleb128 .LFE353-.LVL26
 2900 0062 04       		.uleb128 0x4
 2901 0063 A3       		.byte	0xa3
 2902 0064 01       		.uleb128 0x1
ARM GAS  C:\Users\DEVELO~1\AppData\Local\Temp\cc6b0Z3y.s 			page 52


 2903 0065 50       		.byte	0x50
 2904 0066 9F       		.byte	0x9f
 2905 0067 00       		.byte	0
 2906              	.LVUS12:
 2907 0068 00       		.uleb128 0
 2908 0069 00       		.uleb128 .LVU76
 2909 006a 00       		.uleb128 .LVU76
 2910 006b 00       		.uleb128 0
 2911              	.LLST12:
 2912 006c 06       		.byte	0x6
 2913 006d 00000000 		.4byte	.LVL21
 2914 0071 04       		.byte	0x4
 2915 0072 00       		.uleb128 .LVL21-.LVL21
 2916 0073 0A       		.uleb128 .LVL24-.LVL21
 2917 0074 01       		.uleb128 0x1
 2918 0075 50       		.byte	0x50
 2919 0076 04       		.byte	0x4
 2920 0077 0A       		.uleb128 .LVL24-.LVL21
 2921 0078 1A       		.uleb128 .LFE352-.LVL21
 2922 0079 04       		.uleb128 0x4
 2923 007a A3       		.byte	0xa3
 2924 007b 01       		.uleb128 0x1
 2925 007c 50       		.byte	0x50
 2926 007d 9F       		.byte	0x9f
 2927 007e 00       		.byte	0
 2928              	.LVUS13:
 2929 007f 00       		.uleb128 0
 2930 0080 00       		.uleb128 .LVU74
 2931 0081 00       		.uleb128 .LVU74
 2932 0082 00       		.uleb128 0
 2933              	.LLST13:
 2934 0083 06       		.byte	0x6
 2935 0084 00000000 		.4byte	.LVL21
 2936 0088 04       		.byte	0x4
 2937 0089 00       		.uleb128 .LVL21-.LVL21
 2938 008a 06       		.uleb128 .LVL22-.LVL21
 2939 008b 01       		.uleb128 0x1
 2940 008c 51       		.byte	0x51
 2941 008d 04       		.byte	0x4
 2942 008e 06       		.uleb128 .LVL22-.LVL21
 2943 008f 1A       		.uleb128 .LFE352-.LVL21
 2944 0090 04       		.uleb128 0x4
 2945 0091 A3       		.byte	0xa3
 2946 0092 01       		.uleb128 0x1
 2947 0093 51       		.byte	0x51
 2948 0094 9F       		.byte	0x9f
 2949 0095 00       		.byte	0
 2950              	.LVUS14:
 2951 0096 00       		.uleb128 0
 2952 0097 00       		.uleb128 .LVU75
 2953 0098 00       		.uleb128 .LVU75
 2954 0099 00       		.uleb128 .LVU77
 2955 009a 00       		.uleb128 .LVU77
 2956 009b 00       		.uleb128 0
 2957              	.LLST14:
 2958 009c 06       		.byte	0x6
 2959 009d 00000000 		.4byte	.LVL21
ARM GAS  C:\Users\DEVELO~1\AppData\Local\Temp\cc6b0Z3y.s 			page 53


 2960 00a1 04       		.byte	0x4
 2961 00a2 00       		.uleb128 .LVL21-.LVL21
 2962 00a3 08       		.uleb128 .LVL23-.LVL21
 2963 00a4 01       		.uleb128 0x1
 2964 00a5 52       		.byte	0x52
 2965 00a6 04       		.byte	0x4
 2966 00a7 08       		.uleb128 .LVL23-.LVL21
 2967 00a8 0D       		.uleb128 .LVL25-1-.LVL21
 2968 00a9 01       		.uleb128 0x1
 2969 00aa 53       		.byte	0x53
 2970 00ab 04       		.byte	0x4
 2971 00ac 0D       		.uleb128 .LVL25-1-.LVL21
 2972 00ad 1A       		.uleb128 .LFE352-.LVL21
 2973 00ae 04       		.uleb128 0x4
 2974 00af A3       		.byte	0xa3
 2975 00b0 01       		.uleb128 0x1
 2976 00b1 52       		.byte	0x52
 2977 00b2 9F       		.byte	0x9f
 2978 00b3 00       		.byte	0
 2979              	.LVUS9:
 2980 00b4 00       		.uleb128 0
 2981 00b5 00       		.uleb128 .LVU55
 2982 00b6 00       		.uleb128 .LVU55
 2983 00b7 00       		.uleb128 .LVU57
 2984 00b8 00       		.uleb128 .LVU57
 2985 00b9 00       		.uleb128 0
 2986              	.LLST9:
 2987 00ba 06       		.byte	0x6
 2988 00bb 00000000 		.4byte	.LVL14
 2989 00bf 04       		.byte	0x4
 2990 00c0 00       		.uleb128 .LVL14-.LVL14
 2991 00c1 0C       		.uleb128 .LVL16-.LVL14
 2992 00c2 01       		.uleb128 0x1
 2993 00c3 50       		.byte	0x50
 2994 00c4 04       		.byte	0x4
 2995 00c5 0C       		.uleb128 .LVL16-.LVL14
 2996 00c6 11       		.uleb128 .LVL18-1-.LVL14
 2997 00c7 01       		.uleb128 0x1
 2998 00c8 53       		.byte	0x53
 2999 00c9 04       		.byte	0x4
 3000 00ca 11       		.uleb128 .LVL18-1-.LVL14
 3001 00cb 20       		.uleb128 .LFE351-.LVL14
 3002 00cc 01       		.uleb128 0x1
 3003 00cd 54       		.byte	0x54
 3004 00ce 00       		.byte	0
 3005              	.LVUS10:
 3006 00cf 00       		.uleb128 0
 3007 00d0 00       		.uleb128 .LVU54
 3008 00d1 00       		.uleb128 .LVU54
 3009 00d2 00       		.uleb128 .LVU56
 3010 00d3 00       		.uleb128 .LVU56
 3011 00d4 00       		.uleb128 .LVU57
 3012 00d5 00       		.uleb128 .LVU57
 3013 00d6 00       		.uleb128 0
 3014              	.LLST10:
 3015 00d7 06       		.byte	0x6
 3016 00d8 00000000 		.4byte	.LVL14
ARM GAS  C:\Users\DEVELO~1\AppData\Local\Temp\cc6b0Z3y.s 			page 54


 3017 00dc 04       		.byte	0x4
 3018 00dd 00       		.uleb128 .LVL14-.LVL14
 3019 00de 0A       		.uleb128 .LVL15-.LVL14
 3020 00df 01       		.uleb128 0x1
 3021 00e0 51       		.byte	0x51
 3022 00e1 04       		.byte	0x4
 3023 00e2 0A       		.uleb128 .LVL15-.LVL14
 3024 00e3 0E       		.uleb128 .LVL17-.LVL14
 3025 00e4 01       		.uleb128 0x1
 3026 00e5 54       		.byte	0x54
 3027 00e6 04       		.byte	0x4
 3028 00e7 0E       		.uleb128 .LVL17-.LVL14
 3029 00e8 11       		.uleb128 .LVL18-1-.LVL14
 3030 00e9 01       		.uleb128 0x1
 3031 00ea 50       		.byte	0x50
 3032 00eb 04       		.byte	0x4
 3033 00ec 11       		.uleb128 .LVL18-1-.LVL14
 3034 00ed 20       		.uleb128 .LFE351-.LVL14
 3035 00ee 04       		.uleb128 0x4
 3036 00ef A3       		.byte	0xa3
 3037 00f0 01       		.uleb128 0x1
 3038 00f1 51       		.byte	0x51
 3039 00f2 9F       		.byte	0x9f
 3040 00f3 00       		.byte	0
 3041              	.LVUS11:
 3042 00f4 00       		.uleb128 .LVU57
 3043 00f5 00       		.uleb128 .LVU63
 3044              	.LLST11:
 3045 00f6 08       		.byte	0x8
 3046 00f7 12000000 		.4byte	.LVL18
 3047 00fb 0A       		.uleb128 .LVL20-.LVL18
 3048 00fc 01       		.uleb128 0x1
 3049 00fd 50       		.byte	0x50
 3050 00fe 00       		.byte	0
 3051              	.LVUS8:
 3052 00ff 00       		.uleb128 0
 3053 0100 00       		.uleb128 .LVU44
 3054 0101 00       		.uleb128 .LVU44
 3055 0102 00       		.uleb128 0
 3056              	.LLST8:
 3057 0103 06       		.byte	0x6
 3058 0104 00000000 		.4byte	.LVL12
 3059 0108 04       		.byte	0x4
 3060 0109 00       		.uleb128 .LVL12-.LVL12
 3061 010a 02       		.uleb128 .LVL13-.LVL12
 3062 010b 01       		.uleb128 0x1
 3063 010c 50       		.byte	0x50
 3064 010d 04       		.byte	0x4
 3065 010e 02       		.uleb128 .LVL13-.LVL12
 3066 010f 04       		.uleb128 .LFE350-.LVL12
 3067 0110 04       		.uleb128 0x4
 3068 0111 A3       		.byte	0xa3
 3069 0112 01       		.uleb128 0x1
 3070 0113 50       		.byte	0x50
 3071 0114 9F       		.byte	0x9f
 3072 0115 00       		.byte	0
 3073              	.LVUS5:
ARM GAS  C:\Users\DEVELO~1\AppData\Local\Temp\cc6b0Z3y.s 			page 55


 3074 0116 00       		.uleb128 0
 3075 0117 00       		.uleb128 .LVU36
 3076 0118 00       		.uleb128 .LVU36
 3077 0119 00       		.uleb128 0
 3078              	.LLST5:
 3079 011a 06       		.byte	0x6
 3080 011b 00000000 		.4byte	.LVL8
 3081 011f 04       		.byte	0x4
 3082 0120 00       		.uleb128 .LVL8-.LVL8
 3083 0121 08       		.uleb128 .LVL11-.LVL8
 3084 0122 01       		.uleb128 0x1
 3085 0123 50       		.byte	0x50
 3086 0124 04       		.byte	0x4
 3087 0125 08       		.uleb128 .LVL11-.LVL8
 3088 0126 0C       		.uleb128 .LFE349-.LVL8
 3089 0127 01       		.uleb128 0x1
 3090 0128 53       		.byte	0x53
 3091 0129 00       		.byte	0
 3092              	.LVUS6:
 3093 012a 00       		.uleb128 0
 3094 012b 00       		.uleb128 .LVU35
 3095 012c 00       		.uleb128 .LVU35
 3096 012d 00       		.uleb128 0
 3097              	.LLST6:
 3098 012e 06       		.byte	0x6
 3099 012f 00000000 		.4byte	.LVL8
 3100 0133 04       		.byte	0x4
 3101 0134 00       		.uleb128 .LVL8-.LVL8
 3102 0135 04       		.uleb128 .LVL10-.LVL8
 3103 0136 01       		.uleb128 0x1
 3104 0137 52       		.byte	0x52
 3105 0138 04       		.byte	0x4
 3106 0139 04       		.uleb128 .LVL10-.LVL8
 3107 013a 0C       		.uleb128 .LFE349-.LVL8
 3108 013b 04       		.uleb128 0x4
 3109 013c A3       		.byte	0xa3
 3110 013d 01       		.uleb128 0x1
 3111 013e 52       		.byte	0x52
 3112 013f 9F       		.byte	0x9f
 3113 0140 00       		.byte	0
 3114              	.LVUS7:
 3115 0141 00       		.uleb128 0
 3116 0142 00       		.uleb128 .LVU34
 3117 0143 00       		.uleb128 .LVU34
 3118 0144 00       		.uleb128 0
 3119              	.LLST7:
 3120 0145 06       		.byte	0x6
 3121 0146 00000000 		.4byte	.LVL8
 3122 014a 04       		.byte	0x4
 3123 014b 00       		.uleb128 .LVL8-.LVL8
 3124 014c 02       		.uleb128 .LVL9-.LVL8
 3125 014d 01       		.uleb128 0x1
 3126 014e 53       		.byte	0x53
 3127 014f 04       		.byte	0x4
 3128 0150 02       		.uleb128 .LVL9-.LVL8
 3129 0151 0C       		.uleb128 .LFE349-.LVL8
 3130 0152 04       		.uleb128 0x4
ARM GAS  C:\Users\DEVELO~1\AppData\Local\Temp\cc6b0Z3y.s 			page 56


 3131 0153 A3       		.byte	0xa3
 3132 0154 01       		.uleb128 0x1
 3133 0155 53       		.byte	0x53
 3134 0156 9F       		.byte	0x9f
 3135 0157 00       		.byte	0
 3136              	.LVUS4:
 3137 0158 00       		.uleb128 0
 3138 0159 00       		.uleb128 .LVU26
 3139 015a 00       		.uleb128 .LVU26
 3140 015b 00       		.uleb128 0
 3141              	.LLST4:
 3142 015c 06       		.byte	0x6
 3143 015d 00000000 		.4byte	.LVL6
 3144 0161 04       		.byte	0x4
 3145 0162 00       		.uleb128 .LVL6-.LVL6
 3146 0163 02       		.uleb128 .LVL7-.LVL6
 3147 0164 01       		.uleb128 0x1
 3148 0165 50       		.byte	0x50
 3149 0166 04       		.byte	0x4
 3150 0167 02       		.uleb128 .LVL7-.LVL6
 3151 0168 04       		.uleb128 .LFE348-.LVL6
 3152 0169 04       		.uleb128 0x4
 3153 016a A3       		.byte	0xa3
 3154 016b 01       		.uleb128 0x1
 3155 016c 50       		.byte	0x50
 3156 016d 9F       		.byte	0x9f
 3157 016e 00       		.byte	0
 3158              	.LVUS3:
 3159 016f 00       		.uleb128 0
 3160 0170 00       		.uleb128 .LVU19
 3161 0171 00       		.uleb128 .LVU19
 3162 0172 00       		.uleb128 0
 3163              	.LLST3:
 3164 0173 06       		.byte	0x6
 3165 0174 00000000 		.4byte	.LVL4
 3166 0178 04       		.byte	0x4
 3167 0179 00       		.uleb128 .LVL4-.LVL4
 3168 017a 02       		.uleb128 .LVL5-.LVL4
 3169 017b 01       		.uleb128 0x1
 3170 017c 50       		.byte	0x50
 3171 017d 04       		.byte	0x4
 3172 017e 02       		.uleb128 .LVL5-.LVL4
 3173 017f 04       		.uleb128 .LFE347-.LVL4
 3174 0180 04       		.uleb128 0x4
 3175 0181 A3       		.byte	0xa3
 3176 0182 01       		.uleb128 0x1
 3177 0183 50       		.byte	0x50
 3178 0184 9F       		.byte	0x9f
 3179 0185 00       		.byte	0
 3180              	.LVUS0:
 3181 0186 00       		.uleb128 0
 3182 0187 00       		.uleb128 .LVU9
 3183 0188 00       		.uleb128 .LVU9
 3184 0189 00       		.uleb128 0
 3185              	.LLST0:
 3186 018a 06       		.byte	0x6
 3187 018b 00000000 		.4byte	.LVL0
ARM GAS  C:\Users\DEVELO~1\AppData\Local\Temp\cc6b0Z3y.s 			page 57


 3188 018f 04       		.byte	0x4
 3189 0190 00       		.uleb128 .LVL0-.LVL0
 3190 0191 08       		.uleb128 .LVL3-.LVL0
 3191 0192 01       		.uleb128 0x1
 3192 0193 50       		.byte	0x50
 3193 0194 04       		.byte	0x4
 3194 0195 08       		.uleb128 .LVL3-.LVL0
 3195 0196 0C       		.uleb128 .LFE346-.LVL0
 3196 0197 01       		.uleb128 0x1
 3197 0198 53       		.byte	0x53
 3198 0199 00       		.byte	0
 3199              	.LVUS1:
 3200 019a 00       		.uleb128 0
 3201 019b 00       		.uleb128 .LVU8
 3202 019c 00       		.uleb128 .LVU8
 3203 019d 00       		.uleb128 0
 3204              	.LLST1:
 3205 019e 06       		.byte	0x6
 3206 019f 00000000 		.4byte	.LVL0
 3207 01a3 04       		.byte	0x4
 3208 01a4 00       		.uleb128 .LVL0-.LVL0
 3209 01a5 04       		.uleb128 .LVL2-.LVL0
 3210 01a6 01       		.uleb128 0x1
 3211 01a7 52       		.byte	0x52
 3212 01a8 04       		.byte	0x4
 3213 01a9 04       		.uleb128 .LVL2-.LVL0
 3214 01aa 0C       		.uleb128 .LFE346-.LVL0
 3215 01ab 04       		.uleb128 0x4
 3216 01ac A3       		.byte	0xa3
 3217 01ad 01       		.uleb128 0x1
 3218 01ae 52       		.byte	0x52
 3219 01af 9F       		.byte	0x9f
 3220 01b0 00       		.byte	0
 3221              	.LVUS2:
 3222 01b1 00       		.uleb128 0
 3223 01b2 00       		.uleb128 .LVU7
 3224 01b3 00       		.uleb128 .LVU7
 3225 01b4 00       		.uleb128 0
 3226              	.LLST2:
 3227 01b5 06       		.byte	0x6
 3228 01b6 00000000 		.4byte	.LVL0
 3229 01ba 04       		.byte	0x4
 3230 01bb 00       		.uleb128 .LVL0-.LVL0
 3231 01bc 02       		.uleb128 .LVL1-.LVL0
 3232 01bd 01       		.uleb128 0x1
 3233 01be 53       		.byte	0x53
 3234 01bf 04       		.byte	0x4
 3235 01c0 02       		.uleb128 .LVL1-.LVL0
 3236 01c1 0C       		.uleb128 .LFE346-.LVL0
 3237 01c2 04       		.uleb128 0x4
 3238 01c3 A3       		.byte	0xa3
 3239 01c4 01       		.uleb128 0x1
 3240 01c5 53       		.byte	0x53
 3241 01c6 9F       		.byte	0x9f
 3242 01c7 00       		.byte	0
 3243              	.Ldebug_loc3:
 3244              		.section	.debug_aranges,"",%progbits
ARM GAS  C:\Users\DEVELO~1\AppData\Local\Temp\cc6b0Z3y.s 			page 58


 3245 0000 74000000 		.4byte	0x74
 3246 0004 0200     		.2byte	0x2
 3247 0006 00000000 		.4byte	.Ldebug_info0
 3248 000a 04       		.byte	0x4
 3249 000b 00       		.byte	0
 3250 000c 0000     		.2byte	0
 3251 000e 0000     		.2byte	0
 3252 0010 00000000 		.4byte	.LFB346
 3253 0014 0C000000 		.4byte	.LFE346-.LFB346
 3254 0018 00000000 		.4byte	.LFB347
 3255 001c 04000000 		.4byte	.LFE347-.LFB347
 3256 0020 00000000 		.4byte	.LFB348
 3257 0024 04000000 		.4byte	.LFE348-.LFB348
 3258 0028 00000000 		.4byte	.LFB349
 3259 002c 0C000000 		.4byte	.LFE349-.LFB349
 3260 0030 00000000 		.4byte	.LFB350
 3261 0034 04000000 		.4byte	.LFE350-.LFB350
 3262 0038 00000000 		.4byte	.LFB351
 3263 003c 20000000 		.4byte	.LFE351-.LFB351
 3264 0040 00000000 		.4byte	.LFB352
 3265 0044 1A000000 		.4byte	.LFE352-.LFB352
 3266 0048 00000000 		.4byte	.LFB353
 3267 004c 04000000 		.4byte	.LFE353-.LFB353
 3268 0050 00000000 		.4byte	.LFB354
 3269 0054 10000000 		.4byte	.LFE354-.LFB354
 3270 0058 00000000 		.4byte	.LFB355
 3271 005c 10000000 		.4byte	.LFE355-.LFB355
 3272 0060 00000000 		.4byte	.LFB356
 3273 0064 04000000 		.4byte	.LFE356-.LFB356
 3274 0068 00000000 		.4byte	.LFB357
 3275 006c 0C000000 		.4byte	.LFE357-.LFB357
 3276 0070 00000000 		.4byte	0
 3277 0074 00000000 		.4byte	0
 3278              		.section	.debug_rnglists,"",%progbits
 3279              	.Ldebug_ranges0:
 3280 0000 51000000 		.4byte	.Ldebug_ranges3-.Ldebug_ranges2
 3281              	.Ldebug_ranges2:
 3282 0004 0500     		.2byte	0x5
 3283 0006 04       		.byte	0x4
 3284 0007 00       		.byte	0
 3285 0008 00000000 		.4byte	0
 3286              	.LLRL19:
 3287 000c 07       		.byte	0x7
 3288 000d 00000000 		.4byte	.LFB346
 3289 0011 0C       		.uleb128 .LFE346-.LFB346
 3290 0012 07       		.byte	0x7
 3291 0013 00000000 		.4byte	.LFB347
 3292 0017 04       		.uleb128 .LFE347-.LFB347
 3293 0018 07       		.byte	0x7
 3294 0019 00000000 		.4byte	.LFB348
 3295 001d 04       		.uleb128 .LFE348-.LFB348
 3296 001e 07       		.byte	0x7
 3297 001f 00000000 		.4byte	.LFB349
 3298 0023 0C       		.uleb128 .LFE349-.LFB349
 3299 0024 07       		.byte	0x7
 3300 0025 00000000 		.4byte	.LFB350
 3301 0029 04       		.uleb128 .LFE350-.LFB350
ARM GAS  C:\Users\DEVELO~1\AppData\Local\Temp\cc6b0Z3y.s 			page 59


 3302 002a 07       		.byte	0x7
 3303 002b 00000000 		.4byte	.LFB351
 3304 002f 20       		.uleb128 .LFE351-.LFB351
 3305 0030 07       		.byte	0x7
 3306 0031 00000000 		.4byte	.LFB352
 3307 0035 1A       		.uleb128 .LFE352-.LFB352
 3308 0036 07       		.byte	0x7
 3309 0037 00000000 		.4byte	.LFB353
 3310 003b 04       		.uleb128 .LFE353-.LFB353
 3311 003c 07       		.byte	0x7
 3312 003d 00000000 		.4byte	.LFB354
 3313 0041 10       		.uleb128 .LFE354-.LFB354
 3314 0042 07       		.byte	0x7
 3315 0043 00000000 		.4byte	.LFB355
 3316 0047 10       		.uleb128 .LFE355-.LFB355
 3317 0048 07       		.byte	0x7
 3318 0049 00000000 		.4byte	.LFB356
 3319 004d 04       		.uleb128 .LFE356-.LFB356
 3320 004e 07       		.byte	0x7
 3321 004f 00000000 		.4byte	.LFB357
 3322 0053 0C       		.uleb128 .LFE357-.LFB357
 3323 0054 00       		.byte	0
 3324              	.Ldebug_ranges3:
 3325              		.section	.debug_line,"",%progbits
 3326              	.Ldebug_line0:
 3327 0000 45040000 		.section	.debug_str,"MS",%progbits,1
 3327      03007202 
 3327      00000201 
 3327      FB0E0D00 
 3327      01010101 
 3328              	.LASF154:
 3329 0000 5F6C7365 		.ascii	"_lseek_r\000"
 3329      656B5F72 
 3329      00
 3330              	.LASF7:
 3331 0009 73686F72 		.ascii	"short int\000"
 3331      7420696E 
 3331      7400
 3332              	.LASF23:
 3333 0013 5F66706F 		.ascii	"_fpos_t\000"
 3333      735F7400 
 3334              	.LASF136:
 3335 001b 73745F63 		.ascii	"st_ctim\000"
 3335      74696D00 
 3336              	.LASF3:
 3337 0023 73697A65 		.ascii	"size_t\000"
 3337      5F7400
 3338              	.LASF87:
 3339 002a 5F72616E 		.ascii	"_rand48\000"
 3339      64343800 
 3340              	.LASF123:
 3341 0032 6D6F6465 		.ascii	"mode_t\000"
 3341      5F7400
 3342              	.LASF74:
 3343 0039 5F656D65 		.ascii	"_emergency\000"
 3343      7267656E 
 3343      637900
ARM GAS  C:\Users\DEVELO~1\AppData\Local\Temp\cc6b0Z3y.s 			page 60


 3344              	.LASF5:
 3345 0044 7369676E 		.ascii	"signed char\000"
 3345      65642063 
 3345      68617200 
 3346              	.LASF158:
 3347 0050 433A5C50 		.ascii	"C:\\PROJET\\ChibiOS project\\ChibiOS_21.11.4\\demos"
 3347      524F4A45 
 3347      545C4368 
 3347      6962694F 
 3347      53207072 
 3348 007f 5C53544D 		.ascii	"\\STM32\\RT-STM32H743ZI_REV_XY-NUCLEO144\000"
 3348      33325C52 
 3348      542D5354 
 3348      4D333248 
 3348      3734335A 
 3349              	.LASF102:
 3350 00a6 5F676574 		.ascii	"_getdate_err\000"
 3350      64617465 
 3350      5F657272 
 3350      00
 3351              	.LASF64:
 3352 00b3 5F646174 		.ascii	"_data\000"
 3352      6100
 3353              	.LASF106:
 3354 00b9 5F776372 		.ascii	"_wcrtomb_state\000"
 3354      746F6D62 
 3354      5F737461 
 3354      746500
 3355              	.LASF107:
 3356 00c8 5F776373 		.ascii	"_wcsrtombs_state\000"
 3356      72746F6D 
 3356      62735F73 
 3356      74617465 
 3356      00
 3357              	.LASF164:
 3358 00d9 5F5F6275 		.ascii	"__builtin_memset\000"
 3358      696C7469 
 3358      6E5F6D65 
 3358      6D736574 
 3358      00
 3359              	.LASF12:
 3360 00ea 6C6F6E67 		.ascii	"long long unsigned int\000"
 3360      206C6F6E 
 3360      6720756E 
 3360      7369676E 
 3360      65642069 
 3361              	.LASF138:
 3362 0101 73745F62 		.ascii	"st_blocks\000"
 3362      6C6F636B 
 3362      7300
 3363              	.LASF54:
 3364 010b 5F6C6266 		.ascii	"_lbfsize\000"
 3364      73697A65 
 3364      00
 3365              	.LASF110:
 3366 0114 5F5F6C6F 		.ascii	"__locale_t\000"
 3366      63616C65 
ARM GAS  C:\Users\DEVELO~1\AppData\Local\Temp\cc6b0Z3y.s 			page 61


 3366      5F7400
 3367              	.LASF104:
 3368 011f 5F6D6272 		.ascii	"_mbrtowc_state\000"
 3368      746F7763 
 3368      5F737461 
 3368      746500
 3369              	.LASF13:
 3370 012e 5F5F696E 		.ascii	"__int_least64_t\000"
 3370      745F6C65 
 3370      61737436 
 3370      345F7400 
 3371              	.LASF19:
 3372 013e 5F5F6769 		.ascii	"__gid_t\000"
 3372      645F7400 
 3373              	.LASF39:
 3374 0146 5F5F746D 		.ascii	"__tm_sec\000"
 3374      5F736563 
 3374      00
 3375              	.LASF125:
 3376 014f 73746174 		.ascii	"stat\000"
 3376      00
 3377              	.LASF144:
 3378 0154 5F657869 		.ascii	"_exit\000"
 3378      7400
 3379              	.LASF59:
 3380 015a 5F636C6F 		.ascii	"_close\000"
 3380      736500
 3381              	.LASF128:
 3382 0161 73745F6D 		.ascii	"st_mode\000"
 3382      6F646500 
 3383              	.LASF30:
 3384 0169 5F5F554C 		.ascii	"__ULong\000"
 3384      6F6E6700 
 3385              	.LASF127:
 3386 0171 73745F69 		.ascii	"st_ino\000"
 3386      6E6F00
 3387              	.LASF21:
 3388 0178 5F5F6D6F 		.ascii	"__mode_t\000"
 3388      64655F74 
 3388      00
 3389              	.LASF49:
 3390 0181 5F626173 		.ascii	"_base\000"
 3390      6500
 3391              	.LASF41:
 3392 0187 5F5F746D 		.ascii	"__tm_hour\000"
 3392      5F686F75 
 3392      7200
 3393              	.LASF24:
 3394 0191 5F5F7763 		.ascii	"__wch\000"
 3394      6800
 3395              	.LASF55:
 3396 0197 5F636F6F 		.ascii	"_cookie\000"
 3396      6B696500 
 3397              	.LASF14:
 3398 019f 5F5F626C 		.ascii	"__blkcnt_t\000"
 3398      6B636E74 
 3398      5F7400
ARM GAS  C:\Users\DEVELO~1\AppData\Local\Temp\cc6b0Z3y.s 			page 62


 3399              	.LASF9:
 3400 01aa 6C6F6E67 		.ascii	"long int\000"
 3400      20696E74 
 3400      00
 3401              	.LASF52:
 3402 01b3 5F666C61 		.ascii	"_flags\000"
 3402      677300
 3403              	.LASF36:
 3404 01ba 5F776473 		.ascii	"_wds\000"
 3404      00
 3405              	.LASF60:
 3406 01bf 5F756275 		.ascii	"_ubuf\000"
 3406      6600
 3407              	.LASF78:
 3408 01c5 5F726573 		.ascii	"_result_k\000"
 3408      756C745F 
 3408      6B00
 3409              	.LASF1:
 3410 01cf 6C6F6E67 		.ascii	"long long int\000"
 3410      206C6F6E 
 3410      6720696E 
 3410      7400
 3411              	.LASF162:
 3412 01dd 5F676574 		.ascii	"_getpid\000"
 3412      70696400 
 3413              	.LASF134:
 3414 01e5 73745F61 		.ascii	"st_atim\000"
 3414      74696D00 
 3415              	.LASF82:
 3416 01ed 5F637674 		.ascii	"_cvtbuf\000"
 3416      62756600 
 3417              	.LASF105:
 3418 01f5 5F6D6273 		.ascii	"_mbsrtowcs_state\000"
 3418      72746F77 
 3418      63735F73 
 3418      74617465 
 3418      00
 3419              	.LASF103:
 3420 0206 5F6D6272 		.ascii	"_mbrlen_state\000"
 3420      6C656E5F 
 3420      73746174 
 3420      6500
 3421              	.LASF124:
 3422 0214 6E6C696E 		.ascii	"nlink_t\000"
 3422      6B5F7400 
 3423              	.LASF119:
 3424 021c 6F66665F 		.ascii	"off_t\000"
 3424      7400
 3425              	.LASF122:
 3426 0222 6769645F 		.ascii	"gid_t\000"
 3426      7400
 3427              	.LASF150:
 3428 0228 696E6372 		.ascii	"incr\000"
 3428      00
 3429              	.LASF35:
 3430 022d 5F736967 		.ascii	"_sign\000"
 3430      6E00
ARM GAS  C:\Users\DEVELO~1\AppData\Local\Temp\cc6b0Z3y.s 			page 63


 3431              	.LASF32:
 3432 0233 5F666C6F 		.ascii	"_flock_t\000"
 3432      636B5F74 
 3432      00
 3433              	.LASF72:
 3434 023c 5F737464 		.ascii	"_stderr\000"
 3434      65727200 
 3435              	.LASF37:
 3436 0244 5F426967 		.ascii	"_Bigint\000"
 3436      696E7400 
 3437              	.LASF94:
 3438 024c 5F67616D 		.ascii	"_gamma_signgam\000"
 3438      6D615F73 
 3438      69676E67 
 3438      616D00
 3439              	.LASF120:
 3440 025b 6465765F 		.ascii	"dev_t\000"
 3440      7400
 3441              	.LASF17:
 3442 0261 5F5F6465 		.ascii	"__dev_t\000"
 3442      765F7400 
 3443              	.LASF62:
 3444 0269 5F626C6B 		.ascii	"_blksize\000"
 3444      73697A65 
 3444      00
 3445              	.LASF130:
 3446 0272 73745F75 		.ascii	"st_uid\000"
 3446      696400
 3447              	.LASF38:
 3448 0279 5F5F746D 		.ascii	"__tm\000"
 3448      00
 3449              	.LASF66:
 3450 027e 5F6D6273 		.ascii	"_mbstate\000"
 3450      74617465 
 3450      00
 3451              	.LASF25:
 3452 0287 5F5F7763 		.ascii	"__wchb\000"
 3452      686200
 3453              	.LASF115:
 3454 028e 626C6B63 		.ascii	"blkcnt_t\000"
 3454      6E745F74 
 3454      00
 3455              	.LASF81:
 3456 0297 5F637674 		.ascii	"_cvtlen\000"
 3456      6C656E00 
 3457              	.LASF11:
 3458 029f 6C6F6E67 		.ascii	"long unsigned int\000"
 3458      20756E73 
 3458      69676E65 
 3458      6420696E 
 3458      7400
 3459              	.LASF53:
 3460 02b1 5F66696C 		.ascii	"_file\000"
 3460      6500
 3461              	.LASF67:
 3462 02b7 5F666C61 		.ascii	"_flags2\000"
 3462      67733200 
ARM GAS  C:\Users\DEVELO~1\AppData\Local\Temp\cc6b0Z3y.s 			page 64


 3463              	.LASF156:
 3464 02bf 474E5520 		.ascii	"GNU C17 11.3.1 20220712 -mcpu=cortex-m7 -mthumb -mf"
 3464      43313720 
 3464      31312E33 
 3464      2E312032 
 3464      30323230 
 3465 02f2 6C6F6174 		.ascii	"loat-abi=soft -march=armv7e-m -ggdb -O2 -fomit-fram"
 3465      2D616269 
 3465      3D736F66 
 3465      74202D6D 
 3465      61726368 
 3466 0325 652D706F 		.ascii	"e-pointer -falign-functions=16 -ffunction-sections "
 3466      696E7465 
 3466      72202D66 
 3466      616C6967 
 3466      6E2D6675 
 3467 0358 2D666461 		.ascii	"-fdata-sections -fno-common\000"
 3467      74612D73 
 3467      65637469 
 3467      6F6E7320 
 3467      2D666E6F 
 3468              	.LASF121:
 3469 0374 7569645F 		.ascii	"uid_t\000"
 3469      7400
 3470              	.LASF155:
 3471 037a 5F726561 		.ascii	"_read_r\000"
 3471      645F7200 
 3472              	.LASF8:
 3473 0382 73686F72 		.ascii	"short unsigned int\000"
 3473      7420756E 
 3473      7369676E 
 3473      65642069 
 3473      6E7400
 3474              	.LASF142:
 3475 0395 6368436F 		.ascii	"chCoreAllocFromBase\000"
 3475      7265416C 
 3475      6C6F6346 
 3475      726F6D42 
 3475      61736500 
 3476              	.LASF101:
 3477 03a9 5F736967 		.ascii	"_signal_buf\000"
 3477      6E616C5F 
 3477      62756600 
 3478              	.LASF92:
 3479 03b5 5F617363 		.ascii	"_asctime_buf\000"
 3479      74696D65 
 3479      5F627566 
 3479      00
 3480              	.LASF77:
 3481 03c2 5F726573 		.ascii	"_result\000"
 3481      756C7400 
 3482              	.LASF29:
 3483 03ca 5F5F6E6C 		.ascii	"__nlink_t\000"
 3483      696E6B5F 
 3483      7400
 3484              	.LASF31:
 3485 03d4 5F4C4F43 		.ascii	"_LOCK_T\000"
ARM GAS  C:\Users\DEVELO~1\AppData\Local\Temp\cc6b0Z3y.s 			page 65


 3485      4B5F5400 
 3486              	.LASF4:
 3487 03dc 77696E74 		.ascii	"wint_t\000"
 3487      5F7400
 3488              	.LASF65:
 3489 03e3 5F6C6F63 		.ascii	"_lock\000"
 3489      6B00
 3490              	.LASF151:
 3491 03e9 5F636C6F 		.ascii	"_close_r\000"
 3491      73655F72 
 3491      00
 3492              	.LASF89:
 3493 03f2 5F6D756C 		.ascii	"_mult\000"
 3493      7400
 3494              	.LASF133:
 3495 03f8 73745F73 		.ascii	"st_size\000"
 3495      697A6500 
 3496              	.LASF57:
 3497 0400 5F777269 		.ascii	"_write\000"
 3497      746500
 3498              	.LASF44:
 3499 0407 5F5F746D 		.ascii	"__tm_year\000"
 3499      5F796561 
 3499      7200
 3500              	.LASF153:
 3501 0411 5F777269 		.ascii	"_write_r\000"
 3501      74655F72 
 3501      00
 3502              	.LASF114:
 3503 041a 74765F6E 		.ascii	"tv_nsec\000"
 3503      73656300 
 3504              	.LASF63:
 3505 0422 5F6F6666 		.ascii	"_offset\000"
 3505      73657400 
 3506              	.LASF113:
 3507 042a 74765F73 		.ascii	"tv_sec\000"
 3507      656300
 3508              	.LASF157:
 3509 0431 2E2E2F2E 		.ascii	"../../../os/various/syscalls.c\000"
 3509      2E2F2E2E 
 3509      2F6F732F 
 3509      76617269 
 3509      6F75732F 
 3510              	.LASF43:
 3511 0450 5F5F746D 		.ascii	"__tm_mon\000"
 3511      5F6D6F6E 
 3511      00
 3512              	.LASF15:
 3513 0459 5F5F626C 		.ascii	"__blksize_t\000"
 3513      6B73697A 
 3513      655F7400 
 3514              	.LASF16:
 3515 0465 5F6F6666 		.ascii	"_off_t\000"
 3515      5F7400
 3516              	.LASF22:
 3517 046c 5F5F6F66 		.ascii	"__off_t\000"
 3517      665F7400 
ARM GAS  C:\Users\DEVELO~1\AppData\Local\Temp\cc6b0Z3y.s 			page 66


 3518              	.LASF111:
 3519 0474 74696D65 		.ascii	"time_t\000"
 3519      5F7400
 3520              	.LASF80:
 3521 047b 5F667265 		.ascii	"_freelist\000"
 3521      656C6973 
 3521      7400
 3522              	.LASF99:
 3523 0485 5F776374 		.ascii	"_wctomb_state\000"
 3523      6F6D625F 
 3523      73746174 
 3523      6500
 3524              	.LASF56:
 3525 0493 5F726561 		.ascii	"_read\000"
 3525      6400
 3526              	.LASF129:
 3527 0499 73745F6E 		.ascii	"st_nlink\000"
 3527      6C696E6B 
 3527      00
 3528              	.LASF140:
 3529 04a2 5F426F6F 		.ascii	"_Bool\000"
 3529      6C00
 3530              	.LASF6:
 3531 04a8 756E7369 		.ascii	"unsigned char\000"
 3531      676E6564 
 3531      20636861 
 3531      7200
 3532              	.LASF83:
 3533 04b6 5F6E6577 		.ascii	"_new\000"
 3533      00
 3534              	.LASF108:
 3535 04bb 5F685F65 		.ascii	"_h_errno\000"
 3535      72726E6F 
 3535      00
 3536              	.LASF46:
 3537 04c4 5F5F746D 		.ascii	"__tm_yday\000"
 3537      5F796461 
 3537      7900
 3538              	.LASF148:
 3539 04ce 66696C65 		.ascii	"file\000"
 3539      00
 3540              	.LASF137:
 3541 04d3 73745F62 		.ascii	"st_blksize\000"
 3541      6C6B7369 
 3541      7A6500
 3542              	.LASF86:
 3543 04de 5F5F4649 		.ascii	"__FILE\000"
 3543      4C4500
 3544              	.LASF28:
 3545 04e5 5F6D6273 		.ascii	"_mbstate_t\000"
 3545      74617465 
 3545      5F7400
 3546              	.LASF51:
 3547 04f0 5F5F7346 		.ascii	"__sFILE\000"
 3547      494C4500 
 3548              	.LASF112:
 3549 04f8 74696D65 		.ascii	"timespec\000"
ARM GAS  C:\Users\DEVELO~1\AppData\Local\Temp\cc6b0Z3y.s 			page 67


 3549      73706563 
 3549      00
 3550              	.LASF163:
 3551 0501 5F5F6675 		.ascii	"__func__\000"
 3551      6E635F5F 
 3551      00
 3552              	.LASF97:
 3553 050a 5F6D626C 		.ascii	"_mblen_state\000"
 3553      656E5F73 
 3553      74617465 
 3553      00
 3554              	.LASF73:
 3555 0517 5F696E63 		.ascii	"_inc\000"
 3555      00
 3556              	.LASF75:
 3557 051c 5F6C6F63 		.ascii	"_locale\000"
 3557      616C6500 
 3558              	.LASF76:
 3559 0524 5F5F636C 		.ascii	"__cleanup\000"
 3559      65616E75 
 3559      7000
 3560              	.LASF34:
 3561 052e 5F6D6178 		.ascii	"_maxwds\000"
 3561      77647300 
 3562              	.LASF68:
 3563 0536 5F726565 		.ascii	"_reent\000"
 3563      6E7400
 3564              	.LASF20:
 3565 053d 5F5F696E 		.ascii	"__ino_t\000"
 3565      6F5F7400 
 3566              	.LASF88:
 3567 0545 5F736565 		.ascii	"_seed\000"
 3567      6400
 3568              	.LASF26:
 3569 054b 5F5F636F 		.ascii	"__count\000"
 3569      756E7400 
 3570              	.LASF109:
 3571 0553 5F5F6C6F 		.ascii	"__lock\000"
 3571      636B00
 3572              	.LASF27:
 3573 055a 5F5F7661 		.ascii	"__value\000"
 3573      6C756500 
 3574              	.LASF58:
 3575 0562 5F736565 		.ascii	"_seek\000"
 3575      6B00
 3576              	.LASF146:
 3577 0568 5F697361 		.ascii	"_isatty_r\000"
 3577      7474795F 
 3577      7200
 3578              	.LASF117:
 3579 0572 63616464 		.ascii	"caddr_t\000"
 3579      725F7400 
 3580              	.LASF132:
 3581 057a 73745F72 		.ascii	"st_rdev\000"
 3581      64657600 
 3582              	.LASF161:
 3583 0582 5F5F6378 		.ascii	"__cxa_pure_virtual\000"
ARM GAS  C:\Users\DEVELO~1\AppData\Local\Temp\cc6b0Z3y.s 			page 68


 3583      615F7075 
 3583      72655F76 
 3583      69727475 
 3583      616C00
 3584              	.LASF152:
 3585 0595 5F6F7065 		.ascii	"_open_r\000"
 3585      6E5F7200 
 3586              	.LASF2:
 3587 059d 6C6F6E67 		.ascii	"long double\000"
 3587      20646F75 
 3587      626C6500 
 3588              	.LASF69:
 3589 05a9 5F657272 		.ascii	"_errno\000"
 3589      6E6F00
 3590              	.LASF85:
 3591 05b0 63686172 		.ascii	"char\000"
 3591      00
 3592              	.LASF139:
 3593 05b5 73745F73 		.ascii	"st_spare4\000"
 3593      70617265 
 3593      3400
 3594              	.LASF50:
 3595 05bf 5F73697A 		.ascii	"_size\000"
 3595      6500
 3596              	.LASF0:
 3597 05c5 756E7369 		.ascii	"unsigned int\000"
 3597      676E6564 
 3597      20696E74 
 3597      00
 3598              	.LASF159:
 3599 05d2 61626F72 		.ascii	"abort\000"
 3599      7400
 3600              	.LASF10:
 3601 05d8 5F5F7569 		.ascii	"__uint32_t\000"
 3601      6E743332 
 3601      5F7400
 3602              	.LASF18:
 3603 05e3 5F5F7569 		.ascii	"__uid_t\000"
 3603      645F7400 
 3604              	.LASF33:
 3605 05eb 5F6E6578 		.ascii	"_next\000"
 3605      7400
 3606              	.LASF91:
 3607 05f1 5F737472 		.ascii	"_strtok_last\000"
 3607      746F6B5F 
 3607      6C617374 
 3607      00
 3608              	.LASF143:
 3609 05fe 5F6B696C 		.ascii	"_kill\000"
 3609      6C00
 3610              	.LASF90:
 3611 0604 5F616464 		.ascii	"_add\000"
 3611      00
 3612              	.LASF131:
 3613 0609 73745F67 		.ascii	"st_gid\000"
 3613      696400
 3614              	.LASF149:
ARM GAS  C:\Users\DEVELO~1\AppData\Local\Temp\cc6b0Z3y.s 			page 69


 3615 0610 5F736272 		.ascii	"_sbrk_r\000"
 3615      6B5F7200 
 3616              	.LASF147:
 3617 0618 5F667374 		.ascii	"_fstat_r\000"
 3617      61745F72 
 3617      00
 3618              	.LASF141:
 3619 0621 6D656D73 		.ascii	"memset\000"
 3619      657400
 3620              	.LASF160:
 3621 0628 63685379 		.ascii	"chSysHalt\000"
 3621      7348616C 
 3621      7400
 3622              	.LASF145:
 3623 0632 73746174 		.ascii	"status\000"
 3623      757300
 3624              	.LASF71:
 3625 0639 5F737464 		.ascii	"_stdout\000"
 3625      6F757400 
 3626              	.LASF45:
 3627 0641 5F5F746D 		.ascii	"__tm_wday\000"
 3627      5F776461 
 3627      7900
 3628              	.LASF126:
 3629 064b 73745F64 		.ascii	"st_dev\000"
 3629      657600
 3630              	.LASF70:
 3631 0652 5F737464 		.ascii	"_stdin\000"
 3631      696E00
 3632              	.LASF100:
 3633 0659 5F6C3634 		.ascii	"_l64a_buf\000"
 3633      615F6275 
 3633      6600
 3634              	.LASF84:
 3635 0663 5F736967 		.ascii	"_sig_func\000"
 3635      5F66756E 
 3635      6300
 3636              	.LASF116:
 3637 066d 626C6B73 		.ascii	"blksize_t\000"
 3637      697A655F 
 3637      7400
 3638              	.LASF135:
 3639 0677 73745F6D 		.ascii	"st_mtim\000"
 3639      74696D00 
 3640              	.LASF61:
 3641 067f 5F6E6275 		.ascii	"_nbuf\000"
 3641      6600
 3642              	.LASF47:
 3643 0685 5F5F746D 		.ascii	"__tm_isdst\000"
 3643      5F697364 
 3643      737400
 3644              	.LASF93:
 3645 0690 5F6C6F63 		.ascii	"_localtime_buf\000"
 3645      616C7469 
 3645      6D655F62 
 3645      756600
 3646              	.LASF40:
ARM GAS  C:\Users\DEVELO~1\AppData\Local\Temp\cc6b0Z3y.s 			page 70


 3647 069f 5F5F746D 		.ascii	"__tm_min\000"
 3647      5F6D696E 
 3647      00
 3648              	.LASF96:
 3649 06a8 5F723438 		.ascii	"_r48\000"
 3649      00
 3650              	.LASF98:
 3651 06ad 5F6D6274 		.ascii	"_mbtowc_state\000"
 3651      6F77635F 
 3651      73746174 
 3651      6500
 3652              	.LASF79:
 3653 06bb 5F703573 		.ascii	"_p5s\000"
 3653      00
 3654              	.LASF48:
 3655 06c0 5F5F7362 		.ascii	"__sbuf\000"
 3655      756600
 3656              	.LASF42:
 3657 06c7 5F5F746D 		.ascii	"__tm_mday\000"
 3657      5F6D6461 
 3657      7900
 3658              	.LASF95:
 3659 06d1 5F72616E 		.ascii	"_rand_next\000"
 3659      645F6E65 
 3659      787400
 3660              	.LASF118:
 3661 06dc 696E6F5F 		.ascii	"ino_t\000"
 3661      7400
 3662              		.ident	"GCC: (Arm GNU Toolchain 11.3.Rel1) 11.3.1 20220712"
ARM GAS  C:\Users\DEVELO~1\AppData\Local\Temp\cc6b0Z3y.s 			page 71


DEFINED SYMBOLS
                            *ABS*:00000000 syscalls.c
C:\Users\DEVELO~1\AppData\Local\Temp\cc6b0Z3y.s:18     .text._read_r:00000000 $t
C:\Users\DEVELO~1\AppData\Local\Temp\cc6b0Z3y.s:25     .text._read_r:00000000 _read_r
C:\Users\DEVELO~1\AppData\Local\Temp\cc6b0Z3y.s:57     .text._lseek_r:00000000 $t
C:\Users\DEVELO~1\AppData\Local\Temp\cc6b0Z3y.s:64     .text._lseek_r:00000000 _lseek_r
C:\Users\DEVELO~1\AppData\Local\Temp\cc6b0Z3y.s:86     .text._write_r:00000000 $t
C:\Users\DEVELO~1\AppData\Local\Temp\cc6b0Z3y.s:93     .text._write_r:00000000 _write_r
C:\Users\DEVELO~1\AppData\Local\Temp\cc6b0Z3y.s:114    .text._open_r:00000000 $t
C:\Users\DEVELO~1\AppData\Local\Temp\cc6b0Z3y.s:121    .text._open_r:00000000 _open_r
C:\Users\DEVELO~1\AppData\Local\Temp\cc6b0Z3y.s:152    .text._close_r:00000000 $t
C:\Users\DEVELO~1\AppData\Local\Temp\cc6b0Z3y.s:159    .text._close_r:00000000 _close_r
C:\Users\DEVELO~1\AppData\Local\Temp\cc6b0Z3y.s:179    .text._sbrk_r:00000000 $t
C:\Users\DEVELO~1\AppData\Local\Temp\cc6b0Z3y.s:186    .text._sbrk_r:00000000 _sbrk_r
C:\Users\DEVELO~1\AppData\Local\Temp\cc6b0Z3y.s:242    .text._fstat_r:00000000 $t
C:\Users\DEVELO~1\AppData\Local\Temp\cc6b0Z3y.s:249    .text._fstat_r:00000000 _fstat_r
C:\Users\DEVELO~1\AppData\Local\Temp\cc6b0Z3y.s:294    .text._isatty_r:00000000 $t
C:\Users\DEVELO~1\AppData\Local\Temp\cc6b0Z3y.s:301    .text._isatty_r:00000000 _isatty_r
C:\Users\DEVELO~1\AppData\Local\Temp\cc6b0Z3y.s:321    .rodata._exit.str1.4:00000000 $d
C:\Users\DEVELO~1\AppData\Local\Temp\cc6b0Z3y.s:325    .text._exit:00000000 $t
C:\Users\DEVELO~1\AppData\Local\Temp\cc6b0Z3y.s:332    .text._exit:00000000 _exit
C:\Users\DEVELO~1\AppData\Local\Temp\cc6b0Z3y.s:358    .text._exit:0000000c $d
C:\Users\DEVELO~1\AppData\Local\Temp\cc6b0Z3y.s:363    .rodata._kill.str1.4:00000000 $d
C:\Users\DEVELO~1\AppData\Local\Temp\cc6b0Z3y.s:367    .text._kill:00000000 $t
C:\Users\DEVELO~1\AppData\Local\Temp\cc6b0Z3y.s:374    .text._kill:00000000 _kill
C:\Users\DEVELO~1\AppData\Local\Temp\cc6b0Z3y.s:401    .text._kill:0000000c $d
C:\Users\DEVELO~1\AppData\Local\Temp\cc6b0Z3y.s:406    .text._getpid:00000000 $t
C:\Users\DEVELO~1\AppData\Local\Temp\cc6b0Z3y.s:413    .text._getpid:00000000 _getpid
C:\Users\DEVELO~1\AppData\Local\Temp\cc6b0Z3y.s:428    .rodata.__cxa_pure_virtual.str1.4:00000000 $d
C:\Users\DEVELO~1\AppData\Local\Temp\cc6b0Z3y.s:432    .text.__cxa_pure_virtual:00000000 $t
C:\Users\DEVELO~1\AppData\Local\Temp\cc6b0Z3y.s:439    .text.__cxa_pure_virtual:00000000 __cxa_pure_virtual
C:\Users\DEVELO~1\AppData\Local\Temp\cc6b0Z3y.s:453    .text.__cxa_pure_virtual:00000008 $d

UNDEFINED SYMBOLS
chCoreAllocFromBase
memset
chSysHalt
abort
