ARM GAS  C:\Users\DEVELO~1\AppData\Local\Temp\cc6b0Z3y.s 			page 1


   1              		.cpu cortex-m7
   2              		.arch armv7e-m
   3              		.fpu softvfp
   4              		.eabi_attribute 20, 1
   5              		.eabi_attribute 21, 1
   6              		.eabi_attribute 23, 3
   7              		.eabi_attribute 24, 1
   8              		.eabi_attribute 25, 1
   9              		.eabi_attribute 26, 1
  10              		.eabi_attribute 30, 2
  11              		.eabi_attribute 34, 1
  12              		.eabi_attribute 18, 4
  13              		.file	"syscalls.c"
  14              		.text
  15              	.Ltext0:
  16              		.cfi_sections	.debug_frame
  17              		.section	.text._read_r,"ax",%progbits
  18              		.align	1
  19              		.p2align 4,,15
  20              		.global	_read_r
  21              		.syntax unified
  22              		.thumb
  23              		.thumb_func
  24              		.type	_read_r, %function
  25              	_read_r:
  26              	.LVL0:
  27              	.LFB346:
  28              		.file 1 "../../../os/various/syscalls.c"
  29              		.loc 1 71 62 view -0
  30              		.cfi_startproc
  31              		@ args = 0, pretend = 0, frame = 0
  32              		@ frame_needed = 0, uses_anonymous_args = 0
  33              		@ link register save eliminated.
  34              		.loc 1 72 3 view .LVU1
  35              		.loc 1 81 3 view .LVU2
  36              		.loc 1 82 3 view .LVU3
  37              		.loc 1 83 3 view .LVU4
  38              		.loc 1 84 3 view .LVU5
  39              		.loc 1 71 62 is_stmt 0 view .LVU6
  40 0000 0346     		mov	r3, r0
  41              	.LVL1:
  42              		.loc 1 84 17 view .LVU7
  43 0002 1622     		movs	r2, #22
  44              	.LVL2:
  45              		.loc 1 87 1 view .LVU8
  46 0004 4FF0FF30 		mov	r0, #-1
  47              	.LVL3:
  48              		.loc 1 84 17 view .LVU9
  49 0008 1A60     		str	r2, [r3]
  50              		.loc 1 85 3 is_stmt 1 view .LVU10
  51              		.loc 1 87 1 is_stmt 0 view .LVU11
  52 000a 7047     		bx	lr
  53              		.cfi_endproc
  54              	.LFE346:
  55              		.size	_read_r, .-_read_r
  56              		.section	.text._lseek_r,"ax",%progbits
  57              		.align	1
ARM GAS  C:\Users\DEVELO~1\AppData\Local\Temp\cc6b0Z3y.s 			page 2


  58              		.p2align 4,,15
  59              		.global	_lseek_r
  60              		.syntax unified
  61              		.thumb
  62              		.thumb_func
  63              		.type	_lseek_r, %function
  64              	_lseek_r:
  65              	.LVL4:
  66              	.LFB347:
  67              		.loc 1 92 60 is_stmt 1 view -0
  68              		.cfi_startproc
  69              		@ args = 0, pretend = 0, frame = 0
  70              		@ frame_needed = 0, uses_anonymous_args = 0
  71              		@ link register save eliminated.
  72              		.loc 1 93 3 view .LVU13
  73              		.loc 1 94 3 view .LVU14
  74              		.loc 1 95 3 view .LVU15
  75              		.loc 1 96 3 view .LVU16
  76              		.loc 1 98 3 view .LVU17
  77              		.loc 1 99 1 is_stmt 0 view .LVU18
  78 0000 0020     		movs	r0, #0
  79              	.LVL5:
  80              		.loc 1 99 1 view .LVU19
  81 0002 7047     		bx	lr
  82              		.cfi_endproc
  83              	.LFE347:
  84              		.size	_lseek_r, .-_lseek_r
  85              		.section	.text._write_r,"ax",%progbits
  86              		.align	1
  87              		.p2align 4,,15
  88              		.global	_write_r
  89              		.syntax unified
  90              		.thumb
  91              		.thumb_func
  92              		.type	_write_r, %function
  93              	_write_r:
  94              	.LVL6:
  95              	.LFB348:
  96              		.loc 1 104 63 is_stmt 1 view -0
  97              		.cfi_startproc
  98              		@ args = 0, pretend = 0, frame = 0
  99              		@ frame_needed = 0, uses_anonymous_args = 0
 100              		@ link register save eliminated.
 101              		.loc 1 105 3 view .LVU21
 102              		.loc 1 106 3 view .LVU22
 103              		.loc 1 107 3 view .LVU23
 104              		.loc 1 115 3 view .LVU24
 105              		.loc 1 116 1 is_stmt 0 view .LVU25
 106 0000 1846     		mov	r0, r3
 107              	.LVL7:
 108              		.loc 1 116 1 view .LVU26
 109 0002 7047     		bx	lr
 110              		.cfi_endproc
 111              	.LFE348:
 112              		.size	_write_r, .-_write_r
 113              		.section	.text._open_r,"ax",%progbits
 114              		.align	1
ARM GAS  C:\Users\DEVELO~1\AppData\Local\Temp\cc6b0Z3y.s 			page 3


 115              		.p2align 4,,15
 116              		.global	_open_r
 117              		.syntax unified
 118              		.thumb
 119              		.thumb_func
 120              		.type	_open_r, %function
 121              	_open_r:
 122              	.LVL8:
 123              	.LFB349:
 124              		.loc 1 121 60 is_stmt 1 view -0
 125              		.cfi_startproc
 126              		@ args = 0, pretend = 0, frame = 0
 127              		@ frame_needed = 0, uses_anonymous_args = 0
 128              		@ link register save eliminated.
 129              		.loc 1 123 3 view .LVU28
 130              		.loc 1 124 3 view .LVU29
 131              		.loc 1 125 3 view .LVU30
 132              		.loc 1 126 3 view .LVU31
 133              		.loc 1 127 3 view .LVU32
 134              		.loc 1 121 60 is_stmt 0 view .LVU33
 135 0000 0346     		mov	r3, r0
 136              	.LVL9:
 137              		.loc 1 127 16 view .LVU34
 138 0002 1622     		movs	r2, #22
 139              	.LVL10:
 140              		.loc 1 129 1 view .LVU35
 141 0004 4FF0FF30 		mov	r0, #-1
 142              	.LVL11:
 143              		.loc 1 127 16 view .LVU36
 144 0008 1A60     		str	r2, [r3]
 145              		.loc 1 128 3 is_stmt 1 view .LVU37
 146              		.loc 1 129 1 is_stmt 0 view .LVU38
 147 000a 7047     		bx	lr
 148              		.cfi_endproc
 149              	.LFE349:
 150              		.size	_open_r, .-_open_r
 151              		.section	.text._close_r,"ax",%progbits
 152              		.align	1
 153              		.p2align 4,,15
 154              		.global	_close_r
 155              		.syntax unified
 156              		.thumb
 157              		.thumb_func
 158              		.type	_close_r, %function
 159              	_close_r:
 160              	.LVL12:
 161              	.LFB350:
 162              		.loc 1 134 42 is_stmt 1 view -0
 163              		.cfi_startproc
 164              		@ args = 0, pretend = 0, frame = 0
 165              		@ frame_needed = 0, uses_anonymous_args = 0
 166              		@ link register save eliminated.
 167              		.loc 1 135 3 view .LVU40
 168              		.loc 1 136 3 view .LVU41
 169              		.loc 1 138 3 view .LVU42
 170              		.loc 1 139 1 is_stmt 0 view .LVU43
 171 0000 0020     		movs	r0, #0
ARM GAS  C:\Users\DEVELO~1\AppData\Local\Temp\cc6b0Z3y.s 			page 4


 172              	.LVL13:
 173              		.loc 1 139 1 view .LVU44
 174 0002 7047     		bx	lr
 175              		.cfi_endproc
 176              	.LFE350:
 177              		.size	_close_r, .-_close_r
 178              		.section	.text._sbrk_r,"ax",%progbits
 179              		.align	1
 180              		.p2align 4,,15
 181              		.global	_sbrk_r
 182              		.syntax unified
 183              		.thumb
 184              		.thumb_func
 185              		.type	_sbrk_r, %function
 186              	_sbrk_r:
 187              	.LVL14:
 188              	.LFB351:
 189              		.loc 1 144 45 is_stmt 1 view -0
 190              		.cfi_startproc
 191              		@ args = 0, pretend = 0, frame = 0
 192              		@ frame_needed = 0, uses_anonymous_args = 0
 193              		.loc 1 146 3 view .LVU46
 194              		.loc 1 148 3 view .LVU47
 195              		.loc 1 148 3 view .LVU48
 196              		.loc 1 148 3 view .LVU49
 197              		.loc 1 150 3 view .LVU50
 198              		.loc 1 144 45 is_stmt 0 view .LVU51
 199 0000 10B5     		push	{r4, lr}
 200              		.cfi_def_cfa_offset 8
 201              		.cfi_offset 4, -8
 202              		.cfi_offset 14, -4
 203              		.loc 1 144 45 view .LVU52
 204 0002 0C46     		mov	r4, r1
 205 0004 0346     		mov	r3, r0
 206              		.loc 1 150 7 view .LVU53
 207 0006 0022     		movs	r2, #0
 208 0008 0121     		movs	r1, #1
 209              	.LVL15:
 210              		.loc 1 150 7 view .LVU54
 211 000a 2046     		mov	r0, r4
 212              	.LVL16:
 213              		.loc 1 144 45 view .LVU55
 214 000c 1C46     		mov	r4, r3
 215              	.LVL17:
 216              		.loc 1 150 7 view .LVU56
 217 000e FFF7FEFF 		bl	chCoreAllocFromBase
 218              	.LVL18:
 219              		.loc 1 151 3 is_stmt 1 view .LVU57
 220              		.loc 1 151 6 is_stmt 0 view .LVU58
 221 0012 00B1     		cbz	r0, .L10
 222              		.loc 1 161 1 view .LVU59
 223 0014 10BD     		pop	{r4, pc}
 224              	.LVL19:
 225              	.L10:
 226              		.loc 1 152 5 is_stmt 1 view .LVU60
 227              		.loc 1 152 19 is_stmt 0 view .LVU61
 228 0016 0C23     		movs	r3, #12
ARM GAS  C:\Users\DEVELO~1\AppData\Local\Temp\cc6b0Z3y.s 			page 5


 229              		.loc 1 153 12 view .LVU62
 230 0018 4FF0FF30 		mov	r0, #-1
 231              	.LVL20:
 232              		.loc 1 152 19 view .LVU63
 233 001c 2360     		str	r3, [r4]
 234              		.loc 1 153 5 is_stmt 1 view .LVU64
 235              		.loc 1 161 1 is_stmt 0 view .LVU65
 236 001e 10BD     		pop	{r4, pc}
 237              		.loc 1 161 1 view .LVU66
 238              		.cfi_endproc
 239              	.LFE351:
 240              		.size	_sbrk_r, .-_sbrk_r
 241              		.section	.text._fstat_r,"ax",%progbits
 242              		.align	1
 243              		.p2align 4,,15
 244              		.global	_fstat_r
 245              		.syntax unified
 246              		.thumb
 247              		.thumb_func
 248              		.type	_fstat_r, %function
 249              	_fstat_r:
 250              	.LVL21:
 251              	.LFB352:
 252              		.loc 1 166 60 is_stmt 1 view -0
 253              		.cfi_startproc
 254              		@ args = 0, pretend = 0, frame = 0
 255              		@ frame_needed = 0, uses_anonymous_args = 0
 256              		.loc 1 167 3 view .LVU68
 257              		.loc 1 168 3 view .LVU69
 258              		.loc 1 170 3 view .LVU70
 259              		.loc 1 166 60 is_stmt 0 view .LVU71
 260 0000 08B5     		push	{r3, lr}
 261              		.cfi_def_cfa_offset 8
 262              		.cfi_offset 3, -8
 263              		.cfi_offset 14, -4
 264              		.loc 1 166 60 view .LVU72
 265 0002 1346     		mov	r3, r2
 266              		.loc 1 170 3 view .LVU73
 267 0004 0021     		movs	r1, #0
 268              	.LVL22:
 269              		.loc 1 170 3 view .LVU74
 270 0006 5822     		movs	r2, #88
 271              	.LVL23:
 272              		.loc 1 170 3 view .LVU75
 273 0008 1846     		mov	r0, r3
 274              	.LVL24:
 275              		.loc 1 170 3 view .LVU76
 276 000a FFF7FEFF 		bl	memset
 277              	.LVL25:
 278              		.loc 1 171 15 view .LVU77
 279 000e 4FF40052 		mov	r2, #8192
 280              		.loc 1 170 3 view .LVU78
 281 0012 0346     		mov	r3, r0
 282              		.loc 1 171 3 is_stmt 1 view .LVU79
 283              		.loc 1 173 1 is_stmt 0 view .LVU80
 284 0014 0020     		movs	r0, #0
 285              		.loc 1 171 15 view .LVU81
ARM GAS  C:\Users\DEVELO~1\AppData\Local\Temp\cc6b0Z3y.s 			page 6


 286 0016 5A60     		str	r2, [r3, #4]
 287              		.loc 1 172 3 is_stmt 1 view .LVU82
 288              		.loc 1 173 1 is_stmt 0 view .LVU83
 289 0018 08BD     		pop	{r3, pc}
 290              		.cfi_endproc
 291              	.LFE352:
 292              		.size	_fstat_r, .-_fstat_r
 293 001a 00BF     		.section	.text._isatty_r,"ax",%progbits
 294              		.align	1
 295              		.p2align 4,,15
 296              		.global	_isatty_r
 297              		.syntax unified
 298              		.thumb
 299              		.thumb_func
 300              		.type	_isatty_r, %function
 301              	_isatty_r:
 302              	.LVL26:
 303              	.LFB353:
 304              		.loc 1 178 41 is_stmt 1 view -0
 305              		.cfi_startproc
 306              		@ args = 0, pretend = 0, frame = 0
 307              		@ frame_needed = 0, uses_anonymous_args = 0
 308              		@ link register save eliminated.
 309              		.loc 1 179 3 view .LVU85
 310              		.loc 1 180 3 view .LVU86
 311              		.loc 1 182 3 view .LVU87
 312              		.loc 1 183 1 is_stmt 0 view .LVU88
 313 0000 0120     		movs	r0, #1
 314              	.LVL27:
 315              		.loc 1 183 1 view .LVU89
 316 0002 7047     		bx	lr
 317              		.cfi_endproc
 318              	.LFE353:
 319              		.size	_isatty_r, .-_isatty_r
 320              		.section	.rodata._exit.str1.4,"aMS",%progbits,1
 321              		.align	2
 322              	.LC0:
 323 0000 65786974 		.ascii	"exit\000"
 323      00
 324              		.section	.text._exit,"ax",%progbits
 325              		.align	1
 326              		.p2align 4,,15
 327              		.global	_exit
 328              		.syntax unified
 329              		.thumb
 330              		.thumb_func
 331              		.type	_exit, %function
 332              	_exit:
 333              	.LVL28:
 334              	.LFB354:
 335              		.loc 1 188 24 is_stmt 1 view -0
 336              		.cfi_startproc
 337              		@ Volatile: function does not return.
 338              		@ args = 0, pretend = 0, frame = 0
 339              		@ frame_needed = 0, uses_anonymous_args = 0
 340              		.loc 1 190 3 view .LVU91
 341              		.loc 1 192 3 view .LVU92
ARM GAS  C:\Users\DEVELO~1\AppData\Local\Temp\cc6b0Z3y.s 			page 7


 342 0000 0248     		ldr	r0, .L16
 343              	.LVL29:
 344              		.loc 1 188 24 is_stmt 0 view .LVU93
 345 0002 08B5     		push	{r3, lr}
 346              		.cfi_def_cfa_offset 8
 347              		.cfi_offset 3, -8
 348              		.cfi_offset 14, -4
 349              		.loc 1 192 3 view .LVU94
 350 0004 FFF7FEFF 		bl	chSysHalt
 351              	.LVL30:
 352              		.loc 1 193 3 is_stmt 1 view .LVU95
 353 0008 FFF7FEFF 		bl	abort
 354              	.LVL31:
 355              	.L17:
 356              		.align	2
 357              	.L16:
 358 000c 00000000 		.word	.LC0
 359              		.cfi_endproc
 360              	.LFE354:
 361              		.size	_exit, .-_exit
 362              		.section	.rodata._kill.str1.4,"aMS",%progbits,1
 363              		.align	2
 364              	.LC1:
 365 0000 6B696C6C 		.ascii	"kill\000"
 365      00
 366              		.section	.text._kill,"ax",%progbits
 367              		.align	1
 368              		.p2align 4,,15
 369              		.global	_kill
 370              		.syntax unified
 371              		.thumb
 372              		.thumb_func
 373              		.type	_kill, %function
 374              	_kill:
 375              	.LVL32:
 376              	.LFB355:
 377              		.loc 1 199 29 view -0
 378              		.cfi_startproc
 379              		@ Volatile: function does not return.
 380              		@ args = 0, pretend = 0, frame = 0
 381              		@ frame_needed = 0, uses_anonymous_args = 0
 382              		.loc 1 201 3 view .LVU97
 383              		.loc 1 202 3 view .LVU98
 384              		.loc 1 204 3 view .LVU99
 385 0000 0248     		ldr	r0, .L20
 386              	.LVL33:
 387              		.loc 1 199 29 is_stmt 0 view .LVU100
 388 0002 08B5     		push	{r3, lr}
 389              		.cfi_def_cfa_offset 8
 390              		.cfi_offset 3, -8
 391              		.cfi_offset 14, -4
 392              		.loc 1 204 3 view .LVU101
 393 0004 FFF7FEFF 		bl	chSysHalt
 394              	.LVL34:
 395              		.loc 1 205 3 is_stmt 1 view .LVU102
 396 0008 FFF7FEFF 		bl	abort
 397              	.LVL35:
ARM GAS  C:\Users\DEVELO~1\AppData\Local\Temp\cc6b0Z3y.s 			page 8


 398              	.L21:
 399              		.align	2
 400              	.L20:
 401 000c 00000000 		.word	.LC1
 402              		.cfi_endproc
 403              	.LFE355:
 404              		.size	_kill, .-_kill
 405              		.section	.text._getpid,"ax",%progbits
 406              		.align	1
 407              		.p2align 4,,15
 408              		.global	_getpid
 409              		.syntax unified
 410              		.thumb
 411              		.thumb_func
 412              		.type	_getpid, %function
 413              	_getpid:
 414              	.LFB356:
 415              		.loc 1 211 19 view -0
 416              		.cfi_startproc
 417              		@ args = 0, pretend = 0, frame = 0
 418              		@ frame_needed = 0, uses_anonymous_args = 0
 419              		@ link register save eliminated.
 420              		.loc 1 213 3 view .LVU104
 421              		.loc 1 215 1 is_stmt 0 view .LVU105
 422 0000 0120     		movs	r0, #1
 423 0002 7047     		bx	lr
 424              		.cfi_endproc
 425              	.LFE356:
 426              		.size	_getpid, .-_getpid
 427              		.section	.rodata.__cxa_pure_virtual.str1.4,"aMS",%progbits,1
 428              		.align	2
 429              	.LC2:
 430 0000 70757265 		.ascii	"pure virtual\000"
 430      20766972 
 430      7475616C 
 430      00
 431              		.section	.text.__cxa_pure_virtual,"ax",%progbits
 432              		.align	1
 433              		.p2align 4,,15
 434              		.global	__cxa_pure_virtual
 435              		.syntax unified
 436              		.thumb
 437              		.thumb_func
 438              		.type	__cxa_pure_virtual, %function
 439              	__cxa_pure_virtual:
 440              	.LFB357:
 441              		.loc 1 219 31 is_stmt 1 view -0
 442              		.cfi_startproc
 443              		@ args = 0, pretend = 0, frame = 0
 444              		@ frame_needed = 0, uses_anonymous_args = 0
 445              		@ link register save eliminated.
 446              		.loc 1 220 3 view .LVU107
 447 0000 0148     		ldr	r0, .L24
 448 0002 FFF7FEBF 		b	chSysHalt
 449              	.LVL36:
 450              	.L25:
 451 0006 00BF     		.align	2
ARM GAS  C:\Users\DEVELO~1\AppData\Local\Temp\cc6b0Z3y.s 			page 9


 452              	.L24:
 453 0008 00000000 		.word	.LC2
 454              		.cfi_endproc
 455              	.LFE357:
 456              		.size	__cxa_pure_virtual, .-__cxa_pure_virtual
 457              		.text
 458              	.Letext0:
 459              		.file 2 "c:\\chibistudio\\tools\\gnu tools arm embedded\\11.3 2022.08\\lib\\gcc\\arm-none-eabi\\11
 460              		.file 3 "c:\\chibistudio\\tools\\gnu tools arm embedded\\11.3 2022.08\\arm-none-eabi\\include\\mac
 461              		.file 4 "c:\\chibistudio\\tools\\gnu tools arm embedded\\11.3 2022.08\\arm-none-eabi\\include\\sys
 462              		.file 5 "c:\\chibistudio\\tools\\gnu tools arm embedded\\11.3 2022.08\\arm-none-eabi\\include\\sys
 463              		.file 6 "c:\\chibistudio\\tools\\gnu tools arm embedded\\11.3 2022.08\\arm-none-eabi\\include\\sys
 464              		.file 7 "c:\\chibistudio\\tools\\gnu tools arm embedded\\11.3 2022.08\\arm-none-eabi\\include\\sys
 465              		.file 8 "c:\\chibistudio\\tools\\gnu tools arm embedded\\11.3 2022.08\\arm-none-eabi\\include\\sys
 466              		.file 9 "c:\\chibistudio\\tools\\gnu tools arm embedded\\11.3 2022.08\\arm-none-eabi\\include\\sys
 467              		.file 10 "c:\\chibistudio\\tools\\gnu tools arm embedded\\11.3 2022.08\\arm-none-eabi\\include\\sy
 468              		.file 11 "c:\\chibistudio\\tools\\gnu tools arm embedded\\11.3 2022.08\\arm-none-eabi\\include\\st
 469              		.file 12 "../../../os/oslib/include/chmemcore.h"
 470              		.file 13 "c:\\chibistudio\\tools\\gnu tools arm embedded\\11.3 2022.08\\arm-none-eabi\\include\\st
 471              		.file 14 "../../../os/rt/include/chearly.h"
 472              		.file 15 "<built-in>"