ARM GAS  C:\Users\DEVELO~1\AppData\Local\Temp\ccj0Zyje.s 			page 1


   1              		.cpu cortex-m7
   2              		.arch armv7e-m
   3              		.fpu softvfp
   4              		.eabi_attribute 20, 1
   5              		.eabi_attribute 21, 1
   6              		.eabi_attribute 23, 3
   7              		.eabi_attribute 24, 1
   8              		.eabi_attribute 25, 1
   9              		.eabi_attribute 26, 1
  10              		.eabi_attribute 30, 2
  11              		.eabi_attribute 34, 1
  12              		.eabi_attribute 18, 4
  13              		.file	"usb_device.c"
  14              		.text
  15              	.Ltext0:
  16              		.cfi_sections	.debug_frame
  17              		.section	.text.usb_device_start,"ax",%progbits
  18              		.align	1
  19              		.p2align 4,,15
  20              		.global	usb_device_start
  21              		.syntax unified
  22              		.thumb
  23              		.thumb_func
  24              		.type	usb_device_start, %function
  25              	usb_device_start:
  26              	.LFB432:
  27              		.file 1 "usb/usb_device.c"
  28              		.loc 1 48 29 view -0
  29              		.cfi_startproc
  30              		@ args = 0, pretend = 0, frame = 0
  31              		@ frame_needed = 0, uses_anonymous_args = 0
  32              		.loc 1 50 5 view .LVU1
  33              		.loc 1 48 29 is_stmt 0 view .LVU2
  34 0000 10B5     		push	{r4, lr}
  35              		.cfi_def_cfa_offset 8
  36              		.cfi_offset 4, -8
  37              		.cfi_offset 14, -4
  38              		.loc 1 50 5 view .LVU3
  39 0002 0D4C     		ldr	r4, .L4
  40              		.loc 1 51 5 view .LVU4
  41 0004 43F69820 		movw	r0, #15000
  42              		.loc 1 50 5 view .LVU5
  43 0008 D4F89020 		ldr	r2, [r4, #144]
  44 000c D2F80438 		ldr	r3, [r2, #2052]
  45 0010 43F00203 		orr	r3, r3, #2
  46 0014 C2F80438 		str	r3, [r2, #2052]
  47              		.loc 1 51 5 is_stmt 1 view .LVU6
  48 0018 FFF7FEFF 		bl	chThdSleep
  49              	.LVL0:
  50              		.loc 1 54 5 view .LVU7
  51 001c 0749     		ldr	r1, .L4+4
  52 001e 2046     		mov	r0, r4
  53 0020 FFF7FEFF 		bl	usbStart
  54              	.LVL1:
  55              		.loc 1 64 5 view .LVU8
  56              		.loc 1 74 5 view .LVU9
  57 0024 D4F89020 		ldr	r2, [r4, #144]
ARM GAS  C:\Users\DEVELO~1\AppData\Local\Temp\ccj0Zyje.s 			page 2


  58 0028 D2F80438 		ldr	r3, [r2, #2052]
  59 002c 23F00203 		bic	r3, r3, #2
  60 0030 C2F80438 		str	r3, [r2, #2052]
  61              		.loc 1 75 1 is_stmt 0 view .LVU10
  62 0034 10BD     		pop	{r4, pc}
  63              	.L5:
  64 0036 00BF     		.align	2
  65              	.L4:
  66 0038 00000000 		.word	USBD1
  67 003c 00000000 		.word	usbcfg
  68              		.cfi_endproc
  69              	.LFE432:
  70              		.size	usb_device_start, .-usb_device_start
  71              		.section	.text.usb_device_active,"ax",%progbits
  72              		.align	1
  73              		.p2align 4,,15
  74              		.global	usb_device_active
  75              		.syntax unified
  76              		.thumb
  77              		.thumb_func
  78              		.type	usb_device_active, %function
  79              	usb_device_active:
  80              	.LFB433:
  81              		.loc 1 82 30 is_stmt 1 view -0
  82              		.cfi_startproc
  83              		@ args = 0, pretend = 0, frame = 0
  84              		@ frame_needed = 0, uses_anonymous_args = 0
  85              		@ link register save eliminated.
  86              		.loc 1 83 5 view .LVU12
  87              		.loc 1 83 12 is_stmt 0 view .LVU13
  88 0000 014B     		ldr	r3, .L7
  89 0002 1878     		ldrb	r0, [r3]	@ zero_extendqisi2
  90              		.loc 1 84 1 view .LVU14
  91 0004 7047     		bx	lr
  92              	.L8:
  93 0006 00BF     		.align	2
  94              	.L7:
  95 0008 00000000 		.word	usb_midi_tx_ready
  96              		.cfi_endproc
  97              	.LFE433:
  98              		.size	usb_device_active, .-usb_device_active
  99              		.text
 100              	.Letext0:
 101              		.file 2 "c:\\chibistudio\\tools\\gnu tools arm embedded\\11.3 2022.08\\lib\\gcc\\arm-none-eabi\\11
 102              		.file 3 "c:\\chibistudio\\tools\\gnu tools arm embedded\\11.3 2022.08\\arm-none-eabi\\include\\mac
 103              		.file 4 "c:\\chibistudio\\tools\\gnu tools arm embedded\\11.3 2022.08\\arm-none-eabi\\include\\sys
 104              		.file 5 "../../../os/rt/include/chearly.h"
 105              		.file 6 "../../../os/rt/include/chtime.h"
 106              		.file 7 "../../../os/hal/include/hal_usb.h"
 107              		.file 8 "../../../os/hal/ports/STM32/LLD/OTGv1/hal_usb_lld.h"
 108              		.file 9 "../../../os/hal/ports/STM32/LLD/OTGv1/stm32_otg.h"
 109              		.file 10 "usb/usbcfg.h"
 110              		.file 11 "../../../os/rt/include/chthreads.h"
 111              		.section	.debug_info,"",%progbits
 112              	.Ldebug_info0:
 113 0000 E00B0000 		.4byte	0xbe0
 114 0004 0500     		.2byte	0x5
ARM GAS  C:\Users\DEVELO~1\AppData\Local\Temp\ccj0Zyje.s 			page 3


 115 0006 01       		.byte	0x1
 116 0007 04       		.byte	0x4
 117 0008 00000000 		.4byte	.Ldebug_abbrev0
 118 000c 17       		.uleb128 0x17
 119 000d 82060000 		.4byte	.LASF183
 120 0011 1D       		.byte	0x1d
 121 0012 E2010000 		.4byte	.LASF184
 122 0016 B8000000 		.4byte	.LASF185
 123 001a 0C000000 		.4byte	.LLRL0
 124 001e 00000000 		.4byte	0
 125 0022 00000000 		.4byte	.Ldebug_line0
 126 0026 18       		.uleb128 0x18
 127 0027 04       		.byte	0x4
 128 0028 05       		.byte	0x5
 129 0029 696E7400 		.ascii	"int\000"
 130 002d 05       		.uleb128 0x5
 131 002e 21000000 		.4byte	.LASF4
 132 0032 02       		.byte	0x2
 133 0033 D1       		.byte	0xd1
 134 0034 17       		.byte	0x17
 135 0035 39000000 		.4byte	0x39
 136 0039 0B       		.uleb128 0xb
 137 003a 04       		.byte	0x4
 138 003b 07       		.byte	0x7
 139 003c 88020000 		.4byte	.LASF0
 140 0040 0B       		.uleb128 0xb
 141 0041 08       		.byte	0x8
 142 0042 05       		.byte	0x5
 143 0043 3D010000 		.4byte	.LASF1
 144 0047 0B       		.uleb128 0xb
 145 0048 08       		.byte	0x8
 146 0049 04       		.byte	0x4
 147 004a 30060000 		.4byte	.LASF2
 148 004e 0B       		.uleb128 0xb
 149 004f 01       		.byte	0x1
 150 0050 06       		.byte	0x6
 151 0051 4B010000 		.4byte	.LASF3
 152 0055 05       		.uleb128 0x5
 153 0056 4A000000 		.4byte	.LASF5
 154 005a 03       		.byte	0x3
 155 005b 2B       		.byte	0x2b
 156 005c 18       		.byte	0x18
 157 005d 61000000 		.4byte	0x61
 158 0061 0B       		.uleb128 0xb
 159 0062 01       		.byte	0x1
 160 0063 08       		.byte	0x8
 161 0064 52050000 		.4byte	.LASF6
 162 0068 0B       		.uleb128 0xb
 163 0069 02       		.byte	0x2
 164 006a 05       		.byte	0x5
 165 006b 6F050000 		.4byte	.LASF7
 166 006f 05       		.uleb128 0x5
 167 0070 5E060000 		.4byte	.LASF8
 168 0074 03       		.byte	0x3
 169 0075 39       		.byte	0x39
 170 0076 19       		.byte	0x19
 171 0077 7B000000 		.4byte	0x7b
ARM GAS  C:\Users\DEVELO~1\AppData\Local\Temp\ccj0Zyje.s 			page 4


 172 007b 0B       		.uleb128 0xb
 173 007c 02       		.byte	0x2
 174 007d 07       		.byte	0x7
 175 007e 78070000 		.4byte	.LASF9
 176 0082 05       		.uleb128 0x5
 177 0083 37070000 		.4byte	.LASF10
 178 0087 03       		.byte	0x3
 179 0088 4D       		.byte	0x4d
 180 0089 18       		.byte	0x18
 181 008a 8E000000 		.4byte	0x8e
 182 008e 0B       		.uleb128 0xb
 183 008f 04       		.byte	0x4
 184 0090 05       		.byte	0x5
 185 0091 87080000 		.4byte	.LASF11
 186 0095 05       		.uleb128 0x5
 187 0096 8B070000 		.4byte	.LASF12
 188 009a 03       		.byte	0x3
 189 009b 4F       		.byte	0x4f
 190 009c 19       		.byte	0x19
 191 009d A1000000 		.4byte	0xa1
 192 00a1 0B       		.uleb128 0xb
 193 00a2 04       		.byte	0x4
 194 00a3 07       		.byte	0x7
 195 00a4 72010000 		.4byte	.LASF13
 196 00a8 05       		.uleb128 0x5
 197 00a9 CA040000 		.4byte	.LASF14
 198 00ad 03       		.byte	0x3
 199 00ae 69       		.byte	0x69
 200 00af 19       		.byte	0x19
 201 00b0 B4000000 		.4byte	0xb4
 202 00b4 0B       		.uleb128 0xb
 203 00b5 08       		.byte	0x8
 204 00b6 07       		.byte	0x7
 205 00b7 90010000 		.4byte	.LASF15
 206 00bb 05       		.uleb128 0x5
 207 00bc 2D080000 		.4byte	.LASF16
 208 00c0 04       		.byte	0x4
 209 00c1 18       		.byte	0x18
 210 00c2 13       		.byte	0x13
 211 00c3 55000000 		.4byte	0x55
 212 00c7 0E       		.uleb128 0xe
 213 00c8 BB000000 		.4byte	0xbb
 214 00cc 05       		.uleb128 0x5
 215 00cd 32020000 		.4byte	.LASF17
 216 00d1 04       		.byte	0x4
 217 00d2 24       		.byte	0x24
 218 00d3 14       		.byte	0x14
 219 00d4 6F000000 		.4byte	0x6f
 220 00d8 05       		.uleb128 0x5
 221 00d9 4A050000 		.4byte	.LASF18
 222 00dd 04       		.byte	0x4
 223 00de 2C       		.byte	0x2c
 224 00df 13       		.byte	0x13
 225 00e0 82000000 		.4byte	0x82
 226 00e4 05       		.uleb128 0x5
 227 00e5 C4070000 		.4byte	.LASF19
 228 00e9 04       		.byte	0x4
ARM GAS  C:\Users\DEVELO~1\AppData\Local\Temp\ccj0Zyje.s 			page 5


 229 00ea 30       		.byte	0x30
 230 00eb 14       		.byte	0x14
 231 00ec 95000000 		.4byte	0x95
 232 00f0 0C       		.uleb128 0xc
 233 00f1 E4000000 		.4byte	0xe4
 234 00f5 05       		.uleb128 0x5
 235 00f6 38000000 		.4byte	.LASF20
 236 00fa 04       		.byte	0x4
 237 00fb 3C       		.byte	0x3c
 238 00fc 14       		.byte	0x14
 239 00fd A8000000 		.4byte	0xa8
 240 0101 05       		.uleb128 0x5
 241 0102 5B030000 		.4byte	.LASF21
 242 0106 05       		.byte	0x5
 243 0107 58       		.byte	0x58
 244 0108 19       		.byte	0x19
 245 0109 D8000000 		.4byte	0xd8
 246 010d 0B       		.uleb128 0xb
 247 010e 01       		.byte	0x1
 248 010f 08       		.byte	0x8
 249 0110 3C060000 		.4byte	.LASF22
 250 0114 05       		.uleb128 0x5
 251 0115 71020000 		.4byte	.LASF23
 252 0119 06       		.byte	0x6
 253 011a 79       		.byte	0x79
 254 011b 12       		.byte	0x12
 255 011c E4000000 		.4byte	0xe4
 256 0120 05       		.uleb128 0x5
 257 0121 ED020000 		.4byte	.LASF24
 258 0125 06       		.byte	0x6
 259 0126 9B       		.byte	0x9b
 260 0127 12       		.byte	0x12
 261 0128 F5000000 		.4byte	0xf5
 262 012c 19       		.uleb128 0x19
 263 012d 04       		.byte	0x4
 264 012e 07       		.uleb128 0x7
 265 012f F0000000 		.4byte	0xf0
 266 0133 3E010000 		.4byte	0x13e
 267 0137 08       		.uleb128 0x8
 268 0138 39000000 		.4byte	0x39
 269 013c 0F       		.byte	0xf
 270 013d 00       		.byte	0
 271 013e 0C       		.uleb128 0xc
 272 013f 2E010000 		.4byte	0x12e
 273 0143 07       		.uleb128 0x7
 274 0144 F0000000 		.4byte	0xf0
 275 0148 53010000 		.4byte	0x153
 276 014c 08       		.uleb128 0x8
 277 014d 39000000 		.4byte	0x39
 278 0151 0E       		.byte	0xe
 279 0152 00       		.byte	0
 280 0153 0C       		.uleb128 0xc
 281 0154 43010000 		.4byte	0x143
 282 0158 0B       		.uleb128 0xb
 283 0159 01       		.byte	0x1
 284 015a 02       		.byte	0x2
 285 015b 44050000 		.4byte	.LASF25
ARM GAS  C:\Users\DEVELO~1\AppData\Local\Temp\ccj0Zyje.s 			page 6


 286 015f 0C       		.uleb128 0xc
 287 0160 58010000 		.4byte	0x158
 288 0164 09       		.uleb128 0x9
 289 0165 BB000000 		.4byte	0xbb
 290 0169 09       		.uleb128 0x9
 291 016a C7000000 		.4byte	0xc7
 292 016e 06       		.uleb128 0x6
 293 016f 23080000 		.4byte	.LASF26
 294 0173 07       		.byte	0x7
 295 0174 0301     		.2byte	0x103
 296 0176 1A       		.byte	0x1a
 297 0177 7B010000 		.4byte	0x17b
 298 017b 1A       		.uleb128 0x1a
 299 017c 23080000 		.4byte	.LASF26
 300 0180 9C       		.byte	0x9c
 301 0181 08       		.byte	0x8
 302 0182 A501     		.2byte	0x1a5
 303 0184 08       		.byte	0x8
 304 0185 90020000 		.4byte	0x290
 305 0189 01       		.uleb128 0x1
 306 018a CC010000 		.4byte	.LASF27
 307 018e 08       		.byte	0x8
 308 018f A901     		.2byte	0x1a9
 309 0191 21       		.byte	0x21
 310 0192 CD020000 		.4byte	0x2cd
 311 0196 00       		.byte	0
 312 0197 01       		.uleb128 0x1
 313 0198 B6020000 		.4byte	.LASF28
 314 019c 08       		.byte	0x8
 315 019d AD01     		.2byte	0x1ad
 316 019f 22       		.byte	0x22
 317 01a0 FF0A0000 		.4byte	0xaff
 318 01a4 04       		.byte	0x4
 319 01a5 01       		.uleb128 0x1
 320 01a6 02030000 		.4byte	.LASF29
 321 01aa 08       		.byte	0x8
 322 01ab B101     		.2byte	0x1b1
 323 01ad 21       		.byte	0x21
 324 01ae CC000000 		.4byte	0xcc
 325 01b2 08       		.byte	0x8
 326 01b3 01       		.uleb128 0x1
 327 01b4 B3030000 		.4byte	.LASF30
 328 01b8 08       		.byte	0x8
 329 01b9 B501     		.2byte	0x1b5
 330 01bb 21       		.byte	0x21
 331 01bc CC000000 		.4byte	0xcc
 332 01c0 0A       		.byte	0xa
 333 01c1 13       		.uleb128 0x13
 334 01c2 65706300 		.ascii	"epc\000"
 335 01c6 B901     		.2byte	0x1b9
 336 01c8 040B0000 		.4byte	0xb04
 337 01cc 0C       		.byte	0xc
 338 01cd 01       		.uleb128 0x1
 339 01ce 55080000 		.4byte	.LASF31
 340 01d2 08       		.byte	0x8
 341 01d3 C001     		.2byte	0x1c0
 342 01d5 22       		.byte	0x22
ARM GAS  C:\Users\DEVELO~1\AppData\Local\Temp\ccj0Zyje.s 			page 7


 343 01d6 190B0000 		.4byte	0xb19
 344 01da 30       		.byte	0x30
 345 01db 01       		.uleb128 0x1
 346 01dc D2010000 		.4byte	.LASF32
 347 01e0 08       		.byte	0x8
 348 01e1 C701     		.2byte	0x1c7
 349 01e3 22       		.byte	0x22
 350 01e4 190B0000 		.4byte	0xb19
 351 01e8 50       		.byte	0x50
 352 01e9 01       		.uleb128 0x1
 353 01ea 14060000 		.4byte	.LASF33
 354 01ee 08       		.byte	0x8
 355 01ef CB01     		.2byte	0x1cb
 356 01f1 21       		.byte	0x21
 357 01f2 10030000 		.4byte	0x310
 358 01f6 70       		.byte	0x70
 359 01f7 01       		.uleb128 0x1
 360 01f8 15030000 		.4byte	.LASF34
 361 01fc 08       		.byte	0x8
 362 01fd CF01     		.2byte	0x1cf
 363 01ff 22       		.byte	0x22
 364 0200 64010000 		.4byte	0x164
 365 0204 74       		.byte	0x74
 366 0205 01       		.uleb128 0x1
 367 0206 A6030000 		.4byte	.LASF35
 368 020a 08       		.byte	0x8
 369 020b D301     		.2byte	0x1d3
 370 020d 21       		.byte	0x21
 371 020e 2D000000 		.4byte	0x2d
 372 0212 78       		.byte	0x78
 373 0213 01       		.uleb128 0x1
 374 0214 5E070000 		.4byte	.LASF36
 375 0218 08       		.byte	0x8
 376 0219 D701     		.2byte	0x1d7
 377 021b 21       		.byte	0x21
 378 021c 98030000 		.4byte	0x398
 379 0220 7C       		.byte	0x7c
 380 0221 01       		.uleb128 0x1
 381 0222 9A040000 		.4byte	.LASF37
 382 0226 08       		.byte	0x8
 383 0227 DB01     		.2byte	0x1db
 384 0229 21       		.byte	0x21
 385 022a 290B0000 		.4byte	0xb29
 386 022e 80       		.byte	0x80
 387 022f 01       		.uleb128 0x1
 388 0230 F1070000 		.4byte	.LASF38
 389 0234 08       		.byte	0x8
 390 0235 DF01     		.2byte	0x1df
 391 0237 21       		.byte	0x21
 392 0238 CC000000 		.4byte	0xcc
 393 023c 88       		.byte	0x88
 394 023d 01       		.uleb128 0x1
 395 023e 41040000 		.4byte	.LASF39
 396 0242 08       		.byte	0x8
 397 0243 E301     		.2byte	0x1e3
 398 0245 21       		.byte	0x21
 399 0246 BB000000 		.4byte	0xbb
ARM GAS  C:\Users\DEVELO~1\AppData\Local\Temp\ccj0Zyje.s 			page 8


 400 024a 8A       		.byte	0x8a
 401 024b 01       		.uleb128 0x1
 402 024c A6080000 		.4byte	.LASF40
 403 0250 08       		.byte	0x8
 404 0251 E701     		.2byte	0x1e7
 405 0253 21       		.byte	0x21
 406 0254 BB000000 		.4byte	0xbb
 407 0258 8B       		.byte	0x8b
 408 0259 01       		.uleb128 0x1
 409 025a DC050000 		.4byte	.LASF41
 410 025e 08       		.byte	0x8
 411 025f EB01     		.2byte	0x1eb
 412 0261 21       		.byte	0x21
 413 0262 CD020000 		.4byte	0x2cd
 414 0266 8C       		.byte	0x8c
 415 0267 13       		.uleb128 0x13
 416 0268 6F746700 		.ascii	"otg\000"
 417 026c F301     		.2byte	0x1f3
 418 026e 390B0000 		.4byte	0xb39
 419 0272 90       		.byte	0x90
 420 0273 01       		.uleb128 0x1
 421 0274 9C030000 		.4byte	.LASF42
 422 0278 08       		.byte	0x8
 423 0279 F701     		.2byte	0x1f7
 424 027b 22       		.byte	0x22
 425 027c 3E0B0000 		.4byte	0xb3e
 426 0280 94       		.byte	0x94
 427 0281 01       		.uleb128 0x1
 428 0282 E6040000 		.4byte	.LASF43
 429 0286 08       		.byte	0x8
 430 0287 FB01     		.2byte	0x1fb
 431 0289 21       		.byte	0x21
 432 028a E4000000 		.4byte	0xe4
 433 028e 98       		.byte	0x98
 434 028f 00       		.byte	0
 435 0290 06       		.uleb128 0x6
 436 0291 79050000 		.4byte	.LASF44
 437 0295 07       		.byte	0x7
 438 0296 0801     		.2byte	0x108
 439 0298 11       		.byte	0x11
 440 0299 BB000000 		.4byte	0xbb
 441 029d 0F       		.uleb128 0xf
 442 029e 61000000 		.4byte	0x61
 443 02a2 0D01     		.2byte	0x10d
 444 02a4 CD020000 		.4byte	0x2cd
 445 02a8 04       		.uleb128 0x4
 446 02a9 AD000000 		.4byte	.LASF45
 447 02ad 00       		.byte	0
 448 02ae 04       		.uleb128 0x4
 449 02af 3B050000 		.4byte	.LASF46
 450 02b3 01       		.byte	0x1
 451 02b4 04       		.uleb128 0x4
 452 02b5 31050000 		.4byte	.LASF47
 453 02b9 02       		.byte	0x2
 454 02ba 04       		.uleb128 0x4
 455 02bb C4050000 		.4byte	.LASF48
 456 02bf 03       		.byte	0x3
ARM GAS  C:\Users\DEVELO~1\AppData\Local\Temp\ccj0Zyje.s 			page 9


 457 02c0 04       		.uleb128 0x4
 458 02c1 95020000 		.4byte	.LASF49
 459 02c5 04       		.byte	0x4
 460 02c6 04       		.uleb128 0x4
 461 02c7 98080000 		.4byte	.LASF50
 462 02cb 05       		.byte	0x5
 463 02cc 00       		.byte	0
 464 02cd 06       		.uleb128 0x6
 465 02ce 6E060000 		.4byte	.LASF51
 466 02d2 07       		.byte	0x7
 467 02d3 1401     		.2byte	0x114
 468 02d5 03       		.byte	0x3
 469 02d6 9D020000 		.4byte	0x29d
 470 02da 0F       		.uleb128 0xf
 471 02db 61000000 		.4byte	0x61
 472 02df 2201     		.2byte	0x122
 473 02e1 10030000 		.4byte	0x310
 474 02e5 04       		.uleb128 0x4
 475 02e6 E4030000 		.4byte	.LASF52
 476 02ea 00       		.byte	0
 477 02eb 04       		.uleb128 0x4
 478 02ec C5030000 		.4byte	.LASF53
 479 02f0 09       		.byte	0x9
 480 02f1 04       		.uleb128 0x4
 481 02f2 91000000 		.4byte	.LASF54
 482 02f6 0A       		.byte	0xa
 483 02f7 04       		.uleb128 0x4
 484 02f8 70030000 		.4byte	.LASF55
 485 02fc 0B       		.byte	0xb
 486 02fd 04       		.uleb128 0x4
 487 02fe CD070000 		.4byte	.LASF56
 488 0302 14       		.byte	0x14
 489 0303 04       		.uleb128 0x4
 490 0304 CE020000 		.4byte	.LASF57
 491 0308 15       		.byte	0x15
 492 0309 04       		.uleb128 0x4
 493 030a B5010000 		.4byte	.LASF58
 494 030e 06       		.byte	0x6
 495 030f 00       		.byte	0
 496 0310 06       		.uleb128 0x6
 497 0311 41020000 		.4byte	.LASF59
 498 0315 07       		.byte	0x7
 499 0316 2A01     		.2byte	0x12a
 500 0318 03       		.byte	0x3
 501 0319 DA020000 		.4byte	0x2da
 502 031d 0F       		.uleb128 0xf
 503 031e 61000000 		.4byte	0x61
 504 0322 2F01     		.2byte	0x12f
 505 0324 53030000 		.4byte	0x353
 506 0328 04       		.uleb128 0x4
 507 0329 4E060000 		.4byte	.LASF60
 508 032d 00       		.byte	0
 509 032e 04       		.uleb128 0x4
 510 032f F5040000 		.4byte	.LASF61
 511 0333 01       		.byte	0x1
 512 0334 04       		.uleb128 0x4
 513 0335 49070000 		.4byte	.LASF62
ARM GAS  C:\Users\DEVELO~1\AppData\Local\Temp\ccj0Zyje.s 			page 10


 514 0339 02       		.byte	0x2
 515 033a 04       		.uleb128 0x4
 516 033b 67000000 		.4byte	.LASF63
 517 033f 03       		.byte	0x3
 518 0340 04       		.uleb128 0x4
 519 0341 02060000 		.4byte	.LASF64
 520 0345 04       		.byte	0x4
 521 0346 04       		.uleb128 0x4
 522 0347 21020000 		.4byte	.LASF65
 523 034b 05       		.byte	0x5
 524 034c 04       		.uleb128 0x4
 525 034d 57020000 		.4byte	.LASF66
 526 0351 06       		.byte	0x6
 527 0352 00       		.byte	0
 528 0353 06       		.uleb128 0x6
 529 0354 5C000000 		.4byte	.LASF67
 530 0358 07       		.byte	0x7
 531 0359 3701     		.2byte	0x137
 532 035b 03       		.byte	0x3
 533 035c 1D030000 		.4byte	0x31d
 534 0360 0D       		.uleb128 0xd
 535 0361 08       		.byte	0x8
 536 0362 07       		.byte	0x7
 537 0363 3C01     		.2byte	0x13c
 538 0365 86030000 		.4byte	0x386
 539 0369 01       		.uleb128 0x1
 540 036a A6020000 		.4byte	.LASF68
 541 036e 07       		.byte	0x7
 542 036f 4001     		.2byte	0x140
 543 0371 21       		.byte	0x21
 544 0372 2D000000 		.4byte	0x2d
 545 0376 00       		.byte	0
 546 0377 01       		.uleb128 0x1
 547 0378 61030000 		.4byte	.LASF69
 548 037c 07       		.byte	0x7
 549 037d 4401     		.2byte	0x144
 550 037f 22       		.byte	0x22
 551 0380 69010000 		.4byte	0x169
 552 0384 04       		.byte	0x4
 553 0385 00       		.byte	0
 554 0386 06       		.uleb128 0x6
 555 0387 16010000 		.4byte	.LASF70
 556 038b 07       		.byte	0x7
 557 038c 4501     		.2byte	0x145
 558 038e 03       		.byte	0x3
 559 038f 60030000 		.4byte	0x360
 560 0393 0E       		.uleb128 0xe
 561 0394 86030000 		.4byte	0x386
 562 0398 06       		.uleb128 0x6
 563 0399 57010000 		.4byte	.LASF71
 564 039d 07       		.byte	0x7
 565 039e 4D01     		.2byte	0x14d
 566 03a0 10       		.byte	0x10
 567 03a1 A5030000 		.4byte	0x3a5
 568 03a5 09       		.uleb128 0x9
 569 03a6 AA030000 		.4byte	0x3aa
 570 03aa 10       		.uleb128 0x10
ARM GAS  C:\Users\DEVELO~1\AppData\Local\Temp\ccj0Zyje.s 			page 11


 571 03ab B5030000 		.4byte	0x3b5
 572 03af 0A       		.uleb128 0xa
 573 03b0 B5030000 		.4byte	0x3b5
 574 03b4 00       		.byte	0
 575 03b5 09       		.uleb128 0x9
 576 03b6 6E010000 		.4byte	0x16e
 577 03ba 06       		.uleb128 0x6
 578 03bb F8070000 		.4byte	.LASF72
 579 03bf 07       		.byte	0x7
 580 03c0 5601     		.2byte	0x156
 581 03c2 10       		.byte	0x10
 582 03c3 C7030000 		.4byte	0x3c7
 583 03c7 09       		.uleb128 0x9
 584 03c8 CC030000 		.4byte	0x3cc
 585 03cc 10       		.uleb128 0x10
 586 03cd DC030000 		.4byte	0x3dc
 587 03d1 0A       		.uleb128 0xa
 588 03d2 B5030000 		.4byte	0x3b5
 589 03d6 0A       		.uleb128 0xa
 590 03d7 90020000 		.4byte	0x290
 591 03db 00       		.byte	0
 592 03dc 06       		.uleb128 0x6
 593 03dd 0B020000 		.4byte	.LASF73
 594 03e1 07       		.byte	0x7
 595 03e2 5F01     		.2byte	0x15f
 596 03e4 10       		.byte	0x10
 597 03e5 E9030000 		.4byte	0x3e9
 598 03e9 09       		.uleb128 0x9
 599 03ea EE030000 		.4byte	0x3ee
 600 03ee 10       		.uleb128 0x10
 601 03ef FE030000 		.4byte	0x3fe
 602 03f3 0A       		.uleb128 0xa
 603 03f4 B5030000 		.4byte	0x3b5
 604 03f8 0A       		.uleb128 0xa
 605 03f9 53030000 		.4byte	0x353
 606 03fd 00       		.byte	0
 607 03fe 06       		.uleb128 0x6
 608 03ff 5D040000 		.4byte	.LASF74
 609 0403 07       		.byte	0x7
 610 0404 6B01     		.2byte	0x16b
 611 0406 10       		.byte	0x10
 612 0407 0B040000 		.4byte	0x40b
 613 040b 09       		.uleb128 0x9
 614 040c 10040000 		.4byte	0x410
 615 0410 14       		.uleb128 0x14
 616 0411 58010000 		.4byte	0x158
 617 0415 1F040000 		.4byte	0x41f
 618 0419 0A       		.uleb128 0xa
 619 041a B5030000 		.4byte	0x3b5
 620 041e 00       		.byte	0
 621 041f 06       		.uleb128 0x6
 622 0420 87040000 		.4byte	.LASF75
 623 0424 07       		.byte	0x7
 624 0425 7001     		.2byte	0x170
 625 0427 21       		.byte	0x21
 626 0428 2C040000 		.4byte	0x42c
 627 042c 09       		.uleb128 0x9
ARM GAS  C:\Users\DEVELO~1\AppData\Local\Temp\ccj0Zyje.s 			page 12


 628 042d 31040000 		.4byte	0x431
 629 0431 14       		.uleb128 0x14
 630 0432 4F040000 		.4byte	0x44f
 631 0436 4F040000 		.4byte	0x44f
 632 043a 0A       		.uleb128 0xa
 633 043b B5030000 		.4byte	0x3b5
 634 043f 0A       		.uleb128 0xa
 635 0440 BB000000 		.4byte	0xbb
 636 0444 0A       		.uleb128 0xa
 637 0445 BB000000 		.4byte	0xbb
 638 0449 0A       		.uleb128 0xa
 639 044a CC000000 		.4byte	0xcc
 640 044e 00       		.byte	0
 641 044f 09       		.uleb128 0x9
 642 0450 93030000 		.4byte	0x393
 643 0454 11       		.uleb128 0x11
 644 0455 29       		.byte	0x29
 645 0456 B3040000 		.4byte	0x4b3
 646 045a 02       		.uleb128 0x2
 647 045b 80080000 		.4byte	.LASF76
 648 045f 2A       		.byte	0x2a
 649 0460 F0000000 		.4byte	0xf0
 650 0464 00       		.byte	0
 651 0465 02       		.uleb128 0x2
 652 0466 2A050000 		.4byte	.LASF77
 653 046a 2C       		.byte	0x2c
 654 046b F0000000 		.4byte	0xf0
 655 046f 04       		.byte	0x4
 656 0470 02       		.uleb128 0x2
 657 0471 81040000 		.4byte	.LASF78
 658 0475 2D       		.byte	0x2d
 659 0476 F0000000 		.4byte	0xf0
 660 047a 08       		.byte	0x8
 661 047b 02       		.uleb128 0x2
 662 047c A7010000 		.4byte	.LASF79
 663 0480 2E       		.byte	0x2e
 664 0481 F0000000 		.4byte	0xf0
 665 0485 0C       		.byte	0xc
 666 0486 02       		.uleb128 0x2
 667 0487 24010000 		.4byte	.LASF80
 668 048b 30       		.byte	0x30
 669 048c F0000000 		.4byte	0xf0
 670 0490 10       		.byte	0x10
 671 0491 02       		.uleb128 0x2
 672 0492 DD020000 		.4byte	.LASF81
 673 0496 32       		.byte	0x32
 674 0497 F0000000 		.4byte	0xf0
 675 049b 14       		.byte	0x14
 676 049c 02       		.uleb128 0x2
 677 049d E5020000 		.4byte	.LASF82
 678 04a1 33       		.byte	0x33
 679 04a2 F0000000 		.4byte	0xf0
 680 04a6 18       		.byte	0x18
 681 04a7 02       		.uleb128 0x2
 682 04a8 BD030000 		.4byte	.LASF83
 683 04ac 34       		.byte	0x34
 684 04ad F0000000 		.4byte	0xf0
ARM GAS  C:\Users\DEVELO~1\AppData\Local\Temp\ccj0Zyje.s 			page 13


 685 04b1 1C       		.byte	0x1c
 686 04b2 00       		.byte	0
 687 04b3 05       		.uleb128 0x5
 688 04b4 87030000 		.4byte	.LASF84
 689 04b8 09       		.byte	0x9
 690 04b9 35       		.byte	0x35
 691 04ba 03       		.byte	0x3
 692 04bb 54040000 		.4byte	0x454
 693 04bf 11       		.uleb128 0x11
 694 04c0 3A       		.byte	0x3a
 695 04c1 1E050000 		.4byte	0x51e
 696 04c5 02       		.uleb128 0x2
 697 04c6 39040000 		.4byte	.LASF85
 698 04ca 3B       		.byte	0x3b
 699 04cb F0000000 		.4byte	0xf0
 700 04cf 00       		.byte	0
 701 04d0 02       		.uleb128 0x2
 702 04d1 18050000 		.4byte	.LASF86
 703 04d5 3D       		.byte	0x3d
 704 04d6 F0000000 		.4byte	0xf0
 705 04da 04       		.byte	0x4
 706 04db 02       		.uleb128 0x2
 707 04dc 67050000 		.4byte	.LASF87
 708 04e0 3E       		.byte	0x3e
 709 04e1 F0000000 		.4byte	0xf0
 710 04e5 08       		.byte	0x8
 711 04e6 02       		.uleb128 0x2
 712 04e7 60050000 		.4byte	.LASF88
 713 04eb 40       		.byte	0x40
 714 04ec F0000000 		.4byte	0xf0
 715 04f0 0C       		.byte	0xc
 716 04f1 02       		.uleb128 0x2
 717 04f2 A0040000 		.4byte	.LASF89
 718 04f6 41       		.byte	0x41
 719 04f7 F0000000 		.4byte	0xf0
 720 04fb 10       		.byte	0x10
 721 04fc 02       		.uleb128 0x2
 722 04fd DD020000 		.4byte	.LASF81
 723 0501 43       		.byte	0x43
 724 0502 F0000000 		.4byte	0xf0
 725 0506 14       		.byte	0x14
 726 0507 02       		.uleb128 0x2
 727 0508 78080000 		.4byte	.LASF90
 728 050c 44       		.byte	0x44
 729 050d F0000000 		.4byte	0xf0
 730 0511 18       		.byte	0x18
 731 0512 02       		.uleb128 0x2
 732 0513 1D030000 		.4byte	.LASF91
 733 0517 46       		.byte	0x46
 734 0518 F0000000 		.4byte	0xf0
 735 051c 1C       		.byte	0x1c
 736 051d 00       		.byte	0
 737 051e 05       		.uleb128 0x5
 738 051f F8030000 		.4byte	.LASF92
 739 0523 09       		.byte	0x9
 740 0524 47       		.byte	0x47
 741 0525 03       		.byte	0x3
ARM GAS  C:\Users\DEVELO~1\AppData\Local\Temp\ccj0Zyje.s 			page 14


 742 0526 BF040000 		.4byte	0x4bf
 743 052a 11       		.uleb128 0x11
 744 052b 4C       		.byte	0x4c
 745 052c 89050000 		.4byte	0x589
 746 0530 02       		.uleb128 0x2
 747 0531 B6070000 		.4byte	.LASF93
 748 0535 4D       		.byte	0x4d
 749 0536 F0000000 		.4byte	0xf0
 750 053a 00       		.byte	0
 751 053b 02       		.uleb128 0x2
 752 053c 18050000 		.4byte	.LASF86
 753 0540 4F       		.byte	0x4f
 754 0541 F0000000 		.4byte	0xf0
 755 0545 04       		.byte	0x4
 756 0546 02       		.uleb128 0x2
 757 0547 0E010000 		.4byte	.LASF94
 758 054b 50       		.byte	0x50
 759 054c F0000000 		.4byte	0xf0
 760 0550 08       		.byte	0x8
 761 0551 02       		.uleb128 0x2
 762 0552 60050000 		.4byte	.LASF88
 763 0556 52       		.byte	0x52
 764 0557 F0000000 		.4byte	0xf0
 765 055b 0C       		.byte	0xc
 766 055c 02       		.uleb128 0x2
 767 055d 3F030000 		.4byte	.LASF95
 768 0561 53       		.byte	0x53
 769 0562 F0000000 		.4byte	0xf0
 770 0566 10       		.byte	0x10
 771 0567 02       		.uleb128 0x2
 772 0568 DD020000 		.4byte	.LASF81
 773 056c 55       		.byte	0x55
 774 056d F0000000 		.4byte	0xf0
 775 0571 14       		.byte	0x14
 776 0572 02       		.uleb128 0x2
 777 0573 E5020000 		.4byte	.LASF82
 778 0577 56       		.byte	0x56
 779 0578 F0000000 		.4byte	0xf0
 780 057c 18       		.byte	0x18
 781 057d 02       		.uleb128 0x2
 782 057e 1D030000 		.4byte	.LASF91
 783 0582 57       		.byte	0x57
 784 0583 F0000000 		.4byte	0xf0
 785 0587 1C       		.byte	0x1c
 786 0588 00       		.byte	0
 787 0589 05       		.uleb128 0x5
 788 058a 5F080000 		.4byte	.LASF96
 789 058e 09       		.byte	0x9
 790 058f 58       		.byte	0x58
 791 0590 03       		.byte	0x3
 792 0591 2A050000 		.4byte	0x52a
 793 0595 1B       		.uleb128 0x1b
 794 0596 00100100 		.4byte	0x11000
 795 059a 09       		.byte	0x9
 796 059b 5D       		.byte	0x5d
 797 059c 09       		.byte	0x9
 798 059d 3F080000 		.4byte	0x83f
ARM GAS  C:\Users\DEVELO~1\AppData\Local\Temp\ccj0Zyje.s 			page 15


 799 05a1 02       		.uleb128 0x2
 800 05a2 70070000 		.4byte	.LASF97
 801 05a6 5E       		.byte	0x5e
 802 05a7 F0000000 		.4byte	0xf0
 803 05ab 00       		.byte	0
 804 05ac 02       		.uleb128 0x2
 805 05ad 69020000 		.4byte	.LASF98
 806 05b1 5F       		.byte	0x5f
 807 05b2 F0000000 		.4byte	0xf0
 808 05b6 04       		.byte	0x4
 809 05b7 02       		.uleb128 0x2
 810 05b8 54000000 		.4byte	.LASF99
 811 05bc 60       		.byte	0x60
 812 05bd F0000000 		.4byte	0xf0
 813 05c1 08       		.byte	0x8
 814 05c2 02       		.uleb128 0x2
 815 05c3 DE040000 		.4byte	.LASF100
 816 05c7 61       		.byte	0x61
 817 05c8 F0000000 		.4byte	0xf0
 818 05cc 0C       		.byte	0xc
 819 05cd 02       		.uleb128 0x2
 820 05ce AB030000 		.4byte	.LASF101
 821 05d2 62       		.byte	0x62
 822 05d3 F0000000 		.4byte	0xf0
 823 05d7 10       		.byte	0x10
 824 05d8 02       		.uleb128 0x2
 825 05d9 37030000 		.4byte	.LASF102
 826 05dd 63       		.byte	0x63
 827 05de F0000000 		.4byte	0xf0
 828 05e2 14       		.byte	0x14
 829 05e3 02       		.uleb128 0x2
 830 05e4 AE020000 		.4byte	.LASF103
 831 05e8 64       		.byte	0x64
 832 05e9 F0000000 		.4byte	0xf0
 833 05ed 18       		.byte	0x18
 834 05ee 02       		.uleb128 0x2
 835 05ef 13040000 		.4byte	.LASF104
 836 05f3 65       		.byte	0x65
 837 05f4 F0000000 		.4byte	0xf0
 838 05f8 1C       		.byte	0x1c
 839 05f9 02       		.uleb128 0x2
 840 05fa 41070000 		.4byte	.LASF105
 841 05fe 67       		.byte	0x67
 842 05ff F0000000 		.4byte	0xf0
 843 0603 20       		.byte	0x20
 844 0604 02       		.uleb128 0x2
 845 0605 89000000 		.4byte	.LASF106
 846 0609 69       		.byte	0x69
 847 060a F0000000 		.4byte	0xf0
 848 060e 24       		.byte	0x24
 849 060f 02       		.uleb128 0x2
 850 0610 C3010000 		.4byte	.LASF107
 851 0614 6A       		.byte	0x6a
 852 0615 F0000000 		.4byte	0xf0
 853 0619 28       		.byte	0x28
 854 061a 02       		.uleb128 0x2
 855 061b C2080000 		.4byte	.LASF108
ARM GAS  C:\Users\DEVELO~1\AppData\Local\Temp\ccj0Zyje.s 			page 16


 856 061f 6C       		.byte	0x6c
 857 0620 F0000000 		.4byte	0xf0
 858 0624 2C       		.byte	0x2c
 859 0625 02       		.uleb128 0x2
 860 0626 ED040000 		.4byte	.LASF109
 861 062a 6E       		.byte	0x6e
 862 062b F0000000 		.4byte	0xf0
 863 062f 30       		.byte	0x30
 864 0630 02       		.uleb128 0x2
 865 0631 10050000 		.4byte	.LASF110
 866 0635 6F       		.byte	0x6f
 867 0636 F0000000 		.4byte	0xf0
 868 063a 34       		.byte	0x34
 869 063b 02       		.uleb128 0x2
 870 063c 72080000 		.4byte	.LASF111
 871 0640 70       		.byte	0x70
 872 0641 F0000000 		.4byte	0xf0
 873 0645 38       		.byte	0x38
 874 0646 1C       		.uleb128 0x1c
 875 0647 43494400 		.ascii	"CID\000"
 876 064b 09       		.byte	0x9
 877 064c 71       		.byte	0x71
 878 064d 15       		.byte	0x15
 879 064e F0000000 		.4byte	0xf0
 880 0652 3C       		.byte	0x3c
 881 0653 02       		.uleb128 0x2
 882 0654 08080000 		.4byte	.LASF112
 883 0658 72       		.byte	0x72
 884 0659 4F080000 		.4byte	0x84f
 885 065d 40       		.byte	0x40
 886 065e 03       		.uleb128 0x3
 887 065f 1B040000 		.4byte	.LASF113
 888 0663 73       		.byte	0x73
 889 0664 F0000000 		.4byte	0xf0
 890 0668 0001     		.2byte	0x100
 891 066a 03       		.uleb128 0x3
 892 066b 90080000 		.4byte	.LASF114
 893 066f 75       		.byte	0x75
 894 0670 53010000 		.4byte	0x153
 895 0674 0401     		.2byte	0x104
 896 0676 03       		.uleb128 0x3
 897 0677 27060000 		.4byte	.LASF115
 898 067b 77       		.byte	0x77
 899 067c 64080000 		.4byte	0x864
 900 0680 4001     		.2byte	0x140
 901 0682 03       		.uleb128 0x3
 902 0683 69060000 		.4byte	.LASF116
 903 0687 78       		.byte	0x78
 904 0688 F0000000 		.4byte	0xf0
 905 068c 0004     		.2byte	0x400
 906 068e 03       		.uleb128 0x3
 907 068f B0010000 		.4byte	.LASF117
 908 0693 79       		.byte	0x79
 909 0694 F0000000 		.4byte	0xf0
 910 0698 0404     		.2byte	0x404
 911 069a 03       		.uleb128 0x3
 912 069b 05020000 		.4byte	.LASF118
ARM GAS  C:\Users\DEVELO~1\AppData\Local\Temp\ccj0Zyje.s 			page 17


 913 069f 7A       		.byte	0x7a
 914 06a0 F0000000 		.4byte	0xf0
 915 06a4 0804     		.2byte	0x408
 916 06a6 03       		.uleb128 0x3
 917 06a7 F9050000 		.4byte	.LASF119
 918 06ab 7C       		.byte	0x7c
 919 06ac F0000000 		.4byte	0xf0
 920 06b0 0C04     		.2byte	0x40c
 921 06b2 03       		.uleb128 0x3
 922 06b3 E8050000 		.4byte	.LASF120
 923 06b7 7D       		.byte	0x7d
 924 06b8 F0000000 		.4byte	0xf0
 925 06bc 1004     		.2byte	0x410
 926 06be 03       		.uleb128 0x3
 927 06bf 48060000 		.4byte	.LASF121
 928 06c3 7F       		.byte	0x7f
 929 06c4 F0000000 		.4byte	0xf0
 930 06c8 1404     		.2byte	0x414
 931 06ca 03       		.uleb128 0x3
 932 06cb 34010000 		.4byte	.LASF122
 933 06cf 81       		.byte	0x81
 934 06d0 F0000000 		.4byte	0xf0
 935 06d4 1804     		.2byte	0x418
 936 06d6 03       		.uleb128 0x3
 937 06d7 AD070000 		.4byte	.LASF123
 938 06db 83       		.byte	0x83
 939 06dc 79080000 		.4byte	0x879
 940 06e0 1C04     		.2byte	0x41c
 941 06e2 03       		.uleb128 0x3
 942 06e3 28000000 		.4byte	.LASF124
 943 06e7 84       		.byte	0x84
 944 06e8 F0000000 		.4byte	0xf0
 945 06ec 4004     		.2byte	0x440
 946 06ee 03       		.uleb128 0x3
 947 06ef F3010000 		.4byte	.LASF125
 948 06f3 86       		.byte	0x86
 949 06f4 8E080000 		.4byte	0x88e
 950 06f8 4404     		.2byte	0x444
 951 06fa 12       		.uleb128 0x12
 952 06fb 686300   		.ascii	"hc\000"
 953 06fe 87       		.byte	0x87
 954 06ff 18       		.byte	0x18
 955 0700 93080000 		.4byte	0x893
 956 0704 0005     		.2byte	0x500
 957 0706 03       		.uleb128 0x3
 958 0707 2B010000 		.4byte	.LASF126
 959 070b 88       		.byte	0x88
 960 070c B3080000 		.4byte	0x8b3
 961 0710 0007     		.2byte	0x700
 962 0712 03       		.uleb128 0x3
 963 0713 A8000000 		.4byte	.LASF127
 964 0717 89       		.byte	0x89
 965 0718 F0000000 		.4byte	0xf0
 966 071c 0008     		.2byte	0x800
 967 071e 03       		.uleb128 0x3
 968 071f 7E000000 		.4byte	.LASF128
 969 0723 8A       		.byte	0x8a
ARM GAS  C:\Users\DEVELO~1\AppData\Local\Temp\ccj0Zyje.s 			page 18


 970 0724 F0000000 		.4byte	0xf0
 971 0728 0408     		.2byte	0x804
 972 072a 03       		.uleb128 0x3
 973 072b DD010000 		.4byte	.LASF129
 974 072f 8B       		.byte	0x8b
 975 0730 F0000000 		.4byte	0xf0
 976 0734 0808     		.2byte	0x808
 977 0736 03       		.uleb128 0x3
 978 0737 CB080000 		.4byte	.LASF130
 979 073b 8C       		.byte	0x8c
 980 073c F0000000 		.4byte	0xf0
 981 0740 0C08     		.2byte	0x80c
 982 0742 03       		.uleb128 0x3
 983 0743 A9040000 		.4byte	.LASF131
 984 0747 8D       		.byte	0x8d
 985 0748 F0000000 		.4byte	0xf0
 986 074c 1008     		.2byte	0x810
 987 074e 03       		.uleb128 0x3
 988 074f 3C080000 		.4byte	.LASF132
 989 0753 8F       		.byte	0x8f
 990 0754 F0000000 		.4byte	0xf0
 991 0758 1408     		.2byte	0x814
 992 075a 03       		.uleb128 0x3
 993 075b 3B020000 		.4byte	.LASF133
 994 075f 91       		.byte	0x91
 995 0760 F0000000 		.4byte	0xf0
 996 0764 1808     		.2byte	0x818
 997 0766 03       		.uleb128 0x3
 998 0767 41000000 		.4byte	.LASF134
 999 076b 93       		.byte	0x93
 1000 076c F0000000 		.4byte	0xf0
 1001 0770 1C08     		.2byte	0x81c
 1002 0772 03       		.uleb128 0x3
 1003 0773 FC010000 		.4byte	.LASF135
 1004 0777 95       		.byte	0x95
 1005 0778 F0000000 		.4byte	0xf0
 1006 077c 2008     		.2byte	0x820
 1007 077e 03       		.uleb128 0x3
 1008 077f 18020000 		.4byte	.LASF136
 1009 0783 96       		.byte	0x96
 1010 0784 F0000000 		.4byte	0xf0
 1011 0788 2408     		.2byte	0x824
 1012 078a 03       		.uleb128 0x3
 1013 078b 9C070000 		.4byte	.LASF137
 1014 078f 97       		.byte	0x97
 1015 0790 F0000000 		.4byte	0xf0
 1016 0794 2808     		.2byte	0x828
 1017 0796 03       		.uleb128 0x3
 1018 0797 D1050000 		.4byte	.LASF138
 1019 079b 99       		.byte	0x99
 1020 079c F0000000 		.4byte	0xf0
 1021 07a0 2C08     		.2byte	0x82c
 1022 07a2 03       		.uleb128 0x3
 1023 07a3 C5020000 		.4byte	.LASF139
 1024 07a7 9B       		.byte	0x9b
 1025 07a8 F0000000 		.4byte	0xf0
 1026 07ac 3008     		.2byte	0x830
ARM GAS  C:\Users\DEVELO~1\AppData\Local\Temp\ccj0Zyje.s 			page 19


 1027 07ae 03       		.uleb128 0x3
 1028 07af 2D000000 		.4byte	.LASF140
 1029 07b3 9C       		.byte	0x9c
 1030 07b4 F0000000 		.4byte	0xf0
 1031 07b8 3408     		.2byte	0x834
 1032 07ba 03       		.uleb128 0x3
 1033 07bb F9020000 		.4byte	.LASF141
 1034 07bf 9E       		.byte	0x9e
 1035 07c0 F0000000 		.4byte	0xf0
 1036 07c4 3808     		.2byte	0x838
 1037 07c6 03       		.uleb128 0x3
 1038 07c7 25030000 		.4byte	.LASF142
 1039 07cb 9F       		.byte	0x9f
 1040 07cc F0000000 		.4byte	0xf0
 1041 07d0 3C08     		.2byte	0x83c
 1042 07d2 03       		.uleb128 0x3
 1043 07d3 0A040000 		.4byte	.LASF143
 1044 07d7 A0       		.byte	0xa0
 1045 07d8 3E010000 		.4byte	0x13e
 1046 07dc 4008     		.2byte	0x840
 1047 07de 03       		.uleb128 0x3
 1048 07df 06000000 		.4byte	.LASF144
 1049 07e3 A1       		.byte	0xa1
 1050 07e4 3E010000 		.4byte	0x13e
 1051 07e8 8008     		.2byte	0x880
 1052 07ea 03       		.uleb128 0x3
 1053 07eb 67070000 		.4byte	.LASF145
 1054 07ef A2       		.byte	0xa2
 1055 07f0 3E010000 		.4byte	0x13e
 1056 07f4 C008     		.2byte	0x8c0
 1057 07f6 12       		.uleb128 0x12
 1058 07f7 696500   		.ascii	"ie\000"
 1059 07fa A3       		.byte	0xa3
 1060 07fb 15       		.byte	0x15
 1061 07fc B8080000 		.4byte	0x8b8
 1062 0800 0009     		.2byte	0x900
 1063 0802 12       		.uleb128 0x12
 1064 0803 6F6500   		.ascii	"oe\000"
 1065 0806 A4       		.byte	0xa4
 1066 0807 16       		.byte	0x16
 1067 0808 C8080000 		.4byte	0x8c8
 1068 080c 000B     		.2byte	0xb00
 1069 080e 03       		.uleb128 0x3
 1070 080f 79060000 		.4byte	.LASF146
 1071 0813 A5       		.byte	0xa5
 1072 0814 B3080000 		.4byte	0x8b3
 1073 0818 000D     		.2byte	0xd00
 1074 081a 03       		.uleb128 0x3
 1075 081b BD020000 		.4byte	.LASF147
 1076 081f A6       		.byte	0xa6
 1077 0820 F0000000 		.4byte	0xf0
 1078 0824 000E     		.2byte	0xe00
 1079 0826 03       		.uleb128 0x3
 1080 0827 07050000 		.4byte	.LASF148
 1081 082b A8       		.byte	0xa8
 1082 082c E8080000 		.4byte	0x8e8
 1083 0830 040E     		.2byte	0xe04
ARM GAS  C:\Users\DEVELO~1\AppData\Local\Temp\ccj0Zyje.s 			page 20


 1084 0832 03       		.uleb128 0x3
 1085 0833 6B030000 		.4byte	.LASF149
 1086 0837 A9       		.byte	0xa9
 1087 0838 04090000 		.4byte	0x904
 1088 083c 0010     		.2byte	0x1000
 1089 083e 00       		.byte	0
 1090 083f 07       		.uleb128 0x7
 1091 0840 F0000000 		.4byte	0xf0
 1092 0844 4F080000 		.4byte	0x84f
 1093 0848 08       		.uleb128 0x8
 1094 0849 39000000 		.4byte	0x39
 1095 084d 2F       		.byte	0x2f
 1096 084e 00       		.byte	0
 1097 084f 0C       		.uleb128 0xc
 1098 0850 3F080000 		.4byte	0x83f
 1099 0854 07       		.uleb128 0x7
 1100 0855 F0000000 		.4byte	0xf0
 1101 0859 64080000 		.4byte	0x864
 1102 085d 08       		.uleb128 0x8
 1103 085e 39000000 		.4byte	0x39
 1104 0862 AF       		.byte	0xaf
 1105 0863 00       		.byte	0
 1106 0864 0C       		.uleb128 0xc
 1107 0865 54080000 		.4byte	0x854
 1108 0869 07       		.uleb128 0x7
 1109 086a F0000000 		.4byte	0xf0
 1110 086e 79080000 		.4byte	0x879
 1111 0872 08       		.uleb128 0x8
 1112 0873 39000000 		.4byte	0x39
 1113 0877 08       		.byte	0x8
 1114 0878 00       		.byte	0
 1115 0879 0C       		.uleb128 0xc
 1116 087a 69080000 		.4byte	0x869
 1117 087e 07       		.uleb128 0x7
 1118 087f F0000000 		.4byte	0xf0
 1119 0883 8E080000 		.4byte	0x88e
 1120 0887 08       		.uleb128 0x8
 1121 0888 39000000 		.4byte	0x39
 1122 088c 2E       		.byte	0x2e
 1123 088d 00       		.byte	0
 1124 088e 0C       		.uleb128 0xc
 1125 088f 7E080000 		.4byte	0x87e
 1126 0893 07       		.uleb128 0x7
 1127 0894 B3040000 		.4byte	0x4b3
 1128 0898 A3080000 		.4byte	0x8a3
 1129 089c 08       		.uleb128 0x8
 1130 089d 39000000 		.4byte	0x39
 1131 08a1 0F       		.byte	0xf
 1132 08a2 00       		.byte	0
 1133 08a3 07       		.uleb128 0x7
 1134 08a4 F0000000 		.4byte	0xf0
 1135 08a8 B3080000 		.4byte	0x8b3
 1136 08ac 08       		.uleb128 0x8
 1137 08ad 39000000 		.4byte	0x39
 1138 08b1 3F       		.byte	0x3f
 1139 08b2 00       		.byte	0
 1140 08b3 0C       		.uleb128 0xc
ARM GAS  C:\Users\DEVELO~1\AppData\Local\Temp\ccj0Zyje.s 			page 21


 1141 08b4 A3080000 		.4byte	0x8a3
 1142 08b8 07       		.uleb128 0x7
 1143 08b9 1E050000 		.4byte	0x51e
 1144 08bd C8080000 		.4byte	0x8c8
 1145 08c1 08       		.uleb128 0x8
 1146 08c2 39000000 		.4byte	0x39
 1147 08c6 0F       		.byte	0xf
 1148 08c7 00       		.byte	0
 1149 08c8 07       		.uleb128 0x7
 1150 08c9 89050000 		.4byte	0x589
 1151 08cd D8080000 		.4byte	0x8d8
 1152 08d1 08       		.uleb128 0x8
 1153 08d2 39000000 		.4byte	0x39
 1154 08d6 0F       		.byte	0xf
 1155 08d7 00       		.byte	0
 1156 08d8 07       		.uleb128 0x7
 1157 08d9 F0000000 		.4byte	0xf0
 1158 08dd E8080000 		.4byte	0x8e8
 1159 08e1 08       		.uleb128 0x8
 1160 08e2 39000000 		.4byte	0x39
 1161 08e6 7E       		.byte	0x7e
 1162 08e7 00       		.byte	0
 1163 08e8 0C       		.uleb128 0xc
 1164 08e9 D8080000 		.4byte	0x8d8
 1165 08ed 07       		.uleb128 0x7
 1166 08ee F0000000 		.4byte	0xf0
 1167 08f2 04090000 		.4byte	0x904
 1168 08f6 08       		.uleb128 0x8
 1169 08f7 39000000 		.4byte	0x39
 1170 08fb 0F       		.byte	0xf
 1171 08fc 1D       		.uleb128 0x1d
 1172 08fd 39000000 		.4byte	0x39
 1173 0901 FF03     		.2byte	0x3ff
 1174 0903 00       		.byte	0
 1175 0904 0C       		.uleb128 0xc
 1176 0905 ED080000 		.4byte	0x8ed
 1177 0909 05       		.uleb128 0x5
 1178 090a 84010000 		.4byte	.LASF150
 1179 090e 09       		.byte	0x9
 1180 090f AA       		.byte	0xaa
 1181 0910 03       		.byte	0x3
 1182 0911 95050000 		.4byte	0x595
 1183 0915 0D       		.uleb128 0xd
 1184 0916 0C       		.byte	0xc
 1185 0917 08       		.byte	0x8
 1186 0918 0401     		.2byte	0x104
 1187 091a 49090000 		.4byte	0x949
 1188 091e 01       		.uleb128 0x1
 1189 091f 81050000 		.4byte	.LASF151
 1190 0923 08       		.byte	0x8
 1191 0924 0501     		.2byte	0x105
 1192 0926 21       		.byte	0x21
 1193 0927 E4000000 		.4byte	0xe4
 1194 092b 00       		.byte	0
 1195 092c 01       		.uleb128 0x1
 1196 092d 65010000 		.4byte	.LASF152
 1197 0931 08       		.byte	0x8
ARM GAS  C:\Users\DEVELO~1\AppData\Local\Temp\ccj0Zyje.s 			page 22


 1198 0932 0601     		.2byte	0x106
 1199 0934 21       		.byte	0x21
 1200 0935 E4000000 		.4byte	0xe4
 1201 0939 04       		.byte	0x4
 1202 093a 01       		.uleb128 0x1
 1203 093b 2B040000 		.4byte	.LASF153
 1204 093f 08       		.byte	0x8
 1205 0940 0701     		.2byte	0x107
 1206 0942 21       		.byte	0x21
 1207 0943 E4000000 		.4byte	0xe4
 1208 0947 08       		.byte	0x8
 1209 0948 00       		.byte	0
 1210 0949 06       		.uleb128 0x6
 1211 094a 48030000 		.4byte	.LASF154
 1212 094e 08       		.byte	0x8
 1213 094f 0801     		.2byte	0x108
 1214 0951 03       		.byte	0x3
 1215 0952 15090000 		.4byte	0x915
 1216 0956 0E       		.uleb128 0xe
 1217 0957 49090000 		.4byte	0x949
 1218 095b 0D       		.uleb128 0xd
 1219 095c 10       		.byte	0x10
 1220 095d 08       		.byte	0x8
 1221 095e 0D01     		.2byte	0x10d
 1222 0960 9D090000 		.4byte	0x99d
 1223 0964 01       		.uleb128 0x1
 1224 0965 24040000 		.4byte	.LASF155
 1225 0969 08       		.byte	0x8
 1226 096a 1101     		.2byte	0x111
 1227 096c 21       		.byte	0x21
 1228 096d 2D000000 		.4byte	0x2d
 1229 0971 00       		.byte	0
 1230 0972 01       		.uleb128 0x1
 1231 0973 BE070000 		.4byte	.LASF156
 1232 0977 08       		.byte	0x8
 1233 0978 1501     		.2byte	0x115
 1234 097a 21       		.byte	0x21
 1235 097b 2D000000 		.4byte	0x2d
 1236 097f 04       		.byte	0x4
 1237 0980 01       		.uleb128 0x1
 1238 0981 A0020000 		.4byte	.LASF157
 1239 0985 08       		.byte	0x8
 1240 0986 1901     		.2byte	0x119
 1241 0988 22       		.byte	0x22
 1242 0989 69010000 		.4byte	0x169
 1243 098d 08       		.byte	0x8
 1244 098e 01       		.uleb128 0x1
 1245 098f 4F020000 		.4byte	.LASF158
 1246 0993 08       		.byte	0x8
 1247 0994 2401     		.2byte	0x124
 1248 0996 21       		.byte	0x21
 1249 0997 2D000000 		.4byte	0x2d
 1250 099b 0C       		.byte	0xc
 1251 099c 00       		.byte	0
 1252 099d 06       		.uleb128 0x6
 1253 099e 10080000 		.4byte	.LASF159
 1254 09a2 08       		.byte	0x8
ARM GAS  C:\Users\DEVELO~1\AppData\Local\Temp\ccj0Zyje.s 			page 23


 1255 09a3 2501     		.2byte	0x125
 1256 09a5 03       		.byte	0x3
 1257 09a6 5B090000 		.4byte	0x95b
 1258 09aa 0D       		.uleb128 0xd
 1259 09ab 10       		.byte	0x10
 1260 09ac 08       		.byte	0x8
 1261 09ad 2A01     		.2byte	0x12a
 1262 09af EC090000 		.4byte	0x9ec
 1263 09b3 01       		.uleb128 0x1
 1264 09b4 35080000 		.4byte	.LASF160
 1265 09b8 08       		.byte	0x8
 1266 09b9 2E01     		.2byte	0x12e
 1267 09bb 21       		.byte	0x21
 1268 09bc 2D000000 		.4byte	0x2d
 1269 09c0 00       		.byte	0
 1270 09c1 01       		.uleb128 0x1
 1271 09c2 00000000 		.4byte	.LASF161
 1272 09c6 08       		.byte	0x8
 1273 09c7 3201     		.2byte	0x132
 1274 09c9 21       		.byte	0x21
 1275 09ca 2D000000 		.4byte	0x2d
 1276 09ce 04       		.byte	0x4
 1277 09cf 01       		.uleb128 0x1
 1278 09d0 83000000 		.4byte	.LASF162
 1279 09d4 08       		.byte	0x8
 1280 09d5 3601     		.2byte	0x136
 1281 09d7 22       		.byte	0x22
 1282 09d8 64010000 		.4byte	0x164
 1283 09dc 08       		.byte	0x8
 1284 09dd 01       		.uleb128 0x1
 1285 09de 4F020000 		.4byte	.LASF158
 1286 09e2 08       		.byte	0x8
 1287 09e3 4101     		.2byte	0x141
 1288 09e5 21       		.byte	0x21
 1289 09e6 2D000000 		.4byte	0x2d
 1290 09ea 0C       		.byte	0xc
 1291 09eb 00       		.byte	0
 1292 09ec 06       		.uleb128 0x6
 1293 09ed 6D040000 		.4byte	.LASF163
 1294 09f1 08       		.byte	0x8
 1295 09f2 4201     		.2byte	0x142
 1296 09f4 03       		.byte	0x3
 1297 09f5 AA090000 		.4byte	0x9aa
 1298 09f9 0D       		.uleb128 0xd
 1299 09fa 24       		.byte	0x24
 1300 09fb 08       		.byte	0x8
 1301 09fc 4801     		.2byte	0x148
 1302 09fe 8F0A0000 		.4byte	0xa8f
 1303 0a02 01       		.uleb128 0x1
 1304 0a03 A5070000 		.4byte	.LASF164
 1305 0a07 08       		.byte	0x8
 1306 0a08 4C01     		.2byte	0x14c
 1307 0a0a 21       		.byte	0x21
 1308 0a0b E4000000 		.4byte	0xe4
 1309 0a0f 00       		.byte	0
 1310 0a10 01       		.uleb128 0x1
 1311 0a11 D5040000 		.4byte	.LASF165
ARM GAS  C:\Users\DEVELO~1\AppData\Local\Temp\ccj0Zyje.s 			page 24


 1312 0a15 08       		.byte	0x8
 1313 0a16 5701     		.2byte	0x157
 1314 0a18 21       		.byte	0x21
 1315 0a19 BA030000 		.4byte	0x3ba
 1316 0a1d 04       		.byte	0x4
 1317 0a1e 01       		.uleb128 0x1
 1318 0a1f 0F030000 		.4byte	.LASF166
 1319 0a23 08       		.byte	0x8
 1320 0a24 5C01     		.2byte	0x15c
 1321 0a26 21       		.byte	0x21
 1322 0a27 BA030000 		.4byte	0x3ba
 1323 0a2b 08       		.byte	0x8
 1324 0a2c 01       		.uleb128 0x1
 1325 0a2d 1A000000 		.4byte	.LASF167
 1326 0a31 08       		.byte	0x8
 1327 0a32 6101     		.2byte	0x161
 1328 0a34 21       		.byte	0x21
 1329 0a35 BA030000 		.4byte	0x3ba
 1330 0a39 0C       		.byte	0xc
 1331 0a3a 01       		.uleb128 0x1
 1332 0a3b 1F050000 		.4byte	.LASF168
 1333 0a3f 08       		.byte	0x8
 1334 0a40 6601     		.2byte	0x166
 1335 0a42 21       		.byte	0x21
 1336 0a43 CC000000 		.4byte	0xcc
 1337 0a47 10       		.byte	0x10
 1338 0a48 01       		.uleb128 0x1
 1339 0a49 E5070000 		.4byte	.LASF169
 1340 0a4d 08       		.byte	0x8
 1341 0a4e 6B01     		.2byte	0x16b
 1342 0a50 21       		.byte	0x21
 1343 0a51 CC000000 		.4byte	0xcc
 1344 0a55 12       		.byte	0x12
 1345 0a56 01       		.uleb128 0x1
 1346 0a57 F0050000 		.4byte	.LASF170
 1347 0a5b 08       		.byte	0x8
 1348 0a5c 7101     		.2byte	0x171
 1349 0a5e 22       		.byte	0x22
 1350 0a5f 8F0A0000 		.4byte	0xa8f
 1351 0a63 14       		.byte	0x14
 1352 0a64 01       		.uleb128 0x1
 1353 0a65 49040000 		.4byte	.LASF171
 1354 0a69 08       		.byte	0x8
 1355 0a6a 7701     		.2byte	0x177
 1356 0a6c 22       		.byte	0x22
 1357 0a6d 940A0000 		.4byte	0xa94
 1358 0a71 18       		.byte	0x18
 1359 0a72 01       		.uleb128 0x1
 1360 0a73 B4080000 		.4byte	.LASF172
 1361 0a77 08       		.byte	0x8
 1362 0a78 7E01     		.2byte	0x17e
 1363 0a7a 21       		.byte	0x21
 1364 0a7b CC000000 		.4byte	0xcc
 1365 0a7f 1C       		.byte	0x1c
 1366 0a80 01       		.uleb128 0x1
 1367 0a81 53040000 		.4byte	.LASF173
 1368 0a85 08       		.byte	0x8
ARM GAS  C:\Users\DEVELO~1\AppData\Local\Temp\ccj0Zyje.s 			page 25


 1369 0a86 8401     		.2byte	0x184
 1370 0a88 22       		.byte	0x22
 1371 0a89 64010000 		.4byte	0x164
 1372 0a8d 20       		.byte	0x20
 1373 0a8e 00       		.byte	0
 1374 0a8f 09       		.uleb128 0x9
 1375 0a90 9D090000 		.4byte	0x99d
 1376 0a94 09       		.uleb128 0x9
 1377 0a95 EC090000 		.4byte	0x9ec
 1378 0a99 06       		.uleb128 0x6
 1379 0a9a B8040000 		.4byte	.LASF174
 1380 0a9e 08       		.byte	0x8
 1381 0a9f 8501     		.2byte	0x185
 1382 0aa1 03       		.byte	0x3
 1383 0aa2 F9090000 		.4byte	0x9f9
 1384 0aa6 0E       		.uleb128 0xe
 1385 0aa7 990A0000 		.4byte	0xa99
 1386 0aab 0D       		.uleb128 0xd
 1387 0aac 10       		.byte	0x10
 1388 0aad 08       		.byte	0x8
 1389 0aae 8A01     		.2byte	0x18a
 1390 0ab0 ED0A0000 		.4byte	0xaed
 1391 0ab4 01       		.uleb128 0x1
 1392 0ab5 2E030000 		.4byte	.LASF175
 1393 0ab9 08       		.byte	0x8
 1394 0aba 8F01     		.2byte	0x18f
 1395 0abc 21       		.byte	0x21
 1396 0abd DC030000 		.4byte	0x3dc
 1397 0ac1 00       		.byte	0
 1398 0ac2 01       		.uleb128 0x1
 1399 0ac3 A0050000 		.4byte	.LASF176
 1400 0ac7 08       		.byte	0x8
 1401 0ac8 9401     		.2byte	0x194
 1402 0aca 21       		.byte	0x21
 1403 0acb 1F040000 		.4byte	0x41f
 1404 0acf 04       		.byte	0x4
 1405 0ad0 01       		.uleb128 0x1
 1406 0ad1 D3030000 		.4byte	.LASF177
 1407 0ad5 08       		.byte	0x8
 1408 0ad6 9A01     		.2byte	0x19a
 1409 0ad8 21       		.byte	0x21
 1410 0ad9 FE030000 		.4byte	0x3fe
 1411 0add 08       		.byte	0x8
 1412 0ade 01       		.uleb128 0x1
 1413 0adf B1040000 		.4byte	.LASF178
 1414 0ae3 08       		.byte	0x8
 1415 0ae4 9E01     		.2byte	0x19e
 1416 0ae6 21       		.byte	0x21
 1417 0ae7 98030000 		.4byte	0x398
 1418 0aeb 0C       		.byte	0xc
 1419 0aec 00       		.byte	0
 1420 0aed 06       		.uleb128 0x6
 1421 0aee 1D060000 		.4byte	.LASF179
 1422 0af2 08       		.byte	0x8
 1423 0af3 A001     		.2byte	0x1a0
 1424 0af5 03       		.byte	0x3
 1425 0af6 AB0A0000 		.4byte	0xaab
ARM GAS  C:\Users\DEVELO~1\AppData\Local\Temp\ccj0Zyje.s 			page 26


 1426 0afa 0E       		.uleb128 0xe
 1427 0afb ED0A0000 		.4byte	0xaed
 1428 0aff 09       		.uleb128 0x9
 1429 0b00 FA0A0000 		.4byte	0xafa
 1430 0b04 07       		.uleb128 0x7
 1431 0b05 140B0000 		.4byte	0xb14
 1432 0b09 140B0000 		.4byte	0xb14
 1433 0b0d 08       		.uleb128 0x8
 1434 0b0e 39000000 		.4byte	0x39
 1435 0b12 08       		.byte	0x8
 1436 0b13 00       		.byte	0
 1437 0b14 09       		.uleb128 0x9
 1438 0b15 A60A0000 		.4byte	0xaa6
 1439 0b19 07       		.uleb128 0x7
 1440 0b1a 2C010000 		.4byte	0x12c
 1441 0b1e 290B0000 		.4byte	0xb29
 1442 0b22 08       		.uleb128 0x8
 1443 0b23 39000000 		.4byte	0x39
 1444 0b27 07       		.byte	0x7
 1445 0b28 00       		.byte	0
 1446 0b29 07       		.uleb128 0x7
 1447 0b2a BB000000 		.4byte	0xbb
 1448 0b2e 390B0000 		.4byte	0xb39
 1449 0b32 08       		.uleb128 0x8
 1450 0b33 39000000 		.4byte	0x39
 1451 0b37 07       		.byte	0x7
 1452 0b38 00       		.byte	0
 1453 0b39 09       		.uleb128 0x9
 1454 0b3a 09090000 		.4byte	0x909
 1455 0b3e 09       		.uleb128 0x9
 1456 0b3f 56090000 		.4byte	0x956
 1457 0b43 1E       		.uleb128 0x1e
 1458 0b44 96070000 		.4byte	.LASF180
 1459 0b48 08       		.byte	0x8
 1460 0b49 4102     		.2byte	0x241
 1461 0b4b 12       		.byte	0x12
 1462 0b4c 6E010000 		.4byte	0x16e
 1463 0b50 15       		.uleb128 0x15
 1464 0b51 B2050000 		.4byte	.LASF181
 1465 0b55 43       		.byte	0x43
 1466 0b56 16       		.byte	0x16
 1467 0b57 5F010000 		.4byte	0x15f
 1468 0b5b 15       		.uleb128 0x15
 1469 0b5c 41060000 		.4byte	.LASF182
 1470 0b60 56       		.byte	0x56
 1471 0b61 18       		.byte	0x18
 1472 0b62 FA0A0000 		.4byte	0xafa
 1473 0b66 1F       		.uleb128 0x1f
 1474 0b67 7F020000 		.4byte	.LASF186
 1475 0b6b 07       		.byte	0x7
 1476 0b6c 5F02     		.2byte	0x25f
 1477 0b6e 09       		.byte	0x9
 1478 0b6f 01010000 		.4byte	0x101
 1479 0b73 820B0000 		.4byte	0xb82
 1480 0b77 0A       		.uleb128 0xa
 1481 0b78 B5030000 		.4byte	0x3b5
 1482 0b7c 0A       		.uleb128 0xa
ARM GAS  C:\Users\DEVELO~1\AppData\Local\Temp\ccj0Zyje.s 			page 27


 1483 0b7d FF0A0000 		.4byte	0xaff
 1484 0b81 00       		.byte	0
 1485 0b82 20       		.uleb128 0x20
 1486 0b83 0F000000 		.4byte	.LASF187
 1487 0b87 0B       		.byte	0xb
 1488 0b88 4201     		.2byte	0x142
 1489 0b8a 08       		.byte	0x8
 1490 0b8b 950B0000 		.4byte	0xb95
 1491 0b8f 0A       		.uleb128 0xa
 1492 0b90 14010000 		.4byte	0x114
 1493 0b94 00       		.byte	0
 1494 0b95 21       		.uleb128 0x21
 1495 0b96 8E050000 		.4byte	.LASF188
 1496 0b9a 01       		.byte	0x1
 1497 0b9b 52       		.byte	0x52
 1498 0b9c 06       		.byte	0x6
 1499 0b9d 58010000 		.4byte	0x158
 1500 0ba1 00000000 		.4byte	.LFB433
 1501 0ba5 0C000000 		.4byte	.LFE433-.LFB433
 1502 0ba9 01       		.uleb128 0x1
 1503 0baa 9C       		.byte	0x9c
 1504 0bab 22       		.uleb128 0x22
 1505 0bac 44080000 		.4byte	.LASF189
 1506 0bb0 01       		.byte	0x1
 1507 0bb1 30       		.byte	0x30
 1508 0bb2 06       		.byte	0x6
 1509 0bb3 00000000 		.4byte	.LFB432
 1510 0bb7 40000000 		.4byte	.LFE432-.LFB432
 1511 0bbb 01       		.uleb128 0x1
 1512 0bbc 9C       		.byte	0x9c
 1513 0bbd 23       		.uleb128 0x23
 1514 0bbe 1C000000 		.4byte	.LVL0
 1515 0bc2 820B0000 		.4byte	0xb82
 1516 0bc6 D20B0000 		.4byte	0xbd2
 1517 0bca 16       		.uleb128 0x16
 1518 0bcb 01       		.uleb128 0x1
 1519 0bcc 50       		.byte	0x50
 1520 0bcd 03       		.uleb128 0x3
 1521 0bce 0A       		.byte	0xa
 1522 0bcf 983A     		.2byte	0x3a98
 1523 0bd1 00       		.byte	0
 1524 0bd2 24       		.uleb128 0x24
 1525 0bd3 24000000 		.4byte	.LVL1
 1526 0bd7 660B0000 		.4byte	0xb66
 1527 0bdb 16       		.uleb128 0x16
 1528 0bdc 01       		.uleb128 0x1
 1529 0bdd 50       		.byte	0x50
 1530 0bde 02       		.uleb128 0x2
 1531 0bdf 74       		.byte	0x74
 1532 0be0 00       		.sleb128 0
 1533 0be1 00       		.byte	0
 1534 0be2 00       		.byte	0
 1535 0be3 00       		.byte	0
 1536              		.section	.debug_abbrev,"",%progbits
 1537              	.Ldebug_abbrev0:
 1538 0000 01       		.uleb128 0x1
 1539 0001 0D       		.uleb128 0xd
ARM GAS  C:\Users\DEVELO~1\AppData\Local\Temp\ccj0Zyje.s 			page 28


 1540 0002 00       		.byte	0
 1541 0003 03       		.uleb128 0x3
 1542 0004 0E       		.uleb128 0xe
 1543 0005 3A       		.uleb128 0x3a
 1544 0006 0B       		.uleb128 0xb
 1545 0007 3B       		.uleb128 0x3b
 1546 0008 05       		.uleb128 0x5
 1547 0009 39       		.uleb128 0x39
 1548 000a 0B       		.uleb128 0xb
 1549 000b 49       		.uleb128 0x49
 1550 000c 13       		.uleb128 0x13
 1551 000d 38       		.uleb128 0x38
 1552 000e 0B       		.uleb128 0xb
 1553 000f 00       		.byte	0
 1554 0010 00       		.byte	0
 1555 0011 02       		.uleb128 0x2
 1556 0012 0D       		.uleb128 0xd
 1557 0013 00       		.byte	0
 1558 0014 03       		.uleb128 0x3
 1559 0015 0E       		.uleb128 0xe
 1560 0016 3A       		.uleb128 0x3a
 1561 0017 21       		.uleb128 0x21
 1562 0018 09       		.sleb128 9
 1563 0019 3B       		.uleb128 0x3b
 1564 001a 0B       		.uleb128 0xb
 1565 001b 39       		.uleb128 0x39
 1566 001c 21       		.uleb128 0x21
 1567 001d 15       		.sleb128 21
 1568 001e 49       		.uleb128 0x49
 1569 001f 13       		.uleb128 0x13
 1570 0020 38       		.uleb128 0x38
 1571 0021 0B       		.uleb128 0xb
 1572 0022 00       		.byte	0
 1573 0023 00       		.byte	0
 1574 0024 03       		.uleb128 0x3
 1575 0025 0D       		.uleb128 0xd
 1576 0026 00       		.byte	0
 1577 0027 03       		.uleb128 0x3
 1578 0028 0E       		.uleb128 0xe
 1579 0029 3A       		.uleb128 0x3a
 1580 002a 21       		.uleb128 0x21
 1581 002b 09       		.sleb128 9
 1582 002c 3B       		.uleb128 0x3b
 1583 002d 0B       		.uleb128 0xb
 1584 002e 39       		.uleb128 0x39
 1585 002f 21       		.uleb128 0x21
 1586 0030 15       		.sleb128 21
 1587 0031 49       		.uleb128 0x49
 1588 0032 13       		.uleb128 0x13
 1589 0033 38       		.uleb128 0x38
 1590 0034 05       		.uleb128 0x5
 1591 0035 00       		.byte	0
 1592 0036 00       		.byte	0
 1593 0037 04       		.uleb128 0x4
 1594 0038 28       		.uleb128 0x28
 1595 0039 00       		.byte	0
 1596 003a 03       		.uleb128 0x3
ARM GAS  C:\Users\DEVELO~1\AppData\Local\Temp\ccj0Zyje.s 			page 29


 1597 003b 0E       		.uleb128 0xe
 1598 003c 1C       		.uleb128 0x1c
 1599 003d 0B       		.uleb128 0xb
 1600 003e 00       		.byte	0
 1601 003f 00       		.byte	0
 1602 0040 05       		.uleb128 0x5
 1603 0041 16       		.uleb128 0x16
 1604 0042 00       		.byte	0
 1605 0043 03       		.uleb128 0x3
 1606 0044 0E       		.uleb128 0xe
 1607 0045 3A       		.uleb128 0x3a
 1608 0046 0B       		.uleb128 0xb
 1609 0047 3B       		.uleb128 0x3b
 1610 0048 0B       		.uleb128 0xb
 1611 0049 39       		.uleb128 0x39
 1612 004a 0B       		.uleb128 0xb
 1613 004b 49       		.uleb128 0x49
 1614 004c 13       		.uleb128 0x13
 1615 004d 00       		.byte	0
 1616 004e 00       		.byte	0
 1617 004f 06       		.uleb128 0x6
 1618 0050 16       		.uleb128 0x16
 1619 0051 00       		.byte	0
 1620 0052 03       		.uleb128 0x3
 1621 0053 0E       		.uleb128 0xe
 1622 0054 3A       		.uleb128 0x3a
 1623 0055 0B       		.uleb128 0xb
 1624 0056 3B       		.uleb128 0x3b
 1625 0057 05       		.uleb128 0x5
 1626 0058 39       		.uleb128 0x39
 1627 0059 0B       		.uleb128 0xb
 1628 005a 49       		.uleb128 0x49
 1629 005b 13       		.uleb128 0x13
 1630 005c 00       		.byte	0
 1631 005d 00       		.byte	0
 1632 005e 07       		.uleb128 0x7
 1633 005f 01       		.uleb128 0x1
 1634 0060 01       		.byte	0x1
 1635 0061 49       		.uleb128 0x49
 1636 0062 13       		.uleb128 0x13
 1637 0063 01       		.uleb128 0x1
 1638 0064 13       		.uleb128 0x13
 1639 0065 00       		.byte	0
 1640 0066 00       		.byte	0
 1641 0067 08       		.uleb128 0x8
 1642 0068 21       		.uleb128 0x21
 1643 0069 00       		.byte	0
 1644 006a 49       		.uleb128 0x49
 1645 006b 13       		.uleb128 0x13
 1646 006c 2F       		.uleb128 0x2f
 1647 006d 0B       		.uleb128 0xb
 1648 006e 00       		.byte	0
 1649 006f 00       		.byte	0
 1650 0070 09       		.uleb128 0x9
 1651 0071 0F       		.uleb128 0xf
 1652 0072 00       		.byte	0
 1653 0073 0B       		.uleb128 0xb
ARM GAS  C:\Users\DEVELO~1\AppData\Local\Temp\ccj0Zyje.s 			page 30


 1654 0074 21       		.uleb128 0x21
 1655 0075 04       		.sleb128 4
 1656 0076 49       		.uleb128 0x49
 1657 0077 13       		.uleb128 0x13
 1658 0078 00       		.byte	0
 1659 0079 00       		.byte	0
 1660 007a 0A       		.uleb128 0xa
 1661 007b 05       		.uleb128 0x5
 1662 007c 00       		.byte	0
 1663 007d 49       		.uleb128 0x49
 1664 007e 13       		.uleb128 0x13
 1665 007f 00       		.byte	0
 1666 0080 00       		.byte	0
 1667 0081 0B       		.uleb128 0xb
 1668 0082 24       		.uleb128 0x24
 1669 0083 00       		.byte	0
 1670 0084 0B       		.uleb128 0xb
 1671 0085 0B       		.uleb128 0xb
 1672 0086 3E       		.uleb128 0x3e
 1673 0087 0B       		.uleb128 0xb
 1674 0088 03       		.uleb128 0x3
 1675 0089 0E       		.uleb128 0xe
 1676 008a 00       		.byte	0
 1677 008b 00       		.byte	0
 1678 008c 0C       		.uleb128 0xc
 1679 008d 35       		.uleb128 0x35
 1680 008e 00       		.byte	0
 1681 008f 49       		.uleb128 0x49
 1682 0090 13       		.uleb128 0x13
 1683 0091 00       		.byte	0
 1684 0092 00       		.byte	0
 1685 0093 0D       		.uleb128 0xd
 1686 0094 13       		.uleb128 0x13
 1687 0095 01       		.byte	0x1
 1688 0096 0B       		.uleb128 0xb
 1689 0097 0B       		.uleb128 0xb
 1690 0098 3A       		.uleb128 0x3a
 1691 0099 0B       		.uleb128 0xb
 1692 009a 3B       		.uleb128 0x3b
 1693 009b 05       		.uleb128 0x5
 1694 009c 39       		.uleb128 0x39
 1695 009d 21       		.uleb128 0x21
 1696 009e 09       		.sleb128 9
 1697 009f 01       		.uleb128 0x1
 1698 00a0 13       		.uleb128 0x13
 1699 00a1 00       		.byte	0
 1700 00a2 00       		.byte	0
 1701 00a3 0E       		.uleb128 0xe
 1702 00a4 26       		.uleb128 0x26
 1703 00a5 00       		.byte	0
 1704 00a6 49       		.uleb128 0x49
 1705 00a7 13       		.uleb128 0x13
 1706 00a8 00       		.byte	0
 1707 00a9 00       		.byte	0
 1708 00aa 0F       		.uleb128 0xf
 1709 00ab 04       		.uleb128 0x4
 1710 00ac 01       		.byte	0x1
ARM GAS  C:\Users\DEVELO~1\AppData\Local\Temp\ccj0Zyje.s 			page 31


 1711 00ad 3E       		.uleb128 0x3e
 1712 00ae 21       		.uleb128 0x21
 1713 00af 07       		.sleb128 7
 1714 00b0 0B       		.uleb128 0xb
 1715 00b1 21       		.uleb128 0x21
 1716 00b2 01       		.sleb128 1
 1717 00b3 49       		.uleb128 0x49
 1718 00b4 13       		.uleb128 0x13
 1719 00b5 3A       		.uleb128 0x3a
 1720 00b6 21       		.uleb128 0x21
 1721 00b7 07       		.sleb128 7
 1722 00b8 3B       		.uleb128 0x3b
 1723 00b9 05       		.uleb128 0x5
 1724 00ba 39       		.uleb128 0x39
 1725 00bb 21       		.uleb128 0x21
 1726 00bc 0E       		.sleb128 14
 1727 00bd 01       		.uleb128 0x1
 1728 00be 13       		.uleb128 0x13
 1729 00bf 00       		.byte	0
 1730 00c0 00       		.byte	0
 1731 00c1 10       		.uleb128 0x10
 1732 00c2 15       		.uleb128 0x15
 1733 00c3 01       		.byte	0x1
 1734 00c4 27       		.uleb128 0x27
 1735 00c5 19       		.uleb128 0x19
 1736 00c6 01       		.uleb128 0x1
 1737 00c7 13       		.uleb128 0x13
 1738 00c8 00       		.byte	0
 1739 00c9 00       		.byte	0
 1740 00ca 11       		.uleb128 0x11
 1741 00cb 13       		.uleb128 0x13
 1742 00cc 01       		.byte	0x1
 1743 00cd 0B       		.uleb128 0xb
 1744 00ce 21       		.uleb128 0x21
 1745 00cf 20       		.sleb128 32
 1746 00d0 3A       		.uleb128 0x3a
 1747 00d1 21       		.uleb128 0x21
 1748 00d2 09       		.sleb128 9
 1749 00d3 3B       		.uleb128 0x3b
 1750 00d4 0B       		.uleb128 0xb
 1751 00d5 39       		.uleb128 0x39
 1752 00d6 21       		.uleb128 0x21
 1753 00d7 09       		.sleb128 9
 1754 00d8 01       		.uleb128 0x1
 1755 00d9 13       		.uleb128 0x13
 1756 00da 00       		.byte	0
 1757 00db 00       		.byte	0
 1758 00dc 12       		.uleb128 0x12
 1759 00dd 0D       		.uleb128 0xd
 1760 00de 00       		.byte	0
 1761 00df 03       		.uleb128 0x3
 1762 00e0 08       		.uleb128 0x8
 1763 00e1 3A       		.uleb128 0x3a
 1764 00e2 21       		.uleb128 0x21
 1765 00e3 09       		.sleb128 9
 1766 00e4 3B       		.uleb128 0x3b
 1767 00e5 0B       		.uleb128 0xb
ARM GAS  C:\Users\DEVELO~1\AppData\Local\Temp\ccj0Zyje.s 			page 32


 1768 00e6 39       		.uleb128 0x39
 1769 00e7 0B       		.uleb128 0xb
 1770 00e8 49       		.uleb128 0x49
 1771 00e9 13       		.uleb128 0x13
 1772 00ea 38       		.uleb128 0x38
 1773 00eb 05       		.uleb128 0x5
 1774 00ec 00       		.byte	0
 1775 00ed 00       		.byte	0
 1776 00ee 13       		.uleb128 0x13
 1777 00ef 0D       		.uleb128 0xd
 1778 00f0 00       		.byte	0
 1779 00f1 03       		.uleb128 0x3
 1780 00f2 08       		.uleb128 0x8
 1781 00f3 3A       		.uleb128 0x3a
 1782 00f4 21       		.uleb128 0x21
 1783 00f5 08       		.sleb128 8
 1784 00f6 3B       		.uleb128 0x3b
 1785 00f7 05       		.uleb128 0x5
 1786 00f8 39       		.uleb128 0x39
 1787 00f9 21       		.uleb128 0x21
 1788 00fa 22       		.sleb128 34
 1789 00fb 49       		.uleb128 0x49
 1790 00fc 13       		.uleb128 0x13
 1791 00fd 38       		.uleb128 0x38
 1792 00fe 0B       		.uleb128 0xb
 1793 00ff 00       		.byte	0
 1794 0100 00       		.byte	0
 1795 0101 14       		.uleb128 0x14
 1796 0102 15       		.uleb128 0x15
 1797 0103 01       		.byte	0x1
 1798 0104 27       		.uleb128 0x27
 1799 0105 19       		.uleb128 0x19
 1800 0106 49       		.uleb128 0x49
 1801 0107 13       		.uleb128 0x13
 1802 0108 01       		.uleb128 0x1
 1803 0109 13       		.uleb128 0x13
 1804 010a 00       		.byte	0
 1805 010b 00       		.byte	0
 1806 010c 15       		.uleb128 0x15
 1807 010d 34       		.uleb128 0x34
 1808 010e 00       		.byte	0
 1809 010f 03       		.uleb128 0x3
 1810 0110 0E       		.uleb128 0xe
 1811 0111 3A       		.uleb128 0x3a
 1812 0112 21       		.uleb128 0x21
 1813 0113 0A       		.sleb128 10
 1814 0114 3B       		.uleb128 0x3b
 1815 0115 0B       		.uleb128 0xb
 1816 0116 39       		.uleb128 0x39
 1817 0117 0B       		.uleb128 0xb
 1818 0118 49       		.uleb128 0x49
 1819 0119 13       		.uleb128 0x13
 1820 011a 3F       		.uleb128 0x3f
 1821 011b 19       		.uleb128 0x19
 1822 011c 3C       		.uleb128 0x3c
 1823 011d 19       		.uleb128 0x19
 1824 011e 00       		.byte	0
ARM GAS  C:\Users\DEVELO~1\AppData\Local\Temp\ccj0Zyje.s 			page 33


 1825 011f 00       		.byte	0
 1826 0120 16       		.uleb128 0x16
 1827 0121 49       		.uleb128 0x49
 1828 0122 00       		.byte	0
 1829 0123 02       		.uleb128 0x2
 1830 0124 18       		.uleb128 0x18
 1831 0125 7E       		.uleb128 0x7e
 1832 0126 18       		.uleb128 0x18
 1833 0127 00       		.byte	0
 1834 0128 00       		.byte	0
 1835 0129 17       		.uleb128 0x17
 1836 012a 11       		.uleb128 0x11
 1837 012b 01       		.byte	0x1
 1838 012c 25       		.uleb128 0x25
 1839 012d 0E       		.uleb128 0xe
 1840 012e 13       		.uleb128 0x13
 1841 012f 0B       		.uleb128 0xb
 1842 0130 03       		.uleb128 0x3
 1843 0131 0E       		.uleb128 0xe
 1844 0132 1B       		.uleb128 0x1b
 1845 0133 0E       		.uleb128 0xe
 1846 0134 55       		.uleb128 0x55
 1847 0135 17       		.uleb128 0x17
 1848 0136 11       		.uleb128 0x11
 1849 0137 01       		.uleb128 0x1
 1850 0138 10       		.uleb128 0x10
 1851 0139 17       		.uleb128 0x17
 1852 013a 00       		.byte	0
 1853 013b 00       		.byte	0
 1854 013c 18       		.uleb128 0x18
 1855 013d 24       		.uleb128 0x24
 1856 013e 00       		.byte	0
 1857 013f 0B       		.uleb128 0xb
 1858 0140 0B       		.uleb128 0xb
 1859 0141 3E       		.uleb128 0x3e
 1860 0142 0B       		.uleb128 0xb
 1861 0143 03       		.uleb128 0x3
 1862 0144 08       		.uleb128 0x8
 1863 0145 00       		.byte	0
 1864 0146 00       		.byte	0
 1865 0147 19       		.uleb128 0x19
 1866 0148 0F       		.uleb128 0xf
 1867 0149 00       		.byte	0
 1868 014a 0B       		.uleb128 0xb
 1869 014b 0B       		.uleb128 0xb
 1870 014c 00       		.byte	0
 1871 014d 00       		.byte	0
 1872 014e 1A       		.uleb128 0x1a
 1873 014f 13       		.uleb128 0x13
 1874 0150 01       		.byte	0x1
 1875 0151 03       		.uleb128 0x3
 1876 0152 0E       		.uleb128 0xe
 1877 0153 0B       		.uleb128 0xb
 1878 0154 0B       		.uleb128 0xb
 1879 0155 3A       		.uleb128 0x3a
 1880 0156 0B       		.uleb128 0xb
 1881 0157 3B       		.uleb128 0x3b
ARM GAS  C:\Users\DEVELO~1\AppData\Local\Temp\ccj0Zyje.s 			page 34


 1882 0158 05       		.uleb128 0x5
 1883 0159 39       		.uleb128 0x39
 1884 015a 0B       		.uleb128 0xb
 1885 015b 01       		.uleb128 0x1
 1886 015c 13       		.uleb128 0x13
 1887 015d 00       		.byte	0
 1888 015e 00       		.byte	0
 1889 015f 1B       		.uleb128 0x1b
 1890 0160 13       		.uleb128 0x13
 1891 0161 01       		.byte	0x1
 1892 0162 0B       		.uleb128 0xb
 1893 0163 06       		.uleb128 0x6
 1894 0164 3A       		.uleb128 0x3a
 1895 0165 0B       		.uleb128 0xb
 1896 0166 3B       		.uleb128 0x3b
 1897 0167 0B       		.uleb128 0xb
 1898 0168 39       		.uleb128 0x39
 1899 0169 0B       		.uleb128 0xb
 1900 016a 01       		.uleb128 0x1
 1901 016b 13       		.uleb128 0x13
 1902 016c 00       		.byte	0
 1903 016d 00       		.byte	0
 1904 016e 1C       		.uleb128 0x1c
 1905 016f 0D       		.uleb128 0xd
 1906 0170 00       		.byte	0
 1907 0171 03       		.uleb128 0x3
 1908 0172 08       		.uleb128 0x8
 1909 0173 3A       		.uleb128 0x3a
 1910 0174 0B       		.uleb128 0xb
 1911 0175 3B       		.uleb128 0x3b
 1912 0176 0B       		.uleb128 0xb
 1913 0177 39       		.uleb128 0x39
 1914 0178 0B       		.uleb128 0xb
 1915 0179 49       		.uleb128 0x49
 1916 017a 13       		.uleb128 0x13
 1917 017b 38       		.uleb128 0x38
 1918 017c 0B       		.uleb128 0xb
 1919 017d 00       		.byte	0
 1920 017e 00       		.byte	0
 1921 017f 1D       		.uleb128 0x1d
 1922 0180 21       		.uleb128 0x21
 1923 0181 00       		.byte	0
 1924 0182 49       		.uleb128 0x49
 1925 0183 13       		.uleb128 0x13
 1926 0184 2F       		.uleb128 0x2f
 1927 0185 05       		.uleb128 0x5
 1928 0186 00       		.byte	0
 1929 0187 00       		.byte	0
 1930 0188 1E       		.uleb128 0x1e
 1931 0189 34       		.uleb128 0x34
 1932 018a 00       		.byte	0
 1933 018b 03       		.uleb128 0x3
 1934 018c 0E       		.uleb128 0xe
 1935 018d 3A       		.uleb128 0x3a
 1936 018e 0B       		.uleb128 0xb
 1937 018f 3B       		.uleb128 0x3b
 1938 0190 05       		.uleb128 0x5
ARM GAS  C:\Users\DEVELO~1\AppData\Local\Temp\ccj0Zyje.s 			page 35


 1939 0191 39       		.uleb128 0x39
 1940 0192 0B       		.uleb128 0xb
 1941 0193 49       		.uleb128 0x49
 1942 0194 13       		.uleb128 0x13
 1943 0195 3F       		.uleb128 0x3f
 1944 0196 19       		.uleb128 0x19
 1945 0197 3C       		.uleb128 0x3c
 1946 0198 19       		.uleb128 0x19
 1947 0199 00       		.byte	0
 1948 019a 00       		.byte	0
 1949 019b 1F       		.uleb128 0x1f
 1950 019c 2E       		.uleb128 0x2e
 1951 019d 01       		.byte	0x1
 1952 019e 3F       		.uleb128 0x3f
 1953 019f 19       		.uleb128 0x19
 1954 01a0 03       		.uleb128 0x3
 1955 01a1 0E       		.uleb128 0xe
 1956 01a2 3A       		.uleb128 0x3a
 1957 01a3 0B       		.uleb128 0xb
 1958 01a4 3B       		.uleb128 0x3b
 1959 01a5 05       		.uleb128 0x5
 1960 01a6 39       		.uleb128 0x39
 1961 01a7 0B       		.uleb128 0xb
 1962 01a8 27       		.uleb128 0x27
 1963 01a9 19       		.uleb128 0x19
 1964 01aa 49       		.uleb128 0x49
 1965 01ab 13       		.uleb128 0x13
 1966 01ac 3C       		.uleb128 0x3c
 1967 01ad 19       		.uleb128 0x19
 1968 01ae 01       		.uleb128 0x1
 1969 01af 13       		.uleb128 0x13
 1970 01b0 00       		.byte	0
 1971 01b1 00       		.byte	0
 1972 01b2 20       		.uleb128 0x20
 1973 01b3 2E       		.uleb128 0x2e
 1974 01b4 01       		.byte	0x1
 1975 01b5 3F       		.uleb128 0x3f
 1976 01b6 19       		.uleb128 0x19
 1977 01b7 03       		.uleb128 0x3
 1978 01b8 0E       		.uleb128 0xe
 1979 01b9 3A       		.uleb128 0x3a
 1980 01ba 0B       		.uleb128 0xb
 1981 01bb 3B       		.uleb128 0x3b
 1982 01bc 05       		.uleb128 0x5
 1983 01bd 39       		.uleb128 0x39
 1984 01be 0B       		.uleb128 0xb
 1985 01bf 27       		.uleb128 0x27
 1986 01c0 19       		.uleb128 0x19
 1987 01c1 3C       		.uleb128 0x3c
 1988 01c2 19       		.uleb128 0x19
 1989 01c3 01       		.uleb128 0x1
 1990 01c4 13       		.uleb128 0x13
 1991 01c5 00       		.byte	0
 1992 01c6 00       		.byte	0
 1993 01c7 21       		.uleb128 0x21
 1994 01c8 2E       		.uleb128 0x2e
 1995 01c9 00       		.byte	0
ARM GAS  C:\Users\DEVELO~1\AppData\Local\Temp\ccj0Zyje.s 			page 36


 1996 01ca 3F       		.uleb128 0x3f
 1997 01cb 19       		.uleb128 0x19
 1998 01cc 03       		.uleb128 0x3
 1999 01cd 0E       		.uleb128 0xe
 2000 01ce 3A       		.uleb128 0x3a
 2001 01cf 0B       		.uleb128 0xb
 2002 01d0 3B       		.uleb128 0x3b
 2003 01d1 0B       		.uleb128 0xb
 2004 01d2 39       		.uleb128 0x39
 2005 01d3 0B       		.uleb128 0xb
 2006 01d4 27       		.uleb128 0x27
 2007 01d5 19       		.uleb128 0x19
 2008 01d6 49       		.uleb128 0x49
 2009 01d7 13       		.uleb128 0x13
 2010 01d8 11       		.uleb128 0x11
 2011 01d9 01       		.uleb128 0x1
 2012 01da 12       		.uleb128 0x12
 2013 01db 06       		.uleb128 0x6
 2014 01dc 40       		.uleb128 0x40
 2015 01dd 18       		.uleb128 0x18
 2016 01de 7A       		.uleb128 0x7a
 2017 01df 19       		.uleb128 0x19
 2018 01e0 00       		.byte	0
 2019 01e1 00       		.byte	0
 2020 01e2 22       		.uleb128 0x22
 2021 01e3 2E       		.uleb128 0x2e
 2022 01e4 01       		.byte	0x1
 2023 01e5 3F       		.uleb128 0x3f
 2024 01e6 19       		.uleb128 0x19
 2025 01e7 03       		.uleb128 0x3
 2026 01e8 0E       		.uleb128 0xe
 2027 01e9 3A       		.uleb128 0x3a
 2028 01ea 0B       		.uleb128 0xb
 2029 01eb 3B       		.uleb128 0x3b
 2030 01ec 0B       		.uleb128 0xb
 2031 01ed 39       		.uleb128 0x39
 2032 01ee 0B       		.uleb128 0xb
 2033 01ef 27       		.uleb128 0x27
 2034 01f0 19       		.uleb128 0x19
 2035 01f1 11       		.uleb128 0x11
 2036 01f2 01       		.uleb128 0x1
 2037 01f3 12       		.uleb128 0x12
 2038 01f4 06       		.uleb128 0x6
 2039 01f5 40       		.uleb128 0x40
 2040 01f6 18       		.uleb128 0x18
 2041 01f7 7A       		.uleb128 0x7a
 2042 01f8 19       		.uleb128 0x19
 2043 01f9 00       		.byte	0
 2044 01fa 00       		.byte	0
 2045 01fb 23       		.uleb128 0x23
 2046 01fc 48       		.uleb128 0x48
 2047 01fd 01       		.byte	0x1
 2048 01fe 7D       		.uleb128 0x7d
 2049 01ff 01       		.uleb128 0x1
 2050 0200 7F       		.uleb128 0x7f
 2051 0201 13       		.uleb128 0x13
 2052 0202 01       		.uleb128 0x1
ARM GAS  C:\Users\DEVELO~1\AppData\Local\Temp\ccj0Zyje.s 			page 37


 2053 0203 13       		.uleb128 0x13
 2054 0204 00       		.byte	0
 2055 0205 00       		.byte	0
 2056 0206 24       		.uleb128 0x24
 2057 0207 48       		.uleb128 0x48
 2058 0208 01       		.byte	0x1
 2059 0209 7D       		.uleb128 0x7d
 2060 020a 01       		.uleb128 0x1
 2061 020b 7F       		.uleb128 0x7f
 2062 020c 13       		.uleb128 0x13
 2063 020d 00       		.byte	0
 2064 020e 00       		.byte	0
 2065 020f 00       		.byte	0
 2066              		.section	.debug_aranges,"",%progbits
 2067 0000 24000000 		.4byte	0x24
 2068 0004 0200     		.2byte	0x2
 2069 0006 00000000 		.4byte	.Ldebug_info0
 2070 000a 04       		.byte	0x4
 2071 000b 00       		.byte	0
 2072 000c 0000     		.2byte	0
 2073 000e 0000     		.2byte	0
 2074 0010 00000000 		.4byte	.LFB432
 2075 0014 40000000 		.4byte	.LFE432-.LFB432
 2076 0018 00000000 		.4byte	.LFB433
 2077 001c 0C000000 		.4byte	.LFE433-.LFB433
 2078 0020 00000000 		.4byte	0
 2079 0024 00000000 		.4byte	0
 2080              		.section	.debug_rnglists,"",%progbits
 2081              	.Ldebug_ranges0:
 2082 0000 15000000 		.4byte	.Ldebug_ranges3-.Ldebug_ranges2
 2083              	.Ldebug_ranges2:
 2084 0004 0500     		.2byte	0x5
 2085 0006 04       		.byte	0x4
 2086 0007 00       		.byte	0
 2087 0008 00000000 		.4byte	0
 2088              	.LLRL0:
 2089 000c 07       		.byte	0x7
 2090 000d 00000000 		.4byte	.LFB432
 2091 0011 40       		.uleb128 .LFE432-.LFB432
 2092 0012 07       		.byte	0x7
 2093 0013 00000000 		.4byte	.LFB433
 2094 0017 0C       		.uleb128 .LFE433-.LFB433
 2095 0018 00       		.byte	0
 2096              	.Ldebug_ranges3:
 2097              		.section	.debug_line,"",%progbits
 2098              	.Ldebug_line0:
 2099 0000 5E020000 		.section	.debug_str,"MS",%progbits,1
 2099      03001202 
 2099      00000201 
 2099      FB0E0D00 
 2099      01010101 
 2100              	.LASF161:
 2101 0000 7278636E 		.ascii	"rxcnt\000"
 2101      7400
 2102              	.LASF144:
 2103 0006 72657376 		.ascii	"resvd880\000"
 2103      64383830 
ARM GAS  C:\Users\DEVELO~1\AppData\Local\Temp\ccj0Zyje.s 			page 38


 2103      00
 2104              	.LASF187:
 2105 000f 63685468 		.ascii	"chThdSleep\000"
 2105      64536C65 
 2105      657000
 2106              	.LASF167:
 2107 001a 6F75745F 		.ascii	"out_cb\000"
 2107      636200
 2108              	.LASF4:
 2109 0021 73697A65 		.ascii	"size_t\000"
 2109      5F7400
 2110              	.LASF124:
 2111 0028 48505254 		.ascii	"HPRT\000"
 2111      00
 2112              	.LASF140:
 2113 002d 44494550 		.ascii	"DIEPEMPMSK\000"
 2113      454D504D 
 2113      534B00
 2114              	.LASF20:
 2115 0038 75696E74 		.ascii	"uint64_t\000"
 2115      36345F74 
 2115      00
 2116              	.LASF134:
 2117 0041 4441494E 		.ascii	"DAINTMSK\000"
 2117      544D534B 
 2117      00
 2118              	.LASF5:
 2119 004a 5F5F7569 		.ascii	"__uint8_t\000"
 2119      6E74385F 
 2119      7400
 2120              	.LASF99:
 2121 0054 47414842 		.ascii	"GAHBCFG\000"
 2121      43464700 
 2122              	.LASF67:
 2123 005c 75736265 		.ascii	"usbevent_t\000"
 2123      76656E74 
 2123      5F7400
 2124              	.LASF63:
 2125 0067 5553425F 		.ascii	"USB_EVENT_UNCONFIGURED\000"
 2125      4556454E 
 2125      545F554E 
 2125      434F4E46 
 2125      49475552 
 2126              	.LASF128:
 2127 007e 4443544C 		.ascii	"DCTL\000"
 2127      00
 2128              	.LASF162:
 2129 0083 72786275 		.ascii	"rxbuf\000"
 2129      6600
 2130              	.LASF106:
 2131 0089 47525846 		.ascii	"GRXFSIZ\000"
 2131      53495A00 
 2132              	.LASF54:
 2133 0091 5553425F 		.ascii	"USB_EP0_IN_WAITING_TX0\000"
 2133      4550305F 
 2133      494E5F57 
 2133      41495449 
ARM GAS  C:\Users\DEVELO~1\AppData\Local\Temp\ccj0Zyje.s 			page 39


 2133      4E475F54 
 2134              	.LASF127:
 2135 00a8 44434647 		.ascii	"DCFG\000"
 2135      00
 2136              	.LASF45:
 2137 00ad 5553425F 		.ascii	"USB_UNINIT\000"
 2137      554E494E 
 2137      495400
 2138              	.LASF185:
 2139 00b8 433A5C50 		.ascii	"C:\\PROJET\\ChibiOS project\\ChibiOS_21.11.4\\demos"
 2139      524F4A45 
 2139      545C4368 
 2139      6962694F 
 2139      53207072 
 2140 00e7 5C53544D 		.ascii	"\\STM32\\RT-STM32H743ZI_REV_XY-NUCLEO144\000"
 2140      33325C52 
 2140      542D5354 
 2140      4D333248 
 2140      3734335A 
 2141              	.LASF94:
 2142 010e 444F4550 		.ascii	"DOEPINT\000"
 2142      494E5400 
 2143              	.LASF70:
 2144 0116 55534244 		.ascii	"USBDescriptor\000"
 2144      65736372 
 2144      6970746F 
 2144      7200
 2145              	.LASF80:
 2146 0124 48435453 		.ascii	"HCTSIZ\000"
 2146      495A00
 2147              	.LASF126:
 2148 012b 72657376 		.ascii	"resvd700\000"
 2148      64373030 
 2148      00
 2149              	.LASF122:
 2150 0134 4841494E 		.ascii	"HAINTMSK\000"
 2150      544D534B 
 2150      00
 2151              	.LASF1:
 2152 013d 6C6F6E67 		.ascii	"long long int\000"
 2152      206C6F6E 
 2152      6720696E 
 2152      7400
 2153              	.LASF3:
 2154 014b 7369676E 		.ascii	"signed char\000"
 2154      65642063 
 2154      68617200 
 2155              	.LASF71:
 2156 0157 75736263 		.ascii	"usbcallback_t\000"
 2156      616C6C62 
 2156      61636B5F 
 2156      7400
 2157              	.LASF152:
 2158 0165 6F74675F 		.ascii	"otg_ram_size\000"
 2158      72616D5F 
 2158      73697A65 
 2158      00
ARM GAS  C:\Users\DEVELO~1\AppData\Local\Temp\ccj0Zyje.s 			page 40


 2159              	.LASF13:
 2160 0172 6C6F6E67 		.ascii	"long unsigned int\000"
 2160      20756E73 
 2160      69676E65 
 2160      6420696E 
 2160      7400
 2161              	.LASF150:
 2162 0184 73746D33 		.ascii	"stm32_otg_t\000"
 2162      325F6F74 
 2162      675F7400 
 2163              	.LASF15:
 2164 0190 6C6F6E67 		.ascii	"long long unsigned int\000"
 2164      206C6F6E 
 2164      6720756E 
 2164      7369676E 
 2164      65642069 
 2165              	.LASF79:
 2166 01a7 4843494E 		.ascii	"HCINTMSK\000"
 2166      544D534B 
 2166      00
 2167              	.LASF117:
 2168 01b0 48464952 		.ascii	"HFIR\000"
 2168      00
 2169              	.LASF58:
 2170 01b5 5553425F 		.ascii	"USB_EP0_ERROR\000"
 2170      4550305F 
 2170      4552524F 
 2170      5200
 2171              	.LASF107:
 2172 01c3 44494550 		.ascii	"DIEPTXF0\000"
 2172      54584630 
 2172      00
 2173              	.LASF27:
 2174 01cc 73746174 		.ascii	"state\000"
 2174      6500
 2175              	.LASF32:
 2176 01d2 6F75745F 		.ascii	"out_params\000"
 2176      70617261 
 2176      6D7300
 2177              	.LASF129:
 2178 01dd 44535453 		.ascii	"DSTS\000"
 2178      00
 2179              	.LASF184:
 2180 01e2 7573622F 		.ascii	"usb/usb_device.c\000"
 2180      7573625F 
 2180      64657669 
 2180      63652E63 
 2180      00
 2181              	.LASF125:
 2182 01f3 72657376 		.ascii	"resvd444\000"
 2182      64343434 
 2182      00
 2183              	.LASF135:
 2184 01fc 72657376 		.ascii	"resvd820\000"
 2184      64383230 
 2184      00
 2185              	.LASF118:
ARM GAS  C:\Users\DEVELO~1\AppData\Local\Temp\ccj0Zyje.s 			page 41


 2186 0205 48464E55 		.ascii	"HFNUM\000"
 2186      4D00
 2187              	.LASF73:
 2188 020b 75736265 		.ascii	"usbeventcb_t\000"
 2188      76656E74 
 2188      63625F74 
 2188      00
 2189              	.LASF136:
 2190 0218 72657376 		.ascii	"resvd824\000"
 2190      64383234 
 2190      00
 2191              	.LASF65:
 2192 0221 5553425F 		.ascii	"USB_EVENT_WAKEUP\000"
 2192      4556454E 
 2192      545F5741 
 2192      4B455550 
 2192      00
 2193              	.LASF17:
 2194 0232 75696E74 		.ascii	"uint16_t\000"
 2194      31365F74 
 2194      00
 2195              	.LASF133:
 2196 023b 4441494E 		.ascii	"DAINT\000"
 2196      5400
 2197              	.LASF59:
 2198 0241 75736265 		.ascii	"usbep0state_t\000"
 2198      70307374 
 2198      6174655F 
 2198      7400
 2199              	.LASF158:
 2200 024f 746F7473 		.ascii	"totsize\000"
 2200      697A6500 
 2201              	.LASF66:
 2202 0257 5553425F 		.ascii	"USB_EVENT_STALLED\000"
 2202      4556454E 
 2202      545F5354 
 2202      414C4C45 
 2202      4400
 2203              	.LASF98:
 2204 0269 474F5447 		.ascii	"GOTGINT\000"
 2204      494E5400 
 2205              	.LASF23:
 2206 0271 73797369 		.ascii	"sysinterval_t\000"
 2206      6E746572 
 2206      76616C5F 
 2206      7400
 2207              	.LASF186:
 2208 027f 75736253 		.ascii	"usbStart\000"
 2208      74617274 
 2208      00
 2209              	.LASF0:
 2210 0288 756E7369 		.ascii	"unsigned int\000"
 2210      676E6564 
 2210      20696E74 
 2210      00
 2211              	.LASF49:
 2212 0295 5553425F 		.ascii	"USB_ACTIVE\000"
ARM GAS  C:\Users\DEVELO~1\AppData\Local\Temp\ccj0Zyje.s 			page 42


 2212      41435449 
 2212      564500
 2213              	.LASF157:
 2214 02a0 74786275 		.ascii	"txbuf\000"
 2214      6600
 2215              	.LASF68:
 2216 02a6 75645F73 		.ascii	"ud_size\000"
 2216      697A6500 
 2217              	.LASF103:
 2218 02ae 47494E54 		.ascii	"GINTMSK\000"
 2218      4D534B00 
 2219              	.LASF28:
 2220 02b6 636F6E66 		.ascii	"config\000"
 2220      696700
 2221              	.LASF147:
 2222 02bd 50434743 		.ascii	"PCGCCTL\000"
 2222      43544C00 
 2223              	.LASF139:
 2224 02c5 72657376 		.ascii	"resvd830\000"
 2224      64383330 
 2224      00
 2225              	.LASF57:
 2226 02ce 5553425F 		.ascii	"USB_EP0_OUT_RX\000"
 2226      4550305F 
 2226      4F55545F 
 2226      525800
 2227              	.LASF81:
 2228 02dd 72657376 		.ascii	"resvd14\000"
 2228      64313400 
 2229              	.LASF82:
 2230 02e5 72657376 		.ascii	"resvd18\000"
 2230      64313800 
 2231              	.LASF24:
 2232 02ed 74696D65 		.ascii	"time_conv_t\000"
 2232      5F636F6E 
 2232      765F7400 
 2233              	.LASF141:
 2234 02f9 72657376 		.ascii	"resvd838\000"
 2234      64383338 
 2234      00
 2235              	.LASF29:
 2236 0302 7472616E 		.ascii	"transmitting\000"
 2236      736D6974 
 2236      74696E67 
 2236      00
 2237              	.LASF166:
 2238 030f 696E5F63 		.ascii	"in_cb\000"
 2238      6200
 2239              	.LASF34:
 2240 0315 6570306E 		.ascii	"ep0next\000"
 2240      65787400 
 2241              	.LASF91:
 2242 031d 72657376 		.ascii	"resvd1C\000"
 2242      64314300 
 2243              	.LASF142:
 2244 0325 72657376 		.ascii	"resvd83C\000"
 2244      64383343 
ARM GAS  C:\Users\DEVELO~1\AppData\Local\Temp\ccj0Zyje.s 			page 43


 2244      00
 2245              	.LASF175:
 2246 032e 6576656E 		.ascii	"event_cb\000"
 2246      745F6362 
 2246      00
 2247              	.LASF102:
 2248 0337 47494E54 		.ascii	"GINTSTS\000"
 2248      53545300 
 2249              	.LASF95:
 2250 033f 444F4550 		.ascii	"DOEPTSIZ\000"
 2250      5453495A 
 2250      00
 2251              	.LASF154:
 2252 0348 73746D33 		.ascii	"stm32_otg_params_t\000"
 2252      325F6F74 
 2252      675F7061 
 2252      72616D73 
 2252      5F7400
 2253              	.LASF21:
 2254 035b 6D73675F 		.ascii	"msg_t\000"
 2254      7400
 2255              	.LASF69:
 2256 0361 75645F73 		.ascii	"ud_string\000"
 2256      7472696E 
 2256      6700
 2257              	.LASF149:
 2258 036b 4649464F 		.ascii	"FIFO\000"
 2258      00
 2259              	.LASF55:
 2260 0370 5553425F 		.ascii	"USB_EP0_IN_SENDING_STS\000"
 2260      4550305F 
 2260      494E5F53 
 2260      454E4449 
 2260      4E475F53 
 2261              	.LASF84:
 2262 0387 73746D33 		.ascii	"stm32_otg_host_chn_t\000"
 2262      325F6F74 
 2262      675F686F 
 2262      73745F63 
 2262      686E5F74 
 2263              	.LASF42:
 2264 039c 6F746770 		.ascii	"otgparams\000"
 2264      6172616D 
 2264      7300
 2265              	.LASF35:
 2266 03a6 6570306E 		.ascii	"ep0n\000"
 2266      00
 2267              	.LASF101:
 2268 03ab 47525354 		.ascii	"GRSTCTL\000"
 2268      43544C00 
 2269              	.LASF30:
 2270 03b3 72656365 		.ascii	"receiving\000"
 2270      6976696E 
 2270      6700
 2271              	.LASF83:
 2272 03bd 72657376 		.ascii	"resvd1c\000"
 2272      64316300 
ARM GAS  C:\Users\DEVELO~1\AppData\Local\Temp\ccj0Zyje.s 			page 44


 2273              	.LASF53:
 2274 03c5 5553425F 		.ascii	"USB_EP0_IN_TX\000"
 2274      4550305F 
 2274      494E5F54 
 2274      5800
 2275              	.LASF177:
 2276 03d3 72657175 		.ascii	"requests_hook_cb\000"
 2276      65737473 
 2276      5F686F6F 
 2276      6B5F6362 
 2276      00
 2277              	.LASF52:
 2278 03e4 5553425F 		.ascii	"USB_EP0_STP_WAITING\000"
 2278      4550305F 
 2278      5354505F 
 2278      57414954 
 2278      494E4700 
 2279              	.LASF92:
 2280 03f8 73746D33 		.ascii	"stm32_otg_in_ep_t\000"
 2280      325F6F74 
 2280      675F696E 
 2280      5F65705F 
 2280      7400
 2281              	.LASF143:
 2282 040a 72657376 		.ascii	"resvd840\000"
 2282      64383430 
 2282      00
 2283              	.LASF104:
 2284 0413 47525853 		.ascii	"GRXSTSR\000"
 2284      54535200 
 2285              	.LASF113:
 2286 041b 48505458 		.ascii	"HPTXFSIZ\000"
 2286      4653495A 
 2286      00
 2287              	.LASF155:
 2288 0424 74787369 		.ascii	"txsize\000"
 2288      7A6500
 2289              	.LASF153:
 2290 042b 6E756D5F 		.ascii	"num_endpoints\000"
 2290      656E6470 
 2290      6F696E74 
 2290      7300
 2291              	.LASF85:
 2292 0439 44494550 		.ascii	"DIEPCTL\000"
 2292      43544C00 
 2293              	.LASF39:
 2294 0441 61646472 		.ascii	"address\000"
 2294      65737300 
 2295              	.LASF171:
 2296 0449 6F75745F 		.ascii	"out_state\000"
 2296      73746174 
 2296      6500
 2297              	.LASF173:
 2298 0453 73657475 		.ascii	"setup_buf\000"
 2298      705F6275 
 2298      6600
 2299              	.LASF74:
ARM GAS  C:\Users\DEVELO~1\AppData\Local\Temp\ccj0Zyje.s 			page 45


 2300 045d 75736272 		.ascii	"usbreqhandler_t\000"
 2300      65716861 
 2300      6E646C65 
 2300      725F7400 
 2301              	.LASF163:
 2302 046d 5553424F 		.ascii	"USBOutEndpointState\000"
 2302      7574456E 
 2302      64706F69 
 2302      6E745374 
 2302      61746500 
 2303              	.LASF78:
 2304 0481 4843494E 		.ascii	"HCINT\000"
 2304      5400
 2305              	.LASF75:
 2306 0487 75736267 		.ascii	"usbgetdescriptor_t\000"
 2306      65746465 
 2306      73637269 
 2306      70746F72 
 2306      5F7400
 2307              	.LASF37:
 2308 049a 73657475 		.ascii	"setup\000"
 2308      7000
 2309              	.LASF89:
 2310 04a0 44494550 		.ascii	"DIEPTSIZ\000"
 2310      5453495A 
 2310      00
 2311              	.LASF131:
 2312 04a9 44494550 		.ascii	"DIEPMSK\000"
 2312      4D534B00 
 2313              	.LASF178:
 2314 04b1 736F665F 		.ascii	"sof_cb\000"
 2314      636200
 2315              	.LASF174:
 2316 04b8 55534245 		.ascii	"USBEndpointConfig\000"
 2316      6E64706F 
 2316      696E7443 
 2316      6F6E6669 
 2316      6700
 2317              	.LASF14:
 2318 04ca 5F5F7569 		.ascii	"__uint64_t\000"
 2318      6E743634 
 2318      5F7400
 2319              	.LASF165:
 2320 04d5 73657475 		.ascii	"setup_cb\000"
 2320      705F6362 
 2320      00
 2321              	.LASF100:
 2322 04de 47555342 		.ascii	"GUSBCFG\000"
 2322      43464700 
 2323              	.LASF43:
 2324 04e6 706D6E65 		.ascii	"pmnext\000"
 2324      787400
 2325              	.LASF109:
 2326 04ed 72657376 		.ascii	"resvd30\000"
 2326      64333000 
 2327              	.LASF61:
 2328 04f5 5553425F 		.ascii	"USB_EVENT_ADDRESS\000"
ARM GAS  C:\Users\DEVELO~1\AppData\Local\Temp\ccj0Zyje.s 			page 46


 2328      4556454E 
 2328      545F4144 
 2328      44524553 
 2328      5300
 2329              	.LASF148:
 2330 0507 72657376 		.ascii	"resvdE04\000"
 2330      64453034 
 2330      00
 2331              	.LASF110:
 2332 0510 72657376 		.ascii	"resvd34\000"
 2332      64333400 
 2333              	.LASF86:
 2334 0518 72657376 		.ascii	"resvd4\000"
 2334      643400
 2335              	.LASF168:
 2336 051f 696E5F6D 		.ascii	"in_maxsize\000"
 2336      61787369 
 2336      7A6500
 2337              	.LASF77:
 2338 052a 72657376 		.ascii	"resvd8\000"
 2338      643800
 2339              	.LASF47:
 2340 0531 5553425F 		.ascii	"USB_READY\000"
 2340      52454144 
 2340      5900
 2341              	.LASF46:
 2342 053b 5553425F 		.ascii	"USB_STOP\000"
 2342      53544F50 
 2342      00
 2343              	.LASF25:
 2344 0544 5F426F6F 		.ascii	"_Bool\000"
 2344      6C00
 2345              	.LASF18:
 2346 054a 696E7433 		.ascii	"int32_t\000"
 2346      325F7400 
 2347              	.LASF6:
 2348 0552 756E7369 		.ascii	"unsigned char\000"
 2348      676E6564 
 2348      20636861 
 2348      7200
 2349              	.LASF88:
 2350 0560 72657376 		.ascii	"resvdC\000"
 2350      644300
 2351              	.LASF87:
 2352 0567 44494550 		.ascii	"DIEPINT\000"
 2352      494E5400 
 2353              	.LASF7:
 2354 056f 73686F72 		.ascii	"short int\000"
 2354      7420696E 
 2354      7400
 2355              	.LASF44:
 2356 0579 75736265 		.ascii	"usbep_t\000"
 2356      705F7400 
 2357              	.LASF151:
 2358 0581 72785F66 		.ascii	"rx_fifo_size\000"
 2358      69666F5F 
 2358      73697A65 
ARM GAS  C:\Users\DEVELO~1\AppData\Local\Temp\ccj0Zyje.s 			page 47


 2358      00
 2359              	.LASF188:
 2360 058e 7573625F 		.ascii	"usb_device_active\000"
 2360      64657669 
 2360      63655F61 
 2360      63746976 
 2360      6500
 2361              	.LASF176:
 2362 05a0 6765745F 		.ascii	"get_descriptor_cb\000"
 2362      64657363 
 2362      72697074 
 2362      6F725F63 
 2362      6200
 2363              	.LASF181:
 2364 05b2 7573625F 		.ascii	"usb_midi_tx_ready\000"
 2364      6D696469 
 2364      5F74785F 
 2364      72656164 
 2364      7900
 2365              	.LASF48:
 2366 05c4 5553425F 		.ascii	"USB_SELECTED\000"
 2366      53454C45 
 2366      43544544 
 2366      00
 2367              	.LASF138:
 2368 05d1 44564255 		.ascii	"DVBUSPULSE\000"
 2368      5350554C 
 2368      534500
 2369              	.LASF41:
 2370 05dc 73617665 		.ascii	"saved_state\000"
 2370      645F7374 
 2370      61746500 
 2371              	.LASF120:
 2372 05e8 48505458 		.ascii	"HPTXSTS\000"
 2372      53545300 
 2373              	.LASF170:
 2374 05f0 696E5F73 		.ascii	"in_state\000"
 2374      74617465 
 2374      00
 2375              	.LASF119:
 2376 05f9 72657376 		.ascii	"resvd40C\000"
 2376      64343043 
 2376      00
 2377              	.LASF64:
 2378 0602 5553425F 		.ascii	"USB_EVENT_SUSPEND\000"
 2378      4556454E 
 2378      545F5355 
 2378      5350454E 
 2378      4400
 2379              	.LASF33:
 2380 0614 65703073 		.ascii	"ep0state\000"
 2380      74617465 
 2380      00
 2381              	.LASF179:
 2382 061d 55534243 		.ascii	"USBConfig\000"
 2382      6F6E6669 
 2382      6700
ARM GAS  C:\Users\DEVELO~1\AppData\Local\Temp\ccj0Zyje.s 			page 48


 2383              	.LASF115:
 2384 0627 72657376 		.ascii	"resvd140\000"
 2384      64313430 
 2384      00
 2385              	.LASF2:
 2386 0630 6C6F6E67 		.ascii	"long double\000"
 2386      20646F75 
 2386      626C6500 
 2387              	.LASF22:
 2388 063c 63686172 		.ascii	"char\000"
 2388      00
 2389              	.LASF182:
 2390 0641 75736263 		.ascii	"usbcfg\000"
 2390      666700
 2391              	.LASF121:
 2392 0648 4841494E 		.ascii	"HAINT\000"
 2392      5400
 2393              	.LASF60:
 2394 064e 5553425F 		.ascii	"USB_EVENT_RESET\000"
 2394      4556454E 
 2394      545F5245 
 2394      53455400 
 2395              	.LASF8:
 2396 065e 5F5F7569 		.ascii	"__uint16_t\000"
 2396      6E743136 
 2396      5F7400
 2397              	.LASF116:
 2398 0669 48434647 		.ascii	"HCFG\000"
 2398      00
 2399              	.LASF51:
 2400 066e 75736273 		.ascii	"usbstate_t\000"
 2400      74617465 
 2400      5F7400
 2401              	.LASF146:
 2402 0679 72657376 		.ascii	"resvdD00\000"
 2402      64443030 
 2402      00
 2403              	.LASF183:
 2404 0682 474E5520 		.ascii	"GNU C17 11.3.1 20220712 -mcpu=cortex-m7 -mthumb -mf"
 2404      43313720 
 2404      31312E33 
 2404      2E312032 
 2404      30323230 
 2405 06b5 6C6F6174 		.ascii	"loat-abi=soft -march=armv7e-m -ggdb -O2 -fomit-fram"
 2405      2D616269 
 2405      3D736F66 
 2405      74202D6D 
 2405      61726368 
 2406 06e8 652D706F 		.ascii	"e-pointer -falign-functions=16 -ffunction-sections "
 2406      696E7465 
 2406      72202D66 
 2406      616C6967 
 2406      6E2D6675 
 2407 071b 2D666461 		.ascii	"-fdata-sections -fno-common\000"
 2407      74612D73 
 2407      65637469 
 2407      6F6E7320 
ARM GAS  C:\Users\DEVELO~1\AppData\Local\Temp\ccj0Zyje.s 			page 49


 2407      2D666E6F 
 2408              	.LASF10:
 2409 0737 5F5F696E 		.ascii	"__int32_t\000"
 2409      7433325F 
 2409      7400
 2410              	.LASF105:
 2411 0741 47525853 		.ascii	"GRXSTSP\000"
 2411      54535000 
 2412              	.LASF62:
 2413 0749 5553425F 		.ascii	"USB_EVENT_CONFIGURED\000"
 2413      4556454E 
 2413      545F434F 
 2413      4E464947 
 2413      55524544 
 2414              	.LASF36:
 2415 075e 65703065 		.ascii	"ep0endcb\000"
 2415      6E646362 
 2415      00
 2416              	.LASF145:
 2417 0767 72657376 		.ascii	"resvd8C0\000"
 2417      64384330 
 2417      00
 2418              	.LASF97:
 2419 0770 474F5447 		.ascii	"GOTGCTL\000"
 2419      43544C00 
 2420              	.LASF9:
 2421 0778 73686F72 		.ascii	"short unsigned int\000"
 2421      7420756E 
 2421      7369676E 
 2421      65642069 
 2421      6E7400
 2422              	.LASF12:
 2423 078b 5F5F7569 		.ascii	"__uint32_t\000"
 2423      6E743332 
 2423      5F7400
 2424              	.LASF180:
 2425 0796 55534244 		.ascii	"USBD1\000"
 2425      3100
 2426              	.LASF137:
 2427 079c 44564255 		.ascii	"DVBUSDIS\000"
 2427      53444953 
 2427      00
 2428              	.LASF164:
 2429 07a5 65705F6D 		.ascii	"ep_mode\000"
 2429      6F646500 
 2430              	.LASF123:
 2431 07ad 72657376 		.ascii	"resvd41C\000"
 2431      64343143 
 2431      00
 2432              	.LASF93:
 2433 07b6 444F4550 		.ascii	"DOEPCTL\000"
 2433      43544C00 
 2434              	.LASF156:
 2435 07be 7478636E 		.ascii	"txcnt\000"
 2435      7400
 2436              	.LASF19:
 2437 07c4 75696E74 		.ascii	"uint32_t\000"
ARM GAS  C:\Users\DEVELO~1\AppData\Local\Temp\ccj0Zyje.s 			page 50


 2437      33325F74 
 2437      00
 2438              	.LASF56:
 2439 07cd 5553425F 		.ascii	"USB_EP0_OUT_WAITING_STS\000"
 2439      4550305F 
 2439      4F55545F 
 2439      57414954 
 2439      494E475F 
 2440              	.LASF169:
 2441 07e5 6F75745F 		.ascii	"out_maxsize\000"
 2441      6D617873 
 2441      697A6500 
 2442              	.LASF38:
 2443 07f1 73746174 		.ascii	"status\000"
 2443      757300
 2444              	.LASF72:
 2445 07f8 75736265 		.ascii	"usbepcallback_t\000"
 2445      7063616C 
 2445      6C626163 
 2445      6B5F7400 
 2446              	.LASF112:
 2447 0808 72657376 		.ascii	"resvd58\000"
 2447      64353800 
 2448              	.LASF159:
 2449 0810 55534249 		.ascii	"USBInEndpointState\000"
 2449      6E456E64 
 2449      706F696E 
 2449      74537461 
 2449      746500
 2450              	.LASF26:
 2451 0823 55534244 		.ascii	"USBDriver\000"
 2451      72697665 
 2451      7200
 2452              	.LASF16:
 2453 082d 75696E74 		.ascii	"uint8_t\000"
 2453      385F7400 
 2454              	.LASF160:
 2455 0835 72787369 		.ascii	"rxsize\000"
 2455      7A6500
 2456              	.LASF132:
 2457 083c 444F4550 		.ascii	"DOEPMSK\000"
 2457      4D534B00 
 2458              	.LASF189:
 2459 0844 7573625F 		.ascii	"usb_device_start\000"
 2459      64657669 
 2459      63655F73 
 2459      74617274 
 2459      00
 2460              	.LASF31:
 2461 0855 696E5F70 		.ascii	"in_params\000"
 2461      6172616D 
 2461      7300
 2462              	.LASF96:
 2463 085f 73746D33 		.ascii	"stm32_otg_out_ep_t\000"
 2463      325F6F74 
 2463      675F6F75 
 2463      745F6570 
ARM GAS  C:\Users\DEVELO~1\AppData\Local\Temp\ccj0Zyje.s 			page 51


 2463      5F7400
 2464              	.LASF111:
 2465 0872 47434346 		.ascii	"GCCFG\000"
 2465      4700
 2466              	.LASF90:
 2467 0878 44545846 		.ascii	"DTXFSTS\000"
 2467      53545300 
 2468              	.LASF76:
 2469 0880 48434348 		.ascii	"HCCHAR\000"
 2469      415200
 2470              	.LASF11:
 2471 0887 6C6F6E67 		.ascii	"long int\000"
 2471      20696E74 
 2471      00
 2472              	.LASF114:
 2473 0890 44494550 		.ascii	"DIEPTXF\000"
 2473      54584600 
 2474              	.LASF50:
 2475 0898 5553425F 		.ascii	"USB_SUSPENDED\000"
 2475      53555350 
 2475      454E4445 
 2475      4400
 2476              	.LASF40:
 2477 08a6 636F6E66 		.ascii	"configuration\000"
 2477      69677572 
 2477      6174696F 
 2477      6E00
 2478              	.LASF172:
 2479 08b4 696E5F6D 		.ascii	"in_multiplier\000"
 2479      756C7469 
 2479      706C6965 
 2479      7200
 2480              	.LASF108:
 2481 08c2 484E5054 		.ascii	"HNPTXSTS\000"
 2481      58535453 
 2481      00
 2482              	.LASF130:
 2483 08cb 72657376 		.ascii	"resvd80C\000"
 2483      64383043 
 2483      00
 2484              		.ident	"GCC: (Arm GNU Toolchain 11.3.Rel1) 11.3.1 20220712"
ARM GAS  C:\Users\DEVELO~1\AppData\Local\Temp\ccj0Zyje.s 			page 52


DEFINED SYMBOLS
                            *ABS*:00000000 usb_device.c
C:\Users\DEVELO~1\AppData\Local\Temp\ccj0Zyje.s:18     .text.usb_device_start:00000000 $t
C:\Users\DEVELO~1\AppData\Local\Temp\ccj0Zyje.s:25     .text.usb_device_start:00000000 usb_device_start
C:\Users\DEVELO~1\AppData\Local\Temp\ccj0Zyje.s:66     .text.usb_device_start:00000038 $d
C:\Users\DEVELO~1\AppData\Local\Temp\ccj0Zyje.s:72     .text.usb_device_active:00000000 $t
C:\Users\DEVELO~1\AppData\Local\Temp\ccj0Zyje.s:79     .text.usb_device_active:00000000 usb_device_active
C:\Users\DEVELO~1\AppData\Local\Temp\ccj0Zyje.s:95     .text.usb_device_active:00000008 $d

UNDEFINED SYMBOLS
chThdSleep
usbStart
USBD1
usbcfg
usb_midi_tx_ready
