ARM GAS  C:\Users\DEVELO~1\AppData\Local\Temp\ccOrmBb5.s 			page 1


   1              		.cpu cortex-m7
   2              		.arch armv7e-m
   3              		.fpu softvfp
   4              		.eabi_attribute 20, 1
   5              		.eabi_attribute 21, 1
   6              		.eabi_attribute 23, 3
   7              		.eabi_attribute 24, 1
   8              		.eabi_attribute 25, 1
   9              		.eabi_attribute 26, 1
  10              		.eabi_attribute 30, 2
  11              		.eabi_attribute 34, 1
  12              		.eabi_attribute 18, 4
  13              		.file	"usbcfg.c"
  14              		.text
  15              	.Ltext0:
  16              		.cfi_sections	.debug_frame
  17              		.section	.text.get_descriptor,"ax",%progbits
  18              		.align	1
  19              		.p2align 4,,15
  20              		.syntax unified
  21              		.thumb
  22              		.thumb_func
  23              		.type	get_descriptor, %function
  24              	get_descriptor:
  25              	.LVL0:
  26              	.LFB435:
  27              		.file 1 "usb/usbcfg.c"
  28              		.loc 1 256 59 view -0
  29              		.cfi_startproc
  30              		@ args = 0, pretend = 0, frame = 0
  31              		@ frame_needed = 0, uses_anonymous_args = 0
  32              		@ link register save eliminated.
  33              		.loc 1 257 3 view .LVU1
  34              		.loc 1 257 15 view .LVU2
  35              		.loc 1 258 3 view .LVU3
  36 0000 0229     		cmp	r1, #2
  37 0002 06D0     		beq	.L4
  38 0004 0329     		cmp	r1, #3
  39 0006 06D0     		beq	.L3
  40              		.loc 1 259 47 is_stmt 0 view .LVU4
  41 0008 0129     		cmp	r1, #1
  42 000a 0748     		ldr	r0, .L8
  43              	.LVL1:
  44              		.loc 1 259 47 view .LVU5
  45 000c 18BF     		it	ne
  46 000e 0020     		movne	r0, #0
  47 0010 7047     		bx	lr
  48              	.LVL2:
  49              	.L4:
  50              		.loc 1 258 3 view .LVU6
  51 0012 0648     		ldr	r0, .L8+4
  52              	.LVL3:
  53              		.loc 1 258 3 view .LVU7
  54 0014 7047     		bx	lr
  55              	.LVL4:
  56              	.L3:
  57              		.loc 1 262 7 is_stmt 1 view .LVU8
ARM GAS  C:\Users\DEVELO~1\AppData\Local\Temp\ccOrmBb5.s 			page 2


  58              		.loc 1 262 10 is_stmt 0 view .LVU9
  59 0016 032A     		cmp	r2, #3
  60 0018 03D8     		bhi	.L6
  61              		.loc 1 262 23 is_stmt 1 discriminator 1 view .LVU10
  62              		.loc 1 262 30 is_stmt 0 discriminator 1 view .LVU11
  63 001a 0548     		ldr	r0, .L8+8
  64              	.LVL5:
  65              		.loc 1 262 30 discriminator 1 view .LVU12
  66 001c 00EBC200 		add	r0, r0, r2, lsl #3
  67 0020 7047     		bx	lr
  68              	.LVL6:
  69              	.L6:
  70              		.loc 1 267 10 view .LVU13
  71 0022 0020     		movs	r0, #0
  72              	.LVL7:
  73              		.loc 1 268 1 view .LVU14
  74 0024 7047     		bx	lr
  75              	.L9:
  76 0026 00BF     		.align	2
  77              	.L8:
  78 0028 00000000 		.word	.LANCHOR0
  79 002c 00000000 		.word	.LANCHOR1
  80 0030 00000000 		.word	.LANCHOR2
  81              		.cfi_endproc
  82              	.LFE435:
  83              		.size	get_descriptor, .-get_descriptor
  84              		.section	.text.sof_handler,"ax",%progbits
  85              		.align	1
  86              		.p2align 4,,15
  87              		.syntax unified
  88              		.thumb
  89              		.thumb_func
  90              		.type	sof_handler, %function
  91              	sof_handler:
  92              	.LVL8:
  93              	.LFB437:
  94              		.loc 1 305 42 is_stmt 1 view -0
  95              		.cfi_startproc
  96              		@ args = 0, pretend = 0, frame = 0
  97              		@ frame_needed = 0, uses_anonymous_args = 0
  98              		@ link register save eliminated.
  99              		.loc 1 306 3 view .LVU16
 100              		.loc 1 307 3 view .LVU17
 101              	.LBB102:
 102              	.LBI102:
 103              		.file 2 "../../../os/oslib/include/chbsem.h"
 104              		.loc 2 266 20 view .LVU18
 105              	.LBB103:
 106              		.loc 2 268 21 view .LVU19
 107              		.loc 2 270 3 view .LVU20
 108              		.loc 2 270 15 is_stmt 0 view .LVU21
 109 0000 0348     		ldr	r0, .L13
 110              	.LVL9:
 111              		.loc 2 270 6 view .LVU22
 112 0002 8368     		ldr	r3, [r0, #8]
 113 0004 002B     		cmp	r3, #0
 114 0006 00DD     		ble	.L12
ARM GAS  C:\Users\DEVELO~1\AppData\Local\Temp\ccOrmBb5.s 			page 3


 115              	.LBE103:
 116              	.LBE102:
 117              		.loc 1 308 1 view .LVU23
 118 0008 7047     		bx	lr
 119              	.L12:
 120              	.LBB105:
 121              	.LBB104:
 122              		.loc 2 271 5 is_stmt 1 view .LVU24
 123 000a FFF7FEBF 		b	chSemSignalI
 124              	.LVL10:
 125              	.L14:
 126 000e 00BF     		.align	2
 127              	.L13:
 128 0010 00000000 		.word	sof_sem
 129              	.LBE104:
 130              	.LBE105:
 131              		.cfi_endproc
 132              	.LFE437:
 133              		.size	sof_handler, .-sof_handler
 134              		.section	.text.ep2_in_cb,"ax",%progbits
 135              		.align	1
 136              		.p2align 4,,15
 137              		.syntax unified
 138              		.thumb
 139              		.thumb_func
 140              		.type	ep2_in_cb, %function
 141              	ep2_in_cb:
 142              	.LVL11:
 143              	.LFB434:
 144              		.loc 1 213 52 view -0
 145              		.cfi_startproc
 146              		@ args = 0, pretend = 0, frame = 0
 147              		@ frame_needed = 0, uses_anonymous_args = 0
 148              		@ link register save eliminated.
 149              		.loc 1 214 3 view .LVU26
 150              		.loc 1 214 15 view .LVU27
 151              		.loc 1 215 3 view .LVU28
 152              	.LBB106:
 153              	.LBI106:
 154              		.loc 2 266 20 view .LVU29
 155              	.LBB107:
 156              		.loc 2 268 21 view .LVU30
 157              		.loc 2 270 3 view .LVU31
 158              		.loc 2 270 15 is_stmt 0 view .LVU32
 159 0000 0348     		ldr	r0, .L18
 160              	.LVL12:
 161              		.loc 2 270 6 view .LVU33
 162 0002 8368     		ldr	r3, [r0, #8]
 163 0004 002B     		cmp	r3, #0
 164 0006 00DD     		ble	.L17
 165              	.LBE107:
 166              	.LBE106:
 167              		.loc 1 216 1 view .LVU34
 168 0008 7047     		bx	lr
 169              	.L17:
 170              	.LBB109:
 171              	.LBB108:
ARM GAS  C:\Users\DEVELO~1\AppData\Local\Temp\ccOrmBb5.s 			page 4


 172              		.loc 2 271 5 is_stmt 1 view .LVU35
 173 000a FFF7FEBF 		b	chSemSignalI
 174              	.LVL13:
 175              	.L19:
 176              		.loc 2 271 5 is_stmt 0 view .LVU36
 177 000e 00BF     		.align	2
 178              	.L18:
 179 0010 00000000 		.word	tx_sem
 180              	.LBE108:
 181              	.LBE109:
 182              		.cfi_endproc
 183              	.LFE434:
 184              		.size	ep2_in_cb, .-ep2_in_cb
 185              		.section	.text.usb_event,"ax",%progbits
 186              		.align	1
 187              		.p2align 4,,15
 188              		.syntax unified
 189              		.thumb
 190              		.thumb_func
 191              		.type	usb_event, %function
 192              	usb_event:
 193              	.LVL14:
 194              	.LFB436:
 195              		.loc 1 276 58 is_stmt 1 view -0
 196              		.cfi_startproc
 197              		@ args = 0, pretend = 0, frame = 0
 198              		@ frame_needed = 0, uses_anonymous_args = 0
 199              		.loc 1 277 3 view .LVU38
 200 0000 0229     		cmp	r1, #2
 201              		.loc 1 276 58 is_stmt 0 view .LVU39
 202 0002 38B5     		push	{r3, r4, r5, lr}
 203              		.cfi_def_cfa_offset 16
 204              		.cfi_offset 3, -16
 205              		.cfi_offset 4, -12
 206              		.cfi_offset 5, -8
 207              		.cfi_offset 14, -4
 208              		.loc 1 276 58 view .LVU40
 209 0004 0C46     		mov	r4, r1
 210              		.loc 1 277 3 view .LVU41
 211 0006 0FD0     		beq	.L21
 212 0008 0BD9     		bls	.L30
 213 000a CC1E     		subs	r4, r1, #3
 214 000c 012C     		cmp	r4, #1
 215 000e 07D8     		bhi	.L20
 216              	.L23:
 217              		.loc 1 292 7 is_stmt 1 view .LVU42
 218              	.LBB153:
 219              	.LBI153:
 220              		.file 3 "../../../os/hal/osal/rt-nil/osal.h"
 221              		.loc 3 595 20 view .LVU43
 222              		.loc 3 597 3 view .LVU44
 223              	.LBB154:
 224              	.LBI154:
 225              		.file 4 "../../../os/rt/include/chsys.h"
 226              		.loc 4 451 20 view .LVU45
 227              		.loc 4 453 3 view .LVU46
 228              	.LBB155:
ARM GAS  C:\Users\DEVELO~1\AppData\Local\Temp\ccOrmBb5.s 			page 5


 229              	.LBI155:
 230              		.file 5 "../../../os/common/ports/ARMv7-M/chcore.h"
 231              		.loc 5 862 27 view .LVU47
 232              		.loc 5 864 3 view .LVU48
 233              	.LBB156:
 234              	.LBI156:
 235              		.loc 5 823 27 view .LVU49
 236              		.loc 5 831 3 view .LVU50
 237              	.LVL15:
 238              	.LBB157:
 239              	.LBI157:
 240              		.file 6 "../../../os/common/ext/ARM/CMSIS/Core/Include/cmsis_gcc.h"
 241              		.loc 6 491 27 view .LVU51
 242              	.LBB158:
 243              		.loc 6 493 3 view .LVU52
 244 0010 3023     		movs	r3, #48
 245              		.syntax unified
 246              	@ 493 "../../../os/common/ext/ARM/CMSIS/Core/Include/cmsis_gcc.h" 1
 247 0012 83F31188 		MSR basepri, r3
 248              	@ 0 "" 2
 249              	.LVL16:
 250              		.loc 6 493 3 is_stmt 0 view .LVU53
 251              		.thumb
 252              		.syntax unified
 253              	.LBE158:
 254              	.LBE157:
 255              	.LBE156:
 256              	.LBE155:
 257              		.loc 4 454 35 is_stmt 1 view .LVU54
 258              		.loc 4 455 30 view .LVU55
 259              	.LBE154:
 260              	.LBE153:
 261              		.loc 1 293 7 view .LVU56
 262              		.loc 1 293 25 is_stmt 0 view .LVU57
 263 0016 154A     		ldr	r2, .L32
 264 0018 0023     		movs	r3, #0
 265 001a 1370     		strb	r3, [r2]
 266              		.loc 1 294 7 is_stmt 1 view .LVU58
 267              	.LBB159:
 268              	.LBI159:
 269              		.loc 3 606 20 view .LVU59
 270              	.LBB160:
 271              		.loc 3 608 3 view .LVU60
 272              	.LBB161:
 273              	.LBI161:
 274              		.loc 4 473 20 view .LVU61
 275              		.loc 4 475 32 view .LVU62
 276              		.loc 4 476 34 view .LVU63
 277              		.loc 4 477 3 view .LVU64
 278              	.LBB162:
 279              	.LBI162:
 280              		.loc 5 873 27 view .LVU65
 281              		.loc 5 875 3 view .LVU66
 282              	.LBB163:
 283              	.LBI163:
 284              		.loc 5 847 27 view .LVU67
 285              		.loc 5 850 3 view .LVU68
ARM GAS  C:\Users\DEVELO~1\AppData\Local\Temp\ccOrmBb5.s 			page 6


 286              	.LVL17:
 287              	.LBB164:
 288              	.LBI164:
 289              		.loc 6 491 27 view .LVU69
 290              	.LBB165:
 291              		.loc 6 493 3 view .LVU70
 292              		.syntax unified
 293              	@ 493 "../../../os/common/ext/ARM/CMSIS/Core/Include/cmsis_gcc.h" 1
 294 001c 83F31188 		MSR basepri, r3
 295              	@ 0 "" 2
 296              	.LVL18:
 297              		.thumb
 298              		.syntax unified
 299              	.L20:
 300              		.loc 6 493 3 is_stmt 0 view .LVU71
 301              	.LBE165:
 302              	.LBE164:
 303              	.LBE163:
 304              	.LBE162:
 305              	.LBE161:
 306              	.LBE160:
 307              	.LBE159:
 308              		.loc 1 300 1 view .LVU72
 309 0020 38BD     		pop	{r3, r4, r5, pc}
 310              	.L30:
 311              		.loc 1 277 3 view .LVU73
 312 0022 0029     		cmp	r1, #0
 313 0024 F4D0     		beq	.L23
 314              		.loc 1 300 1 view .LVU74
 315 0026 38BD     		pop	{r3, r4, r5, pc}
 316              	.L21:
 317 0028 0546     		mov	r5, r0
 318              	.LVL19:
 319              	.LBB166:
 320              	.LBI166:
 321              		.loc 1 276 13 is_stmt 1 view .LVU75
 322              	.LBB167:
 323              		.loc 1 279 7 view .LVU76
 324              	.LBB168:
 325              	.LBI168:
 326              		.loc 3 595 20 view .LVU77
 327              		.loc 3 597 3 view .LVU78
 328              	.LBB169:
 329              	.LBI169:
 330              		.loc 4 451 20 view .LVU79
 331              		.loc 4 453 3 view .LVU80
 332              	.LBB170:
 333              	.LBI170:
 334              		.loc 5 862 27 view .LVU81
 335              		.loc 5 864 3 view .LVU82
 336              	.LBB171:
 337              	.LBI171:
 338              		.loc 5 823 27 view .LVU83
 339              		.loc 5 831 3 view .LVU84
 340              	.LBB172:
 341              	.LBI172:
 342              		.loc 6 491 27 view .LVU85
ARM GAS  C:\Users\DEVELO~1\AppData\Local\Temp\ccOrmBb5.s 			page 7


 343              	.LBB173:
 344              		.loc 6 493 3 view .LVU86
 345 002a 3023     		movs	r3, #48
 346              		.syntax unified
 347              	@ 493 "../../../os/common/ext/ARM/CMSIS/Core/Include/cmsis_gcc.h" 1
 348 002c 83F31188 		MSR basepri, r3
 349              	@ 0 "" 2
 350              	.LVL20:
 351              		.loc 6 493 3 is_stmt 0 view .LVU87
 352              		.thumb
 353              		.syntax unified
 354              	.LBE173:
 355              	.LBE172:
 356              	.LBE171:
 357              	.LBE170:
 358              		.loc 4 454 35 is_stmt 1 view .LVU88
 359              		.loc 4 455 30 view .LVU89
 360              	.LBE169:
 361              	.LBE168:
 362              		.loc 1 280 7 view .LVU90
 363 0030 0F4A     		ldr	r2, .L32+4
 364 0032 0121     		movs	r1, #1
 365              	.LVL21:
 366              		.loc 1 280 7 is_stmt 0 view .LVU91
 367 0034 FFF7FEFF 		bl	usbInitEndpointI
 368              	.LVL22:
 369              		.loc 1 281 7 is_stmt 1 view .LVU92
 370 0038 0E4A     		ldr	r2, .L32+8
 371 003a 2146     		mov	r1, r4
 372 003c 2846     		mov	r0, r5
 373 003e FFF7FEFF 		bl	usbInitEndpointI
 374              	.LVL23:
 375              		.loc 1 282 7 view .LVU93
 376              		.loc 1 283 7 view .LVU94
 377 0042 4023     		movs	r3, #64
 378 0044 0C4A     		ldr	r2, .L32+12
 379 0046 0121     		movs	r1, #1
 380 0048 2846     		mov	r0, r5
 381 004a FFF7FEFF 		bl	usbStartReceiveI
 382              	.LVL24:
 383              		.loc 1 284 7 view .LVU95
 384              	.LBB174:
 385              	.LBB175:
 386              		.loc 2 270 15 is_stmt 0 view .LVU96
 387 004e 0B48     		ldr	r0, .L32+16
 388              	.LBE175:
 389              	.LBE174:
 390              		.loc 1 284 25 view .LVU97
 391 0050 064A     		ldr	r2, .L32
 392 0052 0121     		movs	r1, #1
 393              	.LBB179:
 394              	.LBB176:
 395              		.loc 2 270 6 view .LVU98
 396 0054 8368     		ldr	r3, [r0, #8]
 397              	.LBE176:
 398              	.LBE179:
 399              		.loc 1 284 25 view .LVU99
ARM GAS  C:\Users\DEVELO~1\AppData\Local\Temp\ccOrmBb5.s 			page 8


 400 0056 1170     		strb	r1, [r2]
 401              		.loc 1 285 7 is_stmt 1 view .LVU100
 402              	.LVL25:
 403              	.LBB180:
 404              	.LBI174:
 405              		.loc 2 266 20 view .LVU101
 406              	.LBB177:
 407              		.loc 2 268 21 view .LVU102
 408              		.loc 2 270 3 view .LVU103
 409              		.loc 2 270 6 is_stmt 0 view .LVU104
 410 0058 002B     		cmp	r3, #0
 411 005a 03DD     		ble	.L31
 412              	.L25:
 413              	.LVL26:
 414              		.loc 2 270 6 view .LVU105
 415              	.LBE177:
 416              	.LBE180:
 417              		.loc 1 286 7 is_stmt 1 view .LVU106
 418              	.LBB181:
 419              	.LBI181:
 420              		.loc 3 606 20 view .LVU107
 421              		.loc 3 608 3 view .LVU108
 422              	.LBB182:
 423              	.LBI182:
 424              		.loc 4 473 20 view .LVU109
 425              		.loc 4 475 32 view .LVU110
 426              		.loc 4 476 34 view .LVU111
 427              		.loc 4 477 3 view .LVU112
 428              	.LBB183:
 429              	.LBI183:
 430              		.loc 5 873 27 view .LVU113
 431              		.loc 5 875 3 view .LVU114
 432              	.LBB184:
 433              	.LBI184:
 434              		.loc 5 847 27 view .LVU115
 435              		.loc 5 850 3 view .LVU116
 436              	.LBB185:
 437              	.LBI185:
 438              		.loc 6 491 27 view .LVU117
 439              	.LBB186:
 440              		.loc 6 493 3 view .LVU118
 441 005c 0023     		movs	r3, #0
 442              		.syntax unified
 443              	@ 493 "../../../os/common/ext/ARM/CMSIS/Core/Include/cmsis_gcc.h" 1
 444 005e 83F31188 		MSR basepri, r3
 445              	@ 0 "" 2
 446              	.LVL27:
 447              		.loc 6 493 3 is_stmt 0 view .LVU119
 448              		.thumb
 449              		.syntax unified
 450              	.LBE186:
 451              	.LBE185:
 452              	.LBE184:
 453              	.LBE183:
 454              	.LBE182:
 455              	.LBE181:
 456              	.LBE167:
ARM GAS  C:\Users\DEVELO~1\AppData\Local\Temp\ccOrmBb5.s 			page 9


 457              	.LBE166:
 458              		.loc 1 300 1 view .LVU120
 459 0062 38BD     		pop	{r3, r4, r5, pc}
 460              	.LVL28:
 461              	.L31:
 462              	.LBB189:
 463              	.LBB188:
 464              	.LBB187:
 465              	.LBB178:
 466              		.loc 2 271 5 is_stmt 1 view .LVU121
 467 0064 FFF7FEFF 		bl	chSemSignalI
 468              	.LVL29:
 469 0068 F8E7     		b	.L25
 470              	.L33:
 471 006a 00BF     		.align	2
 472              	.L32:
 473 006c 00000000 		.word	.LANCHOR6
 474 0070 00000000 		.word	.LANCHOR3
 475 0074 00000000 		.word	.LANCHOR4
 476 0078 00000000 		.word	.LANCHOR5
 477 007c 00000000 		.word	tx_sem
 478              	.LBE178:
 479              	.LBE187:
 480              	.LBE188:
 481              	.LBE189:
 482              		.cfi_endproc
 483              	.LFE436:
 484              		.size	usb_event, .-usb_event
 485              		.section	.text.ep1_out_cb,"ax",%progbits
 486              		.align	1
 487              		.p2align 4,,15
 488              		.syntax unified
 489              		.thumb
 490              		.thumb_func
 491              		.type	ep1_out_cb, %function
 492              	ep1_out_cb:
 493              	.LVL30:
 494              	.LFB433:
 495              		.loc 1 186 53 view -0
 496              		.cfi_startproc
 497              		@ args = 0, pretend = 0, frame = 0
 498              		@ frame_needed = 0, uses_anonymous_args = 0
 499              		.loc 1 187 3 view .LVU123
 500              		.loc 1 188 3 view .LVU124
 501              		.loc 1 188 16 is_stmt 0 view .LVU125
 502 0000 104B     		ldr	r3, .L38
 503 0002 1968     		ldr	r1, [r3]
 504              	.LVL31:
 505              		.loc 1 190 3 is_stmt 1 view .LVU126
 506              		.loc 1 190 23 is_stmt 0 view .LVU127
 507 0004 4B1E     		subs	r3, r1, #1
 508              		.loc 1 190 6 view .LVU128
 509 0006 3F2B     		cmp	r3, #63
 510              		.loc 1 186 53 view .LVU129
 511 0008 70B5     		push	{r4, r5, r6, lr}
 512              		.cfi_def_cfa_offset 16
 513              		.cfi_offset 4, -16
ARM GAS  C:\Users\DEVELO~1\AppData\Local\Temp\ccOrmBb5.s 			page 10


 514              		.cfi_offset 5, -12
 515              		.cfi_offset 6, -8
 516              		.cfi_offset 14, -4
 517              		.loc 1 190 6 view .LVU130
 518 000a 0BD8     		bhi	.L37
 519 000c 0446     		mov	r4, r0
 520              		.loc 1 197 3 is_stmt 1 view .LVU131
 521              		.loc 1 198 3 view .LVU132
 522 000e 0E48     		ldr	r0, .L38+4
 523              	.LVL32:
 524              		.loc 1 198 3 is_stmt 0 view .LVU133
 525 0010 FFF7FEFF 		bl	midi_usb_rx_submit_from_isr
 526              	.LVL33:
 527              		.loc 1 199 3 is_stmt 1 view .LVU134
 528 0014 4023     		movs	r3, #64
 529 0016 2046     		mov	r0, r4
 530 0018 0B4A     		ldr	r2, .L38+4
 531 001a 0121     		movs	r1, #1
 532              		.loc 1 200 1 is_stmt 0 view .LVU135
 533 001c BDE87040 		pop	{r4, r5, r6, lr}
 534              		.cfi_remember_state
 535              		.cfi_restore 14
 536              		.cfi_restore 6
 537              		.cfi_restore 5
 538              		.cfi_restore 4
 539              		.cfi_def_cfa_offset 0
 540              	.LVL34:
 541              		.loc 1 199 3 view .LVU136
 542 0020 FFF7FEBF 		b	usbStartReceiveI
 543              	.LVL35:
 544              	.L37:
 545              		.cfi_restore_state
 546              	.LBB192:
 547              	.LBI192:
 548              		.loc 1 186 13 is_stmt 1 view .LVU137
 549              	.LBB193:
 550              		.loc 1 191 5 view .LVU138
 551              		.loc 1 191 29 is_stmt 0 view .LVU139
 552 0024 094D     		ldr	r5, .L38+8
 553              		.loc 1 193 5 view .LVU140
 554 0026 4023     		movs	r3, #64
 555              		.loc 1 192 18 view .LVU141
 556 0028 094C     		ldr	r4, .L38+12
 557              		.loc 1 191 29 view .LVU142
 558 002a 2968     		ldr	r1, [r5]
 559              	.LVL36:
 560              		.loc 1 193 5 view .LVU143
 561 002c 064A     		ldr	r2, .L38+4
 562              		.loc 1 191 29 view .LVU144
 563 002e 0131     		adds	r1, r1, #1
 564 0030 2960     		str	r1, [r5]
 565              		.loc 1 192 5 is_stmt 1 view .LVU145
 566              		.loc 1 192 18 is_stmt 0 view .LVU146
 567 0032 6168     		ldr	r1, [r4, #4]
 568              		.loc 1 192 31 view .LVU147
 569 0034 0131     		adds	r1, r1, #1
 570 0036 6160     		str	r1, [r4, #4]
ARM GAS  C:\Users\DEVELO~1\AppData\Local\Temp\ccOrmBb5.s 			page 11


 571              		.loc 1 193 5 is_stmt 1 view .LVU148
 572 0038 0121     		movs	r1, #1
 573              	.LBE193:
 574              	.LBE192:
 575              		.loc 1 200 1 is_stmt 0 view .LVU149
 576 003a BDE87040 		pop	{r4, r5, r6, lr}
 577              		.cfi_restore 14
 578              		.cfi_restore 6
 579              		.cfi_restore 5
 580              		.cfi_restore 4
 581              		.cfi_def_cfa_offset 0
 582              	.LBB195:
 583              	.LBB194:
 584              		.loc 1 193 5 view .LVU150
 585 003e FFF7FEBF 		b	usbStartReceiveI
 586              	.LVL37:
 587              	.L39:
 588              		.loc 1 193 5 view .LVU151
 589 0042 00BF     		.align	2
 590              	.L38:
 591 0044 00000000 		.word	.LANCHOR7
 592 0048 00000000 		.word	.LANCHOR5
 593 004c 00000000 		.word	.LANCHOR8
 594 0050 00000000 		.word	midi_rx_stats
 595              	.LBE194:
 596              	.LBE195:
 597              		.cfi_endproc
 598              	.LFE433:
 599              		.size	ep1_out_cb, .-ep1_out_cb
 600              		.global	usbcfg
 601              		.global	usb_midi_tx_ready
 602              		.section	.bss.ep1_out_state,"aw",%nobits
 603              		.align	2
 604              		.set	.LANCHOR7,. + 0
 605              		.type	ep1_out_state, %object
 606              		.size	ep1_out_state, 16
 607              	ep1_out_state:
 608 0000 00000000 		.space	16
 608      00000000 
 608      00000000 
 608      00000000 
 609              		.section	.bss.ep2_in_state,"aw",%nobits
 610              		.align	2
 611              		.type	ep2_in_state, %object
 612              		.size	ep2_in_state, 16
 613              	ep2_in_state:
 614 0000 00000000 		.space	16
 614      00000000 
 614      00000000 
 614      00000000 
 615              		.section	.bss.rx_pkt,"aw",%nobits
 616              		.align	5
 617              		.set	.LANCHOR5,. + 0
 618              		.type	rx_pkt, %object
 619              		.size	rx_pkt, 64
 620              	rx_pkt:
 621 0000 00000000 		.space	64
ARM GAS  C:\Users\DEVELO~1\AppData\Local\Temp\ccOrmBb5.s 			page 12


 621      00000000 
 621      00000000 
 621      00000000 
 621      00000000 
 622              		.section	.bss.usb_midi_rx_invalid_size,"aw",%nobits
 623              		.align	2
 624              		.set	.LANCHOR8,. + 0
 625              		.type	usb_midi_rx_invalid_size, %object
 626              		.size	usb_midi_rx_invalid_size, 4
 627              	usb_midi_rx_invalid_size:
 628 0000 00000000 		.space	4
 629              		.section	.bss.usb_midi_tx_ready,"aw",%nobits
 630              		.set	.LANCHOR6,. + 0
 631              		.type	usb_midi_tx_ready, %object
 632              		.size	usb_midi_tx_ready, 1
 633              	usb_midi_tx_ready:
 634 0000 00       		.space	1
 635              		.section	.rodata.config_descriptor,"a"
 636              		.align	2
 637              		.set	.LANCHOR1,. + 0
 638              		.type	config_descriptor, %object
 639              		.size	config_descriptor, 8
 640              	config_descriptor:
 641 0000 52000000 		.word	82
 642 0004 00000000 		.word	config_descriptor_data
 643              		.section	.rodata.config_descriptor_data,"a"
 644              		.align	2
 645              		.type	config_descriptor_data, %object
 646              		.size	config_descriptor_data, 82
 647              	config_descriptor_data:
 648 0000 09025200 		.ascii	"\011\002R\000\002\001\000\2002\011\004\000\000\000\001"
 648      02010080 
 648      32090400 
 648      000001
 649 000f 01000009 		.ascii	"\001\000\000\011$\001\000\001\011\000\001\001\011\004"
 649      24010001 
 649      09000101 
 649      0904
 650 001d 01000201 		.ascii	"\001\000\002\001\003\000\000\007$\001\000\001 \000\006"
 650      03000007 
 650      24010001 
 650      200006
 651 002c 24020101 		.ascii	"$\002\001\001\001\011$\003\001\002\001\001\001\000\007"
 651      01092403 
 651      01020101 
 651      010007
 652 003b 05010240 		.ascii	"\005\001\002@\000\000\005%\001\001\001\007\005\202\002"
 652      00000525 
 652      01010107 
 652      058202
 653 004a 40000005 		.ascii	"@\000\000\005%\001\001\002"
 653      25010102 
 654              		.section	.rodata.device_descriptor,"a"
 655              		.align	2
 656              		.set	.LANCHOR0,. + 0
 657              		.type	device_descriptor, %object
 658              		.size	device_descriptor, 8
ARM GAS  C:\Users\DEVELO~1\AppData\Local\Temp\ccOrmBb5.s 			page 13


 659              	device_descriptor:
 660 0000 12000000 		.word	18
 661 0004 00000000 		.word	device_descriptor_data
 662              		.section	.rodata.device_descriptor_data,"a"
 663              		.align	2
 664              		.type	device_descriptor_data, %object
 665              		.size	device_descriptor_data, 18
 666              	device_descriptor_data:
 667 0000 12010002 		.ascii	"\022\001\000\002\000\000\000@\203\004@W\000\001\001"
 667      00000040 
 667      83044057 
 667      000101
 668 000f 020301   		.ascii	"\002\003\001"
 669              		.section	.rodata.ep1_out_cfg,"a"
 670              		.align	2
 671              		.set	.LANCHOR3,. + 0
 672              		.type	ep1_out_cfg, %object
 673              		.size	ep1_out_cfg, 36
 674              	ep1_out_cfg:
 675 0000 02000000 		.word	2
 676 0004 00000000 		.word	0
 677 0008 00000000 		.word	0
 678 000c 00000000 		.word	ep1_out_cb
 679 0010 0000     		.short	0
 680 0012 4000     		.short	64
 681 0014 00000000 		.word	0
 682 0018 00000000 		.word	ep1_out_state
 683 001c 0100     		.short	1
 684 001e 0000     		.space	2
 685 0020 00000000 		.word	0
 686              		.section	.rodata.ep2_in_cfg,"a"
 687              		.align	2
 688              		.set	.LANCHOR4,. + 0
 689              		.type	ep2_in_cfg, %object
 690              		.size	ep2_in_cfg, 36
 691              	ep2_in_cfg:
 692 0000 02000000 		.word	2
 693 0004 00000000 		.word	0
 694 0008 00000000 		.word	ep2_in_cb
 695 000c 00000000 		.word	0
 696 0010 4000     		.short	64
 697 0012 0000     		.short	0
 698 0014 00000000 		.word	ep2_in_state
 699 0018 00000000 		.word	0
 700 001c 0100     		.short	1
 701 001e 0000     		.space	2
 702 0020 00000000 		.word	0
 703              		.section	.rodata.string0,"a"
 704              		.align	2
 705              		.type	string0, %object
 706              		.size	string0, 4
 707              	string0:
 708 0000 04030904 		.ascii	"\004\003\011\004"
 709              		.section	.rodata.string1,"a"
 710              		.align	2
 711              		.type	string1, %object
 712              		.size	string1, 16
ARM GAS  C:\Users\DEVELO~1\AppData\Local\Temp\ccOrmBb5.s 			page 14


 713              	string1:
 714 0000 10034300 		.ascii	"\020\003C\000h\000i\000b\000i\000O\000S\000"
 714      68006900 
 714      62006900 
 714      4F005300 
 715              		.section	.rodata.string2,"a"
 716              		.align	2
 717              		.type	string2, %object
 718              		.size	string2, 12
 719              	string2:
 720 0000 0C034200 		.ascii	"\014\003B\000r\000i\000c\000k\000"
 720      72006900 
 720      63006B00 
 721              		.section	.rodata.string3,"a"
 722              		.align	2
 723              		.type	string3, %object
 724              		.size	string3, 10
 725              	string3:
 726 0000 0A033000 		.ascii	"\012\0030\0000\0000\0001\000"
 726      30003000 
 726      3100
 727              		.section	.rodata.strings,"a"
 728              		.align	2
 729              		.set	.LANCHOR2,. + 0
 730              		.type	strings, %object
 731              		.size	strings, 32
 732              	strings:
 733 0000 04000000 		.word	4
 734 0004 00000000 		.word	string0
 735 0008 10000000 		.word	16
 736 000c 00000000 		.word	string1
 737 0010 0C000000 		.word	12
 738 0014 00000000 		.word	string2
 739 0018 0A000000 		.word	10
 740 001c 00000000 		.word	string3
 741              		.section	.rodata.usbcfg,"a"
 742              		.align	2
 743              		.type	usbcfg, %object
 744              		.size	usbcfg, 16
 745              	usbcfg:
 746 0000 00000000 		.word	usb_event
 747 0004 00000000 		.word	get_descriptor
 748 0008 00000000 		.word	0
 749 000c 00000000 		.word	sof_handler
 750              		.text
 751              	.Letext0:
 752              		.file 7 "c:\\chibistudio\\tools\\gnu tools arm embedded\\11.3 2022.08\\lib\\gcc\\arm-none-eabi\\11
 753              		.file 8 "c:\\chibistudio\\tools\\gnu tools arm embedded\\11.3 2022.08\\arm-none-eabi\\include\\mac
 754              		.file 9 "c:\\chibistudio\\tools\\gnu tools arm embedded\\11.3 2022.08\\arm-none-eabi\\include\\sys
 755              		.file 10 "../../../os/rt/include/chearly.h"
 756              		.file 11 "../../../os/rt/include/chlists.h"
 757              		.file 12 "../../../os/rt/include/chsem.h"
 758              		.file 13 "../../../os/hal/include/hal_usb.h"
 759              		.file 14 "../../../os/hal/ports/STM32/LLD/OTGv1/hal_usb_lld.h"
 760              		.file 15 "../../../os/hal/ports/STM32/LLD/OTGv1/stm32_otg.h"
 761              		.file 16 "usb/usbcfg.h"
 762              		.file 17 "midi/midi.h"
ARM GAS  C:\Users\DEVELO~1\AppData\Local\Temp\ccOrmBb5.s 			page 15

